ARM GAS  c:\Users\lenovo\AppData\Local\Temp\ccpYsKo5.s 			page 1


   1              		.cpu cortex-m4
   2              		.eabi_attribute 27, 1
   3              		.eabi_attribute 28, 1
   4              		.eabi_attribute 20, 1
   5              		.eabi_attribute 21, 1
   6              		.eabi_attribute 23, 3
   7              		.eabi_attribute 24, 1
   8              		.eabi_attribute 25, 1
   9              		.eabi_attribute 26, 1
  10              		.eabi_attribute 30, 1
  11              		.eabi_attribute 34, 1
  12              		.eabi_attribute 18, 4
  13              		.file	"aes.c"
  14              		.text
  15              	.Ltext0:
  16              		.cfi_sections	.debug_frame
  17              		.section	.text.mbedtls_zeroize,"ax",%progbits
  18              		.align	1
  19              		.syntax unified
  20              		.thumb
  21              		.thumb_func
  22              		.fpu fpv4-sp-d16
  24              	mbedtls_zeroize:
  25              	.LFB0:
  26              		.file 1 "C:/Users/lenovo/Desktop/liteos/Project2/BearPi_LiteOS/components/security/mbedtls/mbedtls
   1:C:/Users/lenovo/Desktop/liteos/Project2/BearPi_LiteOS/components/security/mbedtls/mbedtls-2.6.0/library\aes.c **** /*
   2:C:/Users/lenovo/Desktop/liteos/Project2/BearPi_LiteOS/components/security/mbedtls/mbedtls-2.6.0/library\aes.c ****  *  FIPS-197 compliant AES implementation
   3:C:/Users/lenovo/Desktop/liteos/Project2/BearPi_LiteOS/components/security/mbedtls/mbedtls-2.6.0/library\aes.c ****  *
   4:C:/Users/lenovo/Desktop/liteos/Project2/BearPi_LiteOS/components/security/mbedtls/mbedtls-2.6.0/library\aes.c ****  *  Copyright (C) 2006-2015, ARM Limited, All Rights Reserved
   5:C:/Users/lenovo/Desktop/liteos/Project2/BearPi_LiteOS/components/security/mbedtls/mbedtls-2.6.0/library\aes.c ****  *  SPDX-License-Identifier: Apache-2.0
   6:C:/Users/lenovo/Desktop/liteos/Project2/BearPi_LiteOS/components/security/mbedtls/mbedtls-2.6.0/library\aes.c ****  *
   7:C:/Users/lenovo/Desktop/liteos/Project2/BearPi_LiteOS/components/security/mbedtls/mbedtls-2.6.0/library\aes.c ****  *  Licensed under the Apache License, Version 2.0 (the "License"); you may
   8:C:/Users/lenovo/Desktop/liteos/Project2/BearPi_LiteOS/components/security/mbedtls/mbedtls-2.6.0/library\aes.c ****  *  not use this file except in compliance with the License.
   9:C:/Users/lenovo/Desktop/liteos/Project2/BearPi_LiteOS/components/security/mbedtls/mbedtls-2.6.0/library\aes.c ****  *  You may obtain a copy of the License at
  10:C:/Users/lenovo/Desktop/liteos/Project2/BearPi_LiteOS/components/security/mbedtls/mbedtls-2.6.0/library\aes.c ****  *
  11:C:/Users/lenovo/Desktop/liteos/Project2/BearPi_LiteOS/components/security/mbedtls/mbedtls-2.6.0/library\aes.c ****  *  http://www.apache.org/licenses/LICENSE-2.0
  12:C:/Users/lenovo/Desktop/liteos/Project2/BearPi_LiteOS/components/security/mbedtls/mbedtls-2.6.0/library\aes.c ****  *
  13:C:/Users/lenovo/Desktop/liteos/Project2/BearPi_LiteOS/components/security/mbedtls/mbedtls-2.6.0/library\aes.c ****  *  Unless required by applicable law or agreed to in writing, software
  14:C:/Users/lenovo/Desktop/liteos/Project2/BearPi_LiteOS/components/security/mbedtls/mbedtls-2.6.0/library\aes.c ****  *  distributed under the License is distributed on an "AS IS" BASIS, WITHOUT
  15:C:/Users/lenovo/Desktop/liteos/Project2/BearPi_LiteOS/components/security/mbedtls/mbedtls-2.6.0/library\aes.c ****  *  WARRANTIES OR CONDITIONS OF ANY KIND, either express or implied.
  16:C:/Users/lenovo/Desktop/liteos/Project2/BearPi_LiteOS/components/security/mbedtls/mbedtls-2.6.0/library\aes.c ****  *  See the License for the specific language governing permissions and
  17:C:/Users/lenovo/Desktop/liteos/Project2/BearPi_LiteOS/components/security/mbedtls/mbedtls-2.6.0/library\aes.c ****  *  limitations under the License.
  18:C:/Users/lenovo/Desktop/liteos/Project2/BearPi_LiteOS/components/security/mbedtls/mbedtls-2.6.0/library\aes.c ****  *
  19:C:/Users/lenovo/Desktop/liteos/Project2/BearPi_LiteOS/components/security/mbedtls/mbedtls-2.6.0/library\aes.c ****  *  This file is part of mbed TLS (https://tls.mbed.org)
  20:C:/Users/lenovo/Desktop/liteos/Project2/BearPi_LiteOS/components/security/mbedtls/mbedtls-2.6.0/library\aes.c ****  */
  21:C:/Users/lenovo/Desktop/liteos/Project2/BearPi_LiteOS/components/security/mbedtls/mbedtls-2.6.0/library\aes.c **** /*
  22:C:/Users/lenovo/Desktop/liteos/Project2/BearPi_LiteOS/components/security/mbedtls/mbedtls-2.6.0/library\aes.c ****  *  The AES block cipher was designed by Vincent Rijmen and Joan Daemen.
  23:C:/Users/lenovo/Desktop/liteos/Project2/BearPi_LiteOS/components/security/mbedtls/mbedtls-2.6.0/library\aes.c ****  *
  24:C:/Users/lenovo/Desktop/liteos/Project2/BearPi_LiteOS/components/security/mbedtls/mbedtls-2.6.0/library\aes.c ****  *  http://csrc.nist.gov/encryption/aes/rijndael/Rijndael.pdf
  25:C:/Users/lenovo/Desktop/liteos/Project2/BearPi_LiteOS/components/security/mbedtls/mbedtls-2.6.0/library\aes.c ****  *  http://csrc.nist.gov/publications/fips/fips197/fips-197.pdf
  26:C:/Users/lenovo/Desktop/liteos/Project2/BearPi_LiteOS/components/security/mbedtls/mbedtls-2.6.0/library\aes.c ****  */
  27:C:/Users/lenovo/Desktop/liteos/Project2/BearPi_LiteOS/components/security/mbedtls/mbedtls-2.6.0/library\aes.c **** 
  28:C:/Users/lenovo/Desktop/liteos/Project2/BearPi_LiteOS/components/security/mbedtls/mbedtls-2.6.0/library\aes.c **** #if !defined(MBEDTLS_CONFIG_FILE)
  29:C:/Users/lenovo/Desktop/liteos/Project2/BearPi_LiteOS/components/security/mbedtls/mbedtls-2.6.0/library\aes.c **** #include "mbedtls/config.h"
  30:C:/Users/lenovo/Desktop/liteos/Project2/BearPi_LiteOS/components/security/mbedtls/mbedtls-2.6.0/library\aes.c **** #else
  31:C:/Users/lenovo/Desktop/liteos/Project2/BearPi_LiteOS/components/security/mbedtls/mbedtls-2.6.0/library\aes.c **** #include MBEDTLS_CONFIG_FILE
  32:C:/Users/lenovo/Desktop/liteos/Project2/BearPi_LiteOS/components/security/mbedtls/mbedtls-2.6.0/library\aes.c **** #endif
ARM GAS  c:\Users\lenovo\AppData\Local\Temp\ccpYsKo5.s 			page 2


  33:C:/Users/lenovo/Desktop/liteos/Project2/BearPi_LiteOS/components/security/mbedtls/mbedtls-2.6.0/library\aes.c **** 
  34:C:/Users/lenovo/Desktop/liteos/Project2/BearPi_LiteOS/components/security/mbedtls/mbedtls-2.6.0/library\aes.c **** #if defined(MBEDTLS_AES_C)
  35:C:/Users/lenovo/Desktop/liteos/Project2/BearPi_LiteOS/components/security/mbedtls/mbedtls-2.6.0/library\aes.c **** 
  36:C:/Users/lenovo/Desktop/liteos/Project2/BearPi_LiteOS/components/security/mbedtls/mbedtls-2.6.0/library\aes.c **** #include <string.h>
  37:C:/Users/lenovo/Desktop/liteos/Project2/BearPi_LiteOS/components/security/mbedtls/mbedtls-2.6.0/library\aes.c **** 
  38:C:/Users/lenovo/Desktop/liteos/Project2/BearPi_LiteOS/components/security/mbedtls/mbedtls-2.6.0/library\aes.c **** #include "mbedtls/aes.h"
  39:C:/Users/lenovo/Desktop/liteos/Project2/BearPi_LiteOS/components/security/mbedtls/mbedtls-2.6.0/library\aes.c **** #if defined(MBEDTLS_PADLOCK_C)
  40:C:/Users/lenovo/Desktop/liteos/Project2/BearPi_LiteOS/components/security/mbedtls/mbedtls-2.6.0/library\aes.c **** #include "mbedtls/padlock.h"
  41:C:/Users/lenovo/Desktop/liteos/Project2/BearPi_LiteOS/components/security/mbedtls/mbedtls-2.6.0/library\aes.c **** #endif
  42:C:/Users/lenovo/Desktop/liteos/Project2/BearPi_LiteOS/components/security/mbedtls/mbedtls-2.6.0/library\aes.c **** #if defined(MBEDTLS_AESNI_C)
  43:C:/Users/lenovo/Desktop/liteos/Project2/BearPi_LiteOS/components/security/mbedtls/mbedtls-2.6.0/library\aes.c **** #include "mbedtls/aesni.h"
  44:C:/Users/lenovo/Desktop/liteos/Project2/BearPi_LiteOS/components/security/mbedtls/mbedtls-2.6.0/library\aes.c **** #endif
  45:C:/Users/lenovo/Desktop/liteos/Project2/BearPi_LiteOS/components/security/mbedtls/mbedtls-2.6.0/library\aes.c **** 
  46:C:/Users/lenovo/Desktop/liteos/Project2/BearPi_LiteOS/components/security/mbedtls/mbedtls-2.6.0/library\aes.c **** #if defined(MBEDTLS_SELF_TEST)
  47:C:/Users/lenovo/Desktop/liteos/Project2/BearPi_LiteOS/components/security/mbedtls/mbedtls-2.6.0/library\aes.c **** #if defined(MBEDTLS_PLATFORM_C)
  48:C:/Users/lenovo/Desktop/liteos/Project2/BearPi_LiteOS/components/security/mbedtls/mbedtls-2.6.0/library\aes.c **** #include "mbedtls/platform.h"
  49:C:/Users/lenovo/Desktop/liteos/Project2/BearPi_LiteOS/components/security/mbedtls/mbedtls-2.6.0/library\aes.c **** #else
  50:C:/Users/lenovo/Desktop/liteos/Project2/BearPi_LiteOS/components/security/mbedtls/mbedtls-2.6.0/library\aes.c **** #include <stdio.h>
  51:C:/Users/lenovo/Desktop/liteos/Project2/BearPi_LiteOS/components/security/mbedtls/mbedtls-2.6.0/library\aes.c **** #define mbedtls_printf printf
  52:C:/Users/lenovo/Desktop/liteos/Project2/BearPi_LiteOS/components/security/mbedtls/mbedtls-2.6.0/library\aes.c **** #endif /* MBEDTLS_PLATFORM_C */
  53:C:/Users/lenovo/Desktop/liteos/Project2/BearPi_LiteOS/components/security/mbedtls/mbedtls-2.6.0/library\aes.c **** #endif /* MBEDTLS_SELF_TEST */
  54:C:/Users/lenovo/Desktop/liteos/Project2/BearPi_LiteOS/components/security/mbedtls/mbedtls-2.6.0/library\aes.c **** 
  55:C:/Users/lenovo/Desktop/liteos/Project2/BearPi_LiteOS/components/security/mbedtls/mbedtls-2.6.0/library\aes.c **** #if !defined(MBEDTLS_AES_ALT)
  56:C:/Users/lenovo/Desktop/liteos/Project2/BearPi_LiteOS/components/security/mbedtls/mbedtls-2.6.0/library\aes.c **** 
  57:C:/Users/lenovo/Desktop/liteos/Project2/BearPi_LiteOS/components/security/mbedtls/mbedtls-2.6.0/library\aes.c **** /* Implementation that should never be optimized out by the compiler */
  58:C:/Users/lenovo/Desktop/liteos/Project2/BearPi_LiteOS/components/security/mbedtls/mbedtls-2.6.0/library\aes.c **** static void mbedtls_zeroize( void *v, size_t n ) {
  27              		.loc 1 58 0
  28              		.cfi_startproc
  29              		@ args = 0, pretend = 0, frame = 0
  30              		@ frame_needed = 0, uses_anonymous_args = 0
  31              		@ link register save eliminated.
  32              	.LVL0:
  59:C:/Users/lenovo/Desktop/liteos/Project2/BearPi_LiteOS/components/security/mbedtls/mbedtls-2.6.0/library\aes.c ****     volatile unsigned char *p = (unsigned char*)v; while( n-- ) *p++ = 0;
  33              		.loc 1 59 0
  34 0000 03E0     		b	.L2
  35              	.LVL1:
  36              	.L3:
  37              		.loc 1 59 0 is_stmt 0 discriminator 3
  38 0002 0022     		movs	r2, #0
  39 0004 0270     		strb	r2, [r0]
  40 0006 0130     		adds	r0, r0, #1
  41              	.LVL2:
  42 0008 1946     		mov	r1, r3
  43              	.LVL3:
  44              	.L2:
  45              		.loc 1 59 0 discriminator 1
  46 000a 4B1E     		subs	r3, r1, #1
  47              	.LVL4:
  48 000c 0029     		cmp	r1, #0
  49 000e F8D1     		bne	.L3
  60:C:/Users/lenovo/Desktop/liteos/Project2/BearPi_LiteOS/components/security/mbedtls/mbedtls-2.6.0/library\aes.c **** }
  50              		.loc 1 60 0 is_stmt 1
  51 0010 7047     		bx	lr
  52              		.cfi_endproc
  53              	.LFE0:
  55              		.section	.text.mbedtls_aes_init,"ax",%progbits
  56              		.align	1
ARM GAS  c:\Users\lenovo\AppData\Local\Temp\ccpYsKo5.s 			page 3


  57              		.global	mbedtls_aes_init
  58              		.syntax unified
  59              		.thumb
  60              		.thumb_func
  61              		.fpu fpv4-sp-d16
  63              	mbedtls_aes_init:
  64              	.LFB1:
  61:C:/Users/lenovo/Desktop/liteos/Project2/BearPi_LiteOS/components/security/mbedtls/mbedtls-2.6.0/library\aes.c **** 
  62:C:/Users/lenovo/Desktop/liteos/Project2/BearPi_LiteOS/components/security/mbedtls/mbedtls-2.6.0/library\aes.c **** /*
  63:C:/Users/lenovo/Desktop/liteos/Project2/BearPi_LiteOS/components/security/mbedtls/mbedtls-2.6.0/library\aes.c ****  * 32-bit integer manipulation macros (little endian)
  64:C:/Users/lenovo/Desktop/liteos/Project2/BearPi_LiteOS/components/security/mbedtls/mbedtls-2.6.0/library\aes.c ****  */
  65:C:/Users/lenovo/Desktop/liteos/Project2/BearPi_LiteOS/components/security/mbedtls/mbedtls-2.6.0/library\aes.c **** #ifndef GET_UINT32_LE
  66:C:/Users/lenovo/Desktop/liteos/Project2/BearPi_LiteOS/components/security/mbedtls/mbedtls-2.6.0/library\aes.c **** #define GET_UINT32_LE(n,b,i)                            \
  67:C:/Users/lenovo/Desktop/liteos/Project2/BearPi_LiteOS/components/security/mbedtls/mbedtls-2.6.0/library\aes.c **** {                                                       \
  68:C:/Users/lenovo/Desktop/liteos/Project2/BearPi_LiteOS/components/security/mbedtls/mbedtls-2.6.0/library\aes.c ****     (n) = ( (uint32_t) (b)[(i)    ]       )             \
  69:C:/Users/lenovo/Desktop/liteos/Project2/BearPi_LiteOS/components/security/mbedtls/mbedtls-2.6.0/library\aes.c ****         | ( (uint32_t) (b)[(i) + 1] <<  8 )             \
  70:C:/Users/lenovo/Desktop/liteos/Project2/BearPi_LiteOS/components/security/mbedtls/mbedtls-2.6.0/library\aes.c ****         | ( (uint32_t) (b)[(i) + 2] << 16 )             \
  71:C:/Users/lenovo/Desktop/liteos/Project2/BearPi_LiteOS/components/security/mbedtls/mbedtls-2.6.0/library\aes.c ****         | ( (uint32_t) (b)[(i) + 3] << 24 );            \
  72:C:/Users/lenovo/Desktop/liteos/Project2/BearPi_LiteOS/components/security/mbedtls/mbedtls-2.6.0/library\aes.c **** }
  73:C:/Users/lenovo/Desktop/liteos/Project2/BearPi_LiteOS/components/security/mbedtls/mbedtls-2.6.0/library\aes.c **** #endif
  74:C:/Users/lenovo/Desktop/liteos/Project2/BearPi_LiteOS/components/security/mbedtls/mbedtls-2.6.0/library\aes.c **** 
  75:C:/Users/lenovo/Desktop/liteos/Project2/BearPi_LiteOS/components/security/mbedtls/mbedtls-2.6.0/library\aes.c **** #ifndef PUT_UINT32_LE
  76:C:/Users/lenovo/Desktop/liteos/Project2/BearPi_LiteOS/components/security/mbedtls/mbedtls-2.6.0/library\aes.c **** #define PUT_UINT32_LE(n,b,i)                                    \
  77:C:/Users/lenovo/Desktop/liteos/Project2/BearPi_LiteOS/components/security/mbedtls/mbedtls-2.6.0/library\aes.c **** {                                                               \
  78:C:/Users/lenovo/Desktop/liteos/Project2/BearPi_LiteOS/components/security/mbedtls/mbedtls-2.6.0/library\aes.c ****     (b)[(i)    ] = (unsigned char) ( ( (n)       ) & 0xFF );    \
  79:C:/Users/lenovo/Desktop/liteos/Project2/BearPi_LiteOS/components/security/mbedtls/mbedtls-2.6.0/library\aes.c ****     (b)[(i) + 1] = (unsigned char) ( ( (n) >>  8 ) & 0xFF );    \
  80:C:/Users/lenovo/Desktop/liteos/Project2/BearPi_LiteOS/components/security/mbedtls/mbedtls-2.6.0/library\aes.c ****     (b)[(i) + 2] = (unsigned char) ( ( (n) >> 16 ) & 0xFF );    \
  81:C:/Users/lenovo/Desktop/liteos/Project2/BearPi_LiteOS/components/security/mbedtls/mbedtls-2.6.0/library\aes.c ****     (b)[(i) + 3] = (unsigned char) ( ( (n) >> 24 ) & 0xFF );    \
  82:C:/Users/lenovo/Desktop/liteos/Project2/BearPi_LiteOS/components/security/mbedtls/mbedtls-2.6.0/library\aes.c **** }
  83:C:/Users/lenovo/Desktop/liteos/Project2/BearPi_LiteOS/components/security/mbedtls/mbedtls-2.6.0/library\aes.c **** #endif
  84:C:/Users/lenovo/Desktop/liteos/Project2/BearPi_LiteOS/components/security/mbedtls/mbedtls-2.6.0/library\aes.c **** 
  85:C:/Users/lenovo/Desktop/liteos/Project2/BearPi_LiteOS/components/security/mbedtls/mbedtls-2.6.0/library\aes.c **** #if defined(MBEDTLS_PADLOCK_C) &&                      \
  86:C:/Users/lenovo/Desktop/liteos/Project2/BearPi_LiteOS/components/security/mbedtls/mbedtls-2.6.0/library\aes.c ****     ( defined(MBEDTLS_HAVE_X86) || defined(MBEDTLS_PADLOCK_ALIGN16) )
  87:C:/Users/lenovo/Desktop/liteos/Project2/BearPi_LiteOS/components/security/mbedtls/mbedtls-2.6.0/library\aes.c **** static int aes_padlock_ace = -1;
  88:C:/Users/lenovo/Desktop/liteos/Project2/BearPi_LiteOS/components/security/mbedtls/mbedtls-2.6.0/library\aes.c **** #endif
  89:C:/Users/lenovo/Desktop/liteos/Project2/BearPi_LiteOS/components/security/mbedtls/mbedtls-2.6.0/library\aes.c **** 
  90:C:/Users/lenovo/Desktop/liteos/Project2/BearPi_LiteOS/components/security/mbedtls/mbedtls-2.6.0/library\aes.c **** #if defined(MBEDTLS_AES_ROM_TABLES)
  91:C:/Users/lenovo/Desktop/liteos/Project2/BearPi_LiteOS/components/security/mbedtls/mbedtls-2.6.0/library\aes.c **** /*
  92:C:/Users/lenovo/Desktop/liteos/Project2/BearPi_LiteOS/components/security/mbedtls/mbedtls-2.6.0/library\aes.c ****  * Forward S-box
  93:C:/Users/lenovo/Desktop/liteos/Project2/BearPi_LiteOS/components/security/mbedtls/mbedtls-2.6.0/library\aes.c ****  */
  94:C:/Users/lenovo/Desktop/liteos/Project2/BearPi_LiteOS/components/security/mbedtls/mbedtls-2.6.0/library\aes.c **** static const unsigned char FSb[256] =
  95:C:/Users/lenovo/Desktop/liteos/Project2/BearPi_LiteOS/components/security/mbedtls/mbedtls-2.6.0/library\aes.c **** {
  96:C:/Users/lenovo/Desktop/liteos/Project2/BearPi_LiteOS/components/security/mbedtls/mbedtls-2.6.0/library\aes.c ****     0x63, 0x7C, 0x77, 0x7B, 0xF2, 0x6B, 0x6F, 0xC5,
  97:C:/Users/lenovo/Desktop/liteos/Project2/BearPi_LiteOS/components/security/mbedtls/mbedtls-2.6.0/library\aes.c ****     0x30, 0x01, 0x67, 0x2B, 0xFE, 0xD7, 0xAB, 0x76,
  98:C:/Users/lenovo/Desktop/liteos/Project2/BearPi_LiteOS/components/security/mbedtls/mbedtls-2.6.0/library\aes.c ****     0xCA, 0x82, 0xC9, 0x7D, 0xFA, 0x59, 0x47, 0xF0,
  99:C:/Users/lenovo/Desktop/liteos/Project2/BearPi_LiteOS/components/security/mbedtls/mbedtls-2.6.0/library\aes.c ****     0xAD, 0xD4, 0xA2, 0xAF, 0x9C, 0xA4, 0x72, 0xC0,
 100:C:/Users/lenovo/Desktop/liteos/Project2/BearPi_LiteOS/components/security/mbedtls/mbedtls-2.6.0/library\aes.c ****     0xB7, 0xFD, 0x93, 0x26, 0x36, 0x3F, 0xF7, 0xCC,
 101:C:/Users/lenovo/Desktop/liteos/Project2/BearPi_LiteOS/components/security/mbedtls/mbedtls-2.6.0/library\aes.c ****     0x34, 0xA5, 0xE5, 0xF1, 0x71, 0xD8, 0x31, 0x15,
 102:C:/Users/lenovo/Desktop/liteos/Project2/BearPi_LiteOS/components/security/mbedtls/mbedtls-2.6.0/library\aes.c ****     0x04, 0xC7, 0x23, 0xC3, 0x18, 0x96, 0x05, 0x9A,
 103:C:/Users/lenovo/Desktop/liteos/Project2/BearPi_LiteOS/components/security/mbedtls/mbedtls-2.6.0/library\aes.c ****     0x07, 0x12, 0x80, 0xE2, 0xEB, 0x27, 0xB2, 0x75,
 104:C:/Users/lenovo/Desktop/liteos/Project2/BearPi_LiteOS/components/security/mbedtls/mbedtls-2.6.0/library\aes.c ****     0x09, 0x83, 0x2C, 0x1A, 0x1B, 0x6E, 0x5A, 0xA0,
 105:C:/Users/lenovo/Desktop/liteos/Project2/BearPi_LiteOS/components/security/mbedtls/mbedtls-2.6.0/library\aes.c ****     0x52, 0x3B, 0xD6, 0xB3, 0x29, 0xE3, 0x2F, 0x84,
 106:C:/Users/lenovo/Desktop/liteos/Project2/BearPi_LiteOS/components/security/mbedtls/mbedtls-2.6.0/library\aes.c ****     0x53, 0xD1, 0x00, 0xED, 0x20, 0xFC, 0xB1, 0x5B,
 107:C:/Users/lenovo/Desktop/liteos/Project2/BearPi_LiteOS/components/security/mbedtls/mbedtls-2.6.0/library\aes.c ****     0x6A, 0xCB, 0xBE, 0x39, 0x4A, 0x4C, 0x58, 0xCF,
 108:C:/Users/lenovo/Desktop/liteos/Project2/BearPi_LiteOS/components/security/mbedtls/mbedtls-2.6.0/library\aes.c ****     0xD0, 0xEF, 0xAA, 0xFB, 0x43, 0x4D, 0x33, 0x85,
 109:C:/Users/lenovo/Desktop/liteos/Project2/BearPi_LiteOS/components/security/mbedtls/mbedtls-2.6.0/library\aes.c ****     0x45, 0xF9, 0x02, 0x7F, 0x50, 0x3C, 0x9F, 0xA8,
 110:C:/Users/lenovo/Desktop/liteos/Project2/BearPi_LiteOS/components/security/mbedtls/mbedtls-2.6.0/library\aes.c ****     0x51, 0xA3, 0x40, 0x8F, 0x92, 0x9D, 0x38, 0xF5,
ARM GAS  c:\Users\lenovo\AppData\Local\Temp\ccpYsKo5.s 			page 4


 111:C:/Users/lenovo/Desktop/liteos/Project2/BearPi_LiteOS/components/security/mbedtls/mbedtls-2.6.0/library\aes.c ****     0xBC, 0xB6, 0xDA, 0x21, 0x10, 0xFF, 0xF3, 0xD2,
 112:C:/Users/lenovo/Desktop/liteos/Project2/BearPi_LiteOS/components/security/mbedtls/mbedtls-2.6.0/library\aes.c ****     0xCD, 0x0C, 0x13, 0xEC, 0x5F, 0x97, 0x44, 0x17,
 113:C:/Users/lenovo/Desktop/liteos/Project2/BearPi_LiteOS/components/security/mbedtls/mbedtls-2.6.0/library\aes.c ****     0xC4, 0xA7, 0x7E, 0x3D, 0x64, 0x5D, 0x19, 0x73,
 114:C:/Users/lenovo/Desktop/liteos/Project2/BearPi_LiteOS/components/security/mbedtls/mbedtls-2.6.0/library\aes.c ****     0x60, 0x81, 0x4F, 0xDC, 0x22, 0x2A, 0x90, 0x88,
 115:C:/Users/lenovo/Desktop/liteos/Project2/BearPi_LiteOS/components/security/mbedtls/mbedtls-2.6.0/library\aes.c ****     0x46, 0xEE, 0xB8, 0x14, 0xDE, 0x5E, 0x0B, 0xDB,
 116:C:/Users/lenovo/Desktop/liteos/Project2/BearPi_LiteOS/components/security/mbedtls/mbedtls-2.6.0/library\aes.c ****     0xE0, 0x32, 0x3A, 0x0A, 0x49, 0x06, 0x24, 0x5C,
 117:C:/Users/lenovo/Desktop/liteos/Project2/BearPi_LiteOS/components/security/mbedtls/mbedtls-2.6.0/library\aes.c ****     0xC2, 0xD3, 0xAC, 0x62, 0x91, 0x95, 0xE4, 0x79,
 118:C:/Users/lenovo/Desktop/liteos/Project2/BearPi_LiteOS/components/security/mbedtls/mbedtls-2.6.0/library\aes.c ****     0xE7, 0xC8, 0x37, 0x6D, 0x8D, 0xD5, 0x4E, 0xA9,
 119:C:/Users/lenovo/Desktop/liteos/Project2/BearPi_LiteOS/components/security/mbedtls/mbedtls-2.6.0/library\aes.c ****     0x6C, 0x56, 0xF4, 0xEA, 0x65, 0x7A, 0xAE, 0x08,
 120:C:/Users/lenovo/Desktop/liteos/Project2/BearPi_LiteOS/components/security/mbedtls/mbedtls-2.6.0/library\aes.c ****     0xBA, 0x78, 0x25, 0x2E, 0x1C, 0xA6, 0xB4, 0xC6,
 121:C:/Users/lenovo/Desktop/liteos/Project2/BearPi_LiteOS/components/security/mbedtls/mbedtls-2.6.0/library\aes.c ****     0xE8, 0xDD, 0x74, 0x1F, 0x4B, 0xBD, 0x8B, 0x8A,
 122:C:/Users/lenovo/Desktop/liteos/Project2/BearPi_LiteOS/components/security/mbedtls/mbedtls-2.6.0/library\aes.c ****     0x70, 0x3E, 0xB5, 0x66, 0x48, 0x03, 0xF6, 0x0E,
 123:C:/Users/lenovo/Desktop/liteos/Project2/BearPi_LiteOS/components/security/mbedtls/mbedtls-2.6.0/library\aes.c ****     0x61, 0x35, 0x57, 0xB9, 0x86, 0xC1, 0x1D, 0x9E,
 124:C:/Users/lenovo/Desktop/liteos/Project2/BearPi_LiteOS/components/security/mbedtls/mbedtls-2.6.0/library\aes.c ****     0xE1, 0xF8, 0x98, 0x11, 0x69, 0xD9, 0x8E, 0x94,
 125:C:/Users/lenovo/Desktop/liteos/Project2/BearPi_LiteOS/components/security/mbedtls/mbedtls-2.6.0/library\aes.c ****     0x9B, 0x1E, 0x87, 0xE9, 0xCE, 0x55, 0x28, 0xDF,
 126:C:/Users/lenovo/Desktop/liteos/Project2/BearPi_LiteOS/components/security/mbedtls/mbedtls-2.6.0/library\aes.c ****     0x8C, 0xA1, 0x89, 0x0D, 0xBF, 0xE6, 0x42, 0x68,
 127:C:/Users/lenovo/Desktop/liteos/Project2/BearPi_LiteOS/components/security/mbedtls/mbedtls-2.6.0/library\aes.c ****     0x41, 0x99, 0x2D, 0x0F, 0xB0, 0x54, 0xBB, 0x16
 128:C:/Users/lenovo/Desktop/liteos/Project2/BearPi_LiteOS/components/security/mbedtls/mbedtls-2.6.0/library\aes.c **** };
 129:C:/Users/lenovo/Desktop/liteos/Project2/BearPi_LiteOS/components/security/mbedtls/mbedtls-2.6.0/library\aes.c **** 
 130:C:/Users/lenovo/Desktop/liteos/Project2/BearPi_LiteOS/components/security/mbedtls/mbedtls-2.6.0/library\aes.c **** /*
 131:C:/Users/lenovo/Desktop/liteos/Project2/BearPi_LiteOS/components/security/mbedtls/mbedtls-2.6.0/library\aes.c ****  * Forward tables
 132:C:/Users/lenovo/Desktop/liteos/Project2/BearPi_LiteOS/components/security/mbedtls/mbedtls-2.6.0/library\aes.c ****  */
 133:C:/Users/lenovo/Desktop/liteos/Project2/BearPi_LiteOS/components/security/mbedtls/mbedtls-2.6.0/library\aes.c **** #define FT \
 134:C:/Users/lenovo/Desktop/liteos/Project2/BearPi_LiteOS/components/security/mbedtls/mbedtls-2.6.0/library\aes.c **** \
 135:C:/Users/lenovo/Desktop/liteos/Project2/BearPi_LiteOS/components/security/mbedtls/mbedtls-2.6.0/library\aes.c ****     V(A5,63,63,C6), V(84,7C,7C,F8), V(99,77,77,EE), V(8D,7B,7B,F6), \
 136:C:/Users/lenovo/Desktop/liteos/Project2/BearPi_LiteOS/components/security/mbedtls/mbedtls-2.6.0/library\aes.c ****     V(0D,F2,F2,FF), V(BD,6B,6B,D6), V(B1,6F,6F,DE), V(54,C5,C5,91), \
 137:C:/Users/lenovo/Desktop/liteos/Project2/BearPi_LiteOS/components/security/mbedtls/mbedtls-2.6.0/library\aes.c ****     V(50,30,30,60), V(03,01,01,02), V(A9,67,67,CE), V(7D,2B,2B,56), \
 138:C:/Users/lenovo/Desktop/liteos/Project2/BearPi_LiteOS/components/security/mbedtls/mbedtls-2.6.0/library\aes.c ****     V(19,FE,FE,E7), V(62,D7,D7,B5), V(E6,AB,AB,4D), V(9A,76,76,EC), \
 139:C:/Users/lenovo/Desktop/liteos/Project2/BearPi_LiteOS/components/security/mbedtls/mbedtls-2.6.0/library\aes.c ****     V(45,CA,CA,8F), V(9D,82,82,1F), V(40,C9,C9,89), V(87,7D,7D,FA), \
 140:C:/Users/lenovo/Desktop/liteos/Project2/BearPi_LiteOS/components/security/mbedtls/mbedtls-2.6.0/library\aes.c ****     V(15,FA,FA,EF), V(EB,59,59,B2), V(C9,47,47,8E), V(0B,F0,F0,FB), \
 141:C:/Users/lenovo/Desktop/liteos/Project2/BearPi_LiteOS/components/security/mbedtls/mbedtls-2.6.0/library\aes.c ****     V(EC,AD,AD,41), V(67,D4,D4,B3), V(FD,A2,A2,5F), V(EA,AF,AF,45), \
 142:C:/Users/lenovo/Desktop/liteos/Project2/BearPi_LiteOS/components/security/mbedtls/mbedtls-2.6.0/library\aes.c ****     V(BF,9C,9C,23), V(F7,A4,A4,53), V(96,72,72,E4), V(5B,C0,C0,9B), \
 143:C:/Users/lenovo/Desktop/liteos/Project2/BearPi_LiteOS/components/security/mbedtls/mbedtls-2.6.0/library\aes.c ****     V(C2,B7,B7,75), V(1C,FD,FD,E1), V(AE,93,93,3D), V(6A,26,26,4C), \
 144:C:/Users/lenovo/Desktop/liteos/Project2/BearPi_LiteOS/components/security/mbedtls/mbedtls-2.6.0/library\aes.c ****     V(5A,36,36,6C), V(41,3F,3F,7E), V(02,F7,F7,F5), V(4F,CC,CC,83), \
 145:C:/Users/lenovo/Desktop/liteos/Project2/BearPi_LiteOS/components/security/mbedtls/mbedtls-2.6.0/library\aes.c ****     V(5C,34,34,68), V(F4,A5,A5,51), V(34,E5,E5,D1), V(08,F1,F1,F9), \
 146:C:/Users/lenovo/Desktop/liteos/Project2/BearPi_LiteOS/components/security/mbedtls/mbedtls-2.6.0/library\aes.c ****     V(93,71,71,E2), V(73,D8,D8,AB), V(53,31,31,62), V(3F,15,15,2A), \
 147:C:/Users/lenovo/Desktop/liteos/Project2/BearPi_LiteOS/components/security/mbedtls/mbedtls-2.6.0/library\aes.c ****     V(0C,04,04,08), V(52,C7,C7,95), V(65,23,23,46), V(5E,C3,C3,9D), \
 148:C:/Users/lenovo/Desktop/liteos/Project2/BearPi_LiteOS/components/security/mbedtls/mbedtls-2.6.0/library\aes.c ****     V(28,18,18,30), V(A1,96,96,37), V(0F,05,05,0A), V(B5,9A,9A,2F), \
 149:C:/Users/lenovo/Desktop/liteos/Project2/BearPi_LiteOS/components/security/mbedtls/mbedtls-2.6.0/library\aes.c ****     V(09,07,07,0E), V(36,12,12,24), V(9B,80,80,1B), V(3D,E2,E2,DF), \
 150:C:/Users/lenovo/Desktop/liteos/Project2/BearPi_LiteOS/components/security/mbedtls/mbedtls-2.6.0/library\aes.c ****     V(26,EB,EB,CD), V(69,27,27,4E), V(CD,B2,B2,7F), V(9F,75,75,EA), \
 151:C:/Users/lenovo/Desktop/liteos/Project2/BearPi_LiteOS/components/security/mbedtls/mbedtls-2.6.0/library\aes.c ****     V(1B,09,09,12), V(9E,83,83,1D), V(74,2C,2C,58), V(2E,1A,1A,34), \
 152:C:/Users/lenovo/Desktop/liteos/Project2/BearPi_LiteOS/components/security/mbedtls/mbedtls-2.6.0/library\aes.c ****     V(2D,1B,1B,36), V(B2,6E,6E,DC), V(EE,5A,5A,B4), V(FB,A0,A0,5B), \
 153:C:/Users/lenovo/Desktop/liteos/Project2/BearPi_LiteOS/components/security/mbedtls/mbedtls-2.6.0/library\aes.c ****     V(F6,52,52,A4), V(4D,3B,3B,76), V(61,D6,D6,B7), V(CE,B3,B3,7D), \
 154:C:/Users/lenovo/Desktop/liteos/Project2/BearPi_LiteOS/components/security/mbedtls/mbedtls-2.6.0/library\aes.c ****     V(7B,29,29,52), V(3E,E3,E3,DD), V(71,2F,2F,5E), V(97,84,84,13), \
 155:C:/Users/lenovo/Desktop/liteos/Project2/BearPi_LiteOS/components/security/mbedtls/mbedtls-2.6.0/library\aes.c ****     V(F5,53,53,A6), V(68,D1,D1,B9), V(00,00,00,00), V(2C,ED,ED,C1), \
 156:C:/Users/lenovo/Desktop/liteos/Project2/BearPi_LiteOS/components/security/mbedtls/mbedtls-2.6.0/library\aes.c ****     V(60,20,20,40), V(1F,FC,FC,E3), V(C8,B1,B1,79), V(ED,5B,5B,B6), \
 157:C:/Users/lenovo/Desktop/liteos/Project2/BearPi_LiteOS/components/security/mbedtls/mbedtls-2.6.0/library\aes.c ****     V(BE,6A,6A,D4), V(46,CB,CB,8D), V(D9,BE,BE,67), V(4B,39,39,72), \
 158:C:/Users/lenovo/Desktop/liteos/Project2/BearPi_LiteOS/components/security/mbedtls/mbedtls-2.6.0/library\aes.c ****     V(DE,4A,4A,94), V(D4,4C,4C,98), V(E8,58,58,B0), V(4A,CF,CF,85), \
 159:C:/Users/lenovo/Desktop/liteos/Project2/BearPi_LiteOS/components/security/mbedtls/mbedtls-2.6.0/library\aes.c ****     V(6B,D0,D0,BB), V(2A,EF,EF,C5), V(E5,AA,AA,4F), V(16,FB,FB,ED), \
 160:C:/Users/lenovo/Desktop/liteos/Project2/BearPi_LiteOS/components/security/mbedtls/mbedtls-2.6.0/library\aes.c ****     V(C5,43,43,86), V(D7,4D,4D,9A), V(55,33,33,66), V(94,85,85,11), \
 161:C:/Users/lenovo/Desktop/liteos/Project2/BearPi_LiteOS/components/security/mbedtls/mbedtls-2.6.0/library\aes.c ****     V(CF,45,45,8A), V(10,F9,F9,E9), V(06,02,02,04), V(81,7F,7F,FE), \
 162:C:/Users/lenovo/Desktop/liteos/Project2/BearPi_LiteOS/components/security/mbedtls/mbedtls-2.6.0/library\aes.c ****     V(F0,50,50,A0), V(44,3C,3C,78), V(BA,9F,9F,25), V(E3,A8,A8,4B), \
 163:C:/Users/lenovo/Desktop/liteos/Project2/BearPi_LiteOS/components/security/mbedtls/mbedtls-2.6.0/library\aes.c ****     V(F3,51,51,A2), V(FE,A3,A3,5D), V(C0,40,40,80), V(8A,8F,8F,05), \
 164:C:/Users/lenovo/Desktop/liteos/Project2/BearPi_LiteOS/components/security/mbedtls/mbedtls-2.6.0/library\aes.c ****     V(AD,92,92,3F), V(BC,9D,9D,21), V(48,38,38,70), V(04,F5,F5,F1), \
 165:C:/Users/lenovo/Desktop/liteos/Project2/BearPi_LiteOS/components/security/mbedtls/mbedtls-2.6.0/library\aes.c ****     V(DF,BC,BC,63), V(C1,B6,B6,77), V(75,DA,DA,AF), V(63,21,21,42), \
 166:C:/Users/lenovo/Desktop/liteos/Project2/BearPi_LiteOS/components/security/mbedtls/mbedtls-2.6.0/library\aes.c ****     V(30,10,10,20), V(1A,FF,FF,E5), V(0E,F3,F3,FD), V(6D,D2,D2,BF), \
 167:C:/Users/lenovo/Desktop/liteos/Project2/BearPi_LiteOS/components/security/mbedtls/mbedtls-2.6.0/library\aes.c ****     V(4C,CD,CD,81), V(14,0C,0C,18), V(35,13,13,26), V(2F,EC,EC,C3), \
ARM GAS  c:\Users\lenovo\AppData\Local\Temp\ccpYsKo5.s 			page 5


 168:C:/Users/lenovo/Desktop/liteos/Project2/BearPi_LiteOS/components/security/mbedtls/mbedtls-2.6.0/library\aes.c ****     V(E1,5F,5F,BE), V(A2,97,97,35), V(CC,44,44,88), V(39,17,17,2E), \
 169:C:/Users/lenovo/Desktop/liteos/Project2/BearPi_LiteOS/components/security/mbedtls/mbedtls-2.6.0/library\aes.c ****     V(57,C4,C4,93), V(F2,A7,A7,55), V(82,7E,7E,FC), V(47,3D,3D,7A), \
 170:C:/Users/lenovo/Desktop/liteos/Project2/BearPi_LiteOS/components/security/mbedtls/mbedtls-2.6.0/library\aes.c ****     V(AC,64,64,C8), V(E7,5D,5D,BA), V(2B,19,19,32), V(95,73,73,E6), \
 171:C:/Users/lenovo/Desktop/liteos/Project2/BearPi_LiteOS/components/security/mbedtls/mbedtls-2.6.0/library\aes.c ****     V(A0,60,60,C0), V(98,81,81,19), V(D1,4F,4F,9E), V(7F,DC,DC,A3), \
 172:C:/Users/lenovo/Desktop/liteos/Project2/BearPi_LiteOS/components/security/mbedtls/mbedtls-2.6.0/library\aes.c ****     V(66,22,22,44), V(7E,2A,2A,54), V(AB,90,90,3B), V(83,88,88,0B), \
 173:C:/Users/lenovo/Desktop/liteos/Project2/BearPi_LiteOS/components/security/mbedtls/mbedtls-2.6.0/library\aes.c ****     V(CA,46,46,8C), V(29,EE,EE,C7), V(D3,B8,B8,6B), V(3C,14,14,28), \
 174:C:/Users/lenovo/Desktop/liteos/Project2/BearPi_LiteOS/components/security/mbedtls/mbedtls-2.6.0/library\aes.c ****     V(79,DE,DE,A7), V(E2,5E,5E,BC), V(1D,0B,0B,16), V(76,DB,DB,AD), \
 175:C:/Users/lenovo/Desktop/liteos/Project2/BearPi_LiteOS/components/security/mbedtls/mbedtls-2.6.0/library\aes.c ****     V(3B,E0,E0,DB), V(56,32,32,64), V(4E,3A,3A,74), V(1E,0A,0A,14), \
 176:C:/Users/lenovo/Desktop/liteos/Project2/BearPi_LiteOS/components/security/mbedtls/mbedtls-2.6.0/library\aes.c ****     V(DB,49,49,92), V(0A,06,06,0C), V(6C,24,24,48), V(E4,5C,5C,B8), \
 177:C:/Users/lenovo/Desktop/liteos/Project2/BearPi_LiteOS/components/security/mbedtls/mbedtls-2.6.0/library\aes.c ****     V(5D,C2,C2,9F), V(6E,D3,D3,BD), V(EF,AC,AC,43), V(A6,62,62,C4), \
 178:C:/Users/lenovo/Desktop/liteos/Project2/BearPi_LiteOS/components/security/mbedtls/mbedtls-2.6.0/library\aes.c ****     V(A8,91,91,39), V(A4,95,95,31), V(37,E4,E4,D3), V(8B,79,79,F2), \
 179:C:/Users/lenovo/Desktop/liteos/Project2/BearPi_LiteOS/components/security/mbedtls/mbedtls-2.6.0/library\aes.c ****     V(32,E7,E7,D5), V(43,C8,C8,8B), V(59,37,37,6E), V(B7,6D,6D,DA), \
 180:C:/Users/lenovo/Desktop/liteos/Project2/BearPi_LiteOS/components/security/mbedtls/mbedtls-2.6.0/library\aes.c ****     V(8C,8D,8D,01), V(64,D5,D5,B1), V(D2,4E,4E,9C), V(E0,A9,A9,49), \
 181:C:/Users/lenovo/Desktop/liteos/Project2/BearPi_LiteOS/components/security/mbedtls/mbedtls-2.6.0/library\aes.c ****     V(B4,6C,6C,D8), V(FA,56,56,AC), V(07,F4,F4,F3), V(25,EA,EA,CF), \
 182:C:/Users/lenovo/Desktop/liteos/Project2/BearPi_LiteOS/components/security/mbedtls/mbedtls-2.6.0/library\aes.c ****     V(AF,65,65,CA), V(8E,7A,7A,F4), V(E9,AE,AE,47), V(18,08,08,10), \
 183:C:/Users/lenovo/Desktop/liteos/Project2/BearPi_LiteOS/components/security/mbedtls/mbedtls-2.6.0/library\aes.c ****     V(D5,BA,BA,6F), V(88,78,78,F0), V(6F,25,25,4A), V(72,2E,2E,5C), \
 184:C:/Users/lenovo/Desktop/liteos/Project2/BearPi_LiteOS/components/security/mbedtls/mbedtls-2.6.0/library\aes.c ****     V(24,1C,1C,38), V(F1,A6,A6,57), V(C7,B4,B4,73), V(51,C6,C6,97), \
 185:C:/Users/lenovo/Desktop/liteos/Project2/BearPi_LiteOS/components/security/mbedtls/mbedtls-2.6.0/library\aes.c ****     V(23,E8,E8,CB), V(7C,DD,DD,A1), V(9C,74,74,E8), V(21,1F,1F,3E), \
 186:C:/Users/lenovo/Desktop/liteos/Project2/BearPi_LiteOS/components/security/mbedtls/mbedtls-2.6.0/library\aes.c ****     V(DD,4B,4B,96), V(DC,BD,BD,61), V(86,8B,8B,0D), V(85,8A,8A,0F), \
 187:C:/Users/lenovo/Desktop/liteos/Project2/BearPi_LiteOS/components/security/mbedtls/mbedtls-2.6.0/library\aes.c ****     V(90,70,70,E0), V(42,3E,3E,7C), V(C4,B5,B5,71), V(AA,66,66,CC), \
 188:C:/Users/lenovo/Desktop/liteos/Project2/BearPi_LiteOS/components/security/mbedtls/mbedtls-2.6.0/library\aes.c ****     V(D8,48,48,90), V(05,03,03,06), V(01,F6,F6,F7), V(12,0E,0E,1C), \
 189:C:/Users/lenovo/Desktop/liteos/Project2/BearPi_LiteOS/components/security/mbedtls/mbedtls-2.6.0/library\aes.c ****     V(A3,61,61,C2), V(5F,35,35,6A), V(F9,57,57,AE), V(D0,B9,B9,69), \
 190:C:/Users/lenovo/Desktop/liteos/Project2/BearPi_LiteOS/components/security/mbedtls/mbedtls-2.6.0/library\aes.c ****     V(91,86,86,17), V(58,C1,C1,99), V(27,1D,1D,3A), V(B9,9E,9E,27), \
 191:C:/Users/lenovo/Desktop/liteos/Project2/BearPi_LiteOS/components/security/mbedtls/mbedtls-2.6.0/library\aes.c ****     V(38,E1,E1,D9), V(13,F8,F8,EB), V(B3,98,98,2B), V(33,11,11,22), \
 192:C:/Users/lenovo/Desktop/liteos/Project2/BearPi_LiteOS/components/security/mbedtls/mbedtls-2.6.0/library\aes.c ****     V(BB,69,69,D2), V(70,D9,D9,A9), V(89,8E,8E,07), V(A7,94,94,33), \
 193:C:/Users/lenovo/Desktop/liteos/Project2/BearPi_LiteOS/components/security/mbedtls/mbedtls-2.6.0/library\aes.c ****     V(B6,9B,9B,2D), V(22,1E,1E,3C), V(92,87,87,15), V(20,E9,E9,C9), \
 194:C:/Users/lenovo/Desktop/liteos/Project2/BearPi_LiteOS/components/security/mbedtls/mbedtls-2.6.0/library\aes.c ****     V(49,CE,CE,87), V(FF,55,55,AA), V(78,28,28,50), V(7A,DF,DF,A5), \
 195:C:/Users/lenovo/Desktop/liteos/Project2/BearPi_LiteOS/components/security/mbedtls/mbedtls-2.6.0/library\aes.c ****     V(8F,8C,8C,03), V(F8,A1,A1,59), V(80,89,89,09), V(17,0D,0D,1A), \
 196:C:/Users/lenovo/Desktop/liteos/Project2/BearPi_LiteOS/components/security/mbedtls/mbedtls-2.6.0/library\aes.c ****     V(DA,BF,BF,65), V(31,E6,E6,D7), V(C6,42,42,84), V(B8,68,68,D0), \
 197:C:/Users/lenovo/Desktop/liteos/Project2/BearPi_LiteOS/components/security/mbedtls/mbedtls-2.6.0/library\aes.c ****     V(C3,41,41,82), V(B0,99,99,29), V(77,2D,2D,5A), V(11,0F,0F,1E), \
 198:C:/Users/lenovo/Desktop/liteos/Project2/BearPi_LiteOS/components/security/mbedtls/mbedtls-2.6.0/library\aes.c ****     V(CB,B0,B0,7B), V(FC,54,54,A8), V(D6,BB,BB,6D), V(3A,16,16,2C)
 199:C:/Users/lenovo/Desktop/liteos/Project2/BearPi_LiteOS/components/security/mbedtls/mbedtls-2.6.0/library\aes.c **** 
 200:C:/Users/lenovo/Desktop/liteos/Project2/BearPi_LiteOS/components/security/mbedtls/mbedtls-2.6.0/library\aes.c **** #define V(a,b,c,d) 0x##a##b##c##d
 201:C:/Users/lenovo/Desktop/liteos/Project2/BearPi_LiteOS/components/security/mbedtls/mbedtls-2.6.0/library\aes.c **** static const uint32_t FT0[256] = { FT };
 202:C:/Users/lenovo/Desktop/liteos/Project2/BearPi_LiteOS/components/security/mbedtls/mbedtls-2.6.0/library\aes.c **** #undef V
 203:C:/Users/lenovo/Desktop/liteos/Project2/BearPi_LiteOS/components/security/mbedtls/mbedtls-2.6.0/library\aes.c **** 
 204:C:/Users/lenovo/Desktop/liteos/Project2/BearPi_LiteOS/components/security/mbedtls/mbedtls-2.6.0/library\aes.c **** #define V(a,b,c,d) 0x##b##c##d##a
 205:C:/Users/lenovo/Desktop/liteos/Project2/BearPi_LiteOS/components/security/mbedtls/mbedtls-2.6.0/library\aes.c **** static const uint32_t FT1[256] = { FT };
 206:C:/Users/lenovo/Desktop/liteos/Project2/BearPi_LiteOS/components/security/mbedtls/mbedtls-2.6.0/library\aes.c **** #undef V
 207:C:/Users/lenovo/Desktop/liteos/Project2/BearPi_LiteOS/components/security/mbedtls/mbedtls-2.6.0/library\aes.c **** 
 208:C:/Users/lenovo/Desktop/liteos/Project2/BearPi_LiteOS/components/security/mbedtls/mbedtls-2.6.0/library\aes.c **** #define V(a,b,c,d) 0x##c##d##a##b
 209:C:/Users/lenovo/Desktop/liteos/Project2/BearPi_LiteOS/components/security/mbedtls/mbedtls-2.6.0/library\aes.c **** static const uint32_t FT2[256] = { FT };
 210:C:/Users/lenovo/Desktop/liteos/Project2/BearPi_LiteOS/components/security/mbedtls/mbedtls-2.6.0/library\aes.c **** #undef V
 211:C:/Users/lenovo/Desktop/liteos/Project2/BearPi_LiteOS/components/security/mbedtls/mbedtls-2.6.0/library\aes.c **** 
 212:C:/Users/lenovo/Desktop/liteos/Project2/BearPi_LiteOS/components/security/mbedtls/mbedtls-2.6.0/library\aes.c **** #define V(a,b,c,d) 0x##d##a##b##c
 213:C:/Users/lenovo/Desktop/liteos/Project2/BearPi_LiteOS/components/security/mbedtls/mbedtls-2.6.0/library\aes.c **** static const uint32_t FT3[256] = { FT };
 214:C:/Users/lenovo/Desktop/liteos/Project2/BearPi_LiteOS/components/security/mbedtls/mbedtls-2.6.0/library\aes.c **** #undef V
 215:C:/Users/lenovo/Desktop/liteos/Project2/BearPi_LiteOS/components/security/mbedtls/mbedtls-2.6.0/library\aes.c **** 
 216:C:/Users/lenovo/Desktop/liteos/Project2/BearPi_LiteOS/components/security/mbedtls/mbedtls-2.6.0/library\aes.c **** #undef FT
 217:C:/Users/lenovo/Desktop/liteos/Project2/BearPi_LiteOS/components/security/mbedtls/mbedtls-2.6.0/library\aes.c **** 
 218:C:/Users/lenovo/Desktop/liteos/Project2/BearPi_LiteOS/components/security/mbedtls/mbedtls-2.6.0/library\aes.c **** /*
 219:C:/Users/lenovo/Desktop/liteos/Project2/BearPi_LiteOS/components/security/mbedtls/mbedtls-2.6.0/library\aes.c ****  * Reverse S-box
 220:C:/Users/lenovo/Desktop/liteos/Project2/BearPi_LiteOS/components/security/mbedtls/mbedtls-2.6.0/library\aes.c ****  */
 221:C:/Users/lenovo/Desktop/liteos/Project2/BearPi_LiteOS/components/security/mbedtls/mbedtls-2.6.0/library\aes.c **** static const unsigned char RSb[256] =
 222:C:/Users/lenovo/Desktop/liteos/Project2/BearPi_LiteOS/components/security/mbedtls/mbedtls-2.6.0/library\aes.c **** {
 223:C:/Users/lenovo/Desktop/liteos/Project2/BearPi_LiteOS/components/security/mbedtls/mbedtls-2.6.0/library\aes.c ****     0x52, 0x09, 0x6A, 0xD5, 0x30, 0x36, 0xA5, 0x38,
 224:C:/Users/lenovo/Desktop/liteos/Project2/BearPi_LiteOS/components/security/mbedtls/mbedtls-2.6.0/library\aes.c ****     0xBF, 0x40, 0xA3, 0x9E, 0x81, 0xF3, 0xD7, 0xFB,
ARM GAS  c:\Users\lenovo\AppData\Local\Temp\ccpYsKo5.s 			page 6


 225:C:/Users/lenovo/Desktop/liteos/Project2/BearPi_LiteOS/components/security/mbedtls/mbedtls-2.6.0/library\aes.c ****     0x7C, 0xE3, 0x39, 0x82, 0x9B, 0x2F, 0xFF, 0x87,
 226:C:/Users/lenovo/Desktop/liteos/Project2/BearPi_LiteOS/components/security/mbedtls/mbedtls-2.6.0/library\aes.c ****     0x34, 0x8E, 0x43, 0x44, 0xC4, 0xDE, 0xE9, 0xCB,
 227:C:/Users/lenovo/Desktop/liteos/Project2/BearPi_LiteOS/components/security/mbedtls/mbedtls-2.6.0/library\aes.c ****     0x54, 0x7B, 0x94, 0x32, 0xA6, 0xC2, 0x23, 0x3D,
 228:C:/Users/lenovo/Desktop/liteos/Project2/BearPi_LiteOS/components/security/mbedtls/mbedtls-2.6.0/library\aes.c ****     0xEE, 0x4C, 0x95, 0x0B, 0x42, 0xFA, 0xC3, 0x4E,
 229:C:/Users/lenovo/Desktop/liteos/Project2/BearPi_LiteOS/components/security/mbedtls/mbedtls-2.6.0/library\aes.c ****     0x08, 0x2E, 0xA1, 0x66, 0x28, 0xD9, 0x24, 0xB2,
 230:C:/Users/lenovo/Desktop/liteos/Project2/BearPi_LiteOS/components/security/mbedtls/mbedtls-2.6.0/library\aes.c ****     0x76, 0x5B, 0xA2, 0x49, 0x6D, 0x8B, 0xD1, 0x25,
 231:C:/Users/lenovo/Desktop/liteos/Project2/BearPi_LiteOS/components/security/mbedtls/mbedtls-2.6.0/library\aes.c ****     0x72, 0xF8, 0xF6, 0x64, 0x86, 0x68, 0x98, 0x16,
 232:C:/Users/lenovo/Desktop/liteos/Project2/BearPi_LiteOS/components/security/mbedtls/mbedtls-2.6.0/library\aes.c ****     0xD4, 0xA4, 0x5C, 0xCC, 0x5D, 0x65, 0xB6, 0x92,
 233:C:/Users/lenovo/Desktop/liteos/Project2/BearPi_LiteOS/components/security/mbedtls/mbedtls-2.6.0/library\aes.c ****     0x6C, 0x70, 0x48, 0x50, 0xFD, 0xED, 0xB9, 0xDA,
 234:C:/Users/lenovo/Desktop/liteos/Project2/BearPi_LiteOS/components/security/mbedtls/mbedtls-2.6.0/library\aes.c ****     0x5E, 0x15, 0x46, 0x57, 0xA7, 0x8D, 0x9D, 0x84,
 235:C:/Users/lenovo/Desktop/liteos/Project2/BearPi_LiteOS/components/security/mbedtls/mbedtls-2.6.0/library\aes.c ****     0x90, 0xD8, 0xAB, 0x00, 0x8C, 0xBC, 0xD3, 0x0A,
 236:C:/Users/lenovo/Desktop/liteos/Project2/BearPi_LiteOS/components/security/mbedtls/mbedtls-2.6.0/library\aes.c ****     0xF7, 0xE4, 0x58, 0x05, 0xB8, 0xB3, 0x45, 0x06,
 237:C:/Users/lenovo/Desktop/liteos/Project2/BearPi_LiteOS/components/security/mbedtls/mbedtls-2.6.0/library\aes.c ****     0xD0, 0x2C, 0x1E, 0x8F, 0xCA, 0x3F, 0x0F, 0x02,
 238:C:/Users/lenovo/Desktop/liteos/Project2/BearPi_LiteOS/components/security/mbedtls/mbedtls-2.6.0/library\aes.c ****     0xC1, 0xAF, 0xBD, 0x03, 0x01, 0x13, 0x8A, 0x6B,
 239:C:/Users/lenovo/Desktop/liteos/Project2/BearPi_LiteOS/components/security/mbedtls/mbedtls-2.6.0/library\aes.c ****     0x3A, 0x91, 0x11, 0x41, 0x4F, 0x67, 0xDC, 0xEA,
 240:C:/Users/lenovo/Desktop/liteos/Project2/BearPi_LiteOS/components/security/mbedtls/mbedtls-2.6.0/library\aes.c ****     0x97, 0xF2, 0xCF, 0xCE, 0xF0, 0xB4, 0xE6, 0x73,
 241:C:/Users/lenovo/Desktop/liteos/Project2/BearPi_LiteOS/components/security/mbedtls/mbedtls-2.6.0/library\aes.c ****     0x96, 0xAC, 0x74, 0x22, 0xE7, 0xAD, 0x35, 0x85,
 242:C:/Users/lenovo/Desktop/liteos/Project2/BearPi_LiteOS/components/security/mbedtls/mbedtls-2.6.0/library\aes.c ****     0xE2, 0xF9, 0x37, 0xE8, 0x1C, 0x75, 0xDF, 0x6E,
 243:C:/Users/lenovo/Desktop/liteos/Project2/BearPi_LiteOS/components/security/mbedtls/mbedtls-2.6.0/library\aes.c ****     0x47, 0xF1, 0x1A, 0x71, 0x1D, 0x29, 0xC5, 0x89,
 244:C:/Users/lenovo/Desktop/liteos/Project2/BearPi_LiteOS/components/security/mbedtls/mbedtls-2.6.0/library\aes.c ****     0x6F, 0xB7, 0x62, 0x0E, 0xAA, 0x18, 0xBE, 0x1B,
 245:C:/Users/lenovo/Desktop/liteos/Project2/BearPi_LiteOS/components/security/mbedtls/mbedtls-2.6.0/library\aes.c ****     0xFC, 0x56, 0x3E, 0x4B, 0xC6, 0xD2, 0x79, 0x20,
 246:C:/Users/lenovo/Desktop/liteos/Project2/BearPi_LiteOS/components/security/mbedtls/mbedtls-2.6.0/library\aes.c ****     0x9A, 0xDB, 0xC0, 0xFE, 0x78, 0xCD, 0x5A, 0xF4,
 247:C:/Users/lenovo/Desktop/liteos/Project2/BearPi_LiteOS/components/security/mbedtls/mbedtls-2.6.0/library\aes.c ****     0x1F, 0xDD, 0xA8, 0x33, 0x88, 0x07, 0xC7, 0x31,
 248:C:/Users/lenovo/Desktop/liteos/Project2/BearPi_LiteOS/components/security/mbedtls/mbedtls-2.6.0/library\aes.c ****     0xB1, 0x12, 0x10, 0x59, 0x27, 0x80, 0xEC, 0x5F,
 249:C:/Users/lenovo/Desktop/liteos/Project2/BearPi_LiteOS/components/security/mbedtls/mbedtls-2.6.0/library\aes.c ****     0x60, 0x51, 0x7F, 0xA9, 0x19, 0xB5, 0x4A, 0x0D,
 250:C:/Users/lenovo/Desktop/liteos/Project2/BearPi_LiteOS/components/security/mbedtls/mbedtls-2.6.0/library\aes.c ****     0x2D, 0xE5, 0x7A, 0x9F, 0x93, 0xC9, 0x9C, 0xEF,
 251:C:/Users/lenovo/Desktop/liteos/Project2/BearPi_LiteOS/components/security/mbedtls/mbedtls-2.6.0/library\aes.c ****     0xA0, 0xE0, 0x3B, 0x4D, 0xAE, 0x2A, 0xF5, 0xB0,
 252:C:/Users/lenovo/Desktop/liteos/Project2/BearPi_LiteOS/components/security/mbedtls/mbedtls-2.6.0/library\aes.c ****     0xC8, 0xEB, 0xBB, 0x3C, 0x83, 0x53, 0x99, 0x61,
 253:C:/Users/lenovo/Desktop/liteos/Project2/BearPi_LiteOS/components/security/mbedtls/mbedtls-2.6.0/library\aes.c ****     0x17, 0x2B, 0x04, 0x7E, 0xBA, 0x77, 0xD6, 0x26,
 254:C:/Users/lenovo/Desktop/liteos/Project2/BearPi_LiteOS/components/security/mbedtls/mbedtls-2.6.0/library\aes.c ****     0xE1, 0x69, 0x14, 0x63, 0x55, 0x21, 0x0C, 0x7D
 255:C:/Users/lenovo/Desktop/liteos/Project2/BearPi_LiteOS/components/security/mbedtls/mbedtls-2.6.0/library\aes.c **** };
 256:C:/Users/lenovo/Desktop/liteos/Project2/BearPi_LiteOS/components/security/mbedtls/mbedtls-2.6.0/library\aes.c **** 
 257:C:/Users/lenovo/Desktop/liteos/Project2/BearPi_LiteOS/components/security/mbedtls/mbedtls-2.6.0/library\aes.c **** /*
 258:C:/Users/lenovo/Desktop/liteos/Project2/BearPi_LiteOS/components/security/mbedtls/mbedtls-2.6.0/library\aes.c ****  * Reverse tables
 259:C:/Users/lenovo/Desktop/liteos/Project2/BearPi_LiteOS/components/security/mbedtls/mbedtls-2.6.0/library\aes.c ****  */
 260:C:/Users/lenovo/Desktop/liteos/Project2/BearPi_LiteOS/components/security/mbedtls/mbedtls-2.6.0/library\aes.c **** #define RT \
 261:C:/Users/lenovo/Desktop/liteos/Project2/BearPi_LiteOS/components/security/mbedtls/mbedtls-2.6.0/library\aes.c **** \
 262:C:/Users/lenovo/Desktop/liteos/Project2/BearPi_LiteOS/components/security/mbedtls/mbedtls-2.6.0/library\aes.c ****     V(50,A7,F4,51), V(53,65,41,7E), V(C3,A4,17,1A), V(96,5E,27,3A), \
 263:C:/Users/lenovo/Desktop/liteos/Project2/BearPi_LiteOS/components/security/mbedtls/mbedtls-2.6.0/library\aes.c ****     V(CB,6B,AB,3B), V(F1,45,9D,1F), V(AB,58,FA,AC), V(93,03,E3,4B), \
 264:C:/Users/lenovo/Desktop/liteos/Project2/BearPi_LiteOS/components/security/mbedtls/mbedtls-2.6.0/library\aes.c ****     V(55,FA,30,20), V(F6,6D,76,AD), V(91,76,CC,88), V(25,4C,02,F5), \
 265:C:/Users/lenovo/Desktop/liteos/Project2/BearPi_LiteOS/components/security/mbedtls/mbedtls-2.6.0/library\aes.c ****     V(FC,D7,E5,4F), V(D7,CB,2A,C5), V(80,44,35,26), V(8F,A3,62,B5), \
 266:C:/Users/lenovo/Desktop/liteos/Project2/BearPi_LiteOS/components/security/mbedtls/mbedtls-2.6.0/library\aes.c ****     V(49,5A,B1,DE), V(67,1B,BA,25), V(98,0E,EA,45), V(E1,C0,FE,5D), \
 267:C:/Users/lenovo/Desktop/liteos/Project2/BearPi_LiteOS/components/security/mbedtls/mbedtls-2.6.0/library\aes.c ****     V(02,75,2F,C3), V(12,F0,4C,81), V(A3,97,46,8D), V(C6,F9,D3,6B), \
 268:C:/Users/lenovo/Desktop/liteos/Project2/BearPi_LiteOS/components/security/mbedtls/mbedtls-2.6.0/library\aes.c ****     V(E7,5F,8F,03), V(95,9C,92,15), V(EB,7A,6D,BF), V(DA,59,52,95), \
 269:C:/Users/lenovo/Desktop/liteos/Project2/BearPi_LiteOS/components/security/mbedtls/mbedtls-2.6.0/library\aes.c ****     V(2D,83,BE,D4), V(D3,21,74,58), V(29,69,E0,49), V(44,C8,C9,8E), \
 270:C:/Users/lenovo/Desktop/liteos/Project2/BearPi_LiteOS/components/security/mbedtls/mbedtls-2.6.0/library\aes.c ****     V(6A,89,C2,75), V(78,79,8E,F4), V(6B,3E,58,99), V(DD,71,B9,27), \
 271:C:/Users/lenovo/Desktop/liteos/Project2/BearPi_LiteOS/components/security/mbedtls/mbedtls-2.6.0/library\aes.c ****     V(B6,4F,E1,BE), V(17,AD,88,F0), V(66,AC,20,C9), V(B4,3A,CE,7D), \
 272:C:/Users/lenovo/Desktop/liteos/Project2/BearPi_LiteOS/components/security/mbedtls/mbedtls-2.6.0/library\aes.c ****     V(18,4A,DF,63), V(82,31,1A,E5), V(60,33,51,97), V(45,7F,53,62), \
 273:C:/Users/lenovo/Desktop/liteos/Project2/BearPi_LiteOS/components/security/mbedtls/mbedtls-2.6.0/library\aes.c ****     V(E0,77,64,B1), V(84,AE,6B,BB), V(1C,A0,81,FE), V(94,2B,08,F9), \
 274:C:/Users/lenovo/Desktop/liteos/Project2/BearPi_LiteOS/components/security/mbedtls/mbedtls-2.6.0/library\aes.c ****     V(58,68,48,70), V(19,FD,45,8F), V(87,6C,DE,94), V(B7,F8,7B,52), \
 275:C:/Users/lenovo/Desktop/liteos/Project2/BearPi_LiteOS/components/security/mbedtls/mbedtls-2.6.0/library\aes.c ****     V(23,D3,73,AB), V(E2,02,4B,72), V(57,8F,1F,E3), V(2A,AB,55,66), \
 276:C:/Users/lenovo/Desktop/liteos/Project2/BearPi_LiteOS/components/security/mbedtls/mbedtls-2.6.0/library\aes.c ****     V(07,28,EB,B2), V(03,C2,B5,2F), V(9A,7B,C5,86), V(A5,08,37,D3), \
 277:C:/Users/lenovo/Desktop/liteos/Project2/BearPi_LiteOS/components/security/mbedtls/mbedtls-2.6.0/library\aes.c ****     V(F2,87,28,30), V(B2,A5,BF,23), V(BA,6A,03,02), V(5C,82,16,ED), \
 278:C:/Users/lenovo/Desktop/liteos/Project2/BearPi_LiteOS/components/security/mbedtls/mbedtls-2.6.0/library\aes.c ****     V(2B,1C,CF,8A), V(92,B4,79,A7), V(F0,F2,07,F3), V(A1,E2,69,4E), \
 279:C:/Users/lenovo/Desktop/liteos/Project2/BearPi_LiteOS/components/security/mbedtls/mbedtls-2.6.0/library\aes.c ****     V(CD,F4,DA,65), V(D5,BE,05,06), V(1F,62,34,D1), V(8A,FE,A6,C4), \
 280:C:/Users/lenovo/Desktop/liteos/Project2/BearPi_LiteOS/components/security/mbedtls/mbedtls-2.6.0/library\aes.c ****     V(9D,53,2E,34), V(A0,55,F3,A2), V(32,E1,8A,05), V(75,EB,F6,A4), \
 281:C:/Users/lenovo/Desktop/liteos/Project2/BearPi_LiteOS/components/security/mbedtls/mbedtls-2.6.0/library\aes.c ****     V(39,EC,83,0B), V(AA,EF,60,40), V(06,9F,71,5E), V(51,10,6E,BD), \
ARM GAS  c:\Users\lenovo\AppData\Local\Temp\ccpYsKo5.s 			page 7


 282:C:/Users/lenovo/Desktop/liteos/Project2/BearPi_LiteOS/components/security/mbedtls/mbedtls-2.6.0/library\aes.c ****     V(F9,8A,21,3E), V(3D,06,DD,96), V(AE,05,3E,DD), V(46,BD,E6,4D), \
 283:C:/Users/lenovo/Desktop/liteos/Project2/BearPi_LiteOS/components/security/mbedtls/mbedtls-2.6.0/library\aes.c ****     V(B5,8D,54,91), V(05,5D,C4,71), V(6F,D4,06,04), V(FF,15,50,60), \
 284:C:/Users/lenovo/Desktop/liteos/Project2/BearPi_LiteOS/components/security/mbedtls/mbedtls-2.6.0/library\aes.c ****     V(24,FB,98,19), V(97,E9,BD,D6), V(CC,43,40,89), V(77,9E,D9,67), \
 285:C:/Users/lenovo/Desktop/liteos/Project2/BearPi_LiteOS/components/security/mbedtls/mbedtls-2.6.0/library\aes.c ****     V(BD,42,E8,B0), V(88,8B,89,07), V(38,5B,19,E7), V(DB,EE,C8,79), \
 286:C:/Users/lenovo/Desktop/liteos/Project2/BearPi_LiteOS/components/security/mbedtls/mbedtls-2.6.0/library\aes.c ****     V(47,0A,7C,A1), V(E9,0F,42,7C), V(C9,1E,84,F8), V(00,00,00,00), \
 287:C:/Users/lenovo/Desktop/liteos/Project2/BearPi_LiteOS/components/security/mbedtls/mbedtls-2.6.0/library\aes.c ****     V(83,86,80,09), V(48,ED,2B,32), V(AC,70,11,1E), V(4E,72,5A,6C), \
 288:C:/Users/lenovo/Desktop/liteos/Project2/BearPi_LiteOS/components/security/mbedtls/mbedtls-2.6.0/library\aes.c ****     V(FB,FF,0E,FD), V(56,38,85,0F), V(1E,D5,AE,3D), V(27,39,2D,36), \
 289:C:/Users/lenovo/Desktop/liteos/Project2/BearPi_LiteOS/components/security/mbedtls/mbedtls-2.6.0/library\aes.c ****     V(64,D9,0F,0A), V(21,A6,5C,68), V(D1,54,5B,9B), V(3A,2E,36,24), \
 290:C:/Users/lenovo/Desktop/liteos/Project2/BearPi_LiteOS/components/security/mbedtls/mbedtls-2.6.0/library\aes.c ****     V(B1,67,0A,0C), V(0F,E7,57,93), V(D2,96,EE,B4), V(9E,91,9B,1B), \
 291:C:/Users/lenovo/Desktop/liteos/Project2/BearPi_LiteOS/components/security/mbedtls/mbedtls-2.6.0/library\aes.c ****     V(4F,C5,C0,80), V(A2,20,DC,61), V(69,4B,77,5A), V(16,1A,12,1C), \
 292:C:/Users/lenovo/Desktop/liteos/Project2/BearPi_LiteOS/components/security/mbedtls/mbedtls-2.6.0/library\aes.c ****     V(0A,BA,93,E2), V(E5,2A,A0,C0), V(43,E0,22,3C), V(1D,17,1B,12), \
 293:C:/Users/lenovo/Desktop/liteos/Project2/BearPi_LiteOS/components/security/mbedtls/mbedtls-2.6.0/library\aes.c ****     V(0B,0D,09,0E), V(AD,C7,8B,F2), V(B9,A8,B6,2D), V(C8,A9,1E,14), \
 294:C:/Users/lenovo/Desktop/liteos/Project2/BearPi_LiteOS/components/security/mbedtls/mbedtls-2.6.0/library\aes.c ****     V(85,19,F1,57), V(4C,07,75,AF), V(BB,DD,99,EE), V(FD,60,7F,A3), \
 295:C:/Users/lenovo/Desktop/liteos/Project2/BearPi_LiteOS/components/security/mbedtls/mbedtls-2.6.0/library\aes.c ****     V(9F,26,01,F7), V(BC,F5,72,5C), V(C5,3B,66,44), V(34,7E,FB,5B), \
 296:C:/Users/lenovo/Desktop/liteos/Project2/BearPi_LiteOS/components/security/mbedtls/mbedtls-2.6.0/library\aes.c ****     V(76,29,43,8B), V(DC,C6,23,CB), V(68,FC,ED,B6), V(63,F1,E4,B8), \
 297:C:/Users/lenovo/Desktop/liteos/Project2/BearPi_LiteOS/components/security/mbedtls/mbedtls-2.6.0/library\aes.c ****     V(CA,DC,31,D7), V(10,85,63,42), V(40,22,97,13), V(20,11,C6,84), \
 298:C:/Users/lenovo/Desktop/liteos/Project2/BearPi_LiteOS/components/security/mbedtls/mbedtls-2.6.0/library\aes.c ****     V(7D,24,4A,85), V(F8,3D,BB,D2), V(11,32,F9,AE), V(6D,A1,29,C7), \
 299:C:/Users/lenovo/Desktop/liteos/Project2/BearPi_LiteOS/components/security/mbedtls/mbedtls-2.6.0/library\aes.c ****     V(4B,2F,9E,1D), V(F3,30,B2,DC), V(EC,52,86,0D), V(D0,E3,C1,77), \
 300:C:/Users/lenovo/Desktop/liteos/Project2/BearPi_LiteOS/components/security/mbedtls/mbedtls-2.6.0/library\aes.c ****     V(6C,16,B3,2B), V(99,B9,70,A9), V(FA,48,94,11), V(22,64,E9,47), \
 301:C:/Users/lenovo/Desktop/liteos/Project2/BearPi_LiteOS/components/security/mbedtls/mbedtls-2.6.0/library\aes.c ****     V(C4,8C,FC,A8), V(1A,3F,F0,A0), V(D8,2C,7D,56), V(EF,90,33,22), \
 302:C:/Users/lenovo/Desktop/liteos/Project2/BearPi_LiteOS/components/security/mbedtls/mbedtls-2.6.0/library\aes.c ****     V(C7,4E,49,87), V(C1,D1,38,D9), V(FE,A2,CA,8C), V(36,0B,D4,98), \
 303:C:/Users/lenovo/Desktop/liteos/Project2/BearPi_LiteOS/components/security/mbedtls/mbedtls-2.6.0/library\aes.c ****     V(CF,81,F5,A6), V(28,DE,7A,A5), V(26,8E,B7,DA), V(A4,BF,AD,3F), \
 304:C:/Users/lenovo/Desktop/liteos/Project2/BearPi_LiteOS/components/security/mbedtls/mbedtls-2.6.0/library\aes.c ****     V(E4,9D,3A,2C), V(0D,92,78,50), V(9B,CC,5F,6A), V(62,46,7E,54), \
 305:C:/Users/lenovo/Desktop/liteos/Project2/BearPi_LiteOS/components/security/mbedtls/mbedtls-2.6.0/library\aes.c ****     V(C2,13,8D,F6), V(E8,B8,D8,90), V(5E,F7,39,2E), V(F5,AF,C3,82), \
 306:C:/Users/lenovo/Desktop/liteos/Project2/BearPi_LiteOS/components/security/mbedtls/mbedtls-2.6.0/library\aes.c ****     V(BE,80,5D,9F), V(7C,93,D0,69), V(A9,2D,D5,6F), V(B3,12,25,CF), \
 307:C:/Users/lenovo/Desktop/liteos/Project2/BearPi_LiteOS/components/security/mbedtls/mbedtls-2.6.0/library\aes.c ****     V(3B,99,AC,C8), V(A7,7D,18,10), V(6E,63,9C,E8), V(7B,BB,3B,DB), \
 308:C:/Users/lenovo/Desktop/liteos/Project2/BearPi_LiteOS/components/security/mbedtls/mbedtls-2.6.0/library\aes.c ****     V(09,78,26,CD), V(F4,18,59,6E), V(01,B7,9A,EC), V(A8,9A,4F,83), \
 309:C:/Users/lenovo/Desktop/liteos/Project2/BearPi_LiteOS/components/security/mbedtls/mbedtls-2.6.0/library\aes.c ****     V(65,6E,95,E6), V(7E,E6,FF,AA), V(08,CF,BC,21), V(E6,E8,15,EF), \
 310:C:/Users/lenovo/Desktop/liteos/Project2/BearPi_LiteOS/components/security/mbedtls/mbedtls-2.6.0/library\aes.c ****     V(D9,9B,E7,BA), V(CE,36,6F,4A), V(D4,09,9F,EA), V(D6,7C,B0,29), \
 311:C:/Users/lenovo/Desktop/liteos/Project2/BearPi_LiteOS/components/security/mbedtls/mbedtls-2.6.0/library\aes.c ****     V(AF,B2,A4,31), V(31,23,3F,2A), V(30,94,A5,C6), V(C0,66,A2,35), \
 312:C:/Users/lenovo/Desktop/liteos/Project2/BearPi_LiteOS/components/security/mbedtls/mbedtls-2.6.0/library\aes.c ****     V(37,BC,4E,74), V(A6,CA,82,FC), V(B0,D0,90,E0), V(15,D8,A7,33), \
 313:C:/Users/lenovo/Desktop/liteos/Project2/BearPi_LiteOS/components/security/mbedtls/mbedtls-2.6.0/library\aes.c ****     V(4A,98,04,F1), V(F7,DA,EC,41), V(0E,50,CD,7F), V(2F,F6,91,17), \
 314:C:/Users/lenovo/Desktop/liteos/Project2/BearPi_LiteOS/components/security/mbedtls/mbedtls-2.6.0/library\aes.c ****     V(8D,D6,4D,76), V(4D,B0,EF,43), V(54,4D,AA,CC), V(DF,04,96,E4), \
 315:C:/Users/lenovo/Desktop/liteos/Project2/BearPi_LiteOS/components/security/mbedtls/mbedtls-2.6.0/library\aes.c ****     V(E3,B5,D1,9E), V(1B,88,6A,4C), V(B8,1F,2C,C1), V(7F,51,65,46), \
 316:C:/Users/lenovo/Desktop/liteos/Project2/BearPi_LiteOS/components/security/mbedtls/mbedtls-2.6.0/library\aes.c ****     V(04,EA,5E,9D), V(5D,35,8C,01), V(73,74,87,FA), V(2E,41,0B,FB), \
 317:C:/Users/lenovo/Desktop/liteos/Project2/BearPi_LiteOS/components/security/mbedtls/mbedtls-2.6.0/library\aes.c ****     V(5A,1D,67,B3), V(52,D2,DB,92), V(33,56,10,E9), V(13,47,D6,6D), \
 318:C:/Users/lenovo/Desktop/liteos/Project2/BearPi_LiteOS/components/security/mbedtls/mbedtls-2.6.0/library\aes.c ****     V(8C,61,D7,9A), V(7A,0C,A1,37), V(8E,14,F8,59), V(89,3C,13,EB), \
 319:C:/Users/lenovo/Desktop/liteos/Project2/BearPi_LiteOS/components/security/mbedtls/mbedtls-2.6.0/library\aes.c ****     V(EE,27,A9,CE), V(35,C9,61,B7), V(ED,E5,1C,E1), V(3C,B1,47,7A), \
 320:C:/Users/lenovo/Desktop/liteos/Project2/BearPi_LiteOS/components/security/mbedtls/mbedtls-2.6.0/library\aes.c ****     V(59,DF,D2,9C), V(3F,73,F2,55), V(79,CE,14,18), V(BF,37,C7,73), \
 321:C:/Users/lenovo/Desktop/liteos/Project2/BearPi_LiteOS/components/security/mbedtls/mbedtls-2.6.0/library\aes.c ****     V(EA,CD,F7,53), V(5B,AA,FD,5F), V(14,6F,3D,DF), V(86,DB,44,78), \
 322:C:/Users/lenovo/Desktop/liteos/Project2/BearPi_LiteOS/components/security/mbedtls/mbedtls-2.6.0/library\aes.c ****     V(81,F3,AF,CA), V(3E,C4,68,B9), V(2C,34,24,38), V(5F,40,A3,C2), \
 323:C:/Users/lenovo/Desktop/liteos/Project2/BearPi_LiteOS/components/security/mbedtls/mbedtls-2.6.0/library\aes.c ****     V(72,C3,1D,16), V(0C,25,E2,BC), V(8B,49,3C,28), V(41,95,0D,FF), \
 324:C:/Users/lenovo/Desktop/liteos/Project2/BearPi_LiteOS/components/security/mbedtls/mbedtls-2.6.0/library\aes.c ****     V(71,01,A8,39), V(DE,B3,0C,08), V(9C,E4,B4,D8), V(90,C1,56,64), \
 325:C:/Users/lenovo/Desktop/liteos/Project2/BearPi_LiteOS/components/security/mbedtls/mbedtls-2.6.0/library\aes.c ****     V(61,84,CB,7B), V(70,B6,32,D5), V(74,5C,6C,48), V(42,57,B8,D0)
 326:C:/Users/lenovo/Desktop/liteos/Project2/BearPi_LiteOS/components/security/mbedtls/mbedtls-2.6.0/library\aes.c **** 
 327:C:/Users/lenovo/Desktop/liteos/Project2/BearPi_LiteOS/components/security/mbedtls/mbedtls-2.6.0/library\aes.c **** #define V(a,b,c,d) 0x##a##b##c##d
 328:C:/Users/lenovo/Desktop/liteos/Project2/BearPi_LiteOS/components/security/mbedtls/mbedtls-2.6.0/library\aes.c **** static const uint32_t RT0[256] = { RT };
 329:C:/Users/lenovo/Desktop/liteos/Project2/BearPi_LiteOS/components/security/mbedtls/mbedtls-2.6.0/library\aes.c **** #undef V
 330:C:/Users/lenovo/Desktop/liteos/Project2/BearPi_LiteOS/components/security/mbedtls/mbedtls-2.6.0/library\aes.c **** 
 331:C:/Users/lenovo/Desktop/liteos/Project2/BearPi_LiteOS/components/security/mbedtls/mbedtls-2.6.0/library\aes.c **** #define V(a,b,c,d) 0x##b##c##d##a
 332:C:/Users/lenovo/Desktop/liteos/Project2/BearPi_LiteOS/components/security/mbedtls/mbedtls-2.6.0/library\aes.c **** static const uint32_t RT1[256] = { RT };
 333:C:/Users/lenovo/Desktop/liteos/Project2/BearPi_LiteOS/components/security/mbedtls/mbedtls-2.6.0/library\aes.c **** #undef V
 334:C:/Users/lenovo/Desktop/liteos/Project2/BearPi_LiteOS/components/security/mbedtls/mbedtls-2.6.0/library\aes.c **** 
 335:C:/Users/lenovo/Desktop/liteos/Project2/BearPi_LiteOS/components/security/mbedtls/mbedtls-2.6.0/library\aes.c **** #define V(a,b,c,d) 0x##c##d##a##b
 336:C:/Users/lenovo/Desktop/liteos/Project2/BearPi_LiteOS/components/security/mbedtls/mbedtls-2.6.0/library\aes.c **** static const uint32_t RT2[256] = { RT };
 337:C:/Users/lenovo/Desktop/liteos/Project2/BearPi_LiteOS/components/security/mbedtls/mbedtls-2.6.0/library\aes.c **** #undef V
 338:C:/Users/lenovo/Desktop/liteos/Project2/BearPi_LiteOS/components/security/mbedtls/mbedtls-2.6.0/library\aes.c **** 
ARM GAS  c:\Users\lenovo\AppData\Local\Temp\ccpYsKo5.s 			page 8


 339:C:/Users/lenovo/Desktop/liteos/Project2/BearPi_LiteOS/components/security/mbedtls/mbedtls-2.6.0/library\aes.c **** #define V(a,b,c,d) 0x##d##a##b##c
 340:C:/Users/lenovo/Desktop/liteos/Project2/BearPi_LiteOS/components/security/mbedtls/mbedtls-2.6.0/library\aes.c **** static const uint32_t RT3[256] = { RT };
 341:C:/Users/lenovo/Desktop/liteos/Project2/BearPi_LiteOS/components/security/mbedtls/mbedtls-2.6.0/library\aes.c **** #undef V
 342:C:/Users/lenovo/Desktop/liteos/Project2/BearPi_LiteOS/components/security/mbedtls/mbedtls-2.6.0/library\aes.c **** 
 343:C:/Users/lenovo/Desktop/liteos/Project2/BearPi_LiteOS/components/security/mbedtls/mbedtls-2.6.0/library\aes.c **** #undef RT
 344:C:/Users/lenovo/Desktop/liteos/Project2/BearPi_LiteOS/components/security/mbedtls/mbedtls-2.6.0/library\aes.c **** 
 345:C:/Users/lenovo/Desktop/liteos/Project2/BearPi_LiteOS/components/security/mbedtls/mbedtls-2.6.0/library\aes.c **** /*
 346:C:/Users/lenovo/Desktop/liteos/Project2/BearPi_LiteOS/components/security/mbedtls/mbedtls-2.6.0/library\aes.c ****  * Round constants
 347:C:/Users/lenovo/Desktop/liteos/Project2/BearPi_LiteOS/components/security/mbedtls/mbedtls-2.6.0/library\aes.c ****  */
 348:C:/Users/lenovo/Desktop/liteos/Project2/BearPi_LiteOS/components/security/mbedtls/mbedtls-2.6.0/library\aes.c **** static const uint32_t RCON[10] =
 349:C:/Users/lenovo/Desktop/liteos/Project2/BearPi_LiteOS/components/security/mbedtls/mbedtls-2.6.0/library\aes.c **** {
 350:C:/Users/lenovo/Desktop/liteos/Project2/BearPi_LiteOS/components/security/mbedtls/mbedtls-2.6.0/library\aes.c ****     0x00000001, 0x00000002, 0x00000004, 0x00000008,
 351:C:/Users/lenovo/Desktop/liteos/Project2/BearPi_LiteOS/components/security/mbedtls/mbedtls-2.6.0/library\aes.c ****     0x00000010, 0x00000020, 0x00000040, 0x00000080,
 352:C:/Users/lenovo/Desktop/liteos/Project2/BearPi_LiteOS/components/security/mbedtls/mbedtls-2.6.0/library\aes.c ****     0x0000001B, 0x00000036
 353:C:/Users/lenovo/Desktop/liteos/Project2/BearPi_LiteOS/components/security/mbedtls/mbedtls-2.6.0/library\aes.c **** };
 354:C:/Users/lenovo/Desktop/liteos/Project2/BearPi_LiteOS/components/security/mbedtls/mbedtls-2.6.0/library\aes.c **** 
 355:C:/Users/lenovo/Desktop/liteos/Project2/BearPi_LiteOS/components/security/mbedtls/mbedtls-2.6.0/library\aes.c **** #else /* MBEDTLS_AES_ROM_TABLES */
 356:C:/Users/lenovo/Desktop/liteos/Project2/BearPi_LiteOS/components/security/mbedtls/mbedtls-2.6.0/library\aes.c **** 
 357:C:/Users/lenovo/Desktop/liteos/Project2/BearPi_LiteOS/components/security/mbedtls/mbedtls-2.6.0/library\aes.c **** /*
 358:C:/Users/lenovo/Desktop/liteos/Project2/BearPi_LiteOS/components/security/mbedtls/mbedtls-2.6.0/library\aes.c ****  * Forward S-box & tables
 359:C:/Users/lenovo/Desktop/liteos/Project2/BearPi_LiteOS/components/security/mbedtls/mbedtls-2.6.0/library\aes.c ****  */
 360:C:/Users/lenovo/Desktop/liteos/Project2/BearPi_LiteOS/components/security/mbedtls/mbedtls-2.6.0/library\aes.c **** static unsigned char FSb[256];
 361:C:/Users/lenovo/Desktop/liteos/Project2/BearPi_LiteOS/components/security/mbedtls/mbedtls-2.6.0/library\aes.c **** static uint32_t FT0[256];
 362:C:/Users/lenovo/Desktop/liteos/Project2/BearPi_LiteOS/components/security/mbedtls/mbedtls-2.6.0/library\aes.c **** static uint32_t FT1[256];
 363:C:/Users/lenovo/Desktop/liteos/Project2/BearPi_LiteOS/components/security/mbedtls/mbedtls-2.6.0/library\aes.c **** static uint32_t FT2[256];
 364:C:/Users/lenovo/Desktop/liteos/Project2/BearPi_LiteOS/components/security/mbedtls/mbedtls-2.6.0/library\aes.c **** static uint32_t FT3[256];
 365:C:/Users/lenovo/Desktop/liteos/Project2/BearPi_LiteOS/components/security/mbedtls/mbedtls-2.6.0/library\aes.c **** 
 366:C:/Users/lenovo/Desktop/liteos/Project2/BearPi_LiteOS/components/security/mbedtls/mbedtls-2.6.0/library\aes.c **** /*
 367:C:/Users/lenovo/Desktop/liteos/Project2/BearPi_LiteOS/components/security/mbedtls/mbedtls-2.6.0/library\aes.c ****  * Reverse S-box & tables
 368:C:/Users/lenovo/Desktop/liteos/Project2/BearPi_LiteOS/components/security/mbedtls/mbedtls-2.6.0/library\aes.c ****  */
 369:C:/Users/lenovo/Desktop/liteos/Project2/BearPi_LiteOS/components/security/mbedtls/mbedtls-2.6.0/library\aes.c **** static unsigned char RSb[256];
 370:C:/Users/lenovo/Desktop/liteos/Project2/BearPi_LiteOS/components/security/mbedtls/mbedtls-2.6.0/library\aes.c **** static uint32_t RT0[256];
 371:C:/Users/lenovo/Desktop/liteos/Project2/BearPi_LiteOS/components/security/mbedtls/mbedtls-2.6.0/library\aes.c **** static uint32_t RT1[256];
 372:C:/Users/lenovo/Desktop/liteos/Project2/BearPi_LiteOS/components/security/mbedtls/mbedtls-2.6.0/library\aes.c **** static uint32_t RT2[256];
 373:C:/Users/lenovo/Desktop/liteos/Project2/BearPi_LiteOS/components/security/mbedtls/mbedtls-2.6.0/library\aes.c **** static uint32_t RT3[256];
 374:C:/Users/lenovo/Desktop/liteos/Project2/BearPi_LiteOS/components/security/mbedtls/mbedtls-2.6.0/library\aes.c **** 
 375:C:/Users/lenovo/Desktop/liteos/Project2/BearPi_LiteOS/components/security/mbedtls/mbedtls-2.6.0/library\aes.c **** /*
 376:C:/Users/lenovo/Desktop/liteos/Project2/BearPi_LiteOS/components/security/mbedtls/mbedtls-2.6.0/library\aes.c ****  * Round constants
 377:C:/Users/lenovo/Desktop/liteos/Project2/BearPi_LiteOS/components/security/mbedtls/mbedtls-2.6.0/library\aes.c ****  */
 378:C:/Users/lenovo/Desktop/liteos/Project2/BearPi_LiteOS/components/security/mbedtls/mbedtls-2.6.0/library\aes.c **** static uint32_t RCON[10];
 379:C:/Users/lenovo/Desktop/liteos/Project2/BearPi_LiteOS/components/security/mbedtls/mbedtls-2.6.0/library\aes.c **** 
 380:C:/Users/lenovo/Desktop/liteos/Project2/BearPi_LiteOS/components/security/mbedtls/mbedtls-2.6.0/library\aes.c **** /*
 381:C:/Users/lenovo/Desktop/liteos/Project2/BearPi_LiteOS/components/security/mbedtls/mbedtls-2.6.0/library\aes.c ****  * Tables generation code
 382:C:/Users/lenovo/Desktop/liteos/Project2/BearPi_LiteOS/components/security/mbedtls/mbedtls-2.6.0/library\aes.c ****  */
 383:C:/Users/lenovo/Desktop/liteos/Project2/BearPi_LiteOS/components/security/mbedtls/mbedtls-2.6.0/library\aes.c **** #define ROTL8(x) ( ( x << 8 ) & 0xFFFFFFFF ) | ( x >> 24 )
 384:C:/Users/lenovo/Desktop/liteos/Project2/BearPi_LiteOS/components/security/mbedtls/mbedtls-2.6.0/library\aes.c **** #define XTIME(x) ( ( x << 1 ) ^ ( ( x & 0x80 ) ? 0x1B : 0x00 ) )
 385:C:/Users/lenovo/Desktop/liteos/Project2/BearPi_LiteOS/components/security/mbedtls/mbedtls-2.6.0/library\aes.c **** #define MUL(x,y) ( ( x && y ) ? pow[(log[x]+log[y]) % 255] : 0 )
 386:C:/Users/lenovo/Desktop/liteos/Project2/BearPi_LiteOS/components/security/mbedtls/mbedtls-2.6.0/library\aes.c **** 
 387:C:/Users/lenovo/Desktop/liteos/Project2/BearPi_LiteOS/components/security/mbedtls/mbedtls-2.6.0/library\aes.c **** static int aes_init_done = 0;
 388:C:/Users/lenovo/Desktop/liteos/Project2/BearPi_LiteOS/components/security/mbedtls/mbedtls-2.6.0/library\aes.c **** 
 389:C:/Users/lenovo/Desktop/liteos/Project2/BearPi_LiteOS/components/security/mbedtls/mbedtls-2.6.0/library\aes.c **** static void aes_gen_tables( void )
 390:C:/Users/lenovo/Desktop/liteos/Project2/BearPi_LiteOS/components/security/mbedtls/mbedtls-2.6.0/library\aes.c **** {
 391:C:/Users/lenovo/Desktop/liteos/Project2/BearPi_LiteOS/components/security/mbedtls/mbedtls-2.6.0/library\aes.c ****     int i, x, y, z;
 392:C:/Users/lenovo/Desktop/liteos/Project2/BearPi_LiteOS/components/security/mbedtls/mbedtls-2.6.0/library\aes.c ****     int pow[256];
 393:C:/Users/lenovo/Desktop/liteos/Project2/BearPi_LiteOS/components/security/mbedtls/mbedtls-2.6.0/library\aes.c ****     int log[256];
 394:C:/Users/lenovo/Desktop/liteos/Project2/BearPi_LiteOS/components/security/mbedtls/mbedtls-2.6.0/library\aes.c **** 
 395:C:/Users/lenovo/Desktop/liteos/Project2/BearPi_LiteOS/components/security/mbedtls/mbedtls-2.6.0/library\aes.c ****     /*
ARM GAS  c:\Users\lenovo\AppData\Local\Temp\ccpYsKo5.s 			page 9


 396:C:/Users/lenovo/Desktop/liteos/Project2/BearPi_LiteOS/components/security/mbedtls/mbedtls-2.6.0/library\aes.c ****      * compute pow and log tables over GF(2^8)
 397:C:/Users/lenovo/Desktop/liteos/Project2/BearPi_LiteOS/components/security/mbedtls/mbedtls-2.6.0/library\aes.c ****      */
 398:C:/Users/lenovo/Desktop/liteos/Project2/BearPi_LiteOS/components/security/mbedtls/mbedtls-2.6.0/library\aes.c ****     for( i = 0, x = 1; i < 256; i++ )
 399:C:/Users/lenovo/Desktop/liteos/Project2/BearPi_LiteOS/components/security/mbedtls/mbedtls-2.6.0/library\aes.c ****     {
 400:C:/Users/lenovo/Desktop/liteos/Project2/BearPi_LiteOS/components/security/mbedtls/mbedtls-2.6.0/library\aes.c ****         pow[i] = x;
 401:C:/Users/lenovo/Desktop/liteos/Project2/BearPi_LiteOS/components/security/mbedtls/mbedtls-2.6.0/library\aes.c ****         log[x] = i;
 402:C:/Users/lenovo/Desktop/liteos/Project2/BearPi_LiteOS/components/security/mbedtls/mbedtls-2.6.0/library\aes.c ****         x = ( x ^ XTIME( x ) ) & 0xFF;
 403:C:/Users/lenovo/Desktop/liteos/Project2/BearPi_LiteOS/components/security/mbedtls/mbedtls-2.6.0/library\aes.c ****     }
 404:C:/Users/lenovo/Desktop/liteos/Project2/BearPi_LiteOS/components/security/mbedtls/mbedtls-2.6.0/library\aes.c **** 
 405:C:/Users/lenovo/Desktop/liteos/Project2/BearPi_LiteOS/components/security/mbedtls/mbedtls-2.6.0/library\aes.c ****     /*
 406:C:/Users/lenovo/Desktop/liteos/Project2/BearPi_LiteOS/components/security/mbedtls/mbedtls-2.6.0/library\aes.c ****      * calculate the round constants
 407:C:/Users/lenovo/Desktop/liteos/Project2/BearPi_LiteOS/components/security/mbedtls/mbedtls-2.6.0/library\aes.c ****      */
 408:C:/Users/lenovo/Desktop/liteos/Project2/BearPi_LiteOS/components/security/mbedtls/mbedtls-2.6.0/library\aes.c ****     for( i = 0, x = 1; i < 10; i++ )
 409:C:/Users/lenovo/Desktop/liteos/Project2/BearPi_LiteOS/components/security/mbedtls/mbedtls-2.6.0/library\aes.c ****     {
 410:C:/Users/lenovo/Desktop/liteos/Project2/BearPi_LiteOS/components/security/mbedtls/mbedtls-2.6.0/library\aes.c ****         RCON[i] = (uint32_t) x;
 411:C:/Users/lenovo/Desktop/liteos/Project2/BearPi_LiteOS/components/security/mbedtls/mbedtls-2.6.0/library\aes.c ****         x = XTIME( x ) & 0xFF;
 412:C:/Users/lenovo/Desktop/liteos/Project2/BearPi_LiteOS/components/security/mbedtls/mbedtls-2.6.0/library\aes.c ****     }
 413:C:/Users/lenovo/Desktop/liteos/Project2/BearPi_LiteOS/components/security/mbedtls/mbedtls-2.6.0/library\aes.c **** 
 414:C:/Users/lenovo/Desktop/liteos/Project2/BearPi_LiteOS/components/security/mbedtls/mbedtls-2.6.0/library\aes.c ****     /*
 415:C:/Users/lenovo/Desktop/liteos/Project2/BearPi_LiteOS/components/security/mbedtls/mbedtls-2.6.0/library\aes.c ****      * generate the forward and reverse S-boxes
 416:C:/Users/lenovo/Desktop/liteos/Project2/BearPi_LiteOS/components/security/mbedtls/mbedtls-2.6.0/library\aes.c ****      */
 417:C:/Users/lenovo/Desktop/liteos/Project2/BearPi_LiteOS/components/security/mbedtls/mbedtls-2.6.0/library\aes.c ****     FSb[0x00] = 0x63;
 418:C:/Users/lenovo/Desktop/liteos/Project2/BearPi_LiteOS/components/security/mbedtls/mbedtls-2.6.0/library\aes.c ****     RSb[0x63] = 0x00;
 419:C:/Users/lenovo/Desktop/liteos/Project2/BearPi_LiteOS/components/security/mbedtls/mbedtls-2.6.0/library\aes.c **** 
 420:C:/Users/lenovo/Desktop/liteos/Project2/BearPi_LiteOS/components/security/mbedtls/mbedtls-2.6.0/library\aes.c ****     for( i = 1; i < 256; i++ )
 421:C:/Users/lenovo/Desktop/liteos/Project2/BearPi_LiteOS/components/security/mbedtls/mbedtls-2.6.0/library\aes.c ****     {
 422:C:/Users/lenovo/Desktop/liteos/Project2/BearPi_LiteOS/components/security/mbedtls/mbedtls-2.6.0/library\aes.c ****         x = pow[255 - log[i]];
 423:C:/Users/lenovo/Desktop/liteos/Project2/BearPi_LiteOS/components/security/mbedtls/mbedtls-2.6.0/library\aes.c **** 
 424:C:/Users/lenovo/Desktop/liteos/Project2/BearPi_LiteOS/components/security/mbedtls/mbedtls-2.6.0/library\aes.c ****         y  = x; y = ( ( y << 1 ) | ( y >> 7 ) ) & 0xFF;
 425:C:/Users/lenovo/Desktop/liteos/Project2/BearPi_LiteOS/components/security/mbedtls/mbedtls-2.6.0/library\aes.c ****         x ^= y; y = ( ( y << 1 ) | ( y >> 7 ) ) & 0xFF;
 426:C:/Users/lenovo/Desktop/liteos/Project2/BearPi_LiteOS/components/security/mbedtls/mbedtls-2.6.0/library\aes.c ****         x ^= y; y = ( ( y << 1 ) | ( y >> 7 ) ) & 0xFF;
 427:C:/Users/lenovo/Desktop/liteos/Project2/BearPi_LiteOS/components/security/mbedtls/mbedtls-2.6.0/library\aes.c ****         x ^= y; y = ( ( y << 1 ) | ( y >> 7 ) ) & 0xFF;
 428:C:/Users/lenovo/Desktop/liteos/Project2/BearPi_LiteOS/components/security/mbedtls/mbedtls-2.6.0/library\aes.c ****         x ^= y ^ 0x63;
 429:C:/Users/lenovo/Desktop/liteos/Project2/BearPi_LiteOS/components/security/mbedtls/mbedtls-2.6.0/library\aes.c **** 
 430:C:/Users/lenovo/Desktop/liteos/Project2/BearPi_LiteOS/components/security/mbedtls/mbedtls-2.6.0/library\aes.c ****         FSb[i] = (unsigned char) x;
 431:C:/Users/lenovo/Desktop/liteos/Project2/BearPi_LiteOS/components/security/mbedtls/mbedtls-2.6.0/library\aes.c ****         RSb[x] = (unsigned char) i;
 432:C:/Users/lenovo/Desktop/liteos/Project2/BearPi_LiteOS/components/security/mbedtls/mbedtls-2.6.0/library\aes.c ****     }
 433:C:/Users/lenovo/Desktop/liteos/Project2/BearPi_LiteOS/components/security/mbedtls/mbedtls-2.6.0/library\aes.c **** 
 434:C:/Users/lenovo/Desktop/liteos/Project2/BearPi_LiteOS/components/security/mbedtls/mbedtls-2.6.0/library\aes.c ****     /*
 435:C:/Users/lenovo/Desktop/liteos/Project2/BearPi_LiteOS/components/security/mbedtls/mbedtls-2.6.0/library\aes.c ****      * generate the forward and reverse tables
 436:C:/Users/lenovo/Desktop/liteos/Project2/BearPi_LiteOS/components/security/mbedtls/mbedtls-2.6.0/library\aes.c ****      */
 437:C:/Users/lenovo/Desktop/liteos/Project2/BearPi_LiteOS/components/security/mbedtls/mbedtls-2.6.0/library\aes.c ****     for( i = 0; i < 256; i++ )
 438:C:/Users/lenovo/Desktop/liteos/Project2/BearPi_LiteOS/components/security/mbedtls/mbedtls-2.6.0/library\aes.c ****     {
 439:C:/Users/lenovo/Desktop/liteos/Project2/BearPi_LiteOS/components/security/mbedtls/mbedtls-2.6.0/library\aes.c ****         x = FSb[i];
 440:C:/Users/lenovo/Desktop/liteos/Project2/BearPi_LiteOS/components/security/mbedtls/mbedtls-2.6.0/library\aes.c ****         y = XTIME( x ) & 0xFF;
 441:C:/Users/lenovo/Desktop/liteos/Project2/BearPi_LiteOS/components/security/mbedtls/mbedtls-2.6.0/library\aes.c ****         z =  ( y ^ x ) & 0xFF;
 442:C:/Users/lenovo/Desktop/liteos/Project2/BearPi_LiteOS/components/security/mbedtls/mbedtls-2.6.0/library\aes.c **** 
 443:C:/Users/lenovo/Desktop/liteos/Project2/BearPi_LiteOS/components/security/mbedtls/mbedtls-2.6.0/library\aes.c ****         FT0[i] = ( (uint32_t) y       ) ^
 444:C:/Users/lenovo/Desktop/liteos/Project2/BearPi_LiteOS/components/security/mbedtls/mbedtls-2.6.0/library\aes.c ****                  ( (uint32_t) x <<  8 ) ^
 445:C:/Users/lenovo/Desktop/liteos/Project2/BearPi_LiteOS/components/security/mbedtls/mbedtls-2.6.0/library\aes.c ****                  ( (uint32_t) x << 16 ) ^
 446:C:/Users/lenovo/Desktop/liteos/Project2/BearPi_LiteOS/components/security/mbedtls/mbedtls-2.6.0/library\aes.c ****                  ( (uint32_t) z << 24 );
 447:C:/Users/lenovo/Desktop/liteos/Project2/BearPi_LiteOS/components/security/mbedtls/mbedtls-2.6.0/library\aes.c **** 
 448:C:/Users/lenovo/Desktop/liteos/Project2/BearPi_LiteOS/components/security/mbedtls/mbedtls-2.6.0/library\aes.c ****         FT1[i] = ROTL8( FT0[i] );
 449:C:/Users/lenovo/Desktop/liteos/Project2/BearPi_LiteOS/components/security/mbedtls/mbedtls-2.6.0/library\aes.c ****         FT2[i] = ROTL8( FT1[i] );
 450:C:/Users/lenovo/Desktop/liteos/Project2/BearPi_LiteOS/components/security/mbedtls/mbedtls-2.6.0/library\aes.c ****         FT3[i] = ROTL8( FT2[i] );
 451:C:/Users/lenovo/Desktop/liteos/Project2/BearPi_LiteOS/components/security/mbedtls/mbedtls-2.6.0/library\aes.c **** 
 452:C:/Users/lenovo/Desktop/liteos/Project2/BearPi_LiteOS/components/security/mbedtls/mbedtls-2.6.0/library\aes.c ****         x = RSb[i];
ARM GAS  c:\Users\lenovo\AppData\Local\Temp\ccpYsKo5.s 			page 10


 453:C:/Users/lenovo/Desktop/liteos/Project2/BearPi_LiteOS/components/security/mbedtls/mbedtls-2.6.0/library\aes.c **** 
 454:C:/Users/lenovo/Desktop/liteos/Project2/BearPi_LiteOS/components/security/mbedtls/mbedtls-2.6.0/library\aes.c ****         RT0[i] = ( (uint32_t) MUL( 0x0E, x )       ) ^
 455:C:/Users/lenovo/Desktop/liteos/Project2/BearPi_LiteOS/components/security/mbedtls/mbedtls-2.6.0/library\aes.c ****                  ( (uint32_t) MUL( 0x09, x ) <<  8 ) ^
 456:C:/Users/lenovo/Desktop/liteos/Project2/BearPi_LiteOS/components/security/mbedtls/mbedtls-2.6.0/library\aes.c ****                  ( (uint32_t) MUL( 0x0D, x ) << 16 ) ^
 457:C:/Users/lenovo/Desktop/liteos/Project2/BearPi_LiteOS/components/security/mbedtls/mbedtls-2.6.0/library\aes.c ****                  ( (uint32_t) MUL( 0x0B, x ) << 24 );
 458:C:/Users/lenovo/Desktop/liteos/Project2/BearPi_LiteOS/components/security/mbedtls/mbedtls-2.6.0/library\aes.c **** 
 459:C:/Users/lenovo/Desktop/liteos/Project2/BearPi_LiteOS/components/security/mbedtls/mbedtls-2.6.0/library\aes.c ****         RT1[i] = ROTL8( RT0[i] );
 460:C:/Users/lenovo/Desktop/liteos/Project2/BearPi_LiteOS/components/security/mbedtls/mbedtls-2.6.0/library\aes.c ****         RT2[i] = ROTL8( RT1[i] );
 461:C:/Users/lenovo/Desktop/liteos/Project2/BearPi_LiteOS/components/security/mbedtls/mbedtls-2.6.0/library\aes.c ****         RT3[i] = ROTL8( RT2[i] );
 462:C:/Users/lenovo/Desktop/liteos/Project2/BearPi_LiteOS/components/security/mbedtls/mbedtls-2.6.0/library\aes.c ****     }
 463:C:/Users/lenovo/Desktop/liteos/Project2/BearPi_LiteOS/components/security/mbedtls/mbedtls-2.6.0/library\aes.c **** }
 464:C:/Users/lenovo/Desktop/liteos/Project2/BearPi_LiteOS/components/security/mbedtls/mbedtls-2.6.0/library\aes.c **** 
 465:C:/Users/lenovo/Desktop/liteos/Project2/BearPi_LiteOS/components/security/mbedtls/mbedtls-2.6.0/library\aes.c **** #endif /* MBEDTLS_AES_ROM_TABLES */
 466:C:/Users/lenovo/Desktop/liteos/Project2/BearPi_LiteOS/components/security/mbedtls/mbedtls-2.6.0/library\aes.c **** 
 467:C:/Users/lenovo/Desktop/liteos/Project2/BearPi_LiteOS/components/security/mbedtls/mbedtls-2.6.0/library\aes.c **** void mbedtls_aes_init( mbedtls_aes_context *ctx )
 468:C:/Users/lenovo/Desktop/liteos/Project2/BearPi_LiteOS/components/security/mbedtls/mbedtls-2.6.0/library\aes.c **** {
  65              		.loc 1 468 0
  66              		.cfi_startproc
  67              		@ args = 0, pretend = 0, frame = 0
  68              		@ frame_needed = 0, uses_anonymous_args = 0
  69              	.LVL5:
  70 0000 08B5     		push	{r3, lr}
  71              	.LCFI0:
  72              		.cfi_def_cfa_offset 8
  73              		.cfi_offset 3, -8
  74              		.cfi_offset 14, -4
 469:C:/Users/lenovo/Desktop/liteos/Project2/BearPi_LiteOS/components/security/mbedtls/mbedtls-2.6.0/library\aes.c ****     memset( ctx, 0, sizeof( mbedtls_aes_context ) );
  75              		.loc 1 469 0
  76 0002 4FF48C72 		mov	r2, #280
  77 0006 0021     		movs	r1, #0
  78 0008 FFF7FEFF 		bl	memset
  79              	.LVL6:
 470:C:/Users/lenovo/Desktop/liteos/Project2/BearPi_LiteOS/components/security/mbedtls/mbedtls-2.6.0/library\aes.c **** }
  80              		.loc 1 470 0
  81 000c 08BD     		pop	{r3, pc}
  82              		.cfi_endproc
  83              	.LFE1:
  85              		.section	.text.mbedtls_aes_free,"ax",%progbits
  86              		.align	1
  87              		.global	mbedtls_aes_free
  88              		.syntax unified
  89              		.thumb
  90              		.thumb_func
  91              		.fpu fpv4-sp-d16
  93              	mbedtls_aes_free:
  94              	.LFB2:
 471:C:/Users/lenovo/Desktop/liteos/Project2/BearPi_LiteOS/components/security/mbedtls/mbedtls-2.6.0/library\aes.c **** 
 472:C:/Users/lenovo/Desktop/liteos/Project2/BearPi_LiteOS/components/security/mbedtls/mbedtls-2.6.0/library\aes.c **** void mbedtls_aes_free( mbedtls_aes_context *ctx )
 473:C:/Users/lenovo/Desktop/liteos/Project2/BearPi_LiteOS/components/security/mbedtls/mbedtls-2.6.0/library\aes.c **** {
  95              		.loc 1 473 0
  96              		.cfi_startproc
  97              		@ args = 0, pretend = 0, frame = 0
  98              		@ frame_needed = 0, uses_anonymous_args = 0
  99              	.LVL7:
 474:C:/Users/lenovo/Desktop/liteos/Project2/BearPi_LiteOS/components/security/mbedtls/mbedtls-2.6.0/library\aes.c ****     if( ctx == NULL )
 100              		.loc 1 474 0
 101 0000 28B1     		cbz	r0, .L9
ARM GAS  c:\Users\lenovo\AppData\Local\Temp\ccpYsKo5.s 			page 11


 473:C:/Users/lenovo/Desktop/liteos/Project2/BearPi_LiteOS/components/security/mbedtls/mbedtls-2.6.0/library\aes.c ****     if( ctx == NULL )
 102              		.loc 1 473 0
 103 0002 08B5     		push	{r3, lr}
 104              	.LCFI1:
 105              		.cfi_def_cfa_offset 8
 106              		.cfi_offset 3, -8
 107              		.cfi_offset 14, -4
 475:C:/Users/lenovo/Desktop/liteos/Project2/BearPi_LiteOS/components/security/mbedtls/mbedtls-2.6.0/library\aes.c ****         return;
 476:C:/Users/lenovo/Desktop/liteos/Project2/BearPi_LiteOS/components/security/mbedtls/mbedtls-2.6.0/library\aes.c **** 
 477:C:/Users/lenovo/Desktop/liteos/Project2/BearPi_LiteOS/components/security/mbedtls/mbedtls-2.6.0/library\aes.c ****     mbedtls_zeroize( ctx, sizeof( mbedtls_aes_context ) );
 108              		.loc 1 477 0
 109 0004 4FF48C71 		mov	r1, #280
 110 0008 FFF7FEFF 		bl	mbedtls_zeroize
 111              	.LVL8:
 478:C:/Users/lenovo/Desktop/liteos/Project2/BearPi_LiteOS/components/security/mbedtls/mbedtls-2.6.0/library\aes.c **** }
 112              		.loc 1 478 0
 113 000c 08BD     		pop	{r3, pc}
 114              	.LVL9:
 115              	.L9:
 116              	.LCFI2:
 117              		.cfi_def_cfa_offset 0
 118              		.cfi_restore 3
 119              		.cfi_restore 14
 120 000e 7047     		bx	lr
 121              		.cfi_endproc
 122              	.LFE2:
 124              		.section	.text.mbedtls_aes_setkey_enc,"ax",%progbits
 125              		.align	1
 126              		.global	mbedtls_aes_setkey_enc
 127              		.syntax unified
 128              		.thumb
 129              		.thumb_func
 130              		.fpu fpv4-sp-d16
 132              	mbedtls_aes_setkey_enc:
 133              	.LFB3:
 479:C:/Users/lenovo/Desktop/liteos/Project2/BearPi_LiteOS/components/security/mbedtls/mbedtls-2.6.0/library\aes.c **** 
 480:C:/Users/lenovo/Desktop/liteos/Project2/BearPi_LiteOS/components/security/mbedtls/mbedtls-2.6.0/library\aes.c **** /*
 481:C:/Users/lenovo/Desktop/liteos/Project2/BearPi_LiteOS/components/security/mbedtls/mbedtls-2.6.0/library\aes.c ****  * AES key schedule (encryption)
 482:C:/Users/lenovo/Desktop/liteos/Project2/BearPi_LiteOS/components/security/mbedtls/mbedtls-2.6.0/library\aes.c ****  */
 483:C:/Users/lenovo/Desktop/liteos/Project2/BearPi_LiteOS/components/security/mbedtls/mbedtls-2.6.0/library\aes.c **** #if !defined(MBEDTLS_AES_SETKEY_ENC_ALT)
 484:C:/Users/lenovo/Desktop/liteos/Project2/BearPi_LiteOS/components/security/mbedtls/mbedtls-2.6.0/library\aes.c **** int mbedtls_aes_setkey_enc( mbedtls_aes_context *ctx, const unsigned char *key,
 485:C:/Users/lenovo/Desktop/liteos/Project2/BearPi_LiteOS/components/security/mbedtls/mbedtls-2.6.0/library\aes.c ****                     unsigned int keybits )
 486:C:/Users/lenovo/Desktop/liteos/Project2/BearPi_LiteOS/components/security/mbedtls/mbedtls-2.6.0/library\aes.c **** {
 134              		.loc 1 486 0
 135              		.cfi_startproc
 136              		@ args = 0, pretend = 0, frame = 0
 137              		@ frame_needed = 0, uses_anonymous_args = 0
 138              		@ link register save eliminated.
 139              	.LVL10:
 487:C:/Users/lenovo/Desktop/liteos/Project2/BearPi_LiteOS/components/security/mbedtls/mbedtls-2.6.0/library\aes.c ****     unsigned int i;
 488:C:/Users/lenovo/Desktop/liteos/Project2/BearPi_LiteOS/components/security/mbedtls/mbedtls-2.6.0/library\aes.c ****     uint32_t *RK;
 489:C:/Users/lenovo/Desktop/liteos/Project2/BearPi_LiteOS/components/security/mbedtls/mbedtls-2.6.0/library\aes.c **** 
 490:C:/Users/lenovo/Desktop/liteos/Project2/BearPi_LiteOS/components/security/mbedtls/mbedtls-2.6.0/library\aes.c **** #if !defined(MBEDTLS_AES_ROM_TABLES)
 491:C:/Users/lenovo/Desktop/liteos/Project2/BearPi_LiteOS/components/security/mbedtls/mbedtls-2.6.0/library\aes.c ****     if( aes_init_done == 0 )
 492:C:/Users/lenovo/Desktop/liteos/Project2/BearPi_LiteOS/components/security/mbedtls/mbedtls-2.6.0/library\aes.c ****     {
 493:C:/Users/lenovo/Desktop/liteos/Project2/BearPi_LiteOS/components/security/mbedtls/mbedtls-2.6.0/library\aes.c ****         aes_gen_tables();
 494:C:/Users/lenovo/Desktop/liteos/Project2/BearPi_LiteOS/components/security/mbedtls/mbedtls-2.6.0/library\aes.c ****         aes_init_done = 1;
ARM GAS  c:\Users\lenovo\AppData\Local\Temp\ccpYsKo5.s 			page 12


 495:C:/Users/lenovo/Desktop/liteos/Project2/BearPi_LiteOS/components/security/mbedtls/mbedtls-2.6.0/library\aes.c **** 
 496:C:/Users/lenovo/Desktop/liteos/Project2/BearPi_LiteOS/components/security/mbedtls/mbedtls-2.6.0/library\aes.c ****     }
 497:C:/Users/lenovo/Desktop/liteos/Project2/BearPi_LiteOS/components/security/mbedtls/mbedtls-2.6.0/library\aes.c **** #endif
 498:C:/Users/lenovo/Desktop/liteos/Project2/BearPi_LiteOS/components/security/mbedtls/mbedtls-2.6.0/library\aes.c **** 
 499:C:/Users/lenovo/Desktop/liteos/Project2/BearPi_LiteOS/components/security/mbedtls/mbedtls-2.6.0/library\aes.c ****     switch( keybits )
 140              		.loc 1 499 0
 141 0000 C02A     		cmp	r2, #192
 142 0002 0FD0     		beq	.L14
 143 0004 B2F5807F 		cmp	r2, #256
 144 0008 0FD0     		beq	.L15
 145 000a 802A     		cmp	r2, #128
 146 000c 02D0     		beq	.L36
 500:C:/Users/lenovo/Desktop/liteos/Project2/BearPi_LiteOS/components/security/mbedtls/mbedtls-2.6.0/library\aes.c ****     {
 501:C:/Users/lenovo/Desktop/liteos/Project2/BearPi_LiteOS/components/security/mbedtls/mbedtls-2.6.0/library\aes.c ****         case 128: ctx->nr = 10; break;
 502:C:/Users/lenovo/Desktop/liteos/Project2/BearPi_LiteOS/components/security/mbedtls/mbedtls-2.6.0/library\aes.c ****         case 192: ctx->nr = 12; break;
 503:C:/Users/lenovo/Desktop/liteos/Project2/BearPi_LiteOS/components/security/mbedtls/mbedtls-2.6.0/library\aes.c ****         case 256: ctx->nr = 14; break;
 504:C:/Users/lenovo/Desktop/liteos/Project2/BearPi_LiteOS/components/security/mbedtls/mbedtls-2.6.0/library\aes.c ****         default : return( MBEDTLS_ERR_AES_INVALID_KEY_LENGTH );
 147              		.loc 1 504 0
 148 000e 6FF01F00 		mvn	r0, #31
 149              	.LVL11:
 505:C:/Users/lenovo/Desktop/liteos/Project2/BearPi_LiteOS/components/security/mbedtls/mbedtls-2.6.0/library\aes.c ****     }
 506:C:/Users/lenovo/Desktop/liteos/Project2/BearPi_LiteOS/components/security/mbedtls/mbedtls-2.6.0/library\aes.c **** 
 507:C:/Users/lenovo/Desktop/liteos/Project2/BearPi_LiteOS/components/security/mbedtls/mbedtls-2.6.0/library\aes.c **** #if defined(MBEDTLS_PADLOCK_C) && defined(MBEDTLS_PADLOCK_ALIGN16)
 508:C:/Users/lenovo/Desktop/liteos/Project2/BearPi_LiteOS/components/security/mbedtls/mbedtls-2.6.0/library\aes.c ****     if( aes_padlock_ace == -1 )
 509:C:/Users/lenovo/Desktop/liteos/Project2/BearPi_LiteOS/components/security/mbedtls/mbedtls-2.6.0/library\aes.c ****         aes_padlock_ace = mbedtls_padlock_has_support( MBEDTLS_PADLOCK_ACE );
 510:C:/Users/lenovo/Desktop/liteos/Project2/BearPi_LiteOS/components/security/mbedtls/mbedtls-2.6.0/library\aes.c **** 
 511:C:/Users/lenovo/Desktop/liteos/Project2/BearPi_LiteOS/components/security/mbedtls/mbedtls-2.6.0/library\aes.c ****     if( aes_padlock_ace )
 512:C:/Users/lenovo/Desktop/liteos/Project2/BearPi_LiteOS/components/security/mbedtls/mbedtls-2.6.0/library\aes.c ****         ctx->rk = RK = MBEDTLS_PADLOCK_ALIGN16( ctx->buf );
 513:C:/Users/lenovo/Desktop/liteos/Project2/BearPi_LiteOS/components/security/mbedtls/mbedtls-2.6.0/library\aes.c ****     else
 514:C:/Users/lenovo/Desktop/liteos/Project2/BearPi_LiteOS/components/security/mbedtls/mbedtls-2.6.0/library\aes.c **** #endif
 515:C:/Users/lenovo/Desktop/liteos/Project2/BearPi_LiteOS/components/security/mbedtls/mbedtls-2.6.0/library\aes.c ****     ctx->rk = RK = ctx->buf;
 516:C:/Users/lenovo/Desktop/liteos/Project2/BearPi_LiteOS/components/security/mbedtls/mbedtls-2.6.0/library\aes.c **** 
 517:C:/Users/lenovo/Desktop/liteos/Project2/BearPi_LiteOS/components/security/mbedtls/mbedtls-2.6.0/library\aes.c **** #if defined(MBEDTLS_AESNI_C) && defined(MBEDTLS_HAVE_X86_64)
 518:C:/Users/lenovo/Desktop/liteos/Project2/BearPi_LiteOS/components/security/mbedtls/mbedtls-2.6.0/library\aes.c ****     if( mbedtls_aesni_has_support( MBEDTLS_AESNI_AES ) )
 519:C:/Users/lenovo/Desktop/liteos/Project2/BearPi_LiteOS/components/security/mbedtls/mbedtls-2.6.0/library\aes.c ****         return( mbedtls_aesni_setkey_enc( (unsigned char *) ctx->rk, key, keybits ) );
 520:C:/Users/lenovo/Desktop/liteos/Project2/BearPi_LiteOS/components/security/mbedtls/mbedtls-2.6.0/library\aes.c **** #endif
 521:C:/Users/lenovo/Desktop/liteos/Project2/BearPi_LiteOS/components/security/mbedtls/mbedtls-2.6.0/library\aes.c **** 
 522:C:/Users/lenovo/Desktop/liteos/Project2/BearPi_LiteOS/components/security/mbedtls/mbedtls-2.6.0/library\aes.c ****     for( i = 0; i < ( keybits >> 5 ); i++ )
 523:C:/Users/lenovo/Desktop/liteos/Project2/BearPi_LiteOS/components/security/mbedtls/mbedtls-2.6.0/library\aes.c ****     {
 524:C:/Users/lenovo/Desktop/liteos/Project2/BearPi_LiteOS/components/security/mbedtls/mbedtls-2.6.0/library\aes.c ****         GET_UINT32_LE( RK[i], key, i << 2 );
 525:C:/Users/lenovo/Desktop/liteos/Project2/BearPi_LiteOS/components/security/mbedtls/mbedtls-2.6.0/library\aes.c ****     }
 526:C:/Users/lenovo/Desktop/liteos/Project2/BearPi_LiteOS/components/security/mbedtls/mbedtls-2.6.0/library\aes.c **** 
 527:C:/Users/lenovo/Desktop/liteos/Project2/BearPi_LiteOS/components/security/mbedtls/mbedtls-2.6.0/library\aes.c ****     switch( ctx->nr )
 528:C:/Users/lenovo/Desktop/liteos/Project2/BearPi_LiteOS/components/security/mbedtls/mbedtls-2.6.0/library\aes.c ****     {
 529:C:/Users/lenovo/Desktop/liteos/Project2/BearPi_LiteOS/components/security/mbedtls/mbedtls-2.6.0/library\aes.c ****         case 10:
 530:C:/Users/lenovo/Desktop/liteos/Project2/BearPi_LiteOS/components/security/mbedtls/mbedtls-2.6.0/library\aes.c **** 
 531:C:/Users/lenovo/Desktop/liteos/Project2/BearPi_LiteOS/components/security/mbedtls/mbedtls-2.6.0/library\aes.c ****             for( i = 0; i < 10; i++, RK += 4 )
 532:C:/Users/lenovo/Desktop/liteos/Project2/BearPi_LiteOS/components/security/mbedtls/mbedtls-2.6.0/library\aes.c ****             {
 533:C:/Users/lenovo/Desktop/liteos/Project2/BearPi_LiteOS/components/security/mbedtls/mbedtls-2.6.0/library\aes.c ****                 RK[4]  = RK[0] ^ RCON[i] ^
 534:C:/Users/lenovo/Desktop/liteos/Project2/BearPi_LiteOS/components/security/mbedtls/mbedtls-2.6.0/library\aes.c ****                 ( (uint32_t) FSb[ ( RK[3] >>  8 ) & 0xFF ]       ) ^
 535:C:/Users/lenovo/Desktop/liteos/Project2/BearPi_LiteOS/components/security/mbedtls/mbedtls-2.6.0/library\aes.c ****                 ( (uint32_t) FSb[ ( RK[3] >> 16 ) & 0xFF ] <<  8 ) ^
 536:C:/Users/lenovo/Desktop/liteos/Project2/BearPi_LiteOS/components/security/mbedtls/mbedtls-2.6.0/library\aes.c ****                 ( (uint32_t) FSb[ ( RK[3] >> 24 ) & 0xFF ] << 16 ) ^
 537:C:/Users/lenovo/Desktop/liteos/Project2/BearPi_LiteOS/components/security/mbedtls/mbedtls-2.6.0/library\aes.c ****                 ( (uint32_t) FSb[ ( RK[3]       ) & 0xFF ] << 24 );
 538:C:/Users/lenovo/Desktop/liteos/Project2/BearPi_LiteOS/components/security/mbedtls/mbedtls-2.6.0/library\aes.c **** 
 539:C:/Users/lenovo/Desktop/liteos/Project2/BearPi_LiteOS/components/security/mbedtls/mbedtls-2.6.0/library\aes.c ****                 RK[5]  = RK[1] ^ RK[4];
 540:C:/Users/lenovo/Desktop/liteos/Project2/BearPi_LiteOS/components/security/mbedtls/mbedtls-2.6.0/library\aes.c ****                 RK[6]  = RK[2] ^ RK[5];
 541:C:/Users/lenovo/Desktop/liteos/Project2/BearPi_LiteOS/components/security/mbedtls/mbedtls-2.6.0/library\aes.c ****                 RK[7]  = RK[3] ^ RK[6];
ARM GAS  c:\Users\lenovo\AppData\Local\Temp\ccpYsKo5.s 			page 13


 542:C:/Users/lenovo/Desktop/liteos/Project2/BearPi_LiteOS/components/security/mbedtls/mbedtls-2.6.0/library\aes.c ****             }
 543:C:/Users/lenovo/Desktop/liteos/Project2/BearPi_LiteOS/components/security/mbedtls/mbedtls-2.6.0/library\aes.c ****             break;
 544:C:/Users/lenovo/Desktop/liteos/Project2/BearPi_LiteOS/components/security/mbedtls/mbedtls-2.6.0/library\aes.c **** 
 545:C:/Users/lenovo/Desktop/liteos/Project2/BearPi_LiteOS/components/security/mbedtls/mbedtls-2.6.0/library\aes.c ****         case 12:
 546:C:/Users/lenovo/Desktop/liteos/Project2/BearPi_LiteOS/components/security/mbedtls/mbedtls-2.6.0/library\aes.c **** 
 547:C:/Users/lenovo/Desktop/liteos/Project2/BearPi_LiteOS/components/security/mbedtls/mbedtls-2.6.0/library\aes.c ****             for( i = 0; i < 8; i++, RK += 6 )
 548:C:/Users/lenovo/Desktop/liteos/Project2/BearPi_LiteOS/components/security/mbedtls/mbedtls-2.6.0/library\aes.c ****             {
 549:C:/Users/lenovo/Desktop/liteos/Project2/BearPi_LiteOS/components/security/mbedtls/mbedtls-2.6.0/library\aes.c ****                 RK[6]  = RK[0] ^ RCON[i] ^
 550:C:/Users/lenovo/Desktop/liteos/Project2/BearPi_LiteOS/components/security/mbedtls/mbedtls-2.6.0/library\aes.c ****                 ( (uint32_t) FSb[ ( RK[5] >>  8 ) & 0xFF ]       ) ^
 551:C:/Users/lenovo/Desktop/liteos/Project2/BearPi_LiteOS/components/security/mbedtls/mbedtls-2.6.0/library\aes.c ****                 ( (uint32_t) FSb[ ( RK[5] >> 16 ) & 0xFF ] <<  8 ) ^
 552:C:/Users/lenovo/Desktop/liteos/Project2/BearPi_LiteOS/components/security/mbedtls/mbedtls-2.6.0/library\aes.c ****                 ( (uint32_t) FSb[ ( RK[5] >> 24 ) & 0xFF ] << 16 ) ^
 553:C:/Users/lenovo/Desktop/liteos/Project2/BearPi_LiteOS/components/security/mbedtls/mbedtls-2.6.0/library\aes.c ****                 ( (uint32_t) FSb[ ( RK[5]       ) & 0xFF ] << 24 );
 554:C:/Users/lenovo/Desktop/liteos/Project2/BearPi_LiteOS/components/security/mbedtls/mbedtls-2.6.0/library\aes.c **** 
 555:C:/Users/lenovo/Desktop/liteos/Project2/BearPi_LiteOS/components/security/mbedtls/mbedtls-2.6.0/library\aes.c ****                 RK[7]  = RK[1] ^ RK[6];
 556:C:/Users/lenovo/Desktop/liteos/Project2/BearPi_LiteOS/components/security/mbedtls/mbedtls-2.6.0/library\aes.c ****                 RK[8]  = RK[2] ^ RK[7];
 557:C:/Users/lenovo/Desktop/liteos/Project2/BearPi_LiteOS/components/security/mbedtls/mbedtls-2.6.0/library\aes.c ****                 RK[9]  = RK[3] ^ RK[8];
 558:C:/Users/lenovo/Desktop/liteos/Project2/BearPi_LiteOS/components/security/mbedtls/mbedtls-2.6.0/library\aes.c ****                 RK[10] = RK[4] ^ RK[9];
 559:C:/Users/lenovo/Desktop/liteos/Project2/BearPi_LiteOS/components/security/mbedtls/mbedtls-2.6.0/library\aes.c ****                 RK[11] = RK[5] ^ RK[10];
 560:C:/Users/lenovo/Desktop/liteos/Project2/BearPi_LiteOS/components/security/mbedtls/mbedtls-2.6.0/library\aes.c ****             }
 561:C:/Users/lenovo/Desktop/liteos/Project2/BearPi_LiteOS/components/security/mbedtls/mbedtls-2.6.0/library\aes.c ****             break;
 562:C:/Users/lenovo/Desktop/liteos/Project2/BearPi_LiteOS/components/security/mbedtls/mbedtls-2.6.0/library\aes.c **** 
 563:C:/Users/lenovo/Desktop/liteos/Project2/BearPi_LiteOS/components/security/mbedtls/mbedtls-2.6.0/library\aes.c ****         case 14:
 564:C:/Users/lenovo/Desktop/liteos/Project2/BearPi_LiteOS/components/security/mbedtls/mbedtls-2.6.0/library\aes.c **** 
 565:C:/Users/lenovo/Desktop/liteos/Project2/BearPi_LiteOS/components/security/mbedtls/mbedtls-2.6.0/library\aes.c ****             for( i = 0; i < 7; i++, RK += 8 )
 566:C:/Users/lenovo/Desktop/liteos/Project2/BearPi_LiteOS/components/security/mbedtls/mbedtls-2.6.0/library\aes.c ****             {
 567:C:/Users/lenovo/Desktop/liteos/Project2/BearPi_LiteOS/components/security/mbedtls/mbedtls-2.6.0/library\aes.c ****                 RK[8]  = RK[0] ^ RCON[i] ^
 568:C:/Users/lenovo/Desktop/liteos/Project2/BearPi_LiteOS/components/security/mbedtls/mbedtls-2.6.0/library\aes.c ****                 ( (uint32_t) FSb[ ( RK[7] >>  8 ) & 0xFF ]       ) ^
 569:C:/Users/lenovo/Desktop/liteos/Project2/BearPi_LiteOS/components/security/mbedtls/mbedtls-2.6.0/library\aes.c ****                 ( (uint32_t) FSb[ ( RK[7] >> 16 ) & 0xFF ] <<  8 ) ^
 570:C:/Users/lenovo/Desktop/liteos/Project2/BearPi_LiteOS/components/security/mbedtls/mbedtls-2.6.0/library\aes.c ****                 ( (uint32_t) FSb[ ( RK[7] >> 24 ) & 0xFF ] << 16 ) ^
 571:C:/Users/lenovo/Desktop/liteos/Project2/BearPi_LiteOS/components/security/mbedtls/mbedtls-2.6.0/library\aes.c ****                 ( (uint32_t) FSb[ ( RK[7]       ) & 0xFF ] << 24 );
 572:C:/Users/lenovo/Desktop/liteos/Project2/BearPi_LiteOS/components/security/mbedtls/mbedtls-2.6.0/library\aes.c **** 
 573:C:/Users/lenovo/Desktop/liteos/Project2/BearPi_LiteOS/components/security/mbedtls/mbedtls-2.6.0/library\aes.c ****                 RK[9]  = RK[1] ^ RK[8];
 574:C:/Users/lenovo/Desktop/liteos/Project2/BearPi_LiteOS/components/security/mbedtls/mbedtls-2.6.0/library\aes.c ****                 RK[10] = RK[2] ^ RK[9];
 575:C:/Users/lenovo/Desktop/liteos/Project2/BearPi_LiteOS/components/security/mbedtls/mbedtls-2.6.0/library\aes.c ****                 RK[11] = RK[3] ^ RK[10];
 576:C:/Users/lenovo/Desktop/liteos/Project2/BearPi_LiteOS/components/security/mbedtls/mbedtls-2.6.0/library\aes.c **** 
 577:C:/Users/lenovo/Desktop/liteos/Project2/BearPi_LiteOS/components/security/mbedtls/mbedtls-2.6.0/library\aes.c ****                 RK[12] = RK[4] ^
 578:C:/Users/lenovo/Desktop/liteos/Project2/BearPi_LiteOS/components/security/mbedtls/mbedtls-2.6.0/library\aes.c ****                 ( (uint32_t) FSb[ ( RK[11]       ) & 0xFF ]       ) ^
 579:C:/Users/lenovo/Desktop/liteos/Project2/BearPi_LiteOS/components/security/mbedtls/mbedtls-2.6.0/library\aes.c ****                 ( (uint32_t) FSb[ ( RK[11] >>  8 ) & 0xFF ] <<  8 ) ^
 580:C:/Users/lenovo/Desktop/liteos/Project2/BearPi_LiteOS/components/security/mbedtls/mbedtls-2.6.0/library\aes.c ****                 ( (uint32_t) FSb[ ( RK[11] >> 16 ) & 0xFF ] << 16 ) ^
 581:C:/Users/lenovo/Desktop/liteos/Project2/BearPi_LiteOS/components/security/mbedtls/mbedtls-2.6.0/library\aes.c ****                 ( (uint32_t) FSb[ ( RK[11] >> 24 ) & 0xFF ] << 24 );
 582:C:/Users/lenovo/Desktop/liteos/Project2/BearPi_LiteOS/components/security/mbedtls/mbedtls-2.6.0/library\aes.c **** 
 583:C:/Users/lenovo/Desktop/liteos/Project2/BearPi_LiteOS/components/security/mbedtls/mbedtls-2.6.0/library\aes.c ****                 RK[13] = RK[5] ^ RK[12];
 584:C:/Users/lenovo/Desktop/liteos/Project2/BearPi_LiteOS/components/security/mbedtls/mbedtls-2.6.0/library\aes.c ****                 RK[14] = RK[6] ^ RK[13];
 585:C:/Users/lenovo/Desktop/liteos/Project2/BearPi_LiteOS/components/security/mbedtls/mbedtls-2.6.0/library\aes.c ****                 RK[15] = RK[7] ^ RK[14];
 586:C:/Users/lenovo/Desktop/liteos/Project2/BearPi_LiteOS/components/security/mbedtls/mbedtls-2.6.0/library\aes.c ****             }
 587:C:/Users/lenovo/Desktop/liteos/Project2/BearPi_LiteOS/components/security/mbedtls/mbedtls-2.6.0/library\aes.c ****             break;
 588:C:/Users/lenovo/Desktop/liteos/Project2/BearPi_LiteOS/components/security/mbedtls/mbedtls-2.6.0/library\aes.c ****     }
 589:C:/Users/lenovo/Desktop/liteos/Project2/BearPi_LiteOS/components/security/mbedtls/mbedtls-2.6.0/library\aes.c **** 
 590:C:/Users/lenovo/Desktop/liteos/Project2/BearPi_LiteOS/components/security/mbedtls/mbedtls-2.6.0/library\aes.c ****     return( 0 );
 591:C:/Users/lenovo/Desktop/liteos/Project2/BearPi_LiteOS/components/security/mbedtls/mbedtls-2.6.0/library\aes.c **** }
 150              		.loc 1 591 0
 151 0012 7047     		bx	lr
 152              	.LVL12:
 153              	.L36:
 501:C:/Users/lenovo/Desktop/liteos/Project2/BearPi_LiteOS/components/security/mbedtls/mbedtls-2.6.0/library\aes.c ****         case 192: ctx->nr = 12; break;
 154              		.loc 1 501 0
 155 0014 0A23     		movs	r3, #10
ARM GAS  c:\Users\lenovo\AppData\Local\Temp\ccpYsKo5.s 			page 14


 156 0016 0360     		str	r3, [r0]
 157              	.L17:
 486:C:/Users/lenovo/Desktop/liteos/Project2/BearPi_LiteOS/components/security/mbedtls/mbedtls-2.6.0/library\aes.c ****     unsigned int i;
 158              		.loc 1 486 0
 159 0018 F0B4     		push	{r4, r5, r6, r7}
 160              	.LCFI3:
 161              		.cfi_def_cfa_offset 16
 162              		.cfi_offset 4, -16
 163              		.cfi_offset 5, -12
 164              		.cfi_offset 6, -8
 165              		.cfi_offset 7, -4
 515:C:/Users/lenovo/Desktop/liteos/Project2/BearPi_LiteOS/components/security/mbedtls/mbedtls-2.6.0/library\aes.c **** 
 166              		.loc 1 515 0
 167 001a 00F10803 		add	r3, r0, #8
 168              	.LVL13:
 169 001e 4360     		str	r3, [r0, #4]
 170              	.LVL14:
 522:C:/Users/lenovo/Desktop/liteos/Project2/BearPi_LiteOS/components/security/mbedtls/mbedtls-2.6.0/library\aes.c ****     {
 171              		.loc 1 522 0
 172 0020 0025     		movs	r5, #0
 173 0022 15E0     		b	.L18
 174              	.LVL15:
 175              	.L14:
 176              	.LCFI4:
 177              		.cfi_def_cfa_offset 0
 178              		.cfi_restore 4
 179              		.cfi_restore 5
 180              		.cfi_restore 6
 181              		.cfi_restore 7
 502:C:/Users/lenovo/Desktop/liteos/Project2/BearPi_LiteOS/components/security/mbedtls/mbedtls-2.6.0/library\aes.c ****         case 256: ctx->nr = 14; break;
 182              		.loc 1 502 0
 183 0024 0C23     		movs	r3, #12
 184 0026 0360     		str	r3, [r0]
 185 0028 F6E7     		b	.L17
 186              	.L15:
 503:C:/Users/lenovo/Desktop/liteos/Project2/BearPi_LiteOS/components/security/mbedtls/mbedtls-2.6.0/library\aes.c ****         default : return( MBEDTLS_ERR_AES_INVALID_KEY_LENGTH );
 187              		.loc 1 503 0
 188 002a 0E23     		movs	r3, #14
 189 002c 0360     		str	r3, [r0]
 190 002e F3E7     		b	.L17
 191              	.LVL16:
 192              	.L19:
 193              	.LCFI5:
 194              		.cfi_def_cfa_offset 16
 195              		.cfi_offset 4, -16
 196              		.cfi_offset 5, -12
 197              		.cfi_offset 6, -8
 198              		.cfi_offset 7, -4
 524:C:/Users/lenovo/Desktop/liteos/Project2/BearPi_LiteOS/components/security/mbedtls/mbedtls-2.6.0/library\aes.c ****     }
 199              		.loc 1 524 0 discriminator 3
 200 0030 11F82540 		ldrb	r4, [r1, r5, lsl #2]	@ zero_extendqisi2
 201 0034 01EB8506 		add	r6, r1, r5, lsl #2
 202 0038 7778     		ldrb	r7, [r6, #1]	@ zero_extendqisi2
 203 003a 44EA0724 		orr	r4, r4, r7, lsl #8
 204 003e B778     		ldrb	r7, [r6, #2]	@ zero_extendqisi2
 205 0040 44EA0744 		orr	r4, r4, r7, lsl #16
 206 0044 F678     		ldrb	r6, [r6, #3]	@ zero_extendqisi2
ARM GAS  c:\Users\lenovo\AppData\Local\Temp\ccpYsKo5.s 			page 15


 207 0046 44EA0664 		orr	r4, r4, r6, lsl #24
 208 004a 43F82540 		str	r4, [r3, r5, lsl #2]
 522:C:/Users/lenovo/Desktop/liteos/Project2/BearPi_LiteOS/components/security/mbedtls/mbedtls-2.6.0/library\aes.c ****     {
 209              		.loc 1 522 0 discriminator 3
 210 004e 0135     		adds	r5, r5, #1
 211              	.LVL17:
 212              	.L18:
 522:C:/Users/lenovo/Desktop/liteos/Project2/BearPi_LiteOS/components/security/mbedtls/mbedtls-2.6.0/library\aes.c ****     {
 213              		.loc 1 522 0 is_stmt 0 discriminator 1
 214 0050 B5EB521F 		cmp	r5, r2, lsr #5
 215 0054 ECD3     		bcc	.L19
 527:C:/Users/lenovo/Desktop/liteos/Project2/BearPi_LiteOS/components/security/mbedtls/mbedtls-2.6.0/library\aes.c ****     {
 216              		.loc 1 527 0 is_stmt 1
 217 0056 0268     		ldr	r2, [r0]
 218              	.LVL18:
 219 0058 0C2A     		cmp	r2, #12
 220 005a 5DD0     		beq	.L29
 221 005c 0E2A     		cmp	r2, #14
 222 005e 00F0A080 		beq	.L30
 223 0062 0A2A     		cmp	r2, #10
 224 0064 29D0     		beq	.L37
 590:C:/Users/lenovo/Desktop/liteos/Project2/BearPi_LiteOS/components/security/mbedtls/mbedtls-2.6.0/library\aes.c **** }
 225              		.loc 1 590 0
 226 0066 0020     		movs	r0, #0
 227              	.LVL19:
 228 0068 25E0     		b	.L12
 229              	.LVL20:
 230              	.L23:
 533:C:/Users/lenovo/Desktop/liteos/Project2/BearPi_LiteOS/components/security/mbedtls/mbedtls-2.6.0/library\aes.c ****                 ( (uint32_t) FSb[ ( RK[3] >>  8 ) & 0xFF ]       ) ^
 231              		.loc 1 533 0 discriminator 3
 232 006a 1A68     		ldr	r2, [r3]
 233 006c 4E49     		ldr	r1, .L38
 234 006e 51F82410 		ldr	r1, [r1, r4, lsl #2]
 235 0072 4A40     		eors	r2, r2, r1
 534:C:/Users/lenovo/Desktop/liteos/Project2/BearPi_LiteOS/components/security/mbedtls/mbedtls-2.6.0/library\aes.c ****                 ( (uint32_t) FSb[ ( RK[3] >> 16 ) & 0xFF ] <<  8 ) ^
 236              		.loc 1 534 0 discriminator 3
 237 0074 D968     		ldr	r1, [r3, #12]
 238 0076 C1F30725 		ubfx	r5, r1, #8, #8
 239 007a 4C48     		ldr	r0, .L38+4
 240 007c 455D     		ldrb	r5, [r0, r5]	@ zero_extendqisi2
 533:C:/Users/lenovo/Desktop/liteos/Project2/BearPi_LiteOS/components/security/mbedtls/mbedtls-2.6.0/library\aes.c ****                 ( (uint32_t) FSb[ ( RK[3] >>  8 ) & 0xFF ]       ) ^
 241              		.loc 1 533 0 discriminator 3
 242 007e 6A40     		eors	r2, r2, r5
 535:C:/Users/lenovo/Desktop/liteos/Project2/BearPi_LiteOS/components/security/mbedtls/mbedtls-2.6.0/library\aes.c ****                 ( (uint32_t) FSb[ ( RK[3] >> 24 ) & 0xFF ] << 16 ) ^
 243              		.loc 1 535 0 discriminator 3
 244 0080 C1F30745 		ubfx	r5, r1, #16, #8
 245 0084 455D     		ldrb	r5, [r0, r5]	@ zero_extendqisi2
 534:C:/Users/lenovo/Desktop/liteos/Project2/BearPi_LiteOS/components/security/mbedtls/mbedtls-2.6.0/library\aes.c ****                 ( (uint32_t) FSb[ ( RK[3] >> 16 ) & 0xFF ] <<  8 ) ^
 246              		.loc 1 534 0 discriminator 3
 247 0086 82EA0522 		eor	r2, r2, r5, lsl #8
 536:C:/Users/lenovo/Desktop/liteos/Project2/BearPi_LiteOS/components/security/mbedtls/mbedtls-2.6.0/library\aes.c ****                 ( (uint32_t) FSb[ ( RK[3]       ) & 0xFF ] << 24 );
 248              		.loc 1 536 0 discriminator 3
 249 008a 0D0E     		lsrs	r5, r1, #24
 250 008c 455D     		ldrb	r5, [r0, r5]	@ zero_extendqisi2
 535:C:/Users/lenovo/Desktop/liteos/Project2/BearPi_LiteOS/components/security/mbedtls/mbedtls-2.6.0/library\aes.c ****                 ( (uint32_t) FSb[ ( RK[3] >> 24 ) & 0xFF ] << 16 ) ^
 251              		.loc 1 535 0 discriminator 3
 252 008e 82EA0542 		eor	r2, r2, r5, lsl #16
ARM GAS  c:\Users\lenovo\AppData\Local\Temp\ccpYsKo5.s 			page 16


 537:C:/Users/lenovo/Desktop/liteos/Project2/BearPi_LiteOS/components/security/mbedtls/mbedtls-2.6.0/library\aes.c **** 
 253              		.loc 1 537 0 discriminator 3
 254 0092 CDB2     		uxtb	r5, r1
 255 0094 405D     		ldrb	r0, [r0, r5]	@ zero_extendqisi2
 536:C:/Users/lenovo/Desktop/liteos/Project2/BearPi_LiteOS/components/security/mbedtls/mbedtls-2.6.0/library\aes.c ****                 ( (uint32_t) FSb[ ( RK[3]       ) & 0xFF ] << 24 );
 256              		.loc 1 536 0 discriminator 3
 257 0096 82EA0062 		eor	r2, r2, r0, lsl #24
 533:C:/Users/lenovo/Desktop/liteos/Project2/BearPi_LiteOS/components/security/mbedtls/mbedtls-2.6.0/library\aes.c ****                 ( (uint32_t) FSb[ ( RK[3] >>  8 ) & 0xFF ]       ) ^
 258              		.loc 1 533 0 discriminator 3
 259 009a 1A61     		str	r2, [r3, #16]
 539:C:/Users/lenovo/Desktop/liteos/Project2/BearPi_LiteOS/components/security/mbedtls/mbedtls-2.6.0/library\aes.c ****                 RK[6]  = RK[2] ^ RK[5];
 260              		.loc 1 539 0 discriminator 3
 261 009c 5868     		ldr	r0, [r3, #4]
 262 009e 4240     		eors	r2, r2, r0
 263 00a0 5A61     		str	r2, [r3, #20]
 540:C:/Users/lenovo/Desktop/liteos/Project2/BearPi_LiteOS/components/security/mbedtls/mbedtls-2.6.0/library\aes.c ****                 RK[7]  = RK[3] ^ RK[6];
 264              		.loc 1 540 0 discriminator 3
 265 00a2 9868     		ldr	r0, [r3, #8]
 266 00a4 4240     		eors	r2, r2, r0
 267 00a6 9A61     		str	r2, [r3, #24]
 541:C:/Users/lenovo/Desktop/liteos/Project2/BearPi_LiteOS/components/security/mbedtls/mbedtls-2.6.0/library\aes.c ****             }
 268              		.loc 1 541 0 discriminator 3
 269 00a8 4A40     		eors	r2, r2, r1
 270 00aa DA61     		str	r2, [r3, #28]
 531:C:/Users/lenovo/Desktop/liteos/Project2/BearPi_LiteOS/components/security/mbedtls/mbedtls-2.6.0/library\aes.c ****             {
 271              		.loc 1 531 0 discriminator 3
 272 00ac 0134     		adds	r4, r4, #1
 273              	.LVL21:
 274 00ae 1033     		adds	r3, r3, #16
 275              	.LVL22:
 276              	.L22:
 531:C:/Users/lenovo/Desktop/liteos/Project2/BearPi_LiteOS/components/security/mbedtls/mbedtls-2.6.0/library\aes.c ****             {
 277              		.loc 1 531 0 is_stmt 0 discriminator 1
 278 00b0 092C     		cmp	r4, #9
 279 00b2 DAD9     		bls	.L23
 590:C:/Users/lenovo/Desktop/liteos/Project2/BearPi_LiteOS/components/security/mbedtls/mbedtls-2.6.0/library\aes.c **** }
 280              		.loc 1 590 0 is_stmt 1
 281 00b4 0020     		movs	r0, #0
 282              	.LVL23:
 283              	.L12:
 284              		.loc 1 591 0
 285 00b6 F0BC     		pop	{r4, r5, r6, r7}
 286              	.LCFI6:
 287              		.cfi_remember_state
 288              		.cfi_restore 7
 289              		.cfi_restore 6
 290              		.cfi_restore 5
 291              		.cfi_restore 4
 292              		.cfi_def_cfa_offset 0
 293 00b8 7047     		bx	lr
 294              	.LVL24:
 295              	.L37:
 296              	.LCFI7:
 297              		.cfi_restore_state
 531:C:/Users/lenovo/Desktop/liteos/Project2/BearPi_LiteOS/components/security/mbedtls/mbedtls-2.6.0/library\aes.c ****             {
 298              		.loc 1 531 0
 299 00ba 0024     		movs	r4, #0
ARM GAS  c:\Users\lenovo\AppData\Local\Temp\ccpYsKo5.s 			page 17


 300 00bc F8E7     		b	.L22
 301              	.LVL25:
 302              	.L24:
 549:C:/Users/lenovo/Desktop/liteos/Project2/BearPi_LiteOS/components/security/mbedtls/mbedtls-2.6.0/library\aes.c ****                 ( (uint32_t) FSb[ ( RK[5] >>  8 ) & 0xFF ]       ) ^
 303              		.loc 1 549 0 discriminator 3
 304 00be 1A68     		ldr	r2, [r3]
 305 00c0 3949     		ldr	r1, .L38
 306 00c2 51F82010 		ldr	r1, [r1, r0, lsl #2]
 307 00c6 4A40     		eors	r2, r2, r1
 550:C:/Users/lenovo/Desktop/liteos/Project2/BearPi_LiteOS/components/security/mbedtls/mbedtls-2.6.0/library\aes.c ****                 ( (uint32_t) FSb[ ( RK[5] >> 16 ) & 0xFF ] <<  8 ) ^
 308              		.loc 1 550 0 discriminator 3
 309 00c8 5969     		ldr	r1, [r3, #20]
 310 00ca C1F30725 		ubfx	r5, r1, #8, #8
 311 00ce 374C     		ldr	r4, .L38+4
 312 00d0 655D     		ldrb	r5, [r4, r5]	@ zero_extendqisi2
 549:C:/Users/lenovo/Desktop/liteos/Project2/BearPi_LiteOS/components/security/mbedtls/mbedtls-2.6.0/library\aes.c ****                 ( (uint32_t) FSb[ ( RK[5] >>  8 ) & 0xFF ]       ) ^
 313              		.loc 1 549 0 discriminator 3
 314 00d2 6A40     		eors	r2, r2, r5
 551:C:/Users/lenovo/Desktop/liteos/Project2/BearPi_LiteOS/components/security/mbedtls/mbedtls-2.6.0/library\aes.c ****                 ( (uint32_t) FSb[ ( RK[5] >> 24 ) & 0xFF ] << 16 ) ^
 315              		.loc 1 551 0 discriminator 3
 316 00d4 C1F30745 		ubfx	r5, r1, #16, #8
 317 00d8 655D     		ldrb	r5, [r4, r5]	@ zero_extendqisi2
 550:C:/Users/lenovo/Desktop/liteos/Project2/BearPi_LiteOS/components/security/mbedtls/mbedtls-2.6.0/library\aes.c ****                 ( (uint32_t) FSb[ ( RK[5] >> 16 ) & 0xFF ] <<  8 ) ^
 318              		.loc 1 550 0 discriminator 3
 319 00da 82EA0522 		eor	r2, r2, r5, lsl #8
 552:C:/Users/lenovo/Desktop/liteos/Project2/BearPi_LiteOS/components/security/mbedtls/mbedtls-2.6.0/library\aes.c ****                 ( (uint32_t) FSb[ ( RK[5]       ) & 0xFF ] << 24 );
 320              		.loc 1 552 0 discriminator 3
 321 00de 0D0E     		lsrs	r5, r1, #24
 322 00e0 655D     		ldrb	r5, [r4, r5]	@ zero_extendqisi2
 551:C:/Users/lenovo/Desktop/liteos/Project2/BearPi_LiteOS/components/security/mbedtls/mbedtls-2.6.0/library\aes.c ****                 ( (uint32_t) FSb[ ( RK[5] >> 24 ) & 0xFF ] << 16 ) ^
 323              		.loc 1 551 0 discriminator 3
 324 00e2 82EA0542 		eor	r2, r2, r5, lsl #16
 553:C:/Users/lenovo/Desktop/liteos/Project2/BearPi_LiteOS/components/security/mbedtls/mbedtls-2.6.0/library\aes.c **** 
 325              		.loc 1 553 0 discriminator 3
 326 00e6 CDB2     		uxtb	r5, r1
 327 00e8 645D     		ldrb	r4, [r4, r5]	@ zero_extendqisi2
 552:C:/Users/lenovo/Desktop/liteos/Project2/BearPi_LiteOS/components/security/mbedtls/mbedtls-2.6.0/library\aes.c ****                 ( (uint32_t) FSb[ ( RK[5]       ) & 0xFF ] << 24 );
 328              		.loc 1 552 0 discriminator 3
 329 00ea 82EA0462 		eor	r2, r2, r4, lsl #24
 549:C:/Users/lenovo/Desktop/liteos/Project2/BearPi_LiteOS/components/security/mbedtls/mbedtls-2.6.0/library\aes.c ****                 ( (uint32_t) FSb[ ( RK[5] >>  8 ) & 0xFF ]       ) ^
 330              		.loc 1 549 0 discriminator 3
 331 00ee 9A61     		str	r2, [r3, #24]
 555:C:/Users/lenovo/Desktop/liteos/Project2/BearPi_LiteOS/components/security/mbedtls/mbedtls-2.6.0/library\aes.c ****                 RK[8]  = RK[2] ^ RK[7];
 332              		.loc 1 555 0 discriminator 3
 333 00f0 5C68     		ldr	r4, [r3, #4]
 334 00f2 6240     		eors	r2, r2, r4
 335 00f4 DA61     		str	r2, [r3, #28]
 556:C:/Users/lenovo/Desktop/liteos/Project2/BearPi_LiteOS/components/security/mbedtls/mbedtls-2.6.0/library\aes.c ****                 RK[9]  = RK[3] ^ RK[8];
 336              		.loc 1 556 0 discriminator 3
 337 00f6 9C68     		ldr	r4, [r3, #8]
 338 00f8 6240     		eors	r2, r2, r4
 339 00fa 1A62     		str	r2, [r3, #32]
 557:C:/Users/lenovo/Desktop/liteos/Project2/BearPi_LiteOS/components/security/mbedtls/mbedtls-2.6.0/library\aes.c ****                 RK[10] = RK[4] ^ RK[9];
 340              		.loc 1 557 0 discriminator 3
 341 00fc DC68     		ldr	r4, [r3, #12]
 342 00fe 6240     		eors	r2, r2, r4
 343 0100 5A62     		str	r2, [r3, #36]
ARM GAS  c:\Users\lenovo\AppData\Local\Temp\ccpYsKo5.s 			page 18


 558:C:/Users/lenovo/Desktop/liteos/Project2/BearPi_LiteOS/components/security/mbedtls/mbedtls-2.6.0/library\aes.c ****                 RK[11] = RK[5] ^ RK[10];
 344              		.loc 1 558 0 discriminator 3
 345 0102 1C69     		ldr	r4, [r3, #16]
 346 0104 6240     		eors	r2, r2, r4
 347 0106 9A62     		str	r2, [r3, #40]
 559:C:/Users/lenovo/Desktop/liteos/Project2/BearPi_LiteOS/components/security/mbedtls/mbedtls-2.6.0/library\aes.c ****             }
 348              		.loc 1 559 0 discriminator 3
 349 0108 4A40     		eors	r2, r2, r1
 350 010a DA62     		str	r2, [r3, #44]
 547:C:/Users/lenovo/Desktop/liteos/Project2/BearPi_LiteOS/components/security/mbedtls/mbedtls-2.6.0/library\aes.c ****             {
 351              		.loc 1 547 0 discriminator 3
 352 010c 0130     		adds	r0, r0, #1
 353              	.LVL26:
 354 010e 1833     		adds	r3, r3, #24
 355              	.LVL27:
 356              	.L20:
 547:C:/Users/lenovo/Desktop/liteos/Project2/BearPi_LiteOS/components/security/mbedtls/mbedtls-2.6.0/library\aes.c ****             {
 357              		.loc 1 547 0 is_stmt 0 discriminator 1
 358 0110 0728     		cmp	r0, #7
 359 0112 D4D9     		bls	.L24
 590:C:/Users/lenovo/Desktop/liteos/Project2/BearPi_LiteOS/components/security/mbedtls/mbedtls-2.6.0/library\aes.c **** }
 360              		.loc 1 590 0 is_stmt 1
 361 0114 0020     		movs	r0, #0
 362              	.LVL28:
 363 0116 CEE7     		b	.L12
 364              	.LVL29:
 365              	.L29:
 547:C:/Users/lenovo/Desktop/liteos/Project2/BearPi_LiteOS/components/security/mbedtls/mbedtls-2.6.0/library\aes.c ****             {
 366              		.loc 1 547 0
 367 0118 0020     		movs	r0, #0
 368              	.LVL30:
 369 011a F9E7     		b	.L20
 370              	.LVL31:
 371              	.L25:
 567:C:/Users/lenovo/Desktop/liteos/Project2/BearPi_LiteOS/components/security/mbedtls/mbedtls-2.6.0/library\aes.c ****                 ( (uint32_t) FSb[ ( RK[7] >>  8 ) & 0xFF ]       ) ^
 372              		.loc 1 567 0 discriminator 3
 373 011c 1A68     		ldr	r2, [r3]
 374 011e 2248     		ldr	r0, .L38
 375 0120 50F82100 		ldr	r0, [r0, r1, lsl #2]
 376 0124 4240     		eors	r2, r2, r0
 568:C:/Users/lenovo/Desktop/liteos/Project2/BearPi_LiteOS/components/security/mbedtls/mbedtls-2.6.0/library\aes.c ****                 ( (uint32_t) FSb[ ( RK[7] >> 16 ) & 0xFF ] <<  8 ) ^
 377              		.loc 1 568 0 discriminator 3
 378 0126 D869     		ldr	r0, [r3, #28]
 379 0128 C0F30724 		ubfx	r4, r0, #8, #8
 380 012c 1F4D     		ldr	r5, .L38+4
 381 012e 2C5D     		ldrb	r4, [r5, r4]	@ zero_extendqisi2
 567:C:/Users/lenovo/Desktop/liteos/Project2/BearPi_LiteOS/components/security/mbedtls/mbedtls-2.6.0/library\aes.c ****                 ( (uint32_t) FSb[ ( RK[7] >>  8 ) & 0xFF ]       ) ^
 382              		.loc 1 567 0 discriminator 3
 383 0130 6240     		eors	r2, r2, r4
 569:C:/Users/lenovo/Desktop/liteos/Project2/BearPi_LiteOS/components/security/mbedtls/mbedtls-2.6.0/library\aes.c ****                 ( (uint32_t) FSb[ ( RK[7] >> 24 ) & 0xFF ] << 16 ) ^
 384              		.loc 1 569 0 discriminator 3
 385 0132 C0F30744 		ubfx	r4, r0, #16, #8
 386 0136 2C5D     		ldrb	r4, [r5, r4]	@ zero_extendqisi2
 568:C:/Users/lenovo/Desktop/liteos/Project2/BearPi_LiteOS/components/security/mbedtls/mbedtls-2.6.0/library\aes.c ****                 ( (uint32_t) FSb[ ( RK[7] >> 16 ) & 0xFF ] <<  8 ) ^
 387              		.loc 1 568 0 discriminator 3
 388 0138 82EA0422 		eor	r2, r2, r4, lsl #8
 570:C:/Users/lenovo/Desktop/liteos/Project2/BearPi_LiteOS/components/security/mbedtls/mbedtls-2.6.0/library\aes.c ****                 ( (uint32_t) FSb[ ( RK[7]       ) & 0xFF ] << 24 );
ARM GAS  c:\Users\lenovo\AppData\Local\Temp\ccpYsKo5.s 			page 19


 389              		.loc 1 570 0 discriminator 3
 390 013c 040E     		lsrs	r4, r0, #24
 391 013e 2C5D     		ldrb	r4, [r5, r4]	@ zero_extendqisi2
 569:C:/Users/lenovo/Desktop/liteos/Project2/BearPi_LiteOS/components/security/mbedtls/mbedtls-2.6.0/library\aes.c ****                 ( (uint32_t) FSb[ ( RK[7] >> 24 ) & 0xFF ] << 16 ) ^
 392              		.loc 1 569 0 discriminator 3
 393 0140 82EA0442 		eor	r2, r2, r4, lsl #16
 571:C:/Users/lenovo/Desktop/liteos/Project2/BearPi_LiteOS/components/security/mbedtls/mbedtls-2.6.0/library\aes.c **** 
 394              		.loc 1 571 0 discriminator 3
 395 0144 C4B2     		uxtb	r4, r0
 396 0146 2C5D     		ldrb	r4, [r5, r4]	@ zero_extendqisi2
 570:C:/Users/lenovo/Desktop/liteos/Project2/BearPi_LiteOS/components/security/mbedtls/mbedtls-2.6.0/library\aes.c ****                 ( (uint32_t) FSb[ ( RK[7]       ) & 0xFF ] << 24 );
 397              		.loc 1 570 0 discriminator 3
 398 0148 82EA0462 		eor	r2, r2, r4, lsl #24
 567:C:/Users/lenovo/Desktop/liteos/Project2/BearPi_LiteOS/components/security/mbedtls/mbedtls-2.6.0/library\aes.c ****                 ( (uint32_t) FSb[ ( RK[7] >>  8 ) & 0xFF ]       ) ^
 399              		.loc 1 567 0 discriminator 3
 400 014c 1A62     		str	r2, [r3, #32]
 573:C:/Users/lenovo/Desktop/liteos/Project2/BearPi_LiteOS/components/security/mbedtls/mbedtls-2.6.0/library\aes.c ****                 RK[10] = RK[2] ^ RK[9];
 401              		.loc 1 573 0 discriminator 3
 402 014e 5C68     		ldr	r4, [r3, #4]
 403 0150 6240     		eors	r2, r2, r4
 404 0152 5A62     		str	r2, [r3, #36]
 574:C:/Users/lenovo/Desktop/liteos/Project2/BearPi_LiteOS/components/security/mbedtls/mbedtls-2.6.0/library\aes.c ****                 RK[11] = RK[3] ^ RK[10];
 405              		.loc 1 574 0 discriminator 3
 406 0154 9C68     		ldr	r4, [r3, #8]
 407 0156 6240     		eors	r2, r2, r4
 408 0158 9A62     		str	r2, [r3, #40]
 575:C:/Users/lenovo/Desktop/liteos/Project2/BearPi_LiteOS/components/security/mbedtls/mbedtls-2.6.0/library\aes.c **** 
 409              		.loc 1 575 0 discriminator 3
 410 015a DC68     		ldr	r4, [r3, #12]
 411 015c 6240     		eors	r2, r2, r4
 412 015e DA62     		str	r2, [r3, #44]
 577:C:/Users/lenovo/Desktop/liteos/Project2/BearPi_LiteOS/components/security/mbedtls/mbedtls-2.6.0/library\aes.c ****                 ( (uint32_t) FSb[ ( RK[11]       ) & 0xFF ]       ) ^
 413              		.loc 1 577 0 discriminator 3
 414 0160 1C69     		ldr	r4, [r3, #16]
 578:C:/Users/lenovo/Desktop/liteos/Project2/BearPi_LiteOS/components/security/mbedtls/mbedtls-2.6.0/library\aes.c ****                 ( (uint32_t) FSb[ ( RK[11] >>  8 ) & 0xFF ] <<  8 ) ^
 415              		.loc 1 578 0 discriminator 3
 416 0162 D6B2     		uxtb	r6, r2
 417 0164 AE5D     		ldrb	r6, [r5, r6]	@ zero_extendqisi2
 577:C:/Users/lenovo/Desktop/liteos/Project2/BearPi_LiteOS/components/security/mbedtls/mbedtls-2.6.0/library\aes.c ****                 ( (uint32_t) FSb[ ( RK[11]       ) & 0xFF ]       ) ^
 418              		.loc 1 577 0 discriminator 3
 419 0166 7440     		eors	r4, r4, r6
 579:C:/Users/lenovo/Desktop/liteos/Project2/BearPi_LiteOS/components/security/mbedtls/mbedtls-2.6.0/library\aes.c ****                 ( (uint32_t) FSb[ ( RK[11] >> 16 ) & 0xFF ] << 16 ) ^
 420              		.loc 1 579 0 discriminator 3
 421 0168 C2F30726 		ubfx	r6, r2, #8, #8
 422 016c AE5D     		ldrb	r6, [r5, r6]	@ zero_extendqisi2
 578:C:/Users/lenovo/Desktop/liteos/Project2/BearPi_LiteOS/components/security/mbedtls/mbedtls-2.6.0/library\aes.c ****                 ( (uint32_t) FSb[ ( RK[11] >>  8 ) & 0xFF ] <<  8 ) ^
 423              		.loc 1 578 0 discriminator 3
 424 016e 84EA0624 		eor	r4, r4, r6, lsl #8
 580:C:/Users/lenovo/Desktop/liteos/Project2/BearPi_LiteOS/components/security/mbedtls/mbedtls-2.6.0/library\aes.c ****                 ( (uint32_t) FSb[ ( RK[11] >> 24 ) & 0xFF ] << 24 );
 425              		.loc 1 580 0 discriminator 3
 426 0172 C2F30746 		ubfx	r6, r2, #16, #8
 427 0176 AE5D     		ldrb	r6, [r5, r6]	@ zero_extendqisi2
 579:C:/Users/lenovo/Desktop/liteos/Project2/BearPi_LiteOS/components/security/mbedtls/mbedtls-2.6.0/library\aes.c ****                 ( (uint32_t) FSb[ ( RK[11] >> 16 ) & 0xFF ] << 16 ) ^
 428              		.loc 1 579 0 discriminator 3
 429 0178 84EA0644 		eor	r4, r4, r6, lsl #16
 581:C:/Users/lenovo/Desktop/liteos/Project2/BearPi_LiteOS/components/security/mbedtls/mbedtls-2.6.0/library\aes.c **** 
 430              		.loc 1 581 0 discriminator 3
ARM GAS  c:\Users\lenovo\AppData\Local\Temp\ccpYsKo5.s 			page 20


 431 017c 120E     		lsrs	r2, r2, #24
 432 017e AA5C     		ldrb	r2, [r5, r2]	@ zero_extendqisi2
 580:C:/Users/lenovo/Desktop/liteos/Project2/BearPi_LiteOS/components/security/mbedtls/mbedtls-2.6.0/library\aes.c ****                 ( (uint32_t) FSb[ ( RK[11] >> 24 ) & 0xFF ] << 24 );
 433              		.loc 1 580 0 discriminator 3
 434 0180 84EA0262 		eor	r2, r4, r2, lsl #24
 577:C:/Users/lenovo/Desktop/liteos/Project2/BearPi_LiteOS/components/security/mbedtls/mbedtls-2.6.0/library\aes.c ****                 ( (uint32_t) FSb[ ( RK[11]       ) & 0xFF ]       ) ^
 435              		.loc 1 577 0 discriminator 3
 436 0184 1A63     		str	r2, [r3, #48]
 583:C:/Users/lenovo/Desktop/liteos/Project2/BearPi_LiteOS/components/security/mbedtls/mbedtls-2.6.0/library\aes.c ****                 RK[14] = RK[6] ^ RK[13];
 437              		.loc 1 583 0 discriminator 3
 438 0186 5C69     		ldr	r4, [r3, #20]
 439 0188 6240     		eors	r2, r2, r4
 440 018a 5A63     		str	r2, [r3, #52]
 584:C:/Users/lenovo/Desktop/liteos/Project2/BearPi_LiteOS/components/security/mbedtls/mbedtls-2.6.0/library\aes.c ****                 RK[15] = RK[7] ^ RK[14];
 441              		.loc 1 584 0 discriminator 3
 442 018c 9C69     		ldr	r4, [r3, #24]
 443 018e 6240     		eors	r2, r2, r4
 444 0190 9A63     		str	r2, [r3, #56]
 585:C:/Users/lenovo/Desktop/liteos/Project2/BearPi_LiteOS/components/security/mbedtls/mbedtls-2.6.0/library\aes.c ****             }
 445              		.loc 1 585 0 discriminator 3
 446 0192 4240     		eors	r2, r2, r0
 447 0194 DA63     		str	r2, [r3, #60]
 565:C:/Users/lenovo/Desktop/liteos/Project2/BearPi_LiteOS/components/security/mbedtls/mbedtls-2.6.0/library\aes.c ****             {
 448              		.loc 1 565 0 discriminator 3
 449 0196 0131     		adds	r1, r1, #1
 450              	.LVL32:
 451 0198 2033     		adds	r3, r3, #32
 452              	.LVL33:
 453              	.L21:
 565:C:/Users/lenovo/Desktop/liteos/Project2/BearPi_LiteOS/components/security/mbedtls/mbedtls-2.6.0/library\aes.c ****             {
 454              		.loc 1 565 0 is_stmt 0 discriminator 1
 455 019a 0629     		cmp	r1, #6
 456 019c BED9     		bls	.L25
 590:C:/Users/lenovo/Desktop/liteos/Project2/BearPi_LiteOS/components/security/mbedtls/mbedtls-2.6.0/library\aes.c **** }
 457              		.loc 1 590 0 is_stmt 1
 458 019e 0020     		movs	r0, #0
 459 01a0 89E7     		b	.L12
 460              	.LVL34:
 461              	.L30:
 565:C:/Users/lenovo/Desktop/liteos/Project2/BearPi_LiteOS/components/security/mbedtls/mbedtls-2.6.0/library\aes.c ****             {
 462              		.loc 1 565 0
 463 01a2 0021     		movs	r1, #0
 464              	.LVL35:
 465 01a4 F9E7     		b	.L21
 466              	.L39:
 467 01a6 00BF     		.align	2
 468              	.L38:
 469 01a8 00000000 		.word	.LANCHOR0
 470 01ac 00000000 		.word	.LANCHOR1
 471              		.cfi_endproc
 472              	.LFE3:
 474              		.section	.text.mbedtls_aes_setkey_dec,"ax",%progbits
 475              		.align	1
 476              		.global	mbedtls_aes_setkey_dec
 477              		.syntax unified
 478              		.thumb
 479              		.thumb_func
ARM GAS  c:\Users\lenovo\AppData\Local\Temp\ccpYsKo5.s 			page 21


 480              		.fpu fpv4-sp-d16
 482              	mbedtls_aes_setkey_dec:
 483              	.LFB4:
 592:C:/Users/lenovo/Desktop/liteos/Project2/BearPi_LiteOS/components/security/mbedtls/mbedtls-2.6.0/library\aes.c **** #endif /* !MBEDTLS_AES_SETKEY_ENC_ALT */
 593:C:/Users/lenovo/Desktop/liteos/Project2/BearPi_LiteOS/components/security/mbedtls/mbedtls-2.6.0/library\aes.c **** 
 594:C:/Users/lenovo/Desktop/liteos/Project2/BearPi_LiteOS/components/security/mbedtls/mbedtls-2.6.0/library\aes.c **** /*
 595:C:/Users/lenovo/Desktop/liteos/Project2/BearPi_LiteOS/components/security/mbedtls/mbedtls-2.6.0/library\aes.c ****  * AES key schedule (decryption)
 596:C:/Users/lenovo/Desktop/liteos/Project2/BearPi_LiteOS/components/security/mbedtls/mbedtls-2.6.0/library\aes.c ****  */
 597:C:/Users/lenovo/Desktop/liteos/Project2/BearPi_LiteOS/components/security/mbedtls/mbedtls-2.6.0/library\aes.c **** #if !defined(MBEDTLS_AES_SETKEY_DEC_ALT)
 598:C:/Users/lenovo/Desktop/liteos/Project2/BearPi_LiteOS/components/security/mbedtls/mbedtls-2.6.0/library\aes.c **** int mbedtls_aes_setkey_dec( mbedtls_aes_context *ctx, const unsigned char *key,
 599:C:/Users/lenovo/Desktop/liteos/Project2/BearPi_LiteOS/components/security/mbedtls/mbedtls-2.6.0/library\aes.c ****                     unsigned int keybits )
 600:C:/Users/lenovo/Desktop/liteos/Project2/BearPi_LiteOS/components/security/mbedtls/mbedtls-2.6.0/library\aes.c **** {
 484              		.loc 1 600 0
 485              		.cfi_startproc
 486              		@ args = 0, pretend = 0, frame = 280
 487              		@ frame_needed = 0, uses_anonymous_args = 0
 488              	.LVL36:
 489 0000 2DE9F043 		push	{r4, r5, r6, r7, r8, r9, lr}
 490              	.LCFI8:
 491              		.cfi_def_cfa_offset 28
 492              		.cfi_offset 4, -28
 493              		.cfi_offset 5, -24
 494              		.cfi_offset 6, -20
 495              		.cfi_offset 7, -16
 496              		.cfi_offset 8, -12
 497              		.cfi_offset 9, -8
 498              		.cfi_offset 14, -4
 499 0004 C7B0     		sub	sp, sp, #284
 500              	.LCFI9:
 501              		.cfi_def_cfa_offset 312
 502 0006 8046     		mov	r8, r0
 503 0008 0C46     		mov	r4, r1
 504 000a 1546     		mov	r5, r2
 601:C:/Users/lenovo/Desktop/liteos/Project2/BearPi_LiteOS/components/security/mbedtls/mbedtls-2.6.0/library\aes.c ****     int i, j, ret;
 602:C:/Users/lenovo/Desktop/liteos/Project2/BearPi_LiteOS/components/security/mbedtls/mbedtls-2.6.0/library\aes.c ****     mbedtls_aes_context cty;
 603:C:/Users/lenovo/Desktop/liteos/Project2/BearPi_LiteOS/components/security/mbedtls/mbedtls-2.6.0/library\aes.c ****     uint32_t *RK;
 604:C:/Users/lenovo/Desktop/liteos/Project2/BearPi_LiteOS/components/security/mbedtls/mbedtls-2.6.0/library\aes.c ****     uint32_t *SK;
 605:C:/Users/lenovo/Desktop/liteos/Project2/BearPi_LiteOS/components/security/mbedtls/mbedtls-2.6.0/library\aes.c **** 
 606:C:/Users/lenovo/Desktop/liteos/Project2/BearPi_LiteOS/components/security/mbedtls/mbedtls-2.6.0/library\aes.c ****     mbedtls_aes_init( &cty );
 505              		.loc 1 606 0
 506 000c 6846     		mov	r0, sp
 507              	.LVL37:
 508 000e FFF7FEFF 		bl	mbedtls_aes_init
 509              	.LVL38:
 607:C:/Users/lenovo/Desktop/liteos/Project2/BearPi_LiteOS/components/security/mbedtls/mbedtls-2.6.0/library\aes.c **** 
 608:C:/Users/lenovo/Desktop/liteos/Project2/BearPi_LiteOS/components/security/mbedtls/mbedtls-2.6.0/library\aes.c **** #if defined(MBEDTLS_PADLOCK_C) && defined(MBEDTLS_PADLOCK_ALIGN16)
 609:C:/Users/lenovo/Desktop/liteos/Project2/BearPi_LiteOS/components/security/mbedtls/mbedtls-2.6.0/library\aes.c ****     if( aes_padlock_ace == -1 )
 610:C:/Users/lenovo/Desktop/liteos/Project2/BearPi_LiteOS/components/security/mbedtls/mbedtls-2.6.0/library\aes.c ****         aes_padlock_ace = mbedtls_padlock_has_support( MBEDTLS_PADLOCK_ACE );
 611:C:/Users/lenovo/Desktop/liteos/Project2/BearPi_LiteOS/components/security/mbedtls/mbedtls-2.6.0/library\aes.c **** 
 612:C:/Users/lenovo/Desktop/liteos/Project2/BearPi_LiteOS/components/security/mbedtls/mbedtls-2.6.0/library\aes.c ****     if( aes_padlock_ace )
 613:C:/Users/lenovo/Desktop/liteos/Project2/BearPi_LiteOS/components/security/mbedtls/mbedtls-2.6.0/library\aes.c ****         ctx->rk = RK = MBEDTLS_PADLOCK_ALIGN16( ctx->buf );
 614:C:/Users/lenovo/Desktop/liteos/Project2/BearPi_LiteOS/components/security/mbedtls/mbedtls-2.6.0/library\aes.c ****     else
 615:C:/Users/lenovo/Desktop/liteos/Project2/BearPi_LiteOS/components/security/mbedtls/mbedtls-2.6.0/library\aes.c **** #endif
 616:C:/Users/lenovo/Desktop/liteos/Project2/BearPi_LiteOS/components/security/mbedtls/mbedtls-2.6.0/library\aes.c ****     ctx->rk = RK = ctx->buf;
 510              		.loc 1 616 0
 511 0012 08F10803 		add	r3, r8, #8
 512              	.LVL39:
ARM GAS  c:\Users\lenovo\AppData\Local\Temp\ccpYsKo5.s 			page 22


 513 0016 C8F80430 		str	r3, [r8, #4]
 617:C:/Users/lenovo/Desktop/liteos/Project2/BearPi_LiteOS/components/security/mbedtls/mbedtls-2.6.0/library\aes.c **** 
 618:C:/Users/lenovo/Desktop/liteos/Project2/BearPi_LiteOS/components/security/mbedtls/mbedtls-2.6.0/library\aes.c ****     /* Also checks keybits */
 619:C:/Users/lenovo/Desktop/liteos/Project2/BearPi_LiteOS/components/security/mbedtls/mbedtls-2.6.0/library\aes.c ****     if( ( ret = mbedtls_aes_setkey_enc( &cty, key, keybits ) ) != 0 )
 514              		.loc 1 619 0
 515 001a 2A46     		mov	r2, r5
 516 001c 2146     		mov	r1, r4
 517 001e 6846     		mov	r0, sp
 518 0020 FFF7FEFF 		bl	mbedtls_aes_setkey_enc
 519              	.LVL40:
 520 0024 8146     		mov	r9, r0
 521 0026 0028     		cmp	r0, #0
 522 0028 48D1     		bne	.L41
 620:C:/Users/lenovo/Desktop/liteos/Project2/BearPi_LiteOS/components/security/mbedtls/mbedtls-2.6.0/library\aes.c ****         goto exit;
 621:C:/Users/lenovo/Desktop/liteos/Project2/BearPi_LiteOS/components/security/mbedtls/mbedtls-2.6.0/library\aes.c **** 
 622:C:/Users/lenovo/Desktop/liteos/Project2/BearPi_LiteOS/components/security/mbedtls/mbedtls-2.6.0/library\aes.c ****     ctx->nr = cty.nr;
 523              		.loc 1 622 0
 524 002a 009F     		ldr	r7, [sp]
 525 002c C8F80070 		str	r7, [r8]
 623:C:/Users/lenovo/Desktop/liteos/Project2/BearPi_LiteOS/components/security/mbedtls/mbedtls-2.6.0/library\aes.c **** 
 624:C:/Users/lenovo/Desktop/liteos/Project2/BearPi_LiteOS/components/security/mbedtls/mbedtls-2.6.0/library\aes.c **** #if defined(MBEDTLS_AESNI_C) && defined(MBEDTLS_HAVE_X86_64)
 625:C:/Users/lenovo/Desktop/liteos/Project2/BearPi_LiteOS/components/security/mbedtls/mbedtls-2.6.0/library\aes.c ****     if( mbedtls_aesni_has_support( MBEDTLS_AESNI_AES ) )
 626:C:/Users/lenovo/Desktop/liteos/Project2/BearPi_LiteOS/components/security/mbedtls/mbedtls-2.6.0/library\aes.c ****     {
 627:C:/Users/lenovo/Desktop/liteos/Project2/BearPi_LiteOS/components/security/mbedtls/mbedtls-2.6.0/library\aes.c ****         mbedtls_aesni_inverse_key( (unsigned char *) ctx->rk,
 628:C:/Users/lenovo/Desktop/liteos/Project2/BearPi_LiteOS/components/security/mbedtls/mbedtls-2.6.0/library\aes.c ****                            (const unsigned char *) cty.rk, ctx->nr );
 629:C:/Users/lenovo/Desktop/liteos/Project2/BearPi_LiteOS/components/security/mbedtls/mbedtls-2.6.0/library\aes.c ****         goto exit;
 630:C:/Users/lenovo/Desktop/liteos/Project2/BearPi_LiteOS/components/security/mbedtls/mbedtls-2.6.0/library\aes.c ****     }
 631:C:/Users/lenovo/Desktop/liteos/Project2/BearPi_LiteOS/components/security/mbedtls/mbedtls-2.6.0/library\aes.c **** #endif
 632:C:/Users/lenovo/Desktop/liteos/Project2/BearPi_LiteOS/components/security/mbedtls/mbedtls-2.6.0/library\aes.c **** 
 633:C:/Users/lenovo/Desktop/liteos/Project2/BearPi_LiteOS/components/security/mbedtls/mbedtls-2.6.0/library\aes.c ****     SK = cty.rk + cty.nr * 4;
 526              		.loc 1 633 0
 527 0030 019A     		ldr	r2, [sp, #4]
 528 0032 3B01     		lsls	r3, r7, #4
 529 0034 D618     		adds	r6, r2, r3
 530              	.LVL41:
 634:C:/Users/lenovo/Desktop/liteos/Project2/BearPi_LiteOS/components/security/mbedtls/mbedtls-2.6.0/library\aes.c **** 
 635:C:/Users/lenovo/Desktop/liteos/Project2/BearPi_LiteOS/components/security/mbedtls/mbedtls-2.6.0/library\aes.c ****     *RK++ = *SK++;
 531              		.loc 1 635 0
 532 0036 D358     		ldr	r3, [r2, r3]
 533 0038 C8F80830 		str	r3, [r8, #8]
 534              	.LVL42:
 636:C:/Users/lenovo/Desktop/liteos/Project2/BearPi_LiteOS/components/security/mbedtls/mbedtls-2.6.0/library\aes.c ****     *RK++ = *SK++;
 535              		.loc 1 636 0
 536 003c 7368     		ldr	r3, [r6, #4]
 537 003e C8F80C30 		str	r3, [r8, #12]
 538              	.LVL43:
 637:C:/Users/lenovo/Desktop/liteos/Project2/BearPi_LiteOS/components/security/mbedtls/mbedtls-2.6.0/library\aes.c ****     *RK++ = *SK++;
 539              		.loc 1 637 0
 540 0042 B368     		ldr	r3, [r6, #8]
 541 0044 C8F81030 		str	r3, [r8, #16]
 542              	.LVL44:
 638:C:/Users/lenovo/Desktop/liteos/Project2/BearPi_LiteOS/components/security/mbedtls/mbedtls-2.6.0/library\aes.c ****     *RK++ = *SK++;
 543              		.loc 1 638 0
 544 0048 08F11805 		add	r5, r8, #24
 545              	.LVL45:
 546 004c F368     		ldr	r3, [r6, #12]
 547 004e C8F81430 		str	r3, [r8, #20]
ARM GAS  c:\Users\lenovo\AppData\Local\Temp\ccpYsKo5.s 			page 23


 639:C:/Users/lenovo/Desktop/liteos/Project2/BearPi_LiteOS/components/security/mbedtls/mbedtls-2.6.0/library\aes.c **** 
 640:C:/Users/lenovo/Desktop/liteos/Project2/BearPi_LiteOS/components/security/mbedtls/mbedtls-2.6.0/library\aes.c ****     for( i = ctx->nr - 1, SK -= 8; i > 0; i--, SK -= 8 )
 548              		.loc 1 640 0
 549 0052 013F     		subs	r7, r7, #1
 550              	.LVL46:
 551 0054 103E     		subs	r6, r6, #16
 552              	.LVL47:
 553 0056 25E0     		b	.L42
 554              	.LVL48:
 555              	.L43:
 641:C:/Users/lenovo/Desktop/liteos/Project2/BearPi_LiteOS/components/security/mbedtls/mbedtls-2.6.0/library\aes.c ****     {
 642:C:/Users/lenovo/Desktop/liteos/Project2/BearPi_LiteOS/components/security/mbedtls/mbedtls-2.6.0/library\aes.c ****         for( j = 0; j < 4; j++, SK++ )
 643:C:/Users/lenovo/Desktop/liteos/Project2/BearPi_LiteOS/components/security/mbedtls/mbedtls-2.6.0/library\aes.c ****         {
 644:C:/Users/lenovo/Desktop/liteos/Project2/BearPi_LiteOS/components/security/mbedtls/mbedtls-2.6.0/library\aes.c ****             *RK++ = RT0[ FSb[ ( *SK       ) & 0xFF ] ] ^
 556              		.loc 1 644 0 discriminator 3
 557 0058 56F8042B 		ldr	r2, [r6], #4
 558              	.LVL49:
 559 005c D3B2     		uxtb	r3, r2
 560 005e 1B49     		ldr	r1, .L48
 561 0060 11F803C0 		ldrb	ip, [r1, r3]	@ zero_extendqisi2
 562 0064 1A4B     		ldr	r3, .L48+4
 563 0066 53F82C30 		ldr	r3, [r3, ip, lsl #2]
 645:C:/Users/lenovo/Desktop/liteos/Project2/BearPi_LiteOS/components/security/mbedtls/mbedtls-2.6.0/library\aes.c ****                     RT1[ FSb[ ( *SK >>  8 ) & 0xFF ] ] ^
 564              		.loc 1 645 0 discriminator 3
 565 006a C2F3072C 		ubfx	ip, r2, #8, #8
 566 006e 11F80CE0 		ldrb	lr, [r1, ip]	@ zero_extendqisi2
 567 0072 184C     		ldr	r4, .L48+8
 568 0074 54F82E40 		ldr	r4, [r4, lr, lsl #2]
 644:C:/Users/lenovo/Desktop/liteos/Project2/BearPi_LiteOS/components/security/mbedtls/mbedtls-2.6.0/library\aes.c ****                     RT1[ FSb[ ( *SK >>  8 ) & 0xFF ] ] ^
 569              		.loc 1 644 0 discriminator 3
 570 0078 6340     		eors	r3, r3, r4
 646:C:/Users/lenovo/Desktop/liteos/Project2/BearPi_LiteOS/components/security/mbedtls/mbedtls-2.6.0/library\aes.c ****                     RT2[ FSb[ ( *SK >> 16 ) & 0xFF ] ] ^
 571              		.loc 1 646 0 discriminator 3
 572 007a C2F3074C 		ubfx	ip, r2, #16, #8
 573 007e 11F80CE0 		ldrb	lr, [r1, ip]	@ zero_extendqisi2
 574 0082 154C     		ldr	r4, .L48+12
 575 0084 54F82E40 		ldr	r4, [r4, lr, lsl #2]
 645:C:/Users/lenovo/Desktop/liteos/Project2/BearPi_LiteOS/components/security/mbedtls/mbedtls-2.6.0/library\aes.c ****                     RT1[ FSb[ ( *SK >>  8 ) & 0xFF ] ] ^
 576              		.loc 1 645 0 discriminator 3
 577 0088 6340     		eors	r3, r3, r4
 647:C:/Users/lenovo/Desktop/liteos/Project2/BearPi_LiteOS/components/security/mbedtls/mbedtls-2.6.0/library\aes.c ****                     RT3[ FSb[ ( *SK >> 24 ) & 0xFF ] ];
 578              		.loc 1 647 0 discriminator 3
 579 008a 120E     		lsrs	r2, r2, #24
 580 008c 895C     		ldrb	r1, [r1, r2]	@ zero_extendqisi2
 581 008e 134A     		ldr	r2, .L48+16
 582 0090 52F82120 		ldr	r2, [r2, r1, lsl #2]
 583              	.LVL50:
 646:C:/Users/lenovo/Desktop/liteos/Project2/BearPi_LiteOS/components/security/mbedtls/mbedtls-2.6.0/library\aes.c ****                     RT2[ FSb[ ( *SK >> 16 ) & 0xFF ] ] ^
 584              		.loc 1 646 0 discriminator 3
 585 0094 5340     		eors	r3, r3, r2
 644:C:/Users/lenovo/Desktop/liteos/Project2/BearPi_LiteOS/components/security/mbedtls/mbedtls-2.6.0/library\aes.c ****                     RT1[ FSb[ ( *SK >>  8 ) & 0xFF ] ] ^
 586              		.loc 1 644 0 discriminator 3
 587 0096 2B60     		str	r3, [r5]
 642:C:/Users/lenovo/Desktop/liteos/Project2/BearPi_LiteOS/components/security/mbedtls/mbedtls-2.6.0/library\aes.c ****         {
 588              		.loc 1 642 0 discriminator 3
 589 0098 0130     		adds	r0, r0, #1
 590              	.LVL51:
ARM GAS  c:\Users\lenovo\AppData\Local\Temp\ccpYsKo5.s 			page 24


 644:C:/Users/lenovo/Desktop/liteos/Project2/BearPi_LiteOS/components/security/mbedtls/mbedtls-2.6.0/library\aes.c ****                     RT1[ FSb[ ( *SK >>  8 ) & 0xFF ] ] ^
 591              		.loc 1 644 0 discriminator 3
 592 009a 0435     		adds	r5, r5, #4
 593              	.LVL52:
 594              	.L44:
 642:C:/Users/lenovo/Desktop/liteos/Project2/BearPi_LiteOS/components/security/mbedtls/mbedtls-2.6.0/library\aes.c ****         {
 595              		.loc 1 642 0 discriminator 1
 596 009c 0328     		cmp	r0, #3
 597 009e DBDD     		ble	.L43
 640:C:/Users/lenovo/Desktop/liteos/Project2/BearPi_LiteOS/components/security/mbedtls/mbedtls-2.6.0/library\aes.c ****     {
 598              		.loc 1 640 0 discriminator 2
 599 00a0 013F     		subs	r7, r7, #1
 600              	.LVL53:
 601 00a2 203E     		subs	r6, r6, #32
 602              	.LVL54:
 603              	.L42:
 640:C:/Users/lenovo/Desktop/liteos/Project2/BearPi_LiteOS/components/security/mbedtls/mbedtls-2.6.0/library\aes.c ****     {
 604              		.loc 1 640 0 is_stmt 0 discriminator 1
 605 00a4 002F     		cmp	r7, #0
 606 00a6 01DD     		ble	.L47
 642:C:/Users/lenovo/Desktop/liteos/Project2/BearPi_LiteOS/components/security/mbedtls/mbedtls-2.6.0/library\aes.c ****         {
 607              		.loc 1 642 0 is_stmt 1
 608 00a8 4846     		mov	r0, r9
 609 00aa F7E7     		b	.L44
 610              	.L47:
 611              	.LVL55:
 648:C:/Users/lenovo/Desktop/liteos/Project2/BearPi_LiteOS/components/security/mbedtls/mbedtls-2.6.0/library\aes.c ****         }
 649:C:/Users/lenovo/Desktop/liteos/Project2/BearPi_LiteOS/components/security/mbedtls/mbedtls-2.6.0/library\aes.c ****     }
 650:C:/Users/lenovo/Desktop/liteos/Project2/BearPi_LiteOS/components/security/mbedtls/mbedtls-2.6.0/library\aes.c **** 
 651:C:/Users/lenovo/Desktop/liteos/Project2/BearPi_LiteOS/components/security/mbedtls/mbedtls-2.6.0/library\aes.c ****     *RK++ = *SK++;
 612              		.loc 1 651 0
 613 00ac 3368     		ldr	r3, [r6]
 614 00ae 2B60     		str	r3, [r5]
 615              	.LVL56:
 652:C:/Users/lenovo/Desktop/liteos/Project2/BearPi_LiteOS/components/security/mbedtls/mbedtls-2.6.0/library\aes.c ****     *RK++ = *SK++;
 616              		.loc 1 652 0
 617 00b0 7368     		ldr	r3, [r6, #4]
 618 00b2 6B60     		str	r3, [r5, #4]
 619              	.LVL57:
 653:C:/Users/lenovo/Desktop/liteos/Project2/BearPi_LiteOS/components/security/mbedtls/mbedtls-2.6.0/library\aes.c ****     *RK++ = *SK++;
 620              		.loc 1 653 0
 621 00b4 B368     		ldr	r3, [r6, #8]
 622 00b6 AB60     		str	r3, [r5, #8]
 623              	.LVL58:
 654:C:/Users/lenovo/Desktop/liteos/Project2/BearPi_LiteOS/components/security/mbedtls/mbedtls-2.6.0/library\aes.c ****     *RK++ = *SK++;
 624              		.loc 1 654 0
 625 00b8 F368     		ldr	r3, [r6, #12]
 626 00ba EB60     		str	r3, [r5, #12]
 627              	.LVL59:
 628              	.L41:
 655:C:/Users/lenovo/Desktop/liteos/Project2/BearPi_LiteOS/components/security/mbedtls/mbedtls-2.6.0/library\aes.c **** 
 656:C:/Users/lenovo/Desktop/liteos/Project2/BearPi_LiteOS/components/security/mbedtls/mbedtls-2.6.0/library\aes.c **** exit:
 657:C:/Users/lenovo/Desktop/liteos/Project2/BearPi_LiteOS/components/security/mbedtls/mbedtls-2.6.0/library\aes.c ****     mbedtls_aes_free( &cty );
 629              		.loc 1 657 0
 630 00bc 6846     		mov	r0, sp
 631 00be FFF7FEFF 		bl	mbedtls_aes_free
 632              	.LVL60:
ARM GAS  c:\Users\lenovo\AppData\Local\Temp\ccpYsKo5.s 			page 25


 658:C:/Users/lenovo/Desktop/liteos/Project2/BearPi_LiteOS/components/security/mbedtls/mbedtls-2.6.0/library\aes.c **** 
 659:C:/Users/lenovo/Desktop/liteos/Project2/BearPi_LiteOS/components/security/mbedtls/mbedtls-2.6.0/library\aes.c ****     return( ret );
 660:C:/Users/lenovo/Desktop/liteos/Project2/BearPi_LiteOS/components/security/mbedtls/mbedtls-2.6.0/library\aes.c **** }
 633              		.loc 1 660 0
 634 00c2 4846     		mov	r0, r9
 635 00c4 47B0     		add	sp, sp, #284
 636              	.LCFI10:
 637              		.cfi_def_cfa_offset 28
 638              		@ sp needed
 639 00c6 BDE8F083 		pop	{r4, r5, r6, r7, r8, r9, pc}
 640              	.LVL61:
 641              	.L49:
 642 00ca 00BF     		.align	2
 643              	.L48:
 644 00cc 00000000 		.word	.LANCHOR1
 645 00d0 00000000 		.word	.LANCHOR2
 646 00d4 00000000 		.word	.LANCHOR3
 647 00d8 00000000 		.word	.LANCHOR4
 648 00dc 00000000 		.word	.LANCHOR5
 649              		.cfi_endproc
 650              	.LFE4:
 652              		.section	.text.mbedtls_internal_aes_encrypt,"ax",%progbits
 653              		.align	1
 654              		.global	mbedtls_internal_aes_encrypt
 655              		.syntax unified
 656              		.thumb
 657              		.thumb_func
 658              		.fpu fpv4-sp-d16
 660              	mbedtls_internal_aes_encrypt:
 661              	.LFB5:
 661:C:/Users/lenovo/Desktop/liteos/Project2/BearPi_LiteOS/components/security/mbedtls/mbedtls-2.6.0/library\aes.c **** #endif /* !MBEDTLS_AES_SETKEY_DEC_ALT */
 662:C:/Users/lenovo/Desktop/liteos/Project2/BearPi_LiteOS/components/security/mbedtls/mbedtls-2.6.0/library\aes.c **** 
 663:C:/Users/lenovo/Desktop/liteos/Project2/BearPi_LiteOS/components/security/mbedtls/mbedtls-2.6.0/library\aes.c **** #define AES_FROUND(X0,X1,X2,X3,Y0,Y1,Y2,Y3)     \
 664:C:/Users/lenovo/Desktop/liteos/Project2/BearPi_LiteOS/components/security/mbedtls/mbedtls-2.6.0/library\aes.c **** {                                               \
 665:C:/Users/lenovo/Desktop/liteos/Project2/BearPi_LiteOS/components/security/mbedtls/mbedtls-2.6.0/library\aes.c ****     X0 = *RK++ ^ FT0[ ( Y0       ) & 0xFF ] ^   \
 666:C:/Users/lenovo/Desktop/liteos/Project2/BearPi_LiteOS/components/security/mbedtls/mbedtls-2.6.0/library\aes.c ****                  FT1[ ( Y1 >>  8 ) & 0xFF ] ^   \
 667:C:/Users/lenovo/Desktop/liteos/Project2/BearPi_LiteOS/components/security/mbedtls/mbedtls-2.6.0/library\aes.c ****                  FT2[ ( Y2 >> 16 ) & 0xFF ] ^   \
 668:C:/Users/lenovo/Desktop/liteos/Project2/BearPi_LiteOS/components/security/mbedtls/mbedtls-2.6.0/library\aes.c ****                  FT3[ ( Y3 >> 24 ) & 0xFF ];    \
 669:C:/Users/lenovo/Desktop/liteos/Project2/BearPi_LiteOS/components/security/mbedtls/mbedtls-2.6.0/library\aes.c ****                                                 \
 670:C:/Users/lenovo/Desktop/liteos/Project2/BearPi_LiteOS/components/security/mbedtls/mbedtls-2.6.0/library\aes.c ****     X1 = *RK++ ^ FT0[ ( Y1       ) & 0xFF ] ^   \
 671:C:/Users/lenovo/Desktop/liteos/Project2/BearPi_LiteOS/components/security/mbedtls/mbedtls-2.6.0/library\aes.c ****                  FT1[ ( Y2 >>  8 ) & 0xFF ] ^   \
 672:C:/Users/lenovo/Desktop/liteos/Project2/BearPi_LiteOS/components/security/mbedtls/mbedtls-2.6.0/library\aes.c ****                  FT2[ ( Y3 >> 16 ) & 0xFF ] ^   \
 673:C:/Users/lenovo/Desktop/liteos/Project2/BearPi_LiteOS/components/security/mbedtls/mbedtls-2.6.0/library\aes.c ****                  FT3[ ( Y0 >> 24 ) & 0xFF ];    \
 674:C:/Users/lenovo/Desktop/liteos/Project2/BearPi_LiteOS/components/security/mbedtls/mbedtls-2.6.0/library\aes.c ****                                                 \
 675:C:/Users/lenovo/Desktop/liteos/Project2/BearPi_LiteOS/components/security/mbedtls/mbedtls-2.6.0/library\aes.c ****     X2 = *RK++ ^ FT0[ ( Y2       ) & 0xFF ] ^   \
 676:C:/Users/lenovo/Desktop/liteos/Project2/BearPi_LiteOS/components/security/mbedtls/mbedtls-2.6.0/library\aes.c ****                  FT1[ ( Y3 >>  8 ) & 0xFF ] ^   \
 677:C:/Users/lenovo/Desktop/liteos/Project2/BearPi_LiteOS/components/security/mbedtls/mbedtls-2.6.0/library\aes.c ****                  FT2[ ( Y0 >> 16 ) & 0xFF ] ^   \
 678:C:/Users/lenovo/Desktop/liteos/Project2/BearPi_LiteOS/components/security/mbedtls/mbedtls-2.6.0/library\aes.c ****                  FT3[ ( Y1 >> 24 ) & 0xFF ];    \
 679:C:/Users/lenovo/Desktop/liteos/Project2/BearPi_LiteOS/components/security/mbedtls/mbedtls-2.6.0/library\aes.c ****                                                 \
 680:C:/Users/lenovo/Desktop/liteos/Project2/BearPi_LiteOS/components/security/mbedtls/mbedtls-2.6.0/library\aes.c ****     X3 = *RK++ ^ FT0[ ( Y3       ) & 0xFF ] ^   \
 681:C:/Users/lenovo/Desktop/liteos/Project2/BearPi_LiteOS/components/security/mbedtls/mbedtls-2.6.0/library\aes.c ****                  FT1[ ( Y0 >>  8 ) & 0xFF ] ^   \
 682:C:/Users/lenovo/Desktop/liteos/Project2/BearPi_LiteOS/components/security/mbedtls/mbedtls-2.6.0/library\aes.c ****                  FT2[ ( Y1 >> 16 ) & 0xFF ] ^   \
 683:C:/Users/lenovo/Desktop/liteos/Project2/BearPi_LiteOS/components/security/mbedtls/mbedtls-2.6.0/library\aes.c ****                  FT3[ ( Y2 >> 24 ) & 0xFF ];    \
 684:C:/Users/lenovo/Desktop/liteos/Project2/BearPi_LiteOS/components/security/mbedtls/mbedtls-2.6.0/library\aes.c **** }
 685:C:/Users/lenovo/Desktop/liteos/Project2/BearPi_LiteOS/components/security/mbedtls/mbedtls-2.6.0/library\aes.c **** 
 686:C:/Users/lenovo/Desktop/liteos/Project2/BearPi_LiteOS/components/security/mbedtls/mbedtls-2.6.0/library\aes.c **** #define AES_RROUND(X0,X1,X2,X3,Y0,Y1,Y2,Y3)     \
 687:C:/Users/lenovo/Desktop/liteos/Project2/BearPi_LiteOS/components/security/mbedtls/mbedtls-2.6.0/library\aes.c **** {                                               \
ARM GAS  c:\Users\lenovo\AppData\Local\Temp\ccpYsKo5.s 			page 26


 688:C:/Users/lenovo/Desktop/liteos/Project2/BearPi_LiteOS/components/security/mbedtls/mbedtls-2.6.0/library\aes.c ****     X0 = *RK++ ^ RT0[ ( Y0       ) & 0xFF ] ^   \
 689:C:/Users/lenovo/Desktop/liteos/Project2/BearPi_LiteOS/components/security/mbedtls/mbedtls-2.6.0/library\aes.c ****                  RT1[ ( Y3 >>  8 ) & 0xFF ] ^   \
 690:C:/Users/lenovo/Desktop/liteos/Project2/BearPi_LiteOS/components/security/mbedtls/mbedtls-2.6.0/library\aes.c ****                  RT2[ ( Y2 >> 16 ) & 0xFF ] ^   \
 691:C:/Users/lenovo/Desktop/liteos/Project2/BearPi_LiteOS/components/security/mbedtls/mbedtls-2.6.0/library\aes.c ****                  RT3[ ( Y1 >> 24 ) & 0xFF ];    \
 692:C:/Users/lenovo/Desktop/liteos/Project2/BearPi_LiteOS/components/security/mbedtls/mbedtls-2.6.0/library\aes.c ****                                                 \
 693:C:/Users/lenovo/Desktop/liteos/Project2/BearPi_LiteOS/components/security/mbedtls/mbedtls-2.6.0/library\aes.c ****     X1 = *RK++ ^ RT0[ ( Y1       ) & 0xFF ] ^   \
 694:C:/Users/lenovo/Desktop/liteos/Project2/BearPi_LiteOS/components/security/mbedtls/mbedtls-2.6.0/library\aes.c ****                  RT1[ ( Y0 >>  8 ) & 0xFF ] ^   \
 695:C:/Users/lenovo/Desktop/liteos/Project2/BearPi_LiteOS/components/security/mbedtls/mbedtls-2.6.0/library\aes.c ****                  RT2[ ( Y3 >> 16 ) & 0xFF ] ^   \
 696:C:/Users/lenovo/Desktop/liteos/Project2/BearPi_LiteOS/components/security/mbedtls/mbedtls-2.6.0/library\aes.c ****                  RT3[ ( Y2 >> 24 ) & 0xFF ];    \
 697:C:/Users/lenovo/Desktop/liteos/Project2/BearPi_LiteOS/components/security/mbedtls/mbedtls-2.6.0/library\aes.c ****                                                 \
 698:C:/Users/lenovo/Desktop/liteos/Project2/BearPi_LiteOS/components/security/mbedtls/mbedtls-2.6.0/library\aes.c ****     X2 = *RK++ ^ RT0[ ( Y2       ) & 0xFF ] ^   \
 699:C:/Users/lenovo/Desktop/liteos/Project2/BearPi_LiteOS/components/security/mbedtls/mbedtls-2.6.0/library\aes.c ****                  RT1[ ( Y1 >>  8 ) & 0xFF ] ^   \
 700:C:/Users/lenovo/Desktop/liteos/Project2/BearPi_LiteOS/components/security/mbedtls/mbedtls-2.6.0/library\aes.c ****                  RT2[ ( Y0 >> 16 ) & 0xFF ] ^   \
 701:C:/Users/lenovo/Desktop/liteos/Project2/BearPi_LiteOS/components/security/mbedtls/mbedtls-2.6.0/library\aes.c ****                  RT3[ ( Y3 >> 24 ) & 0xFF ];    \
 702:C:/Users/lenovo/Desktop/liteos/Project2/BearPi_LiteOS/components/security/mbedtls/mbedtls-2.6.0/library\aes.c ****                                                 \
 703:C:/Users/lenovo/Desktop/liteos/Project2/BearPi_LiteOS/components/security/mbedtls/mbedtls-2.6.0/library\aes.c ****     X3 = *RK++ ^ RT0[ ( Y3       ) & 0xFF ] ^   \
 704:C:/Users/lenovo/Desktop/liteos/Project2/BearPi_LiteOS/components/security/mbedtls/mbedtls-2.6.0/library\aes.c ****                  RT1[ ( Y2 >>  8 ) & 0xFF ] ^   \
 705:C:/Users/lenovo/Desktop/liteos/Project2/BearPi_LiteOS/components/security/mbedtls/mbedtls-2.6.0/library\aes.c ****                  RT2[ ( Y1 >> 16 ) & 0xFF ] ^   \
 706:C:/Users/lenovo/Desktop/liteos/Project2/BearPi_LiteOS/components/security/mbedtls/mbedtls-2.6.0/library\aes.c ****                  RT3[ ( Y0 >> 24 ) & 0xFF ];    \
 707:C:/Users/lenovo/Desktop/liteos/Project2/BearPi_LiteOS/components/security/mbedtls/mbedtls-2.6.0/library\aes.c **** }
 708:C:/Users/lenovo/Desktop/liteos/Project2/BearPi_LiteOS/components/security/mbedtls/mbedtls-2.6.0/library\aes.c **** 
 709:C:/Users/lenovo/Desktop/liteos/Project2/BearPi_LiteOS/components/security/mbedtls/mbedtls-2.6.0/library\aes.c **** /*
 710:C:/Users/lenovo/Desktop/liteos/Project2/BearPi_LiteOS/components/security/mbedtls/mbedtls-2.6.0/library\aes.c ****  * AES-ECB block encryption
 711:C:/Users/lenovo/Desktop/liteos/Project2/BearPi_LiteOS/components/security/mbedtls/mbedtls-2.6.0/library\aes.c ****  */
 712:C:/Users/lenovo/Desktop/liteos/Project2/BearPi_LiteOS/components/security/mbedtls/mbedtls-2.6.0/library\aes.c **** #if !defined(MBEDTLS_AES_ENCRYPT_ALT)
 713:C:/Users/lenovo/Desktop/liteos/Project2/BearPi_LiteOS/components/security/mbedtls/mbedtls-2.6.0/library\aes.c **** int mbedtls_internal_aes_encrypt( mbedtls_aes_context *ctx,
 714:C:/Users/lenovo/Desktop/liteos/Project2/BearPi_LiteOS/components/security/mbedtls/mbedtls-2.6.0/library\aes.c ****                                   const unsigned char input[16],
 715:C:/Users/lenovo/Desktop/liteos/Project2/BearPi_LiteOS/components/security/mbedtls/mbedtls-2.6.0/library\aes.c ****                                   unsigned char output[16] )
 716:C:/Users/lenovo/Desktop/liteos/Project2/BearPi_LiteOS/components/security/mbedtls/mbedtls-2.6.0/library\aes.c **** {
 662              		.loc 1 716 0
 663              		.cfi_startproc
 664              		@ args = 0, pretend = 0, frame = 8
 665              		@ frame_needed = 0, uses_anonymous_args = 0
 666              	.LVL62:
 667 0000 2DE9F04F 		push	{r4, r5, r6, r7, r8, r9, r10, fp, lr}
 668              	.LCFI11:
 669              		.cfi_def_cfa_offset 36
 670              		.cfi_offset 4, -36
 671              		.cfi_offset 5, -32
 672              		.cfi_offset 6, -28
 673              		.cfi_offset 7, -24
 674              		.cfi_offset 8, -20
 675              		.cfi_offset 9, -16
 676              		.cfi_offset 10, -12
 677              		.cfi_offset 11, -8
 678              		.cfi_offset 14, -4
 679 0004 83B0     		sub	sp, sp, #12
 680              	.LCFI12:
 681              		.cfi_def_cfa_offset 48
 682 0006 0192     		str	r2, [sp, #4]
 717:C:/Users/lenovo/Desktop/liteos/Project2/BearPi_LiteOS/components/security/mbedtls/mbedtls-2.6.0/library\aes.c ****     int i;
 718:C:/Users/lenovo/Desktop/liteos/Project2/BearPi_LiteOS/components/security/mbedtls/mbedtls-2.6.0/library\aes.c ****     uint32_t *RK, X0, X1, X2, X3, Y0, Y1, Y2, Y3;
 719:C:/Users/lenovo/Desktop/liteos/Project2/BearPi_LiteOS/components/security/mbedtls/mbedtls-2.6.0/library\aes.c **** 
 720:C:/Users/lenovo/Desktop/liteos/Project2/BearPi_LiteOS/components/security/mbedtls/mbedtls-2.6.0/library\aes.c ****     RK = ctx->rk;
 683              		.loc 1 720 0
 684 0008 4468     		ldr	r4, [r0, #4]
 685              	.LVL63:
ARM GAS  c:\Users\lenovo\AppData\Local\Temp\ccpYsKo5.s 			page 27


 721:C:/Users/lenovo/Desktop/liteos/Project2/BearPi_LiteOS/components/security/mbedtls/mbedtls-2.6.0/library\aes.c **** 
 722:C:/Users/lenovo/Desktop/liteos/Project2/BearPi_LiteOS/components/security/mbedtls/mbedtls-2.6.0/library\aes.c ****     GET_UINT32_LE( X0, input,  0 ); X0 ^= *RK++;
 686              		.loc 1 722 0
 687 000a 91F80090 		ldrb	r9, [r1]	@ zero_extendqisi2
 688 000e 4B78     		ldrb	r3, [r1, #1]	@ zero_extendqisi2
 689 0010 49EA0329 		orr	r9, r9, r3, lsl #8
 690 0014 8B78     		ldrb	r3, [r1, #2]	@ zero_extendqisi2
 691 0016 49EA0349 		orr	r9, r9, r3, lsl #16
 692 001a CB78     		ldrb	r3, [r1, #3]	@ zero_extendqisi2
 693 001c 49EA0369 		orr	r9, r9, r3, lsl #24
 694              	.LVL64:
 695 0020 2368     		ldr	r3, [r4]
 696 0022 89EA0309 		eor	r9, r9, r3
 697              	.LVL65:
 723:C:/Users/lenovo/Desktop/liteos/Project2/BearPi_LiteOS/components/security/mbedtls/mbedtls-2.6.0/library\aes.c ****     GET_UINT32_LE( X1, input,  4 ); X1 ^= *RK++;
 698              		.loc 1 723 0
 699 0026 91F804A0 		ldrb	r10, [r1, #4]	@ zero_extendqisi2
 700 002a 4B79     		ldrb	r3, [r1, #5]	@ zero_extendqisi2
 701 002c 4AEA032A 		orr	r10, r10, r3, lsl #8
 702 0030 8B79     		ldrb	r3, [r1, #6]	@ zero_extendqisi2
 703 0032 4AEA034A 		orr	r10, r10, r3, lsl #16
 704 0036 CB79     		ldrb	r3, [r1, #7]	@ zero_extendqisi2
 705 0038 4AEA036A 		orr	r10, r10, r3, lsl #24
 706              	.LVL66:
 707 003c 6368     		ldr	r3, [r4, #4]
 708 003e 8AEA030A 		eor	r10, r10, r3
 709              	.LVL67:
 724:C:/Users/lenovo/Desktop/liteos/Project2/BearPi_LiteOS/components/security/mbedtls/mbedtls-2.6.0/library\aes.c ****     GET_UINT32_LE( X2, input,  8 ); X2 ^= *RK++;
 710              		.loc 1 724 0
 711 0042 0B7A     		ldrb	r3, [r1, #8]	@ zero_extendqisi2
 712 0044 4A7A     		ldrb	r2, [r1, #9]	@ zero_extendqisi2
 713              	.LVL68:
 714 0046 43EA0223 		orr	r3, r3, r2, lsl #8
 715 004a 8A7A     		ldrb	r2, [r1, #10]	@ zero_extendqisi2
 716 004c 43EA0243 		orr	r3, r3, r2, lsl #16
 717 0050 CA7A     		ldrb	r2, [r1, #11]	@ zero_extendqisi2
 718 0052 43EA0263 		orr	r3, r3, r2, lsl #24
 719              	.LVL69:
 720 0056 A268     		ldr	r2, [r4, #8]
 721 0058 5340     		eors	r3, r3, r2
 722              	.LVL70:
 725:C:/Users/lenovo/Desktop/liteos/Project2/BearPi_LiteOS/components/security/mbedtls/mbedtls-2.6.0/library\aes.c ****     GET_UINT32_LE( X3, input, 12 ); X3 ^= *RK++;
 723              		.loc 1 725 0
 724 005a 0A7B     		ldrb	r2, [r1, #12]	@ zero_extendqisi2
 725 005c 4D7B     		ldrb	r5, [r1, #13]	@ zero_extendqisi2
 726 005e 42EA0522 		orr	r2, r2, r5, lsl #8
 727 0062 8D7B     		ldrb	r5, [r1, #14]	@ zero_extendqisi2
 728 0064 42EA0542 		orr	r2, r2, r5, lsl #16
 729 0068 C97B     		ldrb	r1, [r1, #15]	@ zero_extendqisi2
 730              	.LVL71:
 731 006a 42EA0162 		orr	r2, r2, r1, lsl #24
 732              	.LVL72:
 733 006e 04F11006 		add	r6, r4, #16
 734              	.LVL73:
 735 0072 E168     		ldr	r1, [r4, #12]
 736 0074 4A40     		eors	r2, r2, r1
 737              	.LVL74:
ARM GAS  c:\Users\lenovo\AppData\Local\Temp\ccpYsKo5.s 			page 28


 726:C:/Users/lenovo/Desktop/liteos/Project2/BearPi_LiteOS/components/security/mbedtls/mbedtls-2.6.0/library\aes.c **** 
 727:C:/Users/lenovo/Desktop/liteos/Project2/BearPi_LiteOS/components/security/mbedtls/mbedtls-2.6.0/library\aes.c ****     for( i = ( ctx->nr >> 1 ) - 1; i > 0; i-- )
 738              		.loc 1 727 0
 739 0076 0168     		ldr	r1, [r0]
 740 0078 4FEA610B 		asr	fp, r1, #1
 741 007c 0BF1FF3B 		add	fp, fp, #-1
 742              	.LVL75:
 743 0080 BDE0     		b	.L51
 744              	.LVL76:
 745              	.L52:
 728:C:/Users/lenovo/Desktop/liteos/Project2/BearPi_LiteOS/components/security/mbedtls/mbedtls-2.6.0/library\aes.c ****     {
 729:C:/Users/lenovo/Desktop/liteos/Project2/BearPi_LiteOS/components/security/mbedtls/mbedtls-2.6.0/library\aes.c ****         AES_FROUND( Y0, Y1, Y2, Y3, X0, X1, X2, X3 );
 746              		.loc 1 729 0 discriminator 3
 747 0082 3168     		ldr	r1, [r6]
 748 0084 5FFA89F0 		uxtb	r0, r9
 749 0088 CA4F     		ldr	r7, .L54
 750 008a 57F82000 		ldr	r0, [r7, r0, lsl #2]
 751 008e 81EA000E 		eor	lr, r1, r0
 752 0092 CAF30721 		ubfx	r1, r10, #8, #8
 753 0096 C84C     		ldr	r4, .L54+4
 754 0098 54F82110 		ldr	r1, [r4, r1, lsl #2]
 755 009c 8EEA010E 		eor	lr, lr, r1
 756 00a0 C3F30741 		ubfx	r1, r3, #16, #8
 757 00a4 C548     		ldr	r0, .L54+8
 758 00a6 50F82110 		ldr	r1, [r0, r1, lsl #2]
 759 00aa 8EEA010E 		eor	lr, lr, r1
 760 00ae 150E     		lsrs	r5, r2, #24
 761 00b0 C349     		ldr	r1, .L54+12
 762 00b2 51F82550 		ldr	r5, [r1, r5, lsl #2]
 763 00b6 8EEA050E 		eor	lr, lr, r5
 764              	.LVL77:
 765 00ba 5FFA8AFC 		uxtb	ip, r10
 766 00be 57F82CC0 		ldr	ip, [r7, ip, lsl #2]
 767 00c2 7568     		ldr	r5, [r6, #4]
 768 00c4 85EA0C08 		eor	r8, r5, ip
 769 00c8 C3F30725 		ubfx	r5, r3, #8, #8
 770 00cc 54F82550 		ldr	r5, [r4, r5, lsl #2]
 771 00d0 88EA0508 		eor	r8, r8, r5
 772 00d4 C2F30745 		ubfx	r5, r2, #16, #8
 773 00d8 50F82550 		ldr	r5, [r0, r5, lsl #2]
 774 00dc 88EA0508 		eor	r8, r8, r5
 775 00e0 4FEA1965 		lsr	r5, r9, #24
 776 00e4 51F82550 		ldr	r5, [r1, r5, lsl #2]
 777 00e8 88EA0508 		eor	r8, r8, r5
 778              	.LVL78:
 779 00ec 5FFA83FC 		uxtb	ip, r3
 780 00f0 57F82CC0 		ldr	ip, [r7, ip, lsl #2]
 781 00f4 B568     		ldr	r5, [r6, #8]
 782 00f6 85EA0C0C 		eor	ip, r5, ip
 783 00fa C2F30725 		ubfx	r5, r2, #8, #8
 784 00fe 54F82550 		ldr	r5, [r4, r5, lsl #2]
 785 0102 8CEA050C 		eor	ip, ip, r5
 786 0106 C9F30745 		ubfx	r5, r9, #16, #8
 787 010a 50F82550 		ldr	r5, [r0, r5, lsl #2]
 788 010e 8CEA050C 		eor	ip, ip, r5
 789 0112 4FEA1A65 		lsr	r5, r10, #24
 790 0116 51F82550 		ldr	r5, [r1, r5, lsl #2]
ARM GAS  c:\Users\lenovo\AppData\Local\Temp\ccpYsKo5.s 			page 29


 791 011a 8CEA050C 		eor	ip, ip, r5
 792              	.LVL79:
 793 011e F568     		ldr	r5, [r6, #12]
 794 0120 D2B2     		uxtb	r2, r2
 795              	.LVL80:
 796 0122 57F82220 		ldr	r2, [r7, r2, lsl #2]
 797 0126 5540     		eors	r5, r5, r2
 798 0128 C9F30729 		ubfx	r9, r9, #8, #8
 799              	.LVL81:
 800 012c 54F82920 		ldr	r2, [r4, r9, lsl #2]
 801 0130 5540     		eors	r5, r5, r2
 802 0132 CAF3074A 		ubfx	r10, r10, #16, #8
 803              	.LVL82:
 804 0136 50F82A20 		ldr	r2, [r0, r10, lsl #2]
 805 013a 5540     		eors	r5, r5, r2
 806 013c 1B0E     		lsrs	r3, r3, #24
 807              	.LVL83:
 808 013e 51F82330 		ldr	r3, [r1, r3, lsl #2]
 809 0142 5D40     		eors	r5, r5, r3
 810              	.LVL84:
 730:C:/Users/lenovo/Desktop/liteos/Project2/BearPi_LiteOS/components/security/mbedtls/mbedtls-2.6.0/library\aes.c ****         AES_FROUND( X0, X1, X2, X3, Y0, Y1, Y2, Y3 );
 811              		.loc 1 730 0 discriminator 3
 812 0144 3369     		ldr	r3, [r6, #16]
 813 0146 5FFA8EF2 		uxtb	r2, lr
 814 014a 57F82220 		ldr	r2, [r7, r2, lsl #2]
 815 014e 83EA0209 		eor	r9, r3, r2
 816 0152 C8F30723 		ubfx	r3, r8, #8, #8
 817 0156 54F82330 		ldr	r3, [r4, r3, lsl #2]
 818 015a 89EA0309 		eor	r9, r9, r3
 819 015e CCF30743 		ubfx	r3, ip, #16, #8
 820 0162 50F82330 		ldr	r3, [r0, r3, lsl #2]
 821 0166 89EA0309 		eor	r9, r9, r3
 822 016a 2B0E     		lsrs	r3, r5, #24
 823 016c 51F82330 		ldr	r3, [r1, r3, lsl #2]
 824 0170 89EA0309 		eor	r9, r9, r3
 825              	.LVL85:
 826 0174 7369     		ldr	r3, [r6, #20]
 827 0176 5FFA88F2 		uxtb	r2, r8
 828 017a 57F82220 		ldr	r2, [r7, r2, lsl #2]
 829 017e 83EA020A 		eor	r10, r3, r2
 830 0182 CCF30723 		ubfx	r3, ip, #8, #8
 831 0186 54F82330 		ldr	r3, [r4, r3, lsl #2]
 832 018a 8AEA030A 		eor	r10, r10, r3
 833 018e C5F30743 		ubfx	r3, r5, #16, #8
 834 0192 50F82330 		ldr	r3, [r0, r3, lsl #2]
 835 0196 8AEA030A 		eor	r10, r10, r3
 836 019a 4FEA1E63 		lsr	r3, lr, #24
 837 019e 51F82330 		ldr	r3, [r1, r3, lsl #2]
 838 01a2 8AEA030A 		eor	r10, r10, r3
 839              	.LVL86:
 840 01a6 B369     		ldr	r3, [r6, #24]
 841 01a8 5FFA8CF2 		uxtb	r2, ip
 842 01ac 57F82220 		ldr	r2, [r7, r2, lsl #2]
 843 01b0 5340     		eors	r3, r3, r2
 844 01b2 C5F30722 		ubfx	r2, r5, #8, #8
 845 01b6 54F82220 		ldr	r2, [r4, r2, lsl #2]
 846 01ba 5340     		eors	r3, r3, r2
ARM GAS  c:\Users\lenovo\AppData\Local\Temp\ccpYsKo5.s 			page 30


 847 01bc CEF30742 		ubfx	r2, lr, #16, #8
 848 01c0 50F82220 		ldr	r2, [r0, r2, lsl #2]
 849 01c4 5340     		eors	r3, r3, r2
 850 01c6 4FEA1862 		lsr	r2, r8, #24
 851 01ca 51F82220 		ldr	r2, [r1, r2, lsl #2]
 852 01ce 5340     		eors	r3, r3, r2
 853              	.LVL87:
 854 01d0 F269     		ldr	r2, [r6, #28]
 855 01d2 EDB2     		uxtb	r5, r5
 856              	.LVL88:
 857 01d4 57F82550 		ldr	r5, [r7, r5, lsl #2]
 858 01d8 6A40     		eors	r2, r2, r5
 859 01da CEF3072E 		ubfx	lr, lr, #8, #8
 860              	.LVL89:
 861 01de 54F82E40 		ldr	r4, [r4, lr, lsl #2]
 862 01e2 6240     		eors	r2, r2, r4
 863 01e4 C8F30748 		ubfx	r8, r8, #16, #8
 864              	.LVL90:
 865 01e8 50F82800 		ldr	r0, [r0, r8, lsl #2]
 866 01ec 4240     		eors	r2, r2, r0
 867 01ee 4FEA1C6C 		lsr	ip, ip, #24
 868              	.LVL91:
 869 01f2 51F82C10 		ldr	r1, [r1, ip, lsl #2]
 870 01f6 4A40     		eors	r2, r2, r1
 871              	.LVL92:
 727:C:/Users/lenovo/Desktop/liteos/Project2/BearPi_LiteOS/components/security/mbedtls/mbedtls-2.6.0/library\aes.c ****     {
 872              		.loc 1 727 0 discriminator 3
 873 01f8 0BF1FF3B 		add	fp, fp, #-1
 874              	.LVL93:
 875              		.loc 1 730 0 discriminator 3
 876 01fc 2036     		adds	r6, r6, #32
 877              	.LVL94:
 878              	.L51:
 727:C:/Users/lenovo/Desktop/liteos/Project2/BearPi_LiteOS/components/security/mbedtls/mbedtls-2.6.0/library\aes.c ****     {
 879              		.loc 1 727 0 discriminator 1
 880 01fe BBF1000F 		cmp	fp, #0
 881 0202 3FF73EAF 		bgt	.L52
 882              	.LVL95:
 731:C:/Users/lenovo/Desktop/liteos/Project2/BearPi_LiteOS/components/security/mbedtls/mbedtls-2.6.0/library\aes.c ****     }
 732:C:/Users/lenovo/Desktop/liteos/Project2/BearPi_LiteOS/components/security/mbedtls/mbedtls-2.6.0/library\aes.c **** 
 733:C:/Users/lenovo/Desktop/liteos/Project2/BearPi_LiteOS/components/security/mbedtls/mbedtls-2.6.0/library\aes.c ****     AES_FROUND( Y0, Y1, Y2, Y3, X0, X1, X2, X3 );
 883              		.loc 1 733 0
 884 0206 3168     		ldr	r1, [r6]
 885 0208 5FFA89F0 		uxtb	r0, r9
 886 020c DFF8A4C1 		ldr	ip, .L54
 887 0210 5CF82000 		ldr	r0, [ip, r0, lsl #2]
 888 0214 4840     		eors	r0, r0, r1
 889 0216 CAF30721 		ubfx	r1, r10, #8, #8
 890 021a 674F     		ldr	r7, .L54+4
 891 021c 57F82110 		ldr	r1, [r7, r1, lsl #2]
 892 0220 4840     		eors	r0, r0, r1
 893 0222 C3F30741 		ubfx	r1, r3, #16, #8
 894 0226 654D     		ldr	r5, .L54+8
 895 0228 55F82110 		ldr	r1, [r5, r1, lsl #2]
 896 022c 4840     		eors	r0, r0, r1
 897 022e 110E     		lsrs	r1, r2, #24
 898 0230 634C     		ldr	r4, .L54+12
ARM GAS  c:\Users\lenovo\AppData\Local\Temp\ccpYsKo5.s 			page 31


 899 0232 54F82110 		ldr	r1, [r4, r1, lsl #2]
 900 0236 4840     		eors	r0, r0, r1
 901              	.LVL96:
 902 0238 5FFA8AFE 		uxtb	lr, r10
 903 023c 5CF82EE0 		ldr	lr, [ip, lr, lsl #2]
 904 0240 7168     		ldr	r1, [r6, #4]
 905 0242 81EA0E0E 		eor	lr, r1, lr
 906 0246 C3F30721 		ubfx	r1, r3, #8, #8
 907 024a 57F82110 		ldr	r1, [r7, r1, lsl #2]
 908 024e 8EEA010E 		eor	lr, lr, r1
 909 0252 C2F30741 		ubfx	r1, r2, #16, #8
 910 0256 55F82110 		ldr	r1, [r5, r1, lsl #2]
 911 025a 8EEA010E 		eor	lr, lr, r1
 912 025e 4FEA1961 		lsr	r1, r9, #24
 913 0262 54F82110 		ldr	r1, [r4, r1, lsl #2]
 914 0266 8EEA010E 		eor	lr, lr, r1
 915              	.LVL97:
 916 026a 5FFA83F8 		uxtb	r8, r3
 917 026e 5CF82880 		ldr	r8, [ip, r8, lsl #2]
 918 0272 B168     		ldr	r1, [r6, #8]
 919 0274 81EA0808 		eor	r8, r1, r8
 920 0278 C2F30721 		ubfx	r1, r2, #8, #8
 921 027c 57F82110 		ldr	r1, [r7, r1, lsl #2]
 922 0280 88EA0108 		eor	r8, r8, r1
 923 0284 C9F30741 		ubfx	r1, r9, #16, #8
 924 0288 55F82110 		ldr	r1, [r5, r1, lsl #2]
 925 028c 88EA0108 		eor	r8, r8, r1
 926 0290 4FEA1A61 		lsr	r1, r10, #24
 927 0294 54F82110 		ldr	r1, [r4, r1, lsl #2]
 928 0298 88EA0108 		eor	r8, r8, r1
 929              	.LVL98:
 930 029c F168     		ldr	r1, [r6, #12]
 931 029e D2B2     		uxtb	r2, r2
 932              	.LVL99:
 933 02a0 5CF82220 		ldr	r2, [ip, r2, lsl #2]
 934 02a4 5140     		eors	r1, r1, r2
 935 02a6 C9F30729 		ubfx	r9, r9, #8, #8
 936              	.LVL100:
 937 02aa 57F82970 		ldr	r7, [r7, r9, lsl #2]
 938 02ae 4F40     		eors	r7, r7, r1
 939 02b0 CAF3074A 		ubfx	r10, r10, #16, #8
 940              	.LVL101:
 941 02b4 55F82A10 		ldr	r1, [r5, r10, lsl #2]
 942 02b8 4F40     		eors	r7, r7, r1
 943 02ba 1B0E     		lsrs	r3, r3, #24
 944              	.LVL102:
 945 02bc 54F82330 		ldr	r3, [r4, r3, lsl #2]
 946 02c0 5F40     		eors	r7, r7, r3
 947              	.LVL103:
 734:C:/Users/lenovo/Desktop/liteos/Project2/BearPi_LiteOS/components/security/mbedtls/mbedtls-2.6.0/library\aes.c **** 
 735:C:/Users/lenovo/Desktop/liteos/Project2/BearPi_LiteOS/components/security/mbedtls/mbedtls-2.6.0/library\aes.c ****     X0 = *RK++ ^ \
 948              		.loc 1 735 0
 949 02c2 3269     		ldr	r2, [r6, #16]
 736:C:/Users/lenovo/Desktop/liteos/Project2/BearPi_LiteOS/components/security/mbedtls/mbedtls-2.6.0/library\aes.c ****             ( (uint32_t) FSb[ ( Y0       ) & 0xFF ]       ) ^
 950              		.loc 1 736 0
 951 02c4 C1B2     		uxtb	r1, r0
 952 02c6 3F4B     		ldr	r3, .L54+16
ARM GAS  c:\Users\lenovo\AppData\Local\Temp\ccpYsKo5.s 			page 32


 953 02c8 5C5C     		ldrb	r4, [r3, r1]	@ zero_extendqisi2
 735:C:/Users/lenovo/Desktop/liteos/Project2/BearPi_LiteOS/components/security/mbedtls/mbedtls-2.6.0/library\aes.c ****             ( (uint32_t) FSb[ ( Y0       ) & 0xFF ]       ) ^
 954              		.loc 1 735 0
 955 02ca 5440     		eors	r4, r4, r2
 737:C:/Users/lenovo/Desktop/liteos/Project2/BearPi_LiteOS/components/security/mbedtls/mbedtls-2.6.0/library\aes.c ****             ( (uint32_t) FSb[ ( Y1 >>  8 ) & 0xFF ] <<  8 ) ^
 956              		.loc 1 737 0
 957 02cc CEF30722 		ubfx	r2, lr, #8, #8
 958 02d0 9A5C     		ldrb	r2, [r3, r2]	@ zero_extendqisi2
 736:C:/Users/lenovo/Desktop/liteos/Project2/BearPi_LiteOS/components/security/mbedtls/mbedtls-2.6.0/library\aes.c ****             ( (uint32_t) FSb[ ( Y0       ) & 0xFF ]       ) ^
 959              		.loc 1 736 0
 960 02d2 84EA0224 		eor	r4, r4, r2, lsl #8
 738:C:/Users/lenovo/Desktop/liteos/Project2/BearPi_LiteOS/components/security/mbedtls/mbedtls-2.6.0/library\aes.c ****             ( (uint32_t) FSb[ ( Y2 >> 16 ) & 0xFF ] << 16 ) ^
 961              		.loc 1 738 0
 962 02d6 C8F30742 		ubfx	r2, r8, #16, #8
 963 02da 9A5C     		ldrb	r2, [r3, r2]	@ zero_extendqisi2
 737:C:/Users/lenovo/Desktop/liteos/Project2/BearPi_LiteOS/components/security/mbedtls/mbedtls-2.6.0/library\aes.c ****             ( (uint32_t) FSb[ ( Y1 >>  8 ) & 0xFF ] <<  8 ) ^
 964              		.loc 1 737 0
 965 02dc 84EA0244 		eor	r4, r4, r2, lsl #16
 739:C:/Users/lenovo/Desktop/liteos/Project2/BearPi_LiteOS/components/security/mbedtls/mbedtls-2.6.0/library\aes.c ****             ( (uint32_t) FSb[ ( Y3 >> 24 ) & 0xFF ] << 24 );
 966              		.loc 1 739 0
 967 02e0 3A0E     		lsrs	r2, r7, #24
 968 02e2 9A5C     		ldrb	r2, [r3, r2]	@ zero_extendqisi2
 735:C:/Users/lenovo/Desktop/liteos/Project2/BearPi_LiteOS/components/security/mbedtls/mbedtls-2.6.0/library\aes.c ****             ( (uint32_t) FSb[ ( Y0       ) & 0xFF ]       ) ^
 969              		.loc 1 735 0
 970 02e4 84EA0264 		eor	r4, r4, r2, lsl #24
 971              	.LVL104:
 740:C:/Users/lenovo/Desktop/liteos/Project2/BearPi_LiteOS/components/security/mbedtls/mbedtls-2.6.0/library\aes.c **** 
 741:C:/Users/lenovo/Desktop/liteos/Project2/BearPi_LiteOS/components/security/mbedtls/mbedtls-2.6.0/library\aes.c ****     X1 = *RK++ ^ \
 972              		.loc 1 741 0
 973 02e8 7269     		ldr	r2, [r6, #20]
 742:C:/Users/lenovo/Desktop/liteos/Project2/BearPi_LiteOS/components/security/mbedtls/mbedtls-2.6.0/library\aes.c ****             ( (uint32_t) FSb[ ( Y1       ) & 0xFF ]       ) ^
 974              		.loc 1 742 0
 975 02ea 5FFA8EF1 		uxtb	r1, lr
 976 02ee 595C     		ldrb	r1, [r3, r1]	@ zero_extendqisi2
 741:C:/Users/lenovo/Desktop/liteos/Project2/BearPi_LiteOS/components/security/mbedtls/mbedtls-2.6.0/library\aes.c ****             ( (uint32_t) FSb[ ( Y1       ) & 0xFF ]       ) ^
 977              		.loc 1 741 0
 978 02f0 5140     		eors	r1, r1, r2
 743:C:/Users/lenovo/Desktop/liteos/Project2/BearPi_LiteOS/components/security/mbedtls/mbedtls-2.6.0/library\aes.c ****             ( (uint32_t) FSb[ ( Y2 >>  8 ) & 0xFF ] <<  8 ) ^
 979              		.loc 1 743 0
 980 02f2 C8F30722 		ubfx	r2, r8, #8, #8
 981 02f6 9A5C     		ldrb	r2, [r3, r2]	@ zero_extendqisi2
 742:C:/Users/lenovo/Desktop/liteos/Project2/BearPi_LiteOS/components/security/mbedtls/mbedtls-2.6.0/library\aes.c ****             ( (uint32_t) FSb[ ( Y1       ) & 0xFF ]       ) ^
 982              		.loc 1 742 0
 983 02f8 81EA0221 		eor	r1, r1, r2, lsl #8
 744:C:/Users/lenovo/Desktop/liteos/Project2/BearPi_LiteOS/components/security/mbedtls/mbedtls-2.6.0/library\aes.c ****             ( (uint32_t) FSb[ ( Y3 >> 16 ) & 0xFF ] << 16 ) ^
 984              		.loc 1 744 0
 985 02fc C7F30742 		ubfx	r2, r7, #16, #8
 986 0300 9A5C     		ldrb	r2, [r3, r2]	@ zero_extendqisi2
 743:C:/Users/lenovo/Desktop/liteos/Project2/BearPi_LiteOS/components/security/mbedtls/mbedtls-2.6.0/library\aes.c ****             ( (uint32_t) FSb[ ( Y2 >>  8 ) & 0xFF ] <<  8 ) ^
 987              		.loc 1 743 0
 988 0302 81EA0241 		eor	r1, r1, r2, lsl #16
 745:C:/Users/lenovo/Desktop/liteos/Project2/BearPi_LiteOS/components/security/mbedtls/mbedtls-2.6.0/library\aes.c ****             ( (uint32_t) FSb[ ( Y0 >> 24 ) & 0xFF ] << 24 );
 989              		.loc 1 745 0
 990 0306 020E     		lsrs	r2, r0, #24
 991 0308 9A5C     		ldrb	r2, [r3, r2]	@ zero_extendqisi2
 741:C:/Users/lenovo/Desktop/liteos/Project2/BearPi_LiteOS/components/security/mbedtls/mbedtls-2.6.0/library\aes.c ****             ( (uint32_t) FSb[ ( Y1       ) & 0xFF ]       ) ^
 992              		.loc 1 741 0
ARM GAS  c:\Users\lenovo\AppData\Local\Temp\ccpYsKo5.s 			page 33


 993 030a 81EA0261 		eor	r1, r1, r2, lsl #24
 994              	.LVL105:
 746:C:/Users/lenovo/Desktop/liteos/Project2/BearPi_LiteOS/components/security/mbedtls/mbedtls-2.6.0/library\aes.c **** 
 747:C:/Users/lenovo/Desktop/liteos/Project2/BearPi_LiteOS/components/security/mbedtls/mbedtls-2.6.0/library\aes.c ****     X2 = *RK++ ^ \
 995              		.loc 1 747 0
 996 030e B269     		ldr	r2, [r6, #24]
 748:C:/Users/lenovo/Desktop/liteos/Project2/BearPi_LiteOS/components/security/mbedtls/mbedtls-2.6.0/library\aes.c ****             ( (uint32_t) FSb[ ( Y2       ) & 0xFF ]       ) ^
 997              		.loc 1 748 0
 998 0310 5FFA88F5 		uxtb	r5, r8
 999 0314 5D5D     		ldrb	r5, [r3, r5]	@ zero_extendqisi2
 747:C:/Users/lenovo/Desktop/liteos/Project2/BearPi_LiteOS/components/security/mbedtls/mbedtls-2.6.0/library\aes.c ****             ( (uint32_t) FSb[ ( Y2       ) & 0xFF ]       ) ^
 1000              		.loc 1 747 0
 1001 0316 5540     		eors	r5, r5, r2
 749:C:/Users/lenovo/Desktop/liteos/Project2/BearPi_LiteOS/components/security/mbedtls/mbedtls-2.6.0/library\aes.c ****             ( (uint32_t) FSb[ ( Y3 >>  8 ) & 0xFF ] <<  8 ) ^
 1002              		.loc 1 749 0
 1003 0318 C7F30722 		ubfx	r2, r7, #8, #8
 1004 031c 9A5C     		ldrb	r2, [r3, r2]	@ zero_extendqisi2
 748:C:/Users/lenovo/Desktop/liteos/Project2/BearPi_LiteOS/components/security/mbedtls/mbedtls-2.6.0/library\aes.c ****             ( (uint32_t) FSb[ ( Y2       ) & 0xFF ]       ) ^
 1005              		.loc 1 748 0
 1006 031e 85EA0225 		eor	r5, r5, r2, lsl #8
 750:C:/Users/lenovo/Desktop/liteos/Project2/BearPi_LiteOS/components/security/mbedtls/mbedtls-2.6.0/library\aes.c ****             ( (uint32_t) FSb[ ( Y0 >> 16 ) & 0xFF ] << 16 ) ^
 1007              		.loc 1 750 0
 1008 0322 C0F30742 		ubfx	r2, r0, #16, #8
 1009 0326 9A5C     		ldrb	r2, [r3, r2]	@ zero_extendqisi2
 749:C:/Users/lenovo/Desktop/liteos/Project2/BearPi_LiteOS/components/security/mbedtls/mbedtls-2.6.0/library\aes.c ****             ( (uint32_t) FSb[ ( Y3 >>  8 ) & 0xFF ] <<  8 ) ^
 1010              		.loc 1 749 0
 1011 0328 85EA0245 		eor	r5, r5, r2, lsl #16
 751:C:/Users/lenovo/Desktop/liteos/Project2/BearPi_LiteOS/components/security/mbedtls/mbedtls-2.6.0/library\aes.c ****             ( (uint32_t) FSb[ ( Y1 >> 24 ) & 0xFF ] << 24 );
 1012              		.loc 1 751 0
 1013 032c 4FEA1E62 		lsr	r2, lr, #24
 1014 0330 9A5C     		ldrb	r2, [r3, r2]	@ zero_extendqisi2
 747:C:/Users/lenovo/Desktop/liteos/Project2/BearPi_LiteOS/components/security/mbedtls/mbedtls-2.6.0/library\aes.c ****             ( (uint32_t) FSb[ ( Y2       ) & 0xFF ]       ) ^
 1015              		.loc 1 747 0
 1016 0332 85EA0265 		eor	r5, r5, r2, lsl #24
 1017              	.LVL106:
 752:C:/Users/lenovo/Desktop/liteos/Project2/BearPi_LiteOS/components/security/mbedtls/mbedtls-2.6.0/library\aes.c **** 
 753:C:/Users/lenovo/Desktop/liteos/Project2/BearPi_LiteOS/components/security/mbedtls/mbedtls-2.6.0/library\aes.c ****     X3 = *RK++ ^ \
 1018              		.loc 1 753 0
 1019 0336 F269     		ldr	r2, [r6, #28]
 754:C:/Users/lenovo/Desktop/liteos/Project2/BearPi_LiteOS/components/security/mbedtls/mbedtls-2.6.0/library\aes.c ****             ( (uint32_t) FSb[ ( Y3       ) & 0xFF ]       ) ^
 1020              		.loc 1 754 0
 1021 0338 FFB2     		uxtb	r7, r7
 1022              	.LVL107:
 1023 033a DE5D     		ldrb	r6, [r3, r7]	@ zero_extendqisi2
 1024              	.LVL108:
 753:C:/Users/lenovo/Desktop/liteos/Project2/BearPi_LiteOS/components/security/mbedtls/mbedtls-2.6.0/library\aes.c ****             ( (uint32_t) FSb[ ( Y3       ) & 0xFF ]       ) ^
 1025              		.loc 1 753 0
 1026 033c 7240     		eors	r2, r2, r6
 755:C:/Users/lenovo/Desktop/liteos/Project2/BearPi_LiteOS/components/security/mbedtls/mbedtls-2.6.0/library\aes.c ****             ( (uint32_t) FSb[ ( Y0 >>  8 ) & 0xFF ] <<  8 ) ^
 1027              		.loc 1 755 0
 1028 033e C0F30720 		ubfx	r0, r0, #8, #8
 1029              	.LVL109:
 1030 0342 185C     		ldrb	r0, [r3, r0]	@ zero_extendqisi2
 754:C:/Users/lenovo/Desktop/liteos/Project2/BearPi_LiteOS/components/security/mbedtls/mbedtls-2.6.0/library\aes.c ****             ( (uint32_t) FSb[ ( Y3       ) & 0xFF ]       ) ^
 1031              		.loc 1 754 0
 1032 0344 82EA0022 		eor	r2, r2, r0, lsl #8
 756:C:/Users/lenovo/Desktop/liteos/Project2/BearPi_LiteOS/components/security/mbedtls/mbedtls-2.6.0/library\aes.c ****             ( (uint32_t) FSb[ ( Y1 >> 16 ) & 0xFF ] << 16 ) ^
ARM GAS  c:\Users\lenovo\AppData\Local\Temp\ccpYsKo5.s 			page 34


 1033              		.loc 1 756 0
 1034 0348 CEF3074E 		ubfx	lr, lr, #16, #8
 1035              	.LVL110:
 1036 034c 13F80E00 		ldrb	r0, [r3, lr]	@ zero_extendqisi2
 755:C:/Users/lenovo/Desktop/liteos/Project2/BearPi_LiteOS/components/security/mbedtls/mbedtls-2.6.0/library\aes.c ****             ( (uint32_t) FSb[ ( Y0 >>  8 ) & 0xFF ] <<  8 ) ^
 1037              		.loc 1 755 0
 1038 0350 82EA0042 		eor	r2, r2, r0, lsl #16
 757:C:/Users/lenovo/Desktop/liteos/Project2/BearPi_LiteOS/components/security/mbedtls/mbedtls-2.6.0/library\aes.c ****             ( (uint32_t) FSb[ ( Y2 >> 24 ) & 0xFF ] << 24 );
 1039              		.loc 1 757 0
 1040 0354 4FEA1868 		lsr	r8, r8, #24
 1041              	.LVL111:
 1042 0358 13F80830 		ldrb	r3, [r3, r8]	@ zero_extendqisi2
 753:C:/Users/lenovo/Desktop/liteos/Project2/BearPi_LiteOS/components/security/mbedtls/mbedtls-2.6.0/library\aes.c ****             ( (uint32_t) FSb[ ( Y3       ) & 0xFF ]       ) ^
 1043              		.loc 1 753 0
 1044 035c 82EA0363 		eor	r3, r2, r3, lsl #24
 1045              	.LVL112:
 758:C:/Users/lenovo/Desktop/liteos/Project2/BearPi_LiteOS/components/security/mbedtls/mbedtls-2.6.0/library\aes.c **** 
 759:C:/Users/lenovo/Desktop/liteos/Project2/BearPi_LiteOS/components/security/mbedtls/mbedtls-2.6.0/library\aes.c ****     PUT_UINT32_LE( X0, output,  0 );
 1046              		.loc 1 759 0
 1047 0360 0198     		ldr	r0, [sp, #4]
 1048 0362 0470     		strb	r4, [r0]
 1049 0364 C4F30722 		ubfx	r2, r4, #8, #8
 1050 0368 4270     		strb	r2, [r0, #1]
 1051 036a C4F30742 		ubfx	r2, r4, #16, #8
 1052 036e 8270     		strb	r2, [r0, #2]
 1053 0370 240E     		lsrs	r4, r4, #24
 1054              	.LVL113:
 1055 0372 C470     		strb	r4, [r0, #3]
 760:C:/Users/lenovo/Desktop/liteos/Project2/BearPi_LiteOS/components/security/mbedtls/mbedtls-2.6.0/library\aes.c ****     PUT_UINT32_LE( X1, output,  4 );
 1056              		.loc 1 760 0
 1057 0374 0171     		strb	r1, [r0, #4]
 1058 0376 C1F30722 		ubfx	r2, r1, #8, #8
 1059 037a 4271     		strb	r2, [r0, #5]
 1060 037c C1F30742 		ubfx	r2, r1, #16, #8
 1061 0380 8271     		strb	r2, [r0, #6]
 1062 0382 090E     		lsrs	r1, r1, #24
 1063              	.LVL114:
 1064 0384 C171     		strb	r1, [r0, #7]
 761:C:/Users/lenovo/Desktop/liteos/Project2/BearPi_LiteOS/components/security/mbedtls/mbedtls-2.6.0/library\aes.c ****     PUT_UINT32_LE( X2, output,  8 );
 1065              		.loc 1 761 0
 1066 0386 0572     		strb	r5, [r0, #8]
 1067 0388 C5F30722 		ubfx	r2, r5, #8, #8
 1068 038c 4272     		strb	r2, [r0, #9]
 1069 038e C5F30742 		ubfx	r2, r5, #16, #8
 1070 0392 8272     		strb	r2, [r0, #10]
 1071 0394 2D0E     		lsrs	r5, r5, #24
 1072              	.LVL115:
 1073 0396 C572     		strb	r5, [r0, #11]
 762:C:/Users/lenovo/Desktop/liteos/Project2/BearPi_LiteOS/components/security/mbedtls/mbedtls-2.6.0/library\aes.c ****     PUT_UINT32_LE( X3, output, 12 );
 1074              		.loc 1 762 0
 1075 0398 0373     		strb	r3, [r0, #12]
 1076 039a C3F30722 		ubfx	r2, r3, #8, #8
 1077 039e 4273     		strb	r2, [r0, #13]
 1078 03a0 C3F30742 		ubfx	r2, r3, #16, #8
 1079 03a4 8273     		strb	r2, [r0, #14]
 1080 03a6 1B0E     		lsrs	r3, r3, #24
 1081              	.LVL116:
ARM GAS  c:\Users\lenovo\AppData\Local\Temp\ccpYsKo5.s 			page 35


 1082 03a8 C373     		strb	r3, [r0, #15]
 763:C:/Users/lenovo/Desktop/liteos/Project2/BearPi_LiteOS/components/security/mbedtls/mbedtls-2.6.0/library\aes.c **** 
 764:C:/Users/lenovo/Desktop/liteos/Project2/BearPi_LiteOS/components/security/mbedtls/mbedtls-2.6.0/library\aes.c ****     return( 0 );
 765:C:/Users/lenovo/Desktop/liteos/Project2/BearPi_LiteOS/components/security/mbedtls/mbedtls-2.6.0/library\aes.c **** }
 1083              		.loc 1 765 0
 1084 03aa 0020     		movs	r0, #0
 1085 03ac 03B0     		add	sp, sp, #12
 1086              	.LCFI13:
 1087              		.cfi_def_cfa_offset 36
 1088              		@ sp needed
 1089 03ae BDE8F08F 		pop	{r4, r5, r6, r7, r8, r9, r10, fp, pc}
 1090              	.LVL117:
 1091              	.L55:
 1092 03b2 00BF     		.align	2
 1093              	.L54:
 1094 03b4 00000000 		.word	.LANCHOR6
 1095 03b8 00000000 		.word	.LANCHOR7
 1096 03bc 00000000 		.word	.LANCHOR8
 1097 03c0 00000000 		.word	.LANCHOR9
 1098 03c4 00000000 		.word	.LANCHOR1
 1099              		.cfi_endproc
 1100              	.LFE5:
 1102              		.section	.text.mbedtls_aes_encrypt,"ax",%progbits
 1103              		.align	1
 1104              		.global	mbedtls_aes_encrypt
 1105              		.syntax unified
 1106              		.thumb
 1107              		.thumb_func
 1108              		.fpu fpv4-sp-d16
 1110              	mbedtls_aes_encrypt:
 1111              	.LFB6:
 766:C:/Users/lenovo/Desktop/liteos/Project2/BearPi_LiteOS/components/security/mbedtls/mbedtls-2.6.0/library\aes.c **** #endif /* !MBEDTLS_AES_ENCRYPT_ALT */
 767:C:/Users/lenovo/Desktop/liteos/Project2/BearPi_LiteOS/components/security/mbedtls/mbedtls-2.6.0/library\aes.c **** 
 768:C:/Users/lenovo/Desktop/liteos/Project2/BearPi_LiteOS/components/security/mbedtls/mbedtls-2.6.0/library\aes.c **** void mbedtls_aes_encrypt( mbedtls_aes_context *ctx,
 769:C:/Users/lenovo/Desktop/liteos/Project2/BearPi_LiteOS/components/security/mbedtls/mbedtls-2.6.0/library\aes.c ****                           const unsigned char input[16],
 770:C:/Users/lenovo/Desktop/liteos/Project2/BearPi_LiteOS/components/security/mbedtls/mbedtls-2.6.0/library\aes.c ****                           unsigned char output[16] )
 771:C:/Users/lenovo/Desktop/liteos/Project2/BearPi_LiteOS/components/security/mbedtls/mbedtls-2.6.0/library\aes.c **** {
 1112              		.loc 1 771 0
 1113              		.cfi_startproc
 1114              		@ args = 0, pretend = 0, frame = 0
 1115              		@ frame_needed = 0, uses_anonymous_args = 0
 1116              	.LVL118:
 1117 0000 08B5     		push	{r3, lr}
 1118              	.LCFI14:
 1119              		.cfi_def_cfa_offset 8
 1120              		.cfi_offset 3, -8
 1121              		.cfi_offset 14, -4
 772:C:/Users/lenovo/Desktop/liteos/Project2/BearPi_LiteOS/components/security/mbedtls/mbedtls-2.6.0/library\aes.c ****     mbedtls_internal_aes_encrypt( ctx, input, output );
 1122              		.loc 1 772 0
 1123 0002 FFF7FEFF 		bl	mbedtls_internal_aes_encrypt
 1124              	.LVL119:
 773:C:/Users/lenovo/Desktop/liteos/Project2/BearPi_LiteOS/components/security/mbedtls/mbedtls-2.6.0/library\aes.c **** }
 1125              		.loc 1 773 0
 1126 0006 08BD     		pop	{r3, pc}
 1127              		.cfi_endproc
 1128              	.LFE6:
 1130              		.section	.text.mbedtls_internal_aes_decrypt,"ax",%progbits
ARM GAS  c:\Users\lenovo\AppData\Local\Temp\ccpYsKo5.s 			page 36


 1131              		.align	1
 1132              		.global	mbedtls_internal_aes_decrypt
 1133              		.syntax unified
 1134              		.thumb
 1135              		.thumb_func
 1136              		.fpu fpv4-sp-d16
 1138              	mbedtls_internal_aes_decrypt:
 1139              	.LFB7:
 774:C:/Users/lenovo/Desktop/liteos/Project2/BearPi_LiteOS/components/security/mbedtls/mbedtls-2.6.0/library\aes.c **** 
 775:C:/Users/lenovo/Desktop/liteos/Project2/BearPi_LiteOS/components/security/mbedtls/mbedtls-2.6.0/library\aes.c **** /*
 776:C:/Users/lenovo/Desktop/liteos/Project2/BearPi_LiteOS/components/security/mbedtls/mbedtls-2.6.0/library\aes.c ****  * AES-ECB block decryption
 777:C:/Users/lenovo/Desktop/liteos/Project2/BearPi_LiteOS/components/security/mbedtls/mbedtls-2.6.0/library\aes.c ****  */
 778:C:/Users/lenovo/Desktop/liteos/Project2/BearPi_LiteOS/components/security/mbedtls/mbedtls-2.6.0/library\aes.c **** #if !defined(MBEDTLS_AES_DECRYPT_ALT)
 779:C:/Users/lenovo/Desktop/liteos/Project2/BearPi_LiteOS/components/security/mbedtls/mbedtls-2.6.0/library\aes.c **** int mbedtls_internal_aes_decrypt( mbedtls_aes_context *ctx,
 780:C:/Users/lenovo/Desktop/liteos/Project2/BearPi_LiteOS/components/security/mbedtls/mbedtls-2.6.0/library\aes.c ****                                   const unsigned char input[16],
 781:C:/Users/lenovo/Desktop/liteos/Project2/BearPi_LiteOS/components/security/mbedtls/mbedtls-2.6.0/library\aes.c ****                                   unsigned char output[16] )
 782:C:/Users/lenovo/Desktop/liteos/Project2/BearPi_LiteOS/components/security/mbedtls/mbedtls-2.6.0/library\aes.c **** {
 1140              		.loc 1 782 0
 1141              		.cfi_startproc
 1142              		@ args = 0, pretend = 0, frame = 8
 1143              		@ frame_needed = 0, uses_anonymous_args = 0
 1144              	.LVL120:
 1145 0000 2DE9F04F 		push	{r4, r5, r6, r7, r8, r9, r10, fp, lr}
 1146              	.LCFI15:
 1147              		.cfi_def_cfa_offset 36
 1148              		.cfi_offset 4, -36
 1149              		.cfi_offset 5, -32
 1150              		.cfi_offset 6, -28
 1151              		.cfi_offset 7, -24
 1152              		.cfi_offset 8, -20
 1153              		.cfi_offset 9, -16
 1154              		.cfi_offset 10, -12
 1155              		.cfi_offset 11, -8
 1156              		.cfi_offset 14, -4
 1157 0004 83B0     		sub	sp, sp, #12
 1158              	.LCFI16:
 1159              		.cfi_def_cfa_offset 48
 1160 0006 0192     		str	r2, [sp, #4]
 783:C:/Users/lenovo/Desktop/liteos/Project2/BearPi_LiteOS/components/security/mbedtls/mbedtls-2.6.0/library\aes.c ****     int i;
 784:C:/Users/lenovo/Desktop/liteos/Project2/BearPi_LiteOS/components/security/mbedtls/mbedtls-2.6.0/library\aes.c ****     uint32_t *RK, X0, X1, X2, X3, Y0, Y1, Y2, Y3;
 785:C:/Users/lenovo/Desktop/liteos/Project2/BearPi_LiteOS/components/security/mbedtls/mbedtls-2.6.0/library\aes.c **** 
 786:C:/Users/lenovo/Desktop/liteos/Project2/BearPi_LiteOS/components/security/mbedtls/mbedtls-2.6.0/library\aes.c ****     RK = ctx->rk;
 1161              		.loc 1 786 0
 1162 0008 4468     		ldr	r4, [r0, #4]
 1163              	.LVL121:
 787:C:/Users/lenovo/Desktop/liteos/Project2/BearPi_LiteOS/components/security/mbedtls/mbedtls-2.6.0/library\aes.c **** 
 788:C:/Users/lenovo/Desktop/liteos/Project2/BearPi_LiteOS/components/security/mbedtls/mbedtls-2.6.0/library\aes.c ****     GET_UINT32_LE( X0, input,  0 ); X0 ^= *RK++;
 1164              		.loc 1 788 0
 1165 000a 91F800A0 		ldrb	r10, [r1]	@ zero_extendqisi2
 1166 000e 4B78     		ldrb	r3, [r1, #1]	@ zero_extendqisi2
 1167 0010 4AEA032A 		orr	r10, r10, r3, lsl #8
 1168 0014 8B78     		ldrb	r3, [r1, #2]	@ zero_extendqisi2
 1169 0016 4AEA034A 		orr	r10, r10, r3, lsl #16
 1170 001a CB78     		ldrb	r3, [r1, #3]	@ zero_extendqisi2
 1171 001c 4AEA036A 		orr	r10, r10, r3, lsl #24
 1172              	.LVL122:
 1173 0020 2368     		ldr	r3, [r4]
ARM GAS  c:\Users\lenovo\AppData\Local\Temp\ccpYsKo5.s 			page 37


 1174 0022 8AEA030A 		eor	r10, r10, r3
 1175              	.LVL123:
 789:C:/Users/lenovo/Desktop/liteos/Project2/BearPi_LiteOS/components/security/mbedtls/mbedtls-2.6.0/library\aes.c ****     GET_UINT32_LE( X1, input,  4 ); X1 ^= *RK++;
 1176              		.loc 1 789 0
 1177 0026 91F80490 		ldrb	r9, [r1, #4]	@ zero_extendqisi2
 1178 002a 4B79     		ldrb	r3, [r1, #5]	@ zero_extendqisi2
 1179 002c 49EA0329 		orr	r9, r9, r3, lsl #8
 1180 0030 8B79     		ldrb	r3, [r1, #6]	@ zero_extendqisi2
 1181 0032 49EA0349 		orr	r9, r9, r3, lsl #16
 1182 0036 CB79     		ldrb	r3, [r1, #7]	@ zero_extendqisi2
 1183 0038 49EA0369 		orr	r9, r9, r3, lsl #24
 1184              	.LVL124:
 1185 003c 6368     		ldr	r3, [r4, #4]
 1186 003e 89EA0309 		eor	r9, r9, r3
 1187              	.LVL125:
 790:C:/Users/lenovo/Desktop/liteos/Project2/BearPi_LiteOS/components/security/mbedtls/mbedtls-2.6.0/library\aes.c ****     GET_UINT32_LE( X2, input,  8 ); X2 ^= *RK++;
 1188              		.loc 1 790 0
 1189 0042 0B7A     		ldrb	r3, [r1, #8]	@ zero_extendqisi2
 1190 0044 4A7A     		ldrb	r2, [r1, #9]	@ zero_extendqisi2
 1191              	.LVL126:
 1192 0046 43EA0223 		orr	r3, r3, r2, lsl #8
 1193 004a 8A7A     		ldrb	r2, [r1, #10]	@ zero_extendqisi2
 1194 004c 43EA0243 		orr	r3, r3, r2, lsl #16
 1195 0050 CA7A     		ldrb	r2, [r1, #11]	@ zero_extendqisi2
 1196 0052 43EA0263 		orr	r3, r3, r2, lsl #24
 1197              	.LVL127:
 1198 0056 A268     		ldr	r2, [r4, #8]
 1199 0058 5340     		eors	r3, r3, r2
 1200              	.LVL128:
 791:C:/Users/lenovo/Desktop/liteos/Project2/BearPi_LiteOS/components/security/mbedtls/mbedtls-2.6.0/library\aes.c ****     GET_UINT32_LE( X3, input, 12 ); X3 ^= *RK++;
 1201              		.loc 1 791 0
 1202 005a 0A7B     		ldrb	r2, [r1, #12]	@ zero_extendqisi2
 1203 005c 4D7B     		ldrb	r5, [r1, #13]	@ zero_extendqisi2
 1204 005e 42EA0522 		orr	r2, r2, r5, lsl #8
 1205 0062 8D7B     		ldrb	r5, [r1, #14]	@ zero_extendqisi2
 1206 0064 42EA0542 		orr	r2, r2, r5, lsl #16
 1207 0068 C97B     		ldrb	r1, [r1, #15]	@ zero_extendqisi2
 1208              	.LVL129:
 1209 006a 42EA0162 		orr	r2, r2, r1, lsl #24
 1210              	.LVL130:
 1211 006e 04F11006 		add	r6, r4, #16
 1212              	.LVL131:
 1213 0072 E168     		ldr	r1, [r4, #12]
 1214 0074 4A40     		eors	r2, r2, r1
 1215              	.LVL132:
 792:C:/Users/lenovo/Desktop/liteos/Project2/BearPi_LiteOS/components/security/mbedtls/mbedtls-2.6.0/library\aes.c **** 
 793:C:/Users/lenovo/Desktop/liteos/Project2/BearPi_LiteOS/components/security/mbedtls/mbedtls-2.6.0/library\aes.c ****     for( i = ( ctx->nr >> 1 ) - 1; i > 0; i-- )
 1216              		.loc 1 793 0
 1217 0076 0168     		ldr	r1, [r0]
 1218 0078 4FEA610B 		asr	fp, r1, #1
 1219 007c 0BF1FF3B 		add	fp, fp, #-1
 1220              	.LVL133:
 1221 0080 BDE0     		b	.L59
 1222              	.LVL134:
 1223              	.L60:
 794:C:/Users/lenovo/Desktop/liteos/Project2/BearPi_LiteOS/components/security/mbedtls/mbedtls-2.6.0/library\aes.c ****     {
 795:C:/Users/lenovo/Desktop/liteos/Project2/BearPi_LiteOS/components/security/mbedtls/mbedtls-2.6.0/library\aes.c ****         AES_RROUND( Y0, Y1, Y2, Y3, X0, X1, X2, X3 );
ARM GAS  c:\Users\lenovo\AppData\Local\Temp\ccpYsKo5.s 			page 38


 1224              		.loc 1 795 0 discriminator 3
 1225 0082 3168     		ldr	r1, [r6]
 1226 0084 5FFA8AF0 		uxtb	r0, r10
 1227 0088 CA4F     		ldr	r7, .L62
 1228 008a 57F82000 		ldr	r0, [r7, r0, lsl #2]
 1229 008e 81EA0008 		eor	r8, r1, r0
 1230 0092 C2F30721 		ubfx	r1, r2, #8, #8
 1231 0096 C84C     		ldr	r4, .L62+4
 1232 0098 54F82110 		ldr	r1, [r4, r1, lsl #2]
 1233 009c 88EA0108 		eor	r8, r8, r1
 1234 00a0 C3F30741 		ubfx	r1, r3, #16, #8
 1235 00a4 C548     		ldr	r0, .L62+8
 1236 00a6 50F82110 		ldr	r1, [r0, r1, lsl #2]
 1237 00aa 88EA0108 		eor	r8, r8, r1
 1238 00ae 4FEA1965 		lsr	r5, r9, #24
 1239 00b2 C349     		ldr	r1, .L62+12
 1240 00b4 51F82550 		ldr	r5, [r1, r5, lsl #2]
 1241 00b8 88EA0508 		eor	r8, r8, r5
 1242              	.LVL135:
 1243 00bc 5FFA89FC 		uxtb	ip, r9
 1244 00c0 57F82CC0 		ldr	ip, [r7, ip, lsl #2]
 1245 00c4 7568     		ldr	r5, [r6, #4]
 1246 00c6 85EA0C0E 		eor	lr, r5, ip
 1247 00ca CAF30725 		ubfx	r5, r10, #8, #8
 1248 00ce 54F82550 		ldr	r5, [r4, r5, lsl #2]
 1249 00d2 8EEA050E 		eor	lr, lr, r5
 1250 00d6 C2F30745 		ubfx	r5, r2, #16, #8
 1251 00da 50F82550 		ldr	r5, [r0, r5, lsl #2]
 1252 00de 8EEA050E 		eor	lr, lr, r5
 1253 00e2 1D0E     		lsrs	r5, r3, #24
 1254 00e4 51F82550 		ldr	r5, [r1, r5, lsl #2]
 1255 00e8 8EEA050E 		eor	lr, lr, r5
 1256              	.LVL136:
 1257 00ec 5FFA83FC 		uxtb	ip, r3
 1258 00f0 57F82CC0 		ldr	ip, [r7, ip, lsl #2]
 1259 00f4 B568     		ldr	r5, [r6, #8]
 1260 00f6 85EA0C0C 		eor	ip, r5, ip
 1261 00fa C9F30725 		ubfx	r5, r9, #8, #8
 1262 00fe 54F82550 		ldr	r5, [r4, r5, lsl #2]
 1263 0102 8CEA050C 		eor	ip, ip, r5
 1264 0106 CAF30745 		ubfx	r5, r10, #16, #8
 1265 010a 50F82550 		ldr	r5, [r0, r5, lsl #2]
 1266 010e 8CEA050C 		eor	ip, ip, r5
 1267 0112 150E     		lsrs	r5, r2, #24
 1268 0114 51F82550 		ldr	r5, [r1, r5, lsl #2]
 1269 0118 8CEA050C 		eor	ip, ip, r5
 1270              	.LVL137:
 1271 011c F568     		ldr	r5, [r6, #12]
 1272 011e D2B2     		uxtb	r2, r2
 1273              	.LVL138:
 1274 0120 57F82220 		ldr	r2, [r7, r2, lsl #2]
 1275 0124 5540     		eors	r5, r5, r2
 1276 0126 C3F30723 		ubfx	r3, r3, #8, #8
 1277              	.LVL139:
 1278 012a 54F82330 		ldr	r3, [r4, r3, lsl #2]
 1279 012e 5D40     		eors	r5, r5, r3
 1280 0130 C9F30749 		ubfx	r9, r9, #16, #8
ARM GAS  c:\Users\lenovo\AppData\Local\Temp\ccpYsKo5.s 			page 39


 1281              	.LVL140:
 1282 0134 50F82930 		ldr	r3, [r0, r9, lsl #2]
 1283 0138 5D40     		eors	r5, r5, r3
 1284 013a 4FEA1A6A 		lsr	r10, r10, #24
 1285              	.LVL141:
 1286 013e 51F82A30 		ldr	r3, [r1, r10, lsl #2]
 1287 0142 5D40     		eors	r5, r5, r3
 1288              	.LVL142:
 796:C:/Users/lenovo/Desktop/liteos/Project2/BearPi_LiteOS/components/security/mbedtls/mbedtls-2.6.0/library\aes.c ****         AES_RROUND( X0, X1, X2, X3, Y0, Y1, Y2, Y3 );
 1289              		.loc 1 796 0 discriminator 3
 1290 0144 3369     		ldr	r3, [r6, #16]
 1291 0146 5FFA88F2 		uxtb	r2, r8
 1292 014a 57F82220 		ldr	r2, [r7, r2, lsl #2]
 1293 014e 83EA020A 		eor	r10, r3, r2
 1294 0152 C5F30723 		ubfx	r3, r5, #8, #8
 1295 0156 54F82330 		ldr	r3, [r4, r3, lsl #2]
 1296 015a 8AEA030A 		eor	r10, r10, r3
 1297 015e CCF30743 		ubfx	r3, ip, #16, #8
 1298 0162 50F82330 		ldr	r3, [r0, r3, lsl #2]
 1299 0166 8AEA030A 		eor	r10, r10, r3
 1300 016a 4FEA1E63 		lsr	r3, lr, #24
 1301 016e 51F82330 		ldr	r3, [r1, r3, lsl #2]
 1302 0172 8AEA030A 		eor	r10, r10, r3
 1303              	.LVL143:
 1304 0176 7369     		ldr	r3, [r6, #20]
 1305 0178 5FFA8EF2 		uxtb	r2, lr
 1306 017c 57F82220 		ldr	r2, [r7, r2, lsl #2]
 1307 0180 83EA0209 		eor	r9, r3, r2
 1308 0184 C8F30723 		ubfx	r3, r8, #8, #8
 1309 0188 54F82330 		ldr	r3, [r4, r3, lsl #2]
 1310 018c 89EA0309 		eor	r9, r9, r3
 1311 0190 C5F30743 		ubfx	r3, r5, #16, #8
 1312 0194 50F82330 		ldr	r3, [r0, r3, lsl #2]
 1313 0198 89EA0309 		eor	r9, r9, r3
 1314 019c 4FEA1C63 		lsr	r3, ip, #24
 1315 01a0 51F82330 		ldr	r3, [r1, r3, lsl #2]
 1316 01a4 89EA0309 		eor	r9, r9, r3
 1317              	.LVL144:
 1318 01a8 B369     		ldr	r3, [r6, #24]
 1319 01aa 5FFA8CF2 		uxtb	r2, ip
 1320 01ae 57F82220 		ldr	r2, [r7, r2, lsl #2]
 1321 01b2 5340     		eors	r3, r3, r2
 1322 01b4 CEF30722 		ubfx	r2, lr, #8, #8
 1323 01b8 54F82220 		ldr	r2, [r4, r2, lsl #2]
 1324 01bc 5340     		eors	r3, r3, r2
 1325 01be C8F30742 		ubfx	r2, r8, #16, #8
 1326 01c2 50F82220 		ldr	r2, [r0, r2, lsl #2]
 1327 01c6 5340     		eors	r3, r3, r2
 1328 01c8 2A0E     		lsrs	r2, r5, #24
 1329 01ca 51F82220 		ldr	r2, [r1, r2, lsl #2]
 1330 01ce 5340     		eors	r3, r3, r2
 1331              	.LVL145:
 1332 01d0 F269     		ldr	r2, [r6, #28]
 1333 01d2 EDB2     		uxtb	r5, r5
 1334              	.LVL146:
 1335 01d4 57F82550 		ldr	r5, [r7, r5, lsl #2]
 1336 01d8 6A40     		eors	r2, r2, r5
ARM GAS  c:\Users\lenovo\AppData\Local\Temp\ccpYsKo5.s 			page 40


 1337 01da CCF3072C 		ubfx	ip, ip, #8, #8
 1338              	.LVL147:
 1339 01de 54F82C40 		ldr	r4, [r4, ip, lsl #2]
 1340 01e2 6240     		eors	r2, r2, r4
 1341 01e4 CEF3074E 		ubfx	lr, lr, #16, #8
 1342              	.LVL148:
 1343 01e8 50F82E00 		ldr	r0, [r0, lr, lsl #2]
 1344 01ec 4240     		eors	r2, r2, r0
 1345 01ee 4FEA1868 		lsr	r8, r8, #24
 1346              	.LVL149:
 1347 01f2 51F82810 		ldr	r1, [r1, r8, lsl #2]
 1348 01f6 4A40     		eors	r2, r2, r1
 1349              	.LVL150:
 793:C:/Users/lenovo/Desktop/liteos/Project2/BearPi_LiteOS/components/security/mbedtls/mbedtls-2.6.0/library\aes.c ****     {
 1350              		.loc 1 793 0 discriminator 3
 1351 01f8 0BF1FF3B 		add	fp, fp, #-1
 1352              	.LVL151:
 1353              		.loc 1 796 0 discriminator 3
 1354 01fc 2036     		adds	r6, r6, #32
 1355              	.LVL152:
 1356              	.L59:
 793:C:/Users/lenovo/Desktop/liteos/Project2/BearPi_LiteOS/components/security/mbedtls/mbedtls-2.6.0/library\aes.c ****     {
 1357              		.loc 1 793 0 discriminator 1
 1358 01fe BBF1000F 		cmp	fp, #0
 1359 0202 3FF73EAF 		bgt	.L60
 1360              	.LVL153:
 797:C:/Users/lenovo/Desktop/liteos/Project2/BearPi_LiteOS/components/security/mbedtls/mbedtls-2.6.0/library\aes.c ****     }
 798:C:/Users/lenovo/Desktop/liteos/Project2/BearPi_LiteOS/components/security/mbedtls/mbedtls-2.6.0/library\aes.c **** 
 799:C:/Users/lenovo/Desktop/liteos/Project2/BearPi_LiteOS/components/security/mbedtls/mbedtls-2.6.0/library\aes.c ****     AES_RROUND( Y0, Y1, Y2, Y3, X0, X1, X2, X3 );
 1361              		.loc 1 799 0
 1362 0206 3168     		ldr	r1, [r6]
 1363 0208 5FFA8AF0 		uxtb	r0, r10
 1364 020c DFF8A4C1 		ldr	ip, .L62
 1365 0210 5CF82000 		ldr	r0, [ip, r0, lsl #2]
 1366 0214 4140     		eors	r1, r1, r0
 1367 0216 C2F30720 		ubfx	r0, r2, #8, #8
 1368 021a 674F     		ldr	r7, .L62+4
 1369 021c 57F82000 		ldr	r0, [r7, r0, lsl #2]
 1370 0220 4140     		eors	r1, r1, r0
 1371 0222 C3F30740 		ubfx	r0, r3, #16, #8
 1372 0226 654D     		ldr	r5, .L62+8
 1373 0228 55F82000 		ldr	r0, [r5, r0, lsl #2]
 1374 022c 4140     		eors	r1, r1, r0
 1375 022e 4FEA1960 		lsr	r0, r9, #24
 1376 0232 634C     		ldr	r4, .L62+12
 1377 0234 54F82000 		ldr	r0, [r4, r0, lsl #2]
 1378 0238 4140     		eors	r1, r1, r0
 1379              	.LVL154:
 1380 023a 5FFA89FE 		uxtb	lr, r9
 1381 023e 5CF82EE0 		ldr	lr, [ip, lr, lsl #2]
 1382 0242 7068     		ldr	r0, [r6, #4]
 1383 0244 80EA0E0E 		eor	lr, r0, lr
 1384 0248 CAF30720 		ubfx	r0, r10, #8, #8
 1385 024c 57F82000 		ldr	r0, [r7, r0, lsl #2]
 1386 0250 8EEA000E 		eor	lr, lr, r0
 1387 0254 C2F30740 		ubfx	r0, r2, #16, #8
 1388 0258 55F82000 		ldr	r0, [r5, r0, lsl #2]
ARM GAS  c:\Users\lenovo\AppData\Local\Temp\ccpYsKo5.s 			page 41


 1389 025c 8EEA000E 		eor	lr, lr, r0
 1390 0260 180E     		lsrs	r0, r3, #24
 1391 0262 54F82000 		ldr	r0, [r4, r0, lsl #2]
 1392 0266 8EEA000E 		eor	lr, lr, r0
 1393              	.LVL155:
 1394 026a 5FFA83F8 		uxtb	r8, r3
 1395 026e 5CF82880 		ldr	r8, [ip, r8, lsl #2]
 1396 0272 B068     		ldr	r0, [r6, #8]
 1397 0274 80EA0808 		eor	r8, r0, r8
 1398 0278 C9F30720 		ubfx	r0, r9, #8, #8
 1399 027c 57F82000 		ldr	r0, [r7, r0, lsl #2]
 1400 0280 88EA0008 		eor	r8, r8, r0
 1401 0284 CAF30740 		ubfx	r0, r10, #16, #8
 1402 0288 55F82000 		ldr	r0, [r5, r0, lsl #2]
 1403 028c 88EA0008 		eor	r8, r8, r0
 1404 0290 100E     		lsrs	r0, r2, #24
 1405 0292 54F82000 		ldr	r0, [r4, r0, lsl #2]
 1406 0296 88EA0008 		eor	r8, r8, r0
 1407              	.LVL156:
 1408 029a F068     		ldr	r0, [r6, #12]
 1409 029c D2B2     		uxtb	r2, r2
 1410              	.LVL157:
 1411 029e 5CF82220 		ldr	r2, [ip, r2, lsl #2]
 1412 02a2 5040     		eors	r0, r0, r2
 1413 02a4 C3F30723 		ubfx	r3, r3, #8, #8
 1414              	.LVL158:
 1415 02a8 57F82370 		ldr	r7, [r7, r3, lsl #2]
 1416 02ac 4740     		eors	r7, r7, r0
 1417 02ae C9F30749 		ubfx	r9, r9, #16, #8
 1418              	.LVL159:
 1419 02b2 55F82900 		ldr	r0, [r5, r9, lsl #2]
 1420 02b6 4740     		eors	r7, r7, r0
 1421 02b8 4FEA1A6A 		lsr	r10, r10, #24
 1422              	.LVL160:
 1423 02bc 54F82A30 		ldr	r3, [r4, r10, lsl #2]
 1424 02c0 5F40     		eors	r7, r7, r3
 1425              	.LVL161:
 800:C:/Users/lenovo/Desktop/liteos/Project2/BearPi_LiteOS/components/security/mbedtls/mbedtls-2.6.0/library\aes.c **** 
 801:C:/Users/lenovo/Desktop/liteos/Project2/BearPi_LiteOS/components/security/mbedtls/mbedtls-2.6.0/library\aes.c ****     X0 = *RK++ ^ \
 1426              		.loc 1 801 0
 1427 02c2 3269     		ldr	r2, [r6, #16]
 802:C:/Users/lenovo/Desktop/liteos/Project2/BearPi_LiteOS/components/security/mbedtls/mbedtls-2.6.0/library\aes.c ****             ( (uint32_t) RSb[ ( Y0       ) & 0xFF ]       ) ^
 1428              		.loc 1 802 0
 1429 02c4 C8B2     		uxtb	r0, r1
 1430 02c6 3F4B     		ldr	r3, .L62+16
 1431 02c8 1C5C     		ldrb	r4, [r3, r0]	@ zero_extendqisi2
 801:C:/Users/lenovo/Desktop/liteos/Project2/BearPi_LiteOS/components/security/mbedtls/mbedtls-2.6.0/library\aes.c ****             ( (uint32_t) RSb[ ( Y0       ) & 0xFF ]       ) ^
 1432              		.loc 1 801 0
 1433 02ca 5440     		eors	r4, r4, r2
 803:C:/Users/lenovo/Desktop/liteos/Project2/BearPi_LiteOS/components/security/mbedtls/mbedtls-2.6.0/library\aes.c ****             ( (uint32_t) RSb[ ( Y3 >>  8 ) & 0xFF ] <<  8 ) ^
 1434              		.loc 1 803 0
 1435 02cc C7F30722 		ubfx	r2, r7, #8, #8
 1436 02d0 9A5C     		ldrb	r2, [r3, r2]	@ zero_extendqisi2
 802:C:/Users/lenovo/Desktop/liteos/Project2/BearPi_LiteOS/components/security/mbedtls/mbedtls-2.6.0/library\aes.c ****             ( (uint32_t) RSb[ ( Y0       ) & 0xFF ]       ) ^
 1437              		.loc 1 802 0
 1438 02d2 84EA0224 		eor	r4, r4, r2, lsl #8
 804:C:/Users/lenovo/Desktop/liteos/Project2/BearPi_LiteOS/components/security/mbedtls/mbedtls-2.6.0/library\aes.c ****             ( (uint32_t) RSb[ ( Y2 >> 16 ) & 0xFF ] << 16 ) ^
ARM GAS  c:\Users\lenovo\AppData\Local\Temp\ccpYsKo5.s 			page 42


 1439              		.loc 1 804 0
 1440 02d6 C8F30742 		ubfx	r2, r8, #16, #8
 1441 02da 9A5C     		ldrb	r2, [r3, r2]	@ zero_extendqisi2
 803:C:/Users/lenovo/Desktop/liteos/Project2/BearPi_LiteOS/components/security/mbedtls/mbedtls-2.6.0/library\aes.c ****             ( (uint32_t) RSb[ ( Y3 >>  8 ) & 0xFF ] <<  8 ) ^
 1442              		.loc 1 803 0
 1443 02dc 84EA0244 		eor	r4, r4, r2, lsl #16
 805:C:/Users/lenovo/Desktop/liteos/Project2/BearPi_LiteOS/components/security/mbedtls/mbedtls-2.6.0/library\aes.c ****             ( (uint32_t) RSb[ ( Y1 >> 24 ) & 0xFF ] << 24 );
 1444              		.loc 1 805 0
 1445 02e0 4FEA1E62 		lsr	r2, lr, #24
 1446 02e4 9A5C     		ldrb	r2, [r3, r2]	@ zero_extendqisi2
 801:C:/Users/lenovo/Desktop/liteos/Project2/BearPi_LiteOS/components/security/mbedtls/mbedtls-2.6.0/library\aes.c ****             ( (uint32_t) RSb[ ( Y0       ) & 0xFF ]       ) ^
 1447              		.loc 1 801 0
 1448 02e6 84EA0264 		eor	r4, r4, r2, lsl #24
 1449              	.LVL162:
 806:C:/Users/lenovo/Desktop/liteos/Project2/BearPi_LiteOS/components/security/mbedtls/mbedtls-2.6.0/library\aes.c **** 
 807:C:/Users/lenovo/Desktop/liteos/Project2/BearPi_LiteOS/components/security/mbedtls/mbedtls-2.6.0/library\aes.c ****     X1 = *RK++ ^ \
 1450              		.loc 1 807 0
 1451 02ea 7269     		ldr	r2, [r6, #20]
 808:C:/Users/lenovo/Desktop/liteos/Project2/BearPi_LiteOS/components/security/mbedtls/mbedtls-2.6.0/library\aes.c ****             ( (uint32_t) RSb[ ( Y1       ) & 0xFF ]       ) ^
 1452              		.loc 1 808 0
 1453 02ec 5FFA8EF0 		uxtb	r0, lr
 1454 02f0 185C     		ldrb	r0, [r3, r0]	@ zero_extendqisi2
 807:C:/Users/lenovo/Desktop/liteos/Project2/BearPi_LiteOS/components/security/mbedtls/mbedtls-2.6.0/library\aes.c ****             ( (uint32_t) RSb[ ( Y1       ) & 0xFF ]       ) ^
 1455              		.loc 1 807 0
 1456 02f2 5040     		eors	r0, r0, r2
 809:C:/Users/lenovo/Desktop/liteos/Project2/BearPi_LiteOS/components/security/mbedtls/mbedtls-2.6.0/library\aes.c ****             ( (uint32_t) RSb[ ( Y0 >>  8 ) & 0xFF ] <<  8 ) ^
 1457              		.loc 1 809 0
 1458 02f4 C1F30722 		ubfx	r2, r1, #8, #8
 1459 02f8 9A5C     		ldrb	r2, [r3, r2]	@ zero_extendqisi2
 808:C:/Users/lenovo/Desktop/liteos/Project2/BearPi_LiteOS/components/security/mbedtls/mbedtls-2.6.0/library\aes.c ****             ( (uint32_t) RSb[ ( Y1       ) & 0xFF ]       ) ^
 1460              		.loc 1 808 0
 1461 02fa 80EA0220 		eor	r0, r0, r2, lsl #8
 810:C:/Users/lenovo/Desktop/liteos/Project2/BearPi_LiteOS/components/security/mbedtls/mbedtls-2.6.0/library\aes.c ****             ( (uint32_t) RSb[ ( Y3 >> 16 ) & 0xFF ] << 16 ) ^
 1462              		.loc 1 810 0
 1463 02fe C7F30742 		ubfx	r2, r7, #16, #8
 1464 0302 9A5C     		ldrb	r2, [r3, r2]	@ zero_extendqisi2
 809:C:/Users/lenovo/Desktop/liteos/Project2/BearPi_LiteOS/components/security/mbedtls/mbedtls-2.6.0/library\aes.c ****             ( (uint32_t) RSb[ ( Y0 >>  8 ) & 0xFF ] <<  8 ) ^
 1465              		.loc 1 809 0
 1466 0304 80EA0240 		eor	r0, r0, r2, lsl #16
 811:C:/Users/lenovo/Desktop/liteos/Project2/BearPi_LiteOS/components/security/mbedtls/mbedtls-2.6.0/library\aes.c ****             ( (uint32_t) RSb[ ( Y2 >> 24 ) & 0xFF ] << 24 );
 1467              		.loc 1 811 0
 1468 0308 4FEA1862 		lsr	r2, r8, #24
 1469 030c 9A5C     		ldrb	r2, [r3, r2]	@ zero_extendqisi2
 807:C:/Users/lenovo/Desktop/liteos/Project2/BearPi_LiteOS/components/security/mbedtls/mbedtls-2.6.0/library\aes.c ****             ( (uint32_t) RSb[ ( Y1       ) & 0xFF ]       ) ^
 1470              		.loc 1 807 0
 1471 030e 80EA0260 		eor	r0, r0, r2, lsl #24
 1472              	.LVL163:
 812:C:/Users/lenovo/Desktop/liteos/Project2/BearPi_LiteOS/components/security/mbedtls/mbedtls-2.6.0/library\aes.c **** 
 813:C:/Users/lenovo/Desktop/liteos/Project2/BearPi_LiteOS/components/security/mbedtls/mbedtls-2.6.0/library\aes.c ****     X2 = *RK++ ^ \
 1473              		.loc 1 813 0
 1474 0312 B269     		ldr	r2, [r6, #24]
 814:C:/Users/lenovo/Desktop/liteos/Project2/BearPi_LiteOS/components/security/mbedtls/mbedtls-2.6.0/library\aes.c ****             ( (uint32_t) RSb[ ( Y2       ) & 0xFF ]       ) ^
 1475              		.loc 1 814 0
 1476 0314 5FFA88F5 		uxtb	r5, r8
 1477 0318 5D5D     		ldrb	r5, [r3, r5]	@ zero_extendqisi2
 813:C:/Users/lenovo/Desktop/liteos/Project2/BearPi_LiteOS/components/security/mbedtls/mbedtls-2.6.0/library\aes.c ****             ( (uint32_t) RSb[ ( Y2       ) & 0xFF ]       ) ^
 1478              		.loc 1 813 0
ARM GAS  c:\Users\lenovo\AppData\Local\Temp\ccpYsKo5.s 			page 43


 1479 031a 5540     		eors	r5, r5, r2
 815:C:/Users/lenovo/Desktop/liteos/Project2/BearPi_LiteOS/components/security/mbedtls/mbedtls-2.6.0/library\aes.c ****             ( (uint32_t) RSb[ ( Y1 >>  8 ) & 0xFF ] <<  8 ) ^
 1480              		.loc 1 815 0
 1481 031c CEF30722 		ubfx	r2, lr, #8, #8
 1482 0320 9A5C     		ldrb	r2, [r3, r2]	@ zero_extendqisi2
 814:C:/Users/lenovo/Desktop/liteos/Project2/BearPi_LiteOS/components/security/mbedtls/mbedtls-2.6.0/library\aes.c ****             ( (uint32_t) RSb[ ( Y2       ) & 0xFF ]       ) ^
 1483              		.loc 1 814 0
 1484 0322 85EA0225 		eor	r5, r5, r2, lsl #8
 816:C:/Users/lenovo/Desktop/liteos/Project2/BearPi_LiteOS/components/security/mbedtls/mbedtls-2.6.0/library\aes.c ****             ( (uint32_t) RSb[ ( Y0 >> 16 ) & 0xFF ] << 16 ) ^
 1485              		.loc 1 816 0
 1486 0326 C1F30742 		ubfx	r2, r1, #16, #8
 1487 032a 9A5C     		ldrb	r2, [r3, r2]	@ zero_extendqisi2
 815:C:/Users/lenovo/Desktop/liteos/Project2/BearPi_LiteOS/components/security/mbedtls/mbedtls-2.6.0/library\aes.c ****             ( (uint32_t) RSb[ ( Y1 >>  8 ) & 0xFF ] <<  8 ) ^
 1488              		.loc 1 815 0
 1489 032c 85EA0245 		eor	r5, r5, r2, lsl #16
 817:C:/Users/lenovo/Desktop/liteos/Project2/BearPi_LiteOS/components/security/mbedtls/mbedtls-2.6.0/library\aes.c ****             ( (uint32_t) RSb[ ( Y3 >> 24 ) & 0xFF ] << 24 );
 1490              		.loc 1 817 0
 1491 0330 3A0E     		lsrs	r2, r7, #24
 1492 0332 9A5C     		ldrb	r2, [r3, r2]	@ zero_extendqisi2
 813:C:/Users/lenovo/Desktop/liteos/Project2/BearPi_LiteOS/components/security/mbedtls/mbedtls-2.6.0/library\aes.c ****             ( (uint32_t) RSb[ ( Y2       ) & 0xFF ]       ) ^
 1493              		.loc 1 813 0
 1494 0334 85EA0265 		eor	r5, r5, r2, lsl #24
 1495              	.LVL164:
 818:C:/Users/lenovo/Desktop/liteos/Project2/BearPi_LiteOS/components/security/mbedtls/mbedtls-2.6.0/library\aes.c **** 
 819:C:/Users/lenovo/Desktop/liteos/Project2/BearPi_LiteOS/components/security/mbedtls/mbedtls-2.6.0/library\aes.c ****     X3 = *RK++ ^ \
 1496              		.loc 1 819 0
 1497 0338 F269     		ldr	r2, [r6, #28]
 820:C:/Users/lenovo/Desktop/liteos/Project2/BearPi_LiteOS/components/security/mbedtls/mbedtls-2.6.0/library\aes.c ****             ( (uint32_t) RSb[ ( Y3       ) & 0xFF ]       ) ^
 1498              		.loc 1 820 0
 1499 033a FFB2     		uxtb	r7, r7
 1500              	.LVL165:
 1501 033c DE5D     		ldrb	r6, [r3, r7]	@ zero_extendqisi2
 1502              	.LVL166:
 819:C:/Users/lenovo/Desktop/liteos/Project2/BearPi_LiteOS/components/security/mbedtls/mbedtls-2.6.0/library\aes.c ****             ( (uint32_t) RSb[ ( Y3       ) & 0xFF ]       ) ^
 1503              		.loc 1 819 0
 1504 033e 7240     		eors	r2, r2, r6
 821:C:/Users/lenovo/Desktop/liteos/Project2/BearPi_LiteOS/components/security/mbedtls/mbedtls-2.6.0/library\aes.c ****             ( (uint32_t) RSb[ ( Y2 >>  8 ) & 0xFF ] <<  8 ) ^
 1505              		.loc 1 821 0
 1506 0340 C8F30728 		ubfx	r8, r8, #8, #8
 1507              	.LVL167:
 1508 0344 13F80860 		ldrb	r6, [r3, r8]	@ zero_extendqisi2
 820:C:/Users/lenovo/Desktop/liteos/Project2/BearPi_LiteOS/components/security/mbedtls/mbedtls-2.6.0/library\aes.c ****             ( (uint32_t) RSb[ ( Y3       ) & 0xFF ]       ) ^
 1509              		.loc 1 820 0
 1510 0348 82EA0622 		eor	r2, r2, r6, lsl #8
 822:C:/Users/lenovo/Desktop/liteos/Project2/BearPi_LiteOS/components/security/mbedtls/mbedtls-2.6.0/library\aes.c ****             ( (uint32_t) RSb[ ( Y1 >> 16 ) & 0xFF ] << 16 ) ^
 1511              		.loc 1 822 0
 1512 034c CEF3074E 		ubfx	lr, lr, #16, #8
 1513              	.LVL168:
 1514 0350 13F80E60 		ldrb	r6, [r3, lr]	@ zero_extendqisi2
 821:C:/Users/lenovo/Desktop/liteos/Project2/BearPi_LiteOS/components/security/mbedtls/mbedtls-2.6.0/library\aes.c ****             ( (uint32_t) RSb[ ( Y2 >>  8 ) & 0xFF ] <<  8 ) ^
 1515              		.loc 1 821 0
 1516 0354 82EA0642 		eor	r2, r2, r6, lsl #16
 823:C:/Users/lenovo/Desktop/liteos/Project2/BearPi_LiteOS/components/security/mbedtls/mbedtls-2.6.0/library\aes.c ****             ( (uint32_t) RSb[ ( Y0 >> 24 ) & 0xFF ] << 24 );
 1517              		.loc 1 823 0
 1518 0358 090E     		lsrs	r1, r1, #24
 1519              	.LVL169:
 1520 035a 5B5C     		ldrb	r3, [r3, r1]	@ zero_extendqisi2
ARM GAS  c:\Users\lenovo\AppData\Local\Temp\ccpYsKo5.s 			page 44


 819:C:/Users/lenovo/Desktop/liteos/Project2/BearPi_LiteOS/components/security/mbedtls/mbedtls-2.6.0/library\aes.c ****             ( (uint32_t) RSb[ ( Y3       ) & 0xFF ]       ) ^
 1521              		.loc 1 819 0
 1522 035c 82EA0363 		eor	r3, r2, r3, lsl #24
 1523              	.LVL170:
 824:C:/Users/lenovo/Desktop/liteos/Project2/BearPi_LiteOS/components/security/mbedtls/mbedtls-2.6.0/library\aes.c **** 
 825:C:/Users/lenovo/Desktop/liteos/Project2/BearPi_LiteOS/components/security/mbedtls/mbedtls-2.6.0/library\aes.c ****     PUT_UINT32_LE( X0, output,  0 );
 1524              		.loc 1 825 0
 1525 0360 0199     		ldr	r1, [sp, #4]
 1526 0362 0C70     		strb	r4, [r1]
 1527 0364 C4F30722 		ubfx	r2, r4, #8, #8
 1528 0368 4A70     		strb	r2, [r1, #1]
 1529 036a C4F30742 		ubfx	r2, r4, #16, #8
 1530 036e 8A70     		strb	r2, [r1, #2]
 1531 0370 240E     		lsrs	r4, r4, #24
 1532              	.LVL171:
 1533 0372 CC70     		strb	r4, [r1, #3]
 826:C:/Users/lenovo/Desktop/liteos/Project2/BearPi_LiteOS/components/security/mbedtls/mbedtls-2.6.0/library\aes.c ****     PUT_UINT32_LE( X1, output,  4 );
 1534              		.loc 1 826 0
 1535 0374 0871     		strb	r0, [r1, #4]
 1536 0376 C0F30722 		ubfx	r2, r0, #8, #8
 1537 037a 4A71     		strb	r2, [r1, #5]
 1538 037c C0F30742 		ubfx	r2, r0, #16, #8
 1539 0380 8A71     		strb	r2, [r1, #6]
 1540 0382 000E     		lsrs	r0, r0, #24
 1541              	.LVL172:
 1542 0384 C871     		strb	r0, [r1, #7]
 827:C:/Users/lenovo/Desktop/liteos/Project2/BearPi_LiteOS/components/security/mbedtls/mbedtls-2.6.0/library\aes.c ****     PUT_UINT32_LE( X2, output,  8 );
 1543              		.loc 1 827 0
 1544 0386 0D72     		strb	r5, [r1, #8]
 1545 0388 C5F30722 		ubfx	r2, r5, #8, #8
 1546 038c 4A72     		strb	r2, [r1, #9]
 1547 038e C5F30742 		ubfx	r2, r5, #16, #8
 1548 0392 8A72     		strb	r2, [r1, #10]
 1549 0394 2D0E     		lsrs	r5, r5, #24
 1550              	.LVL173:
 1551 0396 CD72     		strb	r5, [r1, #11]
 828:C:/Users/lenovo/Desktop/liteos/Project2/BearPi_LiteOS/components/security/mbedtls/mbedtls-2.6.0/library\aes.c ****     PUT_UINT32_LE( X3, output, 12 );
 1552              		.loc 1 828 0
 1553 0398 0B73     		strb	r3, [r1, #12]
 1554 039a C3F30722 		ubfx	r2, r3, #8, #8
 1555 039e 4A73     		strb	r2, [r1, #13]
 1556 03a0 C3F30742 		ubfx	r2, r3, #16, #8
 1557 03a4 8A73     		strb	r2, [r1, #14]
 1558 03a6 1B0E     		lsrs	r3, r3, #24
 1559              	.LVL174:
 1560 03a8 CB73     		strb	r3, [r1, #15]
 829:C:/Users/lenovo/Desktop/liteos/Project2/BearPi_LiteOS/components/security/mbedtls/mbedtls-2.6.0/library\aes.c **** 
 830:C:/Users/lenovo/Desktop/liteos/Project2/BearPi_LiteOS/components/security/mbedtls/mbedtls-2.6.0/library\aes.c ****     return( 0 );
 831:C:/Users/lenovo/Desktop/liteos/Project2/BearPi_LiteOS/components/security/mbedtls/mbedtls-2.6.0/library\aes.c **** }
 1561              		.loc 1 831 0
 1562 03aa 0020     		movs	r0, #0
 1563 03ac 03B0     		add	sp, sp, #12
 1564              	.LCFI17:
 1565              		.cfi_def_cfa_offset 36
 1566              		@ sp needed
 1567 03ae BDE8F08F 		pop	{r4, r5, r6, r7, r8, r9, r10, fp, pc}
 1568              	.LVL175:
ARM GAS  c:\Users\lenovo\AppData\Local\Temp\ccpYsKo5.s 			page 45


 1569              	.L63:
 1570 03b2 00BF     		.align	2
 1571              	.L62:
 1572 03b4 00000000 		.word	.LANCHOR2
 1573 03b8 00000000 		.word	.LANCHOR3
 1574 03bc 00000000 		.word	.LANCHOR4
 1575 03c0 00000000 		.word	.LANCHOR5
 1576 03c4 00000000 		.word	.LANCHOR10
 1577              		.cfi_endproc
 1578              	.LFE7:
 1580              		.section	.text.mbedtls_aes_decrypt,"ax",%progbits
 1581              		.align	1
 1582              		.global	mbedtls_aes_decrypt
 1583              		.syntax unified
 1584              		.thumb
 1585              		.thumb_func
 1586              		.fpu fpv4-sp-d16
 1588              	mbedtls_aes_decrypt:
 1589              	.LFB8:
 832:C:/Users/lenovo/Desktop/liteos/Project2/BearPi_LiteOS/components/security/mbedtls/mbedtls-2.6.0/library\aes.c **** #endif /* !MBEDTLS_AES_DECRYPT_ALT */
 833:C:/Users/lenovo/Desktop/liteos/Project2/BearPi_LiteOS/components/security/mbedtls/mbedtls-2.6.0/library\aes.c **** 
 834:C:/Users/lenovo/Desktop/liteos/Project2/BearPi_LiteOS/components/security/mbedtls/mbedtls-2.6.0/library\aes.c **** void mbedtls_aes_decrypt( mbedtls_aes_context *ctx,
 835:C:/Users/lenovo/Desktop/liteos/Project2/BearPi_LiteOS/components/security/mbedtls/mbedtls-2.6.0/library\aes.c ****                           const unsigned char input[16],
 836:C:/Users/lenovo/Desktop/liteos/Project2/BearPi_LiteOS/components/security/mbedtls/mbedtls-2.6.0/library\aes.c ****                           unsigned char output[16] )
 837:C:/Users/lenovo/Desktop/liteos/Project2/BearPi_LiteOS/components/security/mbedtls/mbedtls-2.6.0/library\aes.c **** {
 1590              		.loc 1 837 0
 1591              		.cfi_startproc
 1592              		@ args = 0, pretend = 0, frame = 0
 1593              		@ frame_needed = 0, uses_anonymous_args = 0
 1594              	.LVL176:
 1595 0000 08B5     		push	{r3, lr}
 1596              	.LCFI18:
 1597              		.cfi_def_cfa_offset 8
 1598              		.cfi_offset 3, -8
 1599              		.cfi_offset 14, -4
 838:C:/Users/lenovo/Desktop/liteos/Project2/BearPi_LiteOS/components/security/mbedtls/mbedtls-2.6.0/library\aes.c ****     mbedtls_internal_aes_decrypt( ctx, input, output );
 1600              		.loc 1 838 0
 1601 0002 FFF7FEFF 		bl	mbedtls_internal_aes_decrypt
 1602              	.LVL177:
 839:C:/Users/lenovo/Desktop/liteos/Project2/BearPi_LiteOS/components/security/mbedtls/mbedtls-2.6.0/library\aes.c **** }
 1603              		.loc 1 839 0
 1604 0006 08BD     		pop	{r3, pc}
 1605              		.cfi_endproc
 1606              	.LFE8:
 1608              		.section	.text.mbedtls_aes_crypt_ecb,"ax",%progbits
 1609              		.align	1
 1610              		.global	mbedtls_aes_crypt_ecb
 1611              		.syntax unified
 1612              		.thumb
 1613              		.thumb_func
 1614              		.fpu fpv4-sp-d16
 1616              	mbedtls_aes_crypt_ecb:
 1617              	.LFB9:
 840:C:/Users/lenovo/Desktop/liteos/Project2/BearPi_LiteOS/components/security/mbedtls/mbedtls-2.6.0/library\aes.c **** 
 841:C:/Users/lenovo/Desktop/liteos/Project2/BearPi_LiteOS/components/security/mbedtls/mbedtls-2.6.0/library\aes.c **** /*
 842:C:/Users/lenovo/Desktop/liteos/Project2/BearPi_LiteOS/components/security/mbedtls/mbedtls-2.6.0/library\aes.c ****  * AES-ECB block encryption/decryption
 843:C:/Users/lenovo/Desktop/liteos/Project2/BearPi_LiteOS/components/security/mbedtls/mbedtls-2.6.0/library\aes.c ****  */
ARM GAS  c:\Users\lenovo\AppData\Local\Temp\ccpYsKo5.s 			page 46


 844:C:/Users/lenovo/Desktop/liteos/Project2/BearPi_LiteOS/components/security/mbedtls/mbedtls-2.6.0/library\aes.c **** int mbedtls_aes_crypt_ecb( mbedtls_aes_context *ctx,
 845:C:/Users/lenovo/Desktop/liteos/Project2/BearPi_LiteOS/components/security/mbedtls/mbedtls-2.6.0/library\aes.c ****                     int mode,
 846:C:/Users/lenovo/Desktop/liteos/Project2/BearPi_LiteOS/components/security/mbedtls/mbedtls-2.6.0/library\aes.c ****                     const unsigned char input[16],
 847:C:/Users/lenovo/Desktop/liteos/Project2/BearPi_LiteOS/components/security/mbedtls/mbedtls-2.6.0/library\aes.c ****                     unsigned char output[16] )
 848:C:/Users/lenovo/Desktop/liteos/Project2/BearPi_LiteOS/components/security/mbedtls/mbedtls-2.6.0/library\aes.c **** {
 1618              		.loc 1 848 0
 1619              		.cfi_startproc
 1620              		@ args = 0, pretend = 0, frame = 0
 1621              		@ frame_needed = 0, uses_anonymous_args = 0
 1622              	.LVL178:
 1623 0000 10B5     		push	{r4, lr}
 1624              	.LCFI19:
 1625              		.cfi_def_cfa_offset 8
 1626              		.cfi_offset 4, -8
 1627              		.cfi_offset 14, -4
 1628 0002 1446     		mov	r4, r2
 849:C:/Users/lenovo/Desktop/liteos/Project2/BearPi_LiteOS/components/security/mbedtls/mbedtls-2.6.0/library\aes.c **** #if defined(MBEDTLS_AESNI_C) && defined(MBEDTLS_HAVE_X86_64)
 850:C:/Users/lenovo/Desktop/liteos/Project2/BearPi_LiteOS/components/security/mbedtls/mbedtls-2.6.0/library\aes.c ****     if( mbedtls_aesni_has_support( MBEDTLS_AESNI_AES ) )
 851:C:/Users/lenovo/Desktop/liteos/Project2/BearPi_LiteOS/components/security/mbedtls/mbedtls-2.6.0/library\aes.c ****         return( mbedtls_aesni_crypt_ecb( ctx, mode, input, output ) );
 852:C:/Users/lenovo/Desktop/liteos/Project2/BearPi_LiteOS/components/security/mbedtls/mbedtls-2.6.0/library\aes.c **** #endif
 853:C:/Users/lenovo/Desktop/liteos/Project2/BearPi_LiteOS/components/security/mbedtls/mbedtls-2.6.0/library\aes.c **** 
 854:C:/Users/lenovo/Desktop/liteos/Project2/BearPi_LiteOS/components/security/mbedtls/mbedtls-2.6.0/library\aes.c **** #if defined(MBEDTLS_PADLOCK_C) && defined(MBEDTLS_HAVE_X86)
 855:C:/Users/lenovo/Desktop/liteos/Project2/BearPi_LiteOS/components/security/mbedtls/mbedtls-2.6.0/library\aes.c ****     if( aes_padlock_ace )
 856:C:/Users/lenovo/Desktop/liteos/Project2/BearPi_LiteOS/components/security/mbedtls/mbedtls-2.6.0/library\aes.c ****     {
 857:C:/Users/lenovo/Desktop/liteos/Project2/BearPi_LiteOS/components/security/mbedtls/mbedtls-2.6.0/library\aes.c ****         if( mbedtls_padlock_xcryptecb( ctx, mode, input, output ) == 0 )
 858:C:/Users/lenovo/Desktop/liteos/Project2/BearPi_LiteOS/components/security/mbedtls/mbedtls-2.6.0/library\aes.c ****             return( 0 );
 859:C:/Users/lenovo/Desktop/liteos/Project2/BearPi_LiteOS/components/security/mbedtls/mbedtls-2.6.0/library\aes.c **** 
 860:C:/Users/lenovo/Desktop/liteos/Project2/BearPi_LiteOS/components/security/mbedtls/mbedtls-2.6.0/library\aes.c ****         // If padlock data misaligned, we just fall back to
 861:C:/Users/lenovo/Desktop/liteos/Project2/BearPi_LiteOS/components/security/mbedtls/mbedtls-2.6.0/library\aes.c ****         // unaccelerated mode
 862:C:/Users/lenovo/Desktop/liteos/Project2/BearPi_LiteOS/components/security/mbedtls/mbedtls-2.6.0/library\aes.c ****         //
 863:C:/Users/lenovo/Desktop/liteos/Project2/BearPi_LiteOS/components/security/mbedtls/mbedtls-2.6.0/library\aes.c ****     }
 864:C:/Users/lenovo/Desktop/liteos/Project2/BearPi_LiteOS/components/security/mbedtls/mbedtls-2.6.0/library\aes.c **** #endif
 865:C:/Users/lenovo/Desktop/liteos/Project2/BearPi_LiteOS/components/security/mbedtls/mbedtls-2.6.0/library\aes.c **** 
 866:C:/Users/lenovo/Desktop/liteos/Project2/BearPi_LiteOS/components/security/mbedtls/mbedtls-2.6.0/library\aes.c ****     if( mode == MBEDTLS_AES_ENCRYPT )
 1629              		.loc 1 866 0
 1630 0004 0129     		cmp	r1, #1
 1631 0006 04D0     		beq	.L70
 867:C:/Users/lenovo/Desktop/liteos/Project2/BearPi_LiteOS/components/security/mbedtls/mbedtls-2.6.0/library\aes.c ****         return( mbedtls_internal_aes_encrypt( ctx, input, output ) );
 868:C:/Users/lenovo/Desktop/liteos/Project2/BearPi_LiteOS/components/security/mbedtls/mbedtls-2.6.0/library\aes.c ****     else
 869:C:/Users/lenovo/Desktop/liteos/Project2/BearPi_LiteOS/components/security/mbedtls/mbedtls-2.6.0/library\aes.c ****         return( mbedtls_internal_aes_decrypt( ctx, input, output ) );
 1632              		.loc 1 869 0
 1633 0008 1A46     		mov	r2, r3
 1634              	.LVL179:
 1635 000a 2146     		mov	r1, r4
 1636              	.LVL180:
 1637 000c FFF7FEFF 		bl	mbedtls_internal_aes_decrypt
 1638              	.LVL181:
 1639              	.L66:
 870:C:/Users/lenovo/Desktop/liteos/Project2/BearPi_LiteOS/components/security/mbedtls/mbedtls-2.6.0/library\aes.c **** }
 1640              		.loc 1 870 0
 1641 0010 10BD     		pop	{r4, pc}
 1642              	.LVL182:
 1643              	.L70:
 867:C:/Users/lenovo/Desktop/liteos/Project2/BearPi_LiteOS/components/security/mbedtls/mbedtls-2.6.0/library\aes.c ****         return( mbedtls_internal_aes_encrypt( ctx, input, output ) );
 1644              		.loc 1 867 0
 1645 0012 1A46     		mov	r2, r3
 1646              	.LVL183:
ARM GAS  c:\Users\lenovo\AppData\Local\Temp\ccpYsKo5.s 			page 47


 1647 0014 2146     		mov	r1, r4
 1648              	.LVL184:
 1649 0016 FFF7FEFF 		bl	mbedtls_internal_aes_encrypt
 1650              	.LVL185:
 1651 001a F9E7     		b	.L66
 1652              		.cfi_endproc
 1653              	.LFE9:
 1655              		.section	.text.mbedtls_aes_crypt_cbc,"ax",%progbits
 1656              		.align	1
 1657              		.global	mbedtls_aes_crypt_cbc
 1658              		.syntax unified
 1659              		.thumb
 1660              		.thumb_func
 1661              		.fpu fpv4-sp-d16
 1663              	mbedtls_aes_crypt_cbc:
 1664              	.LFB10:
 871:C:/Users/lenovo/Desktop/liteos/Project2/BearPi_LiteOS/components/security/mbedtls/mbedtls-2.6.0/library\aes.c **** 
 872:C:/Users/lenovo/Desktop/liteos/Project2/BearPi_LiteOS/components/security/mbedtls/mbedtls-2.6.0/library\aes.c **** #if defined(MBEDTLS_CIPHER_MODE_CBC)
 873:C:/Users/lenovo/Desktop/liteos/Project2/BearPi_LiteOS/components/security/mbedtls/mbedtls-2.6.0/library\aes.c **** /*
 874:C:/Users/lenovo/Desktop/liteos/Project2/BearPi_LiteOS/components/security/mbedtls/mbedtls-2.6.0/library\aes.c ****  * AES-CBC buffer encryption/decryption
 875:C:/Users/lenovo/Desktop/liteos/Project2/BearPi_LiteOS/components/security/mbedtls/mbedtls-2.6.0/library\aes.c ****  */
 876:C:/Users/lenovo/Desktop/liteos/Project2/BearPi_LiteOS/components/security/mbedtls/mbedtls-2.6.0/library\aes.c **** int mbedtls_aes_crypt_cbc( mbedtls_aes_context *ctx,
 877:C:/Users/lenovo/Desktop/liteos/Project2/BearPi_LiteOS/components/security/mbedtls/mbedtls-2.6.0/library\aes.c ****                     int mode,
 878:C:/Users/lenovo/Desktop/liteos/Project2/BearPi_LiteOS/components/security/mbedtls/mbedtls-2.6.0/library\aes.c ****                     size_t length,
 879:C:/Users/lenovo/Desktop/liteos/Project2/BearPi_LiteOS/components/security/mbedtls/mbedtls-2.6.0/library\aes.c ****                     unsigned char iv[16],
 880:C:/Users/lenovo/Desktop/liteos/Project2/BearPi_LiteOS/components/security/mbedtls/mbedtls-2.6.0/library\aes.c ****                     const unsigned char *input,
 881:C:/Users/lenovo/Desktop/liteos/Project2/BearPi_LiteOS/components/security/mbedtls/mbedtls-2.6.0/library\aes.c ****                     unsigned char *output )
 882:C:/Users/lenovo/Desktop/liteos/Project2/BearPi_LiteOS/components/security/mbedtls/mbedtls-2.6.0/library\aes.c **** {
 1665              		.loc 1 882 0
 1666              		.cfi_startproc
 1667              		@ args = 8, pretend = 0, frame = 16
 1668              		@ frame_needed = 0, uses_anonymous_args = 0
 1669              	.LVL186:
 1670 0000 2DE9F043 		push	{r4, r5, r6, r7, r8, r9, lr}
 1671              	.LCFI20:
 1672              		.cfi_def_cfa_offset 28
 1673              		.cfi_offset 4, -28
 1674              		.cfi_offset 5, -24
 1675              		.cfi_offset 6, -20
 1676              		.cfi_offset 7, -16
 1677              		.cfi_offset 8, -12
 1678              		.cfi_offset 9, -8
 1679              		.cfi_offset 14, -4
 1680 0004 85B0     		sub	sp, sp, #20
 1681              	.LCFI21:
 1682              		.cfi_def_cfa_offset 48
 1683 0006 0C9E     		ldr	r6, [sp, #48]
 1684 0008 0D9C     		ldr	r4, [sp, #52]
 883:C:/Users/lenovo/Desktop/liteos/Project2/BearPi_LiteOS/components/security/mbedtls/mbedtls-2.6.0/library\aes.c ****     int i;
 884:C:/Users/lenovo/Desktop/liteos/Project2/BearPi_LiteOS/components/security/mbedtls/mbedtls-2.6.0/library\aes.c ****     unsigned char temp[16];
 885:C:/Users/lenovo/Desktop/liteos/Project2/BearPi_LiteOS/components/security/mbedtls/mbedtls-2.6.0/library\aes.c **** 
 886:C:/Users/lenovo/Desktop/liteos/Project2/BearPi_LiteOS/components/security/mbedtls/mbedtls-2.6.0/library\aes.c ****     if( length % 16 )
 1685              		.loc 1 886 0
 1686 000a 12F00F0F 		tst	r2, #15
 1687 000e 47D1     		bne	.L80
 1688 0010 8146     		mov	r9, r0
 1689 0012 8846     		mov	r8, r1
ARM GAS  c:\Users\lenovo\AppData\Local\Temp\ccpYsKo5.s 			page 48


 1690 0014 1746     		mov	r7, r2
 1691 0016 1D46     		mov	r5, r3
 887:C:/Users/lenovo/Desktop/liteos/Project2/BearPi_LiteOS/components/security/mbedtls/mbedtls-2.6.0/library\aes.c ****         return( MBEDTLS_ERR_AES_INVALID_INPUT_LENGTH );
 888:C:/Users/lenovo/Desktop/liteos/Project2/BearPi_LiteOS/components/security/mbedtls/mbedtls-2.6.0/library\aes.c **** 
 889:C:/Users/lenovo/Desktop/liteos/Project2/BearPi_LiteOS/components/security/mbedtls/mbedtls-2.6.0/library\aes.c **** #if defined(MBEDTLS_PADLOCK_C) && defined(MBEDTLS_HAVE_X86)
 890:C:/Users/lenovo/Desktop/liteos/Project2/BearPi_LiteOS/components/security/mbedtls/mbedtls-2.6.0/library\aes.c ****     if( aes_padlock_ace )
 891:C:/Users/lenovo/Desktop/liteos/Project2/BearPi_LiteOS/components/security/mbedtls/mbedtls-2.6.0/library\aes.c ****     {
 892:C:/Users/lenovo/Desktop/liteos/Project2/BearPi_LiteOS/components/security/mbedtls/mbedtls-2.6.0/library\aes.c ****         if( mbedtls_padlock_xcryptcbc( ctx, mode, length, iv, input, output ) == 0 )
 893:C:/Users/lenovo/Desktop/liteos/Project2/BearPi_LiteOS/components/security/mbedtls/mbedtls-2.6.0/library\aes.c ****             return( 0 );
 894:C:/Users/lenovo/Desktop/liteos/Project2/BearPi_LiteOS/components/security/mbedtls/mbedtls-2.6.0/library\aes.c **** 
 895:C:/Users/lenovo/Desktop/liteos/Project2/BearPi_LiteOS/components/security/mbedtls/mbedtls-2.6.0/library\aes.c ****         // If padlock data misaligned, we just fall back to
 896:C:/Users/lenovo/Desktop/liteos/Project2/BearPi_LiteOS/components/security/mbedtls/mbedtls-2.6.0/library\aes.c ****         // unaccelerated mode
 897:C:/Users/lenovo/Desktop/liteos/Project2/BearPi_LiteOS/components/security/mbedtls/mbedtls-2.6.0/library\aes.c ****         //
 898:C:/Users/lenovo/Desktop/liteos/Project2/BearPi_LiteOS/components/security/mbedtls/mbedtls-2.6.0/library\aes.c ****     }
 899:C:/Users/lenovo/Desktop/liteos/Project2/BearPi_LiteOS/components/security/mbedtls/mbedtls-2.6.0/library\aes.c **** #endif
 900:C:/Users/lenovo/Desktop/liteos/Project2/BearPi_LiteOS/components/security/mbedtls/mbedtls-2.6.0/library\aes.c **** 
 901:C:/Users/lenovo/Desktop/liteos/Project2/BearPi_LiteOS/components/security/mbedtls/mbedtls-2.6.0/library\aes.c ****     if( mode == MBEDTLS_AES_DECRYPT )
 1692              		.loc 1 901 0
 1693 0018 89B1     		cbz	r1, .L73
 1694 001a 3CE0     		b	.L74
 1695              	.LVL187:
 1696              	.L76:
 902:C:/Users/lenovo/Desktop/liteos/Project2/BearPi_LiteOS/components/security/mbedtls/mbedtls-2.6.0/library\aes.c ****     {
 903:C:/Users/lenovo/Desktop/liteos/Project2/BearPi_LiteOS/components/security/mbedtls/mbedtls-2.6.0/library\aes.c ****         while( length > 0 )
 904:C:/Users/lenovo/Desktop/liteos/Project2/BearPi_LiteOS/components/security/mbedtls/mbedtls-2.6.0/library\aes.c ****         {
 905:C:/Users/lenovo/Desktop/liteos/Project2/BearPi_LiteOS/components/security/mbedtls/mbedtls-2.6.0/library\aes.c ****             memcpy( temp, input, 16 );
 906:C:/Users/lenovo/Desktop/liteos/Project2/BearPi_LiteOS/components/security/mbedtls/mbedtls-2.6.0/library\aes.c ****             mbedtls_aes_crypt_ecb( ctx, mode, input, output );
 907:C:/Users/lenovo/Desktop/liteos/Project2/BearPi_LiteOS/components/security/mbedtls/mbedtls-2.6.0/library\aes.c **** 
 908:C:/Users/lenovo/Desktop/liteos/Project2/BearPi_LiteOS/components/security/mbedtls/mbedtls-2.6.0/library\aes.c ****             for( i = 0; i < 16; i++ )
 909:C:/Users/lenovo/Desktop/liteos/Project2/BearPi_LiteOS/components/security/mbedtls/mbedtls-2.6.0/library\aes.c ****                 output[i] = (unsigned char)( output[i] ^ iv[i] );
 1697              		.loc 1 909 0 discriminator 3
 1698 001c E25C     		ldrb	r2, [r4, r3]	@ zero_extendqisi2
 1699 001e E95C     		ldrb	r1, [r5, r3]	@ zero_extendqisi2
 1700 0020 4A40     		eors	r2, r2, r1
 1701 0022 E254     		strb	r2, [r4, r3]
 908:C:/Users/lenovo/Desktop/liteos/Project2/BearPi_LiteOS/components/security/mbedtls/mbedtls-2.6.0/library\aes.c ****                 output[i] = (unsigned char)( output[i] ^ iv[i] );
 1702              		.loc 1 908 0 discriminator 3
 1703 0024 0133     		adds	r3, r3, #1
 1704              	.LVL188:
 1705              	.L75:
 908:C:/Users/lenovo/Desktop/liteos/Project2/BearPi_LiteOS/components/security/mbedtls/mbedtls-2.6.0/library\aes.c ****                 output[i] = (unsigned char)( output[i] ^ iv[i] );
 1706              		.loc 1 908 0 is_stmt 0 discriminator 1
 1707 0026 0F2B     		cmp	r3, #15
 1708 0028 F8DD     		ble	.L76
 910:C:/Users/lenovo/Desktop/liteos/Project2/BearPi_LiteOS/components/security/mbedtls/mbedtls-2.6.0/library\aes.c **** 
 911:C:/Users/lenovo/Desktop/liteos/Project2/BearPi_LiteOS/components/security/mbedtls/mbedtls-2.6.0/library\aes.c ****             memcpy( iv, temp, 16 );
 1709              		.loc 1 911 0 is_stmt 1
 1710 002a EC46     		mov	ip, sp
 1711 002c BCE80F00 		ldmia	ip!, {r0, r1, r2, r3}
 1712              	.LVL189:
 1713 0030 2860     		str	r0, [r5]	@ unaligned
 1714 0032 6960     		str	r1, [r5, #4]	@ unaligned
 1715 0034 AA60     		str	r2, [r5, #8]	@ unaligned
 1716 0036 EB60     		str	r3, [r5, #12]	@ unaligned
 912:C:/Users/lenovo/Desktop/liteos/Project2/BearPi_LiteOS/components/security/mbedtls/mbedtls-2.6.0/library\aes.c **** 
 913:C:/Users/lenovo/Desktop/liteos/Project2/BearPi_LiteOS/components/security/mbedtls/mbedtls-2.6.0/library\aes.c ****             input  += 16;
 1717              		.loc 1 913 0
ARM GAS  c:\Users\lenovo\AppData\Local\Temp\ccpYsKo5.s 			page 49


 1718 0038 1036     		adds	r6, r6, #16
 1719              	.LVL190:
 914:C:/Users/lenovo/Desktop/liteos/Project2/BearPi_LiteOS/components/security/mbedtls/mbedtls-2.6.0/library\aes.c ****             output += 16;
 1720              		.loc 1 914 0
 1721 003a 1034     		adds	r4, r4, #16
 1722              	.LVL191:
 915:C:/Users/lenovo/Desktop/liteos/Project2/BearPi_LiteOS/components/security/mbedtls/mbedtls-2.6.0/library\aes.c ****             length -= 16;
 1723              		.loc 1 915 0
 1724 003c 103F     		subs	r7, r7, #16
 1725              	.LVL192:
 1726              	.L73:
 903:C:/Users/lenovo/Desktop/liteos/Project2/BearPi_LiteOS/components/security/mbedtls/mbedtls-2.6.0/library\aes.c ****         {
 1727              		.loc 1 903 0
 1728 003e 77B1     		cbz	r7, .L83
 905:C:/Users/lenovo/Desktop/liteos/Project2/BearPi_LiteOS/components/security/mbedtls/mbedtls-2.6.0/library\aes.c ****             mbedtls_aes_crypt_ecb( ctx, mode, input, output );
 1729              		.loc 1 905 0
 1730 0040 EC46     		mov	ip, sp
 1731 0042 3068     		ldr	r0, [r6]	@ unaligned
 1732 0044 7168     		ldr	r1, [r6, #4]	@ unaligned
 1733 0046 B268     		ldr	r2, [r6, #8]	@ unaligned
 1734 0048 F368     		ldr	r3, [r6, #12]	@ unaligned
 1735 004a ACE80F00 		stmia	ip!, {r0, r1, r2, r3}
 906:C:/Users/lenovo/Desktop/liteos/Project2/BearPi_LiteOS/components/security/mbedtls/mbedtls-2.6.0/library\aes.c **** 
 1736              		.loc 1 906 0
 1737 004e 2346     		mov	r3, r4
 1738 0050 3246     		mov	r2, r6
 1739 0052 4146     		mov	r1, r8
 1740 0054 4846     		mov	r0, r9
 1741 0056 FFF7FEFF 		bl	mbedtls_aes_crypt_ecb
 1742              	.LVL193:
 908:C:/Users/lenovo/Desktop/liteos/Project2/BearPi_LiteOS/components/security/mbedtls/mbedtls-2.6.0/library\aes.c ****                 output[i] = (unsigned char)( output[i] ^ iv[i] );
 1743              		.loc 1 908 0
 1744 005a 4346     		mov	r3, r8
 1745 005c E3E7     		b	.L75
 1746              	.LVL194:
 1747              	.L83:
 916:C:/Users/lenovo/Desktop/liteos/Project2/BearPi_LiteOS/components/security/mbedtls/mbedtls-2.6.0/library\aes.c ****         }
 917:C:/Users/lenovo/Desktop/liteos/Project2/BearPi_LiteOS/components/security/mbedtls/mbedtls-2.6.0/library\aes.c ****     }
 918:C:/Users/lenovo/Desktop/liteos/Project2/BearPi_LiteOS/components/security/mbedtls/mbedtls-2.6.0/library\aes.c ****     else
 919:C:/Users/lenovo/Desktop/liteos/Project2/BearPi_LiteOS/components/security/mbedtls/mbedtls-2.6.0/library\aes.c ****     {
 920:C:/Users/lenovo/Desktop/liteos/Project2/BearPi_LiteOS/components/security/mbedtls/mbedtls-2.6.0/library\aes.c ****         while( length > 0 )
 921:C:/Users/lenovo/Desktop/liteos/Project2/BearPi_LiteOS/components/security/mbedtls/mbedtls-2.6.0/library\aes.c ****         {
 922:C:/Users/lenovo/Desktop/liteos/Project2/BearPi_LiteOS/components/security/mbedtls/mbedtls-2.6.0/library\aes.c ****             for( i = 0; i < 16; i++ )
 923:C:/Users/lenovo/Desktop/liteos/Project2/BearPi_LiteOS/components/security/mbedtls/mbedtls-2.6.0/library\aes.c ****                 output[i] = (unsigned char)( input[i] ^ iv[i] );
 924:C:/Users/lenovo/Desktop/liteos/Project2/BearPi_LiteOS/components/security/mbedtls/mbedtls-2.6.0/library\aes.c **** 
 925:C:/Users/lenovo/Desktop/liteos/Project2/BearPi_LiteOS/components/security/mbedtls/mbedtls-2.6.0/library\aes.c ****             mbedtls_aes_crypt_ecb( ctx, mode, output, output );
 926:C:/Users/lenovo/Desktop/liteos/Project2/BearPi_LiteOS/components/security/mbedtls/mbedtls-2.6.0/library\aes.c ****             memcpy( iv, output, 16 );
 927:C:/Users/lenovo/Desktop/liteos/Project2/BearPi_LiteOS/components/security/mbedtls/mbedtls-2.6.0/library\aes.c **** 
 928:C:/Users/lenovo/Desktop/liteos/Project2/BearPi_LiteOS/components/security/mbedtls/mbedtls-2.6.0/library\aes.c ****             input  += 16;
 929:C:/Users/lenovo/Desktop/liteos/Project2/BearPi_LiteOS/components/security/mbedtls/mbedtls-2.6.0/library\aes.c ****             output += 16;
 930:C:/Users/lenovo/Desktop/liteos/Project2/BearPi_LiteOS/components/security/mbedtls/mbedtls-2.6.0/library\aes.c ****             length -= 16;
 931:C:/Users/lenovo/Desktop/liteos/Project2/BearPi_LiteOS/components/security/mbedtls/mbedtls-2.6.0/library\aes.c ****         }
 932:C:/Users/lenovo/Desktop/liteos/Project2/BearPi_LiteOS/components/security/mbedtls/mbedtls-2.6.0/library\aes.c ****     }
 933:C:/Users/lenovo/Desktop/liteos/Project2/BearPi_LiteOS/components/security/mbedtls/mbedtls-2.6.0/library\aes.c **** 
 934:C:/Users/lenovo/Desktop/liteos/Project2/BearPi_LiteOS/components/security/mbedtls/mbedtls-2.6.0/library\aes.c ****     return( 0 );
 1748              		.loc 1 934 0
 1749 005e 4046     		mov	r0, r8
ARM GAS  c:\Users\lenovo\AppData\Local\Temp\ccpYsKo5.s 			page 50


 1750              	.LVL195:
 1751              	.L71:
 935:C:/Users/lenovo/Desktop/liteos/Project2/BearPi_LiteOS/components/security/mbedtls/mbedtls-2.6.0/library\aes.c **** }
 1752              		.loc 1 935 0
 1753 0060 05B0     		add	sp, sp, #20
 1754              	.LCFI22:
 1755              		.cfi_remember_state
 1756              		.cfi_def_cfa_offset 28
 1757              		@ sp needed
 1758 0062 BDE8F083 		pop	{r4, r5, r6, r7, r8, r9, pc}
 1759              	.LVL196:
 1760              	.L78:
 1761              	.LCFI23:
 1762              		.cfi_restore_state
 923:C:/Users/lenovo/Desktop/liteos/Project2/BearPi_LiteOS/components/security/mbedtls/mbedtls-2.6.0/library\aes.c **** 
 1763              		.loc 1 923 0 discriminator 3
 1764 0066 F25C     		ldrb	r2, [r6, r3]	@ zero_extendqisi2
 1765 0068 E95C     		ldrb	r1, [r5, r3]	@ zero_extendqisi2
 1766 006a 4A40     		eors	r2, r2, r1
 1767 006c E254     		strb	r2, [r4, r3]
 922:C:/Users/lenovo/Desktop/liteos/Project2/BearPi_LiteOS/components/security/mbedtls/mbedtls-2.6.0/library\aes.c ****                 output[i] = (unsigned char)( input[i] ^ iv[i] );
 1768              		.loc 1 922 0 discriminator 3
 1769 006e 0133     		adds	r3, r3, #1
 1770              	.LVL197:
 1771              	.L79:
 922:C:/Users/lenovo/Desktop/liteos/Project2/BearPi_LiteOS/components/security/mbedtls/mbedtls-2.6.0/library\aes.c ****                 output[i] = (unsigned char)( input[i] ^ iv[i] );
 1772              		.loc 1 922 0 is_stmt 0 discriminator 1
 1773 0070 0F2B     		cmp	r3, #15
 1774 0072 F8DD     		ble	.L78
 925:C:/Users/lenovo/Desktop/liteos/Project2/BearPi_LiteOS/components/security/mbedtls/mbedtls-2.6.0/library\aes.c ****             memcpy( iv, output, 16 );
 1775              		.loc 1 925 0 is_stmt 1
 1776 0074 2346     		mov	r3, r4
 1777              	.LVL198:
 1778 0076 2246     		mov	r2, r4
 1779 0078 4146     		mov	r1, r8
 1780 007a 4846     		mov	r0, r9
 1781 007c FFF7FEFF 		bl	mbedtls_aes_crypt_ecb
 1782              	.LVL199:
 926:C:/Users/lenovo/Desktop/liteos/Project2/BearPi_LiteOS/components/security/mbedtls/mbedtls-2.6.0/library\aes.c **** 
 1783              		.loc 1 926 0
 1784 0080 2068     		ldr	r0, [r4]	@ unaligned
 1785 0082 6168     		ldr	r1, [r4, #4]	@ unaligned
 1786 0084 A268     		ldr	r2, [r4, #8]	@ unaligned
 1787 0086 E368     		ldr	r3, [r4, #12]	@ unaligned
 1788 0088 2860     		str	r0, [r5]	@ unaligned
 1789 008a 6960     		str	r1, [r5, #4]	@ unaligned
 1790 008c AA60     		str	r2, [r5, #8]	@ unaligned
 1791 008e EB60     		str	r3, [r5, #12]	@ unaligned
 928:C:/Users/lenovo/Desktop/liteos/Project2/BearPi_LiteOS/components/security/mbedtls/mbedtls-2.6.0/library\aes.c ****             output += 16;
 1792              		.loc 1 928 0
 1793 0090 1036     		adds	r6, r6, #16
 1794              	.LVL200:
 929:C:/Users/lenovo/Desktop/liteos/Project2/BearPi_LiteOS/components/security/mbedtls/mbedtls-2.6.0/library\aes.c ****             length -= 16;
 1795              		.loc 1 929 0
 1796 0092 1034     		adds	r4, r4, #16
 1797              	.LVL201:
 930:C:/Users/lenovo/Desktop/liteos/Project2/BearPi_LiteOS/components/security/mbedtls/mbedtls-2.6.0/library\aes.c ****         }
ARM GAS  c:\Users\lenovo\AppData\Local\Temp\ccpYsKo5.s 			page 51


 1798              		.loc 1 930 0
 1799 0094 103F     		subs	r7, r7, #16
 1800              	.LVL202:
 1801              	.L74:
 920:C:/Users/lenovo/Desktop/liteos/Project2/BearPi_LiteOS/components/security/mbedtls/mbedtls-2.6.0/library\aes.c ****         {
 1802              		.loc 1 920 0
 1803 0096 0FB1     		cbz	r7, .L84
 922:C:/Users/lenovo/Desktop/liteos/Project2/BearPi_LiteOS/components/security/mbedtls/mbedtls-2.6.0/library\aes.c ****                 output[i] = (unsigned char)( input[i] ^ iv[i] );
 1804              		.loc 1 922 0
 1805 0098 0023     		movs	r3, #0
 1806 009a E9E7     		b	.L79
 1807              	.L84:
 934:C:/Users/lenovo/Desktop/liteos/Project2/BearPi_LiteOS/components/security/mbedtls/mbedtls-2.6.0/library\aes.c **** }
 1808              		.loc 1 934 0
 1809 009c 0020     		movs	r0, #0
 1810 009e DFE7     		b	.L71
 1811              	.LVL203:
 1812              	.L80:
 887:C:/Users/lenovo/Desktop/liteos/Project2/BearPi_LiteOS/components/security/mbedtls/mbedtls-2.6.0/library\aes.c **** 
 1813              		.loc 1 887 0
 1814 00a0 6FF02100 		mvn	r0, #33
 1815              	.LVL204:
 1816 00a4 DCE7     		b	.L71
 1817              		.cfi_endproc
 1818              	.LFE10:
 1820              		.section	.rodata.FSb,"a",%progbits
 1821              		.align	2
 1822              		.set	.LANCHOR1,. + 0
 1825              	FSb:
 1826 0000 63       		.byte	99
 1827 0001 7C       		.byte	124
 1828 0002 77       		.byte	119
 1829 0003 7B       		.byte	123
 1830 0004 F2       		.byte	-14
 1831 0005 6B       		.byte	107
 1832 0006 6F       		.byte	111
 1833 0007 C5       		.byte	-59
 1834 0008 30       		.byte	48
 1835 0009 01       		.byte	1
 1836 000a 67       		.byte	103
 1837 000b 2B       		.byte	43
 1838 000c FE       		.byte	-2
 1839 000d D7       		.byte	-41
 1840 000e AB       		.byte	-85
 1841 000f 76       		.byte	118
 1842 0010 CA       		.byte	-54
 1843 0011 82       		.byte	-126
 1844 0012 C9       		.byte	-55
 1845 0013 7D       		.byte	125
 1846 0014 FA       		.byte	-6
 1847 0015 59       		.byte	89
 1848 0016 47       		.byte	71
 1849 0017 F0       		.byte	-16
 1850 0018 AD       		.byte	-83
 1851 0019 D4       		.byte	-44
 1852 001a A2       		.byte	-94
 1853 001b AF       		.byte	-81
ARM GAS  c:\Users\lenovo\AppData\Local\Temp\ccpYsKo5.s 			page 52


 1854 001c 9C       		.byte	-100
 1855 001d A4       		.byte	-92
 1856 001e 72       		.byte	114
 1857 001f C0       		.byte	-64
 1858 0020 B7       		.byte	-73
 1859 0021 FD       		.byte	-3
 1860 0022 93       		.byte	-109
 1861 0023 26       		.byte	38
 1862 0024 36       		.byte	54
 1863 0025 3F       		.byte	63
 1864 0026 F7       		.byte	-9
 1865 0027 CC       		.byte	-52
 1866 0028 34       		.byte	52
 1867 0029 A5       		.byte	-91
 1868 002a E5       		.byte	-27
 1869 002b F1       		.byte	-15
 1870 002c 71       		.byte	113
 1871 002d D8       		.byte	-40
 1872 002e 31       		.byte	49
 1873 002f 15       		.byte	21
 1874 0030 04       		.byte	4
 1875 0031 C7       		.byte	-57
 1876 0032 23       		.byte	35
 1877 0033 C3       		.byte	-61
 1878 0034 18       		.byte	24
 1879 0035 96       		.byte	-106
 1880 0036 05       		.byte	5
 1881 0037 9A       		.byte	-102
 1882 0038 07       		.byte	7
 1883 0039 12       		.byte	18
 1884 003a 80       		.byte	-128
 1885 003b E2       		.byte	-30
 1886 003c EB       		.byte	-21
 1887 003d 27       		.byte	39
 1888 003e B2       		.byte	-78
 1889 003f 75       		.byte	117
 1890 0040 09       		.byte	9
 1891 0041 83       		.byte	-125
 1892 0042 2C       		.byte	44
 1893 0043 1A       		.byte	26
 1894 0044 1B       		.byte	27
 1895 0045 6E       		.byte	110
 1896 0046 5A       		.byte	90
 1897 0047 A0       		.byte	-96
 1898 0048 52       		.byte	82
 1899 0049 3B       		.byte	59
 1900 004a D6       		.byte	-42
 1901 004b B3       		.byte	-77
 1902 004c 29       		.byte	41
 1903 004d E3       		.byte	-29
 1904 004e 2F       		.byte	47
 1905 004f 84       		.byte	-124
 1906 0050 53       		.byte	83
 1907 0051 D1       		.byte	-47
 1908 0052 00       		.byte	0
 1909 0053 ED       		.byte	-19
 1910 0054 20       		.byte	32
ARM GAS  c:\Users\lenovo\AppData\Local\Temp\ccpYsKo5.s 			page 53


 1911 0055 FC       		.byte	-4
 1912 0056 B1       		.byte	-79
 1913 0057 5B       		.byte	91
 1914 0058 6A       		.byte	106
 1915 0059 CB       		.byte	-53
 1916 005a BE       		.byte	-66
 1917 005b 39       		.byte	57
 1918 005c 4A       		.byte	74
 1919 005d 4C       		.byte	76
 1920 005e 58       		.byte	88
 1921 005f CF       		.byte	-49
 1922 0060 D0       		.byte	-48
 1923 0061 EF       		.byte	-17
 1924 0062 AA       		.byte	-86
 1925 0063 FB       		.byte	-5
 1926 0064 43       		.byte	67
 1927 0065 4D       		.byte	77
 1928 0066 33       		.byte	51
 1929 0067 85       		.byte	-123
 1930 0068 45       		.byte	69
 1931 0069 F9       		.byte	-7
 1932 006a 02       		.byte	2
 1933 006b 7F       		.byte	127
 1934 006c 50       		.byte	80
 1935 006d 3C       		.byte	60
 1936 006e 9F       		.byte	-97
 1937 006f A8       		.byte	-88
 1938 0070 51       		.byte	81
 1939 0071 A3       		.byte	-93
 1940 0072 40       		.byte	64
 1941 0073 8F       		.byte	-113
 1942 0074 92       		.byte	-110
 1943 0075 9D       		.byte	-99
 1944 0076 38       		.byte	56
 1945 0077 F5       		.byte	-11
 1946 0078 BC       		.byte	-68
 1947 0079 B6       		.byte	-74
 1948 007a DA       		.byte	-38
 1949 007b 21       		.byte	33
 1950 007c 10       		.byte	16
 1951 007d FF       		.byte	-1
 1952 007e F3       		.byte	-13
 1953 007f D2       		.byte	-46
 1954 0080 CD       		.byte	-51
 1955 0081 0C       		.byte	12
 1956 0082 13       		.byte	19
 1957 0083 EC       		.byte	-20
 1958 0084 5F       		.byte	95
 1959 0085 97       		.byte	-105
 1960 0086 44       		.byte	68
 1961 0087 17       		.byte	23
 1962 0088 C4       		.byte	-60
 1963 0089 A7       		.byte	-89
 1964 008a 7E       		.byte	126
 1965 008b 3D       		.byte	61
 1966 008c 64       		.byte	100
 1967 008d 5D       		.byte	93
ARM GAS  c:\Users\lenovo\AppData\Local\Temp\ccpYsKo5.s 			page 54


 1968 008e 19       		.byte	25
 1969 008f 73       		.byte	115
 1970 0090 60       		.byte	96
 1971 0091 81       		.byte	-127
 1972 0092 4F       		.byte	79
 1973 0093 DC       		.byte	-36
 1974 0094 22       		.byte	34
 1975 0095 2A       		.byte	42
 1976 0096 90       		.byte	-112
 1977 0097 88       		.byte	-120
 1978 0098 46       		.byte	70
 1979 0099 EE       		.byte	-18
 1980 009a B8       		.byte	-72
 1981 009b 14       		.byte	20
 1982 009c DE       		.byte	-34
 1983 009d 5E       		.byte	94
 1984 009e 0B       		.byte	11
 1985 009f DB       		.byte	-37
 1986 00a0 E0       		.byte	-32
 1987 00a1 32       		.byte	50
 1988 00a2 3A       		.byte	58
 1989 00a3 0A       		.byte	10
 1990 00a4 49       		.byte	73
 1991 00a5 06       		.byte	6
 1992 00a6 24       		.byte	36
 1993 00a7 5C       		.byte	92
 1994 00a8 C2       		.byte	-62
 1995 00a9 D3       		.byte	-45
 1996 00aa AC       		.byte	-84
 1997 00ab 62       		.byte	98
 1998 00ac 91       		.byte	-111
 1999 00ad 95       		.byte	-107
 2000 00ae E4       		.byte	-28
 2001 00af 79       		.byte	121
 2002 00b0 E7       		.byte	-25
 2003 00b1 C8       		.byte	-56
 2004 00b2 37       		.byte	55
 2005 00b3 6D       		.byte	109
 2006 00b4 8D       		.byte	-115
 2007 00b5 D5       		.byte	-43
 2008 00b6 4E       		.byte	78
 2009 00b7 A9       		.byte	-87
 2010 00b8 6C       		.byte	108
 2011 00b9 56       		.byte	86
 2012 00ba F4       		.byte	-12
 2013 00bb EA       		.byte	-22
 2014 00bc 65       		.byte	101
 2015 00bd 7A       		.byte	122
 2016 00be AE       		.byte	-82
 2017 00bf 08       		.byte	8
 2018 00c0 BA       		.byte	-70
 2019 00c1 78       		.byte	120
 2020 00c2 25       		.byte	37
 2021 00c3 2E       		.byte	46
 2022 00c4 1C       		.byte	28
 2023 00c5 A6       		.byte	-90
 2024 00c6 B4       		.byte	-76
ARM GAS  c:\Users\lenovo\AppData\Local\Temp\ccpYsKo5.s 			page 55


 2025 00c7 C6       		.byte	-58
 2026 00c8 E8       		.byte	-24
 2027 00c9 DD       		.byte	-35
 2028 00ca 74       		.byte	116
 2029 00cb 1F       		.byte	31
 2030 00cc 4B       		.byte	75
 2031 00cd BD       		.byte	-67
 2032 00ce 8B       		.byte	-117
 2033 00cf 8A       		.byte	-118
 2034 00d0 70       		.byte	112
 2035 00d1 3E       		.byte	62
 2036 00d2 B5       		.byte	-75
 2037 00d3 66       		.byte	102
 2038 00d4 48       		.byte	72
 2039 00d5 03       		.byte	3
 2040 00d6 F6       		.byte	-10
 2041 00d7 0E       		.byte	14
 2042 00d8 61       		.byte	97
 2043 00d9 35       		.byte	53
 2044 00da 57       		.byte	87
 2045 00db B9       		.byte	-71
 2046 00dc 86       		.byte	-122
 2047 00dd C1       		.byte	-63
 2048 00de 1D       		.byte	29
 2049 00df 9E       		.byte	-98
 2050 00e0 E1       		.byte	-31
 2051 00e1 F8       		.byte	-8
 2052 00e2 98       		.byte	-104
 2053 00e3 11       		.byte	17
 2054 00e4 69       		.byte	105
 2055 00e5 D9       		.byte	-39
 2056 00e6 8E       		.byte	-114
 2057 00e7 94       		.byte	-108
 2058 00e8 9B       		.byte	-101
 2059 00e9 1E       		.byte	30
 2060 00ea 87       		.byte	-121
 2061 00eb E9       		.byte	-23
 2062 00ec CE       		.byte	-50
 2063 00ed 55       		.byte	85
 2064 00ee 28       		.byte	40
 2065 00ef DF       		.byte	-33
 2066 00f0 8C       		.byte	-116
 2067 00f1 A1       		.byte	-95
 2068 00f2 89       		.byte	-119
 2069 00f3 0D       		.byte	13
 2070 00f4 BF       		.byte	-65
 2071 00f5 E6       		.byte	-26
 2072 00f6 42       		.byte	66
 2073 00f7 68       		.byte	104
 2074 00f8 41       		.byte	65
 2075 00f9 99       		.byte	-103
 2076 00fa 2D       		.byte	45
 2077 00fb 0F       		.byte	15
 2078 00fc B0       		.byte	-80
 2079 00fd 54       		.byte	84
 2080 00fe BB       		.byte	-69
 2081 00ff 16       		.byte	22
ARM GAS  c:\Users\lenovo\AppData\Local\Temp\ccpYsKo5.s 			page 56


 2082              		.section	.rodata.FT0,"a",%progbits
 2083              		.align	2
 2084              		.set	.LANCHOR6,. + 0
 2087              	FT0:
 2088 0000 C66363A5 		.word	-1520213050
 2089 0004 F87C7C84 		.word	-2072216328
 2090 0008 EE777799 		.word	-1720223762
 2091 000c F67B7B8D 		.word	-1921287178
 2092 0010 FFF2F20D 		.word	234025727
 2093 0014 D66B6BBD 		.word	-1117033514
 2094 0018 DE6F6FB1 		.word	-1318096930
 2095 001c 91C5C554 		.word	1422247313
 2096 0020 60303050 		.word	1345335392
 2097 0024 02010103 		.word	50397442
 2098 0028 CE6767A9 		.word	-1452841010
 2099 002c 562B2B7D 		.word	2099981142
 2100 0030 E7FEFE19 		.word	436141799
 2101 0034 B5D7D762 		.word	1658312629
 2102 0038 4DABABE6 		.word	-424957107
 2103 003c EC76769A 		.word	-1703512340
 2104 0040 8FCACA45 		.word	1170918031
 2105 0044 1F82829D 		.word	-1652391393
 2106 0048 89C9C940 		.word	1086966153
 2107 004c FA7D7D87 		.word	-2021818886
 2108 0050 EFFAFA15 		.word	368769775
 2109 0054 B25959EB 		.word	-346465870
 2110 0058 8E4747C9 		.word	-918075506
 2111 005c FBF0F00B 		.word	200339707
 2112 0060 41ADADEC 		.word	-324162239
 2113 0064 B3D4D467 		.word	1742001331
 2114 0068 5FA2A2FD 		.word	-39673249
 2115 006c 45AFAFEA 		.word	-357585083
 2116 0070 239C9CBF 		.word	-1080255453
 2117 0074 53A4A4F7 		.word	-140204973
 2118 0078 E4727296 		.word	-1770884380
 2119 007c 9BC0C05B 		.word	1539358875
 2120 0080 75B7B7C2 		.word	-1028147339
 2121 0084 E1FDFD1C 		.word	486407649
 2122 0088 3D9393AE 		.word	-1366060227
 2123 008c 4C26266A 		.word	1780885068
 2124 0090 6C36365A 		.word	1513502316
 2125 0094 7E3F3F41 		.word	1094664062
 2126 0098 F5F7F702 		.word	49805301
 2127 009c 83CCCC4F 		.word	1338821763
 2128 00a0 6834345C 		.word	1546925160
 2129 00a4 51A5A5F4 		.word	-190470831
 2130 00a8 D1E5E534 		.word	887481809
 2131 00ac F9F1F108 		.word	150073849
 2132 00b0 E2717193 		.word	-1821281822
 2133 00b4 ABD8D873 		.word	1943591083
 2134 00b8 62313153 		.word	1395732834
 2135 00bc 2A15153F 		.word	1058346282
 2136 00c0 0804040C 		.word	201589768
 2137 00c4 95C7C752 		.word	1388824469
 2138 00c8 46232365 		.word	1696801606
 2139 00cc 9DC3C35E 		.word	1589887901
 2140 00d0 30181828 		.word	672667696
ARM GAS  c:\Users\lenovo\AppData\Local\Temp\ccpYsKo5.s 			page 57


 2141 00d4 379696A1 		.word	-1583966665
 2142 00d8 0A05050F 		.word	251987210
 2143 00dc 2F9A9AB5 		.word	-1248159185
 2144 00e0 0E070709 		.word	151455502
 2145 00e4 24121236 		.word	907153956
 2146 00e8 1B80809B 		.word	-1686077413
 2147 00ec DFE2E23D 		.word	1038279391
 2148 00f0 CDEBEB26 		.word	652995533
 2149 00f4 4E272769 		.word	1764173646
 2150 00f8 7FB2B2CD 		.word	-843926913
 2151 00fc EA75759F 		.word	-1619692054
 2152 0100 1209091B 		.word	453576978
 2153 0104 1D83839E 		.word	-1635548387
 2154 0108 582C2C74 		.word	1949051992
 2155 010c 341A1A2E 		.word	773462580
 2156 0110 361B1B2D 		.word	756751158
 2157 0114 DC6E6EB2 		.word	-1301385508
 2158 0118 B45A5AEE 		.word	-296068428
 2159 011c 5BA0A0FB 		.word	-73359269
 2160 0120 A45252F6 		.word	-162377052
 2161 0124 763B3B4D 		.word	1295727478
 2162 0128 B7D6D661 		.word	1641469623
 2163 012c 7DB3B3CE 		.word	-827083907
 2164 0130 5229297B 		.word	2066295122
 2165 0134 DDE3E33E 		.word	1055122397
 2166 0138 5E2F2F71 		.word	1898917726
 2167 013c 13848497 		.word	-1752923117
 2168 0140 A65353F5 		.word	-179088474
 2169 0144 B9D1D168 		.word	1758581177
 2170 0148 00000000 		.word	0
 2171 014c C1EDED2C 		.word	753790401
 2172 0150 40202060 		.word	1612718144
 2173 0154 E3FCFC1F 		.word	536673507
 2174 0158 79B1B1C8 		.word	-927878791
 2175 015c B65B5BED 		.word	-312779850
 2176 0160 D46A6ABE 		.word	-1100322092
 2177 0164 8DCBCB46 		.word	1187761037
 2178 0168 67BEBED9 		.word	-641810841
 2179 016c 7239394B 		.word	1262041458
 2180 0170 944A4ADE 		.word	-565556588
 2181 0174 984C4CD4 		.word	-733197160
 2182 0178 B05858E8 		.word	-396863312
 2183 017c 85CFCF4A 		.word	1255133061
 2184 0180 BBD0D06B 		.word	1808847035
 2185 0184 C5EFEF2A 		.word	720367557
 2186 0188 4FAAAAE5 		.word	-441800113
 2187 018c EDFBFB16 		.word	385612781
 2188 0190 864343C5 		.word	-985447546
 2189 0194 9A4D4DD7 		.word	-682799718
 2190 0198 66333355 		.word	1429418854
 2191 019c 11858594 		.word	-1803188975
 2192 01a0 8A4545CF 		.word	-817543798
 2193 01a4 E9F9F910 		.word	284817897
 2194 01a8 04020206 		.word	100794884
 2195 01ac FE7F7F81 		.word	-2122350594
 2196 01b0 A05050F0 		.word	-263171936
 2197 01b4 783C3C44 		.word	1144798328
ARM GAS  c:\Users\lenovo\AppData\Local\Temp\ccpYsKo5.s 			page 58


 2198 01b8 259F9FBA 		.word	-1163944155
 2199 01bc 4BA8A8E3 		.word	-475486133
 2200 01c0 A25151F3 		.word	-212774494
 2201 01c4 5DA3A3FE 		.word	-22830243
 2202 01c8 804040C0 		.word	-1069531008
 2203 01cc 058F8F8A 		.word	-1970303227
 2204 01d0 3F9292AD 		.word	-1382903233
 2205 01d4 219D9DBC 		.word	-1130521311
 2206 01d8 70383848 		.word	1211644016
 2207 01dc F1F5F504 		.word	83228145
 2208 01e0 63BCBCDF 		.word	-541279133
 2209 01e4 77B6B6C1 		.word	-1044990345
 2210 01e8 AFDADA75 		.word	1977277103
 2211 01ec 42212163 		.word	1663115586
 2212 01f0 20101030 		.word	806359072
 2213 01f4 E5FFFF1A 		.word	452984805
 2214 01f8 FDF3F30E 		.word	250868733
 2215 01fc BFD2D26D 		.word	1842533055
 2216 0200 81CDCD4C 		.word	1288555905
 2217 0204 180C0C14 		.word	336333848
 2218 0208 26131335 		.word	890442534
 2219 020c C3ECEC2F 		.word	804056259
 2220 0210 BE5F5FE1 		.word	-513843266
 2221 0214 359797A2 		.word	-1567123659
 2222 0218 884444CC 		.word	-867941240
 2223 021c 2E171739 		.word	957814574
 2224 0220 93C4C457 		.word	1472513171
 2225 0224 55A7A7F2 		.word	-223893675
 2226 0228 FC7E7E82 		.word	-2105639172
 2227 022c 7A3D3D47 		.word	1195195770
 2228 0230 C86464AC 		.word	-1402706744
 2229 0234 BA5D5DE7 		.word	-413311558
 2230 0238 3219192B 		.word	723065138
 2231 023c E6737395 		.word	-1787595802
 2232 0240 C06060A0 		.word	-1604296512
 2233 0244 19818198 		.word	-1736343271
 2234 0248 9E4F4FD1 		.word	-783331426
 2235 024c A3DCDC7F 		.word	2145180835
 2236 0250 44222266 		.word	1713513028
 2237 0254 542A2A7E 		.word	2116692564
 2238 0258 3B9090AB 		.word	-1416589253
 2239 025c 0B888883 		.word	-2088204277
 2240 0260 8C4646CA 		.word	-901364084
 2241 0264 C7EEEE29 		.word	703524551
 2242 0268 6BB8B8D3 		.word	-742868885
 2243 026c 2814143C 		.word	1007948840
 2244 0270 A7DEDE79 		.word	2044649127
 2245 0274 BC5E5EE2 		.word	-497131844
 2246 0278 160B0B1D 		.word	487262998
 2247 027c ADDBDB76 		.word	1994120109
 2248 0280 DBE0E03B 		.word	1004593371
 2249 0284 64323256 		.word	1446130276
 2250 0288 743A3A4E 		.word	1312438900
 2251 028c 140A0A1E 		.word	503974420
 2252 0290 924949DB 		.word	-615954030
 2253 0294 0C06060A 		.word	168166924
 2254 0298 4824246C 		.word	1814307912
ARM GAS  c:\Users\lenovo\AppData\Local\Temp\ccpYsKo5.s 			page 59


 2255 029c B85C5CE4 		.word	-463709000
 2256 02a0 9FC2C25D 		.word	1573044895
 2257 02a4 BDD3D36E 		.word	1859376061
 2258 02a8 43ACACEF 		.word	-273896381
 2259 02ac C46262A6 		.word	-1503501628
 2260 02b0 399191A8 		.word	-1466855111
 2261 02b4 319595A4 		.word	-1533700815
 2262 02b8 D3E4E437 		.word	937747667
 2263 02bc F279798B 		.word	-1954973198
 2264 02c0 D5E7E732 		.word	854058965
 2265 02c4 8BC8C843 		.word	1137232011
 2266 02c8 6E373759 		.word	1496790894
 2267 02cc DA6D6DB7 		.word	-1217565222
 2268 02d0 018D8D8C 		.word	-1936880383
 2269 02d4 B1D5D564 		.word	1691735473
 2270 02d8 9C4E4ED2 		.word	-766620004
 2271 02dc 49A9A9E0 		.word	-525751991
 2272 02e0 D86C6CB4 		.word	-1267962664
 2273 02e4 AC5656FA 		.word	-95005012
 2274 02e8 F3F4F407 		.word	133494003
 2275 02ec CFEAEA25 		.word	636152527
 2276 02f0 CA6565AF 		.word	-1352309302
 2277 02f4 F47A7A8E 		.word	-1904575756
 2278 02f8 47AEAEE9 		.word	-374428089
 2279 02fc 10080818 		.word	403179536
 2280 0300 6FBABAD5 		.word	-709182865
 2281 0304 F0787888 		.word	-2005370640
 2282 0308 4A25256F 		.word	1864705354
 2283 030c 5C2E2E72 		.word	1915629148
 2284 0310 381C1C24 		.word	605822008
 2285 0314 57A6A6F1 		.word	-240736681
 2286 0318 73B4B4C7 		.word	-944458637
 2287 031c 97C6C651 		.word	1371981463
 2288 0320 CBE8E823 		.word	602466507
 2289 0324 A1DDDD7C 		.word	2094914977
 2290 0328 E874749C 		.word	-1670089496
 2291 032c 3E1F1F21 		.word	555687742
 2292 0330 964B4BDD 		.word	-582268010
 2293 0334 61BDBDDC 		.word	-591544991
 2294 0338 0D8B8B86 		.word	-2037675251
 2295 033c 0F8A8A85 		.word	-2054518257
 2296 0340 E0707090 		.word	-1871679264
 2297 0344 7C3E3E42 		.word	1111375484
 2298 0348 71B5B5C4 		.word	-994724495
 2299 034c CC6666AA 		.word	-1436129588
 2300 0350 904848D8 		.word	-666351472
 2301 0354 06030305 		.word	84083462
 2302 0358 F7F6F601 		.word	32962295
 2303 035c 1C0E0E12 		.word	302911004
 2304 0360 C26161A3 		.word	-1553899070
 2305 0364 6A35355F 		.word	1597322602
 2306 0368 AE5757F9 		.word	-111716434
 2307 036c 69B9B9D0 		.word	-793134743
 2308 0370 17868691 		.word	-1853454825
 2309 0374 99C1C158 		.word	1489093017
 2310 0378 3A1D1D27 		.word	656219450
 2311 037c 279E9EB9 		.word	-1180787161
ARM GAS  c:\Users\lenovo\AppData\Local\Temp\ccpYsKo5.s 			page 60


 2312 0380 D9E1E138 		.word	954327513
 2313 0384 EBF8F813 		.word	335083755
 2314 0388 2B9898B3 		.word	-1281845205
 2315 038c 22111133 		.word	856756514
 2316 0390 D26969BB 		.word	-1150719534
 2317 0394 A9D9D970 		.word	1893325225
 2318 0398 078E8E89 		.word	-1987146233
 2319 039c 339494A7 		.word	-1483434957
 2320 03a0 2D9B9BB6 		.word	-1231316179
 2321 03a4 3C1E1E22 		.word	572399164
 2322 03a8 15878792 		.word	-1836611819
 2323 03ac C9E9E920 		.word	552200649
 2324 03b0 87CECE49 		.word	1238290055
 2325 03b4 AA5555FF 		.word	-11184726
 2326 03b8 50282878 		.word	2015897680
 2327 03bc A5DFDF7A 		.word	2061492133
 2328 03c0 038C8C8F 		.word	-1886614525
 2329 03c4 59A1A1F8 		.word	-123625127
 2330 03c8 09898980 		.word	-2138470135
 2331 03cc 1A0D0D17 		.word	386731290
 2332 03d0 65BFBFDA 		.word	-624967835
 2333 03d4 D7E6E631 		.word	837215959
 2334 03d8 844242C6 		.word	-968736124
 2335 03dc D06868B8 		.word	-1201116976
 2336 03e0 824141C3 		.word	-1019133566
 2337 03e4 299999B0 		.word	-1332111063
 2338 03e8 5A2D2D77 		.word	1999449434
 2339 03ec 1E0F0F11 		.word	286199582
 2340 03f0 7BB0B0CB 		.word	-877612933
 2341 03f4 A85454FC 		.word	-61582168
 2342 03f8 6DBBBBD6 		.word	-692339859
 2343 03fc 2C16163A 		.word	974525996
 2344              		.section	.rodata.FT1,"a",%progbits
 2345              		.align	2
 2346              		.set	.LANCHOR7,. + 0
 2349              	FT1:
 2350 0000 A5C66363 		.word	1667483301
 2351 0004 84F87C7C 		.word	2088564868
 2352 0008 99EE7777 		.word	2004348569
 2353 000c 8DF67B7B 		.word	2071721613
 2354 0010 0DFFF2F2 		.word	-218956019
 2355 0014 BDD66B6B 		.word	1802229437
 2356 0018 B1DE6F6F 		.word	1869602481
 2357 001c 5491C5C5 		.word	-976907948
 2358 0020 50603030 		.word	808476752
 2359 0024 03020101 		.word	16843267
 2360 0028 A9CE6767 		.word	1734856361
 2361 002c 7D562B2B 		.word	724260477
 2362 0030 19E7FEFE 		.word	-16849127
 2363 0034 62B5D7D7 		.word	-673729182
 2364 0038 E64DABAB 		.word	-1414836762
 2365 003c 9AEC7676 		.word	1987505306
 2366 0040 458FCACA 		.word	-892694715
 2367 0044 9D1F8282 		.word	-2105401443
 2368 0048 4089C9C9 		.word	-909539008
 2369 004c 87FA7D7D 		.word	2105408135
 2370 0050 15EFFAFA 		.word	-84218091
ARM GAS  c:\Users\lenovo\AppData\Local\Temp\ccpYsKo5.s 			page 61


 2371 0054 EBB25959 		.word	1499050731
 2372 0058 C98E4747 		.word	1195871945
 2373 005c 0BFBF0F0 		.word	-252642549
 2374 0060 EC41ADAD 		.word	-1381154324
 2375 0064 67B3D4D4 		.word	-724257945
 2376 0068 FD5FA2A2 		.word	-1566416899
 2377 006c EA45AFAF 		.word	-1347467798
 2378 0070 BF239C9C 		.word	-1667488833
 2379 0074 F753A4A4 		.word	-1532734473
 2380 0078 96E47272 		.word	1920132246
 2381 007c 5B9BC0C0 		.word	-1061119141
 2382 0080 C275B7B7 		.word	-1212713534
 2383 0084 1CE1FDFD 		.word	-33693412
 2384 0088 AE3D9393 		.word	-1819066962
 2385 008c 6A4C2626 		.word	640044138
 2386 0090 5A6C3636 		.word	909536346
 2387 0094 417E3F3F 		.word	1061125697
 2388 0098 02F5F7F7 		.word	-134744830
 2389 009c 4F83CCCC 		.word	-859012273
 2390 00a0 5C683434 		.word	875849820
 2391 00a4 F451A5A5 		.word	-1515892236
 2392 00a8 34D1E5E5 		.word	-437923532
 2393 00ac 08F9F1F1 		.word	-235800312
 2394 00b0 93E27171 		.word	1903288979
 2395 00b4 73ABD8D8 		.word	-656888973
 2396 00b8 53623131 		.word	825320019
 2397 00bc 3F2A1515 		.word	353708607
 2398 00c0 0C080404 		.word	67373068
 2399 00c4 5295C7C7 		.word	-943221422
 2400 00c8 65462323 		.word	589514341
 2401 00cc 5E9DC3C3 		.word	-1010590370
 2402 00d0 28301818 		.word	404238376
 2403 00d4 A1379696 		.word	-1768540255
 2404 00d8 0F0A0505 		.word	84216335
 2405 00dc B52F9A9A 		.word	-1701171275
 2406 00e0 090E0707 		.word	117902857
 2407 00e4 36241212 		.word	303178806
 2408 00e8 9B1B8080 		.word	-2139087973
 2409 00ec 3DDFE2E2 		.word	-488448195
 2410 00f0 26CDEBEB 		.word	-336868058
 2411 00f4 694E2727 		.word	656887401
 2412 00f8 CD7FB2B2 		.word	-1296924723
 2413 00fc 9FEA7575 		.word	1970662047
 2414 0100 1B120909 		.word	151589403
 2415 0104 9E1D8383 		.word	-2088559202
 2416 0108 74582C2C 		.word	741103732
 2417 010c 2E341A1A 		.word	437924910
 2418 0110 2D361B1B 		.word	454768173
 2419 0114 B2DC6E6E 		.word	1852759218
 2420 0118 EEB45A5A 		.word	1515893998
 2421 011c FB5BA0A0 		.word	-1600103429
 2422 0120 F6A45252 		.word	1381147894
 2423 0124 4D763B3B 		.word	993752653
 2424 0128 61B7D6D6 		.word	-690571423
 2425 012c CE7DB3B3 		.word	-1280082482
 2426 0130 7B522929 		.word	690573947
 2427 0134 3EDDE3E3 		.word	-471605954
ARM GAS  c:\Users\lenovo\AppData\Local\Temp\ccpYsKo5.s 			page 62


 2428 0138 715E2F2F 		.word	791633521
 2429 013c 97138484 		.word	-2071719017
 2430 0140 F5A65353 		.word	1397991157
 2431 0144 68B9D1D1 		.word	-774784664
 2432 0148 00000000 		.word	0
 2433 014c 2CC1EDED 		.word	-303185620
 2434 0150 60402020 		.word	538984544
 2435 0154 1FE3FCFC 		.word	-50535649
 2436 0158 C879B1B1 		.word	-1313769016
 2437 015c EDB65B5B 		.word	1532737261
 2438 0160 BED46A6A 		.word	1785386174
 2439 0164 468DCBCB 		.word	-875852474
 2440 0168 D967BEBE 		.word	-1094817831
 2441 016c 4B723939 		.word	960066123
 2442 0170 DE944A4A 		.word	1246401758
 2443 0174 D4984C4C 		.word	1280088276
 2444 0178 E8B05858 		.word	1482207464
 2445 017c 4A85CFCF 		.word	-808483510
 2446 0180 6BBBD0D0 		.word	-791626901
 2447 0184 2AC5EFEF 		.word	-269499094
 2448 0188 E54FAAAA 		.word	-1431679003
 2449 018c 16EDFBFB 		.word	-67375850
 2450 0190 C5864343 		.word	1128498885
 2451 0194 D79A4D4D 		.word	1296931543
 2452 0198 55663333 		.word	859006549
 2453 019c 94118585 		.word	-2054876780
 2454 01a0 CF8A4545 		.word	1162185423
 2455 01a4 10E9F9F9 		.word	-101062384
 2456 01a8 06040202 		.word	33686534
 2457 01ac 81FE7F7F 		.word	2139094657
 2458 01b0 F0A05050 		.word	1347461360
 2459 01b4 44783C3C 		.word	1010595908
 2460 01b8 BA259F9F 		.word	-1616960070
 2461 01bc E34BA8A8 		.word	-1465365533
 2462 01c0 F3A25151 		.word	1364304627
 2463 01c4 FE5DA3A3 		.word	-1549574658
 2464 01c8 C0804040 		.word	1077969088
 2465 01cc 8A058F8F 		.word	-1886452342
 2466 01d0 AD3F9292 		.word	-1835909203
 2467 01d4 BC219D9D 		.word	-1650646596
 2468 01d8 48703838 		.word	943222856
 2469 01dc 04F1F5F5 		.word	-168431356
 2470 01e0 DF63BCBC 		.word	-1128504353
 2471 01e4 C177B6B6 		.word	-1229555775
 2472 01e8 75AFDADA 		.word	-623202443
 2473 01ec 63422121 		.word	555827811
 2474 01f0 30201010 		.word	269492272
 2475 01f4 1AE5FFFF 		.word	-6886
 2476 01f8 0EFDF3F3 		.word	-202113778
 2477 01fc 6DBFD2D2 		.word	-757940371
 2478 0200 4C81CDCD 		.word	-842170036
 2479 0204 14180C0C 		.word	202119188
 2480 0208 35261313 		.word	320022069
 2481 020c 2FC3ECEC 		.word	-320027857
 2482 0210 E1BE5F5F 		.word	1600110305
 2483 0214 A2359797 		.word	-1751698014
 2484 0218 CC884444 		.word	1145342156
ARM GAS  c:\Users\lenovo\AppData\Local\Temp\ccpYsKo5.s 			page 63


 2485 021c 392E1717 		.word	387395129
 2486 0220 5793C4C4 		.word	-993750185
 2487 0224 F255A7A7 		.word	-1482205710
 2488 0228 82FC7E7E 		.word	2122251394
 2489 022c 477A3D3D 		.word	1027439175
 2490 0230 ACC86464 		.word	1684326572
 2491 0234 E7BA5D5D 		.word	1566423783
 2492 0238 2B321919 		.word	421081643
 2493 023c 95E67373 		.word	1936975509
 2494 0240 A0C06060 		.word	1616953504
 2495 0244 98198181 		.word	-2122245736
 2496 0248 D19E4F4F 		.word	1330618065
 2497 024c 7FA3DCDC 		.word	-589520001
 2498 0250 66442222 		.word	572671078
 2499 0254 7E542A2A 		.word	707417214
 2500 0258 AB3B9090 		.word	-1869595733
 2501 025c 830B8888 		.word	-2004350077
 2502 0260 CA8C4646 		.word	1179028682
 2503 0264 29C7EEEE 		.word	-286341335
 2504 0268 D36BB8B8 		.word	-1195873325
 2505 026c 3C281414 		.word	336865340
 2506 0270 79A7DEDE 		.word	-555833479
 2507 0274 E2BC5E5E 		.word	1583267042
 2508 0278 1D160B0B 		.word	185275933
 2509 027c 76ADDBDB 		.word	-606360202
 2510 0280 3BDBE0E0 		.word	-522134725
 2511 0284 56643232 		.word	842163286
 2512 0288 4E743A3A 		.word	976909390
 2513 028c 1E140A0A 		.word	168432670
 2514 0290 DB924949 		.word	1229558491
 2515 0294 0A0C0606 		.word	101059594
 2516 0298 6C482424 		.word	606357612
 2517 029c E4B85C5C 		.word	1549580516
 2518 02a0 5D9FC2C2 		.word	-1027432611
 2519 02a4 6EBDD3D3 		.word	-741098130
 2520 02a8 EF43ACAC 		.word	-1397996561
 2521 02ac A6C46262 		.word	1650640038
 2522 02b0 A8399191 		.word	-1852753496
 2523 02b4 A4319595 		.word	-1785384540
 2524 02b8 37D3E4E4 		.word	-454765769
 2525 02bc 8BF27979 		.word	2038035083
 2526 02c0 32D5E7E7 		.word	-404237006
 2527 02c4 438BC8C8 		.word	-926381245
 2528 02c8 596E3737 		.word	926379609
 2529 02cc B7DA6D6D 		.word	1835915959
 2530 02d0 8C018D8D 		.word	-1920138868
 2531 02d4 64B1D5D5 		.word	-707415708
 2532 02d8 D29C4E4E 		.word	1313774802
 2533 02dc E049A9A9 		.word	-1448523296
 2534 02e0 B4D86C6C 		.word	1819072692
 2535 02e4 FAAC5656 		.word	1448520954
 2536 02e8 07F3F4F4 		.word	-185273593
 2537 02ec 25CFEAEA 		.word	-353710299
 2538 02f0 AFCA6565 		.word	1701169839
 2539 02f4 8EF47A7A 		.word	2054878350
 2540 02f8 E947AEAE 		.word	-1364310039
 2541 02fc 18100808 		.word	134746136
ARM GAS  c:\Users\lenovo\AppData\Local\Temp\ccpYsKo5.s 			page 64


 2542 0300 D56FBABA 		.word	-1162186795
 2543 0304 88F07878 		.word	2021191816
 2544 0308 6F4A2525 		.word	623200879
 2545 030c 725C2E2E 		.word	774790258
 2546 0310 24381C1C 		.word	471611428
 2547 0314 F157A6A6 		.word	-1499047951
 2548 0318 C773B4B4 		.word	-1263242297
 2549 031c 5197C6C6 		.word	-960063663
 2550 0320 23CBE8E8 		.word	-387396829
 2551 0324 7CA1DDDD 		.word	-572677764
 2552 0328 9CE87474 		.word	1953818780
 2553 032c 213E1F1F 		.word	522141217
 2554 0330 DD964B4B 		.word	1263245021
 2555 0334 DC61BDBD 		.word	-1111662116
 2556 0338 860D8B8B 		.word	-1953821306
 2557 033c 850F8A8A 		.word	-1970663547
 2558 0340 90E07070 		.word	1886445712
 2559 0344 427C3E3E 		.word	1044282434
 2560 0348 C471B5B5 		.word	-1246400060
 2561 034c AACC6666 		.word	1718013098
 2562 0350 D8904848 		.word	1212715224
 2563 0354 05060303 		.word	50529797
 2564 0358 01F7F6F6 		.word	-151587071
 2565 035c 121C0E0E 		.word	235805714
 2566 0360 A3C26161 		.word	1633796771
 2567 0364 5F6A3535 		.word	892693087
 2568 0368 F9AE5757 		.word	1465364217
 2569 036c D069B9B9 		.word	-1179031088
 2570 0370 91178686 		.word	-2038032495
 2571 0374 5899C1C1 		.word	-1044276904
 2572 0378 273A1D1D 		.word	488454695
 2573 037c B9279E9E 		.word	-1633802311
 2574 0380 38D9E1E1 		.word	-505292488
 2575 0384 13EBF8F8 		.word	-117904621
 2576 0388 B32B9898 		.word	-1734857805
 2577 038c 33221111 		.word	286335539
 2578 0390 BBD26969 		.word	1768542907
 2579 0394 70A9D9D9 		.word	-640046736
 2580 0398 89078E8E 		.word	-1903294583
 2581 039c A7339494 		.word	-1802226777
 2582 03a0 B62D9B9B 		.word	-1684329034
 2583 03a4 223C1E1E 		.word	505297954
 2584 03a8 92158787 		.word	-2021190254
 2585 03ac 20C9E9E9 		.word	-370554592
 2586 03b0 4987CECE 		.word	-825325751
 2587 03b4 FFAA5555 		.word	1431677695
 2588 03b8 78502828 		.word	673730680
 2589 03bc 7AA5DFDF 		.word	-538991238
 2590 03c0 8F038C8C 		.word	-1936981105
 2591 03c4 F859A1A1 		.word	-1583261192
 2592 03c8 80098989 		.word	-1987507840
 2593 03cc 171A0D0D 		.word	218962455
 2594 03d0 DA65BFBF 		.word	-1077975590
 2595 03d4 31D7E6E6 		.word	-421079247
 2596 03d8 C6844242 		.word	1111655622
 2597 03dc B8D06868 		.word	1751699640
 2598 03e0 C3824141 		.word	1094812355
ARM GAS  c:\Users\lenovo\AppData\Local\Temp\ccpYsKo5.s 			page 65


 2599 03e4 B0299999 		.word	-1718015568
 2600 03e8 775A2D2D 		.word	757946999
 2601 03ec 111E0F0F 		.word	252648977
 2602 03f0 CB7BB0B0 		.word	-1330611253
 2603 03f4 FCA85454 		.word	1414834428
 2604 03f8 D66DBBBB 		.word	-1145344554
 2605 03fc 3A2C1616 		.word	370551866
 2606              		.section	.rodata.FT2,"a",%progbits
 2607              		.align	2
 2608              		.set	.LANCHOR8,. + 0
 2611              	FT2:
 2612 0000 63A5C663 		.word	1673962851
 2613 0004 7C84F87C 		.word	2096661628
 2614 0008 7799EE77 		.word	2012125559
 2615 000c 7B8DF67B 		.word	2079755643
 2616 0010 F20DFFF2 		.word	-218165774
 2617 0014 6BBDD66B 		.word	1809235307
 2618 0018 6FB1DE6F 		.word	1876865391
 2619 001c C55491C5 		.word	-980331323
 2620 0020 30506030 		.word	811618352
 2621 0024 01030201 		.word	16909057
 2622 0028 67A9CE67 		.word	1741597031
 2623 002c 2B7D562B 		.word	727088427
 2624 0030 FE19E7FE 		.word	-18408962
 2625 0034 D762B5D7 		.word	-675978537
 2626 0038 ABE64DAB 		.word	-1420958037
 2627 003c 769AEC76 		.word	1995217526
 2628 0040 CA458FCA 		.word	-896580150
 2629 0044 829D1F82 		.word	-2111857278
 2630 0048 C94089C9 		.word	-913751863
 2631 004c 7D87FA7D 		.word	2113570685
 2632 0050 FA15EFFA 		.word	-84994566
 2633 0054 59EBB259 		.word	1504897881
 2634 0058 47C98E47 		.word	1200539975
 2635 005c F00BFBF0 		.word	-251982864
 2636 0060 ADEC41AD 		.word	-1388188499
 2637 0064 D467B3D4 		.word	-726439980
 2638 0068 A2FD5FA2 		.word	-1570767454
 2639 006c AFEA45AF 		.word	-1354372433
 2640 0070 9CBF239C 		.word	-1675378788
 2641 0074 A4F753A4 		.word	-1538000988
 2642 0078 7296E472 		.word	1927583346
 2643 007c C05B9BC0 		.word	-1063560256
 2644 0080 B7C275B7 		.word	-1217019209
 2645 0084 FD1CE1FD 		.word	-35578627
 2646 0088 93AE3D93 		.word	-1824674157
 2647 008c 266A4C26 		.word	642542118
 2648 0090 365A6C36 		.word	913070646
 2649 0094 3F417E3F 		.word	1065238847
 2650 0098 F702F5F7 		.word	-134937865
 2651 009c CC4F83CC 		.word	-863809588
 2652 00a0 345C6834 		.word	879254580
 2653 00a4 A5F451A5 		.word	-1521355611
 2654 00a8 E534D1E5 		.word	-439274267
 2655 00ac F108F9F1 		.word	-235337487
 2656 00b0 7193E271 		.word	1910674289
 2657 00b4 D873ABD8 		.word	-659852328
ARM GAS  c:\Users\lenovo\AppData\Local\Temp\ccpYsKo5.s 			page 66


 2658 00b8 31536231 		.word	828527409
 2659 00bc 153F2A15 		.word	355090197
 2660 00c0 040C0804 		.word	67636228
 2661 00c4 C75295C7 		.word	-946515257
 2662 00c8 23654623 		.word	591815971
 2663 00cc C35E9DC3 		.word	-1013096765
 2664 00d0 18283018 		.word	405809176
 2665 00d4 96A13796 		.word	-1774739050
 2666 00d8 050F0A05 		.word	84545285
 2667 00dc 9AB52F9A 		.word	-1708149350
 2668 00e0 07090E07 		.word	118360327
 2669 00e4 12362412 		.word	304363026
 2670 00e8 809B1B80 		.word	-2145674368
 2671 00ec E23DDFE2 		.word	-488686110
 2672 00f0 EB26CDEB 		.word	-338876693
 2673 00f4 27694E27 		.word	659450151
 2674 00f8 B2CD7FB2 		.word	-1300247118
 2675 00fc 759FEA75 		.word	1978310517
 2676 0100 091B1209 		.word	152181513
 2677 0104 839E1D83 		.word	-2095210877
 2678 0108 2C74582C 		.word	743994412
 2679 010c 1A2E341A 		.word	439627290
 2680 0110 1B2D361B 		.word	456535323
 2681 0114 6EB2DC6E 		.word	1859957358
 2682 0118 5AEEB45A 		.word	1521806938
 2683 011c A0FB5BA0 		.word	-1604584544
 2684 0120 52F6A452 		.word	1386542674
 2685 0124 3B4D763B 		.word	997608763
 2686 0128 D661B7D6 		.word	-692624938
 2687 012c B3CE7DB3 		.word	-1283600717
 2688 0130 297B5229 		.word	693271337
 2689 0134 E33EDDE3 		.word	-472039709
 2690 0138 2F715E2F 		.word	794718511
 2691 013c 84971384 		.word	-2079090812
 2692 0140 53F5A653 		.word	1403450707
 2693 0144 D168B9D1 		.word	-776378159
 2694 0148 00000000 		.word	0
 2695 014c ED2CC1ED 		.word	-306107155
 2696 0150 20604020 		.word	541089824
 2697 0154 FC1FE3FC 		.word	-52224004
 2698 0158 B1C879B1 		.word	-1317418831
 2699 015c 5BEDB65B 		.word	1538714971
 2700 0160 6ABED46A 		.word	1792327274
 2701 0164 CB468DCB 		.word	-879933749
 2702 0168 BED967BE 		.word	-1100490306
 2703 016c 394B7239 		.word	963791673
 2704 0170 4ADE944A 		.word	1251270218
 2705 0174 4CD4984C 		.word	1285084236
 2706 0178 58E8B058 		.word	1487988824
 2707 017c CF4A85CF 		.word	-813348145
 2708 0180 D06BBBD0 		.word	-793023536
 2709 0184 EF2AC5EF 		.word	-272291089
 2710 0188 AAE54FAA 		.word	-1437604438
 2711 018c FB16EDFB 		.word	-68348165
 2712 0190 43C58643 		.word	1132905795
 2713 0194 4DD79A4D 		.word	1301993293
 2714 0198 33556633 		.word	862344499
ARM GAS  c:\Users\lenovo\AppData\Local\Temp\ccpYsKo5.s 			page 67


 2715 019c 85941185 		.word	-2062445435
 2716 01a0 45CF8A45 		.word	1166724933
 2717 01a4 F910E9F9 		.word	-102166279
 2718 01a8 02060402 		.word	33818114
 2719 01ac 7F81FE7F 		.word	2147385727
 2720 01b0 50F0A050 		.word	1352724560
 2721 01b4 3C44783C 		.word	1014514748
 2722 01b8 9FBA259F 		.word	-1624917345
 2723 01bc A8E34BA8 		.word	-1471421528
 2724 01c0 51F3A251 		.word	1369633617
 2725 01c4 A3FE5DA3 		.word	-1554121053
 2726 01c8 40C08040 		.word	1082179648
 2727 01cc 8F8A058F 		.word	-1895462257
 2728 01d0 92AD3F92 		.word	-1841320558
 2729 01d4 9DBC219D 		.word	-1658733411
 2730 01d8 38487038 		.word	946882616
 2731 01dc F504F1F5 		.word	-168753931
 2732 01e0 BCDF63BC 		.word	-1134305348
 2733 01e4 B6C177B6 		.word	-1233665610
 2734 01e8 DA75AFDA 		.word	-626035238
 2735 01ec 21634221 		.word	557998881
 2736 01f0 10302010 		.word	270544912
 2737 01f4 FF1AE5FF 		.word	-1762561
 2738 01f8 F30EFDF3 		.word	-201519373
 2739 01fc D26DBFD2 		.word	-759206446
 2740 0200 CD4C81CD 		.word	-847164211
 2741 0204 0C14180C 		.word	202904588
 2742 0208 13352613 		.word	321271059
 2743 020c EC2FC3EC 		.word	-322752532
 2744 0210 5FE1BE5F 		.word	1606345055
 2745 0214 97A23597 		.word	-1758092649
 2746 0218 44CC8844 		.word	1149815876
 2747 021c 17392E17 		.word	388905239
 2748 0220 C45793C4 		.word	-996976700
 2749 0224 A7F255A7 		.word	-1487539545
 2750 0228 7E82FC7E 		.word	2130477694
 2751 022c 3D477A3D 		.word	1031423805
 2752 0230 64ACC864 		.word	1690872932
 2753 0234 5DE7BA5D 		.word	1572530013
 2754 0238 192B3219 		.word	422718233
 2755 023c 7395E673 		.word	1944491379
 2756 0240 60A0C060 		.word	1623236704
 2757 0244 81981981 		.word	-2129028991
 2758 0248 4FD19E4F 		.word	1335808335
 2759 024c DC7FA3DC 		.word	-593264676
 2760 0250 22664422 		.word	574907938
 2761 0254 2A7E542A 		.word	710180394
 2762 0258 90AB3B90 		.word	-1875137648
 2763 025c 88830B88 		.word	-2012511352
 2764 0260 46CA8C46 		.word	1183631942
 2765 0264 EE29C7EE 		.word	-288937490
 2766 0268 B8D36BB8 		.word	-1200893000
 2767 026c 143C2814 		.word	338181140
 2768 0270 DE79A7DE 		.word	-559449634
 2769 0274 5EE2BC5E 		.word	1589437022
 2770 0278 0B1D160B 		.word	185998603
 2771 027c DB76ADDB 		.word	-609388837
ARM GAS  c:\Users\lenovo\AppData\Local\Temp\ccpYsKo5.s 			page 68


 2772 0280 E03BDBE0 		.word	-522503200
 2773 0284 32566432 		.word	845436466
 2774 0288 3A4E743A 		.word	980700730
 2775 028c 0A1E140A 		.word	169090570
 2776 0290 49DB9249 		.word	1234361161
 2777 0294 060A0C06 		.word	101452294
 2778 0298 246C4824 		.word	608726052
 2779 029c 5CE4B85C 		.word	1555620956
 2780 02a0 C25D9FC2 		.word	-1029743166
 2781 02a4 D36EBDD3 		.word	-742560045
 2782 02a8 ACEF43AC 		.word	-1404833876
 2783 02ac 62A6C462 		.word	1657054818
 2784 02b0 91A83991 		.word	-1858492271
 2785 02b4 95A43195 		.word	-1791908715
 2786 02b8 E437D3E4 		.word	-455919644
 2787 02bc 798BF279 		.word	2045938553
 2788 02c0 E732D5E7 		.word	-405458201
 2789 02c4 C8438BC8 		.word	-930397240
 2790 02c8 37596E37 		.word	929978679
 2791 02cc 6DB7DA6D 		.word	1843050349
 2792 02d0 8D8C018D 		.word	-1929278323
 2793 02d4 D564B1D5 		.word	-709794603
 2794 02d8 4ED29C4E 		.word	1318900302
 2795 02dc A9E049A9 		.word	-1454776151
 2796 02e0 6CB4D86C 		.word	1826141292
 2797 02e4 56FAAC56 		.word	1454176854
 2798 02e8 F407F3F4 		.word	-185399308
 2799 02ec EA25CFEA 		.word	-355523094
 2800 02f0 65AFCA65 		.word	1707781989
 2801 02f4 7A8EF47A 		.word	2062847610
 2802 02f8 AEE947AE 		.word	-1371018834
 2803 02fc 08181008 		.word	135272456
 2804 0300 BAD56FBA 		.word	-1167075910
 2805 0304 7888F078 		.word	2029029496
 2806 0308 256F4A25 		.word	625635109
 2807 030c 2E725C2E 		.word	777810478
 2808 0310 1C24381C 		.word	473441308
 2809 0314 A6F157A6 		.word	-1504185946
 2810 0318 B4C773B4 		.word	-1267480652
 2811 031c C65197C6 		.word	-963161658
 2812 0320 E823CBE8 		.word	-389340184
 2813 0324 DD7CA1DD 		.word	-576619299
 2814 0328 749CE874 		.word	1961401460
 2815 032c 1F213E1F 		.word	524165407
 2816 0330 4BDD964B 		.word	1268178251
 2817 0334 BDDC61BD 		.word	-1117659971
 2818 0338 8B860D8B 		.word	-1962047861
 2819 033c 8A850F8A 		.word	-1978694262
 2820 0340 7090E070 		.word	1893765232
 2821 0344 3E427C3E 		.word	1048330814
 2822 0348 B5C471B5 		.word	-1250835275
 2823 034c 66AACC66 		.word	1724688998
 2824 0350 48D89048 		.word	1217452104
 2825 0354 03050603 		.word	50726147
 2826 0358 F601F7F6 		.word	-151584266
 2827 035c 0E121C0E 		.word	236720654
 2828 0360 61A3C261 		.word	1640145761
ARM GAS  c:\Users\lenovo\AppData\Local\Temp\ccpYsKo5.s 			page 69


 2829 0364 355F6A35 		.word	896163637
 2830 0368 57F9AE57 		.word	1471084887
 2831 036c B9D069B9 		.word	-1184247623
 2832 0370 86911786 		.word	-2045275770
 2833 0374 C15899C1 		.word	-1046914879
 2834 0378 1D273A1D 		.word	490350365
 2835 037c 9EB9279E 		.word	-1641563746
 2836 0380 E138D9E1 		.word	-505857823
 2837 0384 F813EBF8 		.word	-118811656
 2838 0388 98B32B98 		.word	-1741966440
 2839 038c 11332211 		.word	287453969
 2840 0390 69BBD269 		.word	1775418217
 2841 0394 D970A9D9 		.word	-643206951
 2842 0398 8E89078E 		.word	-1912108658
 2843 039c 94A73394 		.word	-1808554092
 2844 03a0 9BB62D9B 		.word	-1691502949
 2845 03a4 1E223C1E 		.word	507257374
 2846 03a8 87921587 		.word	-2028629369
 2847 03ac E920C9E9 		.word	-372694807
 2848 03b0 CE4987CE 		.word	-829994546
 2849 03b4 55FFAA55 		.word	1437269845
 2850 03b8 28785028 		.word	676362280
 2851 03bc DF7AA5DF 		.word	-542803233
 2852 03c0 8C8F038C 		.word	-1945923700
 2853 03c4 A1F859A1 		.word	-1587939167
 2854 03c8 89800989 		.word	-1995865975
 2855 03cc 0D171A0D 		.word	219813645
 2856 03d0 BFDA65BF 		.word	-1083843905
 2857 03d4 E631D7E6 		.word	-422104602
 2858 03d8 42C68442 		.word	1115997762
 2859 03dc 68B8D068 		.word	1758509160
 2860 03e0 41C38241 		.word	1099088705
 2861 03e4 99B02999 		.word	-1725321063
 2862 03e8 2D775A2D 		.word	760903469
 2863 03ec 0F111E0F 		.word	253628687
 2864 03f0 B0CB7BB0 		.word	-1334064208
 2865 03f4 54FCA854 		.word	1420360788
 2866 03f8 BBD66DBB 		.word	-1150429509
 2867 03fc 163A2C16 		.word	371997206
 2868              		.section	.rodata.FT3,"a",%progbits
 2869              		.align	2
 2870              		.set	.LANCHOR9,. + 0
 2873              	FT3:
 2874 0000 6363A5C6 		.word	-962239645
 2875 0004 7C7C84F8 		.word	-125535108
 2876 0008 777799EE 		.word	-291932297
 2877 000c 7B7B8DF6 		.word	-158499973
 2878 0010 F2F20DFF 		.word	-15863054
 2879 0014 6B6BBDD6 		.word	-692229269
 2880 0018 6F6FB1DE 		.word	-558796945
 2881 001c C5C55491 		.word	-1856715323
 2882 0020 30305060 		.word	1615867952
 2883 0024 01010302 		.word	33751297
 2884 0028 6767A9CE 		.word	-827758745
 2885 002c 2B2B7D56 		.word	1451043627
 2886 0030 FEFE19E7 		.word	-417726722
 2887 0034 D7D762B5 		.word	-1251813417
ARM GAS  c:\Users\lenovo\AppData\Local\Temp\ccpYsKo5.s 			page 70


 2888 0038 ABABE64D 		.word	1306962859
 2889 003c 76769AEC 		.word	-325421450
 2890 0040 CACA458F 		.word	-1891251510
 2891 0044 82829D1F 		.word	530416258
 2892 0048 C9C94089 		.word	-1992242743
 2893 004c 7D7D87FA 		.word	-91783811
 2894 0050 FAFA15EF 		.word	-283772166
 2895 0054 5959EBB2 		.word	-1293199015
 2896 0058 4747C98E 		.word	-1899411641
 2897 005c F0F00BFB 		.word	-83103504
 2898 0060 ADADEC41 		.word	1106029997
 2899 0064 D4D467B3 		.word	-1285040940
 2900 0068 A2A2FD5F 		.word	1610457762
 2901 006c AFAFEA45 		.word	1173008303
 2902 0070 9C9CBF23 		.word	599760028
 2903 0074 A4A4F753 		.word	1408738468
 2904 0078 727296E4 		.word	-459902350
 2905 007c C0C05B9B 		.word	-1688485696
 2906 0080 B7B7C275 		.word	1975695287
 2907 0084 FDFD1CE1 		.word	-518193667
 2908 0088 9393AE3D 		.word	1034851219
 2909 008c 26266A4C 		.word	1282024998
 2910 0090 36365A6C 		.word	1817851446
 2911 0094 3F3F417E 		.word	2118205247
 2912 0098 F7F702F5 		.word	-184354825
 2913 009c CCCC4F83 		.word	-2091922228
 2914 00a0 34345C68 		.word	1750873140
 2915 00a4 A5A5F451 		.word	1374987685
 2916 00a8 E5E534D1 		.word	-785062427
 2917 00ac F1F108F9 		.word	-116854287
 2918 00b0 717193E2 		.word	-493653647
 2919 00b4 D8D873AB 		.word	-1418471208
 2920 00b8 31315362 		.word	1649619249
 2921 00bc 15153F2A 		.word	708777237
 2922 00c0 04040C08 		.word	135005188
 2923 00c4 C7C75295 		.word	-1789737017
 2924 00c8 23236546 		.word	1181033251
 2925 00cc C3C35E9D 		.word	-1654733885
 2926 00d0 18182830 		.word	807933976
 2927 00d4 9696A137 		.word	933336726
 2928 00d8 05050F0A 		.word	168756485
 2929 00dc 9A9AB52F 		.word	800430746
 2930 00e0 0707090E 		.word	235472647
 2931 00e4 12123624 		.word	607523346
 2932 00e8 80809B1B 		.word	463175808
 2933 00ec E2E23DDF 		.word	-549592350
 2934 00f0 EBEB26CD 		.word	-853087253
 2935 00f4 2727694E 		.word	1315514151
 2936 00f8 B2B2CD7F 		.word	2144187058
 2937 00fc 75759FEA 		.word	-358648459
 2938 0100 09091B12 		.word	303761673
 2939 0104 83839E1D 		.word	496927619
 2940 0108 2C2C7458 		.word	1484008492
 2941 010c 1A1A2E34 		.word	875436570
 2942 0110 1B1B2D36 		.word	908925723
 2943 0114 6E6EB2DC 		.word	-592286098
 2944 0118 5A5AEEB4 		.word	-1259447718
ARM GAS  c:\Users\lenovo\AppData\Local\Temp\ccpYsKo5.s 			page 71


 2945 011c A0A0FB5B 		.word	1543217312
 2946 0120 5252F6A4 		.word	-1527360942
 2947 0124 3B3B4D76 		.word	1984772923
 2948 0128 D6D661B7 		.word	-1218324778
 2949 012c B3B3CE7D 		.word	2110698419
 2950 0130 29297B52 		.word	1383803177
 2951 0134 E3E33EDD 		.word	-583080989
 2952 0138 2F2F715E 		.word	1584475951
 2953 013c 84849713 		.word	328696964
 2954 0140 5353F5A6 		.word	-1493871789
 2955 0144 D1D168B9 		.word	-1184312879
 2956 0148 00000000 		.word	0
 2957 014c EDED2CC1 		.word	-1054020115
 2958 0150 20206040 		.word	1080041504
 2959 0154 FCFC1FE3 		.word	-484442884
 2960 0158 B1B1C879 		.word	2043195825
 2961 015c 5B5BEDB6 		.word	-1225958565
 2962 0160 6A6ABED4 		.word	-725718422
 2963 0164 CBCB468D 		.word	-1924740149
 2964 0168 BEBED967 		.word	1742323390
 2965 016c 39394B72 		.word	1917532473
 2966 0170 4A4ADE94 		.word	-1797371318
 2967 0174 4C4CD498 		.word	-1730917300
 2968 0178 5858E8B0 		.word	-1326950312
 2969 017c CFCF4A85 		.word	-2058694705
 2970 0180 D0D06BBB 		.word	-1150562096
 2971 0184 EFEF2AC5 		.word	-987041809
 2972 0188 AAAAE54F 		.word	1340451498
 2973 018c FBFB16ED 		.word	-317260805
 2974 0190 4343C586 		.word	-2033892541
 2975 0194 4D4DD79A 		.word	-1697166003
 2976 0198 33335566 		.word	1716859699
 2977 019c 85859411 		.word	294946181
 2978 01a0 4545CF8A 		.word	-1966127803
 2979 01a4 F9F910E9 		.word	-384763399
 2980 01a8 02020604 		.word	67502594
 2981 01ac 7F7F81FE 		.word	-25067649
 2982 01b0 5050F0A0 		.word	-1594863536
 2983 01b4 3C3C4478 		.word	2017737788
 2984 01b8 9F9FBA25 		.word	632987551
 2985 01bc A8A8E34B 		.word	1273211048
 2986 01c0 5151F3A2 		.word	-1561112239
 2987 01c4 A3A3FE5D 		.word	1576969123
 2988 01c8 4040C080 		.word	-2134884288
 2989 01cc 8F8F8A05 		.word	92966799
 2990 01d0 9292AD3F 		.word	1068339858
 2991 01d4 9D9DBC21 		.word	566009245
 2992 01d8 38384870 		.word	1883781176
 2993 01dc F5F504F1 		.word	-251333131
 2994 01e0 BCBCDF63 		.word	1675607228
 2995 01e4 B6B6C177 		.word	2009183926
 2996 01e8 DADA75AF 		.word	-1351230758
 2997 01ec 21216342 		.word	1113792801
 2998 01f0 10103020 		.word	540020752
 2999 01f4 FFFF1AE5 		.word	-451215361
 3000 01f8 F3F30EFD 		.word	-49351693
 3001 01fc D2D26DBF 		.word	-1083321646
ARM GAS  c:\Users\lenovo\AppData\Local\Temp\ccpYsKo5.s 			page 72


 3002 0200 CDCD4C81 		.word	-2125673011
 3003 0204 0C0C1418 		.word	403966988
 3004 0208 13133526 		.word	641012499
 3005 020c ECEC2FC3 		.word	-1020269332
 3006 0210 5F5FE1BE 		.word	-1092526241
 3007 0214 9797A235 		.word	899848087
 3008 0218 4444CC88 		.word	-1999879100
 3009 021c 1717392E 		.word	775493399
 3010 0220 C4C45793 		.word	-1822964540
 3011 0224 A7A7F255 		.word	1441965991
 3012 0228 7E7E82FC 		.word	-58556802
 3013 022c 3D3D477A 		.word	2051489085
 3014 0230 6464ACC8 		.word	-928226204
 3015 0234 5D5DE7BA 		.word	-1159242403
 3016 0238 19192B32 		.word	841685273
 3017 023c 737395E6 		.word	-426413197
 3018 0240 6060A0C0 		.word	-1063231392
 3019 0244 81819819 		.word	429425025
 3020 0248 4F4FD19E 		.word	-1630449841
 3021 024c DCDC7FA3 		.word	-1551901476
 3022 0250 22226644 		.word	1147544098
 3023 0254 2A2A7E54 		.word	1417554474
 3024 0258 9090AB3B 		.word	1001099408
 3025 025c 8888830B 		.word	193169544
 3026 0260 4646CA8C 		.word	-1932900794
 3027 0264 EEEE29C7 		.word	-953553170
 3028 0268 B8B8D36B 		.word	1809037496
 3029 026c 14143C28 		.word	675025940
 3030 0270 DEDE79A7 		.word	-1485185314
 3031 0274 5E5EE2BC 		.word	-1126015394
 3032 0278 0B0B1D16 		.word	371002123
 3033 027c DBDB76AD 		.word	-1384719397
 3034 0280 E0E03BDB 		.word	-616832800
 3035 0284 32325664 		.word	1683370546
 3036 0288 3A3A4E74 		.word	1951283770
 3037 028c 0A0A1E14 		.word	337512970
 3038 0290 4949DB92 		.word	-1831122615
 3039 0294 06060A0C 		.word	201983494
 3040 0298 24246C48 		.word	1215046692
 3041 029c 5C5CE4B8 		.word	-1192993700
 3042 02a0 C2C25D9F 		.word	-1621245246
 3043 02a4 D3D36EBD 		.word	-1116810285
 3044 02a8 ACACEF43 		.word	1139780780
 3045 02ac 6262A6C4 		.word	-995728798
 3046 02b0 9191A839 		.word	967348625
 3047 02b4 9595A431 		.word	832869781
 3048 02b8 E4E437D3 		.word	-751311644
 3049 02bc 79798BF2 		.word	-225740423
 3050 02c0 E7E732D5 		.word	-718084121
 3051 02c4 C8C8438B 		.word	-1958491960
 3052 02c8 3737596E 		.word	1851340599
 3053 02cc 6D6DB7DA 		.word	-625513107
 3054 02d0 8D8D8C01 		.word	25988493
 3055 02d4 D5D564B1 		.word	-1318791723
 3056 02d8 4E4ED29C 		.word	-1663938994
 3057 02dc A9A9E049 		.word	1239460265
 3058 02e0 6C6CB4D8 		.word	-659264404
ARM GAS  c:\Users\lenovo\AppData\Local\Temp\ccpYsKo5.s 			page 73


 3059 02e4 5656FAAC 		.word	-1392880042
 3060 02e8 F4F407F3 		.word	-217582348
 3061 02ec EAEA25CF 		.word	-819598614
 3062 02f0 6565AFCA 		.word	-894474907
 3063 02f4 7A7A8EF4 		.word	-191989126
 3064 02f8 AEAEE947 		.word	1206496942
 3065 02fc 08081810 		.word	270010376
 3066 0300 BABAD56F 		.word	1876277946
 3067 0304 787888F0 		.word	-259491720
 3068 0308 25256F4A 		.word	1248797989
 3069 030c 2E2E725C 		.word	1550986798
 3070 0310 1C1C2438 		.word	941890588
 3071 0314 A6A6F157 		.word	1475454630
 3072 0318 B4B4C773 		.word	1942467764
 3073 031c C6C65197 		.word	-1756248378
 3074 0320 E8E823CB 		.word	-886839064
 3075 0324 DDDD7CA1 		.word	-1585652259
 3076 0328 74749CE8 		.word	-392399756
 3077 032c 1F1F213E 		.word	1042358047
 3078 0330 4B4BDD96 		.word	-1763882165
 3079 0334 BDBDDC61 		.word	1641856445
 3080 0338 8B8B860D 		.word	226921355
 3081 033c 8A8A850F 		.word	260409994
 3082 0340 707090E0 		.word	-527404944
 3083 0344 3E3E427C 		.word	2084716094
 3084 0348 B5B5C471 		.word	1908716981
 3085 034c 6666AACC 		.word	-861247898
 3086 0350 4848D890 		.word	-1864873912
 3087 0354 03030506 		.word	100991747
 3088 0358 F6F601F7 		.word	-150866186
 3089 035c 0E0E121C 		.word	470945294
 3090 0360 6161A3C2 		.word	-1029480095
 3091 0364 35355F6A 		.word	1784624437
 3092 0368 5757F9AE 		.word	-1359390889
 3093 036c B9B9D069 		.word	1775286713
 3094 0370 86869117 		.word	395413126
 3095 0374 C1C15899 		.word	-1722236479
 3096 0378 1D1D273A 		.word	975641885
 3097 037c 9E9EB927 		.word	666476190
 3098 0380 E1E138D9 		.word	-650583583
 3099 0384 F8F813EB 		.word	-351012616
 3100 0388 9898B32B 		.word	733190296
 3101 038c 11113322 		.word	573772049
 3102 0390 6969BBD2 		.word	-759469719
 3103 0394 D9D970A9 		.word	-1452221991
 3104 0398 8E8E8907 		.word	126455438
 3105 039c 9494A733 		.word	866620564
 3106 03a0 9B9BB62D 		.word	766942107
 3107 03a4 1E1E223C 		.word	1008868894
 3108 03a8 87879215 		.word	361924487
 3109 03ac E9E920C9 		.word	-920589847
 3110 03b0 CECE4987 		.word	-2025206066
 3111 03b4 5555FFAA 		.word	-1426107051
 3112 03b8 28287850 		.word	1350051880
 3113 03bc DFDF7AA5 		.word	-1518673953
 3114 03c0 8C8C8F03 		.word	59739276
 3115 03c4 A1A1F859 		.word	1509466529
ARM GAS  c:\Users\lenovo\AppData\Local\Temp\ccpYsKo5.s 			page 74


 3116 03c8 89898009 		.word	159418761
 3117 03cc 0D0D171A 		.word	437718285
 3118 03d0 BFBFDA65 		.word	1708834751
 3119 03d4 E6E631D7 		.word	-684595482
 3120 03d8 4242C684 		.word	-2067381694
 3121 03dc 6868B8D0 		.word	-793221016
 3122 03e0 4141C382 		.word	-2101132991
 3123 03e4 9999B029 		.word	699439513
 3124 03e8 2D2D775A 		.word	1517759789
 3125 03ec 0F0F111E 		.word	504434447
 3126 03f0 B0B0CB7B 		.word	2076946608
 3127 03f4 5454FCA8 		.word	-1459858348
 3128 03f8 BBBBD66D 		.word	1842789307
 3129 03fc 16163A2C 		.word	742004246
 3130              		.section	.rodata.RCON,"a",%progbits
 3131              		.align	2
 3132              		.set	.LANCHOR0,. + 0
 3135              	RCON:
 3136 0000 01000000 		.word	1
 3137 0004 02000000 		.word	2
 3138 0008 04000000 		.word	4
 3139 000c 08000000 		.word	8
 3140 0010 10000000 		.word	16
 3141 0014 20000000 		.word	32
 3142 0018 40000000 		.word	64
 3143 001c 80000000 		.word	128
 3144 0020 1B000000 		.word	27
 3145 0024 36000000 		.word	54
 3146              		.section	.rodata.RSb,"a",%progbits
 3147              		.align	2
 3148              		.set	.LANCHOR10,. + 0
 3151              	RSb:
 3152 0000 52       		.byte	82
 3153 0001 09       		.byte	9
 3154 0002 6A       		.byte	106
 3155 0003 D5       		.byte	-43
 3156 0004 30       		.byte	48
 3157 0005 36       		.byte	54
 3158 0006 A5       		.byte	-91
 3159 0007 38       		.byte	56
 3160 0008 BF       		.byte	-65
 3161 0009 40       		.byte	64
 3162 000a A3       		.byte	-93
 3163 000b 9E       		.byte	-98
 3164 000c 81       		.byte	-127
 3165 000d F3       		.byte	-13
 3166 000e D7       		.byte	-41
 3167 000f FB       		.byte	-5
 3168 0010 7C       		.byte	124
 3169 0011 E3       		.byte	-29
 3170 0012 39       		.byte	57
 3171 0013 82       		.byte	-126
 3172 0014 9B       		.byte	-101
 3173 0015 2F       		.byte	47
 3174 0016 FF       		.byte	-1
 3175 0017 87       		.byte	-121
 3176 0018 34       		.byte	52
ARM GAS  c:\Users\lenovo\AppData\Local\Temp\ccpYsKo5.s 			page 75


 3177 0019 8E       		.byte	-114
 3178 001a 43       		.byte	67
 3179 001b 44       		.byte	68
 3180 001c C4       		.byte	-60
 3181 001d DE       		.byte	-34
 3182 001e E9       		.byte	-23
 3183 001f CB       		.byte	-53
 3184 0020 54       		.byte	84
 3185 0021 7B       		.byte	123
 3186 0022 94       		.byte	-108
 3187 0023 32       		.byte	50
 3188 0024 A6       		.byte	-90
 3189 0025 C2       		.byte	-62
 3190 0026 23       		.byte	35
 3191 0027 3D       		.byte	61
 3192 0028 EE       		.byte	-18
 3193 0029 4C       		.byte	76
 3194 002a 95       		.byte	-107
 3195 002b 0B       		.byte	11
 3196 002c 42       		.byte	66
 3197 002d FA       		.byte	-6
 3198 002e C3       		.byte	-61
 3199 002f 4E       		.byte	78
 3200 0030 08       		.byte	8
 3201 0031 2E       		.byte	46
 3202 0032 A1       		.byte	-95
 3203 0033 66       		.byte	102
 3204 0034 28       		.byte	40
 3205 0035 D9       		.byte	-39
 3206 0036 24       		.byte	36
 3207 0037 B2       		.byte	-78
 3208 0038 76       		.byte	118
 3209 0039 5B       		.byte	91
 3210 003a A2       		.byte	-94
 3211 003b 49       		.byte	73
 3212 003c 6D       		.byte	109
 3213 003d 8B       		.byte	-117
 3214 003e D1       		.byte	-47
 3215 003f 25       		.byte	37
 3216 0040 72       		.byte	114
 3217 0041 F8       		.byte	-8
 3218 0042 F6       		.byte	-10
 3219 0043 64       		.byte	100
 3220 0044 86       		.byte	-122
 3221 0045 68       		.byte	104
 3222 0046 98       		.byte	-104
 3223 0047 16       		.byte	22
 3224 0048 D4       		.byte	-44
 3225 0049 A4       		.byte	-92
 3226 004a 5C       		.byte	92
 3227 004b CC       		.byte	-52
 3228 004c 5D       		.byte	93
 3229 004d 65       		.byte	101
 3230 004e B6       		.byte	-74
 3231 004f 92       		.byte	-110
 3232 0050 6C       		.byte	108
 3233 0051 70       		.byte	112
ARM GAS  c:\Users\lenovo\AppData\Local\Temp\ccpYsKo5.s 			page 76


 3234 0052 48       		.byte	72
 3235 0053 50       		.byte	80
 3236 0054 FD       		.byte	-3
 3237 0055 ED       		.byte	-19
 3238 0056 B9       		.byte	-71
 3239 0057 DA       		.byte	-38
 3240 0058 5E       		.byte	94
 3241 0059 15       		.byte	21
 3242 005a 46       		.byte	70
 3243 005b 57       		.byte	87
 3244 005c A7       		.byte	-89
 3245 005d 8D       		.byte	-115
 3246 005e 9D       		.byte	-99
 3247 005f 84       		.byte	-124
 3248 0060 90       		.byte	-112
 3249 0061 D8       		.byte	-40
 3250 0062 AB       		.byte	-85
 3251 0063 00       		.byte	0
 3252 0064 8C       		.byte	-116
 3253 0065 BC       		.byte	-68
 3254 0066 D3       		.byte	-45
 3255 0067 0A       		.byte	10
 3256 0068 F7       		.byte	-9
 3257 0069 E4       		.byte	-28
 3258 006a 58       		.byte	88
 3259 006b 05       		.byte	5
 3260 006c B8       		.byte	-72
 3261 006d B3       		.byte	-77
 3262 006e 45       		.byte	69
 3263 006f 06       		.byte	6
 3264 0070 D0       		.byte	-48
 3265 0071 2C       		.byte	44
 3266 0072 1E       		.byte	30
 3267 0073 8F       		.byte	-113
 3268 0074 CA       		.byte	-54
 3269 0075 3F       		.byte	63
 3270 0076 0F       		.byte	15
 3271 0077 02       		.byte	2
 3272 0078 C1       		.byte	-63
 3273 0079 AF       		.byte	-81
 3274 007a BD       		.byte	-67
 3275 007b 03       		.byte	3
 3276 007c 01       		.byte	1
 3277 007d 13       		.byte	19
 3278 007e 8A       		.byte	-118
 3279 007f 6B       		.byte	107
 3280 0080 3A       		.byte	58
 3281 0081 91       		.byte	-111
 3282 0082 11       		.byte	17
 3283 0083 41       		.byte	65
 3284 0084 4F       		.byte	79
 3285 0085 67       		.byte	103
 3286 0086 DC       		.byte	-36
 3287 0087 EA       		.byte	-22
 3288 0088 97       		.byte	-105
 3289 0089 F2       		.byte	-14
 3290 008a CF       		.byte	-49
ARM GAS  c:\Users\lenovo\AppData\Local\Temp\ccpYsKo5.s 			page 77


 3291 008b CE       		.byte	-50
 3292 008c F0       		.byte	-16
 3293 008d B4       		.byte	-76
 3294 008e E6       		.byte	-26
 3295 008f 73       		.byte	115
 3296 0090 96       		.byte	-106
 3297 0091 AC       		.byte	-84
 3298 0092 74       		.byte	116
 3299 0093 22       		.byte	34
 3300 0094 E7       		.byte	-25
 3301 0095 AD       		.byte	-83
 3302 0096 35       		.byte	53
 3303 0097 85       		.byte	-123
 3304 0098 E2       		.byte	-30
 3305 0099 F9       		.byte	-7
 3306 009a 37       		.byte	55
 3307 009b E8       		.byte	-24
 3308 009c 1C       		.byte	28
 3309 009d 75       		.byte	117
 3310 009e DF       		.byte	-33
 3311 009f 6E       		.byte	110
 3312 00a0 47       		.byte	71
 3313 00a1 F1       		.byte	-15
 3314 00a2 1A       		.byte	26
 3315 00a3 71       		.byte	113
 3316 00a4 1D       		.byte	29
 3317 00a5 29       		.byte	41
 3318 00a6 C5       		.byte	-59
 3319 00a7 89       		.byte	-119
 3320 00a8 6F       		.byte	111
 3321 00a9 B7       		.byte	-73
 3322 00aa 62       		.byte	98
 3323 00ab 0E       		.byte	14
 3324 00ac AA       		.byte	-86
 3325 00ad 18       		.byte	24
 3326 00ae BE       		.byte	-66
 3327 00af 1B       		.byte	27
 3328 00b0 FC       		.byte	-4
 3329 00b1 56       		.byte	86
 3330 00b2 3E       		.byte	62
 3331 00b3 4B       		.byte	75
 3332 00b4 C6       		.byte	-58
 3333 00b5 D2       		.byte	-46
 3334 00b6 79       		.byte	121
 3335 00b7 20       		.byte	32
 3336 00b8 9A       		.byte	-102
 3337 00b9 DB       		.byte	-37
 3338 00ba C0       		.byte	-64
 3339 00bb FE       		.byte	-2
 3340 00bc 78       		.byte	120
 3341 00bd CD       		.byte	-51
 3342 00be 5A       		.byte	90
 3343 00bf F4       		.byte	-12
 3344 00c0 1F       		.byte	31
 3345 00c1 DD       		.byte	-35
 3346 00c2 A8       		.byte	-88
 3347 00c3 33       		.byte	51
ARM GAS  c:\Users\lenovo\AppData\Local\Temp\ccpYsKo5.s 			page 78


 3348 00c4 88       		.byte	-120
 3349 00c5 07       		.byte	7
 3350 00c6 C7       		.byte	-57
 3351 00c7 31       		.byte	49
 3352 00c8 B1       		.byte	-79
 3353 00c9 12       		.byte	18
 3354 00ca 10       		.byte	16
 3355 00cb 59       		.byte	89
 3356 00cc 27       		.byte	39
 3357 00cd 80       		.byte	-128
 3358 00ce EC       		.byte	-20
 3359 00cf 5F       		.byte	95
 3360 00d0 60       		.byte	96
 3361 00d1 51       		.byte	81
 3362 00d2 7F       		.byte	127
 3363 00d3 A9       		.byte	-87
 3364 00d4 19       		.byte	25
 3365 00d5 B5       		.byte	-75
 3366 00d6 4A       		.byte	74
 3367 00d7 0D       		.byte	13
 3368 00d8 2D       		.byte	45
 3369 00d9 E5       		.byte	-27
 3370 00da 7A       		.byte	122
 3371 00db 9F       		.byte	-97
 3372 00dc 93       		.byte	-109
 3373 00dd C9       		.byte	-55
 3374 00de 9C       		.byte	-100
 3375 00df EF       		.byte	-17
 3376 00e0 A0       		.byte	-96
 3377 00e1 E0       		.byte	-32
 3378 00e2 3B       		.byte	59
 3379 00e3 4D       		.byte	77
 3380 00e4 AE       		.byte	-82
 3381 00e5 2A       		.byte	42
 3382 00e6 F5       		.byte	-11
 3383 00e7 B0       		.byte	-80
 3384 00e8 C8       		.byte	-56
 3385 00e9 EB       		.byte	-21
 3386 00ea BB       		.byte	-69
 3387 00eb 3C       		.byte	60
 3388 00ec 83       		.byte	-125
 3389 00ed 53       		.byte	83
 3390 00ee 99       		.byte	-103
 3391 00ef 61       		.byte	97
 3392 00f0 17       		.byte	23
 3393 00f1 2B       		.byte	43
 3394 00f2 04       		.byte	4
 3395 00f3 7E       		.byte	126
 3396 00f4 BA       		.byte	-70
 3397 00f5 77       		.byte	119
 3398 00f6 D6       		.byte	-42
 3399 00f7 26       		.byte	38
 3400 00f8 E1       		.byte	-31
 3401 00f9 69       		.byte	105
 3402 00fa 14       		.byte	20
 3403 00fb 63       		.byte	99
 3404 00fc 55       		.byte	85
ARM GAS  c:\Users\lenovo\AppData\Local\Temp\ccpYsKo5.s 			page 79


 3405 00fd 21       		.byte	33
 3406 00fe 0C       		.byte	12
 3407 00ff 7D       		.byte	125
 3408              		.section	.rodata.RT0,"a",%progbits
 3409              		.align	2
 3410              		.set	.LANCHOR2,. + 0
 3413              	RT0:
 3414 0000 51F4A750 		.word	1353184337
 3415 0004 7E416553 		.word	1399144830
 3416 0008 1A17A4C3 		.word	-1012656358
 3417 000c 3A275E96 		.word	-1772214470
 3418 0010 3BAB6BCB 		.word	-882136261
 3419 0014 1F9D45F1 		.word	-247096033
 3420 0018 ACFA58AB 		.word	-1420232020
 3421 001c 4BE30393 		.word	-1828461749
 3422 0020 2030FA55 		.word	1442459680
 3423 0024 AD766DF6 		.word	-160598355
 3424 0028 88CC7691 		.word	-1854485368
 3425 002c F5024C25 		.word	625738485
 3426 0030 4FE5D7FC 		.word	-52959921
 3427 0034 C52ACBD7 		.word	-674551099
 3428 0038 26354480 		.word	-2143013594
 3429 003c B562A38F 		.word	-1885117771
 3430 0040 DEB15A49 		.word	1230680542
 3431 0044 25BA1B67 		.word	1729870373
 3432 0048 45EA0E98 		.word	-1743852987
 3433 004c 5DFEC0E1 		.word	-507445667
 3434 0050 C32F7502 		.word	41234371
 3435 0054 814CF012 		.word	317738113
 3436 0058 8D4697A3 		.word	-1550367091
 3437 005c 6BD3F9C6 		.word	-956705941
 3438 0060 038F5FE7 		.word	-413167869
 3439 0064 15929C95 		.word	-1784901099
 3440 0068 BF6D7AEB 		.word	-344298049
 3441 006c 955259DA 		.word	-631680363
 3442 0070 D4BE832D 		.word	763608788
 3443 0074 587421D3 		.word	-752782248
 3444 0078 49E06929 		.word	694804553
 3445 007c 8EC9C844 		.word	1154009486
 3446 0080 75C2896A 		.word	1787413109
 3447 0084 F48E7978 		.word	2021232372
 3448 0088 99583E6B 		.word	1799248025
 3449 008c 27B971DD 		.word	-579749593
 3450 0090 BEE14FB6 		.word	-1236278850
 3451 0094 F088AD17 		.word	397248752
 3452 0098 C920AC66 		.word	1722556617
 3453 009c 7DCE3AB4 		.word	-1271214467
 3454 00a0 63DF4A18 		.word	407560035
 3455 00a4 E51A3182 		.word	-2110711067
 3456 00a8 97513360 		.word	1613975959
 3457 00ac 62537F45 		.word	1165972322
 3458 00b0 B16477E0 		.word	-529046351
 3459 00b4 BB6BAE84 		.word	-2068943941
 3460 00b8 FE81A01C 		.word	480281086
 3461 00bc F9082B94 		.word	-1809118983
 3462 00c0 70486858 		.word	1483229296
 3463 00c4 8F45FD19 		.word	436028815
ARM GAS  c:\Users\lenovo\AppData\Local\Temp\ccpYsKo5.s 			page 80


 3464 00c8 94DE6C87 		.word	-2022908268
 3465 00cc 527BF8B7 		.word	-1208452270
 3466 00d0 AB73D323 		.word	601060267
 3467 00d4 724B02E2 		.word	-503166094
 3468 00d8 E31F8F57 		.word	1468997603
 3469 00dc 6655AB2A 		.word	715871590
 3470 00e0 B2EB2807 		.word	120122290
 3471 00e4 2FB5C203 		.word	63092015
 3472 00e8 86C57B9A 		.word	-1703164538
 3473 00ec D33708A5 		.word	-1526188077
 3474 00f0 302887F2 		.word	-226023376
 3475 00f4 23BFA5B2 		.word	-1297760477
 3476 00f8 02036ABA 		.word	-1167457534
 3477 00fc ED16825C 		.word	1552029421
 3478 0100 8ACF1C2B 		.word	723308426
 3479 0104 A779B492 		.word	-1833666137
 3480 0108 F307F2F0 		.word	-252573709
 3481 010c 4E69E2A1 		.word	-1578997426
 3482 0110 65DAF4CD 		.word	-839591323
 3483 0114 0605BED5 		.word	-708967162
 3484 0118 D134621F 		.word	526529745
 3485 011c C4A6FE8A 		.word	-1963022652
 3486 0120 342E539D 		.word	-1655493068
 3487 0124 A2F355A0 		.word	-1604979806
 3488 0128 058AE132 		.word	853641733
 3489 012c A4F6EB75 		.word	1978398372
 3490 0130 0B83EC39 		.word	971801355
 3491 0134 4060EFAA 		.word	-1427152832
 3492 0138 5E719F06 		.word	111112542
 3493 013c BD6E1051 		.word	1360031421
 3494 0140 3E218AF9 		.word	-108388034
 3495 0144 96DD063D 		.word	1023860118
 3496 0148 DD3E05AE 		.word	-1375387939
 3497 014c 4DE6BD46 		.word	1186850381
 3498 0150 91548DB5 		.word	-1249028975
 3499 0154 71C45D05 		.word	90031217
 3500 0158 0406D46F 		.word	1876166148
 3501 015c 605015FF 		.word	-15380384
 3502 0160 1998FB24 		.word	620468249
 3503 0164 D6BDE997 		.word	-1746289194
 3504 0168 894043CC 		.word	-868007799
 3505 016c 67D99E77 		.word	2006899047
 3506 0170 B0E842BD 		.word	-1119688528
 3507 0174 07898B88 		.word	-2004121337
 3508 0178 E7195B38 		.word	945494503
 3509 017c 79C8EEDB 		.word	-605108103
 3510 0180 A17C0A47 		.word	1191869601
 3511 0184 7C420FE9 		.word	-384875908
 3512 0188 F8841EC9 		.word	-920746760
 3513 018c 00000000 		.word	0
 3514 0190 09808683 		.word	-2088337399
 3515 0194 322BED48 		.word	1223502642
 3516 0198 1E1170AC 		.word	-1401941730
 3517 019c 6C5A724E 		.word	1316117100
 3518 01a0 FD0EFFFB 		.word	-67170563
 3519 01a4 0F853856 		.word	1446544655
 3520 01a8 3DAED51E 		.word	517320253
ARM GAS  c:\Users\lenovo\AppData\Local\Temp\ccpYsKo5.s 			page 81


 3521 01ac 362D3927 		.word	658058550
 3522 01b0 0A0FD964 		.word	1691946762
 3523 01b4 685CA621 		.word	564550760
 3524 01b8 9B5B54D1 		.word	-783000677
 3525 01bc 24362E3A 		.word	976107044
 3526 01c0 0C0A67B1 		.word	-1318647284
 3527 01c4 9357E70F 		.word	266819475
 3528 01c8 B4EE96D2 		.word	-761860428
 3529 01cc 1B9B919E 		.word	-1634624741
 3530 01d0 80C0C54F 		.word	1338359936
 3531 01d4 61DC20A2 		.word	-1574904735
 3532 01d8 5A774B69 		.word	1766553434
 3533 01dc 1C121A16 		.word	370807324
 3534 01e0 E293BA0A 		.word	179999714
 3535 01e4 C0A02AE5 		.word	-450191168
 3536 01e8 3C22E043 		.word	1138762300
 3537 01ec 121B171D 		.word	488053522
 3538 01f0 0E090D0B 		.word	185403662
 3539 01f4 F28BC7AD 		.word	-1379431438
 3540 01f8 2DB6A8B9 		.word	-1180125651
 3541 01fc 141EA9C8 		.word	-928440812
 3542 0200 57F11985 		.word	-2061897385
 3543 0204 AF75074C 		.word	1275557295
 3544 0208 EE99DDBB 		.word	-1143105042
 3545 020c A37F60FD 		.word	-44007517
 3546 0210 F701269F 		.word	-1624899081
 3547 0214 5C72F5BC 		.word	-1124765092
 3548 0218 44663BC5 		.word	-985962940
 3549 021c 5BFB7E34 		.word	880737115
 3550 0220 8B432976 		.word	1982415755
 3551 0224 CB23C6DC 		.word	-590994485
 3552 0228 B6EDFC68 		.word	1761406390
 3553 022c B8E4F163 		.word	1676797112
 3554 0230 D731DCCA 		.word	-891538985
 3555 0234 42638510 		.word	277177154
 3556 0238 13972240 		.word	1076008723
 3557 023c 84C61120 		.word	538035844
 3558 0240 854A247D 		.word	2099530373
 3559 0244 D2BB3DF8 		.word	-130171950
 3560 0248 AEF93211 		.word	288553390
 3561 024c C729A16D 		.word	1839278535
 3562 0250 1D9E2F4B 		.word	1261411869
 3563 0254 DCB230F3 		.word	-214912292
 3564 0258 0D8652EC 		.word	-330136051
 3565 025c 77C1E3D0 		.word	-790380169
 3566 0260 2BB3166C 		.word	1813426987
 3567 0264 A970B999 		.word	-1715900247
 3568 0268 119448FA 		.word	-95906799
 3569 026c 47E96422 		.word	577038663
 3570 0270 A8FC8CC4 		.word	-997393240
 3571 0274 A0F03F1A 		.word	440397984
 3572 0278 567D2CD8 		.word	-668172970
 3573 027c 223390EF 		.word	-275762398
 3574 0280 87494EC7 		.word	-951170681
 3575 0284 D938D1C1 		.word	-1043253031
 3576 0288 8CCAA2FE 		.word	-22885748
 3577 028c 98D40B36 		.word	906744984
ARM GAS  c:\Users\lenovo\AppData\Local\Temp\ccpYsKo5.s 			page 82


 3578 0290 A6F581CF 		.word	-813566554
 3579 0294 A57ADE28 		.word	685669029
 3580 0298 DAB78E26 		.word	646887386
 3581 029c 3FADBFA4 		.word	-1530942145
 3582 02a0 2C3A9DE4 		.word	-459458004
 3583 02a4 5078920D 		.word	227702864
 3584 02a8 6A5FCC9B 		.word	-1681105046
 3585 02ac 547E4662 		.word	1648787028
 3586 02b0 F68D13C2 		.word	-1038905866
 3587 02b4 90D8B8E8 		.word	-390539120
 3588 02b8 2E39F75E 		.word	1593260334
 3589 02bc 82C3AFF5 		.word	-173030526
 3590 02c0 9F5D80BE 		.word	-1098883681
 3591 02c4 69D0937C 		.word	2090061929
 3592 02c8 6FD52DA9 		.word	-1456614033
 3593 02cc CF2512B3 		.word	-1290656305
 3594 02d0 C8AC993B 		.word	999926984
 3595 02d4 10187DA7 		.word	-1484974064
 3596 02d8 E89C636E 		.word	1852021992
 3597 02dc DB3BBB7B 		.word	2075868123
 3598 02e0 CD267809 		.word	158869197
 3599 02e4 6E5918F4 		.word	-199730834
 3600 02e8 EC9AB701 		.word	28809964
 3601 02ec 834F9AA8 		.word	-1466282109
 3602 02f0 E6956E65 		.word	1701746150
 3603 02f4 AAFFE67E 		.word	2129067946
 3604 02f8 21BCCF08 		.word	147831841
 3605 02fc EF15E8E6 		.word	-420997649
 3606 0300 BAE79BD9 		.word	-644094022
 3607 0304 4A6F36CE 		.word	-835293366
 3608 0308 EA9F09D4 		.word	-737566742
 3609 030c 29B07CD6 		.word	-696471511
 3610 0310 31A4B2AF 		.word	-1347247055
 3611 0314 2A3F2331 		.word	824393514
 3612 0318 C6A59430 		.word	815048134
 3613 031c 35A266C0 		.word	-1067015627
 3614 0320 744EBC37 		.word	935087732
 3615 0324 FC82CAA6 		.word	-1496677636
 3616 0328 E090D0B0 		.word	-1328508704
 3617 032c 33A7D815 		.word	366520115
 3618 0330 F104984A 		.word	1251476721
 3619 0334 41ECDAF7 		.word	-136647615
 3620 0338 7FCD500E 		.word	240176511
 3621 033c 1791F62F 		.word	804688151
 3622 0340 764DD68D 		.word	-1915335306
 3623 0344 43EFB04D 		.word	1303441219
 3624 0348 CCAA4D54 		.word	1414376140
 3625 034c E49604DF 		.word	-553347356
 3626 0350 9ED1B5E3 		.word	-474623586
 3627 0354 4C6A881B 		.word	461924940
 3628 0358 C12C1FB8 		.word	-1205916479
 3629 035c 4665517F 		.word	2136040774
 3630 0360 9D5EEA04 		.word	82468509
 3631 0364 018C355D 		.word	1563790337
 3632 0368 FA877473 		.word	1937016826
 3633 036c FB0B412E 		.word	776014843
 3634 0370 B3671D5A 		.word	1511876531
ARM GAS  c:\Users\lenovo\AppData\Local\Temp\ccpYsKo5.s 			page 83


 3635 0374 92DBD252 		.word	1389550482
 3636 0378 E9105633 		.word	861278441
 3637 037c 6DD64713 		.word	323475053
 3638 0380 9AD7618C 		.word	-1939744870
 3639 0384 37A10C7A 		.word	2047648055
 3640 0388 59F8148E 		.word	-1911228327
 3641 038c EB133C89 		.word	-1992551445
 3642 0390 CEA927EE 		.word	-299390514
 3643 0394 B761C935 		.word	902390199
 3644 0398 E11CE5ED 		.word	-303751967
 3645 039c 7A47B13C 		.word	1018251130
 3646 03a0 9CD2DF59 		.word	1507840668
 3647 03a4 55F2733F 		.word	1064563285
 3648 03a8 1814CE79 		.word	2043548696
 3649 03ac 73C737BF 		.word	-1086863501
 3650 03b0 53F7CDEA 		.word	-355600557
 3651 03b4 5FFDAA5B 		.word	1537932639
 3652 03b8 DF3D6F14 		.word	342834655
 3653 03bc 7844DB86 		.word	-2032450440
 3654 03c0 CAAFF381 		.word	-2114736182
 3655 03c4 B968C43E 		.word	1053059257
 3656 03c8 3824342C 		.word	741614648
 3657 03cc C2A3405F 		.word	1598071746
 3658 03d0 161DC372 		.word	1925389590
 3659 03d4 BCE2250C 		.word	203809468
 3660 03d8 283C498B 		.word	-1958134744
 3661 03dc FF0D9541 		.word	1100287487
 3662 03e0 39A80171 		.word	1895934009
 3663 03e4 080CB3DE 		.word	-558691320
 3664 03e8 D8B4E49C 		.word	-1662733096
 3665 03ec 6456C190 		.word	-1866377628
 3666 03f0 7BCB8461 		.word	1636092795
 3667 03f4 D532B670 		.word	1890988757
 3668 03f8 486C5C74 		.word	1952214088
 3669 03fc D0B85742 		.word	1113045200
 3670              		.section	.rodata.RT1,"a",%progbits
 3671              		.align	2
 3672              		.set	.LANCHOR3,. + 0
 3675              	RT1:
 3676 0000 5051F4A7 		.word	-1477160624
 3677 0004 537E4165 		.word	1698790995
 3678 0008 C31A17A4 		.word	-1541989693
 3679 000c 963A275E 		.word	1579629206
 3680 0010 CB3BAB6B 		.word	1806384075
 3681 0014 F11F9D45 		.word	1167925233
 3682 0018 ABACFA58 		.word	1492823211
 3683 001c 934BE303 		.word	65227667
 3684 0020 552030FA 		.word	-97509291
 3685 0024 F6AD766D 		.word	1836494326
 3686 0028 9188CC76 		.word	1993115793
 3687 002c 25F5024C 		.word	1275262245
 3688 0030 FC4FE5D7 		.word	-672837636
 3689 0034 D7C52ACB 		.word	-886389289
 3690 0038 80263544 		.word	1144333952
 3691 003c 8FB562A3 		.word	-1553812081
 3692 0040 49DEB15A 		.word	1521606217
 3693 0044 6725BA1B 		.word	465184103
ARM GAS  c:\Users\lenovo\AppData\Local\Temp\ccpYsKo5.s 			page 84


 3694 0048 9845EA0E 		.word	250234264
 3695 004c E15DFEC0 		.word	-1057071647
 3696 0050 02C32F75 		.word	1966064386
 3697 0054 12814CF0 		.word	-263421678
 3698 0058 A38D4697 		.word	-1756983901
 3699 005c C66BD3F9 		.word	-103584826
 3700 0060 E7038F5F 		.word	1603208167
 3701 0064 9515929C 		.word	-1668147819
 3702 0068 EBBF6D7A 		.word	2054012907
 3703 006c DA955259 		.word	1498584538
 3704 0070 2DD4BE83 		.word	-2084645843
 3705 0074 D3587421 		.word	561273043
 3706 0078 2949E069 		.word	1776306473
 3707 007c 448EC9C8 		.word	-926314940
 3708 0080 6A75C289 		.word	-1983744662
 3709 0084 78F48E79 		.word	2039411832
 3710 0088 6B99583E 		.word	1045993835
 3711 008c DD27B971 		.word	1907959773
 3712 0090 B6BEE14F 		.word	1340194486
 3713 0094 17F088AD 		.word	-1383534569
 3714 0098 66C920AC 		.word	-1407137434
 3715 009c B47DCE3A 		.word	986611124
 3716 00a0 1863DF4A 		.word	1256153880
 3717 00a4 82E51A31 		.word	823846274
 3718 00a8 60975133 		.word	860985184
 3719 00ac 4562537F 		.word	2136171077
 3720 00b0 E0B16477 		.word	2003087840
 3721 00b4 84BB6BAE 		.word	-1368671356
 3722 00b8 1CFE81A0 		.word	-1602093540
 3723 00bc 94F9082B 		.word	722008468
 3724 00c0 58704868 		.word	1749577816
 3725 00c4 198F45FD 		.word	-45773031
 3726 00c8 8794DE6C 		.word	1826526343
 3727 00cc B7527BF8 		.word	-126135625
 3728 00d0 23AB73D3 		.word	-747394269
 3729 00d4 E2724B02 		.word	38499042
 3730 00d8 57E31F8F 		.word	-1893735593
 3731 00dc 2A6655AB 		.word	-1420466646
 3732 00e0 07B2EB28 		.word	686535175
 3733 00e4 032FB5C2 		.word	-1028313341
 3734 00e8 9A86C57B 		.word	2076542618
 3735 00ec A5D33708 		.word	137876389
 3736 00f0 F2302887 		.word	-2027409166
 3737 00f4 B223BFA5 		.word	-1514200142
 3738 00f8 BA02036A 		.word	1778582202
 3739 00fc 5CED1682 		.word	-2112426660
 3740 0100 2B8ACF1C 		.word	483363371
 3741 0104 92A779B4 		.word	-1267095662
 3742 0108 F0F307F2 		.word	-234359824
 3743 010c A14E69E2 		.word	-496415071
 3744 0110 CD65DAF4 		.word	-187013683
 3745 0114 D50605BE 		.word	-1106966827
 3746 0118 1FD13462 		.word	1647628575
 3747 011c 8AC4A6FE 		.word	-22625142
 3748 0120 9D342E53 		.word	1395537053
 3749 0124 A0A2F355 		.word	1442030240
 3750 0128 32058AE1 		.word	-511048398
ARM GAS  c:\Users\lenovo\AppData\Local\Temp\ccpYsKo5.s 			page 85


 3751 012c 75A4F6EB 		.word	-336157579
 3752 0130 390B83EC 		.word	-326956231
 3753 0134 AA4060EF 		.word	-278904662
 3754 0138 065E719F 		.word	-1619960314
 3755 013c 51BD6E10 		.word	275692881
 3756 0140 F93E218A 		.word	-1977532679
 3757 0144 3D96DD06 		.word	115185213
 3758 0148 AEDD3E05 		.word	88006062
 3759 014c 464DE6BD 		.word	-1108980410
 3760 0150 B591548D 		.word	-1923837515
 3761 0154 0571C45D 		.word	1573155077
 3762 0158 6F0406D4 		.word	-737803153
 3763 015c FF605015 		.word	357589247
 3764 0160 241998FB 		.word	-73918172
 3765 0164 97D6BDE9 		.word	-373434729
 3766 0168 CC894043 		.word	1128303052
 3767 016c 7767D99E 		.word	-1629919369
 3768 0170 BDB0E842 		.word	1122545853
 3769 0174 8807898B 		.word	-1953953912
 3770 0178 38E7195B 		.word	1528424248
 3771 017c DB79C8EE 		.word	-288851493
 3772 0180 47A17C0A 		.word	175939911
 3773 0184 E97C420F 		.word	256015593
 3774 0188 C9F8841E 		.word	512030921
 3775 018c 00000000 		.word	0
 3776 0190 83098086 		.word	-2038429309
 3777 0194 48322BED 		.word	-315936184
 3778 0198 AC1E1170 		.word	1880170156
 3779 019c 4E6C5A72 		.word	1918528590
 3780 01a0 FBFD0EFF 		.word	-15794693
 3781 01a4 560F8538 		.word	948244310
 3782 01a8 1E3DAED5 		.word	-710001378
 3783 01ac 27362D39 		.word	959264295
 3784 01b0 640A0FD9 		.word	-653325724
 3785 01b4 21685CA6 		.word	-1503893471
 3786 01b8 D19B5B54 		.word	1415289809
 3787 01bc 3A24362E 		.word	775300154
 3788 01c0 B10C0A67 		.word	1728711857
 3789 01c4 0F9357E7 		.word	-413691121
 3790 01c8 D2B4EE96 		.word	-1762741038
 3791 01cc 9E1B9B91 		.word	-1852105826
 3792 01d0 4F80C0C5 		.word	-977239985
 3793 01d4 A261DC20 		.word	551313826
 3794 01d8 695A774B 		.word	1266113129
 3795 01dc 161C121A 		.word	437394454
 3796 01e0 0AE293BA 		.word	-1164713462
 3797 01e4 E5C0A02A 		.word	715178213
 3798 01e8 433C22E0 		.word	-534627261
 3799 01ec 1D121B17 		.word	387650077
 3800 01f0 0B0E090D 		.word	218697227
 3801 01f4 ADF28BC7 		.word	-947129683
 3802 01f8 B92DB6A8 		.word	-1464455751
 3803 01fc C8141EA9 		.word	-1457646392
 3804 0200 8557F119 		.word	435246981
 3805 0204 4CAF7507 		.word	125153100
 3806 0208 BBEE99DD 		.word	-577114437
 3807 020c FDA37F60 		.word	1618977789
ARM GAS  c:\Users\lenovo\AppData\Local\Temp\ccpYsKo5.s 			page 86


 3808 0210 9FF70126 		.word	637663135
 3809 0214 BC5C72F5 		.word	-177054532
 3810 0218 C544663B 		.word	996558021
 3811 021c 345BFB7E 		.word	2130402100
 3812 0220 768B4329 		.word	692292470
 3813 0224 DCCB23C6 		.word	-970732580
 3814 0228 68B6EDFC 		.word	-51530136
 3815 022c 63B8E4F1 		.word	-236668829
 3816 0230 CAD731DC 		.word	-600713270
 3817 0234 10426385 		.word	-2057092592
 3818 0238 40139722 		.word	580326208
 3819 023c 2084C611 		.word	298222624
 3820 0240 7D854A24 		.word	608863613
 3821 0244 F8D2BB3D 		.word	1035719416
 3822 0248 11AEF932 		.word	855223825
 3823 024c 6DC729A1 		.word	-1591097491
 3824 0250 4B1D9E2F 		.word	798891339
 3825 0254 F3DCB230 		.word	817028339
 3826 0258 EC0D8652 		.word	1384517100
 3827 025c D077C1E3 		.word	-473860144
 3828 0260 6C2BB316 		.word	380840812
 3829 0264 99A970B9 		.word	-1183798887
 3830 0268 FA119448 		.word	1217663482
 3831 026c 2247E964 		.word	1693009698
 3832 0270 C4A8FC8C 		.word	-1929598780
 3833 0274 1AA0F03F 		.word	1072734234
 3834 0278 D8567D2C 		.word	746411736
 3835 027c EF223390 		.word	-1875696913
 3836 0280 C787494E 		.word	1313441735
 3837 0284 C1D938D1 		.word	-784803391
 3838 0288 FE8CCAA2 		.word	-1563783938
 3839 028c 3698D40B 		.word	198481974
 3840 0290 CFA6F581 		.word	-2114607409
 3841 0294 28A57ADE 		.word	-562387672
 3842 0298 26DAB78E 		.word	-1900553690
 3843 029c A43FADBF 		.word	-1079165020
 3844 02a0 E42C3A9D 		.word	-1657131804
 3845 02a4 0D507892 		.word	-1837608947
 3846 02a8 9B6A5FCC 		.word	-866162021
 3847 02ac 62547E46 		.word	1182684258
 3848 02b0 C2F68D13 		.word	328070850
 3849 02b4 E890D8B8 		.word	-1193766680
 3850 02b8 5E2E39F7 		.word	-147247522
 3851 02bc F582C3AF 		.word	-1346141451
 3852 02c0 BE9F5D80 		.word	-2141347906
 3853 02c4 7C69D093 		.word	-1815058052
 3854 02c8 A96FD52D 		.word	768962473
 3855 02cc B3CF2512 		.word	304467891
 3856 02d0 3BC8AC99 		.word	-1716729797
 3857 02d4 A710187D 		.word	2098729127
 3858 02d8 6EE89C63 		.word	1671227502
 3859 02dc 7BDB3BBB 		.word	-1153705093
 3860 02e0 09CD2678 		.word	2015808777
 3861 02e4 F46E5918 		.word	408514292
 3862 02e8 01EC9AB7 		.word	-1214583807
 3863 02ec A8834F9A 		.word	-1706064984
 3864 02f0 65E6956E 		.word	1855317605
ARM GAS  c:\Users\lenovo\AppData\Local\Temp\ccpYsKo5.s 			page 87


 3865 02f4 7EAAFFE6 		.word	-419452290
 3866 02f8 0821BCCF 		.word	-809754360
 3867 02fc E6EF15E8 		.word	-401215514
 3868 0300 D9BAE79B 		.word	-1679312167
 3869 0304 CE4A6F36 		.word	913263310
 3870 0308 D4EA9F09 		.word	161475284
 3871 030c D629B07C 		.word	2091919830
 3872 0310 AF31A4B2 		.word	-1297862225
 3873 0314 312A3F23 		.word	591342129
 3874 0318 30C6A594 		.word	-1801075152
 3875 031c C035A266 		.word	1721906624
 3876 0320 37744EBC 		.word	-1135709129
 3877 0324 A6FC82CA 		.word	-897385306
 3878 0328 B0E090D0 		.word	-795811664
 3879 032c 1533A7D8 		.word	-660131051
 3880 0330 4AF10498 		.word	-1744506550
 3881 0334 F741ECDA 		.word	-622050825
 3882 0338 0E7FCD50 		.word	1355644686
 3883 033c 2F1791F6 		.word	-158263505
 3884 0340 8D764DD6 		.word	-699566451
 3885 0344 4D43EFB0 		.word	-1326496947
 3886 0348 54CCAA4D 		.word	1303039060
 3887 034c DFE49604 		.word	76997855
 3888 0350 E39ED1B5 		.word	-1244553501
 3889 0354 1B4C6A88 		.word	-2006299621
 3890 0358 B8C12C1F 		.word	523026872
 3891 035c 7F466551 		.word	1365591679
 3892 0360 049D5EEA 		.word	-362898172
 3893 0364 5D018C35 		.word	898367837
 3894 0368 73FA8774 		.word	1955068531
 3895 036c 2EFB0B41 		.word	1091304238
 3896 0370 5AB3671D 		.word	493335386
 3897 0374 5292DBD2 		.word	-757362094
 3898 0378 33E91056 		.word	1443948851
 3899 037c 136DD647 		.word	1205234963
 3900 0380 8C9AD761 		.word	1641519756
 3901 0384 7A37A10C 		.word	211892090
 3902 0388 8E59F814 		.word	351820174
 3903 038c 89EB133C 		.word	1007938441
 3904 0390 EECEA927 		.word	665439982
 3905 0394 35B761C9 		.word	-916342987
 3906 0398 EDE11CE5 		.word	-451091987
 3907 039c 3C7A47B1 		.word	-1320715716
 3908 03a0 599CD2DF 		.word	-539845543
 3909 03a4 3F55F273 		.word	1945261375
 3910 03a8 791814CE 		.word	-837543815
 3911 03ac BF73C737 		.word	935818175
 3912 03b0 EA53F7CD 		.word	-839429142
 3913 03b4 5B5FFDAA 		.word	-1426235557
 3914 03b8 14DF3D6F 		.word	1866325780
 3915 03bc 867844DB 		.word	-616269690
 3916 03c0 81CAAFF3 		.word	-206583167
 3917 03c4 3EB968C4 		.word	-999769794
 3918 03c8 2C382434 		.word	874788908
 3919 03cc 5FC2A340 		.word	1084473951
 3920 03d0 72161DC3 		.word	-1021503886
 3921 03d4 0CBCE225 		.word	635616268
ARM GAS  c:\Users\lenovo\AppData\Local\Temp\ccpYsKo5.s 			page 88


 3922 03d8 8B283C49 		.word	1228679307
 3923 03dc 41FF0D95 		.word	-1794244799
 3924 03e0 7139A801 		.word	27801969
 3925 03e4 DE080CB3 		.word	-1291056930
 3926 03e8 9CD8B4E4 		.word	-457910116
 3927 03ec 906456C1 		.word	-1051302768
 3928 03f0 617BCB84 		.word	-2067039391
 3929 03f4 70D532B6 		.word	-1238182544
 3930 03f8 74486C5C 		.word	1550600308
 3931 03fc 42D0B857 		.word	1471729730
 3932              		.section	.rodata.RT2,"a",%progbits
 3933              		.align	2
 3934              		.set	.LANCHOR4,. + 0
 3937              	RT2:
 3938 0000 A75051F4 		.word	-195997529
 3939 0004 65537E41 		.word	1098797925
 3940 0008 A4C31A17 		.word	387629988
 3941 000c 5E963A27 		.word	658151006
 3942 0010 6BCB3BAB 		.word	-1422144661
 3943 0014 45F11F9D 		.word	-1658851003
 3944 0018 58ABACFA 		.word	-89347240
 3945 001c 03934BE3 		.word	-481586429
 3946 0020 FA552030 		.word	807425530
 3947 0024 6DF6AD76 		.word	1991112301
 3948 0028 769188CC 		.word	-863465098
 3949 002c 4C25F502 		.word	49620300
 3950 0030 D7FC4FE5 		.word	-447742761
 3951 0034 CBD7C52A 		.word	717608907
 3952 0038 44802635 		.word	891715652
 3953 003c A38FB562 		.word	1656065955
 3954 0040 5A49DEB1 		.word	-1310832294
 3955 0044 1B6725BA 		.word	-1171953893
 3956 0048 0E9845EA 		.word	-364537842
 3957 004c C0E15DFE 		.word	-27401792
 3958 0050 7502C32F 		.word	801309301
 3959 0054 F012814C 		.word	1283527408
 3960 0058 97A38D46 		.word	1183687575
 3961 005c F9C66BD3 		.word	-747911431
 3962 0060 5FE7038F 		.word	-1895569569
 3963 0064 9C951592 		.word	-1844079204
 3964 0068 7AEBBF6D 		.word	1841294202
 3965 006c 59DA9552 		.word	1385552473
 3966 0070 832DD4BE 		.word	-1093390973
 3967 0074 21D35874 		.word	1951978273
 3968 0078 692949E0 		.word	-532076183
 3969 007c C8448EC9 		.word	-913423160
 3970 0080 896A75C2 		.word	-1032492407
 3971 0084 7978F48E 		.word	-1896580999
 3972 0088 3E6B9958 		.word	1486449470
 3973 008c 71DD27B9 		.word	-1188569743
 3974 0090 4FB6BEE1 		.word	-507595185
 3975 0094 AD17F088 		.word	-1997531219
 3976 0098 AC66C920 		.word	550069932
 3977 009c 3AB47DCE 		.word	-830622662
 3978 00a0 4A1863DF 		.word	-547153846
 3979 00a4 3182E51A 		.word	451248689
 3980 00a8 33609751 		.word	1368875059
ARM GAS  c:\Users\lenovo\AppData\Local\Temp\ccpYsKo5.s 			page 89


 3981 00ac 7F456253 		.word	1398949247
 3982 00b0 77E0B164 		.word	1689378935
 3983 00b4 AE84BB6B 		.word	1807451310
 3984 00b8 A01CFE81 		.word	-2114052960
 3985 00bc 2B94F908 		.word	150574123
 3986 00c0 68587048 		.word	1215322216
 3987 00c4 FD198F45 		.word	1167006205
 3988 00c8 6C8794DE 		.word	-560691348
 3989 00cc F8B7527B 		.word	2069018616
 3990 00d0 D323AB73 		.word	1940595667
 3991 00d4 02E2724B 		.word	1265820162
 3992 00d8 8F57E31F 		.word	534992783
 3993 00dc AB2A6655 		.word	1432758955
 3994 00e0 2807B2EB 		.word	-340654296
 3995 00e4 C2032FB5 		.word	-1255210046
 3996 00e8 7B9A86C5 		.word	-981034373
 3997 00ec 08A5D337 		.word	936617224
 3998 00f0 87F23028 		.word	674296455
 3999 00f4 A5B223BF 		.word	-1088179547
 4000 00f8 6ABA0203 		.word	50510442
 4001 00fc 825CED16 		.word	384654466
 4002 0100 1C2B8ACF 		.word	-813028580
 4003 0104 B492A779 		.word	2041025204
 4004 0108 F2F0F307 		.word	133427442
 4005 010c E2A14E69 		.word	1766760930
 4006 0110 F4CD65DA 		.word	-630862348
 4007 0114 BED50605 		.word	84334014
 4008 0118 621FD134 		.word	886120290
 4009 011c FE8AC4A6 		.word	-1497068802
 4010 0120 539D342E 		.word	775200083
 4011 0124 55A0A2F3 		.word	-207445931
 4012 0128 E132058A 		.word	-1979370783
 4013 012c EB75A4F6 		.word	-156994069
 4014 0130 EC390B83 		.word	-2096416276
 4015 0134 EFAA4060 		.word	1614850799
 4016 0138 9F065E71 		.word	1901987487
 4017 013c 1051BD6E 		.word	1857900816
 4018 0140 8AF93E21 		.word	557775242
 4019 0144 063D96DD 		.word	-577356538
 4020 0148 05AEDD3E 		.word	1054715397
 4021 014c BD464DE6 		.word	-431143235
 4022 0150 8DB59154 		.word	1418835341
 4023 0154 5D0571C4 		.word	-999226019
 4024 0158 D46F0406 		.word	100954068
 4025 015c 15FF6050 		.word	1348534037
 4026 0160 FB241998 		.word	-1743182597
 4027 0164 E997D6BD 		.word	-1110009879
 4028 0168 43CC8940 		.word	1082772547
 4029 016c 9E7767D9 		.word	-647530594
 4030 0170 42BDB0E8 		.word	-391070398
 4031 0174 8B880789 		.word	-1995994997
 4032 0178 5B38E719 		.word	434583643
 4033 017c EEDB79C8 		.word	-931537938
 4034 0180 0A47A17C 		.word	2090944266
 4035 0184 0FE97C42 		.word	1115482383
 4036 0188 1EC9F884 		.word	-2064070370
 4037 018c 00000000 		.word	0
ARM GAS  c:\Users\lenovo\AppData\Local\Temp\ccpYsKo5.s 			page 90


 4038 0190 86830980 		.word	-2146860154
 4039 0194 ED48322B 		.word	724715757
 4040 0198 70AC1E11 		.word	287222896
 4041 019c 724E6C5A 		.word	1517047410
 4042 01a0 FFFBFD0E 		.word	251526143
 4043 01a4 38560F85 		.word	-2062592456
 4044 01a8 D51E3DAE 		.word	-1371726123
 4045 01ac 3927362D 		.word	758523705
 4046 01b0 D9640A0F 		.word	252339417
 4047 01b4 A621685C 		.word	1550328230
 4048 01b8 54D19B5B 		.word	1536938324
 4049 01bc 2E3A2436 		.word	908343854
 4050 01c0 67B10C0A 		.word	168604007
 4051 01c4 E70F9357 		.word	1469255655
 4052 01c8 96D2B4EE 		.word	-290139498
 4053 01cc 919E1B9B 		.word	-1692688751
 4054 01d0 C54F80C0 		.word	-1065332795
 4055 01d4 20A261DC 		.word	-597581280
 4056 01d8 4B695A77 		.word	2002413899
 4057 01dc 1A161C12 		.word	303830554
 4058 01e0 BA0AE293 		.word	-1813902662
 4059 01e4 2AE5C0A0 		.word	-1597971158
 4060 01e8 E0433C22 		.word	574374880
 4061 01ec 171D121B 		.word	454171927
 4062 01f0 0D0B0E09 		.word	151915277
 4063 01f4 C7ADF28B 		.word	-1947030073
 4064 01f8 A8B92DB6 		.word	-1238517336
 4065 01fc A9C8141E 		.word	504678569
 4066 0200 198557F1 		.word	-245922535
 4067 0204 074CAF75 		.word	1974422535
 4068 0208 DDBBEE99 		.word	-1712407587
 4069 020c 60FDA37F 		.word	2141453664
 4070 0210 269FF701 		.word	33005350
 4071 0214 F5BC5C72 		.word	1918680309
 4072 0218 3BC54466 		.word	1715782971
 4073 021c 7E345BFB 		.word	-77908866
 4074 0220 29768B43 		.word	1133213225
 4075 0224 C6DCCB23 		.word	600562886
 4076 0228 FC68B6ED 		.word	-306812676
 4077 022c F163B8E4 		.word	-457677839
 4078 0230 DCCAD731 		.word	836225756
 4079 0234 85104263 		.word	1665273989
 4080 0238 22401397 		.word	-1760346078
 4081 023c 112084C6 		.word	-964419567
 4082 0240 247D854A 		.word	1250262308
 4083 0244 3DF8D2BB 		.word	-1143801795
 4084 0248 3211AEF9 		.word	-106032846
 4085 024c A16DC729 		.word	700935585
 4086 0250 2F4B1D9E 		.word	-1642247377
 4087 0254 30F3DCB2 		.word	-1294142672
 4088 0258 52EC0D86 		.word	-2045907886
 4089 025c E3D077C1 		.word	-1049112349
 4090 0260 166C2BB3 		.word	-1288999914
 4091 0264 B999A970 		.word	1890163129
 4092 0268 48FA1194 		.word	-1810761144
 4093 026c 642247E9 		.word	-381214108
 4094 0270 8CC4A8FC 		.word	-56048500
ARM GAS  c:\Users\lenovo\AppData\Local\Temp\ccpYsKo5.s 			page 91


 4095 0274 3F1AA0F0 		.word	-257942977
 4096 0278 2CD8567D 		.word	2102843436
 4097 027c 90EF2233 		.word	857927568
 4098 0280 4EC78749 		.word	1233635150
 4099 0284 D1C1D938 		.word	953795025
 4100 0288 A2FE8CCA 		.word	-896729438
 4101 028c 0B3698D4 		.word	-728222197
 4102 0290 81CFA6F5 		.word	-173617279
 4103 0294 DE28A57A 		.word	2057644254
 4104 0298 8E26DAB7 		.word	-1210440050
 4105 029c BFA43FAD 		.word	-1388337985
 4106 02a0 9DE42C3A 		.word	976020637
 4107 02a4 920D5078 		.word	2018512274
 4108 02a8 CC9B6A5F 		.word	1600822220
 4109 02ac 4662547E 		.word	2119459398
 4110 02b0 13C2F68D 		.word	-1913208301
 4111 02b4 B8E890D8 		.word	-661591880
 4112 02b8 F75E2E39 		.word	959340279
 4113 02bc AFF582C3 		.word	-1014827601
 4114 02c0 80BE9F5D 		.word	1570750080
 4115 02c4 937C69D0 		.word	-798393197
 4116 02c8 2DA96FD5 		.word	-714102483
 4117 02cc 12B3CF25 		.word	634368786
 4118 02d0 993BC8AC 		.word	-1396163687
 4119 02d4 7DA71018 		.word	403744637
 4120 02d8 636EE89C 		.word	-1662488989
 4121 02dc BB7BDB3B 		.word	1004239803
 4122 02e0 7809CD26 		.word	650971512
 4123 02e4 18F46E59 		.word	1500443672
 4124 02e8 B701EC9A 		.word	-1695809097
 4125 02ec 9AA8834F 		.word	1334028442
 4126 02f0 6E65E695 		.word	-1780062866
 4127 02f4 E67EAAFF 		.word	-5603610
 4128 02f8 CF0821BC 		.word	-1138685745
 4129 02fc E8E6EF15 		.word	368043752
 4130 0300 9BD9BAE7 		.word	-407184997
 4131 0304 36CE4A6F 		.word	1867173430
 4132 0308 09D4EA9F 		.word	-1612000247
 4133 030c 7CD629B0 		.word	-1339435396
 4134 0310 B2AF31A4 		.word	-1540247630
 4135 0314 23312A3F 		.word	1059729699
 4136 0318 9430C6A5 		.word	-1513738092
 4137 031c 66C035A2 		.word	-1573535642
 4138 0320 BC37744E 		.word	1316239292
 4139 0324 CAA6FC82 		.word	-2097371446
 4140 0328 D0B0E090 		.word	-1864322864
 4141 032c D81533A7 		.word	-1489824296
 4142 0330 984AF104 		.word	82922136
 4143 0334 DAF741EC 		.word	-331221030
 4144 0338 500E7FCD 		.word	-847311280
 4145 033c F62F1791 		.word	-1860751370
 4146 0340 D68D764D 		.word	1299615190
 4147 0344 B04D43EF 		.word	-280801872
 4148 0348 4D54CCAA 		.word	-1429449651
 4149 034c 04DFE496 		.word	-1763385596
 4150 0350 B5E39ED1 		.word	-778116171
 4151 0354 881B4C6A 		.word	1783372680
ARM GAS  c:\Users\lenovo\AppData\Local\Temp\ccpYsKo5.s 			page 92


 4152 0358 1FB8C12C 		.word	750893087
 4153 035c 517F4665 		.word	1699118929
 4154 0360 EA049D5E 		.word	1587348714
 4155 0364 355D018C 		.word	-1946067659
 4156 0368 7473FA87 		.word	-2013629580
 4157 036c 412EFB0B 		.word	201010753
 4158 0370 1D5AB367 		.word	1739807261
 4159 0374 D25292DB 		.word	-611167534
 4160 0378 5633E910 		.word	283718486
 4161 037c 47136DD6 		.word	-697494713
 4162 0380 618C9AD7 		.word	-677737375
 4163 0384 0C7A37A1 		.word	-1590199796
 4164 0388 148E59F8 		.word	-128348652
 4165 038c 3C89EB13 		.word	334203196
 4166 0390 27EECEA9 		.word	-1446056409
 4167 0394 C935B761 		.word	1639396809
 4168 0398 E5EDE11C 		.word	484568549
 4169 039c B13C7A47 		.word	1199193265
 4170 03a0 DF599CD2 		.word	-761505313
 4171 03a4 733F55F2 		.word	-229294221
 4172 03a8 CE791814 		.word	337148366
 4173 03ac 37BF73C7 		.word	-948715721
 4174 03b0 CDEA53F7 		.word	-145495347
 4175 03b4 AA5B5FFD 		.word	-44082262
 4176 03b8 6F14DF3D 		.word	1038029935
 4177 03bc DB867844 		.word	1148749531
 4178 03c0 F381CAAF 		.word	-1345682957
 4179 03c4 C43EB968 		.word	1756970692
 4180 03c8 342C3824 		.word	607661108
 4181 03cc 405FC2A3 		.word	-1547542720
 4182 03d0 C372161D 		.word	488010435
 4183 03d4 250CBCE2 		.word	-490992603
 4184 03d8 498B283C 		.word	1009290057
 4185 03dc 9541FF0D 		.word	234832277
 4186 03e0 017139A8 		.word	-1472630527
 4187 03e4 B3DE080C 		.word	201907891
 4188 03e8 E49CD8B4 		.word	-1260872476
 4189 03ec C1906456 		.word	1449431233
 4190 03f0 84617BCB 		.word	-881106556
 4191 03f4 B670D532 		.word	852848822
 4192 03f8 5C74486C 		.word	1816687708
 4193 03fc 5742D0B8 		.word	-1194311081
 4194              		.section	.rodata.RT3,"a",%progbits
 4195              		.align	2
 4196              		.set	.LANCHOR5,. + 0
 4199              	RT3:
 4200 0000 F4A75051 		.word	1364240372
 4201 0004 4165537E 		.word	2119394625
 4202 0008 17A4C31A 		.word	449029143
 4203 000c 275E963A 		.word	982933031
 4204 0010 AB6BCB3B 		.word	1003187115
 4205 0014 9D45F11F 		.word	535905693
 4206 0018 FA58ABAC 		.word	-1398056710
 4207 001c E303934B 		.word	1267925987
 4208 0020 30FA5520 		.word	542505520
 4209 0024 766DF6AD 		.word	-1376359050
 4210 0028 CC769188 		.word	-2003732788
ARM GAS  c:\Users\lenovo\AppData\Local\Temp\ccpYsKo5.s 			page 93


 4211 002c 024C25F5 		.word	-182105086
 4212 0030 E5D7FC4F 		.word	1341970405
 4213 0034 2ACBD7C5 		.word	-975713494
 4214 0038 35448026 		.word	645940277
 4215 003c 62A38FB5 		.word	-1248877726
 4216 0040 B15A49DE 		.word	-565617999
 4217 0044 BA1B6725 		.word	627514298
 4218 0048 EA0E9845 		.word	1167593194
 4219 004c FEC0E15D 		.word	1575076094
 4220 0050 2F7502C3 		.word	-1023249105
 4221 0054 4CF01281 		.word	-2129465268
 4222 0058 4697A38D 		.word	-1918658746
 4223 005c D3F9C66B 		.word	1808202195
 4224 0060 8F5FE703 		.word	65494927
 4225 0064 929C9515 		.word	362126482
 4226 0068 6D7AEBBF 		.word	-1075086739
 4227 006c 5259DA95 		.word	-1780852398
 4228 0070 BE832DD4 		.word	-735214658
 4229 0074 7421D358 		.word	1490231668
 4230 0078 E0692949 		.word	1227450848
 4231 007c C9C8448E 		.word	-1908094775
 4232 0080 C2896A75 		.word	1969916354
 4233 0084 8E7978F4 		.word	-193431154
 4234 0088 583E6B99 		.word	-1721024936
 4235 008c B971DD27 		.word	668823993
 4236 0090 E14FB6BE 		.word	-1095348255
 4237 0094 88AD17F0 		.word	-266883704
 4238 0098 20AC66C9 		.word	-916018144
 4239 009c CE3AB47D 		.word	2108963534
 4240 00a0 DF4A1863 		.word	1662536415
 4241 00a4 1A3182E5 		.word	-444452582
 4242 00a8 51336097 		.word	-1755303087
 4243 00ac 537F4562 		.word	1648721747
 4244 00b0 6477E0B1 		.word	-1310689436
 4245 00b4 6BAE84BB 		.word	-1148932501
 4246 00b8 81A01CFE 		.word	-31678335
 4247 00bc 082B94F9 		.word	-107730168
 4248 00c0 48685870 		.word	1884842056
 4249 00c4 45FD198F 		.word	-1894122171
 4250 00c8 DE6C8794 		.word	-1803064098
 4251 00cc 7BF8B752 		.word	1387788411
 4252 00d0 73D323AB 		.word	-1423715469
 4253 00d4 4B02E272 		.word	1927414347
 4254 00d8 1F8F57E3 		.word	-480800993
 4255 00dc 55AB2A66 		.word	1714072405
 4256 00e0 EB2807B2 		.word	-1308153621
 4257 00e4 B5C2032F 		.word	788775605
 4258 00e8 C57B9A86 		.word	-2036696123
 4259 00ec 3708A5D3 		.word	-744159177
 4260 00f0 2887F230 		.word	821200680
 4261 00f4 BFA5B223 		.word	598910399
 4262 00f8 036ABA02 		.word	45771267
 4263 00fc 16825CED 		.word	-312704490
 4264 0100 CF1C2B8A 		.word	-1976886065
 4265 0104 79B492A7 		.word	-1483557767
 4266 0108 07F2F0F3 		.word	-202313209
 4267 010c 69E2A14E 		.word	1319232105
ARM GAS  c:\Users\lenovo\AppData\Local\Temp\ccpYsKo5.s 			page 94


 4268 0110 DAF4CD65 		.word	1707996378
 4269 0114 05BED506 		.word	114671109
 4270 0118 34621FD1 		.word	-786472396
 4271 011c A6FE8AC4 		.word	-997523802
 4272 0120 2E539D34 		.word	882725678
 4273 0124 F355A0A2 		.word	-1566550541
 4274 0128 8AE13205 		.word	87220618
 4275 012c F6EB75A4 		.word	-1535775754
 4276 0130 83EC390B 		.word	188345475
 4277 0134 60EFAA40 		.word	1084944224
 4278 0138 719F065E 		.word	1577492337
 4279 013c 6E1051BD 		.word	-1118760850
 4280 0140 218AF93E 		.word	1056541217
 4281 0144 DD063D96 		.word	-1774385443
 4282 0148 3E05AEDD 		.word	-575797954
 4283 014c E6BD464D 		.word	1296481766
 4284 0150 548DB591 		.word	-1850372780
 4285 0154 C45D0571 		.word	1896177092
 4286 0158 06D46F04 		.word	74437638
 4287 015c 5015FF60 		.word	1627329872
 4288 0160 98FB2419 		.word	421854104
 4289 0164 BDE997D6 		.word	-694687299
 4290 0168 4043CC89 		.word	-1983102144
 4291 016c D99E7767 		.word	1735892697
 4292 0170 E842BDB0 		.word	-1329773848
 4293 0174 898B8807 		.word	126389129
 4294 0178 195B38E7 		.word	-415737063
 4295 017c C8EEDB79 		.word	2044456648
 4296 0180 7C0A47A1 		.word	-1589179780
 4297 0184 420FE97C 		.word	2095648578
 4298 0188 841EC9F8 		.word	-121037180
 4299 018c 00000000 		.word	0
 4300 0190 80868309 		.word	159614592
 4301 0194 2BED4832 		.word	843640107
 4302 0198 1170AC1E 		.word	514617361
 4303 019c 5A724E6C 		.word	1817080410
 4304 01a0 0EFFFBFD 		.word	-33816818
 4305 01a4 8538560F 		.word	257308805
 4306 01a8 AED51E3D 		.word	1025430958
 4307 01ac 2D392736 		.word	908540205
 4308 01b0 0FD9640A 		.word	174381327
 4309 01b4 5CA62168 		.word	1747035740
 4310 01b8 5B54D19B 		.word	-1680780197
 4311 01bc 362E3A24 		.word	607792694
 4312 01c0 0A67B10C 		.word	212952842
 4313 01c4 57E70F93 		.word	-1827674281
 4314 01c8 EE96D2B4 		.word	-1261267218
 4315 01cc 9B919E1B 		.word	463376795
 4316 01d0 C0C54F80 		.word	-2142255680
 4317 01d4 DC20A261 		.word	1638015196
 4318 01d8 774B695A 		.word	1516850039
 4319 01dc 121A161C 		.word	471210514
 4320 01e0 93BA0AE2 		.word	-502613357
 4321 01e4 A02AE5C0 		.word	-1058723168
 4322 01e8 22E0433C 		.word	1011081250
 4323 01ec 1B171D12 		.word	303896347
 4324 01f0 090D0B0E 		.word	235605257
ARM GAS  c:\Users\lenovo\AppData\Local\Temp\ccpYsKo5.s 			page 95


 4325 01f4 8BC7ADF2 		.word	-223492213
 4326 01f8 B6A8B92D 		.word	767142070
 4327 01fc 1EA9C814 		.word	348694814
 4328 0200 F1198557 		.word	1468340721
 4329 0204 75074CAF 		.word	-1353971851
 4330 0208 99DDBBEE 		.word	-289677927
 4331 020c 7F60FDA3 		.word	-1543675777
 4332 0210 01269FF7 		.word	-140564991
 4333 0214 72F5BC5C 		.word	1555887474
 4334 0218 663BC544 		.word	1153776486
 4335 021c FB7E345B 		.word	1530167035
 4336 0220 4329768B 		.word	-1955190461
 4337 0224 23C6DCCB 		.word	-874723805
 4338 0228 EDFC68B6 		.word	-1234633491
 4339 022c E4F163B8 		.word	-1201409564
 4340 0230 31DCCAD7 		.word	-674571215
 4341 0234 63851042 		.word	1108378979
 4342 0238 97224013 		.word	322970263
 4343 023c C6112084 		.word	-2078273082
 4344 0240 4A247D85 		.word	-2055396278
 4345 0244 BB3DF8D2 		.word	-755483205
 4346 0248 F93211AE 		.word	-1374604551
 4347 024c 29A16DC7 		.word	-949116631
 4348 0250 9E2F4B1D 		.word	491466654
 4349 0254 B230F3DC 		.word	-588042062
 4350 0258 8652EC0D 		.word	233591430
 4351 025c C1E3D077 		.word	2010178497
 4352 0260 B3166C2B 		.word	728503987
 4353 0264 70B999A9 		.word	-1449543312
 4354 0268 9448FA11 		.word	301615252
 4355 026c E9642247 		.word	1193436393
 4356 0270 FC8CC4A8 		.word	-1463513860
 4357 0274 F03F1AA0 		.word	-1608892432
 4358 0278 7D2CD856 		.word	1457007741
 4359 027c 3390EF22 		.word	586125363
 4360 0280 494EC787 		.word	-2016981431
 4361 0284 38D1C1D9 		.word	-641609416
 4362 0288 CAA2FE8C 		.word	-1929469238
 4363 028c D40B3698 		.word	-1741288492
 4364 0290 F581CFA6 		.word	-1496350219
 4365 0294 7ADE28A5 		.word	-1524048262
 4366 0298 B78E26DA 		.word	-635007305
 4367 029c ADBFA43F 		.word	1067761581
 4368 02a0 3A9DE42C 		.word	753179962
 4369 02a4 78920D50 		.word	1343066744
 4370 02a8 5FCC9B6A 		.word	1788595295
 4371 02ac 7E466254 		.word	1415726718
 4372 02b0 8D13C2F6 		.word	-155053171
 4373 02b4 D8B8E890 		.word	-1863796520
 4374 02b8 39F75E2E 		.word	777975609
 4375 02bc C3AFF582 		.word	-2097827901
 4376 02c0 5D80BE9F 		.word	-1614905251
 4377 02c4 D0937C69 		.word	1769771984
 4378 02c8 D52DA96F 		.word	1873358293
 4379 02cc 2512B3CF 		.word	-810347995
 4380 02d0 AC993BC8 		.word	-935618132
 4381 02d4 187DA710 		.word	279411992
ARM GAS  c:\Users\lenovo\AppData\Local\Temp\ccpYsKo5.s 			page 96


 4382 02d8 9C636EE8 		.word	-395418724
 4383 02dc 3BBB7BDB 		.word	-612648133
 4384 02e0 267809CD 		.word	-855017434
 4385 02e4 5918F46E 		.word	1861490777
 4386 02e8 9AB701EC 		.word	-335431782
 4387 02ec 4F9AA883 		.word	-2086102449
 4388 02f0 956E65E6 		.word	-429560171
 4389 02f4 FFE67EAA 		.word	-1434523905
 4390 02f8 BCCF0821 		.word	554225596
 4391 02fc 15E8E6EF 		.word	-270079979
 4392 0300 E79BD9BA 		.word	-1160143897
 4393 0304 6F36CE4A 		.word	1255028335
 4394 0308 9F09D4EA 		.word	-355202657
 4395 030c B07CD629 		.word	701922480
 4396 0310 A4B2AF31 		.word	833598116
 4397 0314 3F23312A 		.word	707863359
 4398 0318 A59430C6 		.word	-969894747
 4399 031c A266C035 		.word	901801634
 4400 0320 4EBC3774 		.word	1949809742
 4401 0324 82CAA6FC 		.word	-56178046
 4402 0328 90D0B0E0 		.word	-525283184
 4403 032c A7D81533 		.word	857069735
 4404 0330 04984AF1 		.word	-246769660
 4405 0334 ECDAF741 		.word	1106762476
 4406 0338 CD500E7F 		.word	2131644621
 4407 033c 91F62F17 		.word	389019281
 4408 0340 4DD68D76 		.word	1989006925
 4409 0344 EFB04D43 		.word	1129165039
 4410 0348 AA4D54CC 		.word	-866890326
 4411 034c 9604DFE4 		.word	-455146346
 4412 0350 D1B5E39E 		.word	-1629243951
 4413 0354 6A881B4C 		.word	1276872810
 4414 0358 2C1FB8C1 		.word	-1044898004
 4415 035c 65517F46 		.word	1182749029
 4416 0360 5EEA049D 		.word	-1660622242
 4417 0364 8C355D01 		.word	22885772
 4418 0368 877473FA 		.word	-93096825
 4419 036c 0B412EFB 		.word	-80854773
 4420 0370 671D5AB3 		.word	-1285939865
 4421 0374 DBD25292 		.word	-1840065829
 4422 0378 105633E9 		.word	-382511600
 4423 037c D647136D 		.word	1829980118
 4424 0380 D7618C9A 		.word	-1702075945
 4425 0384 A10C7A37 		.word	930745505
 4426 0388 F8148E59 		.word	1502483704
 4427 038c 133C89EB 		.word	-343327725
 4428 0390 A927EECE 		.word	-823253079
 4429 0394 61C935B7 		.word	-1221211807
 4430 0398 1CE5EDE1 		.word	-504503012
 4431 039c 47B13C7A 		.word	2050797895
 4432 03a0 D2DF599C 		.word	-1671831598
 4433 03a4 F2733F55 		.word	1430221810
 4434 03a8 14CE7918 		.word	410635796
 4435 03ac C737BF73 		.word	1941911495
 4436 03b0 F7CDEA53 		.word	1407897079
 4437 03b4 FDAA5B5F 		.word	1599843069
 4438 03b8 3D6F14DF 		.word	-552308931
ARM GAS  c:\Users\lenovo\AppData\Local\Temp\ccpYsKo5.s 			page 97


 4439 03bc 44DB8678 		.word	2022103876
 4440 03c0 AFF381CA 		.word	-897453137
 4441 03c4 68C43EB9 		.word	-1187068824
 4442 03c8 24342C38 		.word	942421028
 4443 03cc A3405FC2 		.word	-1033944925
 4444 03d0 1DC37216 		.word	376619805
 4445 03d4 E2250CBC 		.word	-1140054558
 4446 03d8 3C498B28 		.word	680216892
 4447 03dc 0D9541FF 		.word	-12479219
 4448 03e0 A8017139 		.word	963707304
 4449 03e4 0CB3DE08 		.word	148812556
 4450 03e8 B4E49CD8 		.word	-660806476
 4451 03ec 56C19064 		.word	1687208278
 4452 03f0 CB84617B 		.word	2069988555
 4453 03f4 32B670D5 		.word	-714033614
 4454 03f8 6C5C7448 		.word	1215585388
 4455 03fc B85742D0 		.word	-800958536
 4456              		.text
 4457              	.Letext0:
 4458              		.file 2 "c:\\program files (x86)\\liteos studio\\resources\\arm-none-eabi\\arm-none-eabi\\include\
 4459              		.file 3 "c:\\program files (x86)\\liteos studio\\resources\\arm-none-eabi\\lib\\gcc\\arm-none-eabi
 4460              		.file 4 "c:\\program files (x86)\\liteos studio\\resources\\arm-none-eabi\\arm-none-eabi\\include\
 4461              		.file 5 "c:\\program files (x86)\\liteos studio\\resources\\arm-none-eabi\\arm-none-eabi\\include\
 4462              		.file 6 "c:\\program files (x86)\\liteos studio\\resources\\arm-none-eabi\\arm-none-eabi\\include\
 4463              		.file 7 "c:\\program files (x86)\\liteos studio\\resources\\arm-none-eabi\\arm-none-eabi\\include\
 4464              		.file 8 "C:/Users/lenovo/Desktop/liteos/Project2/BearPi_LiteOS/components/security/mbedtls/mbedtls
 4465              		.file 9 "<built-in>"
ARM GAS  c:\Users\lenovo\AppData\Local\Temp\ccpYsKo5.s 			page 98


DEFINED SYMBOLS
                            *ABS*:00000000 aes.c
c:\Users\lenovo\AppData\Local\Temp\ccpYsKo5.s:18     .text.mbedtls_zeroize:00000000 $t
c:\Users\lenovo\AppData\Local\Temp\ccpYsKo5.s:24     .text.mbedtls_zeroize:00000000 mbedtls_zeroize
c:\Users\lenovo\AppData\Local\Temp\ccpYsKo5.s:56     .text.mbedtls_aes_init:00000000 $t
c:\Users\lenovo\AppData\Local\Temp\ccpYsKo5.s:63     .text.mbedtls_aes_init:00000000 mbedtls_aes_init
c:\Users\lenovo\AppData\Local\Temp\ccpYsKo5.s:86     .text.mbedtls_aes_free:00000000 $t
c:\Users\lenovo\AppData\Local\Temp\ccpYsKo5.s:93     .text.mbedtls_aes_free:00000000 mbedtls_aes_free
c:\Users\lenovo\AppData\Local\Temp\ccpYsKo5.s:125    .text.mbedtls_aes_setkey_enc:00000000 $t
c:\Users\lenovo\AppData\Local\Temp\ccpYsKo5.s:132    .text.mbedtls_aes_setkey_enc:00000000 mbedtls_aes_setkey_enc
c:\Users\lenovo\AppData\Local\Temp\ccpYsKo5.s:469    .text.mbedtls_aes_setkey_enc:000001a8 $d
c:\Users\lenovo\AppData\Local\Temp\ccpYsKo5.s:475    .text.mbedtls_aes_setkey_dec:00000000 $t
c:\Users\lenovo\AppData\Local\Temp\ccpYsKo5.s:482    .text.mbedtls_aes_setkey_dec:00000000 mbedtls_aes_setkey_dec
c:\Users\lenovo\AppData\Local\Temp\ccpYsKo5.s:644    .text.mbedtls_aes_setkey_dec:000000cc $d
c:\Users\lenovo\AppData\Local\Temp\ccpYsKo5.s:653    .text.mbedtls_internal_aes_encrypt:00000000 $t
c:\Users\lenovo\AppData\Local\Temp\ccpYsKo5.s:660    .text.mbedtls_internal_aes_encrypt:00000000 mbedtls_internal_aes_encrypt
c:\Users\lenovo\AppData\Local\Temp\ccpYsKo5.s:1094   .text.mbedtls_internal_aes_encrypt:000003b4 $d
c:\Users\lenovo\AppData\Local\Temp\ccpYsKo5.s:1103   .text.mbedtls_aes_encrypt:00000000 $t
c:\Users\lenovo\AppData\Local\Temp\ccpYsKo5.s:1110   .text.mbedtls_aes_encrypt:00000000 mbedtls_aes_encrypt
c:\Users\lenovo\AppData\Local\Temp\ccpYsKo5.s:1131   .text.mbedtls_internal_aes_decrypt:00000000 $t
c:\Users\lenovo\AppData\Local\Temp\ccpYsKo5.s:1138   .text.mbedtls_internal_aes_decrypt:00000000 mbedtls_internal_aes_decrypt
c:\Users\lenovo\AppData\Local\Temp\ccpYsKo5.s:1572   .text.mbedtls_internal_aes_decrypt:000003b4 $d
c:\Users\lenovo\AppData\Local\Temp\ccpYsKo5.s:1581   .text.mbedtls_aes_decrypt:00000000 $t
c:\Users\lenovo\AppData\Local\Temp\ccpYsKo5.s:1588   .text.mbedtls_aes_decrypt:00000000 mbedtls_aes_decrypt
c:\Users\lenovo\AppData\Local\Temp\ccpYsKo5.s:1609   .text.mbedtls_aes_crypt_ecb:00000000 $t
c:\Users\lenovo\AppData\Local\Temp\ccpYsKo5.s:1616   .text.mbedtls_aes_crypt_ecb:00000000 mbedtls_aes_crypt_ecb
c:\Users\lenovo\AppData\Local\Temp\ccpYsKo5.s:1656   .text.mbedtls_aes_crypt_cbc:00000000 $t
c:\Users\lenovo\AppData\Local\Temp\ccpYsKo5.s:1663   .text.mbedtls_aes_crypt_cbc:00000000 mbedtls_aes_crypt_cbc
c:\Users\lenovo\AppData\Local\Temp\ccpYsKo5.s:1821   .rodata.FSb:00000000 $d
c:\Users\lenovo\AppData\Local\Temp\ccpYsKo5.s:1825   .rodata.FSb:00000000 FSb
c:\Users\lenovo\AppData\Local\Temp\ccpYsKo5.s:2083   .rodata.FT0:00000000 $d
c:\Users\lenovo\AppData\Local\Temp\ccpYsKo5.s:2087   .rodata.FT0:00000000 FT0
c:\Users\lenovo\AppData\Local\Temp\ccpYsKo5.s:2345   .rodata.FT1:00000000 $d
c:\Users\lenovo\AppData\Local\Temp\ccpYsKo5.s:2349   .rodata.FT1:00000000 FT1
c:\Users\lenovo\AppData\Local\Temp\ccpYsKo5.s:2607   .rodata.FT2:00000000 $d
c:\Users\lenovo\AppData\Local\Temp\ccpYsKo5.s:2611   .rodata.FT2:00000000 FT2
c:\Users\lenovo\AppData\Local\Temp\ccpYsKo5.s:2869   .rodata.FT3:00000000 $d
c:\Users\lenovo\AppData\Local\Temp\ccpYsKo5.s:2873   .rodata.FT3:00000000 FT3
c:\Users\lenovo\AppData\Local\Temp\ccpYsKo5.s:3131   .rodata.RCON:00000000 $d
c:\Users\lenovo\AppData\Local\Temp\ccpYsKo5.s:3135   .rodata.RCON:00000000 RCON
c:\Users\lenovo\AppData\Local\Temp\ccpYsKo5.s:3147   .rodata.RSb:00000000 $d
c:\Users\lenovo\AppData\Local\Temp\ccpYsKo5.s:3151   .rodata.RSb:00000000 RSb
c:\Users\lenovo\AppData\Local\Temp\ccpYsKo5.s:3409   .rodata.RT0:00000000 $d
c:\Users\lenovo\AppData\Local\Temp\ccpYsKo5.s:3413   .rodata.RT0:00000000 RT0
c:\Users\lenovo\AppData\Local\Temp\ccpYsKo5.s:3671   .rodata.RT1:00000000 $d
c:\Users\lenovo\AppData\Local\Temp\ccpYsKo5.s:3675   .rodata.RT1:00000000 RT1
c:\Users\lenovo\AppData\Local\Temp\ccpYsKo5.s:3933   .rodata.RT2:00000000 $d
c:\Users\lenovo\AppData\Local\Temp\ccpYsKo5.s:3937   .rodata.RT2:00000000 RT2
c:\Users\lenovo\AppData\Local\Temp\ccpYsKo5.s:4195   .rodata.RT3:00000000 $d
c:\Users\lenovo\AppData\Local\Temp\ccpYsKo5.s:4199   .rodata.RT3:00000000 RT3

UNDEFINED SYMBOLS
memset
