ARM GAS  c:\Users\lenovo\AppData\Local\Temp\ccpYsKo5.s 			page 1


   1              		.cpu cortex-m4
   2              		.eabi_attribute 27, 1
   3              		.eabi_attribute 28, 1
   4              		.eabi_attribute 20, 1
   5              		.eabi_attribute 21, 1
   6              		.eabi_attribute 23, 3
   7              		.eabi_attribute 24, 1
   8              		.eabi_attribute 25, 1
   9              		.eabi_attribute 26, 1
  10              		.eabi_attribute 30, 1
  11              		.eabi_attribute 34, 1
  12              		.eabi_attribute 18, 4
  13              		.file	"aes.c"
  14              		.text
  15              	.Ltext0:
  16              		.cfi_sections	.debug_frame
  17              		.section	.text.mbedtls_zeroize,"ax",%progbits
  18              		.align	1
  19              		.syntax unified
  20              		.thumb
  21              		.thumb_func
  22              		.fpu fpv4-sp-d16
  24              	mbedtls_zeroize:
  25              	.LFB0:
  26              		.file 1 "C:/Users/lenovo/Desktop/liteos/Project2/BearPi_LiteOS/components/security/mbedtls/mbedtls
   1:C:/Users/lenovo/Desktop/liteos/Project2/BearPi_LiteOS/components/security/mbedtls/mbedtls-2.6.0/library\aes.c **** /*
   2:C:/Users/lenovo/Desktop/liteos/Project2/BearPi_LiteOS/components/security/mbedtls/mbedtls-2.6.0/library\aes.c ****  *  FIPS-197 compliant AES implementation
   3:C:/Users/lenovo/Desktop/liteos/Project2/BearPi_LiteOS/components/security/mbedtls/mbedtls-2.6.0/library\aes.c ****  *
   4:C:/Users/lenovo/Desktop/liteos/Project2/BearPi_LiteOS/components/security/mbedtls/mbedtls-2.6.0/library\aes.c ****  *  Copyright (C) 2006-2015, ARM Limited, All Rights Reserved
   5:C:/Users/lenovo/Desktop/liteos/Project2/BearPi_LiteOS/components/security/mbedtls/mbedtls-2.6.0/library\aes.c ****  *  SPDX-License-Identifier: Apache-2.0
   6:C:/Users/lenovo/Desktop/liteos/Project2/BearPi_LiteOS/components/security/mbedtls/mbedtls-2.6.0/library\aes.c ****  *
   7:C:/Users/lenovo/Desktop/liteos/Project2/BearPi_LiteOS/components/security/mbedtls/mbedtls-2.6.0/library\aes.c ****  *  Licensed under the Apache License, Version 2.0 (the "License"); you may
   8:C:/Users/lenovo/Desktop/liteos/Project2/BearPi_LiteOS/components/security/mbedtls/mbedtls-2.6.0/library\aes.c ****  *  not use this file except in compliance with the License.
   9:C:/Users/lenovo/Desktop/liteos/Project2/BearPi_LiteOS/components/security/mbedtls/mbedtls-2.6.0/library\aes.c ****  *  You may obtain a copy of the License at
  10:C:/Users/lenovo/Desktop/liteos/Project2/BearPi_LiteOS/components/security/mbedtls/mbedtls-2.6.0/library\aes.c ****  *
  11:C:/Users/lenovo/Desktop/liteos/Project2/BearPi_LiteOS/components/security/mbedtls/mbedtls-2.6.0/library\aes.c ****  *  http://www.apache.org/licenses/LICENSE-2.0
  12:C:/Users/lenovo/Desktop/liteos/Project2/BearPi_LiteOS/components/security/mbedtls/mbedtls-2.6.0/library\aes.c ****  *
  13:C:/Users/lenovo/Desktop/liteos/Project2/BearPi_LiteOS/components/security/mbedtls/mbedtls-2.6.0/library\aes.c ****  *  Unless required by applicable law or agreed to in writing, software
  14:C:/Users/lenovo/Desktop/liteos/Project2/BearPi_LiteOS/components/security/mbedtls/mbedtls-2.6.0/library\aes.c ****  *  distributed under the License is distributed on an "AS IS" BASIS, WITHOUT
  15:C:/Users/lenovo/Desktop/liteos/Project2/BearPi_LiteOS/components/security/mbedtls/mbedtls-2.6.0/library\aes.c ****  *  WARRANTIES OR CONDITIONS OF ANY KIND, either express or implied.
  16:C:/Users/lenovo/Desktop/liteos/Project2/BearPi_LiteOS/components/security/mbedtls/mbedtls-2.6.0/library\aes.c ****  *  See the License for the specific language governing permissions and
  17:C:/Users/lenovo/Desktop/liteos/Project2/BearPi_LiteOS/components/security/mbedtls/mbedtls-2.6.0/library\aes.c ****  *  limitations under the License.
  18:C:/Users/lenovo/Desktop/liteos/Project2/BearPi_LiteOS/components/security/mbedtls/mbedtls-2.6.0/library\aes.c ****  *
  19:C:/Users/lenovo/Desktop/liteos/Project2/BearPi_LiteOS/components/security/mbedtls/mbedtls-2.6.0/library\aes.c ****  *  This file is part of mbed TLS (https://tls.mbed.org)
  20:C:/Users/lenovo/Desktop/liteos/Project2/BearPi_LiteOS/components/security/mbedtls/mbedtls-2.6.0/library\aes.c ****  */
  21:C:/Users/lenovo/Desktop/liteos/Project2/BearPi_LiteOS/components/security/mbedtls/mbedtls-2.6.0/library\aes.c **** /*
  22:C:/Users/lenovo/Desktop/liteos/Project2/BearPi_LiteOS/components/security/mbedtls/mbedtls-2.6.0/library\aes.c ****  *  The AES block cipher was designed by Vincent Rijmen and Joan Daemen.
  23:C:/Users/lenovo/Desktop/liteos/Project2/BearPi_LiteOS/components/security/mbedtls/mbedtls-2.6.0/library\aes.c ****  *
  24:C:/Users/lenovo/Desktop/liteos/Project2/BearPi_LiteOS/components/security/mbedtls/mbedtls-2.6.0/library\aes.c ****  *  http://csrc.nist.gov/encryption/aes/rijndael/Rijndael.pdf
  25:C:/Users/lenovo/Desktop/liteos/Project2/BearPi_LiteOS/components/security/mbedtls/mbedtls-2.6.0/library\aes.c ****  *  http://csrc.nist.gov/publications/fips/fips197/fips-197.pdf
  26:C:/Users/lenovo/Desktop/liteos/Project2/BearPi_LiteOS/components/security/mbedtls/mbedtls-2.6.0/library\aes.c ****  */
  27:C:/Users/lenovo/Desktop/liteos/Project2/BearPi_LiteOS/components/security/mbedtls/mbedtls-2.6.0/library\aes.c **** 
  28:C:/Users/lenovo/Desktop/liteos/Project2/BearPi_LiteOS/components/security/mbedtls/mbedtls-2.6.0/library\aes.c **** #if !defined(MBEDTLS_CONFIG_FILE)
  29:C:/Users/lenovo/Desktop/liteos/Project2/BearPi_LiteOS/components/security/mbedtls/mbedtls-2.6.0/library\aes.c **** #include "mbedtls/config.h"
  30:C:/Users/lenovo/Desktop/liteos/Project2/BearPi_LiteOS/components/security/mbedtls/mbedtls-2.6.0/library\aes.c **** #else
  31:C:/Users/lenovo/Desktop/liteos/Project2/BearPi_LiteOS/components/security/mbedtls/mbedtls-2.6.0/library\aes.c **** #include MBEDTLS_CONFIG_FILE
  32:C:/Users/lenovo/Desktop/liteos/Project2/BearPi_LiteOS/components/security/mbedtls/mbedtls-2.6.0/library\aes.c **** #endif
ARM GAS  c:\Users\lenovo\AppData\Local\Temp\ccpYsKo5.s 			page 2


  33:C:/Users/lenovo/Desktop/liteos/Project2/BearPi_LiteOS/components/security/mbedtls/mbedtls-2.6.0/library\aes.c **** 
  34:C:/Users/lenovo/Desktop/liteos/Project2/BearPi_LiteOS/components/security/mbedtls/mbedtls-2.6.0/library\aes.c **** #if defined(MBEDTLS_AES_C)
  35:C:/Users/lenovo/Desktop/liteos/Project2/BearPi_LiteOS/components/security/mbedtls/mbedtls-2.6.0/library\aes.c **** 
  36:C:/Users/lenovo/Desktop/liteos/Project2/BearPi_LiteOS/components/security/mbedtls/mbedtls-2.6.0/library\aes.c **** #include <string.h>
  37:C:/Users/lenovo/Desktop/liteos/Project2/BearPi_LiteOS/components/security/mbedtls/mbedtls-2.6.0/library\aes.c **** 
  38:C:/Users/lenovo/Desktop/liteos/Project2/BearPi_LiteOS/components/security/mbedtls/mbedtls-2.6.0/library\aes.c **** #include "mbedtls/aes.h"
  39:C:/Users/lenovo/Desktop/liteos/Project2/BearPi_LiteOS/components/security/mbedtls/mbedtls-2.6.0/library\aes.c **** #if defined(MBEDTLS_PADLOCK_C)
  40:C:/Users/lenovo/Desktop/liteos/Project2/BearPi_LiteOS/components/security/mbedtls/mbedtls-2.6.0/library\aes.c **** #include "mbedtls/padlock.h"
  41:C:/Users/lenovo/Desktop/liteos/Project2/BearPi_LiteOS/components/security/mbedtls/mbedtls-2.6.0/library\aes.c **** #endif
  42:C:/Users/lenovo/Desktop/liteos/Project2/BearPi_LiteOS/components/security/mbedtls/mbedtls-2.6.0/library\aes.c **** #if defined(MBEDTLS_AESNI_C)
  43:C:/Users/lenovo/Desktop/liteos/Project2/BearPi_LiteOS/components/security/mbedtls/mbedtls-2.6.0/library\aes.c **** #include "mbedtls/aesni.h"
  44:C:/Users/lenovo/Desktop/liteos/Project2/BearPi_LiteOS/components/security/mbedtls/mbedtls-2.6.0/library\aes.c **** #endif
  45:C:/Users/lenovo/Desktop/liteos/Project2/BearPi_LiteOS/components/security/mbedtls/mbedtls-2.6.0/library\aes.c **** 
  46:C:/Users/lenovo/Desktop/liteos/Project2/BearPi_LiteOS/components/security/mbedtls/mbedtls-2.6.0/library\aes.c **** #if defined(MBEDTLS_SELF_TEST)
  47:C:/Users/lenovo/Desktop/liteos/Project2/BearPi_LiteOS/components/security/mbedtls/mbedtls-2.6.0/library\aes.c **** #if defined(MBEDTLS_PLATFORM_C)
  48:C:/Users/lenovo/Desktop/liteos/Project2/BearPi_LiteOS/components/security/mbedtls/mbedtls-2.6.0/library\aes.c **** #include "mbedtls/platform.h"
  49:C:/Users/lenovo/Desktop/liteos/Project2/BearPi_LiteOS/components/security/mbedtls/mbedtls-2.6.0/library\aes.c **** #else
  50:C:/Users/lenovo/Desktop/liteos/Project2/BearPi_LiteOS/components/security/mbedtls/mbedtls-2.6.0/library\aes.c **** #include <stdio.h>
  51:C:/Users/lenovo/Desktop/liteos/Project2/BearPi_LiteOS/components/security/mbedtls/mbedtls-2.6.0/library\aes.c **** #define mbedtls_printf printf
  52:C:/Users/lenovo/Desktop/liteos/Project2/BearPi_LiteOS/components/security/mbedtls/mbedtls-2.6.0/library\aes.c **** #endif /* MBEDTLS_PLATFORM_C */
  53:C:/Users/lenovo/Desktop/liteos/Project2/BearPi_LiteOS/components/security/mbedtls/mbedtls-2.6.0/library\aes.c **** #endif /* MBEDTLS_SELF_TEST */
  54:C:/Users/lenovo/Desktop/liteos/Project2/BearPi_LiteOS/components/security/mbedtls/mbedtls-2.6.0/library\aes.c **** 
  55:C:/Users/lenovo/Desktop/liteos/Project2/BearPi_LiteOS/components/security/mbedtls/mbedtls-2.6.0/library\aes.c **** #if !defined(MBEDTLS_AES_ALT)
  56:C:/Users/lenovo/Desktop/liteos/Project2/BearPi_LiteOS/components/security/mbedtls/mbedtls-2.6.0/library\aes.c **** 
  57:C:/Users/lenovo/Desktop/liteos/Project2/BearPi_LiteOS/components/security/mbedtls/mbedtls-2.6.0/library\aes.c **** /* Implementation that should never be optimized out by the compiler */
  58:C:/Users/lenovo/Desktop/liteos/Project2/BearPi_LiteOS/components/security/mbedtls/mbedtls-2.6.0/library\aes.c **** static void mbedtls_zeroize( void *v, size_t n ) {
  27              		.loc 1 58 0
  28              		.cfi_startproc
  29              		@ args = 0, pretend = 0, frame = 0
  30              		@ frame_needed = 0, uses_anonymous_args = 0
  31              		@ link register save eliminated.
  32              	.LVL0:
  59:C:/Users/lenovo/Desktop/liteos/Project2/BearPi_LiteOS/components/security/mbedtls/mbedtls-2.6.0/library\aes.c ****     volatile unsigned char *p = (unsigned char*)v; while( n-- ) *p++ = 0;
  33              		.loc 1 59 0
  34 0000 03E0     		b	.L2
  35              	.LVL1:
  36              	.L3:
  37              		.loc 1 59 0 is_stmt 0 discriminator 3
  38 0002 0022     		movs	r2, #0
  39 0004 0270     		strb	r2, [r0]
  40 0006 0130     		adds	r0, r0, #1
  41              	.LVL2:
  42 0008 1946     		mov	r1, r3
  43              	.LVL3:
  44              	.L2:
  45              		.loc 1 59 0 discriminator 1
  46 000a 4B1E     		subs	r3, r1, #1
  47              	.LVL4:
  48 000c 0029     		cmp	r1, #0
  49 000e F8D1     		bne	.L3
  60:C:/Users/lenovo/Desktop/liteos/Project2/BearPi_LiteOS/components/security/mbedtls/mbedtls-2.6.0/library\aes.c **** }
  50              		.loc 1 60 0 is_stmt 1
  51 0010 7047     		bx	lr
  52              		.cfi_endproc
  53              	.LFE0:
  55              		.section	.text.mbedtls_aes_init,"ax",%progbits
  56              		.align	1
ARM GAS  c:\Users\lenovo\AppData\Local\Temp\ccpYsKo5.s 			page 3


  57              		.global	mbedtls_aes_init
  58              		.syntax unified
  59              		.thumb
  60              		.thumb_func
  61              		.fpu fpv4-sp-d16
  63              	mbedtls_aes_init:
  64              	.LFB1:
  61:C:/Users/lenovo/Desktop/liteos/Project2/BearPi_LiteOS/components/security/mbedtls/mbedtls-2.6.0/library\aes.c **** 
  62:C:/Users/lenovo/Desktop/liteos/Project2/BearPi_LiteOS/components/security/mbedtls/mbedtls-2.6.0/library\aes.c **** /*
  63:C:/Users/lenovo/Desktop/liteos/Project2/BearPi_LiteOS/components/security/mbedtls/mbedtls-2.6.0/library\aes.c ****  * 32-bit integer manipulation macros (little endian)
  64:C:/Users/lenovo/Desktop/liteos/Project2/BearPi_LiteOS/components/security/mbedtls/mbedtls-2.6.0/library\aes.c ****  */
  65:C:/Users/lenovo/Desktop/liteos/Project2/BearPi_LiteOS/components/security/mbedtls/mbedtls-2.6.0/library\aes.c **** #ifndef GET_UINT32_LE
  66:C:/Users/lenovo/Desktop/liteos/Project2/BearPi_LiteOS/components/security/mbedtls/mbedtls-2.6.0/library\aes.c **** #define GET_UINT32_LE(n,b,i)                            \
  67:C:/Users/lenovo/Desktop/liteos/Project2/BearPi_LiteOS/components/security/mbedtls/mbedtls-2.6.0/library\aes.c **** {                                                       \
  68:C:/Users/lenovo/Desktop/liteos/Project2/BearPi_LiteOS/components/security/mbedtls/mbedtls-2.6.0/library\aes.c ****     (n) = ( (uint32_t) (b)[(i)    ]       )             \
  69:C:/Users/lenovo/Desktop/liteos/Project2/BearPi_LiteOS/components/security/mbedtls/mbedtls-2.6.0/library\aes.c ****         | ( (uint32_t) (b)[(i) + 1] <<  8 )             \
  70:C:/Users/lenovo/Desktop/liteos/Project2/BearPi_LiteOS/components/security/mbedtls/mbedtls-2.6.0/library\aes.c ****         | ( (uint32_t) (b)[(i) + 2] << 16 )             \
  71:C:/Users/lenovo/Desktop/liteos/Project2/BearPi_LiteOS/components/security/mbedtls/mbedtls-2.6.0/library\aes.c ****         | ( (uint32_t) (b)[(i) + 3] << 24 );            \
  72:C:/Users/lenovo/Desktop/liteos/Project2/BearPi_LiteOS/components/security/mbedtls/mbedtls-2.6.0/library\aes.c **** }
  73:C:/Users/lenovo/Desktop/liteos/Project2/BearPi_LiteOS/components/security/mbedtls/mbedtls-2.6.0/library\aes.c **** #endif
  74:C:/Users/lenovo/Desktop/liteos/Project2/BearPi_LiteOS/components/security/mbedtls/mbedtls-2.6.0/library\aes.c **** 
  75:C:/Users/lenovo/Desktop/liteos/Project2/BearPi_LiteOS/components/security/mbedtls/mbedtls-2.6.0/library\aes.c **** #ifndef PUT_UINT32_LE
  76:C:/Users/lenovo/Desktop/liteos/Project2/BearPi_LiteOS/components/security/mbedtls/mbedtls-2.6.0/library\aes.c **** #define PUT_UINT32_LE(n,b,i)                                    \
  77:C:/Users/lenovo/Desktop/liteos/Project2/BearPi_LiteOS/components/security/mbedtls/mbedtls-2.6.0/library\aes.c **** {                                                               \
  78:C:/Users/lenovo/Desktop/liteos/Project2/BearPi_LiteOS/components/security/mbedtls/mbedtls-2.6.0/library\aes.c ****     (b)[(i)    ] = (unsigned char) ( ( (n)       ) & 0xFF );    \
  79:C:/Users/lenovo/Desktop/liteos/Project2/BearPi_LiteOS/components/security/mbedtls/mbedtls-2.6.0/library\aes.c ****     (b)[(i) + 1] = (unsigned char) ( ( (n) >>  8 ) & 0xFF );    \
  80:C:/Users/lenovo/Desktop/liteos/Project2/BearPi_LiteOS/components/security/mbedtls/mbedtls-2.6.0/library\aes.c ****     (b)[(i) + 2] = (unsigned char) ( ( (n) >> 16 ) & 0xFF );    \
  81:C:/Users/lenovo/Desktop/liteos/Project2/BearPi_LiteOS/components/security/mbedtls/mbedtls-2.6.0/library\aes.c ****     (b)[(i) + 3] = (unsigned char) ( ( (n) >> 24 ) & 0xFF );    \
  82:C:/Users/lenovo/Desktop/liteos/Project2/BearPi_LiteOS/components/security/mbedtls/mbedtls-2.6.0/library\aes.c **** }
  83:C:/Users/lenovo/Desktop/liteos/Project2/BearPi_LiteOS/components/security/mbedtls/mbedtls-2.6.0/library\aes.c **** #endif
  84:C:/Users/lenovo/Desktop/liteos/Project2/BearPi_LiteOS/components/security/mbedtls/mbedtls-2.6.0/library\aes.c **** 
  85:C:/Users/lenovo/Desktop/liteos/Project2/BearPi_LiteOS/components/security/mbedtls/mbedtls-2.6.0/library\aes.c **** #if defined(MBEDTLS_PADLOCK_C) &&                      \
  86:C:/Users/lenovo/Desktop/liteos/Project2/BearPi_LiteOS/components/security/mbedtls/mbedtls-2.6.0/library\aes.c ****     ( defined(MBEDTLS_HAVE_X86) || defined(MBEDTLS_PADLOCK_ALIGN16) )
  87:C:/Users/lenovo/Desktop/liteos/Project2/BearPi_LiteOS/components/security/mbedtls/mbedtls-2.6.0/library\aes.c **** static int aes_padlock_ace = -1;
  88:C:/Users/lenovo/Desktop/liteos/Project2/BearPi_LiteOS/components/security/mbedtls/mbedtls-2.6.0/library\aes.c **** #endif
  89:C:/Users/lenovo/Desktop/liteos/Project2/BearPi_LiteOS/components/security/mbedtls/mbedtls-2.6.0/library\aes.c **** 
  90:C:/Users/lenovo/Desktop/liteos/Project2/BearPi_LiteOS/components/security/mbedtls/mbedtls-2.6.0/library\aes.c **** #if defined(MBEDTLS_AES_ROM_TABLES)
  91:C:/Users/lenovo/Desktop/liteos/Project2/BearPi_LiteOS/components/security/mbedtls/mbedtls-2.6.0/library\aes.c **** /*
  92:C:/Users/lenovo/Desktop/liteos/Project2/BearPi_LiteOS/components/security/mbedtls/mbedtls-2.6.0/library\aes.c ****  * Forward S-box
  93:C:/Users/lenovo/Desktop/liteos/Project2/BearPi_LiteOS/components/security/mbedtls/mbedtls-2.6.0/library\aes.c ****  */
  94:C:/Users/lenovo/Desktop/liteos/Project2/BearPi_LiteOS/components/security/mbedtls/mbedtls-2.6.0/library\aes.c **** static const unsigned char FSb[256] =
  95:C:/Users/lenovo/Desktop/liteos/Project2/BearPi_LiteOS/components/security/mbedtls/mbedtls-2.6.0/library\aes.c **** {
  96:C:/Users/lenovo/Desktop/liteos/Project2/BearPi_LiteOS/components/security/mbedtls/mbedtls-2.6.0/library\aes.c ****     0x63, 0x7C, 0x77, 0x7B, 0xF2, 0x6B, 0x6F, 0xC5,
  97:C:/Users/lenovo/Desktop/liteos/Project2/BearPi_LiteOS/components/security/mbedtls/mbedtls-2.6.0/library\aes.c ****     0x30, 0x01, 0x67, 0x2B, 0xFE, 0xD7, 0xAB, 0x76,
  98:C:/Users/lenovo/Desktop/liteos/Project2/BearPi_LiteOS/components/security/mbedtls/mbedtls-2.6.0/library\aes.c ****     0xCA, 0x82, 0xC9, 0x7D, 0xFA, 0x59, 0x47, 0xF0,
  99:C:/Users/lenovo/Desktop/liteos/Project2/BearPi_LiteOS/components/security/mbedtls/mbedtls-2.6.0/library\aes.c ****     0xAD, 0xD4, 0xA2, 0xAF, 0x9C, 0xA4, 0x72, 0xC0,
 100:C:/Users/lenovo/Desktop/liteos/Project2/BearPi_LiteOS/components/security/mbedtls/mbedtls-2.6.0/library\aes.c ****     0xB7, 0xFD, 0x93, 0x26, 0x36, 0x3F, 0xF7, 0xCC,
 101:C:/Users/lenovo/Desktop/liteos/Project2/BearPi_LiteOS/components/security/mbedtls/mbedtls-2.6.0/library\aes.c ****     0x34, 0xA5, 0xE5, 0xF1, 0x71, 0xD8, 0x31, 0x15,
 102:C:/Users/lenovo/Desktop/liteos/Project2/BearPi_LiteOS/components/security/mbedtls/mbedtls-2.6.0/library\aes.c ****     0x04, 0xC7, 0x23, 0xC3, 0x18, 0x96, 0x05, 0x9A,
 103:C:/Users/lenovo/Desktop/liteos/Project2/BearPi_LiteOS/components/security/mbedtls/mbedtls-2.6.0/library\aes.c ****     0x07, 0x12, 0x80, 0xE2, 0xEB, 0x27, 0xB2, 0x75,
 104:C:/Users/lenovo/Desktop/liteos/Project2/BearPi_LiteOS/components/security/mbedtls/mbedtls-2.6.0/library\aes.c ****     0x09, 0x83, 0x2C, 0x1A, 0x1B, 0x6E, 0x5A, 0xA0,
 105:C:/Users/lenovo/Desktop/liteos/Project2/BearPi_LiteOS/components/security/mbedtls/mbedtls-2.6.0/library\aes.c ****     0x52, 0x3B, 0xD6, 0xB3, 0x29, 0xE3, 0x2F, 0x84,
 106:C:/Users/lenovo/Desktop/liteos/Project2/BearPi_LiteOS/components/security/mbedtls/mbedtls-2.6.0/library\aes.c ****     0x53, 0xD1, 0x00, 0xED, 0x20, 0xFC, 0xB1, 0x5B,
 107:C:/Users/lenovo/Desktop/liteos/Project2/BearPi_LiteOS/components/security/mbedtls/mbedtls-2.6.0/library\aes.c ****     0x6A, 0xCB, 0xBE, 0x39, 0x4A, 0x4C, 0x58, 0xCF,
 108:C:/Users/lenovo/Desktop/liteos/Project2/BearPi_LiteOS/components/security/mbedtls/mbedtls-2.6.0/library\aes.c ****     0xD0, 0xEF, 0xAA, 0xFB, 0x43, 0x4D, 0x33, 0x85,
 109:C:/Users/lenovo/Desktop/liteos/Project2/BearPi_LiteOS/components/security/mbedtls/mbedtls-2.6.0/library\aes.c ****     0x45, 0xF9, 0x02, 0x7F, 0x50, 0x3C, 0x9F, 0xA8,
 110:C:/Users/lenovo/Desktop/liteos/Project2/BearPi_LiteOS/components/security/mbedtls/mbedtls-2.6.0/library\aes.c ****     0x51, 0xA3, 0x40, 0x8F, 0x92, 0x9D, 0x38, 0xF5,
ARM GAS  c:\Users\lenovo\AppData\Local\Temp\ccpYsKo5.s 			page 4


 111:C:/Users/lenovo/Desktop/liteos/Project2/BearPi_LiteOS/components/security/mbedtls/mbedtls-2.6.0/library\aes.c ****     0xBC, 0xB6, 0xDA, 0x21, 0x10, 0xFF, 0xF3, 0xD2,
 112:C:/Users/lenovo/Desktop/liteos/Project2/BearPi_LiteOS/components/security/mbedtls/mbedtls-2.6.0/library\aes.c ****     0xCD, 0x0C, 0x13, 0xEC, 0x5F, 0x97, 0x44, 0x17,
 113:C:/Users/lenovo/Desktop/liteos/Project2/BearPi_LiteOS/components/security/mbedtls/mbedtls-2.6.0/library\aes.c ****     0xC4, 0xA7, 0x7E, 0x3D, 0x64, 0x5D, 0x19, 0x73,
 114:C:/Users/lenovo/Desktop/liteos/Project2/BearPi_LiteOS/components/security/mbedtls/mbedtls-2.6.0/library\aes.c ****     0x60, 0x81, 0x4F, 0xDC, 0x22, 0x2A, 0x90, 0x88,
 115:C:/Users/lenovo/Desktop/liteos/Project2/BearPi_LiteOS/components/security/mbedtls/mbedtls-2.6.0/library\aes.c ****     0x46, 0xEE, 0xB8, 0x14, 0xDE, 0x5E, 0x0B, 0xDB,
 116:C:/Users/lenovo/Desktop/liteos/Project2/BearPi_LiteOS/components/security/mbedtls/mbedtls-2.6.0/library\aes.c ****     0xE0, 0x32, 0x3A, 0x0A, 0x49, 0x06, 0x24, 0x5C,
 117:C:/Users/lenovo/Desktop/liteos/Project2/BearPi_LiteOS/components/security/mbedtls/mbedtls-2.6.0/library\aes.c ****     0xC2, 0xD3, 0xAC, 0x62, 0x91, 0x95, 0xE4, 0x79,
 118:C:/Users/lenovo/Desktop/liteos/Project2/BearPi_LiteOS/components/security/mbedtls/mbedtls-2.6.0/library\aes.c ****     0xE7, 0xC8, 0x37, 0x6D, 0x8D, 0xD5, 0x4E, 0xA9,
 119:C:/Users/lenovo/Desktop/liteos/Project2/BearPi_LiteOS/components/security/mbedtls/mbedtls-2.6.0/library\aes.c ****     0x6C, 0x56, 0xF4, 0xEA, 0x65, 0x7A, 0xAE, 0x08,
 120:C:/Users/lenovo/Desktop/liteos/Project2/BearPi_LiteOS/components/security/mbedtls/mbedtls-2.6.0/library\aes.c ****     0xBA, 0x78, 0x25, 0x2E, 0x1C, 0xA6, 0xB4, 0xC6,
 121:C:/Users/lenovo/Desktop/liteos/Project2/BearPi_LiteOS/components/security/mbedtls/mbedtls-2.6.0/library\aes.c ****     0xE8, 0xDD, 0x74, 0x1F, 0x4B, 0xBD, 0x8B, 0x8A,
 122:C:/Users/lenovo/Desktop/liteos/Project2/BearPi_LiteOS/components/security/mbedtls/mbedtls-2.6.0/library\aes.c ****     0x70, 0x3E, 0xB5, 0x66, 0x48, 0x03, 0xF6, 0x0E,
 123:C:/Users/lenovo/Desktop/liteos/Project2/BearPi_LiteOS/components/security/mbedtls/mbedtls-2.6.0/library\aes.c ****     0x61, 0x35, 0x57, 0xB9, 0x86, 0xC1, 0x1D, 0x9E,
 124:C:/Users/lenovo/Desktop/liteos/Project2/BearPi_LiteOS/components/security/mbedtls/mbedtls-2.6.0/library\aes.c ****     0xE1, 0xF8, 0x98, 0x11, 0x69, 0xD9, 0x8E, 0x94,
 125:C:/Users/lenovo/Desktop/liteos/Project2/BearPi_LiteOS/components/security/mbedtls/mbedtls-2.6.0/library\aes.c ****     0x9B, 0x1E, 0x87, 0xE9, 0xCE, 0x55, 0x28, 0xDF,
 126:C:/Users/lenovo/Desktop/liteos/Project2/BearPi_LiteOS/components/security/mbedtls/mbedtls-2.6.0/library\aes.c ****     0x8C, 0xA1, 0x89, 0x0D, 0xBF, 0xE6, 0x42, 0x68,
 127:C:/Users/lenovo/Desktop/liteos/Project2/BearPi_LiteOS/components/security/mbedtls/mbedtls-2.6.0/library\aes.c ****     0x41, 0x99, 0x2D, 0x0F, 0xB0, 0x54, 0xBB, 0x16
 128:C:/Users/lenovo/Desktop/liteos/Project2/BearPi_LiteOS/components/security/mbedtls/mbedtls-2.6.0/library\aes.c **** };
 129:C:/Users/lenovo/Desktop/liteos/Project2/BearPi_LiteOS/components/security/mbedtls/mbedtls-2.6.0/library\aes.c **** 
 130:C:/Users/lenovo/Desktop/liteos/Project2/BearPi_LiteOS/components/security/mbedtls/mbedtls-2.6.0/library\aes.c **** /*
 131:C:/Users/lenovo/Desktop/liteos/Project2/BearPi_LiteOS/components/security/mbedtls/mbedtls-2.6.0/library\aes.c ****  * Forward tables
 132:C:/Users/lenovo/Desktop/liteos/Project2/BearPi_LiteOS/components/security/mbedtls/mbedtls-2.6.0/library\aes.c ****  */
 133:C:/Users/lenovo/Desktop/liteos/Project2/BearPi_LiteOS/components/security/mbedtls/mbedtls-2.6.0/library\aes.c **** #define FT \
 134:C:/Users/lenovo/Desktop/liteos/Project2/BearPi_LiteOS/components/security/mbedtls/mbedtls-2.6.0/library\aes.c **** \
 135:C:/Users/lenovo/Desktop/liteos/Project2/BearPi_LiteOS/components/security/mbedtls/mbedtls-2.6.0/library\aes.c ****     V(A5,63,63,C6), V(84,7C,7C,F8), V(99,77,77,EE), V(8D,7B,7B,F6), \
 136:C:/Users/lenovo/Desktop/liteos/Project2/BearPi_LiteOS/components/security/mbedtls/mbedtls-2.6.0/library\aes.c ****     V(0D,F2,F2,FF), V(BD,6B,6B,D6), V(B1,6F,6F,DE), V(54,C5,C5,91), \
 137:C:/Users/lenovo/Desktop/liteos/Project2/BearPi_LiteOS/components/security/mbedtls/mbedtls-2.6.0/library\aes.c ****     V(50,30,30,60), V(03,01,01,02), V(A9,67,67,CE), V(7D,2B,2B,56), \
 138:C:/Users/lenovo/Desktop/liteos/Project2/BearPi_LiteOS/components/security/mbedtls/mbedtls-2.6.0/library\aes.c ****     V(19,FE,FE,E7), V(62,D7,D7,B5), V(E6,AB,AB,4D), V(9A,76,76,EC), \
 139:C:/Users/lenovo/Desktop/liteos/Project2/BearPi_LiteOS/components/security/mbedtls/mbedtls-2.6.0/library\aes.c ****     V(45,CA,CA,8F), V(9D,82,82,1F), V(40,C9,C9,89), V(87,7D,7D,FA), \
 140:C:/Users/lenovo/Desktop/liteos/Project2/BearPi_LiteOS/components/security/mbedtls/mbedtls-2.6.0/library\aes.c ****     V(15,FA,FA,EF), V(EB,59,59,B2), V(C9,47,47,8E), V(0B,F0,F0,FB), \
 141:C:/Users/lenovo/Desktop/liteos/Project2/BearPi_LiteOS/components/security/mbedtls/mbedtls-2.6.0/library\aes.c ****     V(EC,AD,AD,41), V(67,D4,D4,B3), V(FD,A2,A2,5F), V(EA,AF,AF,45), \
 142:C:/Users/lenovo/Desktop/liteos/Project2/BearPi_LiteOS/components/security/mbedtls/mbedtls-2.6.0/library\aes.c ****     V(BF,9C,9C,23), V(F7,A4,A4,53), V(96,72,72,E4), V(5B,C0,C0,9B), \
 143:C:/Users/lenovo/Desktop/liteos/Project2/BearPi_LiteOS/components/security/mbedtls/mbedtls-2.6.0/library\aes.c ****     V(C2,B7,B7,75), V(1C,FD,FD,E1), V(AE,93,93,3D), V(6A,26,26,4C), \
 144:C:/Users/lenovo/Desktop/liteos/Project2/BearPi_LiteOS/components/security/mbedtls/mbedtls-2.6.0/library\aes.c ****     V(5A,36,36,6C), V(41,3F,3F,7E), V(02,F7,F7,F5), V(4F,CC,CC,83), \
 145:C:/Users/lenovo/Desktop/liteos/Project2/BearPi_LiteOS/components/security/mbedtls/mbedtls-2.6.0/library\aes.c ****     V(5C,34,34,68), V(F4,A5,A5,51), V(34,E5,E5,D1), V(08,F1,F1,F9), \
 146:C:/Users/lenovo/Desktop/liteos/Project2/BearPi_LiteOS/components/security/mbedtls/mbedtls-2.6.0/library\aes.c ****     V(93,71,71,E2), V(73,D8,D8,AB), V(53,31,31,62), V(3F,15,15,2A), \
 147:C:/Users/lenovo/Desktop/liteos/Project2/BearPi_LiteOS/components/security/mbedtls/mbedtls-2.6.0/library\aes.c ****     V(0C,04,04,08), V(52,C7,C7,95), V(65,23,23,46), V(5E,C3,C3,9D), \
 148:C:/Users/lenovo/Desktop/liteos/Project2/BearPi_LiteOS/components/security/mbedtls/mbedtls-2.6.0/library\aes.c ****     V(28,18,18,30), V(A1,96,96,37), V(0F,05,05,0A), V(B5,9A,9A,2F), \
 149:C:/Users/lenovo/Desktop/liteos/Project2/BearPi_LiteOS/components/security/mbedtls/mbedtls-2.6.0/library\aes.c ****     V(09,07,07,0E), V(36,12,12,24), V(9B,80,80,1B), V(3D,E2,E2,DF), \
 150:C:/Users/lenovo/Desktop/liteos/Project2/BearPi_LiteOS/components/security/mbedtls/mbedtls-2.6.0/library\aes.c ****     V(26,EB,EB,CD), V(69,27,27,4E), V(CD,B2,B2,7F), V(9F,75,75,EA), \
 151:C:/Users/lenovo/Desktop/liteos/Project2/BearPi_LiteOS/components/security/mbedtls/mbedtls-2.6.0/library\aes.c ****     V(1B,09,09,12), V(9E,83,83,1D), V(74,2C,2C,58), V(2E,1A,1A,34), \
 152:C:/Users/lenovo/Desktop/liteos/Project2/BearPi_LiteOS/components/security/mbedtls/mbedtls-2.6.0/library\aes.c ****     V(2D,1B,1B,36), V(B2,6E,6E,DC), V(EE,5A,5A,B4), V(FB,A0,A0,5B), \
 153:C:/Users/lenovo/Desktop/liteos/Project2/BearPi_LiteOS/components/security/mbedtls/mbedtls-2.6.0/library\aes.c ****     V(F6,52,52,A4), V(4D,3B,3B,76), V(61,D6,D6,B7), V(CE,B3,B3,7D), \
 154:C:/Users/lenovo/Desktop/liteos/Project2/BearPi_LiteOS/components/security/mbedtls/mbedtls-2.6.0/library\aes.c ****     V(7B,29,29,52), V(3E,E3,E3,DD), V(71,2F,2F,5E), V(97,84,84,13), \
 155:C:/Users/lenovo/Desktop/liteos/Project2/BearPi_LiteOS/components/security/mbedtls/mbedtls-2.6.0/library\aes.c ****     V(F5,53,53,A6), V(68,D1,D1,B9), V(00,00,00,00), V(2C,ED,ED,C1), \
 156:C:/Users/lenovo/Desktop/liteos/Project2/BearPi_LiteOS/components/security/mbedtls/mbedtls-2.6.0/library\aes.c ****     V(60,20,20,40), V(1F,FC,FC,E3), V(C8,B1,B1,79), V(ED,5B,5B,B6), \
 157:C:/Users/lenovo/Desktop/liteos/Project2/BearPi_LiteOS/components/security/mbedtls/mbedtls-2.6.0/library\aes.c ****     V(BE,6A,6A,D4), V(46,CB,CB,8D), V(D9,BE,BE,67), V(4B,39,39,72), \
 158:C:/Users/lenovo/Desktop/liteos/Project2/BearPi_LiteOS/components/security/mbedtls/mbedtls-2.6.0/library\aes.c ****     V(DE,4A,4A,94), V(D4,4C,4C,98), V(E8,58,58,B0), V(4A,CF,CF,85), \
 159:C:/Users/lenovo/Desktop/liteos/Project2/BearPi_LiteOS/components/security/mbedtls/mbedtls-2.6.0/library\aes.c ****     V(6B,D0,D0,BB), V(2A,EF,EF,C5), V(E5,AA,AA,4F), V(16,FB,FB,ED), \
 160:C:/Users/lenovo/Desktop/liteos/Project2/BearPi_LiteOS/components/security/mbedtls/mbedtls-2.6.0/library\aes.c ****     V(C5,43,43,86), V(D7,4D,4D,9A), V(55,33,33,66), V(94,85,85,11), \
 161:C:/Users/lenovo/Desktop/liteos/Project2/BearPi_LiteOS/components/security/mbedtls/mbedtls-2.6.0/library\aes.c ****     V(CF,45,45,8A), V(10,F9,F9,E9), V(06,02,02,04), V(81,7F,7F,FE), \
 162:C:/Users/lenovo/Desktop/liteos/Project2/BearPi_LiteOS/components/security/mbedtls/mbedtls-2.6.0/library\aes.c ****     V(F0,50,50,A0), V(44,3C,3C,78), V(BA,9F,9F,25), V(E3,A8,A8,4B), \
 163:C:/Users/lenovo/Desktop/liteos/Project2/BearPi_LiteOS/components/security/mbedtls/mbedtls-2.6.0/library\aes.c ****     V(F3,51,51,A2), V(FE,A3,A3,5D), V(C0,40,40,80), V(8A,8F,8F,05), \
 164:C:/Users/lenovo/Desktop/liteos/Project2/BearPi_LiteOS/components/security/mbedtls/mbedtls-2.6.0/library\aes.c ****     V(AD,92,92,3F), V(BC,9D,9D,21), V(48,38,38,70), V(04,F5,F5,F1), \
 165:C:/Users/lenovo/Desktop/liteos/Project2/BearPi_LiteOS/components/security/mbedtls/mbedtls-2.6.0/library\aes.c ****     V(DF,BC,BC,63), V(C1,B6,B6,77), V(75,DA,DA,AF), V(63,21,21,42), \
 166:C:/Users/lenovo/Desktop/liteos/Project2/BearPi_LiteOS/components/security/mbedtls/mbedtls-2.6.0/library\aes.c ****     V(30,10,10,20), V(1A,FF,FF,E5), V(0E,F3,F3,FD), V(6D,D2,D2,BF), \
 167:C:/Users/lenovo/Desktop/liteos/Project2/BearPi_LiteOS/components/security/mbedtls/mbedtls-2.6.0/library\aes.c ****     V(4C,CD,CD,81), V(14,0C,0C,18), V(35,13,13,26), V(2F,EC,EC,C3), \
ARM GAS  c:\Users\lenovo\AppData\Local\Temp\ccpYsKo5.s 			page 5


 168:C:/Users/lenovo/Desktop/liteos/Project2/BearPi_LiteOS/components/security/mbedtls/mbedtls-2.6.0/library\aes.c ****     V(E1,5F,5F,BE), V(A2,97,97,35), V(CC,44,44,88), V(39,17,17,2E), \
 169:C:/Users/lenovo/Desktop/liteos/Project2/BearPi_LiteOS/components/security/mbedtls/mbedtls-2.6.0/library\aes.c ****     V(57,C4,C4,93), V(F2,A7,A7,55), V(82,7E,7E,FC), V(47,3D,3D,7A), \
 170:C:/Users/lenovo/Desktop/liteos/Project2/BearPi_LiteOS/components/security/mbedtls/mbedtls-2.6.0/library\aes.c ****     V(AC,64,64,C8), V(E7,5D,5D,BA), V(2B,19,19,32), V(95,73,73,E6), \
 171:C:/Users/lenovo/Desktop/liteos/Project2/BearPi_LiteOS/components/security/mbedtls/mbedtls-2.6.0/library\aes.c ****     V(A0,60,60,C0), V(98,81,81,19), V(D1,4F,4F,9E), V(7F,DC,DC,A3), \
 172:C:/Users/lenovo/Desktop/liteos/Project2/BearPi_LiteOS/components/security/mbedtls/mbedtls-2.6.0/library\aes.c ****     V(66,22,22,44), V(7E,2A,2A,54), V(AB,90,90,3B), V(83,88,88,0B), \
 173:C:/Users/lenovo/Desktop/liteos/Project2/BearPi_LiteOS/components/security/mbedtls/mbedtls-2.6.0/library\aes.c ****     V(CA,46,46,8C), V(29,EE,EE,C7), V(D3,B8,B8,6B), V(3C,14,14,28), \
 174:C:/Users/lenovo/Desktop/liteos/Project2/BearPi_LiteOS/components/security/mbedtls/mbedtls-2.6.0/library\aes.c ****     V(79,DE,DE,A7), V(E2,5E,5E,BC), V(1D,0B,0B,16), V(76,DB,DB,AD), \
 175:C:/Users/lenovo/Desktop/liteos/Project2/BearPi_LiteOS/components/security/mbedtls/mbedtls-2.6.0/library\aes.c ****     V(3B,E0,E0,DB), V(56,32,32,64), V(4E,3A,3A,74), V(1E,0A,0A,14), \
 176:C:/Users/lenovo/Desktop/liteos/Project2/BearPi_LiteOS/components/security/mbedtls/mbedtls-2.6.0/library\aes.c ****     V(DB,49,49,92), V(0A,06,06,0C), V(6C,24,24,48), V(E4,5C,5C,B8), \
 177:C:/Users/lenovo/Desktop/liteos/Project2/BearPi_LiteOS/components/security/mbedtls/mbedtls-2.6.0/library\aes.c ****     V(5D,C2,C2,9F), V(6E,D3,D3,BD), V(EF,AC,AC,43), V(A6,62,62,C4), \
 178:C:/Users/lenovo/Desktop/liteos/Project2/BearPi_LiteOS/components/security/mbedtls/mbedtls-2.6.0/library\aes.c ****     V(A8,91,91,39), V(A4,95,95,31), V(37,E4,E4,D3), V(8B,79,79,F2), \
 179:C:/Users/lenovo/Desktop/liteos/Project2/BearPi_LiteOS/components/security/mbedtls/mbedtls-2.6.0/library\aes.c ****     V(32,E7,E7,D5), V(43,C8,C8,8B), V(59,37,37,6E), V(B7,6D,6D,DA), \
 180:C:/Users/lenovo/Desktop/liteos/Project2/BearPi_LiteOS/components/security/mbedtls/mbedtls-2.6.0/library\aes.c ****     V(8C,8D,8D,01), V(64,D5,D5,B1), V(D2,4E,4E,9C), V(E0,A9,A9,49), \
 181:C:/Users/lenovo/Desktop/liteos/Project2/BearPi_LiteOS/components/security/mbedtls/mbedtls-2.6.0/library\aes.c ****     V(B4,6C,6C,D8), V(FA,56,56,AC), V(07,F4,F4,F3), V(25,EA,EA,CF), \
 182:C:/Users/lenovo/Desktop/liteos/Project2/BearPi_LiteOS/components/security/mbedtls/mbedtls-2.6.0/library\aes.c ****     V(AF,65,65,CA), V(8E,7A,7A,F4), V(E9,AE,AE,47), V(18,08,08,10), \
 183:C:/Users/lenovo/Desktop/liteos/Project2/BearPi_LiteOS/components/security/mbedtls/mbedtls-2.6.0/library\aes.c ****     V(D5,BA,BA,6F), V(88,78,78,F0), V(6F,25,25,4A), V(72,2E,2E,5C), \
 184:C:/Users/lenovo/Desktop/liteos/Project2/BearPi_LiteOS/components/security/mbedtls/mbedtls-2.6.0/library\aes.c ****     V(24,1C,1C,38), V(F1,A6,A6,57), V(C7,B4,B4,73), V(51,C6,C6,97), \
 185:C:/Users/lenovo/Desktop/liteos/Project2/BearPi_LiteOS/components/security/mbedtls/mbedtls-2.6.0/library\aes.c ****     V(23,E8,E8,CB), V(7C,DD,DD,A1), V(9C,74,74,E8), V(21,1F,1F,3E), \
 186:C:/Users/lenovo/Desktop/liteos/Project2/BearPi_LiteOS/components/security/mbedtls/mbedtls-2.6.0/library\aes.c ****     V(DD,4B,4B,96), V(DC,BD,BD,61), V(86,8B,8B,0D), V(85,8A,8A,0F), \
 187:C:/Users/lenovo/Desktop/liteos/Project2/BearPi_LiteOS/components/security/mbedtls/mbedtls-2.6.0/library\aes.c ****     V(90,70,70,E0), V(42,3E,3E,7C), V(C4,B5,B5,71), V(AA,66,66,CC), \
 188:C:/Users/lenovo/Desktop/liteos/Project2/BearPi_LiteOS/components/security/mbedtls/mbedtls-2.6.0/library\aes.c ****     V(D8,48,48,90), V(05,03,03,06), V(01,F6,F6,F7), V(12,0E,0E,1C), \
 189:C:/Users/lenovo/Desktop/liteos/Project2/BearPi_LiteOS/components/security/mbedtls/mbedtls-2.6.0/library\aes.c ****     V(A3,61,61,C2), V(5F,35,35,6A), V(F9,57,57,AE), V(D0,B9,B9,69), \
 190:C:/Users/lenovo/Desktop/liteos/Project2/BearPi_LiteOS/components/security/mbedtls/mbedtls-2.6.0/library\aes.c ****     V(91,86,86,17), V(58,C1,C1,99), V(27,1D,1D,3A), V(B9,9E,9E,27), \
 191:C:/Users/lenovo/Desktop/liteos/Project2/BearPi_LiteOS/components/security/mbedtls/mbedtls-2.6.0/library\aes.c ****     V(38,E1,E1,D9), V(13,F8,F8,EB), V(B3,98,98,2B), V(33,11,11,22), \
 192:C:/Users/lenovo/Desktop/liteos/Project2/BearPi_LiteOS/components/security/mbedtls/mbedtls-2.6.0/library\aes.c ****     V(BB,69,69,D2), V(70,D9,D9,A9), V(89,8E,8E,07), V(A7,94,94,33), \
 193:C:/Users/lenovo/Desktop/liteos/Project2/BearPi_LiteOS/components/security/mbedtls/mbedtls-2.6.0/library\aes.c ****     V(B6,9B,9B,2D), V(22,1E,1E,3C), V(92,87,87,15), V(20,E9,E9,C9), \
 194:C:/Users/lenovo/Desktop/liteos/Project2/BearPi_LiteOS/components/security/mbedtls/mbedtls-2.6.0/library\aes.c ****     V(49,CE,CE,87), V(FF,55,55,AA), V(78,28,28,50), V(7A,DF,DF,A5), \
 195:C:/Users/lenovo/Desktop/liteos/Project2/BearPi_LiteOS/components/security/mbedtls/mbedtls-2.6.0/library\aes.c ****     V(8F,8C,8C,03), V(F8,A1,A1,59), V(80,89,89,09), V(17,0D,0D,1A), \
 196:C:/Users/lenovo/Desktop/liteos/Project2/BearPi_LiteOS/components/security/mbedtls/mbedtls-2.6.0/library\aes.c ****     V(DA,BF,BF,65), V(31,E6,E6,D7), V(C6,42,42,84), V(B8,68,68,D0), \
 197:C:/Users/lenovo/Desktop/liteos/Project2/BearPi_LiteOS/components/security/mbedtls/mbedtls-2.6.0/library\aes.c ****     V(C3,41,41,82), V(B0,99,99,29), V(77,2D,2D,5A), V(11,0F,0F,1E), \
 198:C:/Users/lenovo/Desktop/liteos/Project2/BearPi_LiteOS/components/security/mbedtls/mbedtls-2.6.0/library\aes.c ****     V(CB,B0,B0,7B), V(FC,54,54,A8), V(D6,BB,BB,6D), V(3A,16,16,2C)
 199:C:/Users/lenovo/Desktop/liteos/Project2/BearPi_LiteOS/components/security/mbedtls/mbedtls-2.6.0/library\aes.c **** 
 200:C:/Users/lenovo/Desktop/liteos/Project2/BearPi_LiteOS/components/security/mbedtls/mbedtls-2.6.0/library\aes.c **** #define V(a,b,c,d) 0x##a##b##c##d
 201:C:/Users/lenovo/Desktop/liteos/Project2/BearPi_LiteOS/components/security/mbedtls/mbedtls-2.6.0/library\aes.c **** static const uint32_t FT0[256] = { FT };
 202:C:/Users/lenovo/Desktop/liteos/Project2/BearPi_LiteOS/components/security/mbedtls/mbedtls-2.6.0/library\aes.c **** #undef V
 203:C:/Users/lenovo/Desktop/liteos/Project2/BearPi_LiteOS/components/security/mbedtls/mbedtls-2.6.0/library\aes.c **** 
 204:C:/Users/lenovo/Desktop/liteos/Project2/BearPi_LiteOS/components/security/mbedtls/mbedtls-2.6.0/library\aes.c **** #define V(a,b,c,d) 0x##b##c##d##a
 205:C:/Users/lenovo/Desktop/liteos/Project2/BearPi_LiteOS/components/security/mbedtls/mbedtls-2.6.0/library\aes.c **** static const uint32_t FT1[256] = { FT };
 206:C:/Users/lenovo/Desktop/liteos/Project2/BearPi_LiteOS/components/security/mbedtls/mbedtls-2.6.0/library\aes.c **** #undef V
 207:C:/Users/lenovo/Desktop/liteos/Project2/BearPi_LiteOS/components/security/mbedtls/mbedtls-2.6.0/library\aes.c **** 
 208:C:/Users/lenovo/Desktop/liteos/Project2/BearPi_LiteOS/components/security/mbedtls/mbedtls-2.6.0/library\aes.c **** #define V(a,b,c,d) 0x##c##d##a##b
 209:C:/Users/lenovo/Desktop/liteos/Project2/BearPi_LiteOS/components/security/mbedtls/mbedtls-2.6.0/library\aes.c **** static const uint32_t FT2[256] = { FT };
 210:C:/Users/lenovo/Desktop/liteos/Project2/BearPi_LiteOS/components/security/mbedtls/mbedtls-2.6.0/library\aes.c **** #undef V
 211:C:/Users/lenovo/Desktop/liteos/Project2/BearPi_LiteOS/components/security/mbedtls/mbedtls-2.6.0/library\aes.c **** 
 212:C:/Users/lenovo/Desktop/liteos/Project2/BearPi_LiteOS/components/security/mbedtls/mbedtls-2.6.0/library\aes.c **** #define V(a,b,c,d) 0x##d##a##b##c
 213:C:/Users/lenovo/Desktop/liteos/Project2/BearPi_LiteOS/components/security/mbedtls/mbedtls-2.6.0/library\aes.c **** static const uint32_t FT3[256] = { FT };
 214:C:/Users/lenovo/Desktop/liteos/Project2/BearPi_LiteOS/components/security/mbedtls/mbedtls-2.6.0/library\aes.c **** #undef V
 215:C:/Users/lenovo/Desktop/liteos/Project2/BearPi_LiteOS/components/security/mbedtls/mbedtls-2.6.0/library\aes.c **** 
 216:C:/Users/lenovo/Desktop/liteos/Project2/BearPi_LiteOS/components/security/mbedtls/mbedtls-2.6.0/library\aes.c **** #undef FT
 217:C:/Users/lenovo/Desktop/liteos/Project2/BearPi_LiteOS/components/security/mbedtls/mbedtls-2.6.0/library\aes.c **** 
 218:C:/Users/lenovo/Desktop/liteos/Project2/BearPi_LiteOS/components/security/mbedtls/mbedtls-2.6.0/library\aes.c **** /*
 219:C:/Users/lenovo/Desktop/liteos/Project2/BearPi_LiteOS/components/security/mbedtls/mbedtls-2.6.0/library\aes.c ****  * Reverse S-box
 220:C:/Users/lenovo/Desktop/liteos/Project2/BearPi_LiteOS/components/security/mbedtls/mbedtls-2.6.0/library\aes.c ****  */
 221:C:/Users/lenovo/Desktop/liteos/Project2/BearPi_LiteOS/components/security/mbedtls/mbedtls-2.6.0/library\aes.c **** static const unsigned char RSb[256] =
 222:C:/Users/lenovo/Desktop/liteos/Project2/BearPi_LiteOS/components/security/mbedtls/mbedtls-2.6.0/library\aes.c **** {
 223:C:/Users/lenovo/Desktop/liteos/Project2/BearPi_LiteOS/components/security/mbedtls/mbedtls-2.6.0/library\aes.c ****     0x52, 0x09, 0x6A, 0xD5, 0x30, 0x36, 0xA5, 0x38,
 224:C:/Users/lenovo/Desktop/liteos/Project2/BearPi_LiteOS/components/security/mbedtls/mbedtls-2.6.0/library\aes.c ****     0xBF, 0x40, 0xA3, 0x9E, 0x81, 0xF3, 0xD7, 0xFB,
ARM GAS  c:\Users\lenovo\AppData\Local\Temp\ccpYsKo5.s 			page 6


 225:C:/Users/lenovo/Desktop/liteos/Project2/BearPi_LiteOS/components/security/mbedtls/mbedtls-2.6.0/library\aes.c ****     0x7C, 0xE3, 0x39, 0x82, 0x9B, 0x2F, 0xFF, 0x87,
 226:C:/Users/lenovo/Desktop/liteos/Project2/BearPi_LiteOS/components/security/mbedtls/mbedtls-2.6.0/library\aes.c ****     0x34, 0x8E, 0x43, 0x44, 0xC4, 0xDE, 0xE9, 0xCB,
 227:C:/Users/lenovo/Desktop/liteos/Project2/BearPi_LiteOS/components/security/mbedtls/mbedtls-2.6.0/library\aes.c ****     0x54, 0x7B, 0x94, 0x32, 0xA6, 0xC2, 0x23, 0x3D,
 228:C:/Users/lenovo/Desktop/liteos/Project2/BearPi_LiteOS/components/security/mbedtls/mbedtls-2.6.0/library\aes.c ****     0xEE, 0x4C, 0x95, 0x0B, 0x42, 0xFA, 0xC3, 0x4E,
 229:C:/Users/lenovo/Desktop/liteos/Project2/BearPi_LiteOS/components/security/mbedtls/mbedtls-2.6.0/library\aes.c ****     0x08, 0x2E, 0xA1, 0x66, 0x28, 0xD9, 0x24, 0xB2,
 230:C:/Users/lenovo/Desktop/liteos/Project2/BearPi_LiteOS/components/security/mbedtls/mbedtls-2.6.0/library\aes.c ****     0x76, 0x5B, 0xA2, 0x49, 0x6D, 0x8B, 0xD1, 0x25,
 231:C:/Users/lenovo/Desktop/liteos/Project2/BearPi_LiteOS/components/security/mbedtls/mbedtls-2.6.0/library\aes.c ****     0x72, 0xF8, 0xF6, 0x64, 0x86, 0x68, 0x98, 0x16,
 232:C:/Users/lenovo/Desktop/liteos/Project2/BearPi_LiteOS/components/security/mbedtls/mbedtls-2.6.0/library\aes.c ****     0xD4, 0xA4, 0x5C, 0xCC, 0x5D, 0x65, 0xB6, 0x92,
 233:C:/Users/lenovo/Desktop/liteos/Project2/BearPi_LiteOS/components/security/mbedtls/mbedtls-2.6.0/library\aes.c ****     0x6C, 0x70, 0x48, 0x50, 0xFD, 0xED, 0xB9, 0xDA,
 234:C:/Users/lenovo/Desktop/liteos/Project2/BearPi_LiteOS/components/security/mbedtls/mbedtls-2.6.0/library\aes.c ****     0x5E, 0x15, 0x46, 0x57, 0xA7, 0x8D, 0x9D, 0x84,
 235:C:/Users/lenovo/Desktop/liteos/Project2/BearPi_LiteOS/components/security/mbedtls/mbedtls-2.6.0/library\aes.c ****     0x90, 0xD8, 0xAB, 0x00, 0x8C, 0xBC, 0xD3, 0x0A,
 236:C:/Users/lenovo/Desktop/liteos/Project2/BearPi_LiteOS/components/security/mbedtls/mbedtls-2.6.0/library\aes.c ****     0xF7, 0xE4, 0x58, 0x05, 0xB8, 0xB3, 0x45, 0x06,
 237:C:/Users/lenovo/Desktop/liteos/Project2/BearPi_LiteOS/components/security/mbedtls/mbedtls-2.6.0/library\aes.c ****     0xD0, 0x2C, 0x1E, 0x8F, 0xCA, 0x3F, 0x0F, 0x02,
 238:C:/Users/lenovo/Desktop/liteos/Project2/BearPi_LiteOS/components/security/mbedtls/mbedtls-2.6.0/library\aes.c ****     0xC1, 0xAF, 0xBD, 0x03, 0x01, 0x13, 0x8A, 0x6B,
 239:C:/Users/lenovo/Desktop/liteos/Project2/BearPi_LiteOS/components/security/mbedtls/mbedtls-2.6.0/library\aes.c ****     0x3A, 0x91, 0x11, 0x41, 0x4F, 0x67, 0xDC, 0xEA,
 240:C:/Users/lenovo/Desktop/liteos/Project2/BearPi_LiteOS/components/security/mbedtls/mbedtls-2.6.0/library\aes.c ****     0x97, 0xF2, 0xCF, 0xCE, 0xF0, 0xB4, 0xE6, 0x73,
 241:C:/Users/lenovo/Desktop/liteos/Project2/BearPi_LiteOS/components/security/mbedtls/mbedtls-2.6.0/library\aes.c ****     0x96, 0xAC, 0x74, 0x22, 0xE7, 0xAD, 0x35, 0x85,
 242:C:/Users/lenovo/Desktop/liteos/Project2/BearPi_LiteOS/components/security/mbedtls/mbedtls-2.6.0/library\aes.c ****     0xE2, 0xF9, 0x37, 0xE8, 0x1C, 0x75, 0xDF, 0x6E,
 243:C:/Users/lenovo/Desktop/liteos/Project2/BearPi_LiteOS/components/security/mbedtls/mbedtls-2.6.0/library\aes.c ****     0x47, 0xF1, 0x1A, 0x71, 0x1D, 0x29, 0xC5, 0x89,
 244:C:/Users/lenovo/Desktop/liteos/Project2/BearPi_LiteOS/components/security/mbedtls/mbedtls-2.6.0/library\aes.c ****     0x6F, 0xB7, 0x62, 0x0E, 0xAA, 0x18, 0xBE, 0x1B,
 245:C:/Users/lenovo/Desktop/liteos/Project2/BearPi_LiteOS/components/security/mbedtls/mbedtls-2.6.0/library\aes.c ****     0xFC, 0x56, 0x3E, 0x4B, 0xC6, 0xD2, 0x79, 0x20,
 246:C:/Users/lenovo/Desktop/liteos/Project2/BearPi_LiteOS/components/security/mbedtls/mbedtls-2.6.0/library\aes.c ****     0x9A, 0xDB, 0xC0, 0xFE, 0x78, 0xCD, 0x5A, 0xF4,
 247:C:/Users/lenovo/Desktop/liteos/Project2/BearPi_LiteOS/components/security/mbedtls/mbedtls-2.6.0/library\aes.c ****     0x1F, 0xDD, 0xA8, 0x33, 0x88, 0x07, 0xC7, 0x31,
 248:C:/Users/lenovo/Desktop/liteos/Project2/BearPi_LiteOS/components/security/mbedtls/mbedtls-2.6.0/library\aes.c ****     0xB1, 0x12, 0x10, 0x59, 0x27, 0x80, 0xEC, 0x5F,
 249:C:/Users/lenovo/Desktop/liteos/Project2/BearPi_LiteOS/components/security/mbedtls/mbedtls-2.6.0/library\aes.c ****     0x60, 0x51, 0x7F, 0xA9, 0x19, 0xB5, 0x4A, 0x0D,
 250:C:/Users/lenovo/Desktop/liteos/Project2/BearPi_LiteOS/components/security/mbedtls/mbedtls-2.6.0/library\aes.c ****     0x2D, 0xE5, 0x7A, 0x9F, 0x93, 0xC9, 0x9C, 0xEF,
 251:C:/Users/lenovo/Desktop/liteos/Project2/BearPi_LiteOS/components/security/mbedtls/mbedtls-2.6.0/library\aes.c ****     0xA0, 0xE0, 0x3B, 0x4D, 0xAE, 0x2A, 0xF5, 0xB0,
 252:C:/Users/lenovo/Desktop/liteos/Project2/BearPi_LiteOS/components/security/mbedtls/mbedtls-2.6.0/library\aes.c ****     0xC8, 0xEB, 0xBB, 0x3C, 0x83, 0x53, 0x99, 0x61,
 253:C:/Users/lenovo/Desktop/liteos/Project2/BearPi_LiteOS/components/security/mbedtls/mbedtls-2.6.0/library\aes.c ****     0x17, 0x2B, 0x04, 0x7E, 0xBA, 0x77, 0xD6, 0x26,
 254:C:/Users/lenovo/Desktop/liteos/Project2/BearPi_LiteOS/components/security/mbedtls/mbedtls-2.6.0/library\aes.c ****     0xE1, 0x69, 0x14, 0x63, 0x55, 0x21, 0x0C, 0x7D
 255:C:/Users/lenovo/Desktop/liteos/Project2/BearPi_LiteOS/components/security/mbedtls/mbedtls-2.6.0/library\aes.c **** };
 256:C:/Users/lenovo/Desktop/liteos/Project2/BearPi_LiteOS/components/security/mbedtls/mbedtls-2.6.0/library\aes.c **** 
 257:C:/Users/lenovo/Desktop/liteos/Project2/BearPi_LiteOS/components/security/mbedtls/mbedtls-2.6.0/library\aes.c **** /*
 258:C:/Users/lenovo/Desktop/liteos/Project2/BearPi_LiteOS/components/security/mbedtls/mbedtls-2.6.0/library\aes.c ****  * Reverse tables
 259:C:/Users/lenovo/Desktop/liteos/Project2/BearPi_LiteOS/components/security/mbedtls/mbedtls-2.6.0/library\aes.c ****  */
 260:C:/Users/lenovo/Desktop/liteos/Project2/BearPi_LiteOS/components/security/mbedtls/mbedtls-2.6.0/library\aes.c **** #define RT \
 261:C:/Users/lenovo/Desktop/liteos/Project2/BearPi_LiteOS/components/security/mbedtls/mbedtls-2.6.0/library\aes.c **** \
 262:C:/Users/lenovo/Desktop/liteos/Project2/BearPi_LiteOS/components/security/mbedtls/mbedtls-2.6.0/library\aes.c ****     V(50,A7,F4,51), V(53,65,41,7E), V(C3,A4,17,1A), V(96,5E,27,3A), \
 263:C:/Users/lenovo/Desktop/liteos/Project2/BearPi_LiteOS/components/security/mbedtls/mbedtls-2.6.0/library\aes.c ****     V(CB,6B,AB,3B), V(F1,45,9D,1F), V(AB,58,FA,AC), V(93,03,E3,4B), \
 264:C:/Users/lenovo/Desktop/liteos/Project2/BearPi_LiteOS/components/security/mbedtls/mbedtls-2.6.0/library\aes.c ****     V(55,FA,30,20), V(F6,6D,76,AD), V(91,76,CC,88), V(25,4C,02,F5), \
 265:C:/Users/lenovo/Desktop/liteos/Project2/BearPi_LiteOS/components/security/mbedtls/mbedtls-2.6.0/library\aes.c ****     V(FC,D7,E5,4F), V(D7,CB,2A,C5), V(80,44,35,26), V(8F,A3,62,B5), \
 266:C:/Users/lenovo/Desktop/liteos/Project2/BearPi_LiteOS/components/security/mbedtls/mbedtls-2.6.0/library\aes.c ****     V(49,5A,B1,DE), V(67,1B,BA,25), V(98,0E,EA,45), V(E1,C0,FE,5D), \
 267:C:/Users/lenovo/Desktop/liteos/Project2/BearPi_LiteOS/components/security/mbedtls/mbedtls-2.6.0/library\aes.c ****     V(02,75,2F,C3), V(12,F0,4C,81), V(A3,97,46,8D), V(C6,F9,D3,6B), \
 268:C:/Users/lenovo/Desktop/liteos/Project2/BearPi_LiteOS/components/security/mbedtls/mbedtls-2.6.0/library\aes.c ****     V(E7,5F,8F,03), V(95,9C,92,15), V(EB,7A,6D,BF), V(DA,59,52,95), \
 269:C:/Users/lenovo/Desktop/liteos/Project2/BearPi_LiteOS/components/security/mbedtls/mbedtls-2.6.0/library\aes.c ****     V(2D,83,BE,D4), V(D3,21,74,58), V(29,69,E0,49), V(44,C8,C9,8E), \
 270:C:/Users/lenovo/Desktop/liteos/Project2/BearPi_LiteOS/components/security/mbedtls/mbedtls-2.6.0/library\aes.c ****     V(6A,89,C2,75), V(78,79,8E,F4), V(6B,3E,58,99), V(DD,71,B9,27), \
 271:C:/Users/lenovo/Desktop/liteos/Project2/BearPi_LiteOS/components/security/mbedtls/mbedtls-2.6.0/library\aes.c ****     V(B6,4F,E1,BE), V(17,AD,88,F0), V(66,AC,20,C9), V(B4,3A,CE,7D), \
 272:C:/Users/lenovo/Desktop/liteos/Project2/BearPi_LiteOS/components/security/mbedtls/mbedtls-2.6.0/library\aes.c ****     V(18,4A,DF,63), V(82,31,1A,E5), V(60,33,51,97), V(45,7F,53,62), \
 273:C:/Users/lenovo/Desktop/liteos/Project2/BearPi_LiteOS/components/security/mbedtls/mbedtls-2.6.0/library\aes.c ****     V(E0,77,64,B1), V(84,AE,6B,BB), V(1C,A0,81,FE), V(94,2B,08,F9), \
 274:C:/Users/lenovo/Desktop/liteos/Project2/BearPi_LiteOS/components/security/mbedtls/mbedtls-2.6.0/library\aes.c ****     V(58,68,48,70), V(19,FD,45,8F), V(87,6C,DE,94), V(B7,F8,7B,52), \
 275:C:/Users/lenovo/Desktop/liteos/Project2/BearPi_LiteOS/components/security/mbedtls/mbedtls-2.6.0/library\aes.c ****     V(23,D3,73,AB), V(E2,02,4B,72), V(57,8F,1F,E3), V(2A,AB,55,66), \
 276:C:/Users/lenovo/Desktop/liteos/Project2/BearPi_LiteOS/components/security/mbedtls/mbedtls-2.6.0/library\aes.c ****     V(07,28,EB,B2), V(03,C2,B5,2F), V(9A,7B,C5,86), V(A5,08,37,D3), \
 277:C:/Users/lenovo/Desktop/liteos/Project2/BearPi_LiteOS/components/security/mbedtls/mbedtls-2.6.0/library\aes.c ****     V(F2,87,28,30), V(B2,A5,BF,23), V(BA,6A,03,02), V(5C,82,16,ED), \
 278:C:/Users/lenovo/Desktop/liteos/Project2/BearPi_LiteOS/components/security/mbedtls/mbedtls-2.6.0/library\aes.c ****     V(2B,1C,CF,8A), V(92,B4,79,A7), V(F0,F2,07,F3), V(A1,E2,69,4E), \
 279:C:/Users/lenovo/Desktop/liteos/Project2/BearPi_LiteOS/components/security/mbedtls/mbedtls-2.6.0/library\aes.c ****     V(CD,F4,DA,65), V(D5,BE,05,06), V(1F,62,34,D1), V(8A,FE,A6,C4), \
 280:C:/Users/lenovo/Desktop/liteos/Project2/BearPi_LiteOS/components/security/mbedtls/mbedtls-2.6.0/library\aes.c ****     V(9D,53,2E,34), V(A0,55,F3,A2), V(32,E1,8A,05), V(75,EB,F6,A4), \
 281:C:/Users/lenovo/Desktop/liteos/Project2/BearPi_LiteOS/components/security/mbedtls/mbedtls-2.6.0/library\aes.c ****     V(39,EC,83,0B), V(AA,EF,60,40), V(06,9F,71,5E), V(51,10,6E,BD), \
ARM GAS  c:\Users\lenovo\AppData\Local\Temp\ccpYsKo5.s 			page 7


 282:C:/Users/lenovo/Desktop/liteos/Project2/BearPi_LiteOS/components/security/mbedtls/mbedtls-2.6.0/library\aes.c ****     V(F9,8A,21,3E), V(3D,06,DD,96), V(AE,05,3E,DD), V(46,BD,E6,4D), \
 283:C:/Users/lenovo/Desktop/liteos/Project2/BearPi_LiteOS/components/security/mbedtls/mbedtls-2.6.0/library\aes.c ****     V(B5,8D,54,91), V(05,5D,C4,71), V(6F,D4,06,04), V(FF,15,50,60), \
 284:C:/Users/lenovo/Desktop/liteos/Project2/BearPi_LiteOS/components/security/mbedtls/mbedtls-2.6.0/library\aes.c ****     V(24,FB,98,19), V(97,E9,BD,D6), V(CC,43,40,89), V(77,9E,D9,67), \
 285:C:/Users/lenovo/Desktop/liteos/Project2/BearPi_LiteOS/components/security/mbedtls/mbedtls-2.6.0/library\aes.c ****     V(BD,42,E8,B0), V(88,8B,89,07), V(38,5B,19,E7), V(DB,EE,C8,79), \
 286:C:/Users/lenovo/Desktop/liteos/Project2/BearPi_LiteOS/components/security/mbedtls/mbedtls-2.6.0/library\aes.c ****     V(47,0A,7C,A1), V(E9,0F,42,7C), V(C9,1E,84,F8), V(00,00,00,00), \
 287:C:/Users/lenovo/Desktop/liteos/Project2/BearPi_LiteOS/components/security/mbedtls/mbedtls-2.6.0/library\aes.c ****     V(83,86,80,09), V(48,ED,2B,32), V(AC,70,11,1E), V(4E,72,5A,6C), \
 288:C:/Users/lenovo/Desktop/liteos/Project2/BearPi_LiteOS/components/security/mbedtls/mbedtls-2.6.0/library\aes.c ****     V(FB,FF,0E,FD), V(56,38,85,0F), V(1E,D5,AE,3D), V(27,39,2D,36), \
 289:C:/Users/lenovo/Desktop/liteos/Project2/BearPi_LiteOS/components/security/mbedtls/mbedtls-2.6.0/library\aes.c ****     V(64,D9,0F,0A), V(21,A6,5C,68), V(D1,54,5B,9B), V(3A,2E,36,24), \
 290:C:/Users/lenovo/Desktop/liteos/Project2/BearPi_LiteOS/components/security/mbedtls/mbedtls-2.6.0/library\aes.c ****     V(B1,67,0A,0C), V(0F,E7,57,93), V(D2,96,EE,B4), V(9E,91,9B,1B), \
 291:C:/Users/lenovo/Desktop/liteos/Project2/BearPi_LiteOS/components/security/mbedtls/mbedtls-2.6.0/library\aes.c ****     V(4F,C5,C0,80), V(A2,20,DC,61), V(69,4B,77,5A), V(16,1A,12,1C), \
 292:C:/Users/lenovo/Desktop/liteos/Project2/BearPi_LiteOS/components/security/mbedtls/mbedtls-2.6.0/library\aes.c ****     V(0A,BA,93,E2), V(E5,2A,A0,C0), V(43,E0,22,3C), V(1D,17,1B,12), \
 293:C:/Users/lenovo/Desktop/liteos/Project2/BearPi_LiteOS/components/security/mbedtls/mbedtls-2.6.0/library\aes.c ****     V(0B,0D,09,0E), V(AD,C7,8B,F2), V(B9,A8,B6,2D), V(C8,A9,1E,14), \
 294:C:/Users/lenovo/Desktop/liteos/Project2/BearPi_LiteOS/components/security/mbedtls/mbedtls-2.6.0/library\aes.c ****     V(85,19,F1,57), V(4C,07,75,AF), V(BB,DD,99,EE), V(FD,60,7F,A3), \
 295:C:/Users/lenovo/Desktop/liteos/Project2/BearPi_LiteOS/components/security/mbedtls/mbedtls-2.6.0/library\aes.c ****     V(9F,26,01,F7), V(BC,F5,72,5C), V(C5,3B,66,44), V(34,7E,FB,5B), \
 296:C:/Users/lenovo/Desktop/liteos/Project2/BearPi_LiteOS/components/security/mbedtls/mbedtls-2.6.0/library\aes.c ****     V(76,29,43,8B), V(DC,C6,23,CB), V(68,FC,ED,B6), V(63,F1,E4,B8), \
 297:C:/Users/lenovo/Desktop/liteos/Project2/BearPi_LiteOS/components/security/mbedtls/mbedtls-2.6.0/library\aes.c ****     V(CA,DC,31,D7), V(10,85,63,42), V(40,22,97,13), V(20,11,C6,84), \
 298:C:/Users/lenovo/Desktop/liteos/Project2/BearPi_LiteOS/components/security/mbedtls/mbedtls-2.6.0/library\aes.c ****     V(7D,24,4A,85), V(F8,3D,BB,D2), V(11,32,F9,AE), V(6D,A1,29,C7), \
 299:C:/Users/lenovo/Desktop/liteos/Project2/BearPi_LiteOS/components/security/mbedtls/mbedtls-2.6.0/library\aes.c ****     V(4B,2F,9E,1D), V(F3,30,B2,DC), V(EC,52,86,0D), V(D0,E3,C1,77), \
 300:C:/Users/lenovo/Desktop/liteos/Project2/BearPi_LiteOS/components/security/mbedtls/mbedtls-2.6.0/library\aes.c ****     V(6C,16,B3,2B), V(99,B9,70,A9), V(FA,48,94,11), V(22,64,E9,47), \
 301:C:/Users/lenovo/Desktop/liteos/Project2/BearPi_LiteOS/components/security/mbedtls/mbedtls-2.6.0/library\aes.c ****     V(C4,8C,FC,A8), V(1A,3F,F0,A0), V(D8,2C,7D,56), V(EF,90,33,22), \
 302:C:/Users/lenovo/Desktop/liteos/Project2/BearPi_LiteOS/components/security/mbedtls/mbedtls-2.6.0/library\aes.c ****     V(C7,4E,49,87), V(C1,D1,38,D9), V(FE,A2,CA,8C), V(36,0B,D4,98), \
 303:C:/Users/lenovo/Desktop/liteos/Project2/BearPi_LiteOS/components/security/mbedtls/mbedtls-2.6.0/library\aes.c ****     V(CF,81,F5,A6), V(28,DE,7A,A5), V(26,8E,B7,DA), V(A4,BF,AD,3F), \
 304:C:/Users/lenovo/Desktop/liteos/Project2/BearPi_LiteOS/components/security/mbedtls/mbedtls-2.6.0/library\aes.c ****     V(E4,9D,3A,2C), V(0D,92,78,50), V(9B,CC,5F,6A), V(62,46,7E,54), \
 305:C:/Users/lenovo/Desktop/liteos/Project2/BearPi_LiteOS/components/security/mbedtls/mbedtls-2.6.0/library\aes.c ****     V(C2,13,8D,F6), V(E8,B8,D8,90), V(5E,F7,39,2E), V(F5,AF,C3,82), \
 306:C:/Users/lenovo/Desktop/liteos/Project2/BearPi_LiteOS/components/security/mbedtls/mbedtls-2.6.0/library\aes.c ****     V(BE,80,5D,9F), V(7C,93,D0,69), V(A9,2D,D5,6F), V(B3,12,25,CF), \
 307:C:/Users/lenovo/Desktop/liteos/Project2/BearPi_LiteOS/components/security/mbedtls/mbedtls-2.6.0/library\aes.c ****     V(3B,99,AC,C8), V(A7,7D,18,10), V(6E,63,9C,E8), V(7B,BB,3B,DB), \
 308:C:/Users/lenovo/Desktop/liteos/Project2/BearPi_LiteOS/components/security/mbedtls/mbedtls-2.6.0/library\aes.c ****     V(09,78,26,CD), V(F4,18,59,6E), V(01,B7,9A,EC), V(A8,9A,4F,83), \
 309:C:/Users/lenovo/Desktop/liteos/Project2/BearPi_LiteOS/components/security/mbedtls/mbedtls-2.6.0/library\aes.c ****     V(65,6E,95,E6), V(7E,E6,FF,AA), V(08,CF,BC,21), V(E6,E8,15,EF), \
 310:C:/Users/lenovo/Desktop/liteos/Project2/BearPi_LiteOS/components/security/mbedtls/mbedtls-2.6.0/library\aes.c ****     V(D9,9B,E7,BA), V(CE,36,6F,4A), V(D4,09,9F,EA), V(D6,7C,B0,29), \
 311:C:/Users/lenovo/Desktop/liteos/Project2/BearPi_LiteOS/components/security/mbedtls/mbedtls-2.6.0/library\aes.c ****     V(AF,B2,A4,31), V(31,23,3F,2A), V(30,94,A5,C6), V(C0,66,A2,35), \
 312:C:/Users/lenovo/Desktop/liteos/Project2/BearPi_LiteOS/components/security/mbedtls/mbedtls-2.6.0/library\aes.c ****     V(37,BC,4E,74), V(A6,CA,82,FC), V(B0,D0,90,E0), V(15,D8,A7,33), \
 313:C:/Users/lenovo/Desktop/liteos/Project2/BearPi_LiteOS/components/security/mbedtls/mbedtls-2.6.0/library\aes.c ****     V(4A,98,04,F1), V(F7,DA,EC,41), V(0E,50,CD,7F), V(2F,F6,91,17), \
 314:C:/Users/lenovo/Desktop/liteos/Project2/BearPi_LiteOS/components/security/mbedtls/mbedtls-2.6.0/library\aes.c ****     V(8D,D6,4D,76), V(4D,B0,EF,43), V(54,4D,AA,CC), V(DF,04,96,E4), \
 315:C:/Users/lenovo/Desktop/liteos/Project2/BearPi_LiteOS/components/security/mbedtls/mbedtls-2.6.0/library\aes.c ****     V(E3,B5,D1,9E), V(1B,88,6A,4C), V(B8,1F,2C,C1), V(7F,51,65,46), \
 316:C:/Users/lenovo/Desktop/liteos/Project2/BearPi_LiteOS/components/security/mbedtls/mbedtls-2.6.0/library\aes.c ****     V(04,EA,5E,9D), V(5D,35,8C,01), V(73,74,87,FA), V(2E,41,0B,FB), \
 317:C:/Users/lenovo/Desktop/liteos/Project2/BearPi_LiteOS/components/security/mbedtls/mbedtls-2.6.0/library\aes.c ****     V(5A,1D,67,B3), V(52,D2,DB,92), V(33,56,10,E9), V(13,47,D6,6D), \
 318:C:/Users/lenovo/Desktop/liteos/Project2/BearPi_LiteOS/components/security/mbedtls/mbedtls-2.6.0/library\aes.c ****     V(8C,61,D7,9A), V(7A,0C,A1,37), V(8E,14,F8,59), V(89,3C,13,EB), \
 319:C:/Users/lenovo/Desktop/liteos/Project2/BearPi_LiteOS/components/security/mbedtls/mbedtls-2.6.0/library\aes.c ****     V(EE,27,A9,CE), V(35,C9,61,B7), V(ED,E5,1C,E1), V(3C,B1,47,7A), \
 320:C:/Users/lenovo/Desktop/liteos/Project2/BearPi_LiteOS/components/security/mbedtls/mbedtls-2.6.0/library\aes.c ****     V(59,DF,D2,9C), V(3F,73,F2,55), V(79,CE,14,18), V(BF,37,C7,73), \
 321:C:/Users/lenovo/Desktop/liteos/Project2/BearPi_LiteOS/components/security/mbedtls/mbedtls-2.6.0/library\aes.c ****     V(EA,CD,F7,53), V(5B,AA,FD,5F), V(14,6F,3D,DF), V(86,DB,44,78), \
 322:C:/Users/lenovo/Desktop/liteos/Project2/BearPi_LiteOS/components/security/mbedtls/mbedtls-2.6.0/library\aes.c ****     V(81,F3,AF,CA), V(3E,C4,68,B9), V(2C,34,24,38), V(5F,40,A3,C2), \
 323:C:/Users/lenovo/Desktop/liteos/Project2/BearPi_LiteOS/components/security/mbedtls/mbedtls-2.6.0/library\aes.c ****     V(72,C3,1D,16), V(0C,25,E2,BC), V(8B,49,3C,28), V(41,95,0D,FF), \
 324:C:/Users/lenovo/Desktop/liteos/Project2/BearPi_LiteOS/components/security/mbedtls/mbedtls-2.6.0/library\aes.c ****     V(71,01,A8,39), V(DE,B3,0C,08), V(9C,E4,B4,D8), V(90,C1,56,64), \
 325:C:/Users/lenovo/Desktop/liteos/Project2/BearPi_LiteOS/components/security/mbedtls/mbedtls-2.6.0/library\aes.c ****     V(61,84,CB,7B), V(70,B6,32,D5), V(74,5C,6C,48), V(42,57,B8,D0)
 326:C:/Users/lenovo/Desktop/liteos/Project2/BearPi_LiteOS/components/security/mbedtls/mbedtls-2.6.0/library\aes.c **** 
 327:C:/Users/lenovo/Desktop/liteos/Project2/BearPi_LiteOS/components/security/mbedtls/mbedtls-2.6.0/library\aes.c **** #define V(a,b,c,d) 0x##a##b##c##d
 328:C:/Users/lenovo/Desktop/liteos/Project2/BearPi_LiteOS/components/security/mbedtls/mbedtls-2.6.0/library\aes.c **** static const uint32_t RT0[256] = { RT };
 329:C:/Users/lenovo/Desktop/liteos/Project2/BearPi_LiteOS/components/security/mbedtls/mbedtls-2.6.0/library\aes.c **** #undef V
 330:C:/Users/lenovo/Desktop/liteos/Project2/BearPi_LiteOS/components/security/mbedtls/mbedtls-2.6.0/library\aes.c **** 
 331:C:/Users/lenovo/Desktop/liteos/Project2/BearPi_LiteOS/components/security/mbedtls/mbedtls-2.6.0/library\aes.c **** #define V(a,b,c,d) 0x##b##c##d##a
 332:C:/Users/lenovo/Desktop/liteos/Project2/BearPi_LiteOS/components/security/mbedtls/mbedtls-2.6.0/library\aes.c **** static const uint32_t RT1[256] = { RT };
 333:C:/Users/lenovo/Desktop/liteos/Project2/BearPi_LiteOS/components/security/mbedtls/mbedtls-2.6.0/library\aes.c **** #undef V
 334:C:/Users/lenovo/Desktop/liteos/Project2/BearPi_LiteOS/components/security/mbedtls/mbedtls-2.6.0/library\aes.c **** 
 335:C:/Users/lenovo/Desktop/liteos/Project2/BearPi_LiteOS/components/security/mbedtls/mbedtls-2.6.0/library\aes.c **** #define V(a,b,c,d) 0x##c##d##a##b
 336:C:/Users/lenovo/Desktop/liteos/Project2/BearPi_LiteOS/components/security/mbedtls/mbedtls-2.6.0/library\aes.c **** static const uint32_t RT2[256] = { RT };
 337:C:/Users/lenovo/Desktop/liteos/Project2/BearPi_LiteOS/components/security/mbedtls/mbedtls-2.6.0/library\aes.c **** #undef V
 338:C:/Users/lenovo/Desktop/liteos/Project2/BearPi_LiteOS/components/security/mbedtls/mbedtls-2.6.0/library\aes.c **** 
ARM GAS  c:\Users\lenovo\AppData\Local\Temp\ccpYsKo5.s 			page 8


 339:C:/Users/lenovo/Desktop/liteos/Project2/BearPi_LiteOS/components/security/mbedtls/mbedtls-2.6.0/library\aes.c **** #define V(a,b,c,d) 0x##d##a##b##c
 340:C:/Users/lenovo/Desktop/liteos/Project2/BearPi_LiteOS/components/security/mbedtls/mbedtls-2.6.0/library\aes.c **** static const uint32_t RT3[256] = { RT };
 341:C:/Users/lenovo/Desktop/liteos/Project2/BearPi_LiteOS/components/security/mbedtls/mbedtls-2.6.0/library\aes.c **** #undef V
 342:C:/Users/lenovo/Desktop/liteos/Project2/BearPi_LiteOS/components/security/mbedtls/mbedtls-2.6.0/library\aes.c **** 
 343:C:/Users/lenovo/Desktop/liteos/Project2/BearPi_LiteOS/components/security/mbedtls/mbedtls-2.6.0/library\aes.c **** #undef RT
 344:C:/Users/lenovo/Desktop/liteos/Project2/BearPi_LiteOS/components/security/mbedtls/mbedtls-2.6.0/library\aes.c **** 
 345:C:/Users/lenovo/Desktop/liteos/Project2/BearPi_LiteOS/components/security/mbedtls/mbedtls-2.6.0/library\aes.c **** /*
 346:C:/Users/lenovo/Desktop/liteos/Project2/BearPi_LiteOS/components/security/mbedtls/mbedtls-2.6.0/library\aes.c ****  * Round constants
 347:C:/Users/lenovo/Desktop/liteos/Project2/BearPi_LiteOS/components/security/mbedtls/mbedtls-2.6.0/library\aes.c ****  */
 348:C:/Users/lenovo/Desktop/liteos/Project2/BearPi_LiteOS/components/security/mbedtls/mbedtls-2.6.0/library\aes.c **** static const uint32_t RCON[10] =
 349:C:/Users/lenovo/Desktop/liteos/Project2/BearPi_LiteOS/components/security/mbedtls/mbedtls-2.6.0/library\aes.c **** {
 350:C:/Users/lenovo/Desktop/liteos/Project2/BearPi_LiteOS/components/security/mbedtls/mbedtls-2.6.0/library\aes.c ****     0x00000001, 0x00000002, 0x00000004, 0x00000008,
 351:C:/Users/lenovo/Desktop/liteos/Project2/BearPi_LiteOS/components/security/mbedtls/mbedtls-2.6.0/library\aes.c ****     0x00000010, 0x00000020, 0x00000040, 0x00000080,
 352:C:/Users/lenovo/Desktop/liteos/Project2/BearPi_LiteOS/components/security/mbedtls/mbedtls-2.6.0/library\aes.c ****     0x0000001B, 0x00000036
 353:C:/Users/lenovo/Desktop/liteos/Project2/BearPi_LiteOS/components/security/mbedtls/mbedtls-2.6.0/library\aes.c **** };
 354:C:/Users/lenovo/Desktop/liteos/Project2/BearPi_LiteOS/components/security/mbedtls/mbedtls-2.6.0/library\aes.c **** 
 355:C:/Users/lenovo/Desktop/liteos/Project2/BearPi_LiteOS/components/security/mbedtls/mbedtls-2.6.0/library\aes.c **** #else /* MBEDTLS_AES_ROM_TABLES */
 356:C:/Users/lenovo/Desktop/liteos/Project2/BearPi_LiteOS/components/security/mbedtls/mbedtls-2.6.0/library\aes.c **** 
 357:C:/Users/lenovo/Desktop/liteos/Project2/BearPi_LiteOS/components/security/mbedtls/mbedtls-2.6.0/library\aes.c **** /*
 358:C:/Users/lenovo/Desktop/liteos/Project2/BearPi_LiteOS/components/security/mbedtls/mbedtls-2.6.0/library\aes.c ****  * Forward S-box & tables
 359:C:/Users/lenovo/Desktop/liteos/Project2/BearPi_LiteOS/components/security/mbedtls/mbedtls-2.6.0/library\aes.c ****  */
 360:C:/Users/lenovo/Desktop/liteos/Project2/BearPi_LiteOS/components/security/mbedtls/mbedtls-2.6.0/library\aes.c **** static unsigned char FSb[256];
 361:C:/Users/lenovo/Desktop/liteos/Project2/BearPi_LiteOS/components/security/mbedtls/mbedtls-2.6.0/library\aes.c **** static uint32_t FT0[256];
 362:C:/Users/lenovo/Desktop/liteos/Project2/BearPi_LiteOS/components/security/mbedtls/mbedtls-2.6.0/library\aes.c **** static uint32_t FT1[256];
 363:C:/Users/lenovo/Desktop/liteos/Project2/BearPi_LiteOS/components/security/mbedtls/mbedtls-2.6.0/library\aes.c **** static uint32_t FT2[256];
 364:C:/Users/lenovo/Desktop/liteos/Project2/BearPi_LiteOS/components/security/mbedtls/mbedtls-2.6.0/library\aes.c **** static uint32_t FT3[256];
 365:C:/Users/lenovo/Desktop/liteos/Project2/BearPi_LiteOS/components/security/mbedtls/mbedtls-2.6.0/library\aes.c **** 
 366:C:/Users/lenovo/Desktop/liteos/Project2/BearPi_LiteOS/components/security/mbedtls/mbedtls-2.6.0/library\aes.c **** /*
 367:C:/Users/lenovo/Desktop/liteos/Project2/BearPi_LiteOS/components/security/mbedtls/mbedtls-2.6.0/library\aes.c ****  * Reverse S-box & tables
 368:C:/Users/lenovo/Desktop/liteos/Project2/BearPi_LiteOS/components/security/mbedtls/mbedtls-2.6.0/library\aes.c ****  */
 369:C:/Users/lenovo/Desktop/liteos/Project2/BearPi_LiteOS/components/security/mbedtls/mbedtls-2.6.0/library\aes.c **** static unsigned char RSb[256];
 370:C:/Users/lenovo/Desktop/liteos/Project2/BearPi_LiteOS/components/security/mbedtls/mbedtls-2.6.0/library\aes.c **** static uint32_t RT0[256];
 371:C:/Users/lenovo/Desktop/liteos/Project2/BearPi_LiteOS/components/security/mbedtls/mbedtls-2.6.0/library\aes.c **** static uint32_t RT1[256];
 372:C:/Users/lenovo/Desktop/liteos/Project2/BearPi_LiteOS/components/security/mbedtls/mbedtls-2.6.0/library\aes.c **** static uint32_t RT2[256];
 373:C:/Users/lenovo/Desktop/liteos/Project2/BearPi_LiteOS/components/security/mbedtls/mbedtls-2.6.0/library\aes.c **** static uint32_t RT3[256];
 374:C:/Users/lenovo/Desktop/liteos/Project2/BearPi_LiteOS/components/security/mbedtls/mbedtls-2.6.0/library\aes.c **** 
 375:C:/Users/lenovo/Desktop/liteos/Project2/BearPi_LiteOS/components/security/mbedtls/mbedtls-2.6.0/library\aes.c **** /*
 376:C:/Users/lenovo/Desktop/liteos/Project2/BearPi_LiteOS/components/security/mbedtls/mbedtls-2.6.0/library\aes.c ****  * Round constants
 377:C:/Users/lenovo/Desktop/liteos/Project2/BearPi_LiteOS/components/security/mbedtls/mbedtls-2.6.0/library\aes.c ****  */
 378:C:/Users/lenovo/Desktop/liteos/Project2/BearPi_LiteOS/components/security/mbedtls/mbedtls-2.6.0/library\aes.c **** static uint32_t RCON[10];
 379:C:/Users/lenovo/Desktop/liteos/Project2/BearPi_LiteOS/components/security/mbedtls/mbedtls-2.6.0/library\aes.c **** 
 380:C:/Users/lenovo/Desktop/liteos/Project2/BearPi_LiteOS/components/security/mbedtls/mbedtls-2.6.0/library\aes.c **** /*
 381:C:/Users/lenovo/Desktop/liteos/Project2/BearPi_LiteOS/components/security/mbedtls/mbedtls-2.6.0/library\aes.c ****  * Tables generation code
 382:C:/Users/lenovo/Desktop/liteos/Project2/BearPi_LiteOS/components/security/mbedtls/mbedtls-2.6.0/library\aes.c ****  */
 383:C:/Users/lenovo/Desktop/liteos/Project2/BearPi_LiteOS/components/security/mbedtls/mbedtls-2.6.0/library\aes.c **** #define ROTL8(x) ( ( x << 8 ) & 0xFFFFFFFF ) | ( x >> 24 )
 384:C:/Users/lenovo/Desktop/liteos/Project2/BearPi_LiteOS/components/security/mbedtls/mbedtls-2.6.0/library\aes.c **** #define XTIME(x) ( ( x << 1 ) ^ ( ( x & 0x80 ) ? 0x1B : 0x00 ) )
 385:C:/Users/lenovo/Desktop/liteos/Project2/BearPi_LiteOS/components/security/mbedtls/mbedtls-2.6.0/library\aes.c **** #define MUL(x,y) ( ( x && y ) ? pow[(log[x]+log[y]) % 255] : 0 )
 386:C:/Users/lenovo/Desktop/liteos/Project2/BearPi_LiteOS/components/security/mbedtls/mbedtls-2.6.0/library\aes.c **** 
 387:C:/Users/lenovo/Desktop/liteos/Project2/BearPi_LiteOS/components/security/mbedtls/mbedtls-2.6.0/library\aes.c **** static int aes_init_done = 0;
 388:C:/Users/lenovo/Desktop/liteos/Project2/BearPi_LiteOS/components/security/mbedtls/mbedtls-2.6.0/library\aes.c **** 
 389:C:/Users/lenovo/Desktop/liteos/Project2/BearPi_LiteOS/components/security/mbedtls/mbedtls-2.6.0/library\aes.c **** static void aes_gen_tables( void )
 390:C:/Users/lenovo/Desktop/liteos/Project2/BearPi_LiteOS/components/security/mbedtls/mbedtls-2.6.0/library\aes.c **** {
 391:C:/Users/lenovo/Desktop/liteos/Project2/BearPi_LiteOS/components/security/mbedtls/mbedtls-2.6.0/library\aes.c ****     int i, x, y, z;
 392:C:/Users/lenovo/Desktop/liteos/Project2/BearPi_LiteOS/components/security/mbedtls/mbedtls-2.6.0/library\aes.c ****     int pow[256];
 393:C:/Users/lenovo/Desktop/liteos/Project2/BearPi_LiteOS/components/security/mbedtls/mbedtls-2.6.0/library\aes.c ****     int log[256];
 394:C:/Users/lenovo/Desktop/liteos/Project2/BearPi_LiteOS/components/security/mbedtls/mbedtls-2.6.0/library\aes.c **** 
 395:C:/Users/lenovo/Desktop/liteos/Project2/BearPi_LiteOS/components/security/mbedtls/mbedtls-2.6.0/library\aes.c ****     /*
ARM GAS  c:\Users\lenovo\AppData\Local\Temp\ccpYsKo5.s 			page 9


 396:C:/Users/lenovo/Desktop/liteos/Project2/BearPi_LiteOS/components/security/mbedtls/mbedtls-2.6.0/library\aes.c ****      * compute pow and log tables over GF(2^8)
 397:C:/Users/lenovo/Desktop/liteos/Project2/BearPi_LiteOS/components/security/mbedtls/mbedtls-2.6.0/library\aes.c ****      */
 398:C:/Users/lenovo/Desktop/liteos/Project2/BearPi_LiteOS/components/security/mbedtls/mbedtls-2.6.0/library\aes.c ****     for( i = 0, x = 1; i < 256; i++ )
 399:C:/Users/lenovo/Desktop/liteos/Project2/BearPi_LiteOS/components/security/mbedtls/mbedtls-2.6.0/library\aes.c ****     {
 400:C:/Users/lenovo/Desktop/liteos/Project2/BearPi_LiteOS/components/security/mbedtls/mbedtls-2.6.0/library\aes.c ****         pow[i] = x;
 401:C:/Users/lenovo/Desktop/liteos/Project2/BearPi_LiteOS/components/security/mbedtls/mbedtls-2.6.0/library\aes.c ****         log[x] = i;
 402:C:/Users/lenovo/Desktop/liteos/Project2/BearPi_LiteOS/components/security/mbedtls/mbedtls-2.6.0/library\aes.c ****         x = ( x ^ XTIME( x ) ) & 0xFF;
 403:C:/Users/lenovo/Desktop/liteos/Project2/BearPi_LiteOS/components/security/mbedtls/mbedtls-2.6.0/library\aes.c ****     }
 404:C:/Users/lenovo/Desktop/liteos/Project2/BearPi_LiteOS/components/security/mbedtls/mbedtls-2.6.0/library\aes.c **** 
 405:C:/Users/lenovo/Desktop/liteos/Project2/BearPi_LiteOS/components/security/mbedtls/mbedtls-2.6.0/library\aes.c ****     /*
 406:C:/Users/lenovo/Desktop/liteos/Project2/BearPi_LiteOS/components/security/mbedtls/mbedtls-2.6.0/library\aes.c ****      * calculate the round constants
 407:C:/Users/lenovo/Desktop/liteos/Project2/BearPi_LiteOS/components/security/mbedtls/mbedtls-2.6.0/library\aes.c ****      */
 408:C:/Users/lenovo/Desktop/liteos/Project2/BearPi_LiteOS/components/security/mbedtls/mbedtls-2.6.0/library\aes.c ****     for( i = 0, x = 1; i < 10; i++ )
 409:C:/Users/lenovo/Desktop/liteos/Project2/BearPi_LiteOS/components/security/mbedtls/mbedtls-2.6.0/library\aes.c ****     {
 410:C:/Users/lenovo/Desktop/liteos/Project2/BearPi_LiteOS/components/security/mbedtls/mbedtls-2.6.0/library\aes.c ****         RCON[i] = (uint32_t) x;
 411:C:/Users/lenovo/Desktop/liteos/Project2/BearPi_LiteOS/components/security/mbedtls/mbedtls-2.6.0/library\aes.c ****         x = XTIME( x ) & 0xFF;
 412:C:/Users/lenovo/Desktop/liteos/Project2/BearPi_LiteOS/components/security/mbedtls/mbedtls-2.6.0/library\aes.c ****     }
 413:C:/Users/lenovo/Desktop/liteos/Project2/BearPi_LiteOS/components/security/mbedtls/mbedtls-2.6.0/library\aes.c **** 
 414:C:/Users/lenovo/Desktop/liteos/Project2/BearPi_LiteOS/components/security/mbedtls/mbedtls-2.6.0/library\aes.c ****     /*
 415:C:/Users/lenovo/Desktop/liteos/Project2/BearPi_LiteOS/components/security/mbedtls/mbedtls-2.6.0/library\aes.c ****      * generate the forward and reverse S-boxes
 416:C:/Users/lenovo/Desktop/liteos/Project2/BearPi_LiteOS/components/security/mbedtls/mbedtls-2.6.0/library\aes.c ****      */
 417:C:/Users/lenovo/Desktop/liteos/Project2/BearPi_LiteOS/components/security/mbedtls/mbedtls-2.6.0/library\aes.c ****     FSb[0x00] = 0x63;
 418:C:/Users/lenovo/Desktop/liteos/Project2/BearPi_LiteOS/components/security/mbedtls/mbedtls-2.6.0/library\aes.c ****     RSb[0x63] = 0x00;
 419:C:/Users/lenovo/Desktop/liteos/Project2/BearPi_LiteOS/components/security/mbedtls/mbedtls-2.6.0/library\aes.c **** 
 420:C:/Users/lenovo/Desktop/liteos/Project2/BearPi_LiteOS/components/security/mbedtls/mbedtls-2.6.0/library\aes.c ****     for( i = 1; i < 256; i++ )
 421:C:/Users/lenovo/Desktop/liteos/Project2/BearPi_LiteOS/components/security/mbedtls/mbedtls-2.6.0/library\aes.c ****     {
 422:C:/Users/lenovo/Desktop/liteos/Project2/BearPi_LiteOS/components/security/mbedtls/mbedtls-2.6.0/library\aes.c ****         x = pow[255 - log[i]];
 423:C:/Users/lenovo/Desktop/liteos/Project2/BearPi_LiteOS/components/security/mbedtls/mbedtls-2.6.0/library\aes.c **** 
 424:C:/Users/lenovo/Desktop/liteos/Project2/BearPi_LiteOS/components/security/mbedtls/mbedtls-2.6.0/library\aes.c ****         y  = x; y = ( ( y << 1 ) | ( y >> 7 ) ) & 0xFF;
 425:C:/Users/lenovo/Desktop/liteos/Project2/BearPi_LiteOS/components/security/mbedtls/mbedtls-2.6.0/library\aes.c ****         x ^= y; y = ( ( y << 1 ) | ( y >> 7 ) ) & 0xFF;
 426:C:/Users/lenovo/Desktop/liteos/Project2/BearPi_LiteOS/components/security/mbedtls/mbedtls-2.6.0/library\aes.c ****         x ^= y; y = ( ( y << 1 ) | ( y >> 7 ) ) & 0xFF;
 427:C:/Users/lenovo/Desktop/liteos/Project2/BearPi_LiteOS/components/security/mbedtls/mbedtls-2.6.0/library\aes.c ****         x ^= y; y = ( ( y << 1 ) | ( y >> 7 ) ) & 0xFF;
 428:C:/Users/lenovo/Desktop/liteos/Project2/BearPi_LiteOS/components/security/mbedtls/mbedtls-2.6.0/library\aes.c ****         x ^= y ^ 0x63;
 429:C:/Users/lenovo/Desktop/liteos/Project2/BearPi_LiteOS/components/security/mbedtls/mbedtls-2.6.0/library\aes.c **** 
 430:C:/Users/lenovo/Desktop/liteos/Project2/BearPi_LiteOS/components/security/mbedtls/mbedtls-2.6.0/library\aes.c ****         FSb[i] = (unsigned char) x;
 431:C:/Users/lenovo/Desktop/liteos/Project2/BearPi_LiteOS/components/security/mbedtls/mbedtls-2.6.0/library\aes.c ****         RSb[x] = (unsigned char) i;
 432:C:/Users/lenovo/Desktop/liteos/Project2/BearPi_LiteOS/components/security/mbedtls/mbedtls-2.6.0/library\aes.c ****     }
 433:C:/Users/lenovo/Desktop/liteos/Project2/BearPi_LiteOS/components/security/mbedtls/mbedtls-2.6.0/library\aes.c **** 
 434:C:/Users/lenovo/Desktop/liteos/Project2/BearPi_LiteOS/components/security/mbedtls/mbedtls-2.6.0/library\aes.c ****     /*
 435:C:/Users/lenovo/Desktop/liteos/Project2/BearPi_LiteOS/components/security/mbedtls/mbedtls-2.6.0/library\aes.c ****      * generate the forward and reverse tables
 436:C:/Users/lenovo/Desktop/liteos/Project2/BearPi_LiteOS/components/security/mbedtls/mbedtls-2.6.0/library\aes.c ****      */
 437:C:/Users/lenovo/Desktop/liteos/Project2/BearPi_LiteOS/components/security/mbedtls/mbedtls-2.6.0/library\aes.c ****     for( i = 0; i < 256; i++ )
 438:C:/Users/lenovo/Desktop/liteos/Project2/BearPi_LiteOS/components/security/mbedtls/mbedtls-2.6.0/library\aes.c ****     {
 439:C:/Users/lenovo/Desktop/liteos/Project2/BearPi_LiteOS/components/security/mbedtls/mbedtls-2.6.0/library\aes.c ****         x = FSb[i];
 440:C:/Users/lenovo/Desktop/liteos/Project2/BearPi_LiteOS/components/security/mbedtls/mbedtls-2.6.0/library\aes.c ****         y = XTIME( x ) & 0xFF;
 441:C:/Users/lenovo/Desktop/liteos/Project2/BearPi_LiteOS/components/security/mbedtls/mbedtls-2.6.0/library\aes.c ****         z =  ( y ^ x ) & 0xFF;
 442:C:/Users/lenovo/Desktop/liteos/Project2/BearPi_LiteOS/components/security/mbedtls/mbedtls-2.6.0/library\aes.c **** 
 443:C:/Users/lenovo/Desktop/liteos/Project2/BearPi_LiteOS/components/security/mbedtls/mbedtls-2.6.0/library\aes.c ****         FT0[i] = ( (uint32_t) y       ) ^
 444:C:/Users/lenovo/Desktop/liteos/Project2/BearPi_LiteOS/components/security/mbedtls/mbedtls-2.6.0/library\aes.c ****                  ( (uint32_t) x <<  8 ) ^
 445:C:/Users/lenovo/Desktop/liteos/Project2/BearPi_LiteOS/components/security/mbedtls/mbedtls-2.6.0/library\aes.c ****                  ( (uint32_t) x << 16 ) ^
 446:C:/Users/lenovo/Desktop/liteos/Project2/BearPi_LiteOS/components/security/mbedtls/mbedtls-2.6.0/library\aes.c ****                  ( (uint32_t) z << 24 );
 447:C:/Users/lenovo/Desktop/liteos/Project2/BearPi_LiteOS/components/security/mbedtls/mbedtls-2.6.0/library\aes.c **** 
 448:C:/Users/lenovo/Desktop/liteos/Project2/BearPi_LiteOS/components/security/mbedtls/mbedtls-2.6.0/library\aes.c ****         FT1[i] = ROTL8( FT0[i] );
 449:C:/Users/lenovo/Desktop/liteos/Project2/BearPi_LiteOS/components/security/mbedtls/mbedtls-2.6.0/library\aes.c ****         FT2[i] = ROTL8( FT1[i] );
 450:C:/Users/lenovo/Desktop/liteos/Project2/BearPi_LiteOS/components/security/mbedtls/mbedtls-2.6.0/library\aes.c ****         FT3[i] = ROTL8( FT2[i] );
 451:C:/Users/lenovo/Desktop/liteos/Project2/BearPi_LiteOS/components/security/mbedtls/mbedtls-2.6.0/library\aes.c **** 
 452:C:/Users/lenovo/Desktop/liteos/Project2/BearPi_LiteOS/components/security/mbedtls/mbedtls-2.6.0/library\aes.c ****         x = RSb[i];
ARM GAS  c:\Users\lenovo\AppData\Local\Temp\ccpYsKo5.s 			page 10


 453:C:/Users/lenovo/Desktop/liteos/Project2/BearPi_LiteOS/components/security/mbedtls/mbedtls-2.6.0/library\aes.c **** 
 454:C:/Users/lenovo/Desktop/liteos/Project2/BearPi_LiteOS/components/security/mbedtls/mbedtls-2.6.0/library\aes.c ****         RT0[i] = ( (uint32_t) MUL( 0x0E, x )       ) ^
 455:C:/Users/lenovo/Desktop/liteos/Project2/BearPi_LiteOS/components/security/mbedtls/mbedtls-2.6.0/library\aes.c ****                  ( (uint32_t) MUL( 0x09, x ) <<  8 ) ^
 456:C:/Users/lenovo/Desktop/liteos/Project2/BearPi_LiteOS/components/security/mbedtls/mbedtls-2.6.0/library\aes.c ****                  ( (uint32_t) MUL( 0x0D, x ) << 16 ) ^
 457:C:/Users/lenovo/Desktop/liteos/Project2/BearPi_LiteOS/components/security/mbedtls/mbedtls-2.6.0/library\aes.c ****                  ( (uint32_t) MUL( 0x0B, x ) << 24 );
 458:C:/Users/lenovo/Desktop/liteos/Project2/BearPi_LiteOS/components/security/mbedtls/mbedtls-2.6.0/library\aes.c **** 
 459:C:/Users/lenovo/Desktop/liteos/Project2/BearPi_LiteOS/components/security/mbedtls/mbedtls-2.6.0/library\aes.c ****         RT1[i] = ROTL8( RT0[i] );
 460:C:/Users/lenovo/Desktop/liteos/Project2/BearPi_LiteOS/components/security/mbedtls/mbedtls-2.6.0/library\aes.c ****         RT2[i] = ROTL8( RT1[i] );
 461:C:/Users/lenovo/Desktop/liteos/Project2/BearPi_LiteOS/components/security/mbedtls/mbedtls-2.6.0/library\aes.c ****         RT3[i] = ROTL8( RT2[i] );
 462:C:/Users/lenovo/Desktop/liteos/Project2/BearPi_LiteOS/components/security/mbedtls/mbedtls-2.6.0/library\aes.c ****     }
 463:C:/Users/lenovo/Desktop/liteos/Project2/BearPi_LiteOS/components/security/mbedtls/mbedtls-2.6.0/library\aes.c **** }
 464:C:/Users/lenovo/Desktop/liteos/Project2/BearPi_LiteOS/components/security/mbedtls/mbedtls-2.6.0/library\aes.c **** 
 465:C:/Users/lenovo/Desktop/liteos/Project2/BearPi_LiteOS/components/security/mbedtls/mbedtls-2.6.0/library\aes.c **** #endif /* MBEDTLS_AES_ROM_TABLES */
 466:C:/Users/lenovo/Desktop/liteos/Project2/BearPi_LiteOS/components/security/mbedtls/mbedtls-2.6.0/library\aes.c **** 
 467:C:/Users/lenovo/Desktop/liteos/Project2/BearPi_LiteOS/components/security/mbedtls/mbedtls-2.6.0/library\aes.c **** void mbedtls_aes_init( mbedtls_aes_context *ctx )
 468:C:/Users/lenovo/Desktop/liteos/Project2/BearPi_LiteOS/components/security/mbedtls/mbedtls-2.6.0/library\aes.c **** {
  65              		.loc 1 468 0
  66              		.cfi_startproc
  67              		@ args = 0, pretend = 0, frame = 0
  68              		@ frame_needed = 0, uses_anonymous_args = 0
  69              	.LVL5:
  70 0000 08B5     		push	{r3, lr}
  71              	.LCFI0:
  72              		.cfi_def_cfa_offset 8
  73              		.cfi_offset 3, -8
  74              		.cfi_offset 14, -4
 469:C:/Users/lenovo/Desktop/liteos/Project2/BearPi_LiteOS/components/security/mbedtls/mbedtls-2.6.0/library\aes.c ****     memset( ctx, 0, sizeof( mbedtls_aes_context ) );
  75              		.loc 1 469 0
  76 0002 4FF48C72 		mov	r2, #280
  77 0006 0021     		movs	r1, #0
  78 0008 FFF7FEFF 		bl	memset
  79              	.LVL6:
 470:C:/Users/lenovo/Desktop/liteos/Project2/BearPi_LiteOS/components/security/mbedtls/mbedtls-2.6.0/library\aes.c **** }
  80              		.loc 1 470 0
  81 000c 08BD     		pop	{r3, pc}
  82              		.cfi_endproc
  83              	.LFE1:
  85              		.section	.text.mbedtls_aes_free,"ax",%progbits
  86              		.align	1
  87              		.global	mbedtls_aes_free
  88              		.syntax unified
  89              		.thumb
  90              		.thumb_func
  91              		.fpu fpv4-sp-d16
  93              	mbedtls_aes_free:
  94              	.LFB2:
 471:C:/Users/lenovo/Desktop/liteos/Project2/BearPi_LiteOS/components/security/mbedtls/mbedtls-2.6.0/library\aes.c **** 
 472:C:/Users/lenovo/Desktop/liteos/Project2/BearPi_LiteOS/components/security/mbedtls/mbedtls-2.6.0/library\aes.c **** void mbedtls_aes_free( mbedtls_aes_context *ctx )
 473:C:/Users/lenovo/Desktop/liteos/Project2/BearPi_LiteOS/components/security/mbedtls/mbedtls-2.6.0/library\aes.c **** {
  95              		.loc 1 473 0
  96              		.cfi_startproc
  97              		@ args = 0, pretend = 0, frame = 0
  98              		@ frame_needed = 0, uses_anonymous_args = 0
  99              	.LVL7:
 474:C:/Users/lenovo/Desktop/liteos/Project2/BearPi_LiteOS/components/security/mbedtls/mbedtls-2.6.0/library\aes.c ****     if( ctx == NULL )
 100              		.loc 1 474 0
 101 0000 28B1     		cbz	r0, .L9
ARM GAS  c:\Users\lenovo\AppData\Local\Temp\ccpYsKo5.s 			page 11


 473:C:/Users/lenovo/Desktop/liteos/Project2/BearPi_LiteOS/components/security/mbedtls/mbedtls-2.6.0/library\aes.c ****     if( ctx == NULL )
 102              		.loc 1 473 0
 103 0002 08B5     		push	{r3, lr}
 104              	.LCFI1:
 105              		.cfi_def_cfa_offset 8
 106              		.cfi_offset 3, -8
 107              		.cfi_offset 14, -4
 475:C:/Users/lenovo/Desktop/liteos/Project2/BearPi_LiteOS/components/security/mbedtls/mbedtls-2.6.0/library\aes.c ****         return;
 476:C:/Users/lenovo/Desktop/liteos/Project2/BearPi_LiteOS/components/security/mbedtls/mbedtls-2.6.0/library\aes.c **** 
 477:C:/Users/lenovo/Desktop/liteos/Project2/BearPi_LiteOS/components/security/mbedtls/mbedtls-2.6.0/library\aes.c ****     mbedtls_zeroize( ctx, sizeof( mbedtls_aes_context ) );
 108              		.loc 1 477 0
 109 0004 4FF48C71 		mov	r1, #280
 110 0008 FFF7FEFF 		bl	mbedtls_zeroize
 111              	.LVL8:
 478:C:/Users/lenovo/Desktop/liteos/Project2/BearPi_LiteOS/components/security/mbedtls/mbedtls-2.6.0/library\aes.c **** }
 112              		.loc 1 478 0
 113 000c 08BD     		pop	{r3, pc}
 114              	.LVL9:
 115              	.L9:
 116              	.LCFI2:
 117              		.cfi_def_cfa_offset 0
 118              		.cfi_restore 3
 119              		.cfi_restore 14
 120 000e 7047     		bx	lr
 121              		.cfi_endproc
 122              	.LFE2:
 124              		.section	.text.mbedtls_aes_setkey_enc,"ax",%progbits
 125              		.align	1
 126              		.global	mbedtls_aes_setkey_enc
 127              		.syntax unified
 128              		.thumb
 129              		.thumb_func
 130              		.fpu fpv4-sp-d16
 132              	mbedtls_aes_setkey_enc:
 133              	.LFB3:
 479:C:/Users/lenovo/Desktop/liteos/Project2/BearPi_LiteOS/components/security/mbedtls/mbedtls-2.6.0/library\aes.c **** 
 480:C:/Users/lenovo/Desktop/liteos/Project2/BearPi_LiteOS/components/security/mbedtls/mbedtls-2.6.0/library\aes.c **** /*
 481:C:/Users/lenovo/Desktop/liteos/Project2/BearPi_LiteOS/components/security/mbedtls/mbedtls-2.6.0/library\aes.c ****  * AES key schedule (encryption)
 482:C:/Users/lenovo/Desktop/liteos/Project2/BearPi_LiteOS/components/security/mbedtls/mbedtls-2.6.0/library\aes.c ****  */
 483:C:/Users/lenovo/Desktop/liteos/Project2/BearPi_LiteOS/components/security/mbedtls/mbedtls-2.6.0/library\aes.c **** #if !defined(MBEDTLS_AES_SETKEY_ENC_ALT)
 484:C:/Users/lenovo/Desktop/liteos/Project2/BearPi_LiteOS/components/security/mbedtls/mbedtls-2.6.0/library\aes.c **** int mbedtls_aes_setkey_enc( mbedtls_aes_context *ctx, const unsigned char *key,
 485:C:/Users/lenovo/Desktop/liteos/Project2/BearPi_LiteOS/components/security/mbedtls/mbedtls-2.6.0/library\aes.c ****                     unsigned int keybits )
 486:C:/Users/lenovo/Desktop/liteos/Project2/BearPi_LiteOS/components/security/mbedtls/mbedtls-2.6.0/library\aes.c **** {
 134              		.loc 1 486 0
 135              		.cfi_startproc
 136              		@ args = 0, pretend = 0, frame = 0
 137              		@ frame_needed = 0, uses_anonymous_args = 0
 138              		@ link register save eliminated.
 139              	.LVL10:
 487:C:/Users/lenovo/Desktop/liteos/Project2/BearPi_LiteOS/components/security/mbedtls/mbedtls-2.6.0/library\aes.c ****     unsigned int i;
 488:C:/Users/lenovo/Desktop/liteos/Project2/BearPi_LiteOS/components/security/mbedtls/mbedtls-2.6.0/library\aes.c ****     uint32_t *RK;
 489:C:/Users/lenovo/Desktop/liteos/Project2/BearPi_LiteOS/components/security/mbedtls/mbedtls-2.6.0/library\aes.c **** 
 490:C:/Users/lenovo/Desktop/liteos/Project2/BearPi_LiteOS/components/security/mbedtls/mbedtls-2.6.0/library\aes.c **** #if !defined(MBEDTLS_AES_ROM_TABLES)
 491:C:/Users/lenovo/Desktop/liteos/Project2/BearPi_LiteOS/components/security/mbedtls/mbedtls-2.6.0/library\aes.c ****     if( aes_init_done == 0 )
 492:C:/Users/lenovo/Desktop/liteos/Project2/BearPi_LiteOS/components/security/mbedtls/mbedtls-2.6.0/library\aes.c ****     {
 493:C:/Users/lenovo/Desktop/liteos/Project2/BearPi_LiteOS/components/security/mbedtls/mbedtls-2.6.0/library\aes.c ****         aes_gen_tables();
 494:C:/Users/lenovo/Desktop/liteos/Project2/BearPi_LiteOS/components/security/mbedtls/mbedtls-2.6.0/library\aes.c ****         aes_init_done = 1;
ARM GAS  c:\Users\lenovo\AppData\Local\Temp\ccpYsKo5.s 			page 12


 495:C:/Users/lenovo/Desktop/liteos/Project2/BearPi_LiteOS/components/security/mbedtls/mbedtls-2.6.0/library\aes.c **** 
 496:C:/Users/lenovo/Desktop/liteos/Project2/BearPi_LiteOS/components/security/mbedtls/mbedtls-2.6.0/library\aes.c ****     }
 497:C:/Users/lenovo/Desktop/liteos/Project2/BearPi_LiteOS/components/security/mbedtls/mbedtls-2.6.0/library\aes.c **** #endif
 498:C:/Users/lenovo/Desktop/liteos/Project2/BearPi_LiteOS/components/security/mbedtls/mbedtls-2.6.0/library\aes.c **** 
 499:C:/Users/lenovo/Desktop/liteos/Project2/BearPi_LiteOS/components/security/mbedtls/mbedtls-2.6.0/library\aes.c ****     switch( keybits )
 140              		.loc 1 499 0
 141 0000 C02A     		cmp	r2, #192
 142 0002 0FD0     		beq	.L14
 143 0004 B2F5807F 		cmp	r2, #256
 144 0008 0FD0     		beq	.L15
 145 000a 802A     		cmp	r2, #128
 146 000c 02D0     		beq	.L36
 500:C:/Users/lenovo/Desktop/liteos/Project2/BearPi_LiteOS/components/security/mbedtls/mbedtls-2.6.0/library\aes.c ****     {
 501:C:/Users/lenovo/Desktop/liteos/Project2/BearPi_LiteOS/components/security/mbedtls/mbedtls-2.6.0/library\aes.c ****         case 128: ctx->nr = 10; break;
 502:C:/Users/lenovo/Desktop/liteos/Project2/BearPi_LiteOS/components/security/mbedtls/mbedtls-2.6.0/library\aes.c ****         case 192: ctx->nr = 12; break;
 503:C:/Users/lenovo/Desktop/liteos/Project2/BearPi_LiteOS/components/security/mbedtls/mbedtls-2.6.0/library\aes.c ****         case 256: ctx->nr = 14; break;
 504:C:/Users/lenovo/Desktop/liteos/Project2/BearPi_LiteOS/components/security/mbedtls/mbedtls-2.6.0/library\aes.c ****         default : return( MBEDTLS_ERR_AES_INVALID_KEY_LENGTH );
 147              		.loc 1 504 0
 148 000e 6FF01F00 		mvn	r0, #31
 149              	.LVL11:
 505:C:/Users/lenovo/Desktop/liteos/Project2/BearPi_LiteOS/components/security/mbedtls/mbedtls-2.6.0/library\aes.c ****     }
 506:C:/Users/lenovo/Desktop/liteos/Project2/BearPi_LiteOS/components/security/mbedtls/mbedtls-2.6.0/library\aes.c **** 
 507:C:/Users/lenovo/Desktop/liteos/Project2/BearPi_LiteOS/components/security/mbedtls/mbedtls-2.6.0/library\aes.c **** #if defined(MBEDTLS_PADLOCK_C) && defined(MBEDTLS_PADLOCK_ALIGN16)
 508:C:/Users/lenovo/Desktop/liteos/Project2/BearPi_LiteOS/components/security/mbedtls/mbedtls-2.6.0/library\aes.c ****     if( aes_padlock_ace == -1 )
 509:C:/Users/lenovo/Desktop/liteos/Project2/BearPi_LiteOS/components/security/mbedtls/mbedtls-2.6.0/library\aes.c ****         aes_padlock_ace = mbedtls_padlock_has_support( MBEDTLS_PADLOCK_ACE );
 510:C:/Users/lenovo/Desktop/liteos/Project2/BearPi_LiteOS/components/security/mbedtls/mbedtls-2.6.0/library\aes.c **** 
 511:C:/Users/lenovo/Desktop/liteos/Project2/BearPi_LiteOS/components/security/mbedtls/mbedtls-2.6.0/library\aes.c ****     if( aes_padlock_ace )
 512:C:/Users/lenovo/Desktop/liteos/Project2/BearPi_LiteOS/components/security/mbedtls/mbedtls-2.6.0/library\aes.c ****         ctx->rk = RK = MBEDTLS_PADLOCK_ALIGN16( ctx->buf );
 513:C:/Users/lenovo/Desktop/liteos/Project2/BearPi_LiteOS/components/security/mbedtls/mbedtls-2.6.0/library\aes.c ****     else
 514:C:/Users/lenovo/Desktop/liteos/Project2/BearPi_LiteOS/components/security/mbedtls/mbedtls-2.6.0/library\aes.c **** #endif
 515:C:/Users/lenovo/Desktop/liteos/Project2/BearPi_LiteOS/components/security/mbedtls/mbedtls-2.6.0/library\aes.c ****     ctx->rk = RK = ctx->buf;
 516:C:/Users/lenovo/Desktop/liteos/Project2/BearPi_LiteOS/components/security/mbedtls/mbedtls-2.6.0/library\aes.c **** 
 517:C:/Users/lenovo/Desktop/liteos/Project2/BearPi_LiteOS/components/security/mbedtls/mbedtls-2.6.0/library\aes.c **** #if defined(MBEDTLS_AESNI_C) && defined(MBEDTLS_HAVE_X86_64)
 518:C:/Users/lenovo/Desktop/liteos/Project2/BearPi_LiteOS/components/security/mbedtls/mbedtls-2.6.0/library\aes.c ****     if( mbedtls_aesni_has_support( MBEDTLS_AESNI_AES ) )
 519:C:/Users/lenovo/Desktop/liteos/Project2/BearPi_LiteOS/components/security/mbedtls/mbedtls-2.6.0/library\aes.c ****         return( mbedtls_aesni_setkey_enc( (unsigned char *) ctx->rk, key, keybits ) );
 520:C:/Users/lenovo/Desktop/liteos/Project2/BearPi_LiteOS/components/security/mbedtls/mbedtls-2.6.0/library\aes.c **** #endif
 521:C:/Users/lenovo/Desktop/liteos/Project2/BearPi_LiteOS/components/security/mbedtls/mbedtls-2.6.0/library\aes.c **** 
 522:C:/Users/lenovo/Desktop/liteos/Project2/BearPi_LiteOS/components/security/mbedtls/mbedtls-2.6.0/library\aes.c ****     for( i = 0; i < ( keybits >> 5 ); i++ )
 523:C:/Users/lenovo/Desktop/liteos/Project2/BearPi_LiteOS/components/security/mbedtls/mbedtls-2.6.0/library\aes.c ****     {
 524:C:/Users/lenovo/Desktop/liteos/Project2/BearPi_LiteOS/components/security/mbedtls/mbedtls-2.6.0/library\aes.c ****         GET_UINT32_LE( RK[i], key, i << 2 );
 525:C:/Users/lenovo/Desktop/liteos/Project2/BearPi_LiteOS/components/security/mbedtls/mbedtls-2.6.0/library\aes.c ****     }
 526:C:/Users/lenovo/Desktop/liteos/Project2/BearPi_LiteOS/components/security/mbedtls/mbedtls-2.6.0/library\aes.c **** 
 527:C:/Users/lenovo/Desktop/liteos/Project2/BearPi_LiteOS/components/security/mbedtls/mbedtls-2.6.0/library\aes.c ****     switch( ctx->nr )
 528:C:/Users/lenovo/Desktop/liteos/Project2/BearPi_LiteOS/components/security/mbedtls/mbedtls-2.6.0/library\aes.c ****     {
 529:C:/Users/lenovo/Desktop/liteos/Project2/BearPi_LiteOS/components/security/mbedtls/mbedtls-2.6.0/library\aes.c ****         case 10:
 530:C:/Users/lenovo/Desktop/liteos/Project2/BearPi_LiteOS/components/security/mbedtls/mbedtls-2.6.0/library\aes.c **** 
 531:C:/Users/lenovo/Desktop/liteos/Project2/BearPi_LiteOS/components/security/mbedtls/mbedtls-2.6.0/library\aes.c ****             for( i = 0; i < 10; i++, RK += 4 )
 532:C:/Users/lenovo/Desktop/liteos/Project2/BearPi_LiteOS/components/security/mbedtls/mbedtls-2.6.0/library\aes.c ****             {
 533:C:/Users/lenovo/Desktop/liteos/Project2/BearPi_LiteOS/components/security/mbedtls/mbedtls-2.6.0/library\aes.c ****                 RK[4]  = RK[0] ^ RCON[i] ^
 534:C:/Users/lenovo/Desktop/liteos/Project2/BearPi_LiteOS/components/security/mbedtls/mbedtls-2.6.0/library\aes.c ****                 ( (uint32_t) FSb[ ( RK[3] >>  8 ) & 0xFF ]       ) ^
 535:C:/Users/lenovo/Desktop/liteos/Project2/BearPi_LiteOS/components/security/mbedtls/mbedtls-2.6.0/library\aes.c ****                 ( (uint32_t) FSb[ ( RK[3] >> 16 ) & 0xFF ] <<  8 ) ^
 536:C:/Users/lenovo/Desktop/liteos/Project2/BearPi_LiteOS/components/security/mbedtls/mbedtls-2.6.0/library\aes.c ****                 ( (uint32_t) FSb[ ( RK[3] >> 24 ) & 0xFF ] << 16 ) ^
 537:C:/Users/lenovo/Desktop/liteos/Project2/BearPi_LiteOS/components/security/mbedtls/mbedtls-2.6.0/library\aes.c ****                 ( (uint32_t) FSb[ ( RK[3]       ) & 0xFF ] << 24 );
 538:C:/Users/lenovo/Desktop/liteos/Project2/BearPi_LiteOS/components/security/mbedtls/mbedtls-2.6.0/library\aes.c **** 
 539:C:/Users/lenovo/Desktop/liteos/Project2/BearPi_LiteOS/components/security/mbedtls/mbedtls-2.6.0/library\aes.c ****                 RK[5]  = RK[1] ^ RK[4];
 540:C:/Users/lenovo/Desktop/liteos/Project2/BearPi_LiteOS/components/security/mbedtls/mbedtls-2.6.0/library\aes.c ****                 RK[6]  = RK[2] ^ RK[5];
 541:C:/Users/lenovo/Desktop/liteos/Project2/BearPi_LiteOS/components/security/mbedtls/mbedtls-2.6.0/library\aes.c ****                 RK[7]  = RK[3] ^ RK[6];
ARM GAS  c:\Users\lenovo\AppData\Local\Temp\ccpYsKo5.s 			page 13


 542:C:/Users/lenovo/Desktop/liteos/Project2/BearPi_LiteOS/components/security/mbedtls/mbedtls-2.6.0/library\aes.c ****             }
 543:C:/Users/lenovo/Desktop/liteos/Project2/BearPi_LiteOS/components/security/mbedtls/mbedtls-2.6.0/library\aes.c ****             break;
 544:C:/Users/lenovo/Desktop/liteos/Project2/BearPi_LiteOS/components/security/mbedtls/mbedtls-2.6.0/library\aes.c **** 
 545:C:/Users/lenovo/Desktop/liteos/Project2/BearPi_LiteOS/components/security/mbedtls/mbedtls-2.6.0/library\aes.c ****         case 12:
 546:C:/Users/lenovo/Desktop/liteos/Project2/BearPi_LiteOS/components/security/mbedtls/mbedtls-2.6.0/library\aes.c **** 
 547:C:/Users/lenovo/Desktop/liteos/Project2/BearPi_LiteOS/components/security/mbedtls/mbedtls-2.6.0/library\aes.c ****             for( i = 0; i < 8; i++, RK += 6 )
 548:C:/Users/lenovo/Desktop/liteos/Project2/BearPi_LiteOS/components/security/mbedtls/mbedtls-2.6.0/library\aes.c ****             {
 549:C:/Users/lenovo/Desktop/liteos/Project2/BearPi_LiteOS/components/security/mbedtls/mbedtls-2.6.0/library\aes.c ****                 RK[6]  = RK[0] ^ RCON[i] ^
 550:C:/Users/lenovo/Desktop/liteos/Project2/BearPi_LiteOS/components/security/mbedtls/mbedtls-2.6.0/library\aes.c ****                 ( (uint32_t) FSb[ ( RK[5] >>  8 ) & 0xFF ]       ) ^
 551:C:/Users/lenovo/Desktop/liteos/Project2/BearPi_LiteOS/components/security/mbedtls/mbedtls-2.6.0/library\aes.c ****                 ( (uint32_t) FSb[ ( RK[5] >> 16 ) & 0xFF ] <<  8 ) ^
 552:C:/Users/lenovo/Desktop/liteos/Project2/BearPi_LiteOS/components/security/mbedtls/mbedtls-2.6.0/library\aes.c ****                 ( (uint32_t) FSb[ ( RK[5] >> 24 ) & 0xFF ] << 16 ) ^
 553:C:/Users/lenovo/Desktop/liteos/Project2/BearPi_LiteOS/components/security/mbedtls/mbedtls-2.6.0/library\aes.c ****                 ( (uint32_t) FSb[ ( RK[5]       ) & 0xFF ] << 24 );
 554:C:/Users/lenovo/Desktop/liteos/Project2/BearPi_LiteOS/components/security/mbedtls/mbedtls-2.6.0/library\aes.c **** 
 555:C:/Users/lenovo/Desktop/liteos/Project2/BearPi_LiteOS/components/security/mbedtls/mbedtls-2.6.0/library\aes.c ****                 RK[7]  = RK[1] ^ RK[6];
 556:C:/Users/lenovo/Desktop/liteos/Project2/BearPi_LiteOS/components/security/mbedtls/mbedtls-2.6.0/library\aes.c ****                 RK[8]  = RK[2] ^ RK[7];
 557:C:/Users/lenovo/Desktop/liteos/Project2/BearPi_LiteOS/components/security/mbedtls/mbedtls-2.6.0/library\aes.c ****                 RK[9]  = RK[3] ^ RK[8];
 558:C:/Users/lenovo/Desktop/liteos/Project2/BearPi_LiteOS/components/security/mbedtls/mbedtls-2.6.0/library\aes.c ****                 RK[10] = RK[4] ^ RK[9];
 559:C:/Users/lenovo/Desktop/liteos/Project2/BearPi_LiteOS/components/security/mbedtls/mbedtls-2.6.0/library\aes.c ****                 RK[11] = RK[5] ^ RK[10];
 560:C:/Users/lenovo/Desktop/liteos/Project2/BearPi_LiteOS/components/security/mbedtls/mbedtls-2.6.0/library\aes.c ****             }
 561:C:/Users/lenovo/Desktop/liteos/Project2/BearPi_LiteOS/components/security/mbedtls/mbedtls-2.6.0/library\aes.c ****             break;
 562:C:/Users/lenovo/Desktop/liteos/Project2/BearPi_LiteOS/components/security/mbedtls/mbedtls-2.6.0/library\aes.c **** 
 563:C:/Users/lenovo/Desktop/liteos/Project2/BearPi_LiteOS/components/security/mbedtls/mbedtls-2.6.0/library\aes.c ****         case 14:
 564:C:/Users/lenovo/Desktop/liteos/Project2/BearPi_LiteOS/components/security/mbedtls/mbedtls-2.6.0/library\aes.c **** 
 565:C:/Users/lenovo/Desktop/liteos/Project2/BearPi_LiteOS/components/security/mbedtls/mbedtls-2.6.0/library\aes.c ****             for( i = 0; i < 7; i++, RK += 8 )
 566:C:/Users/lenovo/Desktop/liteos/Project2/BearPi_LiteOS/components/security/mbedtls/mbedtls-2.6.0/library\aes.c ****             {
 567:C:/Users/lenovo/Desktop/liteos/Project2/BearPi_LiteOS/components/security/mbedtls/mbedtls-2.6.0/library\aes.c ****                 RK[8]  = RK[0] ^ RCON[i] ^
 568:C:/Users/lenovo/Desktop/liteos/Project2/BearPi_LiteOS/components/security/mbedtls/mbedtls-2.6.0/library\aes.c ****                 ( (uint32_t) FSb[ ( RK[7] >>  8 ) & 0xFF ]       ) ^
 569:C:/Users/lenovo/Desktop/liteos/Project2/BearPi_LiteOS/components/security/mbedtls/mbedtls-2.6.0/library\aes.c ****                 ( (uint32_t) FSb[ ( RK[7] >> 16 ) & 0xFF ] <<  8 ) ^
 570:C:/Users/lenovo/Desktop/liteos/Project2/BearPi_LiteOS/components/security/mbedtls/mbedtls-2.6.0/library\aes.c ****                 ( (uint32_t) FSb[ ( RK[7] >> 24 ) & 0xFF ] << 16 ) ^
 571:C:/Users/lenovo/Desktop/liteos/Project2/BearPi_LiteOS/components/security/mbedtls/mbedtls-2.6.0/library\aes.c ****                 ( (uint32_t) FSb[ ( RK[7]       ) & 0xFF ] << 24 );
 572:C:/Users/lenovo/Desktop/liteos/Project2/BearPi_LiteOS/components/security/mbedtls/mbedtls-2.6.0/library\aes.c **** 
 573:C:/Users/lenovo/Desktop/liteos/Project2/BearPi_LiteOS/components/security/mbedtls/mbedtls-2.6.0/library\aes.c ****                 RK[9]  = RK[1] ^ RK[8];
 574:C:/Users/lenovo/Desktop/liteos/Project2/BearPi_LiteOS/components/security/mbedtls/mbedtls-2.6.0/library\aes.c ****                 RK[10] = RK[2] ^ RK[9];
 575:C:/Users/lenovo/Desktop/liteos/Project2/BearPi_LiteOS/components/security/mbedtls/mbedtls-2.6.0/library\aes.c ****                 RK[11] = RK[3] ^ RK[10];
 576:C:/Users/lenovo/Desktop/liteos/Project2/BearPi_LiteOS/components/security/mbedtls/mbedtls-2.6.0/library\aes.c **** 
 577:C:/Users/lenovo/Desktop/liteos/Project2/BearPi_LiteOS/components/security/mbedtls/mbedtls-2.6.0/library\aes.c ****                 RK[12] = RK[4] ^
 578:C:/Users/lenovo/Desktop/liteos/Project2/BearPi_LiteOS/components/security/mbedtls/mbedtls-2.6.0/library\aes.c ****                 ( (uint32_t) FSb[ ( RK[11]       ) & 0xFF ]       ) ^
 579:C:/Users/lenovo/Desktop/liteos/Project2/BearPi_LiteOS/components/security/mbedtls/mbedtls-2.6.0/library\aes.c ****                 ( (uint32_t) FSb[ ( RK[11] >>  8 ) & 0xFF ] <<  8 ) ^
 580:C:/Users/lenovo/Desktop/liteos/Project2/BearPi_LiteOS/components/security/mbedtls/mbedtls-2.6.0/library\aes.c ****                 ( (uint32_t) FSb[ ( RK[11] >> 16 ) & 0xFF ] << 16 ) ^
 581:C:/Users/lenovo/Desktop/liteos/Project2/BearPi_LiteOS/components/security/mbedtls/mbedtls-2.6.0/library\aes.c ****                 ( (uint32_t) FSb[ ( RK[11] >> 24 ) & 0xFF ] << 24 );
 582:C:/Users/lenovo/Desktop/liteos/Project2/BearPi_LiteOS/components/security/mbedtls/mbedtls-2.6.0/library\aes.c **** 
 583:C:/Users/lenovo/Desktop/liteos/Project2/BearPi_LiteOS/components/security/mbedtls/mbedtls-2.6.0/library\aes.c ****                 RK[13] = RK[5] ^ RK[12];
 584:C:/Users/lenovo/Desktop/liteos/Project2/BearPi_LiteOS/components/security/mbedtls/mbedtls-2.6.0/library\aes.c ****                 RK[14] = RK[6] ^ RK[13];
 585:C:/Users/lenovo/Desktop/liteos/Project2/BearPi_LiteOS/components/security/mbedtls/mbedtls-2.6.0/library\aes.c ****                 RK[15] = RK[7] ^ RK[14];
 586:C:/Users/lenovo/Desktop/liteos/Project2/BearPi_LiteOS/components/security/mbedtls/mbedtls-2.6.0/library\aes.c ****             }
 587:C:/Users/lenovo/Desktop/liteos/Project2/BearPi_LiteOS/components/security/mbedtls/mbedtls-2.6.0/library\aes.c ****             break;
 588:C:/Users/lenovo/Desktop/liteos/Project2/BearPi_LiteOS/components/security/mbedtls/mbedtls-2.6.0/library\aes.c ****     }
 589:C:/Users/lenovo/Desktop/liteos/Project2/BearPi_LiteOS/components/security/mbedtls/mbedtls-2.6.0/library\aes.c **** 
 590:C:/Users/lenovo/Desktop/liteos/Project2/BearPi_LiteOS/components/security/mbedtls/mbedtls-2.6.0/library\aes.c ****     return( 0 );
 591:C:/Users/lenovo/Desktop/liteos/Project2/BearPi_LiteOS/components/security/mbedtls/mbedtls-2.6.0/library\aes.c **** }
 150              		.loc 1 591 0
 151 0012 7047     		bx	lr
 152              	.LVL12:
 153              	.L36:
 501:C:/Users/lenovo/Desktop/liteos/Project2/BearPi_LiteOS/components/security/mbedtls/mbedtls-2.6.0/library\aes.c ****         case 192: ctx->nr = 12; break;
 154              		.loc 1 501 0
 155 0014 0A23     		movs	r3, #10
ARM GAS  c:\Users\lenovo\AppData\Local\Temp\ccpYsKo5.s 			page 14


 156 0016 0360     		str	r3, [r0]
 157              	.L17:
 486:C:/Users/lenovo/Desktop/liteos/Project2/BearPi_LiteOS/components/security/mbedtls/mbedtls-2.6.0/library\aes.c ****     unsigned int i;
 158              		.loc 1 486 0
 159 0018 F0B4     		push	{r4, r5, r6, r7}
 160              	.LCFI3:
 161              		.cfi_def_cfa_offset 16
 162              		.cfi_offset 4, -16
 163              		.cfi_offset 5, -12
 164              		.cfi_offset 6, -8
 165              		.cfi_offset 7, -4
 515:C:/Users/lenovo/Desktop/liteos/Project2/BearPi_LiteOS/components/security/mbedtls/mbedtls-2.6.0/library\aes.c **** 
 166              		.loc 1 515 0
 167 001a 00F10803 		add	r3, r0, #8
 168              	.LVL13:
 169 001e 4360     		str	r3, [r0, #4]
 170              	.LVL14:
 522:C:/Users/lenovo/Desktop/liteos/Project2/BearPi_LiteOS/components/security/mbedtls/mbedtls-2.6.0/library\aes.c ****     {
 171              		.loc 1 522 0
 172 0020 0025     		movs	r5, #0
 173 0022 15E0     		b	.L18
 174              	.LVL15:
 175              	.L14:
 176              	.LCFI4:
 177              		.cfi_def_cfa_offset 0
 178              		.cfi_restore 4
 179              		.cfi_restore 5
 180              		.cfi_restore 6
 181              		.cfi_restore 7
 502:C:/Users/lenovo/Desktop/liteos/Project2/BearPi_LiteOS/components/security/mbedtls/mbedtls-2.6.0/library\aes.c ****         case 256: ctx->nr = 14; break;
 182              		.loc 1 502 0
 183 0024 0C23     		movs	r3, #12
 184 0026 0360     		str	r3, [r0]
 185 0028 F6E7     		b	.L17
 186              	.L15:
 503:C:/Users/lenovo/Desktop/liteos/Project2/BearPi_LiteOS/components/security/mbedtls/mbedtls-2.6.0/library\aes.c ****         default : return( MBEDTLS_ERR_AES_INVALID_KEY_LENGTH );
 187              		.loc 1 503 0
 188 002a 0E23     		movs	r3, #14
 189 002c 0360     		str	r3, [r0]
 190 002e F3E7     		b	.L17
 191              	.LVL16:
 192              	.L19:
 193              	.LCFI5:
 194              		.cfi_def_cfa_offset 16
 195              		.cfi_offset 4, -16
 196              		.cfi_offset 5, -12
 197              		.cfi_offset 6, -8
 198              		.cfi_offset 7, -4
 524:C:/Users/lenovo/Desktop/liteos/Project2/BearPi_LiteOS/components/security/mbedtls/mbedtls-2.6.0/library\aes.c ****     }
 199              		.loc 1 524 0 discriminator 3
 200 0030 11F82540 		ldrb	r4, [r1, r5, lsl #2]	@ zero_extendqisi2
 201 0034 01EB8506 		add	r6, r1, r5, lsl #2
 202 0038 7778     		ldrb	r7, [r6, #1]	@ zero_extendqisi2
 203 003a 44EA0724 		orr	r4, r4, r7, lsl #8
 204 003e B778     		ldrb	r7, [r6, #2]	@ zero_extendqisi2
 205 0040 44EA0744 		orr	r4, r4, r7, lsl #16
 206 0044 F678     		ldrb	r6, [r6, #3]	@ zero_extendqisi2
ARM GAS  c:\Users\lenovo\AppData\Local\Temp\ccpYsKo5.s 			page 15


 207 0046 44EA0664 		orr	r4, r4, r6, lsl #24
 208 004a 43F82540 		str	r4, [r3, r5, lsl #2]
 522:C:/Users/lenovo/Desktop/liteos/Project2/BearPi_LiteOS/components/security/mbedtls/mbedtls-2.6.0/library\aes.c ****     {
 209              		.loc 1 522 0 discriminator 3
 210 004e 0135     		adds	r5, r5, #1
 211              	.LVL17:
 212              	.L18:
 522:C:/Users/lenovo/Desktop/liteos/Project2/BearPi_LiteOS/components/security/mbedtls/mbedtls-2.6.0/library\aes.c ****     {
 213              		.loc 1 522 0 is_stmt 0 discriminator 1
 214 0050 B5EB521F 		cmp	r5, r2, lsr #5
 215 0054 ECD3     		bcc	.L19
 527:C:/Users/lenovo/Desktop/liteos/Project2/BearPi_LiteOS/components/security/mbedtls/mbedtls-2.6.0/library\aes.c ****     {
 216              		.loc 1 527 0 is_stmt 1
 217 0056 0268     		ldr	r2, [r0]
 218              	.LVL18:
 219 0058 0C2A     		cmp	r2, #12
 220 005a 5DD0     		beq	.L29
 221 005c 0E2A     		cmp	r2, #14
 222 005e 00F0A080 		beq	.L30
 223 0062 0A2A     		cmp	r2, #10
 224 0064 29D0     		beq	.L37
 590:C:/Users/lenovo/Desktop/liteos/Project2/BearPi_LiteOS/components/security/mbedtls/mbedtls-2.6.0/library\aes.c **** }
 225              		.loc 1 590 0
 226 0066 0020     		movs	r0, #0
 227              	.LVL19:
 228 0068 25E0     		b	.L12
 229              	.LVL20:
 230              	.L23:
 533:C:/Users/lenovo/Desktop/liteos/Project2/BearPi_LiteOS/components/security/mbedtls/mbedtls-2.6.0/library\aes.c ****                 ( (uint32_t) FSb[ ( RK[3] >>  8 ) & 0xFF ]       ) ^
 231              		.loc 1 533 0 discriminator 3
 232 006a 1A68     		ldr	r2, [r3]
 233 006c 4E49     		ldr	r1, .L38
 234 006e 51F82410 		ldr	r1, [r1, r4, lsl #2]
 235 0072 4A40     		eors	r2, r2, r1
 534:C:/Users/lenovo/Desktop/liteos/Project2/BearPi_LiteOS/components/security/mbedtls/mbedtls-2.6.0/library\aes.c ****                 ( (uint32_t) FSb[ ( RK[3] >> 16 ) & 0xFF ] <<  8 ) ^
 236              		.loc 1 534 0 discriminator 3
 237 0074 D968     		ldr	r1, [r3, #12]
 238 0076 C1F30725 		ubfx	r5, r1, #8, #8
 239 007a 4C48     		ldr	r0, .L38+4
 240 007c 455D     		ldrb	r5, [r0, r5]	@ zero_extendqisi2
 533:C:/Users/lenovo/Desktop/liteos/Project2/BearPi_LiteOS/components/security/mbedtls/mbedtls-2.6.0/library\aes.c ****                 ( (uint32_t) FSb[ ( RK[3] >>  8 ) & 0xFF ]       ) ^
 241              		.loc 1 533 0 discriminator 3
 242 007e 6A40     		eors	r2, r2, r5
 535:C:/Users/lenovo/Desktop/liteos/Project2/BearPi_LiteOS/components/security/mbedtls/mbedtls-2.6.0/library\aes.c ****                 ( (uint32_t) FSb[ ( RK[3] >> 24 ) & 0xFF ] << 16 ) ^
 243              		.loc 1 535 0 discriminator 3
 244 0080 C1F30745 		ubfx	r5, r1, #16, #8
 245 0084 455D     		ldrb	r5, [r0, r5]	@ zero_extendqisi2
 534:C:/Users/lenovo/Desktop/liteos/Project2/BearPi_LiteOS/components/security/mbedtls/mbedtls-2.6.0/library\aes.c ****                 ( (uint32_t) FSb[ ( RK[3] >> 16 ) & 0xFF ] <<  8 ) ^
 246              		.loc 1 534 0 discriminator 3
 247 0086 82EA0522 		eor	r2, r2, r5, lsl #8
 536:C:/Users/lenovo/Desktop/liteos/Project2/BearPi_LiteOS/components/security/mbedtls/mbedtls-2.6.0/library\aes.c ****                 ( (uint32_t) FSb[ ( RK[3]       ) & 0xFF ] << 24 );
 248              		.loc 1 536 0 discriminator 3
 249 008a 0D0E     		lsrs	r5, r1, #24
 250 008c 455D     		ldrb	r5, [r0, r5]	@ zero_extendqisi2
 535:C:/Users/lenovo/Desktop/liteos/Project2/BearPi_LiteOS/components/security/mbedtls/mbedtls-2.6.0/library\aes.c ****                 ( (uint32_t) FSb[ ( RK[3] >> 24 ) & 0xFF ] << 16 ) ^
 251              		.loc 1 535 0 discriminator 3
 252 008e 82EA0542 		eor	r2, r2, r5, lsl #16
ARM GAS  c:\Users\lenovo\AppData\Local\Temp\ccpYsKo5.s 			page 16


 537:C:/Users/lenovo/Desktop/liteos/Project2/BearPi_LiteOS/components/security/mbedtls/mbedtls-2.6.0/library\aes.c **** 
 253              		.loc 1 537 0 discriminator 3
 254 0092 CDB2     		uxtb	r5, r1
 255 0094 405D     		ldrb	r0, [r0, r5]	@ zero_extendqisi2
 536:C:/Users/lenovo/Desktop/liteos/Project2/BearPi_LiteOS/components/security/mbedtls/mbedtls-2.6.0/library\aes.c ****                 ( (uint32_t) FSb[ ( RK[3]       ) & 0xFF ] << 24 );
 256              		.loc 1 536 0 discriminator 3
 257 0096 82EA0062 		eor	r2, r2, r0, lsl #24
 533:C:/Users/lenovo/Desktop/liteos/Project2/BearPi_LiteOS/components/security/mbedtls/mbedtls-2.6.0/library\aes.c ****                 ( (uint32_t) FSb[ ( RK[3] >>  8 ) & 0xFF ]       ) ^
 258              		.loc 1 533 0 discriminator 3
 259 009a 1A61     		str	r2, [r3, #16]
 539:C:/Users/lenovo/Desktop/liteos/Project2/BearPi_LiteOS/components/security/mbedtls/mbedtls-2.6.0/library\aes.c ****                 RK[6]  = RK[2] ^ RK[5];
 260              		.loc 1 539 0 discriminator 3
 261 009c 5868     		ldr	r0, [r3, #4]
 262 009e 4240     		eors	r2, r2, r0
 263 00a0 5A61     		str	r2, [r3, #20]
 540:C:/Users/lenovo/Desktop/liteos/Project2/BearPi_LiteOS/components/security/mbedtls/mbedtls-2.6.0/library\aes.c ****                 RK[7]  = RK[3] ^ RK[6];
 264              		.loc 1 540 0 discriminator 3
 265 00a2 9868     		ldr	r0, [r3, #8]
 266 00a4 4240     		eors	r2, r2, r0
 267 00a6 9A61     		str	r2, [r3, #24]
 541:C:/Users/lenovo/Desktop/liteos/Project2/BearPi_LiteOS/components/security/mbedtls/mbedtls-2.6.0/library\aes.c ****             }
 268              		.loc 1 541 0 discriminator 3
 269 00a8 4A40     		eors	r2, r2, r1
 270 00aa DA61     		str	r2, [r3, #28]
 531:C:/Users/lenovo/Desktop/liteos/Project2/BearPi_LiteOS/components/security/mbedtls/mbedtls-2.6.0/library\aes.c ****             {
 271              		.loc 1 531 0 discriminator 3
 272 00ac 0134     		adds	r4, r4, #1
 273              	.LVL21:
 274 00ae 1033     		adds	r3, r3, #16
 275              	.LVL22:
 276              	.L22:
 531:C:/Users/lenovo/Desktop/liteos/Project2/BearPi_LiteOS/components/security/mbedtls/mbedtls-2.6.0/library\aes.c ****             {
 277              		.loc 1 531 0 is_stmt 0 discriminator 1
 278 00b0 092C     		cmp	r4, #9
 279 00b2 DAD9     		bls	.L23
 590:C:/Users/lenovo/Desktop/liteos/Project2/BearPi_LiteOS/components/security/mbedtls/mbedtls-2.6.0/library\aes.c **** }
 280              		.loc 1 590 0 is_stmt 1
 281 00b4 0020     		movs	r0, #0
 282              	.LVL23:
 283              	.L12:
 284              		.loc 1 591 0
 285 00b6 F0BC     		pop	{r4, r5, r6, r7}
 286              	.LCFI6:
 287              		.cfi_remember_state
 288              		.cfi_restore 7
 289              		.cfi_restore 6
 290              		.cfi_restore 5
 291              		.cfi_restore 4
 292              		.cfi_def_cfa_offset 0
 293 00b8 7047     		bx	lr
 294              	.LVL24:
 295              	.L37:
 296              	.LCFI7:
 297              		.cfi_restore_state
 531:C:/Users/lenovo/Desktop/liteos/Project2/BearPi_LiteOS/components/security/mbedtls/mbedtls-2.6.0/library\aes.c ****             {
 298              		.loc 1 531 0
 299 00ba 0024     		movs	r4, #0
ARM GAS  c:\Users\lenovo\AppData\Local\Temp\ccpYsKo5.s 			page 17


 300 00bc F8E7     		b	.L22
 301              	.LVL25:
 302              	.L24:
 549:C:/Users/lenovo/Desktop/liteos/Project2/BearPi_LiteOS/components/security/mbedtls/mbedtls-2.6.0/library\aes.c ****                 ( (uint32_t) FSb[ ( RK[5] >>  8 ) & 0xFF ]       ) ^
 303              		.loc 1 549 0 discriminator 3
 304 00be 1A68     		ldr	r2, [r3]
 305 00c0 3949     		ldr	r1, .L38
 306 00c2 51F82010 		ldr	r1, [r1, r0, lsl #2]
 307 00c6 4A40     		eors	r2, r2, r1
 550:C:/Users/lenovo/Desktop/liteos/Project2/BearPi_LiteOS/components/security/mbedtls/mbedtls-2.6.0/library\aes.c ****                 ( (uint32_t) FSb[ ( RK[5] >> 16 ) & 0xFF ] <<  8 ) ^
 308              		.loc 1 550 0 discriminator 3
 309 00c8 5969     		ldr	r1, [r3, #20]
 310 00ca C1F30725 		ubfx	r5, r1, #8, #8
 311 00ce 374C     		ldr	r4, .L38+4
 312 00d0 655D     		ldrb	r5, [r4, r5]	@ zero_extendqisi2
 549:C:/Users/lenovo/Desktop/liteos/Project2/BearPi_LiteOS/components/security/mbedtls/mbedtls-2.6.0/library\aes.c ****                 ( (uint32_t) FSb[ ( RK[5] >>  8 ) & 0xFF ]       ) ^
 313              		.loc 1 549 0 discriminator 3
 314 00d2 6A40     		eors	r2, r2, r5
 551:C:/Users/lenovo/Desktop/liteos/Project2/BearPi_LiteOS/components/security/mbedtls/mbedtls-2.6.0/library\aes.c ****                 ( (uint32_t) FSb[ ( RK[5] >> 24 ) & 0xFF ] << 16 ) ^
 315              		.loc 1 551 0 discriminator 3
 316 00d4 C1F30745 		ubfx	r5, r1, #16, #8
 317 00d8 655D     		ldrb	r5, [r4, r5]	@ zero_extendqisi2
 550:C:/Users/lenovo/Desktop/liteos/Project2/BearPi_LiteOS/components/security/mbedtls/mbedtls-2.6.0/library\aes.c ****                 ( (uint32_t) FSb[ ( RK[5] >> 16 ) & 0xFF ] <<  8 ) ^
 318              		.loc 1 550 0 discriminator 3
 319 00da 82EA0522 		eor	r2, r2, r5, lsl #8
 552:C:/Users/lenovo/Desktop/liteos/Project2/BearPi_LiteOS/components/security/mbedtls/mbedtls-2.6.0/library\aes.c ****                 ( (uint32_t) FSb[ ( RK[5]       ) & 0xFF ] << 24 );
 320              		.loc 1 552 0 discriminator 3
 321 00de 0D0E     		lsrs	r5, r1, #24
 322 00e0 655D     		ldrb	r5, [r4, r5]	@ zero_extendqisi2
 551:C:/Users/lenovo/Desktop/liteos/Project2/BearPi_LiteOS/components/security/mbedtls/mbedtls-2.6.0/library\aes.c ****                 ( (uint32_t) FSb[ ( RK[5] >> 24 ) & 0xFF ] << 16 ) ^
 323              		.loc 1 551 0 discriminator 3
 324 00e2 82EA0542 		eor	r2, r2, r5, lsl #16
 553:C:/Users/lenovo/Desktop/liteos/Project2/BearPi_LiteOS/components/security/mbedtls/mbedtls-2.6.0/library\aes.c **** 
 325              		.loc 1 553 0 discriminator 3
 326 00e6 CDB2     		uxtb	r5, r1
 327 00e8 645D     		ldrb	r4, [r4, r5]	@ zero_extendqisi2
 552:C:/Users/lenovo/Desktop/liteos/Project2/BearPi_LiteOS/components/security/mbedtls/mbedtls-2.6.0/library\aes.c ****                 ( (uint32_t) FSb[ ( RK[5]       ) & 0xFF ] << 24 );
 328              		.loc 1 552 0 discriminator 3
 329 00ea 82EA0462 		eor	r2, r2, r4, lsl #24
 549:C:/Users/lenovo/Desktop/liteos/Project2/BearPi_LiteOS/components/security/mbedtls/mbedtls-2.6.0/library\aes.c ****                 ( (uint32_t) FSb[ ( RK[5] >>  8 ) & 0xFF ]       ) ^
 330              		.loc 1 549 0 discriminator 3
 331 00ee 9A61     		str	r2, [r3, #24]
 555:C:/Users/lenovo/Desktop/liteos/Project2/BearPi_LiteOS/components/security/mbedtls/mbedtls-2.6.0/library\aes.c ****                 RK[8]  = RK[2] ^ RK[7];
 332              		.loc 1 555 0 discriminator 3
 333 00f0 5C68     		ldr	r4, [r3, #4]
 334 00f2 6240     		eors	r2, r2, r4
 335 00f4 DA61     		str	r2, [r3, #28]
 556:C:/Users/lenovo/Desktop/liteos/Project2/BearPi_LiteOS/components/security/mbedtls/mbedtls-2.6.0/library\aes.c ****                 RK[9]  = RK[3] ^ RK[8];
 336              		.loc 1 556 0 discriminator 3
 337 00f6 9C68     		ldr	r4, [r3, #8]
 338 00f8 6240     		eors	r2, r2, r4
 339 00fa 1A62     		str	r2, [r3, #32]
 557:C:/Users/lenovo/Desktop/liteos/Project2/BearPi_LiteOS/components/security/mbedtls/mbedtls-2.6.0/library\aes.c ****                 RK[10] = RK[4] ^ RK[9];
 340              		.loc 1 557 0 discriminator 3
 341 00fc DC68     		ldr	r4, [r3, #12]
 342 00fe 6240     		eors	r2, r2, r4
 343 0100 5A62     		str	r2, [r3, #36]
ARM GAS  c:\Users\lenovo\AppData\Local\Temp\ccpYsKo5.s 			page 18


 558:C:/Users/lenovo/Desktop/liteos/Project2/BearPi_LiteOS/components/security/mbedtls/mbedtls-2.6.0/library\aes.c ****                 RK[11] = RK[5] ^ RK[10];
 344              		.loc 1 558 0 discriminator 3
 345 0102 1C69     		ldr	r4, [r3, #16]
 346 0104 6240     		eors	r2, r2, r4
 347 0106 9A62     		str	r2, [r3, #40]
 559:C:/Users/lenovo/Desktop/liteos/Project2/BearPi_LiteOS/components/security/mbedtls/mbedtls-2.6.0/library\aes.c ****             }
 348              		.loc 1 559 0 discriminator 3
 349 0108 4A40     		eors	r2, r2, r1
 350 010a DA62     		str	r2, [r3, #44]
 547:C:/Users/lenovo/Desktop/liteos/Project2/BearPi_LiteOS/components/security/mbedtls/mbedtls-2.6.0/library\aes.c ****             {
 351              		.loc 1 547 0 discriminator 3
 352 010c 0130     		adds	r0, r0, #1
 353              	.LVL26:
 354 010e 1833     		adds	r3, r3, #24
 355              	.LVL27:
 356              	.L20:
 547:C:/Users/lenovo/Desktop/liteos/Project2/BearPi_LiteOS/components/security/mbedtls/mbedtls-2.6.0/library\aes.c ****             {
 357              		.loc 1 547 0 is_stmt 0 discriminator 1
 358 0110 0728     		cmp	r0, #7
 359 0112 D4D9     		bls	.L24
 590:C:/Users/lenovo/Desktop/liteos/Project2/BearPi_LiteOS/components/security/mbedtls/mbedtls-2.6.0/library\aes.c **** }
 360              		.loc 1 590 0 is_stmt 1
 361 0114 0020     		movs	r0, #0
 362              	.LVL28:
 363 0116 CEE7     		b	.L12
 364              	.LVL29:
 365              	.L29:
 547:C:/Users/lenovo/Desktop/liteos/Project2/BearPi_LiteOS/components/security/mbedtls/mbedtls-2.6.0/library\aes.c ****             {
 366              		.loc 1 547 0
 367 0118 0020     		movs	r0, #0
 368              	.LVL30:
 369 011a F9E7     		b	.L20
 370              	.LVL31:
 371              	.L25:
 567:C:/Users/lenovo/Desktop/liteos/Project2/BearPi_LiteOS/components/security/mbedtls/mbedtls-2.6.0/library\aes.c ****                 ( (uint32_t) FSb[ ( RK[7] >>  8 ) & 0xFF ]       ) ^
 372              		.loc 1 567 0 discriminator 3
 373 011c 1A68     		ldr	r2, [r3]
 374 011e 2248     		ldr	r0, .L38
 375 0120 50F82100 		ldr	r0, [r0, r1, lsl #2]
 376 0124 4240     		eors	r2, r2, r0
 568:C:/Users/lenovo/Desktop/liteos/Project2/BearPi_LiteOS/components/security/mbedtls/mbedtls-2.6.0/library\aes.c ****                 ( (uint32_t) FSb[ ( RK[7] >> 16 ) & 0xFF ] <<  8 ) ^
 377              		.loc 1 568 0 discriminator 3
 378 0126 D869     		ldr	r0, [r3, #28]
 379 0128 C0F30724 		ubfx	r4, r0, #8, #8
 380 012c 1F4D     		ldr	r5, .L38+4
 381 012e 2C5D     		ldrb	r4, [r5, r4]	@ zero_extendqisi2
 567:C:/Users/lenovo/Desktop/liteos/Project2/BearPi_LiteOS/components/security/mbedtls/mbedtls-2.6.0/library\aes.c ****                 ( (uint32_t) FSb[ ( RK[7] >>  8 ) & 0xFF ]       ) ^
 382              		.loc 1 567 0 discriminator 3
 383 0130 6240     		eors	r2, r2, r4
 569:C:/Users/lenovo/Desktop/liteos/Project2/BearPi_LiteOS/components/security/mbedtls/mbedtls-2.6.0/library\aes.c ****                 ( (uint32_t) FSb[ ( RK[7] >> 24 ) & 0xFF ] << 16 ) ^
 384              		.loc 1 569 0 discriminator 3
 385 0132 C0F30744 		ubfx	r4, r0, #16, #8
 386 0136 2C5D     		ldrb	r4, [r5, r4]	@ zero_extendqisi2
 568:C:/Users/lenovo/Desktop/liteos/Project2/BearPi_LiteOS/components/security/mbedtls/mbedtls-2.6.0/library\aes.c ****                 ( (uint32_t) FSb[ ( RK[7] >> 16 ) & 0xFF ] <<  8 ) ^
 387              		.loc 1 568 0 discriminator 3
 388 0138 82EA0422 		eor	r2, r2, r4, lsl #8
 570:C:/Users/lenovo/Desktop/liteos/Project2/BearPi_LiteOS/components/security/mbedtls/mbedtls-2.6.0/library\aes.c ****                 ( (uint32_t) FSb[ ( RK[7]       ) & 0xFF ] << 24 );
ARM GAS  c:\Users\lenovo\AppData\Local\Temp\ccpYsKo5.s 			page 19


 389              		.loc 1 570 0 discriminator 3
 390 013c 040E     		lsrs	r4, r0, #24
 391 013e 2C5D     		ldrb	r4, [r5, r4]	@ zero_extendqisi2
 569:C:/Users/lenovo/Desktop/liteos/Project2/BearPi_LiteOS/components/security/mbedtls/mbedtls-2.6.0/library\aes.c ****                 ( (uint32_t) FSb[ ( RK[7] >> 24 ) & 0xFF ] << 16 ) ^
 392              		.loc 1 569 0 discriminator 3
 393 0140 82EA0442 		eor	r2, r2, r4, lsl #16
 571:C:/Users/lenovo/Desktop/liteos/Project2/BearPi_LiteOS/components/security/mbedtls/mbedtls-2.6.0/library\aes.c **** 
 394              		.loc 1 571 0 discriminator 3
 395 0144 C4B2     		uxtb	r4, r0
 396 0146 2C5D     		ldrb	r4, [r5, r4]	@ zero_extendqisi2
 570:C:/Users/lenovo/Desktop/liteos/Project2/BearPi_LiteOS/components/security/mbedtls/mbedtls-2.6.0/library\aes.c ****                 ( (uint32_t) FSb[ ( RK[7]       ) & 0xFF ] << 24 );
 397              		.loc 1 570 0 discriminator 3
 398 0148 82EA0462 		eor	r2, r2, r4, lsl #24
 567:C:/Users/lenovo/Desktop/liteos/Project2/BearPi_LiteOS/components/security/mbedtls/mbedtls-2.6.0/library\aes.c ****                 ( (uint32_t) FSb[ ( RK[7] >>  8 ) & 0xFF ]       ) ^
 399              		.loc 1 567 0 discriminator 3
 400 014c 1A62     		str	r2, [r3, #32]
 573:C:/Users/lenovo/Desktop/liteos/Project2/BearPi_LiteOS/components/security/mbedtls/mbedtls-2.6.0/library\aes.c ****                 RK[10] = RK[2] ^ RK[9];
 401              		.loc 1 573 0 discriminator 3
 402 014e 5C68     		ldr	r4, [r3, #4]
 403 0150 6240     		eors	r2, r2, r4
 404 0152 5A62     		str	r2, [r3, #36]
 574:C:/Users/lenovo/Desktop/liteos/Project2/BearPi_LiteOS/components/security/mbedtls/mbedtls-2.6.0/library\aes.c ****                 RK[11] = RK[3] ^ RK[10];
 405              		.loc 1 574 0 discriminator 3
 406 0154 9C68     		ldr	r4, [r3, #8]
 407 0156 6240     		eors	r2, r2, r4
 408 0158 9A62     		str	r2, [r3, #40]
 575:C:/Users/lenovo/Desktop/liteos/Project2/BearPi_LiteOS/components/security/mbedtls/mbedtls-2.6.0/library\aes.c **** 
 409              		.loc 1 575 0 discriminator 3
 410 015a DC68     		ldr	r4, [r3, #12]
 411 015c 6240     		eors	r2, r2, r4
 412 015e DA62     		str	r2, [r3, #44]
 577:C:/Users/lenovo/Desktop/liteos/Project2/BearPi_LiteOS/components/security/mbedtls/mbedtls-2.6.0/library\aes.c ****                 ( (uint32_t) FSb[ ( RK[11]       ) & 0xFF ]       ) ^
 413              		.loc 1 577 0 discriminator 3
 414 0160 1C69     		ldr	r4, [r3, #16]
 578:C:/Users/lenovo/Desktop/liteos/Project2/BearPi_LiteOS/components/security/mbedtls/mbedtls-2.6.0/library\aes.c ****                 ( (uint32_t) FSb[ ( RK[11] >>  8 ) & 0xFF ] <<  8 ) ^
 415              		.loc 1 578 0 discriminator 3
 416 0162 D6B2     		uxtb	r6, r2
 417 0164 AE5D     		ldrb	r6, [r5, r6]	@ zero_extendqisi2
 577:C:/Users/lenovo/Desktop/liteos/Project2/BearPi_LiteOS/components/security/mbedtls/mbedtls-2.6.0/library\aes.c ****                 ( (uint32_t) FSb[ ( RK[11]       ) & 0xFF ]       ) ^
 418              		.loc 1 577 0 discriminator 3
 419 0166 7440     		eors	r4, r4, r6
 579:C:/Users/lenovo/Desktop/liteos/Project2/BearPi_LiteOS/components/security/mbedtls/mbedtls-2.6.0/library\aes.c ****                 ( (uint32_t) FSb[ ( RK[11] >> 16 ) & 0xFF ] << 16 ) ^
 420              		.loc 1 579 0 discriminator 3
 421 0168 C2F30726 		ubfx	r6, r2, #8, #8
 422 016c AE5D     		ldrb	r6, [r5, r6]	@ zero_extendqisi2
 578:C:/Users/lenovo/Desktop/liteos/Project2/BearPi_LiteOS/components/security/mbedtls/mbedtls-2.6.0/library\aes.c ****                 ( (uint32_t) FSb[ ( RK[11] >>  8 ) & 0xFF ] <<  8 ) ^
 423              		.loc 1 578 0 discriminator 3
 424 016e 84EA0624 		eor	r4, r4, r6, lsl #8
 580:C:/Users/lenovo/Desktop/liteos/Project2/BearPi_LiteOS/components/security/mbedtls/mbedtls-2.6.0/library\aes.c ****                 ( (uint32_t) FSb[ ( RK[11] >> 24 ) & 0xFF ] << 24 );
 425              		.loc 1 580 0 discriminator 3
 426 0172 C2F30746 		ubfx	r6, r2, #16, #8
 427 0176 AE5D     		ldrb	r6, [r5, r6]	@ zero_extendqisi2
 579:C:/Users/lenovo/Desktop/liteos/Project2/BearPi_LiteOS/components/security/mbedtls/mbedtls-2.6.0/library\aes.c ****                 ( (uint32_t) FSb[ ( RK[11] >> 16 ) & 0xFF ] << 16 ) ^
 428              		.loc 1 579 0 discriminator 3
 429 0178 84EA0644 		eor	r4, r4, r6, lsl #16
 581:C:/Users/lenovo/Desktop/liteos/Project2/BearPi_LiteOS/components/security/mbedtls/mbedtls-2.6.0/library\aes.c **** 
 430              		.loc 1 581 0 discriminator 3
ARM GAS  c:\Users\lenovo\AppData\Local\Temp\ccpYsKo5.s 			page 20


 431 017c 120E     		lsrs	r2, r2, #24
 432 017e AA5C     		ldrb	r2, [r5, r2]	@ zero_extendqisi2
 580:C:/Users/lenovo/Desktop/liteos/Project2/BearPi_LiteOS/components/security/mbedtls/mbedtls-2.6.0/library\aes.c ****                 ( (uint32_t) FSb[ ( RK[11] >> 24 ) & 0xFF ] << 24 );
 433              		.loc 1 580 0 discriminator 3
 434 0180 84EA0262 		eor	r2, r4, r2, lsl #24
 577:C:/Users/lenovo/Desktop/liteos/Project2/BearPi_LiteOS/components/security/mbedtls/mbedtls-2.6.0/library\aes.c ****                 ( (uint32_t) FSb[ ( RK[11]       ) & 0xFF ]       ) ^
 435              		.loc 1 577 0 discriminator 3
 436 0184 1A63     		str	r2, [r3, #48]
 583:C:/Users/lenovo/Desktop/liteos/Project2/BearPi_LiteOS/components/security/mbedtls/mbedtls-2.6.0/library\aes.c ****                 RK[14] = RK[6] ^ RK[13];
 437              		.loc 1 583 0 discriminator 3
 438 0186 5C69     		ldr	r4, [r3, #20]
 439 0188 6240     		eors	r2, r2, r4
 440 018a 5A63     		str	r2, [r3, #52]
 584:C:/Users/lenovo/Desktop/liteos/Project2/BearPi_LiteOS/components/security/mbedtls/mbedtls-2.6.0/library\aes.c ****                 RK[15] = RK[7] ^ RK[14];
 441              		.loc 1 584 0 discriminator 3
 442 018c 9C69     		ldr	r4, [r3, #24]
 443 018e 6240     		eors	r2, r2, r4
 444 0190 9A63     		str	r2, [r3, #56]
 585:C:/Users/lenovo/Desktop/liteos/Project2/BearPi_LiteOS/components/security/mbedtls/mbedtls-2.6.0/library\aes.c ****             }
 445              		.loc 1 585 0 discriminator 3
 446 0192 4240     		eors	r2, r2, r0
 447 0194 DA63     		str	r2, [r3, #60]
 565:C:/Users/lenovo/Desktop/liteos/Project2/BearPi_LiteOS/components/security/mbedtls/mbedtls-2.6.0/library\aes.c ****             {
 448              		.loc 1 565 0 discriminator 3
 449 0196 0131     		adds	r1, r1, #1
 450              	.LVL32:
 451 0198 2033     		adds	r3, r3, #32
 452              	.LVL33:
 453              	.L21:
 565:C:/Users/lenovo/Desktop/liteos/Project2/BearPi_LiteOS/components/security/mbedtls/mbedtls-2.6.0/library\aes.c ****             {
 454              		.loc 1 565 0 is_stmt 0 discriminator 1
 455 019a 0629     		cmp	r1, #6
 456 019c BED9     		bls	.L25
 590:C:/Users/lenovo/Desktop/liteos/Project2/BearPi_LiteOS/components/security/mbedtls/mbedtls-2.6.0/library\aes.c **** }
 457              		.loc 1 590 0 is_stmt 1
 458 019e 0020     		movs	r0, #0
 459 01a0 89E7     		b	.L12
 460              	.LVL34:
 461              	.L30:
 565:C:/Users/lenovo/Desktop/liteos/Project2/BearPi_LiteOS/components/security/mbedtls/mbedtls-2.6.0/library\aes.c ****             {
 462              		.loc 1 565 0
 463 01a2 0021     		movs	r1, #0
 464              	.LVL35:
 465 01a4 F9E7     		b	.L21
 466              	.L39:
 467 01a6 00BF     		.align	2
 468              	.L38:
 469 01a8 00000000 		.word	.LANCHOR0
 470 01ac 00000000 		.word	.LANCHOR1
 471              		.cfi_endproc
 472              	.LFE3:
 474              		.section	.text.mbedtls_aes_setkey_dec,"ax",%progbits
 475              		.align	1
 476              		.global	mbedtls_aes_setkey_dec
 477              		.syntax unified
 478              		.thumb
 479              		.thumb_func
ARM GAS  c:\Users\lenovo\AppData\Local\Temp\ccpYsKo5.s 			page 21


 480              		.fpu fpv4-sp-d16
 482              	mbedtls_aes_setkey_dec:
 483              	.LFB4:
 592:C:/Users/lenovo/Desktop/liteos/Project2/BearPi_LiteOS/components/security/mbedtls/mbedtls-2.6.0/library\aes.c **** #endif /* !MBEDTLS_AES_SETKEY_ENC_ALT */
 593:C:/Users/lenovo/Desktop/liteos/Project2/BearPi_LiteOS/components/security/mbedtls/mbedtls-2.6.0/library\aes.c **** 
 594:C:/Users/lenovo/Desktop/liteos/Project2/BearPi_LiteOS/components/security/mbedtls/mbedtls-2.6.0/library\aes.c **** /*
 595:C:/Users/lenovo/Desktop/liteos/Project2/BearPi_LiteOS/components/security/mbedtls/mbedtls-2.6.0/library\aes.c ****  * AES key schedule (decryption)
 596:C:/Users/lenovo/Desktop/liteos/Project2/BearPi_LiteOS/components/security/mbedtls/mbedtls-2.6.0/library\aes.c ****  */
 597:C:/Users/lenovo/Desktop/liteos/Project2/BearPi_LiteOS/components/security/mbedtls/mbedtls-2.6.0/library\aes.c **** #if !defined(MBEDTLS_AES_SETKEY_DEC_ALT)
 598:C:/Users/lenovo/Desktop/liteos/Project2/BearPi_LiteOS/components/security/mbedtls/mbedtls-2.6.0/library\aes.c **** int mbedtls_aes_setkey_dec( mbedtls_aes_context *ctx, const unsigned char *key,
 599:C:/Users/lenovo/Desktop/liteos/Project2/BearPi_LiteOS/components/security/mbedtls/mbedtls-2.6.0/library\aes.c ****                     unsigned int keybits )
 600:C:/Users/lenovo/Desktop/liteos/Project2/BearPi_LiteOS/components/security/mbedtls/mbedtls-2.6.0/library\aes.c **** {
 484              		.loc 1 600 0
 485              		.cfi_startproc
 486              		@ args = 0, pretend = 0, frame = 280
 487              		@ frame_needed = 0, uses_anonymous_args = 0
 488              	.LVL36:
 489 0000 2DE9F043 		push	{r4, r5, r6, r7, r8, r9, lr}
 490              	.LCFI8:
 491              		.cfi_def_cfa_offset 28
 492              		.cfi_offset 4, -28
 493              		.cfi_offset 5, -24
 494              		.cfi_offset 6, -20
 495              		.cfi_offset 7, -16
 496              		.cfi_offset 8, -12
 497              		.cfi_offset 9, -8
 498              		.cfi_offset 14, -4
 499 0004 C7B0     		sub	sp, sp, #284
 500              	.LCFI9:
 501              		.cfi_def_cfa_offset 312
 502 0006 8046     		mov	r8, r0
 503 0008 0C46     		mov	r4, r1
 504 000a 1546     		mov	r5, r2
 601:C:/Users/lenovo/Desktop/liteos/Project2/BearPi_LiteOS/components/security/mbedtls/mbedtls-2.6.0/library\aes.c ****     int i, j, ret;
 602:C:/Users/lenovo/Desktop/liteos/Project2/BearPi_LiteOS/components/security/mbedtls/mbedtls-2.6.0/library\aes.c ****     mbedtls_aes_context cty;
 603:C:/Users/lenovo/Desktop/liteos/Project2/BearPi_LiteOS/components/security/mbedtls/mbedtls-2.6.0/library\aes.c ****     uint32_t *RK;
 604:C:/Users/lenovo/Desktop/liteos/Project2/BearPi_LiteOS/components/security/mbedtls/mbedtls-2.6.0/library\aes.c ****     uint32_t *SK;
 605:C:/Users/lenovo/Desktop/liteos/Project2/BearPi_LiteOS/components/security/mbedtls/mbedtls-2.6.0/library\aes.c **** 
 606:C:/Users/lenovo/Desktop/liteos/Project2/BearPi_LiteOS/components/security/mbedtls/mbedtls-2.6.0/library\aes.c ****     mbedtls_aes_init( &cty );
 505              		.loc 1 606 0
 506 000c 6846     		mov	r0, sp
 507              	.LVL37:
 508 000e FFF7FEFF 		bl	mbedtls_aes_init
 509              	.LVL38:
 607:C:/Users/lenovo/Desktop/liteos/Project2/BearPi_LiteOS/components/security/mbedtls/mbedtls-2.6.0/library\aes.c **** 
 608:C:/Users/lenovo/Desktop/liteos/Project2/BearPi_LiteOS/components/security/mbedtls/mbedtls-2.6.0/library\aes.c **** #if defined(MBEDTLS_PADLOCK_C) && defined(MBEDTLS_PADLOCK_ALIGN16)
 609:C:/Users/lenovo/Desktop/liteos/Project2/BearPi_LiteOS/components/security/mbedtls/mbedtls-2.6.0/library\aes.c ****     if( aes_padlock_ace == -1 )
 610:C:/Users/lenovo/Desktop/liteos/Project2/BearPi_LiteOS/components/security/mbedtls/mbedtls-2.6.0/library\aes.c ****         aes_padlock_ace = mbedtls_padlock_has_support( MBEDTLS_PADLOCK_ACE );
 611:C:/Users/lenovo/Desktop/liteos/Project2/BearPi_LiteOS/components/security/mbedtls/mbedtls-2.6.0/library\aes.c **** 
 612:C:/Users/lenovo/Desktop/liteos/Project2/BearPi_LiteOS/components/security/mbedtls/mbedtls-2.6.0/library\aes.c ****     if( aes_padlock_ace )
 613:C:/Users/lenovo/Desktop/liteos/Project2/BearPi_LiteOS/components/security/mbedtls/mbedtls-2.6.0/library\aes.c ****         ctx->rk = RK = MBEDTLS_PADLOCK_ALIGN16( ctx->buf );
 614:C:/Users/lenovo/Desktop/liteos/Project2/BearPi_LiteOS/components/security/mbedtls/mbedtls-2.6.0/library\aes.c ****     else
 615:C:/Users/lenovo/Desktop/liteos/Project2/BearPi_LiteOS/components/security/mbedtls/mbedtls-2.6.0/library\aes.c **** #endif
 616:C:/Users/lenovo/Desktop/liteos/Project2/BearPi_LiteOS/components/security/mbedtls/mbedtls-2.6.0/library\aes.c ****     ctx->rk = RK = ctx->buf;
 510              		.loc 1 616 0
 511 0012 08F10803 		add	r3, r8, #8
 512              	.LVL39:
ARM GAS  c:\Users\lenovo\AppData\Local\Temp\ccpYsKo5.s 			page 22


 513 0016 C8F80430 		str	r3, [r8, #4]
 617:C:/Users/lenovo/Desktop/liteos/Project2/BearPi_LiteOS/components/security/mbedtls/mbedtls-2.6.0/library\aes.c **** 
 618:C:/Users/lenovo/Desktop/liteos/Project2/BearPi_LiteOS/components/security/mbedtls/mbedtls-2.6.0/library\aes.c ****     /* Also checks keybits */
 619:C:/Users/lenovo/Desktop/liteos/Project2/BearPi_LiteOS/components/security/mbedtls/mbedtls-2.6.0/library\aes.c ****     if( ( ret = mbedtls_aes_setkey_enc( &cty, key, keybits ) ) != 0 )
 514              		.loc 1 619 0
 515 001a 2A46     		mov	r2, r5
 516 001c 2146     		mov	r1, r4
 517 001e 6846     		mov	r0, sp
 518 0020 FFF7FEFF 		bl	mbedtls_aes_setkey_enc
 519              	.LVL40:
 520 0024 8146     		mov	r9, r0
 521 0026 0028     		cmp	r0, #0
 522 0028 48D1     		bne	.L41
 620:C:/Users/lenovo/Desktop/liteos/Project2/BearPi_LiteOS/components/security/mbedtls/mbedtls-2.6.0/library\aes.c ****         goto exit;
 621:C:/Users/lenovo/Desktop/liteos/Project2/BearPi_LiteOS/components/security/mbedtls/mbedtls-2.6.0/library\aes.c **** 
 622:C:/Users/lenovo/Desktop/liteos/Project2/BearPi_LiteOS/components/security/mbedtls/mbedtls-2.6.0/library\aes.c ****     ctx->nr = cty.nr;
 523              		.loc 1 622 0
 524 002a 009F     		ldr	r7, [sp]
 525 002c C8F80070 		str	r7, [r8]
 623:C:/Users/lenovo/Desktop/liteos/Project2/BearPi_LiteOS/components/security/mbedtls/mbedtls-2.6.0/library\aes.c **** 
 624:C:/Users/lenovo/Desktop/liteos/Project2/BearPi_LiteOS/components/security/mbedtls/mbedtls-2.6.0/library\aes.c **** #if defined(MBEDTLS_AESNI_C) && defined(MBEDTLS_HAVE_X86_64)
 625:C:/Users/lenovo/Desktop/liteos/Project2/BearPi_LiteOS/components/security/mbedtls/mbedtls-2.6.0/library\aes.c ****     if( mbedtls_aesni_has_support( MBEDTLS_AESNI_AES ) )
 626:C:/Users/lenovo/Desktop/liteos/Project2/BearPi_LiteOS/components/security/mbedtls/mbedtls-2.6.0/library\aes.c ****     {
 627:C:/Users/lenovo/Desktop/liteos/Project2/BearPi_LiteOS/components/security/mbedtls/mbedtls-2.6.0/library\aes.c ****         mbedtls_aesni_inverse_key( (unsigned char *) ctx->rk,
 628:C:/Users/lenovo/Desktop/liteos/Project2/BearPi_LiteOS/components/security/mbedtls/mbedtls-2.6.0/library\aes.c ****                            (const unsigned char *) cty.rk, ctx->nr );
 629:C:/Users/lenovo/Desktop/liteos/Project2/BearPi_LiteOS/components/security/mbedtls/mbedtls-2.6.0/library\aes.c ****         goto exit;
 630:C:/Users/lenovo/Desktop/liteos/Project2/BearPi_LiteOS/components/security/mbedtls/mbedtls-2.6.0/library\aes.c ****     }
 631:C:/Users/lenovo/Desktop/liteos/Project2/BearPi_LiteOS/components/security/mbedtls/mbedtls-2.6.0/library\aes.c **** #endif
 632:C:/Users/lenovo/Desktop/liteos/Project2/BearPi_LiteOS/components/security/mbedtls/mbedtls-2.6.0/library\aes.c **** 
 633:C:/Users/lenovo/Desktop/liteos/Project2/BearPi_LiteOS/components/security/mbedtls/mbedtls-2.6.0/library\aes.c ****     SK = cty.rk + cty.nr * 4;
 526              		.loc 1 633 0
 527 0030 019A     		ldr	r2, [sp, #4]
 528 0032 3B01     		lsls	r3, r7, #4
 529 0034 D618     		adds	r6, r2, r3
 530              	.LVL41:
 634:C:/Users/lenovo/Desktop/liteos/Project2/BearPi_LiteOS/components/security/mbedtls/mbedtls-2.6.0/library\aes.c **** 
 635:C:/Users/lenovo/Desktop/liteos/Project2/BearPi_LiteOS/components/security/mbedtls/mbedtls-2.6.0/library\aes.c ****     *RK++ = *SK++;
 531              		.loc 1 635 0
 532 0036 D358     		ldr	r3, [r2, r3]
 533 0038 C8F80830 		str	r3, [r8, #8]
 534              	.LVL42:
 636:C:/Users/lenovo/Desktop/liteos/Project2/BearPi_LiteOS/components/security/mbedtls/mbedtls-2.6.0/library\aes.c ****     *RK++ = *SK++;
 535              		.loc 1 636 0
 536 003c 7368     		ldr	r3, [r6, #4]
 537 003e C8F80C30 		str	r3, [r8, #12]
 538              	.LVL43:
 637:C:/Users/lenovo/Desktop/liteos/Project2/BearPi_LiteOS/components/security/mbedtls/mbedtls-2.6.0/library\aes.c ****     *RK++ = *SK++;
 539              		.loc 1 637 0
 540 0042 B368     		ldr	r3, [r6, #8]
 541 0044 C8F81030 		str	r3, [r8, #16]
 542              	.LVL44:
 638:C:/Users/lenovo/Desktop/liteos/Project2/BearPi_LiteOS/components/security/mbedtls/mbedtls-2.6.0/library\aes.c ****     *RK++ = *SK++;
 543              		.loc 1 638 0
 544 0048 08F11805 		add	r5, r8, #24
 545              	.LVL45:
 546 004c F368     		ldr	r3, [r6, #12]
 547 004e C8F81430 		str	r3, [r8, #20]
ARM GAS  c:\Users\lenovo\AppData\Local\Temp\ccpYsKo5.s 			page 23


 639:C:/Users/lenovo/Desktop/liteos/Project2/BearPi_LiteOS/components/security/mbedtls/mbedtls-2.6.0/library\aes.c **** 
 640:C:/Users/lenovo/Desktop/liteos/Project2/BearPi_LiteOS/components/security/mbedtls/mbedtls-2.6.0/library\aes.c ****     for( i = ctx->nr - 1, SK -= 8; i > 0; i--, SK -= 8 )
 548              		.loc 1 640 0
 549 0052 013F     		subs	r7, r7, #1
 550              	.LVL46:
 551 0054 103E     		subs	r6, r6, #16
 552              	.LVL47:
 553 0056 25E0     		b	.L42
 554              	.LVL48:
 555              	.L43:
 641:C:/Users/lenovo/Desktop/liteos/Project2/BearPi_LiteOS/components/security/mbedtls/mbedtls-2.6.0/library\aes.c ****     {
 642:C:/Users/lenovo/Desktop/liteos/Project2/BearPi_LiteOS/components/security/mbedtls/mbedtls-2.6.0/library\aes.c ****         for( j = 0; j < 4; j++, SK++ )
 643:C:/Users/lenovo/Desktop/liteos/Project2/BearPi_LiteOS/components/security/mbedtls/mbedtls-2.6.0/library\aes.c ****         {
 644:C:/Users/lenovo/Desktop/liteos/Project2/BearPi_LiteOS/components/security/mbedtls/mbedtls-2.6.0/library\aes.c ****             *RK++ = RT0[ FSb[ ( *SK       ) & 0xFF ] ] ^
 556              		.loc 1 644 0 discriminator 3
 557 0058 56F8042B 		ldr	r2, [r6], #4
 558              	.LVL49:
 559 005c D3B2     		uxtb	r3, r2
 560 005e 1B49     		ldr	r1, .L48
 561 0060 11F803C0 		ldrb	ip, [r1, r3]	@ zero_extendqisi2
 562 0064 1A4B     		ldr	r3, .L48+4
 563 0066 53F82C30 		ldr	r3, [r3, ip, lsl #2]
 645:C:/Users/lenovo/Desktop/liteos/Project2/BearPi_LiteOS/components/security/mbedtls/mbedtls-2.6.0/library\aes.c ****                     RT1[ FSb[ ( *SK >>  8 ) & 0xFF ] ] ^
 564              		.loc 1 645 0 discriminator 3
 565 006a C2F3072C 		ubfx	ip, r2, #8, #8
 566 006e 11F80CE0 		ldrb	lr, [r1, ip]	@ zero_extendqisi2
 567 0072 184C     		ldr	r4, .L48+8
 568 0074 54F82E40 		ldr	r4, [r4, lr, lsl #2]
 644:C:/Users/lenovo/Desktop/liteos/Project2/BearPi_LiteOS/components/security/mbedtls/mbedtls-2.6.0/library\aes.c ****                     RT1[ FSb[ ( *SK >>  8 ) & 0xFF ] ] ^
 569              		.loc 1 644 0 discriminator 3
 570 0078 6340     		eors	r3, r3, r4
 646:C:/Users/lenovo/Desktop/liteos/Project2/BearPi_LiteOS/components/security/mbedtls/mbedtls-2.6.0/library\aes.c ****                     RT2[ FSb[ ( *SK >> 16 ) & 0xFF ] ] ^
 571              		.loc 1 646 0 discriminator 3
 572 007a C2F3074C 		ubfx	ip, r2, #16, #8
 573 007e 11F80CE0 		ldrb	lr, [r1, ip]	@ zero_extendqisi2
 574 0082 154C     		ldr	r4, .L48+12
 575 0084 54F82E40 		ldr	r4, [r4, lr, lsl #2]
 645:C:/Users/lenovo/Desktop/liteos/Project2/BearPi_LiteOS/components/security/mbedtls/mbedtls-2.6.0/library\aes.c ****                     RT1[ FSb[ ( *SK >>  8 ) & 0xFF ] ] ^
 576              		.loc 1 645 0 discriminator 3
 577 0088 6340     		eors	r3, r3, r4
 647:C:/Users/lenovo/Desktop/liteos/Project2/BearPi_LiteOS/components/security/mbedtls/mbedtls-2.6.0/library\aes.c ****                     RT3[ FSb[ ( *SK >> 24 ) & 0xFF ] ];
 578              		.loc 1 647 0 discriminator 3
 579 008a 120E     		lsrs	r2, r2, #24
 580 008c 895C     		ldrb	r1, [r1, r2]	@ zero_extendqisi2
 581 008e 134A     		ldr	r2, .L48+16
 582 0090 52F82120 		ldr	r2, [r2, r1, lsl #2]
 583              	.LVL50:
 646:C:/Users/lenovo/Desktop/liteos/Project2/BearPi_LiteOS/components/security/mbedtls/mbedtls-2.6.0/library\aes.c ****                     RT2[ FSb[ ( *SK >> 16 ) & 0xFF ] ] ^
 584              		.loc 1 646 0 discriminator 3
 585 0094 5340     		eors	r3, r3, r2
 644:C:/Users/lenovo/Desktop/liteos/Project2/BearPi_LiteOS/components/security/mbedtls/mbedtls-2.6.0/library\aes.c ****                     RT1[ FSb[ ( *SK >>  8 ) & 0xFF ] ] ^
 586              		.loc 1 644 0 discriminator 3
 587 0096 2B60     		str	r3, [r5]
 642:C:/Users/lenovo/Desktop/liteos/Project2/BearPi_LiteOS/components/security/mbedtls/mbedtls-2.6.0/library\aes.c ****         {
 588              		.loc 1 642 0 discriminator 3
 589 0098 0130     		adds	r0, r0, #1
 590              	.LVL51:
ARM GAS  c:\Users\lenovo\AppData\Local\Temp\ccpYsKo5.s 			page 24


 644:C:/Users/lenovo/Desktop/liteos/Project2/BearPi_LiteOS/components/security/mbedtls/mbedtls-2.6.0/library\aes.c ****                     RT1[ FSb[ ( *SK >>  8 ) & 0xFF ] ] ^
 591              		.loc 1 644 0 discriminator 3
 592 009a 0435     		adds	r5, r5, #4
 593              	.LVL52:
 594              	.L44:
 642:C:/Users/lenovo/Desktop/liteos/Project2/BearPi_LiteOS/components/security/mbedtls/mbedtls-2.6.0/library\aes.c ****         {
 595              		.loc 1 642 0 discriminator 1
 596 009c 0328     		cmp	r0, #3
 597 009e DBDD     		ble	.L43
 640:C:/Users/lenovo/Desktop/liteos/Project2/BearPi_LiteOS/components/security/mbedtls/mbedtls-2.6.0/library\aes.c ****     {
 598              		.loc 1 640 0 discriminator 2
 599 00a0 013F     		subs	r7, r7, #1
 600              	.LVL53:
 601 00a2 203E     		subs	r6, r6, #32
 602              	.LVL54:
 603              	.L42:
 640:C:/Users/lenovo/Desktop/liteos/Project2/BearPi_LiteOS/components/security/mbedtls/mbedtls-2.6.0/library\aes.c ****     {
 604              		.loc 1 640 0 is_stmt 0 discriminator 1
 605 00a4 002F     		cmp	r7, #0
 606 00a6 01DD     		ble	.L47
 642:C:/Users/lenovo/Desktop/liteos/Project2/BearPi_LiteOS/components/security/mbedtls/mbedtls-2.6.0/library\aes.c ****         {
 607              		.loc 1 642 0 is_stmt 1
 608 00a8 4846     		mov	r0, r9
 609 00aa F7E7     		b	.L44
 610              	.L47:
 611              	.LVL55:
 648:C:/Users/lenovo/Desktop/liteos/Project2/BearPi_LiteOS/components/security/mbedtls/mbedtls-2.6.0/library\aes.c ****         }
 649:C:/Users/lenovo/Desktop/liteos/Project2/BearPi_LiteOS/components/security/mbedtls/mbedtls-2.6.0/library\aes.c ****     }
 650:C:/Users/lenovo/Desktop/liteos/Project2/BearPi_LiteOS/components/security/mbedtls/mbedtls-2.6.0/library\aes.c **** 
 651:C:/Users/lenovo/Desktop/liteos/Project2/BearPi_LiteOS/components/security/mbedtls/mbedtls-2.6.0/library\aes.c ****     *RK++ = *SK++;
 612              		.loc 1 651 0
 613 00ac 3368     		ldr	r3, [r6]
 614 00ae 2B60     		str	r3, [r5]
 615              	.LVL56:
 652:C:/Users/lenovo/Desktop/liteos/Project2/BearPi_LiteOS/components/security/mbedtls/mbedtls-2.6.0/library\aes.c ****     *RK++ = *SK++;
 616              		.loc 1 652 0
 617 00b0 7368     		ldr	r3, [r6, #4]
 618 00b2 6B60     		str	r3, [r5, #4]
 619              	.LVL57:
 653:C:/Users/lenovo/Desktop/liteos/Project2/BearPi_LiteOS/components/security/mbedtls/mbedtls-2.6.0/library\aes.c ****     *RK++ = *SK++;
 620              		.loc 1 653 0
 621 00b4 B368     		ldr	r3, [r6, #8]
 622 00b6 AB60     		str	r3, [r5, #8]
 623              	.LVL58:
 654:C:/Users/lenovo/Desktop/liteos/Project2/BearPi_LiteOS/components/security/mbedtls/mbedtls-2.6.0/library\aes.c ****     *RK++ = *SK++;
 624              		.loc 1 654 0
 625 00b8 F368     		ldr	r3, [r6, #12]
 626 00ba EB60     		str	r3, [r5, #12]
 627              	.LVL59:
 628              	.L41:
 655:C:/Users/lenovo/Desktop/liteos/Project2/BearPi_LiteOS/components/security/mbedtls/mbedtls-2.6.0/library\aes.c **** 
 656:C:/Users/lenovo/Desktop/liteos/Project2/BearPi_LiteOS/components/security/mbedtls/mbedtls-2.6.0/library\aes.c **** exit:
 657:C:/Users/lenovo/Desktop/liteos/Project2/BearPi_LiteOS/components/security/mbedtls/mbedtls-2.6.0/library\aes.c ****     mbedtls_aes_free( &cty );
 629              		.loc 1 657 0
 630 00bc 6846     		mov	r0, sp
 631 00be FFF7FEFF 		bl	mbedtls_aes_free
 632              	.LVL60:
ARM GAS  c:\Users\lenovo\AppData\Local\Temp\ccpYsKo5.s 			page 25


 658:C:/Users/lenovo/Desktop/liteos/Project2/BearPi_LiteOS/components/security/mbedtls/mbedtls-2.6.0/library\aes.c **** 
 659:C:/Users/lenovo/Desktop/liteos/Project2/BearPi_LiteOS/components/security/mbedtls/mbedtls-2.6.0/library\aes.c ****     return( ret );
 660:C:/Users/lenovo/Desktop/liteos/Project2/BearPi_LiteOS/components/security/mbedtls/mbedtls-2.6.0/library\aes.c **** }
 633              		.loc 1 660 0
 634 00c2 4846     		mov	r0, r9
 635 00c4 47B0     		add	sp, sp, #284
 636              	.LCFI10:
 637              		.cfi_def_cfa_offset 28
 638              		@ sp needed
 639 00c6 BDE8F083 		pop	{r4, r5, r6, r7, r8, r9, pc}
 640              	.LVL61:
 641              	.L49:
 642 00ca 00BF     		.align	2
 643              	.L48:
 644 00cc 00000000 		.word	.LANCHOR1
 645 00d0 00000000 		.word	.LANCHOR2
 646 00d4 00000000 		.word	.LANCHOR3
 647 00d8 00000000 		.word	.LANCHOR4
 648 00dc 00000000 		.word	.LANCHOR5
 649              		.cfi_endproc
 650              	.LFE4:
 652              		.section	.text.mbedtls_internal_aes_encrypt,"ax",%progbits
 653              		.align	1
 654              		.global	mbedtls_internal_aes_encrypt
 655              		.syntax unified
 656              		.thumb
 657              		.thumb_func
 658              		.fpu fpv4-sp-d16
 660              	mbedtls_internal_aes_encrypt:
 661              	.LFB5:
 661:C:/Users/lenovo/Desktop/liteos/Project2/BearPi_LiteOS/components/security/mbedtls/mbedtls-2.6.0/library\aes.c **** #endif /* !MBEDTLS_AES_SETKEY_DEC_ALT */
 662:C:/Users/lenovo/Desktop/liteos/Project2/BearPi_LiteOS/components/security/mbedtls/mbedtls-2.6.0/library\aes.c **** 
 663:C:/Users/lenovo/Desktop/liteos/Project2/BearPi_LiteOS/components/security/mbedtls/mbedtls-2.6.0/library\aes.c **** #define AES_FROUND(X0,X1,X2,X3,Y0,Y1,Y2,Y3)     \
 664:C:/Users/lenovo/Desktop/liteos/Project2/BearPi_LiteOS/components/security/mbedtls/mbedtls-2.6.0/library\aes.c **** {                                               \
 665:C:/Users/lenovo/Desktop/liteos/Project2/BearPi_LiteOS/components/security/mbedtls/mbedtls-2.6.0/library\aes.c ****     X0 = *RK++ ^ FT0[ ( Y0       ) & 0xFF ] ^   \
 666:C:/Users/lenovo/Desktop/liteos/Project2/BearPi_LiteOS/components/security/mbedtls/mbedtls-2.6.0/library\aes.c ****                  FT1[ ( Y1 >>  8 ) & 0xFF ] ^   \
 667:C:/Users/lenovo/Desktop/liteos/Project2/BearPi_LiteOS/components/security/mbedtls/mbedtls-2.6.0/library\aes.c ****                  FT2[ ( Y2 >> 16 ) & 0xFF ] ^   \
 668:C:/Users/lenovo/Desktop/liteos/Project2/BearPi_LiteOS/components/security/mbedtls/mbedtls-2.6.0/library\aes.c ****                  FT3[ ( Y3 >> 24 ) & 0xFF ];    \
 669:C:/Users/lenovo/Desktop/liteos/Project2/BearPi_LiteOS/components/security/mbedtls/mbedtls-2.6.0/library\aes.c ****                                                 \
 670:C:/Users/lenovo/Desktop/liteos/Project2/BearPi_LiteOS/components/security/mbedtls/mbedtls-2.6.0/library\aes.c ****     X1 = *RK++ ^ FT0[ ( Y1       ) & 0xFF ] ^   \
 671:C:/Users/lenovo/Desktop/liteos/Project2/BearPi_LiteOS/components/security/mbedtls/mbedtls-2.6.0/library\aes.c ****                  FT1[ ( Y2 >>  8 ) & 0xFF ] ^   \
 672:C:/Users/lenovo/Desktop/liteos/Project2/BearPi_LiteOS/components/security/mbedtls/mbedtls-2.6.0/library\aes.c ****                  FT2[ ( Y3 >> 16 ) & 0xFF ] ^   \
 673:C:/Users/lenovo/Desktop/liteos/Project2/BearPi_LiteOS/components/security/mbedtls/mbedtls-2.6.0/library\aes.c ****                  FT3[ ( Y0 >> 24 ) & 0xFF ];    \
 674:C:/Users/lenovo/Desktop/liteos/Project2/BearPi_LiteOS/components/security/mbedtls/mbedtls-2.6.0/library\aes.c ****                                                 \
 675:C:/Users/lenovo/Desktop/liteos/Project2/BearPi_LiteOS/components/security/mbedtls/mbedtls-2.6.0/library\aes.c ****     X2 = *RK++ ^ FT0[ ( Y2       ) & 0xFF ] ^   \
 676:C:/Users/lenovo/Desktop/liteos/Project2/BearPi_LiteOS/components/security/mbedtls/mbedtls-2.6.0/library\aes.c ****                  FT1[ ( Y3 >>  8 ) & 0xFF ] ^   \
 677:C:/Users/lenovo/Desktop/liteos/Project2/BearPi_LiteOS/components/security/mbedtls/mbedtls-2.6.0/library\aes.c ****                  FT2[ ( Y0 >> 16 ) & 0xFF ] ^   \
 678:C:/Users/lenovo/Desktop/liteos/Project2/BearPi_LiteOS/components/security/mbedtls/mbedtls-2.6.0/library\aes.c ****                  FT3[ ( Y1 >> 24 ) & 0xFF ];    \
 679:C:/Users/lenovo/Desktop/liteos/Project2/BearPi_LiteOS/components/security/mbedtls/mbedtls-2.6.0/library\aes.c ****                                                 \
 680:C:/Users/lenovo/Desktop/liteos/Project2/BearPi_LiteOS/components/security/mbedtls/mbedtls-2.6.0/library\aes.c ****     X3 = *RK++ ^ FT0[ ( Y3       ) & 0xFF ] ^   \
 681:C:/Users/lenovo/Desktop/liteos/Project2/BearPi_LiteOS/components/security/mbedtls/mbedtls-2.6.0/library\aes.c ****                  FT1[ ( Y0 >>  8 ) & 0xFF ] ^   \
 682:C:/Users/lenovo/Desktop/liteos/Project2/BearPi_LiteOS/components/security/mbedtls/mbedtls-2.6.0/library\aes.c ****                  FT2[ ( Y1 >> 16 ) & 0xFF ] ^   \
 683:C:/Users/lenovo/Desktop/liteos/Project2/BearPi_LiteOS/components/security/mbedtls/mbedtls-2.6.0/library\aes.c ****                  FT3[ ( Y2 >> 24 ) & 0xFF ];    \
 684:C:/Users/lenovo/Desktop/liteos/Project2/BearPi_LiteOS/components/security/mbedtls/mbedtls-2.6.0/library\aes.c **** }
 685:C:/Users/lenovo/Desktop/liteos/Project2/BearPi_LiteOS/components/security/mbedtls/mbedtls-2.6.0/library\aes.c **** 
 686:C:/Users/lenovo/Desktop/liteos/Project2/BearPi_LiteOS/components/security/mbedtls/mbedtls-2.6.0/library\aes.c **** #define AES_RROUND(X0,X1,X2,X3,Y0,Y1,Y2,Y3)     \
 687:C:/Users/lenovo/Desktop/liteos/Project2/BearPi_LiteOS/components/security/mbedtls/mbedtls-2.6.0/library\aes.c **** {                                               \
ARM GAS  c:\Users\lenovo\AppData\Local\Temp\ccpYsKo5.s 			page 26


 688:C:/Users/lenovo/Desktop/liteos/Project2/BearPi_LiteOS/components/security/mbedtls/mbedtls-2.6.0/library\aes.c ****     X0 = *RK++ ^ RT0[ ( Y0       ) & 0xFF ] ^   \
 689:C:/Users/lenovo/Desktop/liteos/Project2/BearPi_LiteOS/components/security/mbedtls/mbedtls-2.6.0/library\aes.c ****                  RT1[ ( Y3 >>  8 ) & 0xFF ] ^   \
 690:C:/Users/lenovo/Desktop/liteos/Project2/BearPi_LiteOS/components/security/mbedtls/mbedtls-2.6.0/library\aes.c ****                  RT2[ ( Y2 >> 16 ) & 0xFF ] ^   \
 691:C:/Users/lenovo/Desktop/liteos/Project2/BearPi_LiteOS/components/security/mbedtls/mbedtls-2.6.0/library\aes.c ****                  RT3[ ( Y1 >> 24 ) & 0xFF ];    \
 692:C:/Users/lenovo/Desktop/liteos/Project2/BearPi_LiteOS/components/security/mbedtls/mbedtls-2.6.0/library\aes.c ****                                                 \
 693:C:/Users/lenovo/Desktop/liteos/Project2/BearPi_LiteOS/components/security/mbedtls/mbedtls-2.6.0/library\aes.c ****     X1 = *RK++ ^ RT0[ ( Y1       ) & 0xFF ] ^   \
 694:C:/Users/lenovo/Desktop/liteos/Project2/BearPi_LiteOS/components/security/mbedtls/mbedtls-2.6.0/library\aes.c ****                  RT1[ ( Y0 >>  8 ) & 0xFF ] ^   \
 695:C:/Users/lenovo/Desktop/liteos/Project2/BearPi_LiteOS/components/security/mbedtls/mbedtls-2.6.0/library\aes.c ****                  RT2[ ( Y3 >> 16 ) & 0xFF ] ^   \
 696:C:/Users/lenovo/Desktop/liteos/Project2/BearPi_LiteOS/components/security/mbedtls/mbedtls-2.6.0/library\aes.c ****                  RT3[ ( Y2 >> 24 ) & 0xFF ];    \
 697:C:/Users/lenovo/Desktop/liteos/Project2/BearPi_LiteOS/components/security/mbedtls/mbedtls-2.6.0/library\aes.c ****                                                 \
 698:C:/Users/lenovo/Desktop/liteos/Project2/BearPi_LiteOS/components/security/mbedtls/mbedtls-2.6.0/library\aes.c ****     X2 = *RK++ ^ RT0[ ( Y2       ) & 0xFF ] ^   \
 699:C:/Users/lenovo/Desktop/liteos/Project2/BearPi_LiteOS/components/security/mbedtls/mbedtls-2.6.0/library\aes.c ****                  RT1[ ( Y1 >>  8 ) & 0xFF ] ^   \
 700:C:/Users/lenovo/Desktop/liteos/Project2/BearPi_LiteOS/components/security/mbedtls/mbedtls-2.6.0/library\aes.c ****                  RT2[ ( Y0 >> 16 ) & 0xFF ] ^   \
 701:C:/Users/lenovo/Desktop/liteos/Project2/BearPi_LiteOS/components/security/mbedtls/mbedtls-2.6.0/library\aes.c ****                  RT3[ ( Y3 >> 24 ) & 0xFF ];    \
 702:C:/Users/lenovo/Desktop/liteos/Project2/BearPi_LiteOS/components/security/mbedtls/mbedtls-2.6.0/library\aes.c ****                                                 \
 703:C:/Users/lenovo/Desktop/liteos/Project2/BearPi_LiteOS/components/security/mbedtls/mbedtls-2.6.0/library\aes.c ****     X3 = *RK++ ^ RT0[ ( Y3       ) & 0xFF ] ^   \
 704:C:/Users/lenovo/Desktop/liteos/Project2/BearPi_LiteOS/components/security/mbedtls/mbedtls-2.6.0/library\aes.c ****                  RT1[ ( Y2 >>  8 ) & 0xFF ] ^   \
 705:C:/Users/lenovo/Desktop/liteos/Project2/BearPi_LiteOS/components/security/mbedtls/mbedtls-2.6.0/library\aes.c ****                  RT2[ ( Y1 >> 16 ) & 0xFF ] ^   \
 706:C:/Users/lenovo/Desktop/liteos/Project2/BearPi_LiteOS/components/security/mbedtls/mbedtls-2.6.0/library\aes.c ****                  RT3[ ( Y0 >> 24 ) & 0xFF ];    \
 707:C:/Users/lenovo/Desktop/liteos/Project2/BearPi_LiteOS/components/security/mbedtls/mbedtls-2.6.0/library\aes.c **** }
 708:C:/Users/lenovo/Desktop/liteos/Project2/BearPi_LiteOS/components/security/mbedtls/mbedtls-2.6.0/library\aes.c **** 
 709:C:/Users/lenovo/Desktop/liteos/Project2/BearPi_LiteOS/components/security/mbedtls/mbedtls-2.6.0/library\aes.c **** /*
 710:C:/Users/lenovo/Desktop/liteos/Project2/BearPi_LiteOS/components/security/mbedtls/mbedtls-2.6.0/library\aes.c ****  * AES-ECB block encryption
 711:C:/Users/lenovo/Desktop/liteos/Project2/BearPi_LiteOS/components/security/mbedtls/mbedtls-2.6.0/library\aes.c ****  */
 712:C:/Users/lenovo/Desktop/liteos/Project2/BearPi_LiteOS/components/security/mbedtls/mbedtls-2.6.0/library\aes.c **** #if !defined(MBEDTLS_AES_ENCRYPT_ALT)
 713:C:/Users/lenovo/Desktop/liteos/Project2/BearPi_LiteOS/components/security/mbedtls/mbedtls-2.6.0/library\aes.c **** int mbedtls_internal_aes_encrypt( mbedtls_aes_context *ctx,
 714:C:/Users/lenovo/Desktop/liteos/Project2/BearPi_LiteOS/components/security/mbedtls/mbedtls-2.6.0/library\aes.c ****                                   const unsigned char input[16],
 715:C:/Users/lenovo/Desktop/liteos/Project2/BearPi_LiteOS/components/security/mbedtls/mbedtls-2.6.0/library\aes.c ****                                   unsigned char output[16] )
 716:C:/Users/lenovo/Desktop/liteos/Project2/BearPi_LiteOS/components/security/mbedtls/mbedtls-2.6.0/library\aes.c **** {
 662              		.loc 1 716 0
 663              		.cfi_startproc
 664              		@ args = 0, pretend = 0, frame = 8
 665              		@ frame_needed = 0, uses_anonymous_args = 0
 666              	.LVL62:
 667 0000 2DE9F04F 		push	{r4, r5, r6, r7, r8, r9, r10, fp, lr}
 668              	.LCFI11:
 669              		.cfi_def_cfa_offset 36
 670              		.cfi_offset 4, -36
 671              		.cfi_offset 5, -32
 672              		.cfi_offset 6, -28
 673              		.cfi_offset 7, -24
 674              		.cfi_offset 8, -20
 675              		.cfi_offset 9, -16
 676              		.cfi_offset 10, -12
 677              		.cfi_offset 11, -8
 678              		.cfi_offset 14, -4
 679 0004 83B0     		sub	sp, sp, #12
 680              	.LCFI12:
 681              		.cfi_def_cfa_offset 48
 682 0006 0192     		str	r2, [sp, #4]
 717:C:/Users/lenovo/Desktop/liteos/Project2/BearPi_LiteOS/components/security/mbedtls/mbedtls-2.6.0/library\aes.c ****     int i;
 718:C:/Users/lenovo/Desktop/liteos/Project2/BearPi_LiteOS/components/security/mbedtls/mbedtls-2.6.0/library\aes.c ****     uint32_t *RK, X0, X1, X2, X3, Y0, Y1, Y2, Y3;
 719:C:/Users/lenovo/Desktop/liteos/Project2/BearPi_LiteOS/components/security/mbedtls/mbedtls-2.6.0/library\aes.c **** 
 720:C:/Users/lenovo/Desktop/liteos/Project2/BearPi_LiteOS/components/security/mbedtls/mbedtls-2.6.0/library\aes.c ****     RK = ctx->rk;
 683              		.loc 1 720 0
 684 0008 4468     		ldr	r4, [r0, #4]
 685              	.LVL63:
ARM GAS  c:\Users\lenovo\AppData\Local\Temp\ccpYsKo5.s 			page 27


 721:C:/Users/lenovo/Desktop/liteos/Project2/BearPi_LiteOS/components/security/mbedtls/mbedtls-2.6.0/library\aes.c **** 
 722:C:/Users/lenovo/Desktop/liteos/Project2/BearPi_LiteOS/components/security/mbedtls/mbedtls-2.6.0/library\aes.c ****     GET_UINT32_LE( X0, input,  0 ); X0 ^= *RK++;
 686              		.loc 1 722 0
 687 000a 91F80090 		ldrb	r9, [r1]	@ zero_extendqisi2
 688 000e 4B78     		ldrb	r3, [r1, #1]	@ zero_extendqisi2
 689 0010 49EA0329 		orr	r9, r9, r3, lsl #8
 690 0014 8B78     		ldrb	r3, [r1, #2]	@ zero_extendqisi2
 691 0016 49EA0349 		orr	r9, r9, r3, lsl #16
 692 001a CB78     		ldrb	r3, [r1, #3]	@ zero_extendqisi2
 693 001c 49EA0369 		orr	r9, r9, r3, lsl #24
 694              	.LVL64:
 695 0020 2368     		ldr	r3, [r4]
 696 0022 89EA0309 		eor	r9, r9, r3
 697              	.LVL65:
 723:C:/Users/lenovo/Desktop/liteos/Project2/BearPi_LiteOS/components/security/mbedtls/mbedtls-2.6.0/library\aes.c ****     GET_UINT32_LE( X1, input,  4 ); X1 ^= *RK++;
 698              		.loc 1 723 0
 699 0026 91F804A0 		ldrb	r10, [r1, #4]	@ zero_extendqisi2
 700 002a 4B79     		ldrb	r3, [r1, #5]	@ zero_extendqisi2
 701 002c 4AEA032A 		orr	r10, r10, r3, lsl #8
 702 0030 8B79     		ldrb	r3, [r1, #6]	@ zero_extendqisi2
 703 0032 4AEA034A 		orr	r10, r10, r3, lsl #16
 704 0036 CB79     		ldrb	r3, [r1, #7]	@ zero_extendqisi2
 705 0038 4AEA036A 		orr	r10, r10, r3, lsl #24
 706              	.LVL66:
 707 003c 6368     		ldr	r3, [r4, #4]
 708 003e 8AEA030A 		eor	r10, r10, r3
 709              	.LVL67:
 724:C:/Users/lenovo/Desktop/liteos/Project2/BearPi_LiteOS/components/security/mbedtls/mbedtls-2.6.0/library\aes.c ****     GET_UINT32_LE( X2, input,  8 ); X2 ^= *RK++;
 710              		.loc 1 724 0
 711 0042 0B7A     		ldrb	r3, [r1, #8]	@ zero_extendqisi2
 712 0044 4A7A     		ldrb	r2, [r1, #9]	@ zero_extendqisi2
 713              	.LVL68:
 714 0046 43EA0223 		orr	r3, r3, r2, lsl #8
 715 004a 8A7A     		ldrb	r2, [r1, #10]	@ zero_extendqisi2
 716 004c 43EA0243 		orr	r3, r3, r2, lsl #16
 717 0050 CA7A     		ldrb	r2, [r1, #11]	@ zero_extendqisi2
 718 0052 43EA0263 		orr	r3, r3, r2, lsl #24
 719              	.LVL69:
 720 0056 A268     		ldr	r2, [r4, #8]
 721 0058 5340     		eors	r3, r3, r2
 722              	.LVL70:
 725:C:/Users/lenovo/Desktop/liteos/Project2/BearPi_LiteOS/components/security/mbedtls/mbedtls-2.6.0/library\aes.c ****     GET_UINT32_LE( X3, input, 12 ); X3 ^= *RK++;
 723              		.loc 1 725 0
 724 005a 0A7B     		ldrb	r2, [r1, #12]	@ zero_extendqisi2
 725 005c 4D7B     		ldrb	r5, [r1, #13]	@ zero_extendqisi2
 726 005e 42EA0522 		orr	r2, r2, r5, lsl #8
 727 0062 8D7B     		ldrb	r5, [r1, #14]	@ zero_extendqisi2
 728 0064 42EA0542 		orr	r2, r2, r5, lsl #16
 729 0068 C97B     		ldrb	r1, [r1, #15]	@ zero_extendqisi2
 730              	.LVL71:
 731 006a 42EA0162 		orr	r2, r2, r1, lsl #24
 732              	.LVL72:
 733 006e 04F11006 		add	r6, r4, #16
 734              	.LVL73:
 735 0072 E168     		ldr	r1, [r4, #12]
 736 0074 4A40     		eors	r2, r2, r1
 737              	.LVL74:
ARM GAS  c:\Users\lenovo\AppData\Local\Temp\ccpYsKo5.s 			page 28


 726:C:/Users/lenovo/Desktop/liteos/Project2/BearPi_LiteOS/components/security/mbedtls/mbedtls-2.6.0/library\aes.c **** 
 727:C:/Users/lenovo/Desktop/liteos/Project2/BearPi_LiteOS/components/security/mbedtls/mbedtls-2.6.0/library\aes.c ****     for( i = ( ctx->nr >> 1 ) - 1; i > 0; i-- )
 738              		.loc 1 727 0
 739 0076 0168     		ldr	r1, [r0]
 740 0078 4FEA610B 		asr	fp, r1, #1
 741 007c 0BF1FF3B 		add	fp, fp, #-1
 742              	.LVL75:
 743 0080 BDE0     		b	.L51
 744              	.LVL76:
 745              	.L52:
 728:C:/Users/lenovo/Desktop/liteos/Project2/BearPi_LiteOS/components/security/mbedtls/mbedtls-2.6.0/library\aes.c ****     {
 729:C:/Users/lenovo/Desktop/liteos/Project2/BearPi_LiteOS/components/security/mbedtls/mbedtls-2.6.0/library\aes.c ****         AES_FROUND( Y0, Y1, Y2, Y3, X0, X1, X2, X3 );
 746              		.loc 1 729 0 discriminator 3
 747 0082 3168     		ldr	r1, [r6]
 748 0084 5FFA89F0 		uxtb	r0, r9
 749 0088 CA4F     		ldr	r7, .L54
 750 008a 57F82000 		ldr	r0, [r7, r0, lsl #2]
 751 008e 81EA000E 		eor	lr, r1, r0
 752 0092 CAF30721 		ubfx	r1, r10, #8, #8
 753 0096 C84C     		ldr	r4, .L54+4
 754 0098 54F82110 		ldr	r1, [r4, r1, lsl #2]
 755 009c 8EEA010E 		eor	lr, lr, r1
 756 00a0 C3F30741 		ubfx	r1, r3, #16, #8
 757 00a4 C548     		ldr	r0, .L54+8
 758 00a6 50F82110 		ldr	r1, [r0, r1, lsl #2]
 759 00aa 8EEA010E 		eor	lr, lr, r1
 760 00ae 150E     		lsrs	r5, r2, #24
 761 00b0 C349     		ldr	r1, .L54+12
 762 00b2 51F82550 		ldr	r5, [r1, r5, lsl #2]
 763 00b6 8EEA050E 		eor	lr, lr, r5
 764              	.LVL77:
 765 00ba 5FFA8AFC 		uxtb	ip, r10
 766 00be 57F82CC0 		ldr	ip, [r7, ip, lsl #2]
 767 00c2 7568     		ldr	r5, [r6, #4]
 768 00c4 85EA0C08 		eor	r8, r5, ip
 769 00c8 C3F30725 		ubfx	r5, r3, #8, #8
 770 00cc 54F82550 		ldr	r5, [r4, r5, lsl #2]
 771 00d0 88EA0508 		eor	r8, r8, r5
 772 00d4 C2F30745 		ubfx	r5, r2, #16, #8
 773 00d8 50F82550 		ldr	r5, [r0, r5, lsl #2]
 774 00dc 88EA0508 		eor	r8, r8, r5
 775 00e0 4FEA1965 		lsr	r5, r9, #24
 776 00e4 51F82550 		ldr	r5, [r1, r5, lsl #2]
 777 00e8 88EA0508 		eor	r8, r8, r5
 778              	.LVL78:
 779 00ec 5FFA83FC 		uxtb	ip, r3
 780 00f0 57F82CC0 		ldr	ip, [r7, ip, lsl #2]
 781 00f4 B568     		ldr	r5, [r6, #8]
 782 00f6 85EA0C0C 		eor	ip, r5, ip
 783 00fa C2F30725 		ubfx	r5, r2, #8, #8
 784 00fe 54F82550 		ldr	r5, [r4, r5, lsl #2]
 785 0102 8CEA050C 		eor	ip, ip, r5
 786 0106 C9F30745 		ubfx	r5, r9, #16, #8
 787 010a 50F82550 		ldr	r5, [r0, r5, lsl #2]
 788 010e 8CEA050C 		eor	ip, ip, r5
 789 0112 4FEA1A65 		lsr	r5, r10, #24
 790 0116 51F82550 		ldr	r5, [r1, r5, lsl #2]
ARM GAS  c:\Users\lenovo\AppData\Local\Temp\ccpYsKo5.s 			page 29


 791 011a 8CEA050C 		eor	ip, ip, r5
 792              	.LVL79:
 793 011e F568     		ldr	r5, [r6, #12]
 794 0120 D2B2     		uxtb	r2, r2
 795              	.LVL80:
 796 0122 57F82220 		ldr	r2, [r7, r2, lsl #2]
 797 0126 5540     		eors	r5, r5, r2
 798 0128 C9F30729 		ubfx	r9, r9, #8, #8
 799              	.LVL81:
 800 012c 54F82920 		ldr	r2, [r4, r9, lsl #2]
 801 0130 5540     		eors	r5, r5, r2
 802 0132 CAF3074A 		ubfx	r10, r10, #16, #8
 803              	.LVL82:
 804 0136 50F82A20 		ldr	r2, [r0, r10, lsl #2]
 805 013a 5540     		eors	r5, r5, r2
 806 013c 1B0E     		lsrs	r3, r3, #24
 807              	.LVL83:
 808 013e 51F82330 		ldr	r3, [r1, r3, lsl #2]
 809 0142 5D40     		eors	r5, r5, r3
 810              	.LVL84:
 730:C:/Users/lenovo/Desktop/liteos/Project2/BearPi_LiteOS/components/security/mbedtls/mbedtls-2.6.0/library\aes.c ****         AES_FROUND( X0, X1, X2, X3, Y0, Y1, Y2, Y3 );
 811              		.loc 1 730 0 discriminator 3
 812 0144 3369     		ldr	r3, [r6, #16]
 813 0146 5FFA8EF2 		uxtb	r2, lr
 814 014a 57F82220 		ldr	r2, [r7, r2, lsl #2]
 815 014e 83EA0209 		eor	r9, r3, r2
 816 0152 C8F30723 		ubfx	r3, r8, #8, #8
 817 0156 54F82330 		ldr	r3, [r4, r3, lsl #2]
 818 015a 89EA0309 		eor	r9, r9, r3
 819 015e CCF30743 		ubfx	r3, ip, #16, #8
 820 0162 50F82330 		ldr	r3, [r0, r3, lsl #2]
 821 0166 89EA0309 		eor	r9, r9, r3
 822 016a 2B0E     		lsrs	r3, r5, #24
 823 016c 51F82330 		ldr	r3, [r1, r3, lsl #2]
 824 0170 89EA0309 		eor	r9, r9, r3
 825              	.LVL85:
 826 0174 7369     		ldr	r3, [r6, #20]
 827 0176 5FFA88F2 		uxtb	r2, r8
 828 017a 57F82220 		ldr	r2, [r7, r2, lsl #2]
 829 017e 83EA020A 		eor	r10, r3, r2
 830 0182 CCF30723 		ubfx	r3, ip, #8, #8
 831 0186 54F82330 		ldr	r3, [r4, r3, lsl #2]
 832 018a 8AEA030A 		eor	r10, r10, r3
 833 018e C5F30743 		ubfx	r3, r5, #16, #8
 834 0192 50F82330 		ldr	r3, [r0, r3, lsl #2]
 835 0196 8AEA030A 		eor	r10, r10, r3
 836 019a 4FEA1E63 		lsr	r3, lr, #24
 837 019e 51F82330 		ldr	r3, [r1, r3, lsl #2]
 838 01a2 8AEA030A 		eor	r10, r10, r3
 839              	.LVL86:
 840 01a6 B369     		ldr	r3, [r6, #24]
 841 01a8 5FFA8CF2 		uxtb	r2, ip
 842 01ac 57F82220 		ldr	r2, [r7, r2, lsl #2]
 843 01b0 5340     		eors	r3, r3, r2
 844 01b2 C5F30722 		ubfx	r2, r5, #8, #8
 845 01b6 54F82220 		ldr	r2, [r4, r2, lsl #2]
 846 01ba 5340     		eors	r3, r3, r2
ARM GAS  c:\Users\lenovo\AppData\Local\Temp\ccpYsKo5.s 			page 30


 847 01bc CEF30742 		ubfx	r2, lr, #16, #8
 848 01c0 50F82220 		ldr	r2, [r0, r2, lsl #2]
 849 01c4 5340     		eors	r3, r3, r2
 850 01c6 4FEA1862 		lsr	r2, r8, #24
 851 01ca 51F82220 		ldr	r2, [r1, r2, lsl #2]
 852 01ce 5340     		eors	r3, r3, r2
 853              	.LVL87:
 854 01d0 F269     		ldr	r2, [r6, #28]
 855 01d2 EDB2     		uxtb	r5, r5
 856              	.LVL88:
 857 01d4 57F82550 		ldr	r5, [r7, r5, lsl #2]
 858 01d8 6A40     		eors	r2, r2, r5
 859 01da CEF3072E 		ubfx	lr, lr, #8, #8
 860              	.LVL89:
 861 01de 54F82E40 		ldr	r4, [r4, lr, lsl #2]
 862 01e2 6240     		eors	r2, r2, r4
 863 01e4 C8F30748 		ubfx	r8, r8, #16, #8
 864              	.LVL90:
 865 01e8 50F82800 		ldr	r0, [r0, r8, lsl #2]
 866 01ec 4240     		eors	r2, r2, r0
 867 01ee 4FEA1C6C 		lsr	ip, ip, #24
 868              	.LVL91:
 869 01f2 51F82C10 		ldr	r1, [r1, ip, lsl #2]
 870 01f6 4A40     		eors	r2, r2, r1
 871              	.LVL92:
 727:C:/Users/lenovo/Desktop/liteos/Project2/BearPi_LiteOS/components/security/mbedtls/mbedtls-2.6.0/library\aes.c ****     {
 872              		.loc 1 727 0 discriminator 3
 873 01f8 0BF1FF3B 		add	fp, fp, #-1
 874              	.LVL93:
 875              		.loc 1 730 0 discriminator 3
 876 01fc 2036     		adds	r6, r6, #32
 877              	.LVL94:
 878              	.L51:
 727:C:/Users/lenovo/Desktop/liteos/Project2/BearPi_LiteOS/components/security/mbedtls/mbedtls-2.6.0/library\aes.c ****     {
 879              		.loc 1 727 0 discriminator 1
 880 01fe BBF1000F 		cmp	fp, #0
 881 0202 3FF73EAF 		bgt	.L52
 882              	.LVL95:
 731:C:/Users/lenovo/Desktop/liteos/Project2/BearPi_LiteOS/components/security/mbedtls/mbedtls-2.6.0/library\aes.c ****     }
 732:C:/Users/lenovo/Desktop/liteos/Project2/BearPi_LiteOS/components/security/mbedtls/mbedtls-2.6.0/library\aes.c **** 
 733:C:/Users/lenovo/Desktop/liteos/Project2/BearPi_LiteOS/components/security/mbedtls/mbedtls-2.6.0/library\aes.c ****     AES_FROUND( Y0, Y1, Y2, Y3, X0, X1, X2, X3 );
 883              		.loc 1 733 0
 884 0206 3168     		ldr	r1, [r6]
 885 0208 5FFA89F0 		uxtb	r0, r9
 886 020c DFF8A4C1 		ldr	ip, .L54
 887 0210 5CF82000 		ldr	r0, [ip, r0, lsl #2]
 888 0214 4840     		eors	r0, r0, r1
 889 0216 CAF30721 		ubfx	r1, r10, #8, #8
 890 021a 674F     		ldr	r7, .L54+4
 891 021c 57F82110 		ldr	r1, [r7, r1, lsl #2]
 892 0220 4840     		eors	r0, r0, r1
 893 0222 C3F30741 		ubfx	r1, r3, #16, #8
 894 0226 654D     		ldr	r5, .L54+8
 895 0228 55F82110 		ldr	r1, [r5, r1, lsl #2]
 896 022c 4840     		eors	r0, r0, r1
 897 022e 110E     		lsrs	r1, r2, #24
 898 0230 634C     		ldr	r4, .L54+12
ARM GAS  c:\Users\lenovo\AppData\Local\Temp\ccpYsKo5.s 			page 31


 899 0232 54F82110 		ldr	r1, [r4, r1, lsl #2]
 900 0236 4840     		eors	r0, r0, r1
 901              	.LVL96:
 902 0238 5FFA8AFE 		uxtb	lr, r10
 903 023c 5CF82EE0 		ldr	lr, [ip, lr, lsl #2]
 904 0240 7168     		ldr	r1, [r6, #4]
 905 0242 81EA0E0E 		eor	lr, r1, lr
 906 0246 C3F30721 		ubfx	r1, r3, #8, #8
 907 024a 57F82110 		ldr	r1, [r7, r1, lsl #2]
 908 024e 8EEA010E 		eor	lr, lr, r1
 909 0252 C2F30741 		ubfx	r1, r2, #16, #8
 910 0256 55F82110 		ldr	r1, [r5, r1, lsl #2]
 911 025a 8EEA010E 		eor	lr, lr, r1
 912 025e 4FEA1961 		lsr	r1, r9, #24
 913 0262 54F82110 		ldr	r1, [r4, r1, lsl #2]
 914 0266 8EEA010E 		eor	lr, lr, r1
 915              	.LVL97:
 916 026a 5FFA83F8 		uxtb	r8, r3
 917 026e 5CF82880 		ldr	r8, [ip, r8, lsl #2]
 918 0272 B168     		ldr	r1, [r6, #8]
 919 0274 81EA0808 		eor	r8, r1, r8
 920 0278 C2F30721 		ubfx	r1, r2, #8, #8
 921 027c 57F82110 		ldr	r1, [r7, r1, lsl #2]
 922 0280 88EA0108 		eor	r8, r8, r1
 923 0284 C9F30741 		ubfx	r1, r9, #16, #8
 924 0288 55F82110 		ldr	r1, [r5, r1, lsl #2]
 925 028c 88EA0108 		eor	r8, r8, r1
 926 0290 4FEA1A61 		lsr	r1, r10, #24
 927 0294 54F82110 		ldr	r1, [r4, r1, lsl #2]
 928 0298 88EA0108 		eor	r8, r8, r1
 929              	.LVL98:
 930 029c F168     		ldr	r1, [r6, #12]
 931 029e D2B2     		uxtb	r2, r2
 932              	.LVL99:
 933 02a0 5CF82220 		ldr	r2, [ip, r2, lsl #2]
 934 02a4 5140     		eors	r1, r1, r2
 935 02a6 C9F30729 		ubfx	r9, r9, #8, #8
 936              	.LVL100:
 937 02aa 57F82970 		ldr	r7, [r7, r9, lsl #2]
 938 02ae 4F40     		eors	r7, r7, r1
 939 02b0 CAF3074A 		ubfx	r10, r10, #16, #8
 940              	.LVL101:
 941 02b4 55F82A10 		ldr	r1, [r5, r10, lsl #2]
 942 02b8 4F40     		eors	r7, r7, r1
 943 02ba 1B0E     		lsrs	r3, r3, #24
 944              	.LVL102:
 945 02bc 54F82330 		ldr	r3, [r4, r3, lsl #2]
 946 02c0 5F40     		eors	r7, r7, r3
 947              	.LVL103:
 734:C:/Users/lenovo/Desktop/liteos/Project2/BearPi_LiteOS/components/security/mbedtls/mbedtls-2.6.0/library\aes.c **** 
 735:C:/Users/lenovo/Desktop/liteos/Project2/BearPi_LiteOS/components/security/mbedtls/mbedtls-2.6.0/library\aes.c ****     X0 = *RK++ ^ \
 948              		.loc 1 735 0
 949 02c2 3269     		ldr	r2, [r6, #16]
 736:C:/Users/lenovo/Desktop/liteos/Project2/BearPi_LiteOS/components/security/mbedtls/mbedtls-2.6.0/library\aes.c ****             ( (uint32_t) FSb[ ( Y0       ) & 0xFF ]       ) ^
 950              		.loc 1 736 0
 951 02c4 C1B2     		uxtb	r1, r0
 952 02c6 3F4B     		ldr	r3, .L54+16
ARM GAS  c:\Users\lenovo\AppData\Local\Temp\ccpYsKo5.s 			page 32


 953 02c8 5C5C     		ldrb	r4, [r3, r1]	@ zero_extendqisi2
 735:C:/Users/lenovo/Desktop/liteos/Project2/BearPi_LiteOS/components/security/mbedtls/mbedtls-2.6.0/library\aes.c ****             ( (uint32_t) FSb[ ( Y0       ) & 0xFF ]       ) ^
 954              		.loc 1 735 0
 955 02ca 5440     		eors	r4, r4, r2
 737:C:/Users/lenovo/Desktop/liteos/Project2/BearPi_LiteOS/components/security/mbedtls/mbedtls-2.6.0/library\aes.c ****             ( (uint32_t) FSb[ ( Y1 >>  8 ) & 0xFF ] <<  8 ) ^
 956              		.loc 1 737 0
 957 02cc CEF30722 		ubfx	r2, lr, #8, #8
 958 02d0 9A5C     		ldrb	r2, [r3, r2]	@ zero_extendqisi2
 736:C:/Users/lenovo/Desktop/liteos/Project2/BearPi_LiteOS/components/security/mbedtls/mbedtls-2.6.0/library\aes.c ****             ( (uint32_t) FSb[ ( Y0       ) & 0xFF ]       ) ^
 959              		.loc 1 736 0
 960 02d2 84EA0224 		eor	r4, r4, r2, lsl #8
 738:C:/Users/lenovo/Desktop/liteos/Project2/BearPi_LiteOS/components/security/mbedtls/mbedtls-2.6.0/library\aes.c ****             ( (uint32_t) FSb[ ( Y2 >> 16 ) & 0xFF ] << 16 ) ^
 961              		.loc 1 738 0
 962 02d6 C8F30742 		ubfx	r2, r8, #16, #8
 963 02da 9A5C     		ldrb	r2, [r3, r2]	@ zero_extendqisi2
 737:C:/Users/lenovo/Desktop/liteos/Project2/BearPi_LiteOS/components/security/mbedtls/mbedtls-2.6.0/library\aes.c ****             ( (uint32_t) FSb[ ( Y1 >>  8 ) & 0xFF ] <<  8 ) ^
 964              		.loc 1 737 0
 965 02dc 84EA0244 		eor	r4, r4, r2, lsl #16
 739:C:/Users/lenovo/Desktop/liteos/Project2/BearPi_LiteOS/components/security/mbedtls/mbedtls-2.6.0/library\aes.c ****             ( (uint32_t) FSb[ ( Y3 >> 24 ) & 0xFF ] << 24 );
 966              		.loc 1 739 0
 967 02e0 3A0E     		lsrs	r2, r7, #24
 968 02e2 9A5C     		ldrb	r2, [r3, r2]	@ zero_extendqisi2
 735:C:/Users/lenovo/Desktop/liteos/Project2/BearPi_LiteOS/components/security/mbedtls/mbedtls-2.6.0/library\aes.c ****             ( (uint32_t) FSb[ ( Y0       ) & 0xFF ]       ) ^
 969              		.loc 1 735 0
 970 02e4 84EA0264 		eor	r4, r4, r2, lsl #24
 971              	.LVL104:
 740:C:/Users/lenovo/Desktop/liteos/Project2/BearPi_LiteOS/components/security/mbedtls/mbedtls-2.6.0/library\aes.c **** 
 741:C:/Users/lenovo/Desktop/liteos/Project2/BearPi_LiteOS/components/security/mbedtls/mbedtls-2.6.0/library\aes.c ****     X1 = *RK++ ^ \
 972              		.loc 1 741 0
 973 02e8 7269     		ldr	r2, [r6, #20]
 742:C:/Users/lenovo/Desktop/liteos/Project2/BearPi_LiteOS/components/security/mbedtls/mbedtls-2.6.0/library\aes.c ****             ( (uint32_t) FSb[ ( Y1       ) & 0xFF ]       ) ^
 974              		.loc 1 742 0
 975 02ea 5FFA8EF1 		uxtb	r1, lr
 976 02ee 595C     		ldrb	r1, [r3, r1]	@ zero_extendqisi2
 741:C:/Users/lenovo/Desktop/liteos/Project2/BearPi_LiteOS/components/security/mbedtls/mbedtls-2.6.0/library\aes.c ****             ( (uint32_t) FSb[ ( Y1       ) & 0xFF ]       ) ^
 977              		.loc 1 741 0
 978 02f0 5140     		eors	r1, r1, r2
 743:C:/Users/lenovo/Desktop/liteos/Project2/BearPi_LiteOS/components/security/mbedtls/mbedtls-2.6.0/library\aes.c ****             ( (uint32_t) FSb[ ( Y2 >>  8 ) & 0xFF ] <<  8 ) ^
 979              		.loc 1 743 0
 980 02f2 C8F30722 		ubfx	r2, r8, #8, #8
 981 02f6 9A5C     		ldrb	r2, [r3, r2]	@ zero_extendqisi2
 742:C:/Users/lenovo/Desktop/liteos/Project2/BearPi_LiteOS/components/security/mbedtls/mbedtls-2.6.0/library\aes.c ****             ( (uint32_t) FSb[ ( Y1       ) & 0xFF ]       ) ^
 982              		.loc 1 742 0
 983 02f8 81EA0221 		eor	r1, r1, r2, lsl #8
 744:C:/Users/lenovo/Desktop/liteos/Project2/BearPi_LiteOS/components/security/mbedtls/mbedtls-2.6.0/library\aes.c ****             ( (uint32_t) FSb[ ( Y3 >> 16 ) & 0xFF ] << 16 ) ^
 984              		.loc 1 744 0
 985 02fc C7F30742 		ubfx	r2, r7, #16, #8
 986 0300 9A5C     		ldrb	r2, [r3, r2]	@ zero_extendqisi2
 743:C:/Users/lenovo/Desktop/liteos/Project2/BearPi_LiteOS/components/security/mbedtls/mbedtls-2.6.0/library\aes.c ****             ( (uint32_t) FSb[ ( Y2 >>  8 ) & 0xFF ] <<  8 ) ^
 987              		.loc 1 743 0
 988 0302 81EA0241 		eor	r1, r1, r2, lsl #16
 745:C:/Users/lenovo/Desktop/liteos/Project2/BearPi_LiteOS/components/security/mbedtls/mbedtls-2.6.0/library\aes.c ****             ( (uint32_t) FSb[ ( Y0 >> 24 ) & 0xFF ] << 24 );
 989              		.loc 1 745 0
 990 0306 020E     		lsrs	r2, r0, #24
 991 0308 9A5C     		ldrb	r2, [r3, r2]	@ zero_extendqisi2
 741:C:/Users/lenovo/Desktop/liteos/Project2/BearPi_LiteOS/components/security/mbedtls/mbedtls-2.6.0/library\aes.c ****             ( (uint32_t) FSb[ ( Y1       ) & 0xFF ]       ) ^
 992              		.loc 1 741 0
ARM GAS  c:\Users\lenovo\AppData\Local\Temp\ccpYsKo5.s 			page 33


 993 030a 81EA0261 		eor	r1, r1, r2, lsl #24
 994              	.LVL105:
 746:C:/Users/lenovo/Desktop/liteos/Project2/BearPi_LiteOS/components/security/mbedtls/mbedtls-2.6.0/library\aes.c **** 
 747:C:/Users/lenovo/Desktop/liteos/Project2/BearPi_LiteOS/components/security/mbedtls/mbedtls-2.6.0/library\aes.c ****     X2 = *RK++ ^ \
 995              		.loc 1 747 0
 996 030e B269     		ldr	r2, [r6, #24]
 748:C:/Users/lenovo/Desktop/liteos/Project2/BearPi_LiteOS/components/security/mbedtls/mbedtls-2.6.0/library\aes.c ****             ( (uint32_t) FSb[ ( Y2       ) & 0xFF ]       ) ^
 997              		.loc 1 748 0
 998 0310 5FFA88F5 		uxtb	r5, r8
 999 0314 5D5D     		ldrb	r5, [r3, r5]	@ zero_extendqisi2
 747:C:/Users/lenovo/Desktop/liteos/Project2/BearPi_LiteOS/components/security/mbedtls/mbedtls-2.6.0/library\aes.c ****             ( (uint32_t) FSb[ ( Y2       ) & 0xFF ]       ) ^
 1000              		.loc 1 747 0
 1001 0316 5540     		eors	r5, r5, r2
 749:C:/Users/lenovo/Desktop/liteos/Project2/BearPi_LiteOS/components/security/mbedtls/mbedtls-2.6.0/library\aes.c ****             ( (uint32_t) FSb[ ( Y3 >>  8 ) & 0xFF ] <<  8 ) ^
 1002              		.loc 1 749 0
 1003 0318 C7F30722 		ubfx	r2, r7, #8, #8
 1004 031c 9A5C     		ldrb	r2, [r3, r2]	@ zero_extendqisi2
 748:C:/Users/lenovo/Desktop/liteos/Project2/BearPi_LiteOS/components/security/mbedtls/mbedtls-2.6.0/library\aes.c ****             ( (uint32_t) FSb[ ( Y2       ) & 0xFF ]       ) ^
 1005              		.loc 1 748 0
 1006 031e 85EA0225 		eor	r5, r5, r2, lsl #8
 750:C:/Users/lenovo/Desktop/liteos/Project2/BearPi_LiteOS/components/security/mbedtls/mbedtls-2.6.0/library\aes.c ****             ( (uint32_t) FSb[ ( Y0 >> 16 ) & 0xFF ] << 16 ) ^
 1007              		.loc 1 750 0
 1008 0322 C0F30742 		ubfx	r2, r0, #16, #8
 1009 0326 9A5C     		ldrb	r2, [r3, r2]	@ zero_extendqisi2
 749:C:/Users/lenovo/Desktop/liteos/Project2/BearPi_LiteOS/components/security/mbedtls/mbedtls-2.6.0/library\aes.c ****             ( (uint32_t) FSb[ ( Y3 >>  8 ) & 0xFF ] <<  8 ) ^
 1010              		.loc 1 749 0
 1011 0328 85EA0245 		eor	r5, r5, r2, lsl #16
 751:C:/Users/lenovo/Desktop/liteos/Project2/BearPi_LiteOS/components/security/mbedtls/mbedtls-2.6.0/library\aes.c ****             ( (uint32_t) FSb[ ( Y1 >> 24 ) & 0xFF ] << 24 );
 1012              		.loc 1 751 0
 1013 032c 4FEA1E62 		lsr	r2, lr, #24
 1014 0330 9A5C     		ldrb	r2, [r3, r2]	@ zero_extendqisi2
 747:C:/Users/lenovo/Desktop/liteos/Project2/BearPi_LiteOS/components/security/mbedtls/mbedtls-2.6.0/library\aes.c ****             ( (uint32_t) FSb[ ( Y2       ) & 0xFF ]       ) ^
 1015              		.loc 1 747 0
 1016 0332 85EA0265 		eor	r5, r5, r2, lsl #24
 1017              	.LVL106:
 752:C:/Users/lenovo/Desktop/liteos/Project2/BearPi_LiteOS/components/security/mbedtls/mbedtls-2.6.0/library\aes.c **** 
 753:C:/Users/lenovo/Desktop/liteos/Project2/BearPi_LiteOS/components/security/mbedtls/mbedtls-2.6.0/library\aes.c ****     X3 = *RK++ ^ \
 1018              		.loc 1 753 0
 1019 0336 F269     		ldr	r2, [r6, #28]
 754:C:/Users/lenovo/Desktop/liteos/Project2/BearPi_LiteOS/components/security/mbedtls/mbedtls-2.6.0/library\aes.c ****             ( (uint32_t) FSb[ ( Y3       ) & 0xFF ]       ) ^
 1020              		.loc 1 754 0
 1021 0338 FFB2     		uxtb	r7, r7
 1022              	.LVL107:
 1023 033a DE5D     		ldrb	r6, [r3, r7]	@ zero_extendqisi2
 1024              	.LVL108:
 753:C:/Users/lenovo/Desktop/liteos/Project2/BearPi_LiteOS/components/security/mbedtls/mbedtls-2.6.0/library\aes.c ****             ( (uint32_t) FSb[ ( Y3       ) & 0xFF ]       ) ^
 1025              		.loc 1 753 0
 1026 033c 7240     		eors	r2, r2, r6
 755:C:/Users/lenovo/Desktop/liteos/Project2/BearPi_LiteOS/components/security/mbedtls/mbedtls-2.6.0/library\aes.c ****             ( (uint32_t) FSb[ ( Y0 >>  8 ) & 0xFF ] <<  8 ) ^
 1027              		.loc 1 755 0
 1028 033e C0F30720 		ubfx	r0, r0, #8, #8
 1029              	.LVL109:
 1030 0342 185C     		ldrb	r0, [r3, r0]	@ zero_extendqisi2
 754:C:/Users/lenovo/Desktop/liteos/Project2/BearPi_LiteOS/components/security/mbedtls/mbedtls-2.6.0/library\aes.c ****             ( (uint32_t) FSb[ ( Y3       ) & 0xFF ]       ) ^
 1031              		.loc 1 754 0
 1032 0344 82EA0022 		eor	r2, r2, r0, lsl #8
 756:C:/Users/lenovo/Desktop/liteos/Project2/BearPi_LiteOS/components/security/mbedtls/mbedtls-2.6.0/library\aes.c ****             ( (uint32_t) FSb[ ( Y1 >> 16 ) & 0xFF ] << 16 ) ^
ARM GAS  c:\Users\lenovo\AppData\Local\Temp\ccpYsKo5.s 			page 34


 1033              		.loc 1 756 0
 1034 0348 CEF3074E 		ubfx	lr, lr, #16, #8
 1035              	.LVL110:
 1036 034c 13F80E00 		ldrb	r0, [r3, lr]	@ zero_extendqisi2
 755:C:/Users/lenovo/Desktop/liteos/Project2/BearPi_LiteOS/components/security/mbedtls/mbedtls-2.6.0/library\aes.c ****             ( (uint32_t) FSb[ ( Y0 >>  8 ) & 0xFF ] <<  8 ) ^
 1037              		.loc 1 755 0
 1038 0350 82EA0042 		eor	r2, r2, r0, lsl #16
 757:C:/Users/lenovo/Desktop/liteos/Project2/BearPi_LiteOS/components/security/mbedtls/mbedtls-2.6.0/library\aes.c ****             ( (uint32_t) FSb[ ( Y2 >> 24 ) & 0xFF ] << 24 );
 1039              		.loc 1 757 0
 1040 0354 4FEA1868 		lsr	r8, r8, #24
 1041              	.LVL111:
 1042 0358 13F80830 		ldrb	r3, [r3, r8]	@ zero_extendqisi2
 753:C:/Users/lenovo/Desktop/liteos/Project2/BearPi_LiteOS/components/security/mbedtls/mbedtls-2.6.0/library\aes.c ****             ( (uint32_t) FSb[ ( Y3       ) & 0xFF ]       ) ^
 1043              		.loc 1 753 0
 1044 035c 82EA0363 		eor	r3, r2, r3, lsl #24
 1045              	.LVL112:
 758:C:/Users/lenovo/Desktop/liteos/Project2/BearPi_LiteOS/components/security/mbedtls/mbedtls-2.6.0/library\aes.c **** 
 759:C:/Users/lenovo/Desktop/liteos/Project2/BearPi_LiteOS/components/security/mbedtls/mbedtls-2.6.0/library\aes.c ****     PUT_UINT32_LE( X0, output,  0 );
 1046              		.loc 1 759 0
 1047 0360 0198     		ldr	r0, [sp, #4]
 1048 0362 0470     		strb	r4, [r0]
 1049 0364 C4F30722 		ubfx	r2, r4, #8, #8
 1050 0368 4270     		strb	r2, [r0, #1]
 1051 036a C4F30742 		ubfx	r2, r4, #16, #8
 1052 036e 8270     		strb	r2, [r0, #2]
 1053 0370 240E     		lsrs	r4, r4, #24
 1054              	.LVL113:
 1055 0372 C470     		strb	r4, [r0, #3]
 760:C:/Users/lenovo/Desktop/liteos/Project2/BearPi_LiteOS/components/security/mbedtls/mbedtls-2.6.0/library\aes.c ****     PUT_UINT32_LE( X1, output,  4 );
 1056              		.loc 1 760 0
 1057 0374 0171     		strb	r1, [r0, #4]
 1058 0376 C1F30722 		ubfx	r2, r1, #8, #8
 1059 037a 4271     		strb	r2, [r0, #5]
 1060 037c C1F30742 		ubfx	r2, r1, #16, #8
 1061 0380 8271     		strb	r2, [r0, #6]
 1062 0382 090E     		lsrs	r1, r1, #24
 1063              	.LVL114:
 1064 0384 C171     		strb	r1, [r0, #7]
 761:C:/Users/lenovo/Desktop/liteos/Project2/BearPi_LiteOS/components/security/mbedtls/mbedtls-2.6.0/library\aes.c ****     PUT_UINT32_LE( X2, output,  8 );
 1065              		.loc 1 761 0
 1066 0386 0572     		strb	r5, [r0, #8]
 1067 0388 C5F30722 		ubfx	r2, r5, #8, #8
 1068 038c 4272     		strb	r2, [r0, #9]
 1069 038e C5F30742 		ubfx	r2, r5, #16, #8
 1070 0392 8272     		strb	r2, [r0, #10]
 1071 0394 2D0E     		lsrs	r5, r5, #24
 1072              	.LVL115:
 1073 0396 C572     		strb	r5, [r0, #11]
 762:C:/Users/lenovo/Desktop/liteos/Project2/BearPi_LiteOS/components/security/mbedtls/mbedtls-2.6.0/library\aes.c ****     PUT_UINT32_LE( X3, output, 12 );
 1074              		.loc 1 762 0
 1075 0398 0373     		strb	r3, [r0, #12]
 1076 039a C3F30722 		ubfx	r2, r3, #8, #8
 1077 039e 4273     		strb	r2, [r0, #13]
 1078 03a0 C3F30742 		ubfx	r2, r3, #16, #8
 1079 03a4 8273     		strb	r2, [r0, #14]
 1080 03a6 1B0E     		lsrs	r3, r3, #24
 1081              	.LVL116:
ARM GAS  c:\Users\lenovo\AppData\Local\Temp\ccpYsKo5.s 			page 35


 1082 03a8 C373     		strb	r3, [r0, #15]
 763:C:/Users/lenovo/Desktop/liteos/Project2/BearPi_LiteOS/components/security/mbedtls/mbedtls-2.6.0/library\aes.c **** 
 764:C:/Users/lenovo/Desktop/liteos/Project2/BearPi_LiteOS/components/security/mbedtls/mbedtls-2.6.0/library\aes.c ****     return( 0 );
 765:C:/Users/lenovo/Desktop/liteos/Project2/BearPi_LiteOS/components/security/mbedtls/mbedtls-2.6.0/library\aes.c **** }
 1083              		.loc 1 765 0
 1084 03aa 0020     		movs	r0, #0
 1085 03ac 03B0     		add	sp, sp, #12
 1086              	.LCFI13:
 1087              		.cfi_def_cfa_offset 36
 1088              		@ sp needed
 1089 03ae BDE8F08F 		pop	{r4, r5, r6, r7, r8, r9, r10, fp, pc}
 1090              	.LVL117:
 1091              	.L55:
 1092 03b2 00BF     		.align	2
 1093              	.L54:
 1094 03b4 00000000 		.word	.LANCHOR6
 1095 03b8 00000000 		.word	.LANCHOR7
 1096 03bc 00000000 		.word	.LANCHOR8
 1097 03c0 00000000 		.word	.LANCHOR9
 1098 03c4 00000000 		.word	.LANCHOR1
 1099              		.cfi_endproc
 1100              	.LFE5:
 1102              		.section	.text.mbedtls_aes_encrypt,"ax",%progbits
 1103              		.align	1
 1104              		.global	mbedtls_aes_encrypt
 1105              		.syntax unified
 1106              		.thumb
 1107              		.thumb_func
 1108              		.fpu fpv4-sp-d16
 1110              	mbedtls_aes_encrypt:
 1111              	.LFB6:
 766:C:/Users/lenovo/Desktop/liteos/Project2/BearPi_LiteOS/components/security/mbedtls/mbedtls-2.6.0/library\aes.c **** #endif /* !MBEDTLS_AES_ENCRYPT_ALT */
 767:C:/Users/lenovo/Desktop/liteos/Project2/BearPi_LiteOS/components/security/mbedtls/mbedtls-2.6.0/library\aes.c **** 
 768:C:/Users/lenovo/Desktop/liteos/Project2/BearPi_LiteOS/components/security/mbedtls/mbedtls-2.6.0/library\aes.c **** void mbedtls_aes_encrypt( mbedtls_aes_context *ctx,
 769:C:/Users/lenovo/Desktop/liteos/Project2/BearPi_LiteOS/components/security/mbedtls/mbedtls-2.6.0/library\aes.c ****                           const unsigned char input[16],
 770:C:/Users/lenovo/Desktop/liteos/Project2/BearPi_LiteOS/components/security/mbedtls/mbedtls-2.6.0/library\aes.c ****                           unsigned char output[16] )
 771:C:/Users/lenovo/Desktop/liteos/Project2/BearPi_LiteOS/components/security/mbedtls/mbedtls-2.6.0/library\aes.c **** {
 1112              		.loc 1 771 0
 1113              		.cfi_startproc
 1114              		@ args = 0, pretend = 0, frame = 0
 1115              		@ frame_needed = 0, uses_anonymous_args = 0
 1116              	.LVL118:
 1117 0000 08B5     		push	{r3, lr}
 1118              	.LCFI14:
 1119              		.cfi_def_cfa_offset 8
 1120              		.cfi_offset 3, -8
 1121              		.cfi_offset 14, -4
 772:C:/Users/lenovo/Desktop/liteos/Project2/BearPi_LiteOS/components/security/mbedtls/mbedtls-2.6.0/library\aes.c ****     mbedtls_internal_aes_encrypt( ctx, input, output );
 1122              		.loc 1 772 0
 1123 0002 FFF7FEFF 		bl	mbedtls_internal_aes_encrypt
 1124              	.LVL119:
 773:C:/Users/lenovo/Desktop/liteos/Project2/BearPi_LiteOS/components/security/mbedtls/mbedtls-2.6.0/library\aes.c **** }
 1125              		.loc 1 773 0
 1126 0006 08BD     		pop	{r3, pc}
 1127              		.cfi_endproc
 1128              	.LFE6:
 1130              		.section	.text.mbedtls_internal_aes_decrypt,"ax",%progbits
ARM GAS  c:\Users\lenovo\AppData\Local\Temp\ccpYsKo5.s 			page 36


 1131              		.align	1
 1132              		.global	mbedtls_internal_aes_decrypt
 1133              		.syntax unified
 1134              		.thumb
 1135              		.thumb_func
 1136              		.fpu fpv4-sp-d16
 1138              	mbedtls_internal_aes_decrypt:
 1139              	.LFB7:
 774:C:/Users/lenovo/Desktop/liteos/Project2/BearPi_LiteOS/components/security/mbedtls/mbedtls-2.6.0/library\aes.c **** 
 775:C:/Users/lenovo/Desktop/liteos/Project2/BearPi_LiteOS/components/security/mbedtls/mbedtls-2.6.0/library\aes.c **** /*
 776:C:/Users/lenovo/Desktop/liteos/Project2/BearPi_LiteOS/components/security/mbedtls/mbedtls-2.6.0/library\aes.c ****  * AES-ECB block decryption
 777:C:/Users/lenovo/Desktop/liteos/Project2/BearPi_LiteOS/components/security/mbedtls/mbedtls-2.6.0/library\aes.c ****  */
 778:C:/Users/lenovo/Desktop/liteos/Project2/BearPi_LiteOS/components/security/mbedtls/mbedtls-2.6.0/library\aes.c **** #if !defined(MBEDTLS_AES_DECRYPT_ALT)
 779:C:/Users/lenovo/Desktop/liteos/Project2/BearPi_LiteOS/components/security/mbedtls/mbedtls-2.6.0/library\aes.c **** int mbedtls_internal_aes_decrypt( mbedtls_aes_context *ctx,
 780:C:/Users/lenovo/Desktop/liteos/Project2/BearPi_LiteOS/components/security/mbedtls/mbedtls-2.6.0/library\aes.c ****                                   const unsigned char input[16],
 781:C:/Users/lenovo/Desktop/liteos/Project2/BearPi_LiteOS/components/security/mbedtls/mbedtls-2.6.0/library\aes.c ****                                   unsigned char output[16] )
 782:C:/Users/lenovo/Desktop/liteos/Project2/BearPi_LiteOS/components/security/mbedtls/mbedtls-2.6.0/library\aes.c **** {
 1140              		.loc 1 782 0
 1141              		.cfi_startproc
 1142              		@ args = 0, pretend = 0, frame = 8
 1143              		@ frame_needed = 0, uses_anonymous_args = 0
 1144              	.LVL120:
 1145 0000 2DE9F04F 		push	{r4, r5, r6, r7, r8, r9, r10, fp, lr}
 1146              	.LCFI15:
 1147              		.cfi_def_cfa_offset 36
 1148              		.cfi_offset 4, -36
 1149              		.cfi_offset 5, -32
 1150              		.cfi_offset 6, -28
 1151              		.cfi_offset 7, -24
 1152              		.cfi_offset 8, -20
 1153              		.cfi_offset 9, -16
 1154              		.cfi_offset 10, -12
 1155              		.cfi_offset 11, -8
 1156              		.cfi_offset 14, -4
 1157 0004 83B0     		sub	sp, sp, #12
 1158              	.LCFI16:
 1159              		.cfi_def_cfa_offset 48
 1160 0006 0192     		str	r2, [sp, #4]
 783:C:/Users/lenovo/Desktop/liteos/Project2/BearPi_LiteOS/components/security/mbedtls/mbedtls-2.6.0/library\aes.c ****     int i;
 784:C:/Users/lenovo/Desktop/liteos/Project2/BearPi_LiteOS/components/security/mbedtls/mbedtls-2.6.0/library\aes.c ****     uint32_t *RK, X0, X1, X2, X3, Y0, Y1, Y2, Y3;
 785:C:/Users/lenovo/Desktop/liteos/Project2/BearPi_LiteOS/components/security/mbedtls/mbedtls-2.6.0/library\aes.c **** 
 786:C:/Users/lenovo/Desktop/liteos/Project2/BearPi_LiteOS/components/security/mbedtls/mbedtls-2.6.0/library\aes.c ****     RK = ctx->rk;
 1161              		.loc 1 786 0
 1162 0008 4468     		ldr	r4, [r0, #4]
 1163              	.LVL121:
 787:C:/Users/lenovo/Desktop/liteos/Project2/BearPi_LiteOS/components/security/mbedtls/mbedtls-2.6.0/library\aes.c **** 
 788:C:/Users/lenovo/Desktop/liteos/Project2/BearPi_LiteOS/components/security/mbedtls/mbedtls-2.6.0/library\aes.c ****     GET_UINT32_LE( X0, input,  0 ); X0 ^= *RK++;
 1164              		.loc 1 788 0
 1165 000a 91F800A0 		ldrb	r10, [r1]	@ zero_extendqisi2
 1166 000e 4B78     		ldrb	r3, [r1, #1]	@ zero_extendqisi2
 1167 0010 4AEA032A 		orr	r10, r10, r3, lsl #8
 1168 0014 8B78     		ldrb	r3, [r1, #2]	@ zero_extendqisi2
 1169 0016 4AEA034A 		orr	r10, r10, r3, lsl #16
 1170 001a CB78     		ldrb	r3, [r1, #3]	@ zero_extendqisi2
 1171 001c 4AEA036A 		orr	r10, r10, r3, lsl #24
 1172              	.LVL122:
 1173 0020 2368     		ldr	r3, [r4]
ARM GAS  c:\Users\lenovo\AppData\Local\Temp\ccpYsKo5.s 			page 37


 1174 0022 8AEA030A 		eor	r10, r10, r3
 1175              	.LVL123:
 789:C:/Users/lenovo/Desktop/liteos/Project2/BearPi_LiteOS/components/security/mbedtls/mbedtls-2.6.0/library\aes.c ****     GET_UINT32_LE( X1, input,  4 ); X1 ^= *RK++;
 1176              		.loc 1 789 0
 1177 0026 91F80490 		ldrb	r9, [r1, #4]	@ zero_extendqisi2
 1178 002a 4B79     		ldrb	r3, [r1, #5]	@ zero_extendqisi2
 1179 002c 49EA0329 		orr	r9, r9, r3, lsl #8
 1180 0030 8B79     		ldrb	r3, [r1, #6]	@ zero_extendqisi2
 1181 0032 49EA0349 		orr	r9, r9, r3, lsl #16
 1182 0036 CB79     		ldrb	r3, [r1, #7]	@ zero_extendqisi2
 1183 0038 49EA0369 		orr	r9, r9, r3, lsl #24
 1184              	.LVL124:
 1185 003c 6368     		ldr	r3, [r4, #4]
 1186 003e 89EA0309 		eor	r9, r9, r3
 1187              	.LVL125:
 790:C:/Users/lenovo/Desktop/liteos/Project2/BearPi_LiteOS/components/security/mbedtls/mbedtls-2.6.0/library\aes.c ****     GET_UINT32_LE( X2, input,  8 ); X2 ^= *RK++;
 1188              		.loc 1 790 0
 1189 0042 0B7A     		ldrb	r3, [r1, #8]	@ zero_extendqisi2
 1190 0044 4A7A     		ldrb	r2, [r1, #9]	@ zero_extendqisi2
 1191              	.LVL126:
 1192 0046 43EA0223 		orr	r3, r3, r2, lsl #8
 1193 004a 8A7A     		ldrb	r2, [r1, #10]	@ zero_extendqisi2
 1194 004c 43EA0243 		orr	r3, r3, r2, lsl #16
 1195 0050 CA7A     		ldrb	r2, [r1, #11]	@ zero_extendqisi2
 1196 0052 43EA0263 		orr	r3, r3, r2, lsl #24
 1197              	.LVL127:
 1198 0056 A268     		ldr	r2, [r4, #8]
 1199 0058 5340     		eors	r3, r3, r2
 1200              	.LVL128:
 791:C:/Users/lenovo/Desktop/liteos/Project2/BearPi_LiteOS/components/security/mbedtls/mbedtls-2.6.0/library\aes.c ****     GET_UINT32_LE( X3, input, 12 ); X3 ^= *RK++;
 1201              		.loc 1 791 0
 1202 005a 0A7B     		ldrb	r2, [r1, #12]	@ zero_extendqisi2
 1203 005c 4D7B     		ldrb	r5, [r1, #13]	@ zero_extendqisi2
 1204 005e 42EA0522 		orr	r2, r2, r5, lsl #8
 1205 0062 8D7B     		ldrb	r5, [r1, #14]	@ zero_extendqisi2
 1206 0064 42EA0542 		orr	r2, r2, r5, lsl #16
 1207 0068 C97B     		ldrb	r1, [r1, #15]	@ zero_extendqisi2
 1208              	.LVL129:
 1209 006a 42EA0162 		orr	r2, r2, r1, lsl #24
 1210              	.LVL130:
 1211 006e 04F11006 		add	r6, r4, #16
 1212              	.LVL131:
 1213 0072 E168     		ldr	r1, [r4, #12]
 1214 0074 4A40     		eors	r2, r2, r1
 1215              	.LVL132:
 792:C:/Users/lenovo/Desktop/liteos/Project2/BearPi_LiteOS/components/security/mbedtls/mbedtls-2.6.0/library\aes.c **** 
 793:C:/Users/lenovo/Desktop/liteos/Project2/BearPi_LiteOS/components/security/mbedtls/mbedtls-2.6.0/library\aes.c ****     for( i = ( ctx->nr >> 1 ) - 1; i > 0; i-- )
 1216              		.loc 1 793 0
 1217 0076 0168     		ldr	r1, [r0]
 1218 0078 4FEA610B 		asr	fp, r1, #1
 1219 007c 0BF1FF3B 		add	fp, fp, #-1
 1220              	.LVL133:
 1221 0080 BDE0     		b	.L59
 1222              	.LVL134:
 1223              	.L60:
 794:C:/Users/lenovo/Desktop/liteos/Project2/BearPi_LiteOS/components/security/mbedtls/mbedtls-2.6.0/library\aes.c ****     {
 795:C:/Users/lenovo/Desktop/liteos/Project2/BearPi_LiteOS/components/security/mbedtls/mbedtls-2.6.0/library\aes.c ****         AES_RROUND( Y0, Y1, Y2, Y3, X0, X1, X2, X3 );
ARM GAS  c:\Users\lenovo\AppData\Local\Temp\ccpYsKo5.s 			page 38


 1224              		.loc 1 795 0 discriminator 3
 1225 0082 3168     		ldr	r1, [r6]
 1226 0084 5FFA8AF0 		uxtb	r0, r10
 1227 0088 CA4F     		ldr	r7, .L62
 1228 008a 57F82000 		ldr	r0, [r7, r0, lsl #2]
 1229 008e 81EA0008 		eor	r8, r1, r0
 1230 0092 C2F30721 		ubfx	r1, r2, #8, #8
 1231 0096 C84C     		ldr	r4, .L62+4
 1232 0098 54F82110 		ldr	r1, [r4, r1, lsl #2]
 1233 009c 88EA0108 		eor	r8, r8, r1
 1234 00a0 C3F30741 		ubfx	r1, r3, #16, #8
 1235 00a4 C548     		ldr	r0, .L62+8
 1236 00a6 50F82110 		ldr	r1, [r0, r1, lsl #2]
 1237 00aa 88EA0108 		eor	r8, r8, r1
 1238 00ae 4FEA1965 		lsr	r5, r9, #24
 1239 00b2 C349     		ldr	r1, .L62+12
 1240 00b4 51F82550 		ldr	r5, [r1, r5, lsl #2]
 1241 00b8 88EA0508 		eor	r8, r8, r5
 1242              	.LVL135:
 1243 00bc 5FFA89FC 		uxtb	ip, r9
 1244 00c0 57F82CC0 		ldr	ip, [r7, ip, lsl #2]
 1245 00c4 7568     		ldr	r5, [r6, #4]
 1246 00c6 85EA0C0E 		eor	lr, r5, ip
 1247 00ca CAF30725 		ubfx	r5, r10, #8, #8
 1248 00ce 54F82550 		ldr	r5, [r4, r5, lsl #2]
 1249 00d2 8EEA050E 		eor	lr, lr, r5
 1250 00d6 C2F30745 		ubfx	r5, r2, #16, #8
 1251 00da 50F82550 		ldr	r5, [r0, r5, lsl #2]
 1252 00de 8EEA050E 		eor	lr, lr, r5
 1253 00e2 1D0E     		lsrs	r5, r3, #24
 1254 00e4 51F82550 		ldr	r5, [r1, r5, lsl #2]
 1255 00e8 8EEA050E 		eor	lr, lr, r5
 1256              	.LVL136:
 1257 00ec 5FFA83FC 		uxtb	ip, r3
 1258 00f0 57F82CC0 		ldr	ip, [r7, ip, lsl #2]
 1259 00f4 B568     		ldr	r5, [r6, #8]
 1260 00f6 85EA0C0C 		eor	ip, r5, ip
 1261 00fa C9F30725 		ubfx	r5, r9, #8, #8
 1262 00fe 54F82550 		ldr	r5, [r4, r5, lsl #2]
 1263 0102 8CEA050C 		eor	ip, ip, r5
 1264 0106 CAF30745 		ubfx	r5, r10, #16, #8
 1265 010a 50F82550 		ldr	r5, [r0, r5, lsl #2]
 1266 010e 8CEA050C 		eor	ip, ip, r5
 1267 0112 150E     		lsrs	r5, r2, #24
 1268 0114 51F82550 		ldr	r5, [r1, r5, lsl #2]
 1269 0118 8CEA050C 		eor	ip, ip, r5
 1270              	.LVL137:
 1271 011c F568     		ldr	r5, [r6, #12]
 1272 011e D2B2     		uxtb	r2, r2
 1273              	.LVL138:
 1274 0120 57F82220 		ldr	r2, [r7, r2, lsl #2]
 1275 0124 5540     		eors	r5, r5, r2
 1276 0126 C3F30723 		ubfx	r3, r3, #8, #8
 1277              	.LVL139:
 1278 012a 54F82330 		ldr	r3, [r4, r3, lsl #2]
 1279 012e 5D40     		eors	r5, r5, r3
 1280 0130 C9F30749 		ubfx	r9, r9, #16, #8
ARM GAS  c:\Users\lenovo\AppData\Local\Temp\ccpYsKo5.s 			page 39


 1281              	.LVL140:
 1282 0134 50F82930 		ldr	r3, [r0, r9, lsl #2]
 1283 0138 5D40     		eors	r5, r5, r3
 1284 013a 4FEA1A6A 		lsr	r10, r10, #24
 1285              	.LVL141:
 1286 013e 51F82A30 		ldr	r3, [r1, r10, lsl #2]
 1287 0142 5D40     		eors	r5, r5, r3
 1288              	.LVL142:
 796:C:/Users/lenovo/Desktop/liteos/Project2/BearPi_LiteOS/components/security/mbedtls/mbedtls-2.6.0/library\aes.c ****         AES_RROUND( X0, X1, X2, X3, Y0, Y1, Y2, Y3 );
 1289              		.loc 1 796 0 discriminator 3
 1290 0144 3369     		ldr	r3, [r6, #16]
 1291 0146 5FFA88F2 		uxtb	r2, r8
 1292 014a 57F82220 		ldr	r2, [r7, r2, lsl #2]
 1293 014e 83EA020A 		eor	r10, r3, r2
 1294 0152 C5F30723 		ubfx	r3, r5, #8, #8
 1295 0156 54F82330 		ldr	r3, [r4, r3, lsl #2]
 1296 015a 8AEA030A 		eor	r10, r10, r3
 1297 015e CCF30743 		ubfx	r3, ip, #16, #8
 1298 0162 50F82330 		ldr	r3, [r0, r3, lsl #2]
 1299 0166 8AEA030A 		eor	r10, r10, r3
 1300 016a 4FEA1E63 		lsr	r3, lr, #24
 1301 016e 51F82330 		ldr	r3, [r1, r3, lsl #2]
 1302 0172 8AEA030A 		eor	r10, r10, r3
 1303              	.LVL143:
 1304 0176 7369     		ldr	r3, [r6, #20]
 1305 0178 5FFA8EF2 		uxtb	r2, lr
 1306 017c 57F82220 		ldr	r2, [r7, r2, lsl #2]
 1307 0180 83EA0209 		eor	r9, r3, r2
 1308 0184 C8F30723 		ubfx	r3, r8, #8, #8
 1309 0188 54F82330 		ldr	r3, [r4, r3, lsl #2]
 1310 018c 89EA0309 		eor	r9, r9, r3
 1311 0190 C5F30743 		ubfx	r3, r5, #16, #8
 1312 0194 50F82330 		ldr	r3, [r0, r3, lsl #2]
 1313 0198 89EA0309 		eor	r9, r9, r3
 1314 019c 4FEA1C63 		lsr	r3, ip, #24
 1315 01a0 51F82330 		ldr	r3, [r1, r3, lsl #2]
 1316 01a4 89EA0309 		eor	r9, r9, r3
 1317              	.LVL144:
 1318 01a8 B369     		ldr	r3, [r6, #24]
 1319 01aa 5FFA8CF2 		uxtb	r2, ip
 1320 01ae 57F82220 		ldr	r2, [r7, r2, lsl #2]
 1321 01b2 5340     		eors	r3, r3, r2
 1322 01b4 CEF30722 		ubfx	r2, lr, #8, #8
 1323 01b8 54F82220 		ldr	r2, [r4, r2, lsl #2]
 1324 01bc 5340     		eors	r3, r3, r2
 1325 01be C8F30742 		ubfx	r2, r8, #16, #8
 1326 01c2 50F82220 		ldr	r2, [r0, r2, lsl #2]
 1327 01c6 5340     		eors	r3, r3, r2
 1328 01c8 2A0E     		lsrs	r2, r5, #24
 1329 01ca 51F82220 		ldr	r2, [r1, r2, lsl #2]
 1330 01ce 5340     		eors	r3, r3, r2
 1331              	.LVL145:
 1332 01d0 F269     		ldr	r2, [r6, #28]
 1333 01d2 EDB2     		uxtb	r5, r5
 1334              	.LVL146:
 1335 01d4 57F82550 		ldr	r5, [r7, r5, lsl #2]
 1336 01d8 6A40     		eors	r2, r2, r5
ARM GAS  c:\Users\lenovo\AppData\Local\Temp\ccpYsKo5.s 			page 40


 1337 01da CCF3072C 		ubfx	ip, ip, #8, #8
 1338              	.LVL147:
 1339 01de 54F82C40 		ldr	r4, [r4, ip, lsl #2]
 1340 01e2 6240     		eors	r2, r2, r4
 1341 01e4 CEF3074E 		ubfx	lr, lr, #16, #8
 1342              	.LVL148:
 1343 01e8 50F82E00 		ldr	r0, [r0, lr, lsl #2]
 1344 01ec 4240     		eors	r2, r2, r0
 1345 01ee 4FEA1868 		lsr	r8, r8, #24
 1346              	.LVL149:
 1347 01f2 51F82810 		ldr	r1, [r1, r8, lsl #2]
 1348 01f6 4A40     		eors	r2, r2, r1
 1349              	.LVL150:
 793:C:/Users/lenovo/Desktop/liteos/Project2/BearPi_LiteOS/components/security/mbedtls/mbedtls-2.6.0/library\aes.c ****     {
 1350              		.loc 1 793 0 discriminator 3
 1351 01f8 0BF1FF3B 		add	fp, fp, #-1
 1352              	.LVL151:
 1353              		.loc 1 796 0 discriminator 3
 1354 01fc 2036     		adds	r6, r6, #32
 1355              	.LVL152:
 1356              	.L59:
 793:C:/Users/lenovo/Desktop/liteos/Project2/BearPi_LiteOS/components/security/mbedtls/mbedtls-2.6.0/library\aes.c ****     {
 1357              		.loc 1 793 0 discriminator 1
 1358 01fe BBF1000F 		cmp	fp, #0
 1359 0202 3FF73EAF 		bgt	.L60
 1360              	.LVL153:
 797:C:/Users/lenovo/Desktop/liteos/Project2/BearPi_LiteOS/components/security/mbedtls/mbedtls-2.6.0/library\aes.c ****     }
 798:C:/Users/lenovo/Desktop/liteos/Project2/BearPi_LiteOS/components/security/mbedtls/mbedtls-2.6.0/library\aes.c **** 
 799:C:/Users/lenovo/Desktop/liteos/Project2/BearPi_LiteOS/components/security/mbedtls/mbedtls-2.6.0/library\aes.c ****     AES_RROUND( Y0, Y1, Y2, Y3, X0, X1, X2, X3 );
 1361              		.loc 1 799 0
 1362 0206 3168     		ldr	r1, [r6]
 1363 0208 5FFA8AF0 		uxtb	r0, r10
 1364 020c DFF8A4C1 		ldr	ip, .L62
 1365 0210 5CF82000 		ldr	r0, [ip, r0, lsl #2]
 1366 0214 4140     		eors	r1, r1, r0
 1367 0216 C2F30720 		ubfx	r0, r2, #8, #8
 1368 021a 674F     		ldr	r7, .L62+4
 1369 021c 57F82000 		ldr	r0, [r7, r0, lsl #2]
 1370 0220 4140     		eors	r1, r1, r0
 1371 0222 C3F30740 		ubfx	r0, r3, #16, #8
 1372 0226 654D     		ldr	r5, .L62+8
 1373 0228 55F82000 		ldr	r0, [r5, r0, lsl #2]
 1374 022c 4140     		eors	r1, r1, r0
 1375 022e 4FEA1960 		lsr	r0, r9, #24
 1376 0232 634C     		ldr	r4, .L62+12
 1377 0234 54F82000 		ldr	r0, [r4, r0, lsl #2]
 1378 0238 4140     		eors	r1, r1, r0
 1379              	.LVL154:
 1380 023a 5FFA89FE 		uxtb	lr, r9
 1381 023e 5CF82EE0 		ldr	lr, [ip, lr, lsl #2]
 1382 0242 7068     		ldr	r0, [r6, #4]
 1383 0244 80EA0E0E 		eor	lr, r0, lr
 1384 0248 CAF30720 		ubfx	r0, r10, #8, #8
 1385 024c 57F82000 		ldr	r0, [r7, r0, lsl #2]
 1386 0250 8EEA000E 		eor	lr, lr, r0
 1387 0254 C2F30740 		ubfx	r0, r2, #16, #8
 1388 0258 55F82000 		ldr	r0, [r5, r0, lsl #2]
ARM GAS  c:\Users\lenovo\AppData\Local\Temp\ccpYsKo5.s 			page 41


 1389 025c 8EEA000E 		eor	lr, lr, r0
 1390 0260 180E     		lsrs	r0, r3, #24
 1391 0262 54F82000 		ldr	r0, [r4, r0, lsl #2]
 1392 0266 8EEA000E 		eor	lr, lr, r0
 1393              	.LVL155:
 1394 026a 5FFA83F8 		uxtb	r8, r3
 1395 026e 5CF82880 		ldr	r8, [ip, r8, lsl #2]
 1396 0272 B068     		ldr	r0, [r6, #8]
 1397 0274 80EA0808 		eor	r8, r0, r8
 1398 0278 C9F30720 		ubfx	r0, r9, #8, #8
 1399 027c 57F82000 		ldr	r0, [r7, r0, lsl #2]
 1400 0280 88EA0008 		eor	r8, r8, r0
 1401 0284 CAF30740 		ubfx	r0, r10, #16, #8
 1402 0288 55F82000 		ldr	r0, [r5, r0, lsl #2]
 1403 028c 88EA0008 		eor	r8, r8, r0
 1404 0290 100E     		lsrs	r0, r2, #24
 1405 0292 54F82000 		ldr	r0, [r4, r0, lsl #2]
 1406 0296 88EA0008 		eor	r8, r8, r0
 1407              	.LVL156:
 1408 029a F068     		ldr	r0, [r6, #12]
 1409 029c D2B2     		uxtb	r2, r2
 1410              	.LVL157:
 1411 029e 5CF82220 		ldr	r2, [ip, r2, lsl #2]
 1412 02a2 5040     		eors	r0, r0, r2
 1413 02a4 C3F30723 		ubfx	r3, r3, #8, #8
 1414              	.LVL158:
 1415 02a8 57F82370 		ldr	r7, [r7, r3, lsl #2]
 1416 02ac 4740     		eors	r7, r7, r0
 1417 02ae C9F30749 		ubfx	r9, r9, #16, #8
 1418              	.LVL159:
 1419 02b2 55F82900 		ldr	r0, [r5, r9, lsl #2]
 1420 02b6 4740     		eors	r7, r7, r0
 1421 02b8 4FEA1A6A 		lsr	r10, r10, #24
 1422              	.LVL160:
 1423 02bc 54F82A30 		ldr	r3, [r4, r10, lsl #2]
 1424 02c0 5F40     		eors	r7, r7, r3
 1425              	.LVL161:
 800:C:/Users/lenovo/Desktop/liteos/Project2/BearPi_LiteOS/components/security/mbedtls/mbedtls-2.6.0/library\aes.c **** 
 801:C:/Users/lenovo/Desktop/liteos/Project2/BearPi_LiteOS/components/security/mbedtls/mbedtls-2.6.0/library\aes.c ****     X0 = *RK++ ^ \
 1426              		.loc 1 801 0
 1427 02c2 3269     		ldr	r2, [r6, #16]
 802:C:/Users/lenovo/Desktop/liteos/Project2/BearPi_LiteOS/components/security/mbedtls/mbedtls-2.6.0/library\aes.c ****             ( (uint32_t) RSb[ ( Y0       ) & 0xFF ]       ) ^
 1428              		.loc 1 802 0
 1429 02c4 C8B2     		uxtb	r0, r1
 1430 02c6 3F4B     		ldr	r3, .L62+16
 1431 02c8 1C5C     		ldrb	r4, [r3, r0]	@ zero_extendqisi2
 801:C:/Users/lenovo/Desktop/liteos/Project2/BearPi_LiteOS/components/security/mbedtls/mbedtls-2.6.0/library\aes.c ****             ( (uint32_t) RSb[ ( Y0       ) & 0xFF ]       ) ^
 1432              		.loc 1 801 0
 1433 02ca 5440     		eors	r4, r4, r2
 803:C:/Users/lenovo/Desktop/liteos/Project2/BearPi_LiteOS/components/security/mbedtls/mbedtls-2.6.0/library\aes.c ****             ( (uint32_t) RSb[ ( Y3 >>  8 ) & 0xFF ] <<  8 ) ^
 1434              		.loc 1 803 0
 1435 02cc C7F30722 		ubfx	r2, r7, #8, #8
 1436 02d0 9A5C     		ldrb	r2, [r3, r2]	@ zero_extendqisi2
 802:C:/Users/lenovo/Desktop/liteos/Project2/BearPi_LiteOS/components/security/mbedtls/mbedtls-2.6.0/library\aes.c ****             ( (uint32_t) RSb[ ( Y0       ) & 0xFF ]       ) ^
 1437              		.loc 1 802 0
 1438 02d2 84EA0224 		eor	r4, r4, r2, lsl #8
 804:C:/Users/lenovo/Desktop/liteos/Project2/BearPi_LiteOS/components/security/mbedtls/mbedtls-2.6.0/library\aes.c ****             ( (uint32_t) RSb[ ( Y2 >> 16 ) & 0xFF ] << 16 ) ^
ARM GAS  c:\Users\lenovo\AppData\Local\Temp\ccpYsKo5.s 			page 42


 1439              		.loc 1 804 0
 1440 02d6 C8F30742 		ubfx	r2, r8, #16, #8
 1441 02da 9A5C     		ldrb	r2, [r3, r2]	@ zero_extendqisi2
 803:C:/Users/lenovo/Desktop/liteos/Project2/BearPi_LiteOS/components/security/mbedtls/mbedtls-2.6.0/library\aes.c ****             ( (uint32_t) RSb[ ( Y3 >>  8 ) & 0xFF ] <<  8 ) ^
 1442              		.loc 1 803 0
 1443 02dc 84EA0244 		eor	r4, r4, r2, lsl #16
 805:C:/Users/lenovo/Desktop/liteos/Project2/BearPi_LiteOS/components/security/mbedtls/mbedtls-2.6.0/library\aes.c ****             ( (uint32_t) RSb[ ( Y1 >> 24 ) & 0xFF ] << 24 );
 1444              		.loc 1 805 0
 1445 02e0 4FEA1E62 		lsr	r2, lr, #24
 1446 02e4 9A5C     		ldrb	r2, [r3, r2]	@ zero_extendqisi2
 801:C:/Users/lenovo/Desktop/liteos/Project2/BearPi_LiteOS/components/security/mbedtls/mbedtls-2.6.0/library\aes.c ****             ( (uint32_t) RSb[ ( Y0       ) & 0xFF ]       ) ^
 1447              		.loc 1 801 0
 1448 02e6 84EA0264 		eor	r4, r4, r2, lsl #24
 1449              	.LVL162:
 806:C:/Users/lenovo/Desktop/liteos/Project2/BearPi_LiteOS/components/security/mbedtls/mbedtls-2.6.0/library\aes.c **** 
 807:C:/Users/lenovo/Desktop/liteos/Project2/BearPi_LiteOS/components/security/mbedtls/mbedtls-2.6.0/library\aes.c ****     X1 = *RK++ ^ \
 1450              		.loc 1 807 0
 1451 02ea 7269     		ldr	r2, [r6, #20]
 808:C:/Users/lenovo/Desktop/liteos/Project2/BearPi_LiteOS/components/security/mbedtls/mbedtls-2.6.0/library\aes.c ****             ( (uint32_t) RSb[ ( Y1       ) & 0xFF ]       ) ^
 1452              		.loc 1 808 0
 1453 02ec 5FFA8EF0 		uxtb	r0, lr
 1454 02f0 185C     		ldrb	r0, [r3, r0]	@ zero_extendqisi2
 807:C:/Users/lenovo/Desktop/liteos/Project2/BearPi_LiteOS/components/security/mbedtls/mbedtls-2.6.0/library\aes.c ****             ( (uint32_t) RSb[ ( Y1       ) & 0xFF ]       ) ^
 1455              		.loc 1 807 0
 1456 02f2 5040     		eors	r0, r0, r2
 809:C:/Users/lenovo/Desktop/liteos/Project2/BearPi_LiteOS/components/security/mbedtls/mbedtls-2.6.0/library\aes.c ****             ( (uint32_t) RSb[ ( Y0 >>  8 ) & 0xFF ] <<  8 ) ^
 1457              		.loc 1 809 0
 1458 02f4 C1F30722 		ubfx	r2, r1, #8, #8
 1459 02f8 9A5C     		ldrb	r2, [r3, r2]	@ zero_extendqisi2
 808:C:/Users/lenovo/Desktop/liteos/Project2/BearPi_LiteOS/components/security/mbedtls/mbedtls-2.6.0/library\aes.c ****             ( (uint32_t) RSb[ ( Y1       ) & 0xFF ]       ) ^
 1460              		.loc 1 808 0
 1461 02fa 80EA0220 		eor	r0, r0, r2, lsl #8
 810:C:/Users/lenovo/Desktop/liteos/Project2/BearPi_LiteOS/components/security/mbedtls/mbedtls-2.6.0/library\aes.c ****             ( (uint32_t) RSb[ ( Y3 >> 16 ) & 0xFF ] << 16 ) ^
 1462              		.loc 1 810 0
 1463 02fe C7F30742 		ubfx	r2, r7, #16, #8
 1464 0302 9A5C     		ldrb	r2, [r3, r2]	@ zero_extendqisi2
 809:C:/Users/lenovo/Desktop/liteos/Project2/BearPi_LiteOS/components/security/mbedtls/mbedtls-2.6.0/library\aes.c ****             ( (uint32_t) RSb[ ( Y0 >>  8 ) & 0xFF ] <<  8 ) ^
 1465              		.loc 1 809 0
 1466 0304 80EA0240 		eor	r0, r0, r2, lsl #16
 811:C:/Users/lenovo/Desktop/liteos/Project2/BearPi_LiteOS/components/security/mbedtls/mbedtls-2.6.0/library\aes.c ****             ( (uint32_t) RSb[ ( Y2 >> 24 ) & 0xFF ] << 24 );
 1467              		.loc 1 811 0
 1468 0308 4FEA1862 		lsr	r2, r8, #24
 1469 030c 9A5C     		ldrb	r2, [r3, r2]	@ zero_extendqisi2
 807:C:/Users/lenovo/Desktop/liteos/Project2/BearPi_LiteOS/components/security/mbedtls/mbedtls-2.6.0/library\aes.c ****             ( (uint32_t) RSb[ ( Y1       ) & 0xFF ]       ) ^
 1470              		.loc 1 807 0
 1471 030e 80EA0260 		eor	r0, r0, r2, lsl #24
 1472              	.LVL163:
 812:C:/Users/lenovo/Desktop/liteos/Project2/BearPi_LiteOS/components/security/mbedtls/mbedtls-2.6.0/library\aes.c **** 
 813:C:/Users/lenovo/Desktop/liteos/Project2/BearPi_LiteOS/components/security/mbedtls/mbedtls-2.6.0/library\aes.c ****     X2 = *RK++ ^ \
 1473              		.loc 1 813 0
 1474 0312 B269     		ldr	r2, [r6, #24]
 814:C:/Users/lenovo/Desktop/liteos/Project2/BearPi_LiteOS/components/security/mbedtls/mbedtls-2.6.0/library\aes.c ****             ( (uint32_t) RSb[ ( Y2       ) & 0xFF ]       ) ^
 1475              		.loc 1 814 0
 1476 0314 5FFA88F5 		uxtb	r5, r8
 1477 0318 5D5D     		ldrb	r5, [r3, r5]	@ zero_extendqisi2
 813:C:/Users/lenovo/Desktop/liteos/Project2/BearPi_LiteOS/components/security/mbedtls/mbedtls-2.6.0/library\aes.c ****             ( (uint32_t) RSb[ ( Y2       ) & 0xFF ]       ) ^
 1478              		.loc 1 813 0
ARM GAS  c:\Users\lenovo\AppData\Local\Temp\ccpYsKo5.s 			page 43


 1479 031a 5540     		eors	r5, r5, r2
 815:C:/Users/lenovo/Desktop/liteos/Project2/BearPi_LiteOS/components/security/mbedtls/mbedtls-2.6.0/library\aes.c ****             ( (uint32_t) RSb[ ( Y1 >>  8 ) & 0xFF ] <<  8 ) ^
 1480              		.loc 1 815 0
 1481 031c CEF30722 		ubfx	r2, lr, #8, #8
 1482 0320 9A5C     		ldrb	r2, [r3, r2]	@ zero_extendqisi2
 814:C:/Users/lenovo/Desktop/liteos/Project2/BearPi_LiteOS/components/security/mbedtls/mbedtls-2.6.0/library\aes.c ****             ( (uint32_t) RSb[ ( Y2       ) & 0xFF ]       ) ^
 1483              		.loc 1 814 0
 1484 0322 85EA0225 		eor	r5, r5, r2, lsl #8
 816:C:/Users/lenovo/Desktop/liteos/Project2/BearPi_LiteOS/components/security/mbedtls/mbedtls-2.6.0/library\aes.c ****             ( (uint32_t) RSb[ ( Y0 >> 16 ) & 0xFF ] << 16 ) ^
 1485              		.loc 1 816 0
 1486 0326 C1F30742 		ubfx	r2, r1, #16, #8
 1487 032a 9A5C     		ldrb	r2, [r3, r2]	@ zero_extendqisi2
 815:C:/Users/lenovo/Desktop/liteos/Project2/BearPi_LiteOS/components/security/mbedtls/mbedtls-2.6.0/library\aes.c ****             ( (uint32_t) RSb[ ( Y1 >>  8 ) & 0xFF ] <<  8 ) ^
 1488              		.loc 1 815 0
 1489 032c 85EA0245 		eor	r5, r5, r2, lsl #16
 817:C:/Users/lenovo/Desktop/liteos/Project2/BearPi_LiteOS/components/security/mbedtls/mbedtls-2.6.0/library\aes.c ****             ( (uint32_t) RSb[ ( Y3 >> 24 ) & 0xFF ] << 24 );
 1490              		.loc 1 817 0
 1491 0330 3A0E     		lsrs	r2, r7, #24
 1492 0332 9A5C     		ldrb	r2, [r3, r2]	@ zero_extendqisi2
 813:C:/Users/lenovo/Desktop/liteos/Project2/BearPi_LiteOS/components/security/mbedtls/mbedtls-2.6.0/library\aes.c ****             ( (uint32_t) RSb[ ( Y2       ) & 0xFF ]       ) ^
 1493              		.loc 1 813 0
 1494 0334 85EA0265 		eor	r5, r5, r2, lsl #24
 1495              	.LVL164:
 818:C:/Users/lenovo/Desktop/liteos/Project2/BearPi_LiteOS/components/security/mbedtls/mbedtls-2.6.0/library\aes.c **** 
 819:C:/Users/lenovo/Desktop/liteos/Project2/BearPi_LiteOS/components/security/mbedtls/mbedtls-2.6.0/library\aes.c ****     X3 = *RK++ ^ \
 1496              		.loc 1 819 0
 1497 0338 F269     		ldr	r2, [r6, #28]
 820:C:/Users/lenovo/Desktop/liteos/Project2/BearPi_LiteOS/components/security/mbedtls/mbedtls-2.6.0/library\aes.c ****             ( (uint32_t) RSb[ ( Y3       ) & 0xFF ]       ) ^
 1498              		.loc 1 820 0
 1499 033a FFB2     		uxtb	r7, r7
 1500              	.LVL165:
 1501 033c DE5D     		ldrb	r6, [r3, r7]	@ zero_extendqisi2
 1502              	.LVL166:
 819:C:/Users/lenovo/Desktop/liteos/Project2/BearPi_LiteOS/components/security/mbedtls/mbedtls-2.6.0/library\aes.c ****             ( (uint32_t) RSb[ ( Y3       ) & 0xFF ]       ) ^
 1503              		.loc 1 819 0
 1504 033e 7240     		eors	r2, r2, r6
 821:C:/Users/lenovo/Desktop/liteos/Project2/BearPi_LiteOS/components/security/mbedtls/mbedtls-2.6.0/library\aes.c ****             ( (uint32_t) RSb[ ( Y2 >>  8 ) & 0xFF ] <<  8 ) ^
 1505              		.loc 1 821 0
 1506 0340 C8F30728 		ubfx	r8, r8, #8, #8
 1507              	.LVL167:
 1508 0344 13F80860 		ldrb	r6, [r3, r8]	@ zero_extendqisi2
 820:C:/Users/lenovo/Desktop/liteos/Project2/BearPi_LiteOS/components/security/mbedtls/mbedtls-2.6.0/library\aes.c ****             ( (uint32_t) RSb[ ( Y3       ) & 0xFF ]       ) ^
 1509              		.loc 1 820 0
 1510 0348 82EA0622 		eor	r2, r2, r6, lsl #8
 822:C:/Users/lenovo/Desktop/liteos/Project2/BearPi_LiteOS/components/security/mbedtls/mbedtls-2.6.0/library\aes.c ****             ( (uint32_t) RSb[ ( Y1 >> 16 ) & 0xFF ] << 16 ) ^
 1511              		.loc 1 822 0
 1512 034c CEF3074E 		ubfx	lr, lr, #16, #8
 1513              	.LVL168:
 1514 0350 13F80E60 		ldrb	r6, [r3, lr]	@ zero_extendqisi2
 821:C:/Users/lenovo/Desktop/liteos/Project2/BearPi_LiteOS/components/security/mbedtls/mbedtls-2.6.0/library\aes.c ****             ( (uint32_t) RSb[ ( Y2 >>  8 ) & 0xFF ] <<  8 ) ^
 1515              		.loc 1 821 0
 1516 0354 82EA0642 		eor	r2, r2, r6, lsl #16
 823:C:/Users/lenovo/Desktop/liteos/Project2/BearPi_LiteOS/components/security/mbedtls/mbedtls-2.6.0/library\aes.c ****             ( (uint32_t) RSb[ ( Y0 >> 24 ) & 0xFF ] << 24 );
 1517              		.loc 1 823 0
 1518 0358 090E     		lsrs	r1, r1, #24
 1519              	.LVL169:
 1520 035a 5B5C     		ldrb	r3, [r3, r1]	@ zero_extendqisi2
ARM GAS  c:\Users\lenovo\AppData\Local\Temp\ccpYsKo5.s 			page 44


 819:C:/Users/lenovo/Desktop/liteos/Project2/BearPi_LiteOS/components/security/mbedtls/mbedtls-2.6.0/library\aes.c ****             ( (uint32_t) RSb[ ( Y3       ) & 0xFF ]       ) ^
 1521              		.loc 1 819 0
 1522 035c 82EA0363 		eor	r3, r2, r3, lsl #24
 1523              	.LVL170:
 824:C:/Users/lenovo/Desktop/liteos/Project2/BearPi_LiteOS/components/security/mbedtls/mbedtls-2.6.0/library\aes.c **** 
 825:C:/Users/lenovo/Desktop/liteos/Project2/BearPi_LiteOS/components/security/mbedtls/mbedtls-2.6.0/library\aes.c ****     PUT_UINT32_LE( X0, output,  0 );
 1524              		.loc 1 825 0
 1525 0360 0199     		ldr	r1, [sp, #4]
 1526 0362 0C70     		strb	r4, [r1]
 1527 0364 C4F30722 		ubfx	r2, r4, #8, #8
 1528 0368 4A70     		strb	r2, [r1, #1]
 1529 036a C4F30742 		ubfx	r2, r4, #16, #8
 1530 036e 8A70     		strb	r2, [r1, #2]
 1531 0370 240E     		lsrs	r4, r4, #24
 1532              	.LVL171:
 1533 0372 CC70     		strb	r4, [r1, #3]
 826:C:/Users/lenovo/Desktop/liteos/Project2/BearPi_LiteOS/components/security/mbedtls/mbedtls-2.6.0/library\aes.c ****     PUT_UINT32_LE( X1, output,  4 );
 1534              		.loc 1 826 0
 1535 0374 0871     		strb	r0, [r1, #4]
 1536 0376 C0F30722 		ubfx	r2, r0, #8, #8
 1537 037a 4A71     		strb	r2, [r1, #5]
 1538 037c C0F30742 		ubfx	r2, r0, #16, #8
 1539 0380 8A71     		strb	r2, [r1, #6]
 1540 0382 000E     		lsrs	r0, r0, #24
 1541              	.LVL172:
 1542 0384 C871     		strb	r0, [r1, #7]
 827:C:/Users/lenovo/Desktop/liteos/Project2/BearPi_LiteOS/components/security/mbedtls/mbedtls-2.6.0/library\aes.c ****     PUT_UINT32_LE( X2, output,  8 );
 1543              		.loc 1 827 0
 1544 0386 0D72     		strb	r5, [r1, #8]
 1545 0388 C5F30722 		ubfx	r2, r5, #8, #8
 1546 038c 4A72     		strb	r2, [r1, #9]
 1547 038e C5F30742 		ubfx	r2, r5, #16, #8
 1548 0392 8A72     		strb	r2, [r1, #10]
 1549 0394 2D0E     		lsrs	r5, r5, #24
 1550              	.LVL173:
 1551 0396 CD72     		strb	r5, [r1, #11]
 828:C:/Users/lenovo/Desktop/liteos/Project2/BearPi_LiteOS/components/security/mbedtls/mbedtls-2.6.0/library\aes.c ****     PUT_UINT32_LE( X3, output, 12 );
 1552              		.loc 1 828 0
 1553 0398 0B73     		strb	r3, [r1, #12]
 1554 039a C3F30722 		ubfx	r2, r3, #8, #8
 1555 039e 4A73     		strb	r2, [r1, #13]
 1556 03a0 C3F30742 		ubfx	r2, r3, #16, #8
 1557 03a4 8A73     		strb	r2, [r1, #14]
 1558 03a6 1B0E     		lsrs	r3, r3, #24
 1559              	.LVL174:
 1560 03a8 CB73     		strb	r3, [r1, #15]
 829:C:/Users/lenovo/Desktop/liteos/Project2/BearPi_LiteOS/components/security/mbedtls/mbedtls-2.6.0/library\aes.c **** 
 830:C:/Users/lenovo/Desktop/liteos/Project2/BearPi_LiteOS/components/security/mbedtls/mbedtls-2.6.0/library\aes.c ****     return( 0 );
 831:C:/Users/lenovo/Desktop/liteos/Project2/BearPi_LiteOS/components/security/mbedtls/mbedtls-2.6.0/library\aes.c **** }
 1561              		.loc 1 831 0
 1562 03aa 0020     		movs	r0, #0
 1563 03ac 03B0     		add	sp, sp, #12
 1564              	.LCFI17:
 1565              		.cfi_def_cfa_offset 36
 1566              		@ sp needed
 1567 03ae BDE8F08F 		pop	{r4, r5, r6, r7, r8, r9, r10, fp, pc}
 1568              	.LVL175:
ARM GAS  c:\Users\lenovo\AppData\Local\Temp\ccpYsKo5.s 			page 45


 1569              	.L63:
 1570 03b2 00BF     		.align	2
 1571              	.L62:
 1572 03b4 00000000 		.word	.LANCHOR2
 1573 03b8 00000000 		.word	.LANCHOR3
 1574 03bc 00000000 		.word	.LANCHOR4
 1575 03c0 00000000 		.word	.LANCHOR5
 1576 03c4 00000000 		.word	.LANCHOR10
 1577              		.cfi_endproc
 1578              	.LFE7:
 1580              		.section	.text.mbedtls_aes_decrypt,"ax",%progbits
 1581              		.align	1
 1582              		.global	mbedtls_aes_decrypt
 1583              		.syntax unified
 1584              		.thumb
 1585              		.thumb_func
 1586              		.fpu fpv4-sp-d16
 1588              	mbedtls_aes_decrypt:
 1589              	.LFB8:
 832:C:/Users/lenovo/Desktop/liteos/Project2/BearPi_LiteOS/components/security/mbedtls/mbedtls-2.6.0/library\aes.c **** #endif /* !MBEDTLS_AES_DECRYPT_ALT */
 833:C:/Users/lenovo/Desktop/liteos/Project2/BearPi_LiteOS/components/security/mbedtls/mbedtls-2.6.0/library\aes.c **** 
 834:C:/Users/lenovo/Desktop/liteos/Project2/BearPi_LiteOS/components/security/mbedtls/mbedtls-2.6.0/library\aes.c **** void mbedtls_aes_decrypt( mbedtls_aes_context *ctx,
 835:C:/Users/lenovo/Desktop/liteos/Project2/BearPi_LiteOS/components/security/mbedtls/mbedtls-2.6.0/library\aes.c ****                           const unsigned char input[16],
 836:C:/Users/lenovo/Desktop/liteos/Project2/BearPi_LiteOS/components/security/mbedtls/mbedtls-2.6.0/library\aes.c ****                           unsigned char output[16] )
 837:C:/Users/lenovo/Desktop/liteos/Project2/BearPi_LiteOS/components/security/mbedtls/mbedtls-2.6.0/library\aes.c **** {
 1590              		.loc 1 837 0
 1591              		.cfi_startproc
 1592              		@ args = 0, pretend = 0, frame = 0
 1593              		@ frame_needed = 0, uses_anonymous_args = 0
 1594              	.LVL176:
 1595 0000 08B5     		push	{r3, lr}
 1596              	.LCFI18:
 1597              		.cfi_def_cfa_offset 8
 1598              		.cfi_offset 3, -8
 1599              		.cfi_offset 14, -4
 838:C:/Users/lenovo/Desktop/liteos/Project2/BearPi_LiteOS/components/security/mbedtls/mbedtls-2.6.0/library\aes.c ****     mbedtls_internal_aes_decrypt( ctx, input, output );
 1600              		.loc 1 838 0
 1601 0002 FFF7FEFF 		bl	mbedtls_internal_aes_decrypt
 1602              	.LVL177:
 839:C:/Users/lenovo/Desktop/liteos/Project2/BearPi_LiteOS/components/security/mbedtls/mbedtls-2.6.0/library\aes.c **** }
 1603              		.loc 1 839 0
 1604 0006 08BD     		pop	{r3, pc}
 1605              		.cfi_endproc
 1606              	.LFE8:
 1608              		.section	.text.mbedtls_aes_crypt_ecb,"ax",%progbits
 1609              		.align	1
 1610              		.global	mbedtls_aes_crypt_ecb
 1611              		.syntax unified
 1612              		.thumb
 1613              		.thumb_func
 1614              		.fpu fpv4-sp-d16
 1616              	mbedtls_aes_crypt_ecb:
 1617              	.LFB9:
 840:C:/Users/lenovo/Desktop/liteos/Project2/BearPi_LiteOS/components/security/mbedtls/mbedtls-2.6.0/library\aes.c **** 
 841:C:/Users/lenovo/Desktop/liteos/Project2/BearPi_LiteOS/components/security/mbedtls/mbedtls-2.6.0/library\aes.c **** /*
 842:C:/Users/lenovo/Desktop/liteos/Project2/BearPi_LiteOS/components/security/mbedtls/mbedtls-2.6.0/library\aes.c ****  * AES-ECB block encryption/decryption
 843:C:/Users/lenovo/Desktop/liteos/Project2/BearPi_LiteOS/components/security/mbedtls/mbedtls-2.6.0/library\aes.c ****  */
ARM GAS  c:\Users\lenovo\AppData\Local\Temp\ccpYsKo5.s 			page 46


 844:C:/Users/lenovo/Desktop/liteos/Project2/BearPi_LiteOS/components/security/mbedtls/mbedtls-2.6.0/library\aes.c **** int mbedtls_aes_crypt_ecb( mbedtls_aes_context *ctx,
 845:C:/Users/lenovo/Desktop/liteos/Project2/BearPi_LiteOS/components/security/mbedtls/mbedtls-2.6.0/library\aes.c ****                     int mode,
 846:C:/Users/lenovo/Desktop/liteos/Project2/BearPi_LiteOS/components/security/mbedtls/mbedtls-2.6.0/library\aes.c ****                     const unsigned char input[16],
 847:C:/Users/lenovo/Desktop/liteos/Project2/BearPi_LiteOS/components/security/mbedtls/mbedtls-2.6.0/library\aes.c ****                     unsigned char output[16] )
 848:C:/Users/lenovo/Desktop/liteos/Project2/BearPi_LiteOS/components/security/mbedtls/mbedtls-2.6.0/library\aes.c **** {
 1618              		.loc 1 848 0
 1619              		.cfi_startproc
 1620              		@ args = 0, pretend = 0, frame = 0
 1621              		@ frame_needed = 0, uses_anonymous_args = 0
 1622              	.LVL178:
 1623 0000 10B5     		push	{r4, lr}
 1624              	.LCFI19:
 1625              		.cfi_def_cfa_offset 8
 1626              		.cfi_offset 4, -8
 1627              		.cfi_offset 14, -4
 1628 0002 1446     		mov	r4, r2
 849:C:/Users/lenovo/Desktop/liteos/Project2/BearPi_LiteOS/components/security/mbedtls/mbedtls-2.6.0/library\aes.c **** #if defined(MBEDTLS_AESNI_C) && defined(MBEDTLS_HAVE_X86_64)
 850:C:/Users/lenovo/Desktop/liteos/Project2/BearPi_LiteOS/components/security/mbedtls/mbedtls-2.6.0/library\aes.c ****     if( mbedtls_aesni_has_support( MBEDTLS_AESNI_AES ) )
 851:C:/Users/lenovo/Desktop/liteos/Project2/BearPi_LiteOS/components/security/mbedtls/mbedtls-2.6.0/library\aes.c ****         return( mbedtls_aesni_crypt_ecb( ctx, mode, input, output ) );
 852:C:/Users/lenovo/Desktop/liteos/Project2/BearPi_LiteOS/components/security/mbedtls/mbedtls-2.6.0/library\aes.c **** #endif
 853:C:/Users/lenovo/Desktop/liteos/Project2/BearPi_LiteOS/components/security/mbedtls/mbedtls-2.6.0/library\aes.c **** 
 854:C:/Users/lenovo/Desktop/liteos/Project2/BearPi_LiteOS/components/security/mbedtls/mbedtls-2.6.0/library\aes.c **** #if defined(MBEDTLS_PADLOCK_C) && defined(MBEDTLS_HAVE_X86)
 855:C:/Users/lenovo/Desktop/liteos/Project2/BearPi_LiteOS/components/security/mbedtls/mbedtls-2.6.0/library\aes.c ****     if( aes_padlock_ace )
 856:C:/Users/lenovo/Desktop/liteos/Project2/BearPi_LiteOS/components/security/mbedtls/mbedtls-2.6.0/library\aes.c ****     {
 857:C:/Users/lenovo/Desktop/liteos/Project2/BearPi_LiteOS/components/security/mbedtls/mbedtls-2.6.0/library\aes.c ****         if( mbedtls_padlock_xcryptecb( ctx, mode, input, output ) == 0 )
 858:C:/Users/lenovo/Desktop/liteos/Project2/BearPi_LiteOS/components/security/mbedtls/mbedtls-2.6.0/library\aes.c ****             return( 0 );
 859:C:/Users/lenovo/Desktop/liteos/Project2/BearPi_LiteOS/components/security/mbedtls/mbedtls-2.6.0/library\aes.c **** 
 860:C:/Users/lenovo/Desktop/liteos/Project2/BearPi_LiteOS/components/security/mbedtls/mbedtls-2.6.0/library\aes.c ****         // If padlock data misaligned, we just fall back to
 861:C:/Users/lenovo/Desktop/liteos/Project2/BearPi_LiteOS/components/security/mbedtls/mbedtls-2.6.0/library\aes.c ****         // unaccelerated mode
 862:C:/Users/lenovo/Desktop/liteos/Project2/BearPi_LiteOS/components/security/mbedtls/mbedtls-2.6.0/library\aes.c ****         //
 863:C:/Users/lenovo/Desktop/liteos/Project2/BearPi_LiteOS/components/security/mbedtls/mbedtls-2.6.0/library\aes.c ****     }
 864:C:/Users/lenovo/Desktop/liteos/Project2/BearPi_LiteOS/components/security/mbedtls/mbedtls-2.6.0/library\aes.c **** #endif
 865:C:/Users/lenovo/Desktop/liteos/Project2/BearPi_LiteOS/components/security/mbedtls/mbedtls-2.6.0/library\aes.c **** 
 866:C:/Users/lenovo/Desktop/liteos/Project2/BearPi_LiteOS/components/security/mbedtls/mbedtls-2.6.0/library\aes.c ****     if( mode == MBEDTLS_AES_ENCRYPT )
 1629              		.loc 1 866 0
 1630 0004 0129     		cmp	r1, #1
 1631 0006 04D0     		beq	.L70
 867:C:/Users/lenovo/Desktop/liteos/Project2/BearPi_LiteOS/components/security/mbedtls/mbedtls-2.6.0/library\aes.c ****         return( mbedtls_internal_aes_encrypt( ctx, input, output ) );
 868:C:/Users/lenovo/Desktop/liteos/Project2/BearPi_LiteOS/components/security/mbedtls/mbedtls-2.6.0/library\aes.c ****     else
 869:C:/Users/lenovo/Desktop/liteos/Project2/BearPi_LiteOS/components/security/mbedtls/mbedtls-2.6.0/library\aes.c ****         return( mbedtls_internal_aes_decrypt( ctx, input, output ) );
 1632              		.loc 1 869 0
 1633 0008 1A46     		mov	r2, r3
 1634              	.LVL179:
 1635 000a 2146     		mov	r1, r4
 1636              	.LVL180:
 1637 000c FFF7FEFF 		bl	mbedtls_internal_aes_decrypt
 1638              	.LVL181:
 1639              	.L66:
 870:C:/Users/lenovo/Desktop/liteos/Project2/BearPi_LiteOS/components/security/mbedtls/mbedtls-2.6.0/library\aes.c **** }
 1640              		.loc 1 870 0
 1641 0010 10BD     		pop	{r4, pc}
 1642              	.LVL182:
 1643              	.L70:
 867:C:/Users/lenovo/Desktop/liteos/Project2/BearPi_LiteOS/components/security/mbedtls/mbedtls-2.6.0/library\aes.c ****         return( mbedtls_internal_aes_encrypt( ctx, input, output ) );
 1644              		.loc 1 867 0
 1645 0012 1A46     		mov	r2, r3
 1646              	.LVL183:
ARM GAS  c:\Users\lenovo\AppData\Local\Temp\ccpYsKo5.s 			page 47


 1647 0014 2146     		mov	r1, r4
 1648              	.LVL184:
 1649 0016 FFF7FEFF 		bl	mbedtls_internal_aes_encrypt
 1650              	.LVL185:
 1651 001a F9E7     		b	.L66
 1652              		.cfi_endproc
 1653              	.LFE9:
 1655              		.section	.text.mbedtls_aes_crypt_cbc,"ax",%progbits
 1656              		.align	1
 1657              		.global	mbedtls_aes_crypt_cbc
 1658              		.syntax unified
 1659              		.thumb
 1660              		.thumb_func
 1661              		.fpu fpv4-sp-d16
 1663              	mbedtls_aes_crypt_cbc:
 1664              	.LFB10:
 871:C:/Users/lenovo/Desktop/liteos/Project2/BearPi_LiteOS/components/security/mbedtls/mbedtls-2.6.0/library\aes.c **** 
 872:C:/Users/lenovo/Desktop/liteos/Project2/BearPi_LiteOS/components/security/mbedtls/mbedtls-2.6.0/library\aes.c **** #if defined(MBEDTLS_CIPHER_MODE_CBC)
 873:C:/Users/lenovo/Desktop/liteos/Project2/BearPi_LiteOS/components/security/mbedtls/mbedtls-2.6.0/library\aes.c **** /*
 874:C:/Users/lenovo/Desktop/liteos/Project2/BearPi_LiteOS/components/security/mbedtls/mbedtls-2.6.0/library\aes.c ****  * AES-CBC buffer encryption/decryption
 875:C:/Users/lenovo/Desktop/liteos/Project2/BearPi_LiteOS/components/security/mbedtls/mbedtls-2.6.0/library\aes.c ****  */
 876:C:/Users/lenovo/Desktop/liteos/Project2/BearPi_LiteOS/components/security/mbedtls/mbedtls-2.6.0/library\aes.c **** int mbedtls_aes_crypt_cbc( mbedtls_aes_context *ctx,
 877:C:/Users/lenovo/Desktop/liteos/Project2/BearPi_LiteOS/components/security/mbedtls/mbedtls-2.6.0/library\aes.c ****                     int mode,
 878:C:/Users/lenovo/Desktop/liteos/Project2/BearPi_LiteOS/components/security/mbedtls/mbedtls-2.6.0/library\aes.c ****                     size_t length,
 879:C:/Users/lenovo/Desktop/liteos/Project2/BearPi_LiteOS/components/security/mbedtls/mbedtls-2.6.0/library\aes.c ****                     unsigned char iv[16],
 880:C:/Users/lenovo/Desktop/liteos/Project2/BearPi_LiteOS/components/security/mbedtls/mbedtls-2.6.0/library\aes.c ****                     const unsigned char *input,
 881:C:/Users/lenovo/Desktop/liteos/Project2/BearPi_LiteOS/components/security/mbedtls/mbedtls-2.6.0/library\aes.c ****                     unsigned char *output )
 882:C:/Users/lenovo/Desktop/liteos/Project2/BearPi_LiteOS/components/security/mbedtls/mbedtls-2.6.0/library\aes.c **** {
 1665              		.loc 1 882 0
 1666              		.cfi_startproc
 1667              		@ args = 8, pretend = 0, frame = 16
 1668              		@ frame_needed = 0, uses_anonymous_args = 0
 1669              	.LVL186:
 1670 0000 2DE9F043 		push	{r4, r5, r6, r7, r8, r9, lr}
 1671              	.LCFI20:
 1672              		.cfi_def_cfa_offset 28
 1673              		.cfi_offset 4, -28
 1674              		.cfi_offset 5, -24
 1675              		.cfi_offset 6, -20
 1676              		.cfi_offset 7, -16
 1677              		.cfi_offset 8, -12
 1678              		.cfi_offset 9, -8
 1679              		.cfi_offset 14, -4
 1680 0004 85B0     		sub	sp, sp, #20
 1681              	.LCFI21:
 1682              		.cfi_def_cfa_offset 48
 1683 0006 0C9E     		ldr	r6, [sp, #48]
 1684 0008 0D9C     		ldr	r4, [sp, #52]
 883:C:/Users/lenovo/Desktop/liteos/Project2/BearPi_LiteOS/components/security/mbedtls/mbedtls-2.6.0/library\aes.c ****     int i;
 884:C:/Users/lenovo/Desktop/liteos/Project2/BearPi_LiteOS/components/security/mbedtls/mbedtls-2.6.0/library\aes.c ****     unsigned char temp[16];
 885:C:/Users/lenovo/Desktop/liteos/Project2/BearPi_LiteOS/components/security/mbedtls/mbedtls-2.6.0/library\aes.c **** 
 886:C:/Users/lenovo/Desktop/liteos/Project2/BearPi_LiteOS/components/security/mbedtls/mbedtls-2.6.0/library\aes.c ****     if( length % 16 )
 1685              		.loc 1 886 0
 1686 000a 12F00F0F 		tst	r2, #15
 1687 000e 47D1     		bne	.L80
 1688 0010 8146     		mov	r9, r0
 1689 0012 8846     		mov	r8, r1
ARM GAS  c:\Users\lenovo\AppData\Local\Temp\ccpYsKo5.s 			page 48


 1690 0014 1746     		mov	r7, r2
 1691 0016 1D46     		mov	r5, r3
 887:C:/Users/lenovo/Desktop/liteos/Project2/BearPi_LiteOS/components/security/mbedtls/mbedtls-2.6.0/library\aes.c ****         return( MBEDTLS_ERR_AES_INVALID_INPUT_LENGTH );
 888:C:/Users/lenovo/Desktop/liteos/Project2/BearPi_LiteOS/components/security/mbedtls/mbedtls-2.6.0/library\aes.c **** 
 889:C:/Users/lenovo/Desktop/liteos/Project2/BearPi_LiteOS/components/security/mbedtls/mbedtls-2.6.0/library\aes.c **** #if defined(MBEDTLS_PADLOCK_C) && defined(MBEDTLS_HAVE_X86)
 890:C:/Users/lenovo/Desktop/liteos/Project2/BearPi_LiteOS/components/security/mbedtls/mbedtls-2.6.0/library\aes.c ****     if( aes_padlock_ace )
 891:C:/Users/lenovo/Desktop/liteos/Project2/BearPi_LiteOS/components/security/mbedtls/mbedtls-2.6.0/library\aes.c ****     {
 892:C:/Users/lenovo/Desktop/liteos/Project2/BearPi_LiteOS/components/security/mbedtls/mbedtls-2.6.0/library\aes.c ****         if( mbedtls_padlock_xcryptcbc( ctx, mode, length, iv, input, output ) == 0 )
 893:C:/Users/lenovo/Desktop/liteos/Project2/BearPi_LiteOS/components/security/mbedtls/mbedtls-2.6.0/library\aes.c ****             return( 0 );
 894:C:/Users/lenovo/Desktop/liteos/Project2/BearPi_LiteOS/components/security/mbedtls/mbedtls-2.6.0/library\aes.c **** 
 895:C:/Users/lenovo/Desktop/liteos/Project2/BearPi_LiteOS/components/security/mbedtls/mbedtls-2.6.0/library\aes.c ****         // If padlock data misaligned, we just fall back to
 896:C:/Users/lenovo/Desktop/liteos/Project2/BearPi_LiteOS/components/security/mbedtls/mbedtls-2.6.0/library\aes.c ****         // unaccelerated mode
 897:C:/Users/lenovo/Desktop/liteos/Project2/BearPi_LiteOS/components/security/mbedtls/mbedtls-2.6.0/library\aes.c ****         //
 898:C:/Users/lenovo/Desktop/liteos/Project2/BearPi_LiteOS/components/security/mbedtls/mbedtls-2.6.0/library\aes.c ****     }
 899:C:/Users/lenovo/Desktop/liteos/Project2/BearPi_LiteOS/components/security/mbedtls/mbedtls-2.6.0/library\aes.c **** #endif
 900:C:/Users/lenovo/Desktop/liteos/Project2/BearPi_LiteOS/components/security/mbedtls/mbedtls-2.6.0/library\aes.c **** 
 901:C:/Users/lenovo/Desktop/liteos/Project2/BearPi_LiteOS/components/security/mbedtls/mbedtls-2.6.0/library\aes.c ****     if( mode == MBEDTLS_AES_DECRYPT )
 1692              		.loc 1 901 0
 1693 0018 89B1     		cbz	r1, .L73
 1694 001a 3CE0     		b	.L74
 1695              	.LVL187:
 1696              	.L76:
 902:C:/Users/lenovo/Desktop/liteos/Project2/BearPi_LiteOS/components/security/mbedtls/mbedtls-2.6.0/library\aes.c ****     {
 903:C:/Users/lenovo/Desktop/liteos/Project2/BearPi_LiteOS/components/security/mbedtls/mbedtls-2.6.0/library\aes.c ****         while( length > 0 )
 904:C:/Users/lenovo/Desktop/liteos/Project2/BearPi_LiteOS/components/security/mbedtls/mbedtls-2.6.0/library\aes.c ****         {
 905:C:/Users/lenovo/Desktop/liteos/Project2/BearPi_LiteOS/components/security/mbedtls/mbedtls-2.6.0/library\aes.c ****             memcpy( temp, input, 16 );
 906:C:/Users/lenovo/Desktop/liteos/Project2/BearPi_LiteOS/components/security/mbedtls/mbedtls-2.6.0/library\aes.c ****             mbedtls_aes_crypt_ecb( ctx, mode, input, output );
 907:C:/Users/lenovo/Desktop/liteos/Project2/BearPi_LiteOS/components/security/mbedtls/mbedtls-2.6.0/library\aes.c **** 
 908:C:/Users/lenovo/Desktop/liteos/Project2/BearPi_LiteOS/components/security/mbedtls/mbedtls-2.6.0/library\aes.c ****             for( i = 0; i < 16; i++ )
 909:C:/Users/lenovo/Desktop/liteos/Project2/BearPi_LiteOS/components/security/mbedtls/mbedtls-2.6.0/library\aes.c ****                 output[i] = (unsigned char)( output[i] ^ iv[i] );
 1697              		.loc 1 909 0 discriminator 3
 1698 001c E25C     		ldrb	r2, [r4, r3]	@ zero_extendqisi2
 1699 001e E95C     		ldrb	r1, [r5, r3]	@ zero_extendqisi2
 1700 0020 4A40     		eors	r2, r2, r1
 1701 0022 E254     		strb	r2, [r4, r3]
 908:C:/Users/lenovo/Desktop/liteos/Project2/BearPi_LiteOS/components/security/mbedtls/mbedtls-2.6.0/library\aes.c ****                 output[i] = (unsigned char)( output[i] ^ iv[i] );
 1702              		.loc 1 908 0 discriminator 3
 1703 0024 0133     		adds	r3, r3, #1
 1704              	.LVL188:
 1705              	.L75:
 908:C:/Users/lenovo/Desktop/liteos/Project2/BearPi_LiteOS/components/security/mbedtls/mbedtls-2.6.0/library\aes.c ****                 output[i] = (unsigned char)( output[i] ^ iv[i] );
 1706              		.loc 1 908 0 is_stmt 0 discriminator 1
 1707 0026 0F2B     		cmp	r3, #15
 1708 0028 F8DD     		ble	.L76
 910:C:/Users/lenovo/Desktop/liteos/Project2/BearPi_LiteOS/components/security/mbedtls/mbedtls-2.6.0/library\aes.c **** 
 911:C:/Users/lenovo/Desktop/liteos/Project2/BearPi_LiteOS/components/security/mbedtls/mbedtls-2.6.0/library\aes.c ****             memcpy( iv, temp, 16 );
 1709              		.loc 1 911 0 is_stmt 1
 1710 002a EC46     		mov	ip, sp
 1711 002c BCE80F00 		ldmia	ip!, {r0, r1, r2, r3}
 1712              	.LVL189:
 1713 0030 2860     		str	r0, [r5]	@ unaligned
 1714 0032 6960     		str	r1, [r5, #4]	@ unaligned
 1715 0034 AA60     		str	r2, [r5, #8]	@ unaligned
 1716 0036 EB60     		str	r3, [r5, #12]	@ unaligned
 912:C:/Users/lenovo/Desktop/liteos/Project2/BearPi_LiteOS/components/security/mbedtls/mbedtls-2.6.0/library\aes.c **** 
 913:C:/Users/lenovo/Desktop/liteos/Project2/BearPi_LiteOS/components/security/mbedtls/mbedtls-2.6.0/library\aes.c ****             input  += 16;
 1717              		.loc 1 913 0
ARM GAS  c:\Users\lenovo\AppData\Local\Temp\ccpYsKo5.s 			page 49


 1718 0038 1036     		adds	r6, r6, #16
 1719              	.LVL190:
 914:C:/Users/lenovo/Desktop/liteos/Project2/BearPi_LiteOS/components/security/mbedtls/mbedtls-2.6.0/library\aes.c ****             output += 16;
 1720              		.loc 1 914 0
 1721 003a 1034     		adds	r4, r4, #16
 1722              	.LVL191:
 915:C:/Users/lenovo/Desktop/liteos/Project2/BearPi_LiteOS/components/security/mbedtls/mbedtls-2.6.0/library\aes.c ****             length -= 16;
 1723              		.loc 1 915 0
 1724 003c 103F     		subs	r7, r7, #16
 1725              	.LVL192:
 1726              	.L73:
 903:C:/Users/lenovo/Desktop/liteos/Project2/BearPi_LiteOS/components/security/mbedtls/mbedtls-2.6.0/library\aes.c ****         {
 1727              		.loc 1 903 0
 1728 003e 77B1     		cbz	r7, .L83
 905:C:/Users/lenovo/Desktop/liteos/Project2/BearPi_LiteOS/components/security/mbedtls/mbedtls-2.6.0/library\aes.c ****             mbedtls_aes_crypt_ecb( ctx, mode, input, output );
 1729              		.loc 1 905 0
 1730 0040 EC46     		mov	ip, sp
 1731 0042 3068     		ldr	r0, [r6]	@ unaligned
 1732 0044 7168     		ldr	r1, [r6, #4]	@ unaligned
 1733 0046 B268     		ldr	r2, [r6, #8]	@ unaligned
 1734 0048 F368     		ldr	r3, [r6, #12]	@ unaligned
 1735 004a ACE80F00 		stmia	ip!, {r0, r1, r2, r3}
 906:C:/Users/lenovo/Desktop/liteos/Project2/BearPi_LiteOS/components/security/mbedtls/mbedtls-2.6.0/library\aes.c **** 
 1736              		.loc 1 906 0
 1737 004e 2346     		mov	r3, r4
 1738 0050 3246     		mov	r2, r6
 1739 0052 4146     		mov	r1, r8
 1740 0054 4846     		mov	r0, r9
 1741 0056 FFF7FEFF 		bl	mbedtls_aes_crypt_ecb
 1742              	.LVL193:
 908:C:/Users/lenovo/Desktop/liteos/Project2/BearPi_LiteOS/components/security/mbedtls/mbedtls-2.6.0/library\aes.c ****                 output[i] = (unsigned char)( output[i] ^ iv[i] );
 1743              		.loc 1 908 0
 1744 005a 4346     		mov	r3, r8
 1745 005c E3E7     		b	.L75
 1746              	.LVL194:
 1747              	.L83:
 916:C:/Users/lenovo/Desktop/liteos/Project2/BearPi_LiteOS/components/security/mbedtls/mbedtls-2.6.0/library\aes.c ****         }
 917:C:/Users/lenovo/Desktop/liteos/Project2/BearPi_LiteOS/components/security/mbedtls/mbedtls-2.6.0/library\aes.c ****     }
 918:C:/Users/lenovo/Desktop/liteos/Project2/BearPi_LiteOS/components/security/mbedtls/mbedtls-2.6.0/library\aes.c ****     else
 919:C:/Users/lenovo/Desktop/liteos/Project2/BearPi_LiteOS/components/security/mbedtls/mbedtls-2.6.0/library\aes.c ****     {
 920:C:/Users/lenovo/Desktop/liteos/Project2/BearPi_LiteOS/components/security/mbedtls/mbedtls-2.6.0/library\aes.c ****         while( length > 0 )
 921:C:/Users/lenovo/Desktop/liteos/Project2/BearPi_LiteOS/components/security/mbedtls/mbedtls-2.6.0/library\aes.c ****         {
 922:C:/Users/lenovo/Desktop/liteos/Project2/BearPi_LiteOS/components/security/mbedtls/mbedtls-2.6.0/library\aes.c ****             for( i = 0; i < 16; i++ )
 923:C:/Users/lenovo/Desktop/liteos/Project2/BearPi_LiteOS/components/security/mbedtls/mbedtls-2.6.0/library\aes.c ****                 output[i] = (unsigned char)( input[i] ^ iv[i] );
 924:C:/Users/lenovo/Desktop/liteos/Project2/BearPi_LiteOS/components/security/mbedtls/mbedtls-2.6.0/library\aes.c **** 
 925:C:/Users/lenovo/Desktop/liteos/Project2/BearPi_LiteOS/components/security/mbedtls/mbedtls-2.6.0/library\aes.c ****             mbedtls_aes_crypt_ecb( ctx, mode, output, output );
 926:C:/Users/lenovo/Desktop/liteos/Project2/BearPi_LiteOS/components/security/mbedtls/mbedtls-2.6.0/library\aes.c ****             memcpy( iv, output, 16 );
 927:C:/Users/lenovo/Desktop/liteos/Project2/BearPi_LiteOS/components/security/mbedtls/mbedtls-2.6.0/library\aes.c **** 
 928:C:/Users/lenovo/Desktop/liteos/Project2/BearPi_LiteOS/components/security/mbedtls/mbedtls-2.6.0/library\aes.c ****             input  += 16;
 929:C:/Users/lenovo/Desktop/liteos/Project2/BearPi_LiteOS/components/security/mbedtls/mbedtls-2.6.0/library\aes.c ****             output += 16;
 930:C:/Users/lenovo/Desktop/liteos/Project2/BearPi_LiteOS/components/security/mbedtls/mbedtls-2.6.0/library\aes.c ****             length -= 16;
 931:C:/Users/lenovo/Desktop/liteos/Project2/BearPi_LiteOS/components/security/mbedtls/mbedtls-2.6.0/library\aes.c ****         }
 932:C:/Users/lenovo/Desktop/liteos/Project2/BearPi_LiteOS/components/security/mbedtls/mbedtls-2.6.0/library\aes.c ****     }
 933:C:/Users/lenovo/Desktop/liteos/Project2/BearPi_LiteOS/components/security/mbedtls/mbedtls-2.6.0/library\aes.c **** 
 934:C:/Users/lenovo/Desktop/liteos/Project2/BearPi_LiteOS/components/security/mbedtls/mbedtls-2.6.0/library\aes.c ****     return( 0 );
 1748              		.loc 1 934 0
 1749 005e 4046     		mov	r0, r8
ARM GAS  c:\Users\lenovo\AppData\Local\Temp\ccpYsKo5.s 			page 50


 1750              	.LVL195:
 1751              	.L71:
 935:C:/Users/lenovo/Desktop/liteos/Project2/BearPi_LiteOS/components/security/mbedtls/mbedtls-2.6.0/library\aes.c **** }
 1752              		.loc 1 935 0
 1753 0060 05B0     		add	sp, sp, #20
 1754              	.LCFI22:
 1755              		.cfi_remember_state
 1756              		.cfi_def_cfa_offset 28
 1757              		@ sp needed
 1758 0062 BDE8F083 		pop	{r4, r5, r6, r7, r8, r9, pc}
 1759              	.LVL196:
 1760              	.L78:
 1761              	.LCFI23:
 1762              		.cfi_restore_state
 923:C:/Users/lenovo/Desktop/liteos/Project2/BearPi_LiteOS/components/security/mbedtls/mbedtls-2.6.0/library\aes.c **** 
 1763              		.loc 1 923 0 discriminator 3
 1764 0066 F25C     		ldrb	r2, [r6, r3]	@ zero_extendqisi2
 1765 0068 E95C     		ldrb	r1, [r5, r3]	@ zero_extendqisi2
 1766 006a 4A40     		eors	r2, r2, r1
 1767 006c E254     		strb	r2, [r4, r3]
 922:C:/Users/lenovo/Desktop/liteos/Project2/BearPi_LiteOS/components/security/mbedtls/mbedtls-2.6.0/library\aes.c ****                 output[i] = (unsigned char)( input[i] ^ iv[i] );
 1768              		.loc 1 922 0 discriminator 3
 1769 006e 0133     		adds	r3, r3, #1
 1770              	.LVL197:
 1771              	.L79:
 922:C:/Users/lenovo/Desktop/liteos/Project2/BearPi_LiteOS/components/security/mbedtls/mbedtls-2.6.0/library\aes.c ****                 output[i] = (unsigned char)( input[i] ^ iv[i] );
 1772              		.loc 1 922 0 is_stmt 0 discriminator 1
 1773 0070 0F2B     		cmp	r3, #15
 1774 0072 F8DD     		ble	.L78
 925:C:/Users/lenovo/Desktop/liteos/Project2/BearPi_LiteOS/components/security/mbedtls/mbedtls-2.6.0/library\aes.c ****             memcpy( iv, output, 16 );
 1775              		.loc 1 925 0 is_stmt 1
 1776 0074 2346     		mov	r3, r4
 1777              	.LVL198:
 1778 0076 2246     		mov	r2, r4
 1779 0078 4146     		mov	r1, r8
 1780 007a 4846     		mov	r0, r9
 1781 007c FFF7FEFF 		bl	mbedtls_aes_crypt_ecb
 1782              	.LVL199:
 926:C:/Users/lenovo/Desktop/liteos/Project2/BearPi_LiteOS/components/security/mbedtls/mbedtls-2.6.0/library\aes.c **** 
 1783              		.loc 1 926 0
 1784 0080 2068     		ldr	r0, [r4]	@ unaligned
 1785 0082 6168     		ldr	r1, [r4, #4]	@ unaligned
 1786 0084 A268     		ldr	r2, [r4, #8]	@ unaligned
 1787 0086 E368     		ldr	r3, [r4, #12]	@ unaligned
 1788 0088 2860     		str	r0, [r5]	@ unaligned
 1789 008a 6960     		str	r1, [r5, #4]	@ unaligned
 1790 008c AA60     		str	r2, [r5, #8]	@ unaligned
 1791 008e EB60     		str	r3, [r5, #12]	@ unaligned
 928:C:/Users/lenovo/Desktop/liteos/Project2/BearPi_LiteOS/components/security/mbedtls/mbedtls-2.6.0/library\aes.c ****             output += 16;
 1792              		.loc 1 928 0
 1793 0090 1036     		adds	r6, r6, #16
 1794              	.LVL200:
 929:C:/Users/lenovo/Desktop/liteos/Project2/BearPi_LiteOS/components/security/mbedtls/mbedtls-2.6.0/library\aes.c ****             length -= 16;
 1795              		.loc 1 929 0
 1796 0092 1034     		adds	r4, r4, #16
 1797              	.LVL201:
 930:C:/Users/lenovo/Desktop/liteos/Project2/BearPi_LiteOS/components/security/mbedtls/mbedtls-2.6.0/library\aes.c ****         }
ARM GAS  c:\Users\lenovo\AppData\Local\Temp\ccpYsKo5.s 			page 51


 1798              		.loc 1 930 0
 1799 0094 103F     		subs	r7, r7, #16
 1800              	.LVL202:
 1801              	.L74:
 920:C:/Users/lenovo/Desktop/liteos/Project2/BearPi_LiteOS/components/security/mbedtls/mbedtls-2.6.0/library\aes.c ****         {
 1802              		.loc 1 920 0
 1803 0096 0FB1     		cbz	r7, .L84
 922:C:/Users/lenovo/Desktop/liteos/Project2/BearPi_LiteOS/components/security/mbedtls/mbedtls-2.6.0/library\aes.c ****                 output[i] = (unsigned char)( input[i] ^ iv[i] );
 1804              		.loc 1 922 0
 1805 0098 0023     		movs	r3, #0
 1806 009a E9E7     		b	.L79
 1807              	.L84:
 934:C:/Users/lenovo/Desktop/liteos/Project2/BearPi_LiteOS/components/security/mbedtls/mbedtls-2.6.0/library\aes.c **** }
 1808              		.loc 1 934 0
 1809 009c 0020     		movs	r0, #0
 1810 009e DFE7     		b	.L71
 1811              	.LVL203:
 1812              	.L80:
 887:C:/Users/lenovo/Desktop/liteos/Project2/BearPi_LiteOS/components/security/mbedtls/mbedtls-2.6.0/library\aes.c **** 
 1813              		.loc 1 887 0
 1814 00a0 6FF02100 		mvn	r0, #33
 1815              	.LVL204:
 1816 00a4 DCE7     		b	.L71
 1817              		.cfi_endproc
 1818              	.LFE10:
 1820              		.section	.rodata.FSb,"a",%progbits
 1821              		.align	2
 1822              		.set	.LANCHOR1,. + 0
 1825              	FSb:
 1826 0000 63       		.byte	99
 1827 0001 7C       		.byte	124
 1828 0002 77       		.byte	119
 1829 0003 7B       		.byte	123
 1830 0004 F2       		.byte	-14
 1831 0005 6B       		.byte	107
 1832 0006 6F       		.byte	111
 1833 0007 C5       		.byte	-59
 1834 0008 30       		.byte	48
 1835 0009 01       		.byte	1
 1836 000a 67       		.byte	103
 1837 000b 2B       		.byte	43
 1838 000c FE       		.byte	-2
 1839 000d D7       		.byte	-41
 1840 000e AB       		.byte	-85
 1841 000f 76       		.byte	118
 1842 0010 CA       		.byte	-54
 1843 0011 82       		.byte	-126
 1844 0012 C9       		.byte	-55
 1845 0013 7D       		.byte	125
 1846 0014 FA       		.byte	-6
 1847 0015 59       		.byte	89
 1848 0016 47       		.byte	71
 1849 0017 F0       		.byte	-16
 1850 0018 AD       		.byte	-83
 1851 0019 D4       		.byte	-44
 1852 001a A2       		.byte	-94
 1853 001b AF       		.byte	-81
ARM GAS  c:\Users\lenovo\AppData\Local\Temp\ccpYsKo5.s 			page 52


 1854 001c 9C       		.byte	-100
 1855 001d A4       		.byte	-92
 1856 001e 72       		.byte	114
 1857 001f C0       		.byte	-64
 1858 0020 B7       		.byte	-73
 1859 0021 FD       		.byte	-3
 1860 0022 93       		.byte	-109
 1861 0023 26       		.byte	38
 1862 0024 36       		.byte	54
 1863 0025 3F       		.byte	63
 1864 0026 F7       		.byte	-9
 1865 0027 CC       		.byte	-52
 1866 0028 34       		.byte	52
 1867 0029 A5       		.byte	-91
 1868 002a E5       		.byte	-27
 1869 002b F1       		.byte	-15
 1870 002c 71       		.byte	113
 1871 002d D8       		.byte	-40
 1872 002e 31       		.byte	49
 1873 002f 15       		.byte	21
 1874 0030 04       		.byte	4
 1875 0031 C7       		.byte	-57
 1876 0032 23       		.byte	35
 1877 0033 C3       		.byte	-61
 1878 0034 18       		.byte	24
 1879 0035 96       		.byte	-106
 1880 0036 05       		.byte	5
 1881 0037 9A       		.byte	-102
 1882 0038 07       		.byte	7
 1883 0039 12       		.byte	18
 1884 003a 80       		.byte	-128
 1885 003b E2       		.byte	-30
 1886 003c EB       		.byte	-21
 1887 003d 27       		.byte	39
 1888 003e B2       		.byte	-78
 1889 003f 75       		.byte	117
 1890 0040 09       		.byte	9
 1891 0041 83       		.byte	-125
 1892 0042 2C       		.byte	44
 1893 0043 1A       		.byte	26
 1894 0044 1B       		.byte	27
 1895 0045 6E       		.byte	110
 1896 0046 5A       		.byte	90
 1897 0047 A0       		.byte	-96
 1898 0048 52       		.byte	82
 1899 0049 3B       		.byte	59
 1900 004a D6       		.byte	-42
 1901 004b B3       		.byte	-77
 1902 004c 29       		.byte	41
 1903 004d E3       		.byte	-29
 1904 004e 2F       		.byte	47
 1905 004f 84       		.byte	-124
 1906 0050 53       		.byte	83
 1907 0051 D1       		.byte	-47
 1908 0052 00       		.byte	0
 1909 0053 ED       		.byte	-19
 1910 0054 20       		.byte	32
ARM GAS  c:\Users\lenovo\AppData\Local\Temp\ccpYsKo5.s 			page 53


 1911 0055 FC       		.byte	-4
 1912 0056 B1       		.byte	-79
 1913 0057 5B       		.byte	91
 1914 0058 6A       		.byte	106
 1915 0059 CB       		.byte	-53
 1916 005a BE       		.byte	-66
 1917 005b 39       		.byte	57
 1918 005c 4A       		.byte	74
 1919 005d 4C       		.byte	76
 1920 005e 58       		.byte	88
 1921 005f CF       		.byte	-49
 1922 0060 D0       		.byte	-48
 1923 0061 EF       		.byte	-17
 1924 0062 AA       		.byte	-86
 1925 0063 FB       		.byte	-5
 1926 0064 43       		.byte	67
 1927 0065 4D       		.byte	77
 1928 0066 33       		.byte	51
 1929 0067 85       		.byte	-123
 1930 0068 45       		.byte	69
 1931 0069 F9       		.byte	-7
 1932 006a 02       		.byte	2
 1933 006b 7F       		.byte	127
 1934 006c 50       		.byte	80
 1935 006d 3C       		.byte	60
 1936 006e 9F       		.byte	-97
 1937 006f A8       		.byte	-88
 1938 0070 51       		.byte	81
 1939 0071 A3       		.byte	-93
 1940 0072 40       		.byte	64
 1941 0073 8F       		.byte	-113
 1942 0074 92       		.byte	-110
 1943 0075 9D       		.byte	-99
 1944 0076 38       		.byte	56
 1945 0077 F5       		.byte	-11
 1946 0078 BC       		.byte	-68
 1947 0079 B6       		.byte	-74
 1948 007a DA       		.byte	-38
 1949 007b 21       		.byte	33
 1950 007c 10       		.byte	16
 1951 007d FF       		.byte	-1
 1952 007e F3       		.byte	-13
 1953 007f D2       		.byte	-46
 1954 0080 CD       		.byte	-51
 1955 0081 0C       		.byte	12
 1956 0082 13       		.byte	19
 1957 0083 EC       		.byte	-20
 1958 0084 5F       		.byte	95
 1959 0085 97       		.byte	-105
 1960 0086 44       		.byte	68
 1961 0087 17       		.byte	23
 1962 0088 C4       		.byte	-60
 1963 0089 A7       		.byte	-89
 1964 008a 7E       		.byte	126
 1965 008b 3D       		.byte	61
 1966 008c 64       		.byte	100
 1967 008d 5D       		.byte	93
ARM GAS  c:\Users\lenovo\AppData\Local\Temp\ccpYsKo5.s 			page 54


 1968 008e 19       		.byte	25
 1969 008f 73       		.byte	115
 1970 0090 60       		.byte	96
 1971 0091 81       		.byte	-127
 1972 0092 4F       		.byte	79
 1973 0093 DC       		.byte	-36
 1974 0094 22       		.byte	34
 1975 0095 2A       		.byte	42
 1976 0096 90       		.byte	-112
 1977 0097 88       		.byte	-120
 1978 0098 46       		.byte	70
 1979 0099 EE       		.byte	-18
 1980 009a B8       		.byte	-72
 1981 009b 14       		.byte	20
 1982 009c DE       		.byte	-34
 1983 009d 5E       		.byte	94
 1984 009e 0B       		.byte	11
 1985 009f DB       		.byte	-37
 1986 00a0 E0       		.byte	-32
 1987 00a1 32       		.byte	50
 1988 00a2 3A       		.byte	58
 1989 00a3 0A       		.byte	10
 1990 00a4 49       		.byte	73
 1991 00a5 06       		.byte	6
 1992 00a6 24       		.byte	36
 1993 00a7 5C       		.byte	92
 1994 00a8 C2       		.byte	-62
 1995 00a9 D3       		.byte	-45
 1996 00aa AC       		.byte	-84
 1997 00ab 62       		.byte	98
 1998 00ac 91       		.byte	-111
 1999 00ad 95       		.byte	-107
 2000 00ae E4       		.byte	-28
 2001 00af 79       		.byte	121
 2002 00b0 E7       		.byte	-25
 2003 00b1 C8       		.byte	-56
 2004 00b2 37       		.byte	55
 2005 00b3 6D       		.byte	109
 2006 00b4 8D       		.byte	-115
 2007 00b5 D5       		.byte	-43
 2008 00b6 4E       		.byte	78
 2009 00b7 A9       		.byte	-87
 2010 00b8 6C       		.byte	108
 2011 00b9 56       		.byte	86
 2012 00ba F4       		.byte	-12
 2013 00bb EA       		.byte	-22
 2014 00bc 65       		.byte	101
 2015 00bd 7A       		.byte	122
 2016 00be AE       		.byte	-82
 2017 00bf 08       		.byte	8
 2018 00c0 BA       		.byte	-70
 2019 00c1 78       		.byte	120
 2020 00c2 25       		.byte	37
 2021 00c3 2E       		.byte	46
 2022 00c4 1C       		.byte	28
 2023 00c5 A6       		.byte	-90
 2024 00c6 B4       		.byte	-76
ARM GAS  c:\Users\lenovo\AppData\Local\Temp\ccpYsKo5.s 			page 55


 2025 00c7 C6       		.byte	-58
 2026 00c8 E8       		.byte	-24
 2027 00c9 DD       		.byte	-35
 2028 00ca 74       		.byte	116
 2029 00cb 1F       		.byte	31
 2030 00cc 4B       		.byte	75
 2031 00cd BD       		.byte	-67
 2032 00ce 8B       		.byte	-117
 2033 00cf 8A       		.byte	-118
 2034 00d0 70       		.byte	112
 2035 00d1 3E       		.byte	62
 2036 00d2 B5       		.byte	-75
 2037 00d3 66       		.byte	102
 2038 00d4 48       		.byte	72
 2039 00d5 03       		.byte	3
 2040 00d6 F6       		.byte	-10
 2041 00d7 0E       		.byte	14
 2042 00d8 61       		.byte	97
 2043 00d9 35       		.byte	53
 2044 00da 57       		.byte	87
 2045 00db B9       		.byte	-71
 2046 00dc 86       		.byte	-122
 2047 00dd C1       		.byte	-63
 2048 00de 1D       		.byte	29
 2049 00df 9E       		.byte	-98
 2050 00e0 E1       		.byte	-31
 2051 00e1 F8       		.byte	-8
 2052 00e2 98       		.byte	-104
 2053 00e3 11       		.byte	17
 2054 00e4 69       		.byte	105
 2055 00e5 D9       		.byte	-39
 2056 00e6 8E       		.byte	-114
 2057 00e7 94       		.byte	-108
 2058 00e8 9B       		.byte	-101
 2059 00e9 1E       		.byte	30
 2060 00ea 87       		.byte	-121
 2061 00eb E9       		.byte	-23
 2062 00ec CE       		.byte	-50
 2063 00ed 55       		.byte	85
 2064 00ee 28       		.byte	40
 2065 00ef DF       		.byte	-33
 2066 00f0 8C       		.byte	-116
 2067 00f1 A1       		.byte	-95
 2068 00f2 89       		.byte	-119
