ARM GAS  c:\Users\lenovo\AppData\Local\Temp\ccDAYDpu.s 			page 1


   1              		.cpu cortex-m4
   2              		.eabi_attribute 27, 1
   3              		.eabi_attribute 28, 1
   4              		.eabi_attribute 20, 1
   5              		.eabi_attribute 21, 1
   6              		.eabi_attribute 23, 3
   7              		.eabi_attribute 24, 1
   8              		.eabi_attribute 25, 1
   9              		.eabi_attribute 26, 1
  10              		.eabi_attribute 30, 1
  11              		.eabi_attribute 34, 1
  12              		.eabi_attribute 18, 4
  13              		.file	"agenttiny.c"
  14              		.text
  15              	.Ltext0:
  16              		.cfi_sections	.debug_frame
  17              		.section	.text.observe_handle_ack,"ax",%progbits
  18              		.align	1
  19              		.global	observe_handle_ack
  20              		.syntax unified
  21              		.thumb
  22              		.thumb_func
  23              		.fpu fpv4-sp-d16
  25              	observe_handle_ack:
  26              	.LFB158:
  27              		.file 1 "C:/Users/lenovo/Desktop/liteos/Project2/BearPi_LiteOS/components/connectivity/agent_tiny/
   1:C:/Users/lenovo/Desktop/liteos/Project2/BearPi_LiteOS/components/connectivity/agent_tiny/atiny_lwm2m\agenttiny.c **** /*----------------------------------------------------------------------------
   2:C:/Users/lenovo/Desktop/liteos/Project2/BearPi_LiteOS/components/connectivity/agent_tiny/atiny_lwm2m\agenttiny.c ****  * Copyright (c) <2016-2018>, <Huawei Technologies Co., Ltd>
   3:C:/Users/lenovo/Desktop/liteos/Project2/BearPi_LiteOS/components/connectivity/agent_tiny/atiny_lwm2m\agenttiny.c ****  * All rights reserved.
   4:C:/Users/lenovo/Desktop/liteos/Project2/BearPi_LiteOS/components/connectivity/agent_tiny/atiny_lwm2m\agenttiny.c ****  * Redistribution and use in source and binary forms, with or without modification,
   5:C:/Users/lenovo/Desktop/liteos/Project2/BearPi_LiteOS/components/connectivity/agent_tiny/atiny_lwm2m\agenttiny.c ****  * are permitted provided that the following conditions are met:
   6:C:/Users/lenovo/Desktop/liteos/Project2/BearPi_LiteOS/components/connectivity/agent_tiny/atiny_lwm2m\agenttiny.c ****  * 1. Redistributions of source code must retain the above copyright notice, this list of
   7:C:/Users/lenovo/Desktop/liteos/Project2/BearPi_LiteOS/components/connectivity/agent_tiny/atiny_lwm2m\agenttiny.c ****  * conditions and the following disclaimer.
   8:C:/Users/lenovo/Desktop/liteos/Project2/BearPi_LiteOS/components/connectivity/agent_tiny/atiny_lwm2m\agenttiny.c ****  * 2. Redistributions in binary form must reproduce the above copyright notice, this list
   9:C:/Users/lenovo/Desktop/liteos/Project2/BearPi_LiteOS/components/connectivity/agent_tiny/atiny_lwm2m\agenttiny.c ****  * of conditions and the following disclaimer in the documentation and/or other materials
  10:C:/Users/lenovo/Desktop/liteos/Project2/BearPi_LiteOS/components/connectivity/agent_tiny/atiny_lwm2m\agenttiny.c ****  * provided with the distribution.
  11:C:/Users/lenovo/Desktop/liteos/Project2/BearPi_LiteOS/components/connectivity/agent_tiny/atiny_lwm2m\agenttiny.c ****  * 3. Neither the name of the copyright holder nor the names of its contributors may be used
  12:C:/Users/lenovo/Desktop/liteos/Project2/BearPi_LiteOS/components/connectivity/agent_tiny/atiny_lwm2m\agenttiny.c ****  * to endorse or promote products derived from this software without specific prior written
  13:C:/Users/lenovo/Desktop/liteos/Project2/BearPi_LiteOS/components/connectivity/agent_tiny/atiny_lwm2m\agenttiny.c ****  * permission.
  14:C:/Users/lenovo/Desktop/liteos/Project2/BearPi_LiteOS/components/connectivity/agent_tiny/atiny_lwm2m\agenttiny.c ****  * THIS SOFTWARE IS PROVIDED BY THE COPYRIGHT HOLDERS AND CONTRIBUTORS
  15:C:/Users/lenovo/Desktop/liteos/Project2/BearPi_LiteOS/components/connectivity/agent_tiny/atiny_lwm2m\agenttiny.c ****  * "AS IS" AND ANY EXPRESS OR IMPLIED WARRANTIES, INCLUDING, BUT NOT LIMITED TO,
  16:C:/Users/lenovo/Desktop/liteos/Project2/BearPi_LiteOS/components/connectivity/agent_tiny/atiny_lwm2m\agenttiny.c ****  * THE IMPLIED WARRANTIES OF MERCHANTABILITY AND FITNESS FOR A PARTICULAR
  17:C:/Users/lenovo/Desktop/liteos/Project2/BearPi_LiteOS/components/connectivity/agent_tiny/atiny_lwm2m\agenttiny.c ****  * PURPOSE ARE DISCLAIMED. IN NO EVENT SHALL THE COPYRIGHT HOLDER OR
  18:C:/Users/lenovo/Desktop/liteos/Project2/BearPi_LiteOS/components/connectivity/agent_tiny/atiny_lwm2m\agenttiny.c ****  * CONTRIBUTORS BE LIABLE FOR ANY DIRECT, INDIRECT, INCIDENTAL, SPECIAL,
  19:C:/Users/lenovo/Desktop/liteos/Project2/BearPi_LiteOS/components/connectivity/agent_tiny/atiny_lwm2m\agenttiny.c ****  * EXEMPLARY, OR CONSEQUENTIAL DAMAGES (INCLUDING, BUT NOT LIMITED TO,
  20:C:/Users/lenovo/Desktop/liteos/Project2/BearPi_LiteOS/components/connectivity/agent_tiny/atiny_lwm2m\agenttiny.c ****  * PROCUREMENT OF SUBSTITUTE GOODS OR SERVICES; LOSS OF USE, DATA, OR PROFITS;
  21:C:/Users/lenovo/Desktop/liteos/Project2/BearPi_LiteOS/components/connectivity/agent_tiny/atiny_lwm2m\agenttiny.c ****  * OR BUSINESS INTERRUPTION) HOWEVER CAUSED AND ON ANY THEORY OF LIABILITY,
  22:C:/Users/lenovo/Desktop/liteos/Project2/BearPi_LiteOS/components/connectivity/agent_tiny/atiny_lwm2m\agenttiny.c ****  * WHETHER IN CONTRACT, STRICT LIABILITY, OR TORT (INCLUDING NEGLIGENCE OR
  23:C:/Users/lenovo/Desktop/liteos/Project2/BearPi_LiteOS/components/connectivity/agent_tiny/atiny_lwm2m\agenttiny.c ****  * OTHERWISE) ARISING IN ANY WAY OUT OF THE USE OF THIS SOFTWARE, EVEN IF
  24:C:/Users/lenovo/Desktop/liteos/Project2/BearPi_LiteOS/components/connectivity/agent_tiny/atiny_lwm2m\agenttiny.c ****  * ADVISED OF THE POSSIBILITY OF SUCH DAMAGE.
  25:C:/Users/lenovo/Desktop/liteos/Project2/BearPi_LiteOS/components/connectivity/agent_tiny/atiny_lwm2m\agenttiny.c ****  *---------------------------------------------------------------------------*/
  26:C:/Users/lenovo/Desktop/liteos/Project2/BearPi_LiteOS/components/connectivity/agent_tiny/atiny_lwm2m\agenttiny.c **** /*----------------------------------------------------------------------------
  27:C:/Users/lenovo/Desktop/liteos/Project2/BearPi_LiteOS/components/connectivity/agent_tiny/atiny_lwm2m\agenttiny.c ****  * Notice of Export Control Law
  28:C:/Users/lenovo/Desktop/liteos/Project2/BearPi_LiteOS/components/connectivity/agent_tiny/atiny_lwm2m\agenttiny.c ****  * ===============================================
  29:C:/Users/lenovo/Desktop/liteos/Project2/BearPi_LiteOS/components/connectivity/agent_tiny/atiny_lwm2m\agenttiny.c ****  * Huawei LiteOS may be subject to applicable export control laws and regulations, which might
  30:C:/Users/lenovo/Desktop/liteos/Project2/BearPi_LiteOS/components/connectivity/agent_tiny/atiny_lwm2m\agenttiny.c ****  * include those applicable to Huawei LiteOS of U.S. and the country in which you are located.
  31:C:/Users/lenovo/Desktop/liteos/Project2/BearPi_LiteOS/components/connectivity/agent_tiny/atiny_lwm2m\agenttiny.c ****  * Import, export and usage of Huawei LiteOS in any manner by you shall be in compliance with such
ARM GAS  c:\Users\lenovo\AppData\Local\Temp\ccDAYDpu.s 			page 2


  32:C:/Users/lenovo/Desktop/liteos/Project2/BearPi_LiteOS/components/connectivity/agent_tiny/atiny_lwm2m\agenttiny.c ****  * applicable export control laws and regulations.
  33:C:/Users/lenovo/Desktop/liteos/Project2/BearPi_LiteOS/components/connectivity/agent_tiny/atiny_lwm2m\agenttiny.c ****  *---------------------------------------------------------------------------*/
  34:C:/Users/lenovo/Desktop/liteos/Project2/BearPi_LiteOS/components/connectivity/agent_tiny/atiny_lwm2m\agenttiny.c **** 
  35:C:/Users/lenovo/Desktop/liteos/Project2/BearPi_LiteOS/components/connectivity/agent_tiny/atiny_lwm2m\agenttiny.c **** #include "internals.h"
  36:C:/Users/lenovo/Desktop/liteos/Project2/BearPi_LiteOS/components/connectivity/agent_tiny/atiny_lwm2m\agenttiny.c **** #include "atiny_lwm2m/agenttiny.h"
  37:C:/Users/lenovo/Desktop/liteos/Project2/BearPi_LiteOS/components/connectivity/agent_tiny/atiny_lwm2m\agenttiny.c **** #include "atiny_context.h"
  38:C:/Users/lenovo/Desktop/liteos/Project2/BearPi_LiteOS/components/connectivity/agent_tiny/atiny_lwm2m\agenttiny.c **** #include "connection.h"
  39:C:/Users/lenovo/Desktop/liteos/Project2/BearPi_LiteOS/components/connectivity/agent_tiny/atiny_lwm2m\agenttiny.c **** #include "log/atiny_log.h"
  40:C:/Users/lenovo/Desktop/liteos/Project2/BearPi_LiteOS/components/connectivity/agent_tiny/atiny_lwm2m\agenttiny.c **** #include "atiny_rpt.h"
  41:C:/Users/lenovo/Desktop/liteos/Project2/BearPi_LiteOS/components/connectivity/agent_tiny/atiny_lwm2m\agenttiny.c **** #include "osdepends/atiny_osdep.h"
  42:C:/Users/lenovo/Desktop/liteos/Project2/BearPi_LiteOS/components/connectivity/agent_tiny/atiny_lwm2m\agenttiny.c **** #ifdef CONFIG_FEATURE_FOTA
  43:C:/Users/lenovo/Desktop/liteos/Project2/BearPi_LiteOS/components/connectivity/agent_tiny/atiny_lwm2m\agenttiny.c **** #include "atiny_fota_manager.h"
  44:C:/Users/lenovo/Desktop/liteos/Project2/BearPi_LiteOS/components/connectivity/agent_tiny/atiny_lwm2m\agenttiny.c **** #endif
  45:C:/Users/lenovo/Desktop/liteos/Project2/BearPi_LiteOS/components/connectivity/agent_tiny/atiny_lwm2m\agenttiny.c **** 
  46:C:/Users/lenovo/Desktop/liteos/Project2/BearPi_LiteOS/components/connectivity/agent_tiny/atiny_lwm2m\agenttiny.c **** 
  47:C:/Users/lenovo/Desktop/liteos/Project2/BearPi_LiteOS/components/connectivity/agent_tiny/atiny_lwm2m\agenttiny.c **** 
  48:C:/Users/lenovo/Desktop/liteos/Project2/BearPi_LiteOS/components/connectivity/agent_tiny/atiny_lwm2m\agenttiny.c **** int g_reboot = 0;
  49:C:/Users/lenovo/Desktop/liteos/Project2/BearPi_LiteOS/components/connectivity/agent_tiny/atiny_lwm2m\agenttiny.c **** 
  50:C:/Users/lenovo/Desktop/liteos/Project2/BearPi_LiteOS/components/connectivity/agent_tiny/atiny_lwm2m\agenttiny.c **** 
  51:C:/Users/lenovo/Desktop/liteos/Project2/BearPi_LiteOS/components/connectivity/agent_tiny/atiny_lwm2m\agenttiny.c **** void observe_handle_ack(lwm2m_transaction_t *transacP, void *message);
  52:C:/Users/lenovo/Desktop/liteos/Project2/BearPi_LiteOS/components/connectivity/agent_tiny/atiny_lwm2m\agenttiny.c **** static int atiny_check_bootstrap_init_param(atiny_param_t *atiny_params);
  53:C:/Users/lenovo/Desktop/liteos/Project2/BearPi_LiteOS/components/connectivity/agent_tiny/atiny_lwm2m\agenttiny.c **** 
  54:C:/Users/lenovo/Desktop/liteos/Project2/BearPi_LiteOS/components/connectivity/agent_tiny/atiny_lwm2m\agenttiny.c **** static handle_data_t g_atiny_handle;
  55:C:/Users/lenovo/Desktop/liteos/Project2/BearPi_LiteOS/components/connectivity/agent_tiny/atiny_lwm2m\agenttiny.c **** 
  56:C:/Users/lenovo/Desktop/liteos/Project2/BearPi_LiteOS/components/connectivity/agent_tiny/atiny_lwm2m\agenttiny.c **** /*
  57:C:/Users/lenovo/Desktop/liteos/Project2/BearPi_LiteOS/components/connectivity/agent_tiny/atiny_lwm2m\agenttiny.c ****  * modify date:   2018-06-20
  58:C:/Users/lenovo/Desktop/liteos/Project2/BearPi_LiteOS/components/connectivity/agent_tiny/atiny_lwm2m\agenttiny.c ****  * description: in order to check the params for the bootstrap, expecialy for the mode and the ip/p
  59:C:/Users/lenovo/Desktop/liteos/Project2/BearPi_LiteOS/components/connectivity/agent_tiny/atiny_lwm2m\agenttiny.c ****  * return:
  60:C:/Users/lenovo/Desktop/liteos/Project2/BearPi_LiteOS/components/connectivity/agent_tiny/atiny_lwm2m\agenttiny.c ****  *              success: ATINY_OK
  61:C:/Users/lenovo/Desktop/liteos/Project2/BearPi_LiteOS/components/connectivity/agent_tiny/atiny_lwm2m\agenttiny.c ****  *              fail:    ATINY_ARG_INVALID
  62:C:/Users/lenovo/Desktop/liteos/Project2/BearPi_LiteOS/components/connectivity/agent_tiny/atiny_lwm2m\agenttiny.c ****  *
  63:C:/Users/lenovo/Desktop/liteos/Project2/BearPi_LiteOS/components/connectivity/agent_tiny/atiny_lwm2m\agenttiny.c ****  */
  64:C:/Users/lenovo/Desktop/liteos/Project2/BearPi_LiteOS/components/connectivity/agent_tiny/atiny_lwm2m\agenttiny.c **** static int atiny_check_bootstrap_init_param(atiny_param_t *atiny_params)
  65:C:/Users/lenovo/Desktop/liteos/Project2/BearPi_LiteOS/components/connectivity/agent_tiny/atiny_lwm2m\agenttiny.c **** {
  66:C:/Users/lenovo/Desktop/liteos/Project2/BearPi_LiteOS/components/connectivity/agent_tiny/atiny_lwm2m\agenttiny.c ****     if(NULL == atiny_params)
  67:C:/Users/lenovo/Desktop/liteos/Project2/BearPi_LiteOS/components/connectivity/agent_tiny/atiny_lwm2m\agenttiny.c ****     {
  68:C:/Users/lenovo/Desktop/liteos/Project2/BearPi_LiteOS/components/connectivity/agent_tiny/atiny_lwm2m\agenttiny.c ****         return ATINY_ARG_INVALID;
  69:C:/Users/lenovo/Desktop/liteos/Project2/BearPi_LiteOS/components/connectivity/agent_tiny/atiny_lwm2m\agenttiny.c ****     }
  70:C:/Users/lenovo/Desktop/liteos/Project2/BearPi_LiteOS/components/connectivity/agent_tiny/atiny_lwm2m\agenttiny.c **** 
  71:C:/Users/lenovo/Desktop/liteos/Project2/BearPi_LiteOS/components/connectivity/agent_tiny/atiny_lwm2m\agenttiny.c ****     if(BOOTSTRAP_FACTORY == atiny_params->server_params.bootstrap_mode)
  72:C:/Users/lenovo/Desktop/liteos/Project2/BearPi_LiteOS/components/connectivity/agent_tiny/atiny_lwm2m\agenttiny.c ****     {
  73:C:/Users/lenovo/Desktop/liteos/Project2/BearPi_LiteOS/components/connectivity/agent_tiny/atiny_lwm2m\agenttiny.c ****         if((NULL == atiny_params->security_params[0].server_ip) || (NULL == atiny_params->security_
  74:C:/Users/lenovo/Desktop/liteos/Project2/BearPi_LiteOS/components/connectivity/agent_tiny/atiny_lwm2m\agenttiny.c ****         {
  75:C:/Users/lenovo/Desktop/liteos/Project2/BearPi_LiteOS/components/connectivity/agent_tiny/atiny_lwm2m\agenttiny.c ****             LOG("[bootstrap_tag]: BOOTSTRAP_FACTORY mode's params is wrong, should have iot server 
  76:C:/Users/lenovo/Desktop/liteos/Project2/BearPi_LiteOS/components/connectivity/agent_tiny/atiny_lwm2m\agenttiny.c ****             return ATINY_ARG_INVALID;
  77:C:/Users/lenovo/Desktop/liteos/Project2/BearPi_LiteOS/components/connectivity/agent_tiny/atiny_lwm2m\agenttiny.c ****         }
  78:C:/Users/lenovo/Desktop/liteos/Project2/BearPi_LiteOS/components/connectivity/agent_tiny/atiny_lwm2m\agenttiny.c ****     }
  79:C:/Users/lenovo/Desktop/liteos/Project2/BearPi_LiteOS/components/connectivity/agent_tiny/atiny_lwm2m\agenttiny.c ****     else if(BOOTSTRAP_CLIENT_INITIATED == atiny_params->server_params.bootstrap_mode)
  80:C:/Users/lenovo/Desktop/liteos/Project2/BearPi_LiteOS/components/connectivity/agent_tiny/atiny_lwm2m\agenttiny.c ****     {
  81:C:/Users/lenovo/Desktop/liteos/Project2/BearPi_LiteOS/components/connectivity/agent_tiny/atiny_lwm2m\agenttiny.c ****         if((NULL == atiny_params->security_params[1].server_ip) || (NULL == atiny_params->security_
  82:C:/Users/lenovo/Desktop/liteos/Project2/BearPi_LiteOS/components/connectivity/agent_tiny/atiny_lwm2m\agenttiny.c ****         {
  83:C:/Users/lenovo/Desktop/liteos/Project2/BearPi_LiteOS/components/connectivity/agent_tiny/atiny_lwm2m\agenttiny.c ****             LOG("[bootstrap_tag]: BOOTSTRAP_CLIENT_INITIATED mode's params is wrong, should have bo
  84:C:/Users/lenovo/Desktop/liteos/Project2/BearPi_LiteOS/components/connectivity/agent_tiny/atiny_lwm2m\agenttiny.c ****             return ATINY_ARG_INVALID;
  85:C:/Users/lenovo/Desktop/liteos/Project2/BearPi_LiteOS/components/connectivity/agent_tiny/atiny_lwm2m\agenttiny.c ****         }
  86:C:/Users/lenovo/Desktop/liteos/Project2/BearPi_LiteOS/components/connectivity/agent_tiny/atiny_lwm2m\agenttiny.c ****     }
  87:C:/Users/lenovo/Desktop/liteos/Project2/BearPi_LiteOS/components/connectivity/agent_tiny/atiny_lwm2m\agenttiny.c ****     else if(BOOTSTRAP_SEQUENCE == atiny_params->server_params.bootstrap_mode)
  88:C:/Users/lenovo/Desktop/liteos/Project2/BearPi_LiteOS/components/connectivity/agent_tiny/atiny_lwm2m\agenttiny.c ****     {
ARM GAS  c:\Users\lenovo\AppData\Local\Temp\ccDAYDpu.s 			page 3


  89:C:/Users/lenovo/Desktop/liteos/Project2/BearPi_LiteOS/components/connectivity/agent_tiny/atiny_lwm2m\agenttiny.c ****         return ATINY_OK;
  90:C:/Users/lenovo/Desktop/liteos/Project2/BearPi_LiteOS/components/connectivity/agent_tiny/atiny_lwm2m\agenttiny.c ****     }
  91:C:/Users/lenovo/Desktop/liteos/Project2/BearPi_LiteOS/components/connectivity/agent_tiny/atiny_lwm2m\agenttiny.c ****     else
  92:C:/Users/lenovo/Desktop/liteos/Project2/BearPi_LiteOS/components/connectivity/agent_tiny/atiny_lwm2m\agenttiny.c ****     {
  93:C:/Users/lenovo/Desktop/liteos/Project2/BearPi_LiteOS/components/connectivity/agent_tiny/atiny_lwm2m\agenttiny.c ****         //it is ok? if the mode value is not 0,1,2, we all set it to 2 ?
  94:C:/Users/lenovo/Desktop/liteos/Project2/BearPi_LiteOS/components/connectivity/agent_tiny/atiny_lwm2m\agenttiny.c ****         LOG("[bootstrap_tag]: BOOTSTRAP only have three mode, should been :0,1,2");
  95:C:/Users/lenovo/Desktop/liteos/Project2/BearPi_LiteOS/components/connectivity/agent_tiny/atiny_lwm2m\agenttiny.c ****         return ATINY_ARG_INVALID;
  96:C:/Users/lenovo/Desktop/liteos/Project2/BearPi_LiteOS/components/connectivity/agent_tiny/atiny_lwm2m\agenttiny.c ****     }
  97:C:/Users/lenovo/Desktop/liteos/Project2/BearPi_LiteOS/components/connectivity/agent_tiny/atiny_lwm2m\agenttiny.c **** 
  98:C:/Users/lenovo/Desktop/liteos/Project2/BearPi_LiteOS/components/connectivity/agent_tiny/atiny_lwm2m\agenttiny.c **** 
  99:C:/Users/lenovo/Desktop/liteos/Project2/BearPi_LiteOS/components/connectivity/agent_tiny/atiny_lwm2m\agenttiny.c ****     return ATINY_OK;
 100:C:/Users/lenovo/Desktop/liteos/Project2/BearPi_LiteOS/components/connectivity/agent_tiny/atiny_lwm2m\agenttiny.c **** }
 101:C:/Users/lenovo/Desktop/liteos/Project2/BearPi_LiteOS/components/connectivity/agent_tiny/atiny_lwm2m\agenttiny.c **** 
 102:C:/Users/lenovo/Desktop/liteos/Project2/BearPi_LiteOS/components/connectivity/agent_tiny/atiny_lwm2m\agenttiny.c **** #ifdef LWM2M_BOOTSTRAP
 103:C:/Users/lenovo/Desktop/liteos/Project2/BearPi_LiteOS/components/connectivity/agent_tiny/atiny_lwm2m\agenttiny.c **** static int atiny_check_psk_init_param(atiny_param_t *atiny_params)
 104:C:/Users/lenovo/Desktop/liteos/Project2/BearPi_LiteOS/components/connectivity/agent_tiny/atiny_lwm2m\agenttiny.c **** {
 105:C:/Users/lenovo/Desktop/liteos/Project2/BearPi_LiteOS/components/connectivity/agent_tiny/atiny_lwm2m\agenttiny.c ****     int i = 0;
 106:C:/Users/lenovo/Desktop/liteos/Project2/BearPi_LiteOS/components/connectivity/agent_tiny/atiny_lwm2m\agenttiny.c ****     int psk_id_len = 0;
 107:C:/Users/lenovo/Desktop/liteos/Project2/BearPi_LiteOS/components/connectivity/agent_tiny/atiny_lwm2m\agenttiny.c ****     int psk_len = 0;
 108:C:/Users/lenovo/Desktop/liteos/Project2/BearPi_LiteOS/components/connectivity/agent_tiny/atiny_lwm2m\agenttiny.c ****     const int PSK_ID_LIMIT_LEN = 128;
 109:C:/Users/lenovo/Desktop/liteos/Project2/BearPi_LiteOS/components/connectivity/agent_tiny/atiny_lwm2m\agenttiny.c ****     const int PSK_LIMIT_LEN = 64;
 110:C:/Users/lenovo/Desktop/liteos/Project2/BearPi_LiteOS/components/connectivity/agent_tiny/atiny_lwm2m\agenttiny.c ****     int total_element = 0;
 111:C:/Users/lenovo/Desktop/liteos/Project2/BearPi_LiteOS/components/connectivity/agent_tiny/atiny_lwm2m\agenttiny.c **** 
 112:C:/Users/lenovo/Desktop/liteos/Project2/BearPi_LiteOS/components/connectivity/agent_tiny/atiny_lwm2m\agenttiny.c ****     if(NULL == atiny_params)
 113:C:/Users/lenovo/Desktop/liteos/Project2/BearPi_LiteOS/components/connectivity/agent_tiny/atiny_lwm2m\agenttiny.c ****     {
 114:C:/Users/lenovo/Desktop/liteos/Project2/BearPi_LiteOS/components/connectivity/agent_tiny/atiny_lwm2m\agenttiny.c ****         return ATINY_ARG_INVALID;
 115:C:/Users/lenovo/Desktop/liteos/Project2/BearPi_LiteOS/components/connectivity/agent_tiny/atiny_lwm2m\agenttiny.c ****     }
 116:C:/Users/lenovo/Desktop/liteos/Project2/BearPi_LiteOS/components/connectivity/agent_tiny/atiny_lwm2m\agenttiny.c **** 
 117:C:/Users/lenovo/Desktop/liteos/Project2/BearPi_LiteOS/components/connectivity/agent_tiny/atiny_lwm2m\agenttiny.c ****     //security_params have 2 element, we have 2 pair psk.
 118:C:/Users/lenovo/Desktop/liteos/Project2/BearPi_LiteOS/components/connectivity/agent_tiny/atiny_lwm2m\agenttiny.c ****     total_element = (sizeof(atiny_params->security_params)) / (sizeof(atiny_params->security_params
 119:C:/Users/lenovo/Desktop/liteos/Project2/BearPi_LiteOS/components/connectivity/agent_tiny/atiny_lwm2m\agenttiny.c **** 
 120:C:/Users/lenovo/Desktop/liteos/Project2/BearPi_LiteOS/components/connectivity/agent_tiny/atiny_lwm2m\agenttiny.c ****     for(i = 0; i < total_element; i++)
 121:C:/Users/lenovo/Desktop/liteos/Project2/BearPi_LiteOS/components/connectivity/agent_tiny/atiny_lwm2m\agenttiny.c ****     {
 122:C:/Users/lenovo/Desktop/liteos/Project2/BearPi_LiteOS/components/connectivity/agent_tiny/atiny_lwm2m\agenttiny.c ****         //if there are null, we could run not in security mode
 123:C:/Users/lenovo/Desktop/liteos/Project2/BearPi_LiteOS/components/connectivity/agent_tiny/atiny_lwm2m\agenttiny.c ****         if((atiny_params->security_params[i].psk_Id != NULL) && (atiny_params->security_params[i].p
 124:C:/Users/lenovo/Desktop/liteos/Project2/BearPi_LiteOS/components/connectivity/agent_tiny/atiny_lwm2m\agenttiny.c ****         {
 125:C:/Users/lenovo/Desktop/liteos/Project2/BearPi_LiteOS/components/connectivity/agent_tiny/atiny_lwm2m\agenttiny.c ****             psk_id_len = strlen(atiny_params->security_params[i].psk_Id);
 126:C:/Users/lenovo/Desktop/liteos/Project2/BearPi_LiteOS/components/connectivity/agent_tiny/atiny_lwm2m\agenttiny.c ****             psk_len = strlen(atiny_params->security_params[i].psk);
 127:C:/Users/lenovo/Desktop/liteos/Project2/BearPi_LiteOS/components/connectivity/agent_tiny/atiny_lwm2m\agenttiny.c **** 
 128:C:/Users/lenovo/Desktop/liteos/Project2/BearPi_LiteOS/components/connectivity/agent_tiny/atiny_lwm2m\agenttiny.c ****             //the limit of the len, please read RFC4279  or OMA-TS-LightweightM2M E.1.1
 129:C:/Users/lenovo/Desktop/liteos/Project2/BearPi_LiteOS/components/connectivity/agent_tiny/atiny_lwm2m\agenttiny.c ****             if((psk_id_len > PSK_ID_LIMIT_LEN) || (psk_len > PSK_LIMIT_LEN))
 130:C:/Users/lenovo/Desktop/liteos/Project2/BearPi_LiteOS/components/connectivity/agent_tiny/atiny_lwm2m\agenttiny.c ****             {
 131:C:/Users/lenovo/Desktop/liteos/Project2/BearPi_LiteOS/components/connectivity/agent_tiny/atiny_lwm2m\agenttiny.c ****                 LOG("[bootstrap_tag]: psk_Id len over 128 or psk len over 64");
 132:C:/Users/lenovo/Desktop/liteos/Project2/BearPi_LiteOS/components/connectivity/agent_tiny/atiny_lwm2m\agenttiny.c ****                 return ATINY_ARG_INVALID;
 133:C:/Users/lenovo/Desktop/liteos/Project2/BearPi_LiteOS/components/connectivity/agent_tiny/atiny_lwm2m\agenttiny.c ****             }
 134:C:/Users/lenovo/Desktop/liteos/Project2/BearPi_LiteOS/components/connectivity/agent_tiny/atiny_lwm2m\agenttiny.c ****         }
 135:C:/Users/lenovo/Desktop/liteos/Project2/BearPi_LiteOS/components/connectivity/agent_tiny/atiny_lwm2m\agenttiny.c ****     }
 136:C:/Users/lenovo/Desktop/liteos/Project2/BearPi_LiteOS/components/connectivity/agent_tiny/atiny_lwm2m\agenttiny.c **** 
 137:C:/Users/lenovo/Desktop/liteos/Project2/BearPi_LiteOS/components/connectivity/agent_tiny/atiny_lwm2m\agenttiny.c ****     return ATINY_OK;
 138:C:/Users/lenovo/Desktop/liteos/Project2/BearPi_LiteOS/components/connectivity/agent_tiny/atiny_lwm2m\agenttiny.c **** }
 139:C:/Users/lenovo/Desktop/liteos/Project2/BearPi_LiteOS/components/connectivity/agent_tiny/atiny_lwm2m\agenttiny.c **** #endif
 140:C:/Users/lenovo/Desktop/liteos/Project2/BearPi_LiteOS/components/connectivity/agent_tiny/atiny_lwm2m\agenttiny.c **** 
 141:C:/Users/lenovo/Desktop/liteos/Project2/BearPi_LiteOS/components/connectivity/agent_tiny/atiny_lwm2m\agenttiny.c **** 
 142:C:/Users/lenovo/Desktop/liteos/Project2/BearPi_LiteOS/components/connectivity/agent_tiny/atiny_lwm2m\agenttiny.c **** int  atiny_init(atiny_param_t *atiny_params, void **phandle)
 143:C:/Users/lenovo/Desktop/liteos/Project2/BearPi_LiteOS/components/connectivity/agent_tiny/atiny_lwm2m\agenttiny.c **** {
 144:C:/Users/lenovo/Desktop/liteos/Project2/BearPi_LiteOS/components/connectivity/agent_tiny/atiny_lwm2m\agenttiny.c ****     int result;
 145:C:/Users/lenovo/Desktop/liteos/Project2/BearPi_LiteOS/components/connectivity/agent_tiny/atiny_lwm2m\agenttiny.c ****     
ARM GAS  c:\Users\lenovo\AppData\Local\Temp\ccDAYDpu.s 			page 4


 146:C:/Users/lenovo/Desktop/liteos/Project2/BearPi_LiteOS/components/connectivity/agent_tiny/atiny_lwm2m\agenttiny.c ****     result = atiny_init_rpt();
 147:C:/Users/lenovo/Desktop/liteos/Project2/BearPi_LiteOS/components/connectivity/agent_tiny/atiny_lwm2m\agenttiny.c ****     if (result != ATINY_OK)
 148:C:/Users/lenovo/Desktop/liteos/Project2/BearPi_LiteOS/components/connectivity/agent_tiny/atiny_lwm2m\agenttiny.c ****     {
 149:C:/Users/lenovo/Desktop/liteos/Project2/BearPi_LiteOS/components/connectivity/agent_tiny/atiny_lwm2m\agenttiny.c ****         ATINY_LOG(LOG_FATAL, "atiny_init_rpt fail,ret=%d", result);
 150:C:/Users/lenovo/Desktop/liteos/Project2/BearPi_LiteOS/components/connectivity/agent_tiny/atiny_lwm2m\agenttiny.c ****         return result;
 151:C:/Users/lenovo/Desktop/liteos/Project2/BearPi_LiteOS/components/connectivity/agent_tiny/atiny_lwm2m\agenttiny.c ****     }
 152:C:/Users/lenovo/Desktop/liteos/Project2/BearPi_LiteOS/components/connectivity/agent_tiny/atiny_lwm2m\agenttiny.c **** 
 153:C:/Users/lenovo/Desktop/liteos/Project2/BearPi_LiteOS/components/connectivity/agent_tiny/atiny_lwm2m\agenttiny.c ****     if (NULL == atiny_params || NULL == phandle)
 154:C:/Users/lenovo/Desktop/liteos/Project2/BearPi_LiteOS/components/connectivity/agent_tiny/atiny_lwm2m\agenttiny.c ****     {
 155:C:/Users/lenovo/Desktop/liteos/Project2/BearPi_LiteOS/components/connectivity/agent_tiny/atiny_lwm2m\agenttiny.c ****         ATINY_LOG(LOG_FATAL, "Invalid args");
 156:C:/Users/lenovo/Desktop/liteos/Project2/BearPi_LiteOS/components/connectivity/agent_tiny/atiny_lwm2m\agenttiny.c ****         return ATINY_ARG_INVALID;
 157:C:/Users/lenovo/Desktop/liteos/Project2/BearPi_LiteOS/components/connectivity/agent_tiny/atiny_lwm2m\agenttiny.c ****     }
 158:C:/Users/lenovo/Desktop/liteos/Project2/BearPi_LiteOS/components/connectivity/agent_tiny/atiny_lwm2m\agenttiny.c **** 
 159:C:/Users/lenovo/Desktop/liteos/Project2/BearPi_LiteOS/components/connectivity/agent_tiny/atiny_lwm2m\agenttiny.c ****     if(ATINY_OK != atiny_check_bootstrap_init_param(atiny_params))
 160:C:/Users/lenovo/Desktop/liteos/Project2/BearPi_LiteOS/components/connectivity/agent_tiny/atiny_lwm2m\agenttiny.c ****     {
 161:C:/Users/lenovo/Desktop/liteos/Project2/BearPi_LiteOS/components/connectivity/agent_tiny/atiny_lwm2m\agenttiny.c ****         LOG("[bootstrap_tag]: BOOTSTRAP's params are wrong");
 162:C:/Users/lenovo/Desktop/liteos/Project2/BearPi_LiteOS/components/connectivity/agent_tiny/atiny_lwm2m\agenttiny.c ****         return ATINY_ARG_INVALID;
 163:C:/Users/lenovo/Desktop/liteos/Project2/BearPi_LiteOS/components/connectivity/agent_tiny/atiny_lwm2m\agenttiny.c ****     }
 164:C:/Users/lenovo/Desktop/liteos/Project2/BearPi_LiteOS/components/connectivity/agent_tiny/atiny_lwm2m\agenttiny.c **** 
 165:C:/Users/lenovo/Desktop/liteos/Project2/BearPi_LiteOS/components/connectivity/agent_tiny/atiny_lwm2m\agenttiny.c **** #ifdef LWM2M_BOOTSTRAP
 166:C:/Users/lenovo/Desktop/liteos/Project2/BearPi_LiteOS/components/connectivity/agent_tiny/atiny_lwm2m\agenttiny.c ****     if(ATINY_OK != atiny_check_psk_init_param(atiny_params))
 167:C:/Users/lenovo/Desktop/liteos/Project2/BearPi_LiteOS/components/connectivity/agent_tiny/atiny_lwm2m\agenttiny.c ****     {
 168:C:/Users/lenovo/Desktop/liteos/Project2/BearPi_LiteOS/components/connectivity/agent_tiny/atiny_lwm2m\agenttiny.c ****         LOG("[bootstrap_tag]: psk params are wrong");
 169:C:/Users/lenovo/Desktop/liteos/Project2/BearPi_LiteOS/components/connectivity/agent_tiny/atiny_lwm2m\agenttiny.c ****     }
 170:C:/Users/lenovo/Desktop/liteos/Project2/BearPi_LiteOS/components/connectivity/agent_tiny/atiny_lwm2m\agenttiny.c **** #endif
 171:C:/Users/lenovo/Desktop/liteos/Project2/BearPi_LiteOS/components/connectivity/agent_tiny/atiny_lwm2m\agenttiny.c **** 
 172:C:/Users/lenovo/Desktop/liteos/Project2/BearPi_LiteOS/components/connectivity/agent_tiny/atiny_lwm2m\agenttiny.c ****     memset((void *)&g_atiny_handle, 0, sizeof(handle_data_t));
 173:C:/Users/lenovo/Desktop/liteos/Project2/BearPi_LiteOS/components/connectivity/agent_tiny/atiny_lwm2m\agenttiny.c **** 
 174:C:/Users/lenovo/Desktop/liteos/Project2/BearPi_LiteOS/components/connectivity/agent_tiny/atiny_lwm2m\agenttiny.c ****     g_atiny_handle.quit_sem = atiny_mutex_create();
 175:C:/Users/lenovo/Desktop/liteos/Project2/BearPi_LiteOS/components/connectivity/agent_tiny/atiny_lwm2m\agenttiny.c ****     if (NULL == g_atiny_handle.quit_sem)
 176:C:/Users/lenovo/Desktop/liteos/Project2/BearPi_LiteOS/components/connectivity/agent_tiny/atiny_lwm2m\agenttiny.c ****     {
 177:C:/Users/lenovo/Desktop/liteos/Project2/BearPi_LiteOS/components/connectivity/agent_tiny/atiny_lwm2m\agenttiny.c ****         ATINY_LOG(LOG_FATAL, "atiny_mutex_create fail");
 178:C:/Users/lenovo/Desktop/liteos/Project2/BearPi_LiteOS/components/connectivity/agent_tiny/atiny_lwm2m\agenttiny.c ****         return ATINY_RESOURCE_NOT_ENOUGH;
 179:C:/Users/lenovo/Desktop/liteos/Project2/BearPi_LiteOS/components/connectivity/agent_tiny/atiny_lwm2m\agenttiny.c ****     }
 180:C:/Users/lenovo/Desktop/liteos/Project2/BearPi_LiteOS/components/connectivity/agent_tiny/atiny_lwm2m\agenttiny.c ****     atiny_mutex_lock(g_atiny_handle.quit_sem);
 181:C:/Users/lenovo/Desktop/liteos/Project2/BearPi_LiteOS/components/connectivity/agent_tiny/atiny_lwm2m\agenttiny.c ****     g_atiny_handle.atiny_params = *atiny_params;
 182:C:/Users/lenovo/Desktop/liteos/Project2/BearPi_LiteOS/components/connectivity/agent_tiny/atiny_lwm2m\agenttiny.c ****     *phandle = &g_atiny_handle;
 183:C:/Users/lenovo/Desktop/liteos/Project2/BearPi_LiteOS/components/connectivity/agent_tiny/atiny_lwm2m\agenttiny.c **** 
 184:C:/Users/lenovo/Desktop/liteos/Project2/BearPi_LiteOS/components/connectivity/agent_tiny/atiny_lwm2m\agenttiny.c **** #ifdef CONFIG_FEATURE_FOTA
 185:C:/Users/lenovo/Desktop/liteos/Project2/BearPi_LiteOS/components/connectivity/agent_tiny/atiny_lwm2m\agenttiny.c **** 
 186:C:/Users/lenovo/Desktop/liteos/Project2/BearPi_LiteOS/components/connectivity/agent_tiny/atiny_lwm2m\agenttiny.c ****     return atiny_fota_manager_set_storage_device(atiny_fota_manager_get_instance());
 187:C:/Users/lenovo/Desktop/liteos/Project2/BearPi_LiteOS/components/connectivity/agent_tiny/atiny_lwm2m\agenttiny.c **** #else
 188:C:/Users/lenovo/Desktop/liteos/Project2/BearPi_LiteOS/components/connectivity/agent_tiny/atiny_lwm2m\agenttiny.c ****     return ATINY_OK;
 189:C:/Users/lenovo/Desktop/liteos/Project2/BearPi_LiteOS/components/connectivity/agent_tiny/atiny_lwm2m\agenttiny.c **** #endif
 190:C:/Users/lenovo/Desktop/liteos/Project2/BearPi_LiteOS/components/connectivity/agent_tiny/atiny_lwm2m\agenttiny.c **** 
 191:C:/Users/lenovo/Desktop/liteos/Project2/BearPi_LiteOS/components/connectivity/agent_tiny/atiny_lwm2m\agenttiny.c **** }
 192:C:/Users/lenovo/Desktop/liteos/Project2/BearPi_LiteOS/components/connectivity/agent_tiny/atiny_lwm2m\agenttiny.c **** 
 193:C:/Users/lenovo/Desktop/liteos/Project2/BearPi_LiteOS/components/connectivity/agent_tiny/atiny_lwm2m\agenttiny.c **** /*
 194:C:/Users/lenovo/Desktop/liteos/Project2/BearPi_LiteOS/components/connectivity/agent_tiny/atiny_lwm2m\agenttiny.c ****  * add date:     2018-06-05
 195:C:/Users/lenovo/Desktop/liteos/Project2/BearPi_LiteOS/components/connectivity/agent_tiny/atiny_lwm2m\agenttiny.c ****  * description:  get bootstrap info from atiny_params which from user, set bs_sequence_state and bs
 196:C:/Users/lenovo/Desktop/liteos/Project2/BearPi_LiteOS/components/connectivity/agent_tiny/atiny_lwm2m\agenttiny.c ****  *
 197:C:/Users/lenovo/Desktop/liteos/Project2/BearPi_LiteOS/components/connectivity/agent_tiny/atiny_lwm2m\agenttiny.c ****  * return:       none
 198:C:/Users/lenovo/Desktop/liteos/Project2/BearPi_LiteOS/components/connectivity/agent_tiny/atiny_lwm2m\agenttiny.c ****  * param:
 199:C:/Users/lenovo/Desktop/liteos/Project2/BearPi_LiteOS/components/connectivity/agent_tiny/atiny_lwm2m\agenttiny.c ****  *     in:  atiny_params
 200:C:/Users/lenovo/Desktop/liteos/Project2/BearPi_LiteOS/components/connectivity/agent_tiny/atiny_lwm2m\agenttiny.c ****  *     out: lwm2m_context
 201:C:/Users/lenovo/Desktop/liteos/Project2/BearPi_LiteOS/components/connectivity/agent_tiny/atiny_lwm2m\agenttiny.c ****  */
 202:C:/Users/lenovo/Desktop/liteos/Project2/BearPi_LiteOS/components/connectivity/agent_tiny/atiny_lwm2m\agenttiny.c **** void atiny_set_bootstrap_sequence_state(atiny_param_t *atiny_params, lwm2m_context_t *lwm2m_context
ARM GAS  c:\Users\lenovo\AppData\Local\Temp\ccDAYDpu.s 			page 5


 203:C:/Users/lenovo/Desktop/liteos/Project2/BearPi_LiteOS/components/connectivity/agent_tiny/atiny_lwm2m\agenttiny.c **** {
 204:C:/Users/lenovo/Desktop/liteos/Project2/BearPi_LiteOS/components/connectivity/agent_tiny/atiny_lwm2m\agenttiny.c ****     (void)lwm2m_initBootStrap(lwm2m_context, atiny_params->server_params.bootstrap_mode);
 205:C:/Users/lenovo/Desktop/liteos/Project2/BearPi_LiteOS/components/connectivity/agent_tiny/atiny_lwm2m\agenttiny.c **** }
 206:C:/Users/lenovo/Desktop/liteos/Project2/BearPi_LiteOS/components/connectivity/agent_tiny/atiny_lwm2m\agenttiny.c **** 
 207:C:/Users/lenovo/Desktop/liteos/Project2/BearPi_LiteOS/components/connectivity/agent_tiny/atiny_lwm2m\agenttiny.c **** 
 208:C:/Users/lenovo/Desktop/liteos/Project2/BearPi_LiteOS/components/connectivity/agent_tiny/atiny_lwm2m\agenttiny.c **** 
 209:C:/Users/lenovo/Desktop/liteos/Project2/BearPi_LiteOS/components/connectivity/agent_tiny/atiny_lwm2m\agenttiny.c **** /*
 210:C:/Users/lenovo/Desktop/liteos/Project2/BearPi_LiteOS/components/connectivity/agent_tiny/atiny_lwm2m\agenttiny.c **** * modify info:
 211:C:/Users/lenovo/Desktop/liteos/Project2/BearPi_LiteOS/components/connectivity/agent_tiny/atiny_lwm2m\agenttiny.c **** *     date:    2018-05-30
 212:C:/Users/lenovo/Desktop/liteos/Project2/BearPi_LiteOS/components/connectivity/agent_tiny/atiny_lwm2m\agenttiny.c **** *     reason:  modify for bootstrap mode, origin code only support FACTORY mode.
 213:C:/Users/lenovo/Desktop/liteos/Project2/BearPi_LiteOS/components/connectivity/agent_tiny/atiny_lwm2m\agenttiny.c **** */
 214:C:/Users/lenovo/Desktop/liteos/Project2/BearPi_LiteOS/components/connectivity/agent_tiny/atiny_lwm2m\agenttiny.c **** int atiny_init_objects(atiny_param_t *atiny_params, const atiny_device_info_t *device_info, handle_
 215:C:/Users/lenovo/Desktop/liteos/Project2/BearPi_LiteOS/components/connectivity/agent_tiny/atiny_lwm2m\agenttiny.c **** {
 216:C:/Users/lenovo/Desktop/liteos/Project2/BearPi_LiteOS/components/connectivity/agent_tiny/atiny_lwm2m\agenttiny.c ****     int result;
 217:C:/Users/lenovo/Desktop/liteos/Project2/BearPi_LiteOS/components/connectivity/agent_tiny/atiny_lwm2m\agenttiny.c ****     client_data_t *pdata;
 218:C:/Users/lenovo/Desktop/liteos/Project2/BearPi_LiteOS/components/connectivity/agent_tiny/atiny_lwm2m\agenttiny.c ****     lwm2m_context_t *lwm2m_context = NULL;
 219:C:/Users/lenovo/Desktop/liteos/Project2/BearPi_LiteOS/components/connectivity/agent_tiny/atiny_lwm2m\agenttiny.c ****     uint16_t serverId = SERVER_ID;
 220:C:/Users/lenovo/Desktop/liteos/Project2/BearPi_LiteOS/components/connectivity/agent_tiny/atiny_lwm2m\agenttiny.c ****     char *epname = (char *)device_info->endpoint_name;
 221:C:/Users/lenovo/Desktop/liteos/Project2/BearPi_LiteOS/components/connectivity/agent_tiny/atiny_lwm2m\agenttiny.c **** 
 222:C:/Users/lenovo/Desktop/liteos/Project2/BearPi_LiteOS/components/connectivity/agent_tiny/atiny_lwm2m\agenttiny.c **** 
 223:C:/Users/lenovo/Desktop/liteos/Project2/BearPi_LiteOS/components/connectivity/agent_tiny/atiny_lwm2m\agenttiny.c **** 
 224:C:/Users/lenovo/Desktop/liteos/Project2/BearPi_LiteOS/components/connectivity/agent_tiny/atiny_lwm2m\agenttiny.c ****     pdata = &handle->client_data;
 225:C:/Users/lenovo/Desktop/liteos/Project2/BearPi_LiteOS/components/connectivity/agent_tiny/atiny_lwm2m\agenttiny.c ****     memset(pdata, 0, sizeof(client_data_t));
 226:C:/Users/lenovo/Desktop/liteos/Project2/BearPi_LiteOS/components/connectivity/agent_tiny/atiny_lwm2m\agenttiny.c **** 
 227:C:/Users/lenovo/Desktop/liteos/Project2/BearPi_LiteOS/components/connectivity/agent_tiny/atiny_lwm2m\agenttiny.c ****     ATINY_LOG(LOG_INFO, "Trying to init objects");
 228:C:/Users/lenovo/Desktop/liteos/Project2/BearPi_LiteOS/components/connectivity/agent_tiny/atiny_lwm2m\agenttiny.c **** 
 229:C:/Users/lenovo/Desktop/liteos/Project2/BearPi_LiteOS/components/connectivity/agent_tiny/atiny_lwm2m\agenttiny.c ****     lwm2m_context = lwm2m_init(pdata);
 230:C:/Users/lenovo/Desktop/liteos/Project2/BearPi_LiteOS/components/connectivity/agent_tiny/atiny_lwm2m\agenttiny.c ****     if (NULL == lwm2m_context)
 231:C:/Users/lenovo/Desktop/liteos/Project2/BearPi_LiteOS/components/connectivity/agent_tiny/atiny_lwm2m\agenttiny.c ****     {
 232:C:/Users/lenovo/Desktop/liteos/Project2/BearPi_LiteOS/components/connectivity/agent_tiny/atiny_lwm2m\agenttiny.c ****         ATINY_LOG(LOG_FATAL, "lwm2m_init fail");
 233:C:/Users/lenovo/Desktop/liteos/Project2/BearPi_LiteOS/components/connectivity/agent_tiny/atiny_lwm2m\agenttiny.c ****         return ATINY_MALLOC_FAILED;
 234:C:/Users/lenovo/Desktop/liteos/Project2/BearPi_LiteOS/components/connectivity/agent_tiny/atiny_lwm2m\agenttiny.c ****     }
 235:C:/Users/lenovo/Desktop/liteos/Project2/BearPi_LiteOS/components/connectivity/agent_tiny/atiny_lwm2m\agenttiny.c ****     lwm2m_context->observe_mutex = atiny_mutex_create();
 236:C:/Users/lenovo/Desktop/liteos/Project2/BearPi_LiteOS/components/connectivity/agent_tiny/atiny_lwm2m\agenttiny.c ****     if (NULL == lwm2m_context->observe_mutex)
 237:C:/Users/lenovo/Desktop/liteos/Project2/BearPi_LiteOS/components/connectivity/agent_tiny/atiny_lwm2m\agenttiny.c ****     {
 238:C:/Users/lenovo/Desktop/liteos/Project2/BearPi_LiteOS/components/connectivity/agent_tiny/atiny_lwm2m\agenttiny.c ****         ATINY_LOG(LOG_FATAL, "atiny_mutex_create fail");
 239:C:/Users/lenovo/Desktop/liteos/Project2/BearPi_LiteOS/components/connectivity/agent_tiny/atiny_lwm2m\agenttiny.c ****         lwm2m_free(lwm2m_context);
 240:C:/Users/lenovo/Desktop/liteos/Project2/BearPi_LiteOS/components/connectivity/agent_tiny/atiny_lwm2m\agenttiny.c ****         return ATINY_RESOURCE_NOT_ENOUGH;
 241:C:/Users/lenovo/Desktop/liteos/Project2/BearPi_LiteOS/components/connectivity/agent_tiny/atiny_lwm2m\agenttiny.c ****     }
 242:C:/Users/lenovo/Desktop/liteos/Project2/BearPi_LiteOS/components/connectivity/agent_tiny/atiny_lwm2m\agenttiny.c **** 
 243:C:/Users/lenovo/Desktop/liteos/Project2/BearPi_LiteOS/components/connectivity/agent_tiny/atiny_lwm2m\agenttiny.c ****     pdata->lwm2mH = lwm2m_context;
 244:C:/Users/lenovo/Desktop/liteos/Project2/BearPi_LiteOS/components/connectivity/agent_tiny/atiny_lwm2m\agenttiny.c **** 
 245:C:/Users/lenovo/Desktop/liteos/Project2/BearPi_LiteOS/components/connectivity/agent_tiny/atiny_lwm2m\agenttiny.c ****     handle->lwm2m_context = lwm2m_context;
 246:C:/Users/lenovo/Desktop/liteos/Project2/BearPi_LiteOS/components/connectivity/agent_tiny/atiny_lwm2m\agenttiny.c **** 
 247:C:/Users/lenovo/Desktop/liteos/Project2/BearPi_LiteOS/components/connectivity/agent_tiny/atiny_lwm2m\agenttiny.c ****     //even if not in bootstrap sequence mode, still set it NO_BS_SEQUENCE_STATE
 248:C:/Users/lenovo/Desktop/liteos/Project2/BearPi_LiteOS/components/connectivity/agent_tiny/atiny_lwm2m\agenttiny.c ****     atiny_set_bootstrap_sequence_state(atiny_params, lwm2m_context);
 249:C:/Users/lenovo/Desktop/liteos/Project2/BearPi_LiteOS/components/connectivity/agent_tiny/atiny_lwm2m\agenttiny.c **** 
 250:C:/Users/lenovo/Desktop/liteos/Project2/BearPi_LiteOS/components/connectivity/agent_tiny/atiny_lwm2m\agenttiny.c ****     handle->obj_array[OBJ_SECURITY_INDEX] = get_security_object(serverId, atiny_params, lwm2m_conte
 251:C:/Users/lenovo/Desktop/liteos/Project2/BearPi_LiteOS/components/connectivity/agent_tiny/atiny_lwm2m\agenttiny.c **** 
 252:C:/Users/lenovo/Desktop/liteos/Project2/BearPi_LiteOS/components/connectivity/agent_tiny/atiny_lwm2m\agenttiny.c ****     if (NULL ==  handle->obj_array[OBJ_SECURITY_INDEX])
 253:C:/Users/lenovo/Desktop/liteos/Project2/BearPi_LiteOS/components/connectivity/agent_tiny/atiny_lwm2m\agenttiny.c ****     {
 254:C:/Users/lenovo/Desktop/liteos/Project2/BearPi_LiteOS/components/connectivity/agent_tiny/atiny_lwm2m\agenttiny.c ****         ATINY_LOG(LOG_FATAL, "Failed to create security object");
 255:C:/Users/lenovo/Desktop/liteos/Project2/BearPi_LiteOS/components/connectivity/agent_tiny/atiny_lwm2m\agenttiny.c ****         return ATINY_MALLOC_FAILED;
 256:C:/Users/lenovo/Desktop/liteos/Project2/BearPi_LiteOS/components/connectivity/agent_tiny/atiny_lwm2m\agenttiny.c ****     }
 257:C:/Users/lenovo/Desktop/liteos/Project2/BearPi_LiteOS/components/connectivity/agent_tiny/atiny_lwm2m\agenttiny.c ****     pdata->securityObjP = handle->obj_array[OBJ_SECURITY_INDEX];
 258:C:/Users/lenovo/Desktop/liteos/Project2/BearPi_LiteOS/components/connectivity/agent_tiny/atiny_lwm2m\agenttiny.c **** 
 259:C:/Users/lenovo/Desktop/liteos/Project2/BearPi_LiteOS/components/connectivity/agent_tiny/atiny_lwm2m\agenttiny.c ****     handle->obj_array[OBJ_SERVER_INDEX] = get_server_object(serverId, atiny_params->server_params.b
ARM GAS  c:\Users\lenovo\AppData\Local\Temp\ccDAYDpu.s 			page 6


 260:C:/Users/lenovo/Desktop/liteos/Project2/BearPi_LiteOS/components/connectivity/agent_tiny/atiny_lwm2m\agenttiny.c ****                                           atiny_params->server_params.life_time, atiny_params->serv
 261:C:/Users/lenovo/Desktop/liteos/Project2/BearPi_LiteOS/components/connectivity/agent_tiny/atiny_lwm2m\agenttiny.c ****     if (NULL == handle->obj_array[OBJ_SERVER_INDEX])
 262:C:/Users/lenovo/Desktop/liteos/Project2/BearPi_LiteOS/components/connectivity/agent_tiny/atiny_lwm2m\agenttiny.c ****     {
 263:C:/Users/lenovo/Desktop/liteos/Project2/BearPi_LiteOS/components/connectivity/agent_tiny/atiny_lwm2m\agenttiny.c ****         ATINY_LOG(LOG_FATAL, "Failed to create server object");
 264:C:/Users/lenovo/Desktop/liteos/Project2/BearPi_LiteOS/components/connectivity/agent_tiny/atiny_lwm2m\agenttiny.c ****         return ATINY_MALLOC_FAILED;
 265:C:/Users/lenovo/Desktop/liteos/Project2/BearPi_LiteOS/components/connectivity/agent_tiny/atiny_lwm2m\agenttiny.c ****     }
 266:C:/Users/lenovo/Desktop/liteos/Project2/BearPi_LiteOS/components/connectivity/agent_tiny/atiny_lwm2m\agenttiny.c **** 
 267:C:/Users/lenovo/Desktop/liteos/Project2/BearPi_LiteOS/components/connectivity/agent_tiny/atiny_lwm2m\agenttiny.c ****     handle->obj_array[OBJ_ACCESS_CONTROL_INDEX] = acc_ctrl_create_object();
 268:C:/Users/lenovo/Desktop/liteos/Project2/BearPi_LiteOS/components/connectivity/agent_tiny/atiny_lwm2m\agenttiny.c ****     if (NULL == handle->obj_array[OBJ_ACCESS_CONTROL_INDEX])
 269:C:/Users/lenovo/Desktop/liteos/Project2/BearPi_LiteOS/components/connectivity/agent_tiny/atiny_lwm2m\agenttiny.c ****     {
 270:C:/Users/lenovo/Desktop/liteos/Project2/BearPi_LiteOS/components/connectivity/agent_tiny/atiny_lwm2m\agenttiny.c ****         ATINY_LOG(LOG_FATAL, "Failed to create access control object");
 271:C:/Users/lenovo/Desktop/liteos/Project2/BearPi_LiteOS/components/connectivity/agent_tiny/atiny_lwm2m\agenttiny.c ****         return ATINY_MALLOC_FAILED;
 272:C:/Users/lenovo/Desktop/liteos/Project2/BearPi_LiteOS/components/connectivity/agent_tiny/atiny_lwm2m\agenttiny.c ****     }
 273:C:/Users/lenovo/Desktop/liteos/Project2/BearPi_LiteOS/components/connectivity/agent_tiny/atiny_lwm2m\agenttiny.c **** 
 274:C:/Users/lenovo/Desktop/liteos/Project2/BearPi_LiteOS/components/connectivity/agent_tiny/atiny_lwm2m\agenttiny.c ****     handle->obj_array[OBJ_DEVICE_INDEX] = get_object_device(atiny_params, device_info->manufacturer
 275:C:/Users/lenovo/Desktop/liteos/Project2/BearPi_LiteOS/components/connectivity/agent_tiny/atiny_lwm2m\agenttiny.c ****     if (NULL == handle->obj_array[OBJ_DEVICE_INDEX])
 276:C:/Users/lenovo/Desktop/liteos/Project2/BearPi_LiteOS/components/connectivity/agent_tiny/atiny_lwm2m\agenttiny.c ****     {
 277:C:/Users/lenovo/Desktop/liteos/Project2/BearPi_LiteOS/components/connectivity/agent_tiny/atiny_lwm2m\agenttiny.c ****         ATINY_LOG(LOG_FATAL, "Failed to create device object");
 278:C:/Users/lenovo/Desktop/liteos/Project2/BearPi_LiteOS/components/connectivity/agent_tiny/atiny_lwm2m\agenttiny.c ****         return ATINY_MALLOC_FAILED;
 279:C:/Users/lenovo/Desktop/liteos/Project2/BearPi_LiteOS/components/connectivity/agent_tiny/atiny_lwm2m\agenttiny.c ****     }
 280:C:/Users/lenovo/Desktop/liteos/Project2/BearPi_LiteOS/components/connectivity/agent_tiny/atiny_lwm2m\agenttiny.c **** 
 281:C:/Users/lenovo/Desktop/liteos/Project2/BearPi_LiteOS/components/connectivity/agent_tiny/atiny_lwm2m\agenttiny.c ****     handle->obj_array[OBJ_CONNECT_INDEX] = get_object_conn_m(atiny_params);
 282:C:/Users/lenovo/Desktop/liteos/Project2/BearPi_LiteOS/components/connectivity/agent_tiny/atiny_lwm2m\agenttiny.c ****     if (NULL == handle->obj_array[OBJ_CONNECT_INDEX])
 283:C:/Users/lenovo/Desktop/liteos/Project2/BearPi_LiteOS/components/connectivity/agent_tiny/atiny_lwm2m\agenttiny.c ****     {
 284:C:/Users/lenovo/Desktop/liteos/Project2/BearPi_LiteOS/components/connectivity/agent_tiny/atiny_lwm2m\agenttiny.c ****         ATINY_LOG(LOG_FATAL, "Failed to create connect object");
 285:C:/Users/lenovo/Desktop/liteos/Project2/BearPi_LiteOS/components/connectivity/agent_tiny/atiny_lwm2m\agenttiny.c ****         return ATINY_MALLOC_FAILED;
 286:C:/Users/lenovo/Desktop/liteos/Project2/BearPi_LiteOS/components/connectivity/agent_tiny/atiny_lwm2m\agenttiny.c ****     }
 287:C:/Users/lenovo/Desktop/liteos/Project2/BearPi_LiteOS/components/connectivity/agent_tiny/atiny_lwm2m\agenttiny.c **** 
 288:C:/Users/lenovo/Desktop/liteos/Project2/BearPi_LiteOS/components/connectivity/agent_tiny/atiny_lwm2m\agenttiny.c ****     handle->obj_array[OBJ_FIRMWARE_INDEX] = get_object_firmware(atiny_params);
 289:C:/Users/lenovo/Desktop/liteos/Project2/BearPi_LiteOS/components/connectivity/agent_tiny/atiny_lwm2m\agenttiny.c **** #ifdef CONFIG_FEATURE_FOTA
 290:C:/Users/lenovo/Desktop/liteos/Project2/BearPi_LiteOS/components/connectivity/agent_tiny/atiny_lwm2m\agenttiny.c ****     if (NULL == handle->obj_array[OBJ_FIRMWARE_INDEX])
 291:C:/Users/lenovo/Desktop/liteos/Project2/BearPi_LiteOS/components/connectivity/agent_tiny/atiny_lwm2m\agenttiny.c ****     {
 292:C:/Users/lenovo/Desktop/liteos/Project2/BearPi_LiteOS/components/connectivity/agent_tiny/atiny_lwm2m\agenttiny.c ****         ATINY_LOG(LOG_FATAL, "Failed to create firmware object");
 293:C:/Users/lenovo/Desktop/liteos/Project2/BearPi_LiteOS/components/connectivity/agent_tiny/atiny_lwm2m\agenttiny.c ****         return ATINY_MALLOC_FAILED;
 294:C:/Users/lenovo/Desktop/liteos/Project2/BearPi_LiteOS/components/connectivity/agent_tiny/atiny_lwm2m\agenttiny.c ****     }
 295:C:/Users/lenovo/Desktop/liteos/Project2/BearPi_LiteOS/components/connectivity/agent_tiny/atiny_lwm2m\agenttiny.c **** #endif
 296:C:/Users/lenovo/Desktop/liteos/Project2/BearPi_LiteOS/components/connectivity/agent_tiny/atiny_lwm2m\agenttiny.c **** 
 297:C:/Users/lenovo/Desktop/liteos/Project2/BearPi_LiteOS/components/connectivity/agent_tiny/atiny_lwm2m\agenttiny.c ****     handle->obj_array[OBJ_LOCATION_INDEX] = get_object_location();
 298:C:/Users/lenovo/Desktop/liteos/Project2/BearPi_LiteOS/components/connectivity/agent_tiny/atiny_lwm2m\agenttiny.c ****     if (NULL == handle->obj_array[OBJ_LOCATION_INDEX])
 299:C:/Users/lenovo/Desktop/liteos/Project2/BearPi_LiteOS/components/connectivity/agent_tiny/atiny_lwm2m\agenttiny.c ****     {
 300:C:/Users/lenovo/Desktop/liteos/Project2/BearPi_LiteOS/components/connectivity/agent_tiny/atiny_lwm2m\agenttiny.c ****         ATINY_LOG(LOG_FATAL, "Failed to create location object");
 301:C:/Users/lenovo/Desktop/liteos/Project2/BearPi_LiteOS/components/connectivity/agent_tiny/atiny_lwm2m\agenttiny.c ****         return ATINY_MALLOC_FAILED;
 302:C:/Users/lenovo/Desktop/liteos/Project2/BearPi_LiteOS/components/connectivity/agent_tiny/atiny_lwm2m\agenttiny.c ****     }
 303:C:/Users/lenovo/Desktop/liteos/Project2/BearPi_LiteOS/components/connectivity/agent_tiny/atiny_lwm2m\agenttiny.c **** 
 304:C:/Users/lenovo/Desktop/liteos/Project2/BearPi_LiteOS/components/connectivity/agent_tiny/atiny_lwm2m\agenttiny.c ****     handle->obj_array[OBJ_APP_INDEX] = get_binary_app_data_object(atiny_params);
 305:C:/Users/lenovo/Desktop/liteos/Project2/BearPi_LiteOS/components/connectivity/agent_tiny/atiny_lwm2m\agenttiny.c ****     if (NULL == handle->obj_array[OBJ_APP_INDEX])
 306:C:/Users/lenovo/Desktop/liteos/Project2/BearPi_LiteOS/components/connectivity/agent_tiny/atiny_lwm2m\agenttiny.c ****     {
 307:C:/Users/lenovo/Desktop/liteos/Project2/BearPi_LiteOS/components/connectivity/agent_tiny/atiny_lwm2m\agenttiny.c ****         ATINY_LOG(LOG_FATAL, "Failed to create app object");
 308:C:/Users/lenovo/Desktop/liteos/Project2/BearPi_LiteOS/components/connectivity/agent_tiny/atiny_lwm2m\agenttiny.c ****         return ATINY_MALLOC_FAILED;
 309:C:/Users/lenovo/Desktop/liteos/Project2/BearPi_LiteOS/components/connectivity/agent_tiny/atiny_lwm2m\agenttiny.c ****     }
 310:C:/Users/lenovo/Desktop/liteos/Project2/BearPi_LiteOS/components/connectivity/agent_tiny/atiny_lwm2m\agenttiny.c **** 
 311:C:/Users/lenovo/Desktop/liteos/Project2/BearPi_LiteOS/components/connectivity/agent_tiny/atiny_lwm2m\agenttiny.c ****     result = lwm2m_configure(lwm2m_context, epname, NULL, NULL, OBJ_MAX_NUM, handle->obj_array);
 312:C:/Users/lenovo/Desktop/liteos/Project2/BearPi_LiteOS/components/connectivity/agent_tiny/atiny_lwm2m\agenttiny.c ****     if (result != 0)
 313:C:/Users/lenovo/Desktop/liteos/Project2/BearPi_LiteOS/components/connectivity/agent_tiny/atiny_lwm2m\agenttiny.c ****     {
 314:C:/Users/lenovo/Desktop/liteos/Project2/BearPi_LiteOS/components/connectivity/agent_tiny/atiny_lwm2m\agenttiny.c ****         return ATINY_RESOURCE_NOT_FOUND;
 315:C:/Users/lenovo/Desktop/liteos/Project2/BearPi_LiteOS/components/connectivity/agent_tiny/atiny_lwm2m\agenttiny.c ****     }
 316:C:/Users/lenovo/Desktop/liteos/Project2/BearPi_LiteOS/components/connectivity/agent_tiny/atiny_lwm2m\agenttiny.c **** 
ARM GAS  c:\Users\lenovo\AppData\Local\Temp\ccDAYDpu.s 			page 7


 317:C:/Users/lenovo/Desktop/liteos/Project2/BearPi_LiteOS/components/connectivity/agent_tiny/atiny_lwm2m\agenttiny.c ****     return ATINY_OK;
 318:C:/Users/lenovo/Desktop/liteos/Project2/BearPi_LiteOS/components/connectivity/agent_tiny/atiny_lwm2m\agenttiny.c **** }
 319:C:/Users/lenovo/Desktop/liteos/Project2/BearPi_LiteOS/components/connectivity/agent_tiny/atiny_lwm2m\agenttiny.c **** 
 320:C:/Users/lenovo/Desktop/liteos/Project2/BearPi_LiteOS/components/connectivity/agent_tiny/atiny_lwm2m\agenttiny.c **** static int lwm2m_poll(handle_data_t *phandle, uint32_t *timeout)
 321:C:/Users/lenovo/Desktop/liteos/Project2/BearPi_LiteOS/components/connectivity/agent_tiny/atiny_lwm2m\agenttiny.c **** {
 322:C:/Users/lenovo/Desktop/liteos/Project2/BearPi_LiteOS/components/connectivity/agent_tiny/atiny_lwm2m\agenttiny.c ****     client_data_t *dataP;
 323:C:/Users/lenovo/Desktop/liteos/Project2/BearPi_LiteOS/components/connectivity/agent_tiny/atiny_lwm2m\agenttiny.c ****     int numBytes;
 324:C:/Users/lenovo/Desktop/liteos/Project2/BearPi_LiteOS/components/connectivity/agent_tiny/atiny_lwm2m\agenttiny.c ****     connection_t *connP;
 325:C:/Users/lenovo/Desktop/liteos/Project2/BearPi_LiteOS/components/connectivity/agent_tiny/atiny_lwm2m\agenttiny.c ****     lwm2m_context_t *contextP = phandle->lwm2m_context;
 326:C:/Users/lenovo/Desktop/liteos/Project2/BearPi_LiteOS/components/connectivity/agent_tiny/atiny_lwm2m\agenttiny.c ****     uint8_t *recv_buffer = phandle->recv_buffer;
 327:C:/Users/lenovo/Desktop/liteos/Project2/BearPi_LiteOS/components/connectivity/agent_tiny/atiny_lwm2m\agenttiny.c **** 
 328:C:/Users/lenovo/Desktop/liteos/Project2/BearPi_LiteOS/components/connectivity/agent_tiny/atiny_lwm2m\agenttiny.c ****     dataP = (client_data_t *)(contextP->userData);
 329:C:/Users/lenovo/Desktop/liteos/Project2/BearPi_LiteOS/components/connectivity/agent_tiny/atiny_lwm2m\agenttiny.c ****     connP = dataP->connList;
 330:C:/Users/lenovo/Desktop/liteos/Project2/BearPi_LiteOS/components/connectivity/agent_tiny/atiny_lwm2m\agenttiny.c **** 
 331:C:/Users/lenovo/Desktop/liteos/Project2/BearPi_LiteOS/components/connectivity/agent_tiny/atiny_lwm2m\agenttiny.c ****     while (connP != NULL)
 332:C:/Users/lenovo/Desktop/liteos/Project2/BearPi_LiteOS/components/connectivity/agent_tiny/atiny_lwm2m\agenttiny.c ****     {
 333:C:/Users/lenovo/Desktop/liteos/Project2/BearPi_LiteOS/components/connectivity/agent_tiny/atiny_lwm2m\agenttiny.c ****         numBytes = lwm2m_buffer_recv(connP, recv_buffer, MAX_PACKET_SIZE, *timeout);
 334:C:/Users/lenovo/Desktop/liteos/Project2/BearPi_LiteOS/components/connectivity/agent_tiny/atiny_lwm2m\agenttiny.c ****         if (numBytes <= 0)
 335:C:/Users/lenovo/Desktop/liteos/Project2/BearPi_LiteOS/components/connectivity/agent_tiny/atiny_lwm2m\agenttiny.c ****         {
 336:C:/Users/lenovo/Desktop/liteos/Project2/BearPi_LiteOS/components/connectivity/agent_tiny/atiny_lwm2m\agenttiny.c ****             ATINY_LOG(LOG_INFO, "no packet arrived!");
 337:C:/Users/lenovo/Desktop/liteos/Project2/BearPi_LiteOS/components/connectivity/agent_tiny/atiny_lwm2m\agenttiny.c ****         }
 338:C:/Users/lenovo/Desktop/liteos/Project2/BearPi_LiteOS/components/connectivity/agent_tiny/atiny_lwm2m\agenttiny.c ****         else
 339:C:/Users/lenovo/Desktop/liteos/Project2/BearPi_LiteOS/components/connectivity/agent_tiny/atiny_lwm2m\agenttiny.c ****         {
 340:C:/Users/lenovo/Desktop/liteos/Project2/BearPi_LiteOS/components/connectivity/agent_tiny/atiny_lwm2m\agenttiny.c ****             output_buffer(stderr, recv_buffer, numBytes, 0);
 341:C:/Users/lenovo/Desktop/liteos/Project2/BearPi_LiteOS/components/connectivity/agent_tiny/atiny_lwm2m\agenttiny.c ****             lwm2m_handle_packet(contextP, recv_buffer, numBytes, connP);
 342:C:/Users/lenovo/Desktop/liteos/Project2/BearPi_LiteOS/components/connectivity/agent_tiny/atiny_lwm2m\agenttiny.c ****         }
 343:C:/Users/lenovo/Desktop/liteos/Project2/BearPi_LiteOS/components/connectivity/agent_tiny/atiny_lwm2m\agenttiny.c ****         connP = connP->next;
 344:C:/Users/lenovo/Desktop/liteos/Project2/BearPi_LiteOS/components/connectivity/agent_tiny/atiny_lwm2m\agenttiny.c ****     }
 345:C:/Users/lenovo/Desktop/liteos/Project2/BearPi_LiteOS/components/connectivity/agent_tiny/atiny_lwm2m\agenttiny.c **** 
 346:C:/Users/lenovo/Desktop/liteos/Project2/BearPi_LiteOS/components/connectivity/agent_tiny/atiny_lwm2m\agenttiny.c ****     return ATINY_OK;
 347:C:/Users/lenovo/Desktop/liteos/Project2/BearPi_LiteOS/components/connectivity/agent_tiny/atiny_lwm2m\agenttiny.c **** }
 348:C:/Users/lenovo/Desktop/liteos/Project2/BearPi_LiteOS/components/connectivity/agent_tiny/atiny_lwm2m\agenttiny.c **** 
 349:C:/Users/lenovo/Desktop/liteos/Project2/BearPi_LiteOS/components/connectivity/agent_tiny/atiny_lwm2m\agenttiny.c **** void atiny_destroy(void *handle)
 350:C:/Users/lenovo/Desktop/liteos/Project2/BearPi_LiteOS/components/connectivity/agent_tiny/atiny_lwm2m\agenttiny.c **** {
 351:C:/Users/lenovo/Desktop/liteos/Project2/BearPi_LiteOS/components/connectivity/agent_tiny/atiny_lwm2m\agenttiny.c ****     handle_data_t *handle_data = (handle_data_t *)handle;
 352:C:/Users/lenovo/Desktop/liteos/Project2/BearPi_LiteOS/components/connectivity/agent_tiny/atiny_lwm2m\agenttiny.c **** 
 353:C:/Users/lenovo/Desktop/liteos/Project2/BearPi_LiteOS/components/connectivity/agent_tiny/atiny_lwm2m\agenttiny.c ****     if (handle_data == NULL)
 354:C:/Users/lenovo/Desktop/liteos/Project2/BearPi_LiteOS/components/connectivity/agent_tiny/atiny_lwm2m\agenttiny.c ****     {
 355:C:/Users/lenovo/Desktop/liteos/Project2/BearPi_LiteOS/components/connectivity/agent_tiny/atiny_lwm2m\agenttiny.c ****         return;
 356:C:/Users/lenovo/Desktop/liteos/Project2/BearPi_LiteOS/components/connectivity/agent_tiny/atiny_lwm2m\agenttiny.c ****     }
 357:C:/Users/lenovo/Desktop/liteos/Project2/BearPi_LiteOS/components/connectivity/agent_tiny/atiny_lwm2m\agenttiny.c **** #ifdef CONFIG_FEATURE_FOTA
 358:C:/Users/lenovo/Desktop/liteos/Project2/BearPi_LiteOS/components/connectivity/agent_tiny/atiny_lwm2m\agenttiny.c ****     atiny_fota_manager_destroy(atiny_fota_manager_get_instance());
 359:C:/Users/lenovo/Desktop/liteos/Project2/BearPi_LiteOS/components/connectivity/agent_tiny/atiny_lwm2m\agenttiny.c **** #endif
 360:C:/Users/lenovo/Desktop/liteos/Project2/BearPi_LiteOS/components/connectivity/agent_tiny/atiny_lwm2m\agenttiny.c ****     if(handle_data->recv_buffer != NULL)
 361:C:/Users/lenovo/Desktop/liteos/Project2/BearPi_LiteOS/components/connectivity/agent_tiny/atiny_lwm2m\agenttiny.c ****     {
 362:C:/Users/lenovo/Desktop/liteos/Project2/BearPi_LiteOS/components/connectivity/agent_tiny/atiny_lwm2m\agenttiny.c ****         lwm2m_free(handle_data->recv_buffer);
 363:C:/Users/lenovo/Desktop/liteos/Project2/BearPi_LiteOS/components/connectivity/agent_tiny/atiny_lwm2m\agenttiny.c ****     }
 364:C:/Users/lenovo/Desktop/liteos/Project2/BearPi_LiteOS/components/connectivity/agent_tiny/atiny_lwm2m\agenttiny.c ****     if (handle_data->obj_array[OBJ_SECURITY_INDEX] != NULL)
 365:C:/Users/lenovo/Desktop/liteos/Project2/BearPi_LiteOS/components/connectivity/agent_tiny/atiny_lwm2m\agenttiny.c ****     {
 366:C:/Users/lenovo/Desktop/liteos/Project2/BearPi_LiteOS/components/connectivity/agent_tiny/atiny_lwm2m\agenttiny.c ****         clean_security_object(handle_data->obj_array[OBJ_SECURITY_INDEX]);
 367:C:/Users/lenovo/Desktop/liteos/Project2/BearPi_LiteOS/components/connectivity/agent_tiny/atiny_lwm2m\agenttiny.c ****     }
 368:C:/Users/lenovo/Desktop/liteos/Project2/BearPi_LiteOS/components/connectivity/agent_tiny/atiny_lwm2m\agenttiny.c **** 
 369:C:/Users/lenovo/Desktop/liteos/Project2/BearPi_LiteOS/components/connectivity/agent_tiny/atiny_lwm2m\agenttiny.c ****     if (handle_data->obj_array[OBJ_SERVER_INDEX] != NULL)
 370:C:/Users/lenovo/Desktop/liteos/Project2/BearPi_LiteOS/components/connectivity/agent_tiny/atiny_lwm2m\agenttiny.c ****     {
 371:C:/Users/lenovo/Desktop/liteos/Project2/BearPi_LiteOS/components/connectivity/agent_tiny/atiny_lwm2m\agenttiny.c ****         clean_server_object(handle_data->obj_array[OBJ_SERVER_INDEX]);
 372:C:/Users/lenovo/Desktop/liteos/Project2/BearPi_LiteOS/components/connectivity/agent_tiny/atiny_lwm2m\agenttiny.c ****     }
 373:C:/Users/lenovo/Desktop/liteos/Project2/BearPi_LiteOS/components/connectivity/agent_tiny/atiny_lwm2m\agenttiny.c **** 
ARM GAS  c:\Users\lenovo\AppData\Local\Temp\ccDAYDpu.s 			page 8


 374:C:/Users/lenovo/Desktop/liteos/Project2/BearPi_LiteOS/components/connectivity/agent_tiny/atiny_lwm2m\agenttiny.c ****     if (handle_data->obj_array[OBJ_ACCESS_CONTROL_INDEX] != NULL)
 375:C:/Users/lenovo/Desktop/liteos/Project2/BearPi_LiteOS/components/connectivity/agent_tiny/atiny_lwm2m\agenttiny.c ****     {
 376:C:/Users/lenovo/Desktop/liteos/Project2/BearPi_LiteOS/components/connectivity/agent_tiny/atiny_lwm2m\agenttiny.c ****         acl_ctrl_free_object(handle_data->obj_array[OBJ_ACCESS_CONTROL_INDEX]);
 377:C:/Users/lenovo/Desktop/liteos/Project2/BearPi_LiteOS/components/connectivity/agent_tiny/atiny_lwm2m\agenttiny.c ****     }
 378:C:/Users/lenovo/Desktop/liteos/Project2/BearPi_LiteOS/components/connectivity/agent_tiny/atiny_lwm2m\agenttiny.c **** 
 379:C:/Users/lenovo/Desktop/liteos/Project2/BearPi_LiteOS/components/connectivity/agent_tiny/atiny_lwm2m\agenttiny.c ****     if (handle_data->obj_array[OBJ_DEVICE_INDEX] != NULL)
 380:C:/Users/lenovo/Desktop/liteos/Project2/BearPi_LiteOS/components/connectivity/agent_tiny/atiny_lwm2m\agenttiny.c ****     {
 381:C:/Users/lenovo/Desktop/liteos/Project2/BearPi_LiteOS/components/connectivity/agent_tiny/atiny_lwm2m\agenttiny.c ****         free_object_device(handle_data->obj_array[OBJ_DEVICE_INDEX]);
 382:C:/Users/lenovo/Desktop/liteos/Project2/BearPi_LiteOS/components/connectivity/agent_tiny/atiny_lwm2m\agenttiny.c ****     }
 383:C:/Users/lenovo/Desktop/liteos/Project2/BearPi_LiteOS/components/connectivity/agent_tiny/atiny_lwm2m\agenttiny.c **** 
 384:C:/Users/lenovo/Desktop/liteos/Project2/BearPi_LiteOS/components/connectivity/agent_tiny/atiny_lwm2m\agenttiny.c ****     if (handle_data->obj_array[OBJ_CONNECT_INDEX] != NULL)
 385:C:/Users/lenovo/Desktop/liteos/Project2/BearPi_LiteOS/components/connectivity/agent_tiny/atiny_lwm2m\agenttiny.c ****     {
 386:C:/Users/lenovo/Desktop/liteos/Project2/BearPi_LiteOS/components/connectivity/agent_tiny/atiny_lwm2m\agenttiny.c ****         free_object_conn_m(handle_data->obj_array[OBJ_CONNECT_INDEX]);
 387:C:/Users/lenovo/Desktop/liteos/Project2/BearPi_LiteOS/components/connectivity/agent_tiny/atiny_lwm2m\agenttiny.c ****     }
 388:C:/Users/lenovo/Desktop/liteos/Project2/BearPi_LiteOS/components/connectivity/agent_tiny/atiny_lwm2m\agenttiny.c **** 
 389:C:/Users/lenovo/Desktop/liteos/Project2/BearPi_LiteOS/components/connectivity/agent_tiny/atiny_lwm2m\agenttiny.c ****     if (handle_data->obj_array[OBJ_FIRMWARE_INDEX] != NULL)
 390:C:/Users/lenovo/Desktop/liteos/Project2/BearPi_LiteOS/components/connectivity/agent_tiny/atiny_lwm2m\agenttiny.c ****     {
 391:C:/Users/lenovo/Desktop/liteos/Project2/BearPi_LiteOS/components/connectivity/agent_tiny/atiny_lwm2m\agenttiny.c ****         free_object_firmware(handle_data->obj_array[OBJ_FIRMWARE_INDEX]);
 392:C:/Users/lenovo/Desktop/liteos/Project2/BearPi_LiteOS/components/connectivity/agent_tiny/atiny_lwm2m\agenttiny.c ****     }
 393:C:/Users/lenovo/Desktop/liteos/Project2/BearPi_LiteOS/components/connectivity/agent_tiny/atiny_lwm2m\agenttiny.c **** 
 394:C:/Users/lenovo/Desktop/liteos/Project2/BearPi_LiteOS/components/connectivity/agent_tiny/atiny_lwm2m\agenttiny.c ****     if (handle_data->obj_array[OBJ_LOCATION_INDEX] != NULL)
 395:C:/Users/lenovo/Desktop/liteos/Project2/BearPi_LiteOS/components/connectivity/agent_tiny/atiny_lwm2m\agenttiny.c ****     {
 396:C:/Users/lenovo/Desktop/liteos/Project2/BearPi_LiteOS/components/connectivity/agent_tiny/atiny_lwm2m\agenttiny.c ****         free_object_location(handle_data->obj_array[OBJ_LOCATION_INDEX]);
 397:C:/Users/lenovo/Desktop/liteos/Project2/BearPi_LiteOS/components/connectivity/agent_tiny/atiny_lwm2m\agenttiny.c ****     }
 398:C:/Users/lenovo/Desktop/liteos/Project2/BearPi_LiteOS/components/connectivity/agent_tiny/atiny_lwm2m\agenttiny.c **** 
 399:C:/Users/lenovo/Desktop/liteos/Project2/BearPi_LiteOS/components/connectivity/agent_tiny/atiny_lwm2m\agenttiny.c ****     if (handle_data->obj_array[OBJ_APP_INDEX] != NULL)
 400:C:/Users/lenovo/Desktop/liteos/Project2/BearPi_LiteOS/components/connectivity/agent_tiny/atiny_lwm2m\agenttiny.c ****     {
 401:C:/Users/lenovo/Desktop/liteos/Project2/BearPi_LiteOS/components/connectivity/agent_tiny/atiny_lwm2m\agenttiny.c ****         free_binary_app_data_object(handle_data->obj_array[OBJ_APP_INDEX]);
 402:C:/Users/lenovo/Desktop/liteos/Project2/BearPi_LiteOS/components/connectivity/agent_tiny/atiny_lwm2m\agenttiny.c ****     }
 403:C:/Users/lenovo/Desktop/liteos/Project2/BearPi_LiteOS/components/connectivity/agent_tiny/atiny_lwm2m\agenttiny.c ****     atiny_destroy_rpt();
 404:C:/Users/lenovo/Desktop/liteos/Project2/BearPi_LiteOS/components/connectivity/agent_tiny/atiny_lwm2m\agenttiny.c **** 
 405:C:/Users/lenovo/Desktop/liteos/Project2/BearPi_LiteOS/components/connectivity/agent_tiny/atiny_lwm2m\agenttiny.c ****     if (handle_data->lwm2m_context != NULL)
 406:C:/Users/lenovo/Desktop/liteos/Project2/BearPi_LiteOS/components/connectivity/agent_tiny/atiny_lwm2m\agenttiny.c ****     {
 407:C:/Users/lenovo/Desktop/liteos/Project2/BearPi_LiteOS/components/connectivity/agent_tiny/atiny_lwm2m\agenttiny.c ****         if (handle_data->lwm2m_context->observe_mutex != NULL)
 408:C:/Users/lenovo/Desktop/liteos/Project2/BearPi_LiteOS/components/connectivity/agent_tiny/atiny_lwm2m\agenttiny.c ****         {
 409:C:/Users/lenovo/Desktop/liteos/Project2/BearPi_LiteOS/components/connectivity/agent_tiny/atiny_lwm2m\agenttiny.c ****             atiny_mutex_destroy(handle_data->lwm2m_context->observe_mutex);
 410:C:/Users/lenovo/Desktop/liteos/Project2/BearPi_LiteOS/components/connectivity/agent_tiny/atiny_lwm2m\agenttiny.c ****         }
 411:C:/Users/lenovo/Desktop/liteos/Project2/BearPi_LiteOS/components/connectivity/agent_tiny/atiny_lwm2m\agenttiny.c ****         lwm2m_close(handle_data->lwm2m_context);
 412:C:/Users/lenovo/Desktop/liteos/Project2/BearPi_LiteOS/components/connectivity/agent_tiny/atiny_lwm2m\agenttiny.c ****     }
 413:C:/Users/lenovo/Desktop/liteos/Project2/BearPi_LiteOS/components/connectivity/agent_tiny/atiny_lwm2m\agenttiny.c ****     atiny_mutex_unlock(handle_data->quit_sem);
 414:C:/Users/lenovo/Desktop/liteos/Project2/BearPi_LiteOS/components/connectivity/agent_tiny/atiny_lwm2m\agenttiny.c **** }
 415:C:/Users/lenovo/Desktop/liteos/Project2/BearPi_LiteOS/components/connectivity/agent_tiny/atiny_lwm2m\agenttiny.c **** 
 416:C:/Users/lenovo/Desktop/liteos/Project2/BearPi_LiteOS/components/connectivity/agent_tiny/atiny_lwm2m\agenttiny.c **** void atiny_event_handle(module_type_t type, int code, const char *arg, int arg_len)
 417:C:/Users/lenovo/Desktop/liteos/Project2/BearPi_LiteOS/components/connectivity/agent_tiny/atiny_lwm2m\agenttiny.c **** {
 418:C:/Users/lenovo/Desktop/liteos/Project2/BearPi_LiteOS/components/connectivity/agent_tiny/atiny_lwm2m\agenttiny.c ****     switch (type)
 419:C:/Users/lenovo/Desktop/liteos/Project2/BearPi_LiteOS/components/connectivity/agent_tiny/atiny_lwm2m\agenttiny.c ****     {
 420:C:/Users/lenovo/Desktop/liteos/Project2/BearPi_LiteOS/components/connectivity/agent_tiny/atiny_lwm2m\agenttiny.c ****     case MODULE_LWM2M:
 421:C:/Users/lenovo/Desktop/liteos/Project2/BearPi_LiteOS/components/connectivity/agent_tiny/atiny_lwm2m\agenttiny.c ****     {
 422:C:/Users/lenovo/Desktop/liteos/Project2/BearPi_LiteOS/components/connectivity/agent_tiny/atiny_lwm2m\agenttiny.c ****         if (code == STATE_REGISTERED)
 423:C:/Users/lenovo/Desktop/liteos/Project2/BearPi_LiteOS/components/connectivity/agent_tiny/atiny_lwm2m\agenttiny.c ****         {
 424:C:/Users/lenovo/Desktop/liteos/Project2/BearPi_LiteOS/components/connectivity/agent_tiny/atiny_lwm2m\agenttiny.c ****             atiny_event_notify(ATINY_REG_OK, NULL, 0);
 425:C:/Users/lenovo/Desktop/liteos/Project2/BearPi_LiteOS/components/connectivity/agent_tiny/atiny_lwm2m\agenttiny.c **** #ifdef CONFIG_FEATURE_FOTA
 426:C:/Users/lenovo/Desktop/liteos/Project2/BearPi_LiteOS/components/connectivity/agent_tiny/atiny_lwm2m\agenttiny.c ****             (void)atiny_fota_manager_repot_result(atiny_fota_manager_get_instance());
 427:C:/Users/lenovo/Desktop/liteos/Project2/BearPi_LiteOS/components/connectivity/agent_tiny/atiny_lwm2m\agenttiny.c **** #endif
 428:C:/Users/lenovo/Desktop/liteos/Project2/BearPi_LiteOS/components/connectivity/agent_tiny/atiny_lwm2m\agenttiny.c ****         }
 429:C:/Users/lenovo/Desktop/liteos/Project2/BearPi_LiteOS/components/connectivity/agent_tiny/atiny_lwm2m\agenttiny.c ****         else if (code == STATE_REG_FAILED)
 430:C:/Users/lenovo/Desktop/liteos/Project2/BearPi_LiteOS/components/connectivity/agent_tiny/atiny_lwm2m\agenttiny.c ****         {
ARM GAS  c:\Users\lenovo\AppData\Local\Temp\ccDAYDpu.s 			page 9


 431:C:/Users/lenovo/Desktop/liteos/Project2/BearPi_LiteOS/components/connectivity/agent_tiny/atiny_lwm2m\agenttiny.c ****             atiny_event_notify(ATINY_REG_FAIL, NULL, 0);
 432:C:/Users/lenovo/Desktop/liteos/Project2/BearPi_LiteOS/components/connectivity/agent_tiny/atiny_lwm2m\agenttiny.c **** 
 433:C:/Users/lenovo/Desktop/liteos/Project2/BearPi_LiteOS/components/connectivity/agent_tiny/atiny_lwm2m\agenttiny.c ****         }
 434:C:/Users/lenovo/Desktop/liteos/Project2/BearPi_LiteOS/components/connectivity/agent_tiny/atiny_lwm2m\agenttiny.c ****         break;
 435:C:/Users/lenovo/Desktop/liteos/Project2/BearPi_LiteOS/components/connectivity/agent_tiny/atiny_lwm2m\agenttiny.c ****     }
 436:C:/Users/lenovo/Desktop/liteos/Project2/BearPi_LiteOS/components/connectivity/agent_tiny/atiny_lwm2m\agenttiny.c ****     case MODULE_NET:
 437:C:/Users/lenovo/Desktop/liteos/Project2/BearPi_LiteOS/components/connectivity/agent_tiny/atiny_lwm2m\agenttiny.c ****     {
 438:C:/Users/lenovo/Desktop/liteos/Project2/BearPi_LiteOS/components/connectivity/agent_tiny/atiny_lwm2m\agenttiny.c ****         break;
 439:C:/Users/lenovo/Desktop/liteos/Project2/BearPi_LiteOS/components/connectivity/agent_tiny/atiny_lwm2m\agenttiny.c ****     }
 440:C:/Users/lenovo/Desktop/liteos/Project2/BearPi_LiteOS/components/connectivity/agent_tiny/atiny_lwm2m\agenttiny.c ****     case MODULE_URI:
 441:C:/Users/lenovo/Desktop/liteos/Project2/BearPi_LiteOS/components/connectivity/agent_tiny/atiny_lwm2m\agenttiny.c ****     {
 442:C:/Users/lenovo/Desktop/liteos/Project2/BearPi_LiteOS/components/connectivity/agent_tiny/atiny_lwm2m\agenttiny.c ****         if ((arg == NULL) || (arg_len < sizeof(lwm2m_uri_t)))
 443:C:/Users/lenovo/Desktop/liteos/Project2/BearPi_LiteOS/components/connectivity/agent_tiny/atiny_lwm2m\agenttiny.c ****         {
 444:C:/Users/lenovo/Desktop/liteos/Project2/BearPi_LiteOS/components/connectivity/agent_tiny/atiny_lwm2m\agenttiny.c ****             break;
 445:C:/Users/lenovo/Desktop/liteos/Project2/BearPi_LiteOS/components/connectivity/agent_tiny/atiny_lwm2m\agenttiny.c ****         }
 446:C:/Users/lenovo/Desktop/liteos/Project2/BearPi_LiteOS/components/connectivity/agent_tiny/atiny_lwm2m\agenttiny.c **** 
 447:C:/Users/lenovo/Desktop/liteos/Project2/BearPi_LiteOS/components/connectivity/agent_tiny/atiny_lwm2m\agenttiny.c ****         if (code == OBSERVE_UNSUBSCRIBE)
 448:C:/Users/lenovo/Desktop/liteos/Project2/BearPi_LiteOS/components/connectivity/agent_tiny/atiny_lwm2m\agenttiny.c ****         {
 449:C:/Users/lenovo/Desktop/liteos/Project2/BearPi_LiteOS/components/connectivity/agent_tiny/atiny_lwm2m\agenttiny.c ****             if (dm_isUriOpaqueHandle((lwm2m_uri_t *)arg))
 450:C:/Users/lenovo/Desktop/liteos/Project2/BearPi_LiteOS/components/connectivity/agent_tiny/atiny_lwm2m\agenttiny.c ****             {
 451:C:/Users/lenovo/Desktop/liteos/Project2/BearPi_LiteOS/components/connectivity/agent_tiny/atiny_lwm2m\agenttiny.c ****                 atiny_report_type_e rpt_type = APP_DATA;
 452:C:/Users/lenovo/Desktop/liteos/Project2/BearPi_LiteOS/components/connectivity/agent_tiny/atiny_lwm2m\agenttiny.c ****                 atiny_event_notify(ATINY_DATA_UNSUBSCRIBLE, (char *)&rpt_type, sizeof(rpt_type));
 453:C:/Users/lenovo/Desktop/liteos/Project2/BearPi_LiteOS/components/connectivity/agent_tiny/atiny_lwm2m\agenttiny.c ****             }
 454:C:/Users/lenovo/Desktop/liteos/Project2/BearPi_LiteOS/components/connectivity/agent_tiny/atiny_lwm2m\agenttiny.c ****             (void)atiny_clear_rpt_data((lwm2m_uri_t *)arg, SENT_FAIL);
 455:C:/Users/lenovo/Desktop/liteos/Project2/BearPi_LiteOS/components/connectivity/agent_tiny/atiny_lwm2m\agenttiny.c ****         }
 456:C:/Users/lenovo/Desktop/liteos/Project2/BearPi_LiteOS/components/connectivity/agent_tiny/atiny_lwm2m\agenttiny.c ****         else if (code == OBSERVE_SUBSCRIBE)
 457:C:/Users/lenovo/Desktop/liteos/Project2/BearPi_LiteOS/components/connectivity/agent_tiny/atiny_lwm2m\agenttiny.c ****         {
 458:C:/Users/lenovo/Desktop/liteos/Project2/BearPi_LiteOS/components/connectivity/agent_tiny/atiny_lwm2m\agenttiny.c ****             if (dm_isUriOpaqueHandle((lwm2m_uri_t *)arg))
 459:C:/Users/lenovo/Desktop/liteos/Project2/BearPi_LiteOS/components/connectivity/agent_tiny/atiny_lwm2m\agenttiny.c ****             {
 460:C:/Users/lenovo/Desktop/liteos/Project2/BearPi_LiteOS/components/connectivity/agent_tiny/atiny_lwm2m\agenttiny.c ****                 atiny_report_type_e rpt_type = APP_DATA;
 461:C:/Users/lenovo/Desktop/liteos/Project2/BearPi_LiteOS/components/connectivity/agent_tiny/atiny_lwm2m\agenttiny.c ****                 atiny_event_notify(ATINY_DATA_SUBSCRIBLE, (char *)&rpt_type, sizeof(rpt_type));
 462:C:/Users/lenovo/Desktop/liteos/Project2/BearPi_LiteOS/components/connectivity/agent_tiny/atiny_lwm2m\agenttiny.c ****             }
 463:C:/Users/lenovo/Desktop/liteos/Project2/BearPi_LiteOS/components/connectivity/agent_tiny/atiny_lwm2m\agenttiny.c ****         }
 464:C:/Users/lenovo/Desktop/liteos/Project2/BearPi_LiteOS/components/connectivity/agent_tiny/atiny_lwm2m\agenttiny.c **** 
 465:C:/Users/lenovo/Desktop/liteos/Project2/BearPi_LiteOS/components/connectivity/agent_tiny/atiny_lwm2m\agenttiny.c ****         break;
 466:C:/Users/lenovo/Desktop/liteos/Project2/BearPi_LiteOS/components/connectivity/agent_tiny/atiny_lwm2m\agenttiny.c ****     }
 467:C:/Users/lenovo/Desktop/liteos/Project2/BearPi_LiteOS/components/connectivity/agent_tiny/atiny_lwm2m\agenttiny.c ****     default:
 468:C:/Users/lenovo/Desktop/liteos/Project2/BearPi_LiteOS/components/connectivity/agent_tiny/atiny_lwm2m\agenttiny.c ****     {
 469:C:/Users/lenovo/Desktop/liteos/Project2/BearPi_LiteOS/components/connectivity/agent_tiny/atiny_lwm2m\agenttiny.c ****         break;
 470:C:/Users/lenovo/Desktop/liteos/Project2/BearPi_LiteOS/components/connectivity/agent_tiny/atiny_lwm2m\agenttiny.c ****     }
 471:C:/Users/lenovo/Desktop/liteos/Project2/BearPi_LiteOS/components/connectivity/agent_tiny/atiny_lwm2m\agenttiny.c ****     }
 472:C:/Users/lenovo/Desktop/liteos/Project2/BearPi_LiteOS/components/connectivity/agent_tiny/atiny_lwm2m\agenttiny.c **** 
 473:C:/Users/lenovo/Desktop/liteos/Project2/BearPi_LiteOS/components/connectivity/agent_tiny/atiny_lwm2m\agenttiny.c **** }
 474:C:/Users/lenovo/Desktop/liteos/Project2/BearPi_LiteOS/components/connectivity/agent_tiny/atiny_lwm2m\agenttiny.c **** 
 475:C:/Users/lenovo/Desktop/liteos/Project2/BearPi_LiteOS/components/connectivity/agent_tiny/atiny_lwm2m\agenttiny.c **** void reboot_check(void)
 476:C:/Users/lenovo/Desktop/liteos/Project2/BearPi_LiteOS/components/connectivity/agent_tiny/atiny_lwm2m\agenttiny.c **** {
 477:C:/Users/lenovo/Desktop/liteos/Project2/BearPi_LiteOS/components/connectivity/agent_tiny/atiny_lwm2m\agenttiny.c ****     if(g_reboot == 1)
 478:C:/Users/lenovo/Desktop/liteos/Project2/BearPi_LiteOS/components/connectivity/agent_tiny/atiny_lwm2m\agenttiny.c ****     {
 479:C:/Users/lenovo/Desktop/liteos/Project2/BearPi_LiteOS/components/connectivity/agent_tiny/atiny_lwm2m\agenttiny.c ****         (void)atiny_cmd_ioctl(ATINY_DO_DEV_REBOOT, NULL, 0);
 480:C:/Users/lenovo/Desktop/liteos/Project2/BearPi_LiteOS/components/connectivity/agent_tiny/atiny_lwm2m\agenttiny.c ****     }
 481:C:/Users/lenovo/Desktop/liteos/Project2/BearPi_LiteOS/components/connectivity/agent_tiny/atiny_lwm2m\agenttiny.c **** }
 482:C:/Users/lenovo/Desktop/liteos/Project2/BearPi_LiteOS/components/connectivity/agent_tiny/atiny_lwm2m\agenttiny.c **** 
 483:C:/Users/lenovo/Desktop/liteos/Project2/BearPi_LiteOS/components/connectivity/agent_tiny/atiny_lwm2m\agenttiny.c **** static void atiny_connection_err_notify(lwm2m_context_t *context, connection_err_e err_type, bool b
 484:C:/Users/lenovo/Desktop/liteos/Project2/BearPi_LiteOS/components/connectivity/agent_tiny/atiny_lwm2m\agenttiny.c **** {
 485:C:/Users/lenovo/Desktop/liteos/Project2/BearPi_LiteOS/components/connectivity/agent_tiny/atiny_lwm2m\agenttiny.c ****     handle_data_t *handle = NULL;
 486:C:/Users/lenovo/Desktop/liteos/Project2/BearPi_LiteOS/components/connectivity/agent_tiny/atiny_lwm2m\agenttiny.c **** 
 487:C:/Users/lenovo/Desktop/liteos/Project2/BearPi_LiteOS/components/connectivity/agent_tiny/atiny_lwm2m\agenttiny.c ****     if((NULL == context) || (NULL == context->userData))
ARM GAS  c:\Users\lenovo\AppData\Local\Temp\ccDAYDpu.s 			page 10


 488:C:/Users/lenovo/Desktop/liteos/Project2/BearPi_LiteOS/components/connectivity/agent_tiny/atiny_lwm2m\agenttiny.c ****     {
 489:C:/Users/lenovo/Desktop/liteos/Project2/BearPi_LiteOS/components/connectivity/agent_tiny/atiny_lwm2m\agenttiny.c ****         ATINY_LOG(LOG_ERR, "null point");
 490:C:/Users/lenovo/Desktop/liteos/Project2/BearPi_LiteOS/components/connectivity/agent_tiny/atiny_lwm2m\agenttiny.c ****         return;
 491:C:/Users/lenovo/Desktop/liteos/Project2/BearPi_LiteOS/components/connectivity/agent_tiny/atiny_lwm2m\agenttiny.c ****     }
 492:C:/Users/lenovo/Desktop/liteos/Project2/BearPi_LiteOS/components/connectivity/agent_tiny/atiny_lwm2m\agenttiny.c **** 
 493:C:/Users/lenovo/Desktop/liteos/Project2/BearPi_LiteOS/components/connectivity/agent_tiny/atiny_lwm2m\agenttiny.c ****     if(!boostrap_flag)
 494:C:/Users/lenovo/Desktop/liteos/Project2/BearPi_LiteOS/components/connectivity/agent_tiny/atiny_lwm2m\agenttiny.c ****     {
 495:C:/Users/lenovo/Desktop/liteos/Project2/BearPi_LiteOS/components/connectivity/agent_tiny/atiny_lwm2m\agenttiny.c ****         handle = ATINY_FIELD_TO_STRUCT(context->userData, handle_data_t, client_data);
 496:C:/Users/lenovo/Desktop/liteos/Project2/BearPi_LiteOS/components/connectivity/agent_tiny/atiny_lwm2m\agenttiny.c ****         (void)atiny_reconnect(handle);
 497:C:/Users/lenovo/Desktop/liteos/Project2/BearPi_LiteOS/components/connectivity/agent_tiny/atiny_lwm2m\agenttiny.c ****     }
 498:C:/Users/lenovo/Desktop/liteos/Project2/BearPi_LiteOS/components/connectivity/agent_tiny/atiny_lwm2m\agenttiny.c ****     ATINY_LOG(LOG_INFO, "connection err type %d bootstrap %d", err_type, boostrap_flag);
 499:C:/Users/lenovo/Desktop/liteos/Project2/BearPi_LiteOS/components/connectivity/agent_tiny/atiny_lwm2m\agenttiny.c **** }
 500:C:/Users/lenovo/Desktop/liteos/Project2/BearPi_LiteOS/components/connectivity/agent_tiny/atiny_lwm2m\agenttiny.c **** 
 501:C:/Users/lenovo/Desktop/liteos/Project2/BearPi_LiteOS/components/connectivity/agent_tiny/atiny_lwm2m\agenttiny.c **** 
 502:C:/Users/lenovo/Desktop/liteos/Project2/BearPi_LiteOS/components/connectivity/agent_tiny/atiny_lwm2m\agenttiny.c **** static void atiny_handle_reconnect(handle_data_t *handle)
 503:C:/Users/lenovo/Desktop/liteos/Project2/BearPi_LiteOS/components/connectivity/agent_tiny/atiny_lwm2m\agenttiny.c **** {
 504:C:/Users/lenovo/Desktop/liteos/Project2/BearPi_LiteOS/components/connectivity/agent_tiny/atiny_lwm2m\agenttiny.c ****     if(handle->reconnect_flag)
 505:C:/Users/lenovo/Desktop/liteos/Project2/BearPi_LiteOS/components/connectivity/agent_tiny/atiny_lwm2m\agenttiny.c ****     {
 506:C:/Users/lenovo/Desktop/liteos/Project2/BearPi_LiteOS/components/connectivity/agent_tiny/atiny_lwm2m\agenttiny.c ****         (void)lwm2m_reconnect(handle->lwm2m_context);
 507:C:/Users/lenovo/Desktop/liteos/Project2/BearPi_LiteOS/components/connectivity/agent_tiny/atiny_lwm2m\agenttiny.c ****         handle->reconnect_flag = false;
 508:C:/Users/lenovo/Desktop/liteos/Project2/BearPi_LiteOS/components/connectivity/agent_tiny/atiny_lwm2m\agenttiny.c ****         ATINY_LOG(LOG_INFO, "lwm2m reconnect");
 509:C:/Users/lenovo/Desktop/liteos/Project2/BearPi_LiteOS/components/connectivity/agent_tiny/atiny_lwm2m\agenttiny.c ****     }
 510:C:/Users/lenovo/Desktop/liteos/Project2/BearPi_LiteOS/components/connectivity/agent_tiny/atiny_lwm2m\agenttiny.c **** }
 511:C:/Users/lenovo/Desktop/liteos/Project2/BearPi_LiteOS/components/connectivity/agent_tiny/atiny_lwm2m\agenttiny.c **** 
 512:C:/Users/lenovo/Desktop/liteos/Project2/BearPi_LiteOS/components/connectivity/agent_tiny/atiny_lwm2m\agenttiny.c **** int atiny_bind(atiny_device_info_t *device_info, void *phandle)
 513:C:/Users/lenovo/Desktop/liteos/Project2/BearPi_LiteOS/components/connectivity/agent_tiny/atiny_lwm2m\agenttiny.c **** {
 514:C:/Users/lenovo/Desktop/liteos/Project2/BearPi_LiteOS/components/connectivity/agent_tiny/atiny_lwm2m\agenttiny.c ****     handle_data_t *handle = (handle_data_t *)phandle;
 515:C:/Users/lenovo/Desktop/liteos/Project2/BearPi_LiteOS/components/connectivity/agent_tiny/atiny_lwm2m\agenttiny.c ****     uint32_t timeout;
 516:C:/Users/lenovo/Desktop/liteos/Project2/BearPi_LiteOS/components/connectivity/agent_tiny/atiny_lwm2m\agenttiny.c ****     int ret;
 517:C:/Users/lenovo/Desktop/liteos/Project2/BearPi_LiteOS/components/connectivity/agent_tiny/atiny_lwm2m\agenttiny.c **** 
 518:C:/Users/lenovo/Desktop/liteos/Project2/BearPi_LiteOS/components/connectivity/agent_tiny/atiny_lwm2m\agenttiny.c ****     if ((NULL == device_info) || (NULL == phandle))
 519:C:/Users/lenovo/Desktop/liteos/Project2/BearPi_LiteOS/components/connectivity/agent_tiny/atiny_lwm2m\agenttiny.c ****     {
 520:C:/Users/lenovo/Desktop/liteos/Project2/BearPi_LiteOS/components/connectivity/agent_tiny/atiny_lwm2m\agenttiny.c ****         ATINY_LOG(LOG_FATAL, "Parameter null");
 521:C:/Users/lenovo/Desktop/liteos/Project2/BearPi_LiteOS/components/connectivity/agent_tiny/atiny_lwm2m\agenttiny.c ****         atiny_deinit(phandle);
 522:C:/Users/lenovo/Desktop/liteos/Project2/BearPi_LiteOS/components/connectivity/agent_tiny/atiny_lwm2m\agenttiny.c ****         return ATINY_ARG_INVALID;
 523:C:/Users/lenovo/Desktop/liteos/Project2/BearPi_LiteOS/components/connectivity/agent_tiny/atiny_lwm2m\agenttiny.c ****     }
 524:C:/Users/lenovo/Desktop/liteos/Project2/BearPi_LiteOS/components/connectivity/agent_tiny/atiny_lwm2m\agenttiny.c **** 
 525:C:/Users/lenovo/Desktop/liteos/Project2/BearPi_LiteOS/components/connectivity/agent_tiny/atiny_lwm2m\agenttiny.c ****     if (NULL == device_info->endpoint_name)
 526:C:/Users/lenovo/Desktop/liteos/Project2/BearPi_LiteOS/components/connectivity/agent_tiny/atiny_lwm2m\agenttiny.c ****     {
 527:C:/Users/lenovo/Desktop/liteos/Project2/BearPi_LiteOS/components/connectivity/agent_tiny/atiny_lwm2m\agenttiny.c ****         ATINY_LOG(LOG_FATAL, "Endpoint name null");
 528:C:/Users/lenovo/Desktop/liteos/Project2/BearPi_LiteOS/components/connectivity/agent_tiny/atiny_lwm2m\agenttiny.c ****         atiny_deinit(phandle);
 529:C:/Users/lenovo/Desktop/liteos/Project2/BearPi_LiteOS/components/connectivity/agent_tiny/atiny_lwm2m\agenttiny.c ****         return ATINY_ARG_INVALID;
 530:C:/Users/lenovo/Desktop/liteos/Project2/BearPi_LiteOS/components/connectivity/agent_tiny/atiny_lwm2m\agenttiny.c ****     }
 531:C:/Users/lenovo/Desktop/liteos/Project2/BearPi_LiteOS/components/connectivity/agent_tiny/atiny_lwm2m\agenttiny.c **** 
 532:C:/Users/lenovo/Desktop/liteos/Project2/BearPi_LiteOS/components/connectivity/agent_tiny/atiny_lwm2m\agenttiny.c ****     if (NULL == device_info->manufacturer)
 533:C:/Users/lenovo/Desktop/liteos/Project2/BearPi_LiteOS/components/connectivity/agent_tiny/atiny_lwm2m\agenttiny.c ****     {
 534:C:/Users/lenovo/Desktop/liteos/Project2/BearPi_LiteOS/components/connectivity/agent_tiny/atiny_lwm2m\agenttiny.c ****         ATINY_LOG(LOG_FATAL, "Manufacturer name null");
 535:C:/Users/lenovo/Desktop/liteos/Project2/BearPi_LiteOS/components/connectivity/agent_tiny/atiny_lwm2m\agenttiny.c ****         atiny_deinit(phandle);
 536:C:/Users/lenovo/Desktop/liteos/Project2/BearPi_LiteOS/components/connectivity/agent_tiny/atiny_lwm2m\agenttiny.c ****         return ATINY_ARG_INVALID;
 537:C:/Users/lenovo/Desktop/liteos/Project2/BearPi_LiteOS/components/connectivity/agent_tiny/atiny_lwm2m\agenttiny.c ****     }
 538:C:/Users/lenovo/Desktop/liteos/Project2/BearPi_LiteOS/components/connectivity/agent_tiny/atiny_lwm2m\agenttiny.c **** 
 539:C:/Users/lenovo/Desktop/liteos/Project2/BearPi_LiteOS/components/connectivity/agent_tiny/atiny_lwm2m\agenttiny.c ****     ret = atiny_init_objects(&handle->atiny_params, device_info, handle);
 540:C:/Users/lenovo/Desktop/liteos/Project2/BearPi_LiteOS/components/connectivity/agent_tiny/atiny_lwm2m\agenttiny.c ****     if (ret != ATINY_OK)
 541:C:/Users/lenovo/Desktop/liteos/Project2/BearPi_LiteOS/components/connectivity/agent_tiny/atiny_lwm2m\agenttiny.c ****     {
 542:C:/Users/lenovo/Desktop/liteos/Project2/BearPi_LiteOS/components/connectivity/agent_tiny/atiny_lwm2m\agenttiny.c ****         ATINY_LOG(LOG_FATAL, "atiny_init_object fail %d", ret);
 543:C:/Users/lenovo/Desktop/liteos/Project2/BearPi_LiteOS/components/connectivity/agent_tiny/atiny_lwm2m\agenttiny.c ****         atiny_destroy(handle);
 544:C:/Users/lenovo/Desktop/liteos/Project2/BearPi_LiteOS/components/connectivity/agent_tiny/atiny_lwm2m\agenttiny.c ****         return ret;
ARM GAS  c:\Users\lenovo\AppData\Local\Temp\ccDAYDpu.s 			page 11


 545:C:/Users/lenovo/Desktop/liteos/Project2/BearPi_LiteOS/components/connectivity/agent_tiny/atiny_lwm2m\agenttiny.c ****     }
 546:C:/Users/lenovo/Desktop/liteos/Project2/BearPi_LiteOS/components/connectivity/agent_tiny/atiny_lwm2m\agenttiny.c **** #ifdef CONFIG_FEATURE_FOTA
 547:C:/Users/lenovo/Desktop/liteos/Project2/BearPi_LiteOS/components/connectivity/agent_tiny/atiny_lwm2m\agenttiny.c ****     (void)atiny_fota_manager_set_lwm2m_context(atiny_fota_manager_get_instance(), handle->lwm2m_con
 548:C:/Users/lenovo/Desktop/liteos/Project2/BearPi_LiteOS/components/connectivity/agent_tiny/atiny_lwm2m\agenttiny.c **** #endif
 549:C:/Users/lenovo/Desktop/liteos/Project2/BearPi_LiteOS/components/connectivity/agent_tiny/atiny_lwm2m\agenttiny.c ****     lwm2m_register_observe_ack_call_back(observe_handle_ack);
 550:C:/Users/lenovo/Desktop/liteos/Project2/BearPi_LiteOS/components/connectivity/agent_tiny/atiny_lwm2m\agenttiny.c ****     lwm2m_register_event_handler(atiny_event_handle);
 551:C:/Users/lenovo/Desktop/liteos/Project2/BearPi_LiteOS/components/connectivity/agent_tiny/atiny_lwm2m\agenttiny.c ****     lwm2m_register_connection_err_notify(atiny_connection_err_notify);
 552:C:/Users/lenovo/Desktop/liteos/Project2/BearPi_LiteOS/components/connectivity/agent_tiny/atiny_lwm2m\agenttiny.c **** 
 553:C:/Users/lenovo/Desktop/liteos/Project2/BearPi_LiteOS/components/connectivity/agent_tiny/atiny_lwm2m\agenttiny.c ****     handle->recv_buffer = (uint8_t *)lwm2m_malloc(MAX_PACKET_SIZE);
 554:C:/Users/lenovo/Desktop/liteos/Project2/BearPi_LiteOS/components/connectivity/agent_tiny/atiny_lwm2m\agenttiny.c ****     if(handle->recv_buffer == NULL)
 555:C:/Users/lenovo/Desktop/liteos/Project2/BearPi_LiteOS/components/connectivity/agent_tiny/atiny_lwm2m\agenttiny.c ****     {
 556:C:/Users/lenovo/Desktop/liteos/Project2/BearPi_LiteOS/components/connectivity/agent_tiny/atiny_lwm2m\agenttiny.c ****         ATINY_LOG(LOG_FATAL, "memory not enough");
 557:C:/Users/lenovo/Desktop/liteos/Project2/BearPi_LiteOS/components/connectivity/agent_tiny/atiny_lwm2m\agenttiny.c ****         return ATINY_MALLOC_FAILED;
 558:C:/Users/lenovo/Desktop/liteos/Project2/BearPi_LiteOS/components/connectivity/agent_tiny/atiny_lwm2m\agenttiny.c ****     }
 559:C:/Users/lenovo/Desktop/liteos/Project2/BearPi_LiteOS/components/connectivity/agent_tiny/atiny_lwm2m\agenttiny.c **** 
 560:C:/Users/lenovo/Desktop/liteos/Project2/BearPi_LiteOS/components/connectivity/agent_tiny/atiny_lwm2m\agenttiny.c ****     while (!handle->atiny_quit)
 561:C:/Users/lenovo/Desktop/liteos/Project2/BearPi_LiteOS/components/connectivity/agent_tiny/atiny_lwm2m\agenttiny.c ****     {
 562:C:/Users/lenovo/Desktop/liteos/Project2/BearPi_LiteOS/components/connectivity/agent_tiny/atiny_lwm2m\agenttiny.c ****         timeout = BIND_TIMEOUT;
 563:C:/Users/lenovo/Desktop/liteos/Project2/BearPi_LiteOS/components/connectivity/agent_tiny/atiny_lwm2m\agenttiny.c **** 
 564:C:/Users/lenovo/Desktop/liteos/Project2/BearPi_LiteOS/components/connectivity/agent_tiny/atiny_lwm2m\agenttiny.c ****         (void)atiny_step_rpt(handle->lwm2m_context);
 565:C:/Users/lenovo/Desktop/liteos/Project2/BearPi_LiteOS/components/connectivity/agent_tiny/atiny_lwm2m\agenttiny.c ****         atiny_handle_reconnect(handle);
 566:C:/Users/lenovo/Desktop/liteos/Project2/BearPi_LiteOS/components/connectivity/agent_tiny/atiny_lwm2m\agenttiny.c ****         (void)lwm2m_step(handle->lwm2m_context, (time_t *)&timeout);
 567:C:/Users/lenovo/Desktop/liteos/Project2/BearPi_LiteOS/components/connectivity/agent_tiny/atiny_lwm2m\agenttiny.c ****         reboot_check();
 568:C:/Users/lenovo/Desktop/liteos/Project2/BearPi_LiteOS/components/connectivity/agent_tiny/atiny_lwm2m\agenttiny.c ****         (void)lwm2m_poll(handle, &timeout);
 569:C:/Users/lenovo/Desktop/liteos/Project2/BearPi_LiteOS/components/connectivity/agent_tiny/atiny_lwm2m\agenttiny.c ****     }
 570:C:/Users/lenovo/Desktop/liteos/Project2/BearPi_LiteOS/components/connectivity/agent_tiny/atiny_lwm2m\agenttiny.c **** 
 571:C:/Users/lenovo/Desktop/liteos/Project2/BearPi_LiteOS/components/connectivity/agent_tiny/atiny_lwm2m\agenttiny.c ****     atiny_destroy(phandle);
 572:C:/Users/lenovo/Desktop/liteos/Project2/BearPi_LiteOS/components/connectivity/agent_tiny/atiny_lwm2m\agenttiny.c **** 
 573:C:/Users/lenovo/Desktop/liteos/Project2/BearPi_LiteOS/components/connectivity/agent_tiny/atiny_lwm2m\agenttiny.c ****     return ATINY_OK;
 574:C:/Users/lenovo/Desktop/liteos/Project2/BearPi_LiteOS/components/connectivity/agent_tiny/atiny_lwm2m\agenttiny.c **** }
 575:C:/Users/lenovo/Desktop/liteos/Project2/BearPi_LiteOS/components/connectivity/agent_tiny/atiny_lwm2m\agenttiny.c **** 
 576:C:/Users/lenovo/Desktop/liteos/Project2/BearPi_LiteOS/components/connectivity/agent_tiny/atiny_lwm2m\agenttiny.c **** void atiny_deinit(void *phandle)
 577:C:/Users/lenovo/Desktop/liteos/Project2/BearPi_LiteOS/components/connectivity/agent_tiny/atiny_lwm2m\agenttiny.c **** {
 578:C:/Users/lenovo/Desktop/liteos/Project2/BearPi_LiteOS/components/connectivity/agent_tiny/atiny_lwm2m\agenttiny.c ****     handle_data_t *handle;
 579:C:/Users/lenovo/Desktop/liteos/Project2/BearPi_LiteOS/components/connectivity/agent_tiny/atiny_lwm2m\agenttiny.c ****     void *sem = NULL;
 580:C:/Users/lenovo/Desktop/liteos/Project2/BearPi_LiteOS/components/connectivity/agent_tiny/atiny_lwm2m\agenttiny.c **** 
 581:C:/Users/lenovo/Desktop/liteos/Project2/BearPi_LiteOS/components/connectivity/agent_tiny/atiny_lwm2m\agenttiny.c ****     if (phandle == NULL)
 582:C:/Users/lenovo/Desktop/liteos/Project2/BearPi_LiteOS/components/connectivity/agent_tiny/atiny_lwm2m\agenttiny.c ****     {
 583:C:/Users/lenovo/Desktop/liteos/Project2/BearPi_LiteOS/components/connectivity/agent_tiny/atiny_lwm2m\agenttiny.c ****         return;
 584:C:/Users/lenovo/Desktop/liteos/Project2/BearPi_LiteOS/components/connectivity/agent_tiny/atiny_lwm2m\agenttiny.c ****     }
 585:C:/Users/lenovo/Desktop/liteos/Project2/BearPi_LiteOS/components/connectivity/agent_tiny/atiny_lwm2m\agenttiny.c **** 
 586:C:/Users/lenovo/Desktop/liteos/Project2/BearPi_LiteOS/components/connectivity/agent_tiny/atiny_lwm2m\agenttiny.c ****     handle = (handle_data_t *)phandle;
 587:C:/Users/lenovo/Desktop/liteos/Project2/BearPi_LiteOS/components/connectivity/agent_tiny/atiny_lwm2m\agenttiny.c ****     handle->atiny_quit = 1;
 588:C:/Users/lenovo/Desktop/liteos/Project2/BearPi_LiteOS/components/connectivity/agent_tiny/atiny_lwm2m\agenttiny.c ****     sem = handle->quit_sem;
 589:C:/Users/lenovo/Desktop/liteos/Project2/BearPi_LiteOS/components/connectivity/agent_tiny/atiny_lwm2m\agenttiny.c ****     atiny_mutex_lock(sem);
 590:C:/Users/lenovo/Desktop/liteos/Project2/BearPi_LiteOS/components/connectivity/agent_tiny/atiny_lwm2m\agenttiny.c ****     atiny_mutex_destroy(sem);
 591:C:/Users/lenovo/Desktop/liteos/Project2/BearPi_LiteOS/components/connectivity/agent_tiny/atiny_lwm2m\agenttiny.c **** }
 592:C:/Users/lenovo/Desktop/liteos/Project2/BearPi_LiteOS/components/connectivity/agent_tiny/atiny_lwm2m\agenttiny.c **** 
 593:C:/Users/lenovo/Desktop/liteos/Project2/BearPi_LiteOS/components/connectivity/agent_tiny/atiny_lwm2m\agenttiny.c **** int atiny_data_report(void *phandle, data_report_t *report_data)
 594:C:/Users/lenovo/Desktop/liteos/Project2/BearPi_LiteOS/components/connectivity/agent_tiny/atiny_lwm2m\agenttiny.c **** {
 595:C:/Users/lenovo/Desktop/liteos/Project2/BearPi_LiteOS/components/connectivity/agent_tiny/atiny_lwm2m\agenttiny.c ****     lwm2m_uri_t uri;
 596:C:/Users/lenovo/Desktop/liteos/Project2/BearPi_LiteOS/components/connectivity/agent_tiny/atiny_lwm2m\agenttiny.c ****     int ret;
 597:C:/Users/lenovo/Desktop/liteos/Project2/BearPi_LiteOS/components/connectivity/agent_tiny/atiny_lwm2m\agenttiny.c ****     data_report_t data;
 598:C:/Users/lenovo/Desktop/liteos/Project2/BearPi_LiteOS/components/connectivity/agent_tiny/atiny_lwm2m\agenttiny.c **** 
 599:C:/Users/lenovo/Desktop/liteos/Project2/BearPi_LiteOS/components/connectivity/agent_tiny/atiny_lwm2m\agenttiny.c **** 
 600:C:/Users/lenovo/Desktop/liteos/Project2/BearPi_LiteOS/components/connectivity/agent_tiny/atiny_lwm2m\agenttiny.c ****     if (NULL == phandle || NULL == report_data || report_data->len <= 0
 601:C:/Users/lenovo/Desktop/liteos/Project2/BearPi_LiteOS/components/connectivity/agent_tiny/atiny_lwm2m\agenttiny.c ****             || report_data->len > MAX_REPORT_DATA_LEN || NULL == report_data->buf)
ARM GAS  c:\Users\lenovo\AppData\Local\Temp\ccDAYDpu.s 			page 12


 602:C:/Users/lenovo/Desktop/liteos/Project2/BearPi_LiteOS/components/connectivity/agent_tiny/atiny_lwm2m\agenttiny.c ****     {
 603:C:/Users/lenovo/Desktop/liteos/Project2/BearPi_LiteOS/components/connectivity/agent_tiny/atiny_lwm2m\agenttiny.c ****         ATINY_LOG(LOG_ERR, "invalid args");
 604:C:/Users/lenovo/Desktop/liteos/Project2/BearPi_LiteOS/components/connectivity/agent_tiny/atiny_lwm2m\agenttiny.c ****         return ATINY_ARG_INVALID;
 605:C:/Users/lenovo/Desktop/liteos/Project2/BearPi_LiteOS/components/connectivity/agent_tiny/atiny_lwm2m\agenttiny.c ****     }
 606:C:/Users/lenovo/Desktop/liteos/Project2/BearPi_LiteOS/components/connectivity/agent_tiny/atiny_lwm2m\agenttiny.c **** 
 607:C:/Users/lenovo/Desktop/liteos/Project2/BearPi_LiteOS/components/connectivity/agent_tiny/atiny_lwm2m\agenttiny.c ****     memset((void *)&uri, 0, sizeof(uri));
 608:C:/Users/lenovo/Desktop/liteos/Project2/BearPi_LiteOS/components/connectivity/agent_tiny/atiny_lwm2m\agenttiny.c **** 
 609:C:/Users/lenovo/Desktop/liteos/Project2/BearPi_LiteOS/components/connectivity/agent_tiny/atiny_lwm2m\agenttiny.c ****     switch (report_data->type)
 610:C:/Users/lenovo/Desktop/liteos/Project2/BearPi_LiteOS/components/connectivity/agent_tiny/atiny_lwm2m\agenttiny.c ****     {
 611:C:/Users/lenovo/Desktop/liteos/Project2/BearPi_LiteOS/components/connectivity/agent_tiny/atiny_lwm2m\agenttiny.c ****     case FIRMWARE_UPDATE_STATE:
 612:C:/Users/lenovo/Desktop/liteos/Project2/BearPi_LiteOS/components/connectivity/agent_tiny/atiny_lwm2m\agenttiny.c ****         (void)lwm2m_stringToUri("/5/0/3", 6, &uri);
 613:C:/Users/lenovo/Desktop/liteos/Project2/BearPi_LiteOS/components/connectivity/agent_tiny/atiny_lwm2m\agenttiny.c ****         break;
 614:C:/Users/lenovo/Desktop/liteos/Project2/BearPi_LiteOS/components/connectivity/agent_tiny/atiny_lwm2m\agenttiny.c ****     case APP_DATA:
 615:C:/Users/lenovo/Desktop/liteos/Project2/BearPi_LiteOS/components/connectivity/agent_tiny/atiny_lwm2m\agenttiny.c ****         get_resource_uri(BINARY_APP_DATA_OBJECT_ID, 0, BINARY_APP_DATA_RES_ID, &uri);
 616:C:/Users/lenovo/Desktop/liteos/Project2/BearPi_LiteOS/components/connectivity/agent_tiny/atiny_lwm2m\agenttiny.c ****         break;
 617:C:/Users/lenovo/Desktop/liteos/Project2/BearPi_LiteOS/components/connectivity/agent_tiny/atiny_lwm2m\agenttiny.c ****     default:
 618:C:/Users/lenovo/Desktop/liteos/Project2/BearPi_LiteOS/components/connectivity/agent_tiny/atiny_lwm2m\agenttiny.c ****         return ATINY_RESOURCE_NOT_FOUND;
 619:C:/Users/lenovo/Desktop/liteos/Project2/BearPi_LiteOS/components/connectivity/agent_tiny/atiny_lwm2m\agenttiny.c ****     }
 620:C:/Users/lenovo/Desktop/liteos/Project2/BearPi_LiteOS/components/connectivity/agent_tiny/atiny_lwm2m\agenttiny.c **** 
 621:C:/Users/lenovo/Desktop/liteos/Project2/BearPi_LiteOS/components/connectivity/agent_tiny/atiny_lwm2m\agenttiny.c ****     memcpy(&data, report_data, sizeof(data));
 622:C:/Users/lenovo/Desktop/liteos/Project2/BearPi_LiteOS/components/connectivity/agent_tiny/atiny_lwm2m\agenttiny.c ****     data.buf = lwm2m_malloc(report_data->len);
 623:C:/Users/lenovo/Desktop/liteos/Project2/BearPi_LiteOS/components/connectivity/agent_tiny/atiny_lwm2m\agenttiny.c ****     if (NULL == data.buf)
 624:C:/Users/lenovo/Desktop/liteos/Project2/BearPi_LiteOS/components/connectivity/agent_tiny/atiny_lwm2m\agenttiny.c ****     {
 625:C:/Users/lenovo/Desktop/liteos/Project2/BearPi_LiteOS/components/connectivity/agent_tiny/atiny_lwm2m\agenttiny.c ****         ATINY_LOG(LOG_ERR, "lwm2m_malloc fail,len %d", data.len);
 626:C:/Users/lenovo/Desktop/liteos/Project2/BearPi_LiteOS/components/connectivity/agent_tiny/atiny_lwm2m\agenttiny.c ****         return ATINY_MALLOC_FAILED;;
 627:C:/Users/lenovo/Desktop/liteos/Project2/BearPi_LiteOS/components/connectivity/agent_tiny/atiny_lwm2m\agenttiny.c ****     }
 628:C:/Users/lenovo/Desktop/liteos/Project2/BearPi_LiteOS/components/connectivity/agent_tiny/atiny_lwm2m\agenttiny.c ****     memcpy(data.buf, report_data->buf, report_data->len);
 629:C:/Users/lenovo/Desktop/liteos/Project2/BearPi_LiteOS/components/connectivity/agent_tiny/atiny_lwm2m\agenttiny.c **** 
 630:C:/Users/lenovo/Desktop/liteos/Project2/BearPi_LiteOS/components/connectivity/agent_tiny/atiny_lwm2m\agenttiny.c ****     ret = atiny_queue_rpt_data(&uri, &data);
 631:C:/Users/lenovo/Desktop/liteos/Project2/BearPi_LiteOS/components/connectivity/agent_tiny/atiny_lwm2m\agenttiny.c **** 
 632:C:/Users/lenovo/Desktop/liteos/Project2/BearPi_LiteOS/components/connectivity/agent_tiny/atiny_lwm2m\agenttiny.c ****     if (ATINY_OK != ret)
 633:C:/Users/lenovo/Desktop/liteos/Project2/BearPi_LiteOS/components/connectivity/agent_tiny/atiny_lwm2m\agenttiny.c ****     {
 634:C:/Users/lenovo/Desktop/liteos/Project2/BearPi_LiteOS/components/connectivity/agent_tiny/atiny_lwm2m\agenttiny.c ****         if (data.buf != NULL)
 635:C:/Users/lenovo/Desktop/liteos/Project2/BearPi_LiteOS/components/connectivity/agent_tiny/atiny_lwm2m\agenttiny.c ****         {
 636:C:/Users/lenovo/Desktop/liteos/Project2/BearPi_LiteOS/components/connectivity/agent_tiny/atiny_lwm2m\agenttiny.c ****             lwm2m_free(data.buf);
 637:C:/Users/lenovo/Desktop/liteos/Project2/BearPi_LiteOS/components/connectivity/agent_tiny/atiny_lwm2m\agenttiny.c ****         }
 638:C:/Users/lenovo/Desktop/liteos/Project2/BearPi_LiteOS/components/connectivity/agent_tiny/atiny_lwm2m\agenttiny.c ****     }
 639:C:/Users/lenovo/Desktop/liteos/Project2/BearPi_LiteOS/components/connectivity/agent_tiny/atiny_lwm2m\agenttiny.c **** 
 640:C:/Users/lenovo/Desktop/liteos/Project2/BearPi_LiteOS/components/connectivity/agent_tiny/atiny_lwm2m\agenttiny.c ****     return ret;
 641:C:/Users/lenovo/Desktop/liteos/Project2/BearPi_LiteOS/components/connectivity/agent_tiny/atiny_lwm2m\agenttiny.c **** }
 642:C:/Users/lenovo/Desktop/liteos/Project2/BearPi_LiteOS/components/connectivity/agent_tiny/atiny_lwm2m\agenttiny.c **** 
 643:C:/Users/lenovo/Desktop/liteos/Project2/BearPi_LiteOS/components/connectivity/agent_tiny/atiny_lwm2m\agenttiny.c **** int atiny_data_change(void *phandle, const char *data_type)
 644:C:/Users/lenovo/Desktop/liteos/Project2/BearPi_LiteOS/components/connectivity/agent_tiny/atiny_lwm2m\agenttiny.c **** {
 645:C:/Users/lenovo/Desktop/liteos/Project2/BearPi_LiteOS/components/connectivity/agent_tiny/atiny_lwm2m\agenttiny.c ****     lwm2m_uri_t uri;
 646:C:/Users/lenovo/Desktop/liteos/Project2/BearPi_LiteOS/components/connectivity/agent_tiny/atiny_lwm2m\agenttiny.c ****     handle_data_t *handle;
 647:C:/Users/lenovo/Desktop/liteos/Project2/BearPi_LiteOS/components/connectivity/agent_tiny/atiny_lwm2m\agenttiny.c **** 
 648:C:/Users/lenovo/Desktop/liteos/Project2/BearPi_LiteOS/components/connectivity/agent_tiny/atiny_lwm2m\agenttiny.c ****     if (NULL == phandle || NULL == data_type)
 649:C:/Users/lenovo/Desktop/liteos/Project2/BearPi_LiteOS/components/connectivity/agent_tiny/atiny_lwm2m\agenttiny.c ****     {
 650:C:/Users/lenovo/Desktop/liteos/Project2/BearPi_LiteOS/components/connectivity/agent_tiny/atiny_lwm2m\agenttiny.c ****         ATINY_LOG(LOG_ERR, "invalid args");
 651:C:/Users/lenovo/Desktop/liteos/Project2/BearPi_LiteOS/components/connectivity/agent_tiny/atiny_lwm2m\agenttiny.c ****         return ATINY_ARG_INVALID;
 652:C:/Users/lenovo/Desktop/liteos/Project2/BearPi_LiteOS/components/connectivity/agent_tiny/atiny_lwm2m\agenttiny.c ****     }
 653:C:/Users/lenovo/Desktop/liteos/Project2/BearPi_LiteOS/components/connectivity/agent_tiny/atiny_lwm2m\agenttiny.c **** 
 654:C:/Users/lenovo/Desktop/liteos/Project2/BearPi_LiteOS/components/connectivity/agent_tiny/atiny_lwm2m\agenttiny.c ****     memset((void *)&uri, 0, sizeof(uri));
 655:C:/Users/lenovo/Desktop/liteos/Project2/BearPi_LiteOS/components/connectivity/agent_tiny/atiny_lwm2m\agenttiny.c ****     handle = (handle_data_t *)phandle;
 656:C:/Users/lenovo/Desktop/liteos/Project2/BearPi_LiteOS/components/connectivity/agent_tiny/atiny_lwm2m\agenttiny.c **** 
 657:C:/Users/lenovo/Desktop/liteos/Project2/BearPi_LiteOS/components/connectivity/agent_tiny/atiny_lwm2m\agenttiny.c ****     if (handle->lwm2m_context->state != STATE_READY)
 658:C:/Users/lenovo/Desktop/liteos/Project2/BearPi_LiteOS/components/connectivity/agent_tiny/atiny_lwm2m\agenttiny.c ****     {
ARM GAS  c:\Users\lenovo\AppData\Local\Temp\ccDAYDpu.s 			page 13


 659:C:/Users/lenovo/Desktop/liteos/Project2/BearPi_LiteOS/components/connectivity/agent_tiny/atiny_lwm2m\agenttiny.c ****         ATINY_LOG(LOG_INFO, "not registered");
 660:C:/Users/lenovo/Desktop/liteos/Project2/BearPi_LiteOS/components/connectivity/agent_tiny/atiny_lwm2m\agenttiny.c ****         return ATINY_CLIENT_UNREGISTERED;
 661:C:/Users/lenovo/Desktop/liteos/Project2/BearPi_LiteOS/components/connectivity/agent_tiny/atiny_lwm2m\agenttiny.c ****     }
 662:C:/Users/lenovo/Desktop/liteos/Project2/BearPi_LiteOS/components/connectivity/agent_tiny/atiny_lwm2m\agenttiny.c **** 
 663:C:/Users/lenovo/Desktop/liteos/Project2/BearPi_LiteOS/components/connectivity/agent_tiny/atiny_lwm2m\agenttiny.c ****     (void)lwm2m_stringToUri(data_type, strlen(data_type), &uri);
 664:C:/Users/lenovo/Desktop/liteos/Project2/BearPi_LiteOS/components/connectivity/agent_tiny/atiny_lwm2m\agenttiny.c **** 
 665:C:/Users/lenovo/Desktop/liteos/Project2/BearPi_LiteOS/components/connectivity/agent_tiny/atiny_lwm2m\agenttiny.c ****     atiny_mutex_lock(handle->lwm2m_context->observe_mutex);
 666:C:/Users/lenovo/Desktop/liteos/Project2/BearPi_LiteOS/components/connectivity/agent_tiny/atiny_lwm2m\agenttiny.c ****     lwm2m_resource_value_changed(handle->lwm2m_context, &uri);
 667:C:/Users/lenovo/Desktop/liteos/Project2/BearPi_LiteOS/components/connectivity/agent_tiny/atiny_lwm2m\agenttiny.c ****     atiny_mutex_unlock(handle->lwm2m_context->observe_mutex);
 668:C:/Users/lenovo/Desktop/liteos/Project2/BearPi_LiteOS/components/connectivity/agent_tiny/atiny_lwm2m\agenttiny.c **** 
 669:C:/Users/lenovo/Desktop/liteos/Project2/BearPi_LiteOS/components/connectivity/agent_tiny/atiny_lwm2m\agenttiny.c ****     return ATINY_OK;
 670:C:/Users/lenovo/Desktop/liteos/Project2/BearPi_LiteOS/components/connectivity/agent_tiny/atiny_lwm2m\agenttiny.c **** }
 671:C:/Users/lenovo/Desktop/liteos/Project2/BearPi_LiteOS/components/connectivity/agent_tiny/atiny_lwm2m\agenttiny.c **** 
 672:C:/Users/lenovo/Desktop/liteos/Project2/BearPi_LiteOS/components/connectivity/agent_tiny/atiny_lwm2m\agenttiny.c **** void observe_handle_ack(lwm2m_transaction_t *transacP, void *message)
 673:C:/Users/lenovo/Desktop/liteos/Project2/BearPi_LiteOS/components/connectivity/agent_tiny/atiny_lwm2m\agenttiny.c **** {
  28              		.loc 1 673 0
  29              		.cfi_startproc
  30              		@ args = 0, pretend = 0, frame = 0
  31              		@ frame_needed = 0, uses_anonymous_args = 0
  32              	.LVL0:
  33 0000 10B5     		push	{r4, lr}
  34              	.LCFI0:
  35              		.cfi_def_cfa_offset 8
  36              		.cfi_offset 4, -8
  37              		.cfi_offset 14, -4
 674:C:/Users/lenovo/Desktop/liteos/Project2/BearPi_LiteOS/components/connectivity/agent_tiny/atiny_lwm2m\agenttiny.c ****     atiny_ack_callback ack_callback = (atiny_ack_callback)transacP->cfg.callback;
  38              		.loc 1 674 0
  39 0002 C46B     		ldr	r4, [r0, #60]
  40              	.LVL1:
 675:C:/Users/lenovo/Desktop/liteos/Project2/BearPi_LiteOS/components/connectivity/agent_tiny/atiny_lwm2m\agenttiny.c ****     if (transacP->ack_received)
  41              		.loc 1 675 0
  42 0004 037B     		ldrb	r3, [r0, #12]	@ zero_extendqisi2
  43 0006 2BB1     		cbz	r3, .L2
 676:C:/Users/lenovo/Desktop/liteos/Project2/BearPi_LiteOS/components/connectivity/agent_tiny/atiny_lwm2m\agenttiny.c ****     {
 677:C:/Users/lenovo/Desktop/liteos/Project2/BearPi_LiteOS/components/connectivity/agent_tiny/atiny_lwm2m\agenttiny.c ****         ack_callback((atiny_report_type_e)(transacP->cfg.type), transacP->cfg.cookie, SENT_SUCCESS)
  44              		.loc 1 677 0
  45 0008 0422     		movs	r2, #4
  46 000a 816B     		ldr	r1, [r0, #56]
  47              	.LVL2:
  48 000c 90F83400 		ldrb	r0, [r0, #52]	@ zero_extendqisi2
  49              	.LVL3:
  50 0010 A047     		blx	r4
  51              	.LVL4:
  52              	.L1:
 678:C:/Users/lenovo/Desktop/liteos/Project2/BearPi_LiteOS/components/connectivity/agent_tiny/atiny_lwm2m\agenttiny.c ****     }
 679:C:/Users/lenovo/Desktop/liteos/Project2/BearPi_LiteOS/components/connectivity/agent_tiny/atiny_lwm2m\agenttiny.c ****     else if (transacP->retrans_counter > COAP_MAX_RETRANSMIT)
 680:C:/Users/lenovo/Desktop/liteos/Project2/BearPi_LiteOS/components/connectivity/agent_tiny/atiny_lwm2m\agenttiny.c ****     {
 681:C:/Users/lenovo/Desktop/liteos/Project2/BearPi_LiteOS/components/connectivity/agent_tiny/atiny_lwm2m\agenttiny.c ****         ack_callback((atiny_report_type_e)(transacP->cfg.type), transacP->cfg.cookie, SENT_TIME_OUT
 682:C:/Users/lenovo/Desktop/liteos/Project2/BearPi_LiteOS/components/connectivity/agent_tiny/atiny_lwm2m\agenttiny.c ****     }
 683:C:/Users/lenovo/Desktop/liteos/Project2/BearPi_LiteOS/components/connectivity/agent_tiny/atiny_lwm2m\agenttiny.c ****     else
 684:C:/Users/lenovo/Desktop/liteos/Project2/BearPi_LiteOS/components/connectivity/agent_tiny/atiny_lwm2m\agenttiny.c ****     {
 685:C:/Users/lenovo/Desktop/liteos/Project2/BearPi_LiteOS/components/connectivity/agent_tiny/atiny_lwm2m\agenttiny.c ****         ack_callback((atiny_report_type_e)(transacP->cfg.type), transacP->cfg.cookie, SENT_FAIL);
 686:C:/Users/lenovo/Desktop/liteos/Project2/BearPi_LiteOS/components/connectivity/agent_tiny/atiny_lwm2m\agenttiny.c ****     }
 687:C:/Users/lenovo/Desktop/liteos/Project2/BearPi_LiteOS/components/connectivity/agent_tiny/atiny_lwm2m\agenttiny.c **** }
  53              		.loc 1 687 0
  54 0012 10BD     		pop	{r4, pc}
  55              	.LVL5:
ARM GAS  c:\Users\lenovo\AppData\Local\Temp\ccDAYDpu.s 			page 14


  56              	.L2:
 679:C:/Users/lenovo/Desktop/liteos/Project2/BearPi_LiteOS/components/connectivity/agent_tiny/atiny_lwm2m\agenttiny.c ****     {
  57              		.loc 1 679 0
  58 0014 037E     		ldrb	r3, [r0, #24]	@ zero_extendqisi2
  59 0016 042B     		cmp	r3, #4
  60 0018 05D8     		bhi	.L6
 685:C:/Users/lenovo/Desktop/liteos/Project2/BearPi_LiteOS/components/connectivity/agent_tiny/atiny_lwm2m\agenttiny.c ****     }
  61              		.loc 1 685 0
  62 001a 0222     		movs	r2, #2
  63 001c 816B     		ldr	r1, [r0, #56]
  64              	.LVL6:
  65 001e 90F83400 		ldrb	r0, [r0, #52]	@ zero_extendqisi2
  66              	.LVL7:
  67 0022 A047     		blx	r4
  68              	.LVL8:
  69              		.loc 1 687 0
  70 0024 F5E7     		b	.L1
  71              	.LVL9:
  72              	.L6:
 681:C:/Users/lenovo/Desktop/liteos/Project2/BearPi_LiteOS/components/connectivity/agent_tiny/atiny_lwm2m\agenttiny.c ****     }
  73              		.loc 1 681 0
  74 0026 0322     		movs	r2, #3
  75 0028 816B     		ldr	r1, [r0, #56]
  76              	.LVL10:
  77 002a 90F83400 		ldrb	r0, [r0, #52]	@ zero_extendqisi2
  78              	.LVL11:
  79 002e A047     		blx	r4
  80              	.LVL12:
  81 0030 EFE7     		b	.L1
  82              		.cfi_endproc
  83              	.LFE158:
  85              		.section	.text.atiny_check_bootstrap_init_param,"ax",%progbits
  86              		.align	1
  87              		.syntax unified
  88              		.thumb
  89              		.thumb_func
  90              		.fpu fpv4-sp-d16
  92              	atiny_check_bootstrap_init_param:
  93              	.LFB144:
  65:C:/Users/lenovo/Desktop/liteos/Project2/BearPi_LiteOS/components/connectivity/agent_tiny/atiny_lwm2m\agenttiny.c ****     if(NULL == atiny_params)
  94              		.loc 1 65 0
  95              		.cfi_startproc
  96              		@ args = 0, pretend = 0, frame = 0
  97              		@ frame_needed = 0, uses_anonymous_args = 0
  98              	.LVL13:
  66:C:/Users/lenovo/Desktop/liteos/Project2/BearPi_LiteOS/components/connectivity/agent_tiny/atiny_lwm2m\agenttiny.c ****     {
  99              		.loc 1 66 0
 100 0000 0028     		cmp	r0, #0
 101 0002 35D0     		beq	.L13
  65:C:/Users/lenovo/Desktop/liteos/Project2/BearPi_LiteOS/components/connectivity/agent_tiny/atiny_lwm2m\agenttiny.c ****     if(NULL == atiny_params)
 102              		.loc 1 65 0
 103 0004 08B5     		push	{r3, lr}
 104              	.LCFI1:
 105              		.cfi_def_cfa_offset 8
 106              		.cfi_offset 3, -8
 107              		.cfi_offset 14, -4
  71:C:/Users/lenovo/Desktop/liteos/Project2/BearPi_LiteOS/components/connectivity/agent_tiny/atiny_lwm2m\agenttiny.c ****     {
ARM GAS  c:\Users\lenovo\AppData\Local\Temp\ccDAYDpu.s 			page 15


 108              		.loc 1 71 0
 109 0006 037B     		ldrb	r3, [r0, #12]	@ zero_extendqisi2
 110 0008 83B9     		cbnz	r3, .L9
  73:C:/Users/lenovo/Desktop/liteos/Project2/BearPi_LiteOS/components/connectivity/agent_tiny/atiny_lwm2m\agenttiny.c ****         {
 111              		.loc 1 73 0
 112 000a 4369     		ldr	r3, [r0, #20]
 113 000c 1BB1     		cbz	r3, .L10
  73:C:/Users/lenovo/Desktop/liteos/Project2/BearPi_LiteOS/components/connectivity/agent_tiny/atiny_lwm2m\agenttiny.c ****         {
 114              		.loc 1 73 0 is_stmt 0 discriminator 1
 115 000e 8369     		ldr	r3, [r0, #24]
 116 0010 0BB1     		cbz	r3, .L10
  99:C:/Users/lenovo/Desktop/liteos/Project2/BearPi_LiteOS/components/connectivity/agent_tiny/atiny_lwm2m\agenttiny.c **** }
 117              		.loc 1 99 0 is_stmt 1
 118 0012 0020     		movs	r0, #0
 119              	.LVL14:
 120              	.L7:
 100:C:/Users/lenovo/Desktop/liteos/Project2/BearPi_LiteOS/components/connectivity/agent_tiny/atiny_lwm2m\agenttiny.c **** 
 121              		.loc 1 100 0
 122 0014 08BD     		pop	{r3, pc}
 123              	.LVL15:
 124              	.L10:
  75:C:/Users/lenovo/Desktop/liteos/Project2/BearPi_LiteOS/components/connectivity/agent_tiny/atiny_lwm2m\agenttiny.c ****             return ATINY_ARG_INVALID;
 125              		.loc 1 75 0
 126 0016 FFF7FEFF 		bl	lwm2m_gettime
 127              	.LVL16:
 128 001a 4B23     		movs	r3, #75
 129 001c 164A     		ldr	r2, .L23
 130 001e 0146     		mov	r1, r0
 131 0020 1648     		ldr	r0, .L23+4
 132 0022 FFF7FEFF 		bl	atiny_printf
 133              	.LVL17:
  76:C:/Users/lenovo/Desktop/liteos/Project2/BearPi_LiteOS/components/connectivity/agent_tiny/atiny_lwm2m\agenttiny.c ****         }
 134              		.loc 1 76 0
 135 0026 4FF0FF30 		mov	r0, #-1
 136 002a F3E7     		b	.L7
 137              	.LVL18:
 138              	.L9:
  79:C:/Users/lenovo/Desktop/liteos/Project2/BearPi_LiteOS/components/connectivity/agent_tiny/atiny_lwm2m\agenttiny.c ****     {
 139              		.loc 1 79 0
 140 002c 012B     		cmp	r3, #1
 141 002e 03D0     		beq	.L21
  87:C:/Users/lenovo/Desktop/liteos/Project2/BearPi_LiteOS/components/connectivity/agent_tiny/atiny_lwm2m\agenttiny.c ****     {
 142              		.loc 1 87 0
 143 0030 022B     		cmp	r3, #2
 144 0032 12D1     		bne	.L22
  89:C:/Users/lenovo/Desktop/liteos/Project2/BearPi_LiteOS/components/connectivity/agent_tiny/atiny_lwm2m\agenttiny.c ****     }
 145              		.loc 1 89 0
 146 0034 0020     		movs	r0, #0
 147              	.LVL19:
 148 0036 EDE7     		b	.L7
 149              	.LVL20:
 150              	.L21:
  81:C:/Users/lenovo/Desktop/liteos/Project2/BearPi_LiteOS/components/connectivity/agent_tiny/atiny_lwm2m\agenttiny.c ****         {
 151              		.loc 1 81 0
 152 0038 836A     		ldr	r3, [r0, #40]
 153 003a 1BB1     		cbz	r3, .L12
  81:C:/Users/lenovo/Desktop/liteos/Project2/BearPi_LiteOS/components/connectivity/agent_tiny/atiny_lwm2m\agenttiny.c ****         {
ARM GAS  c:\Users\lenovo\AppData\Local\Temp\ccDAYDpu.s 			page 16


 154              		.loc 1 81 0 is_stmt 0 discriminator 1
 155 003c C36A     		ldr	r3, [r0, #44]
 156 003e 0BB1     		cbz	r3, .L12
  99:C:/Users/lenovo/Desktop/liteos/Project2/BearPi_LiteOS/components/connectivity/agent_tiny/atiny_lwm2m\agenttiny.c **** }
 157              		.loc 1 99 0 is_stmt 1
 158 0040 0020     		movs	r0, #0
 159              	.LVL21:
 160 0042 E7E7     		b	.L7
 161              	.LVL22:
 162              	.L12:
  83:C:/Users/lenovo/Desktop/liteos/Project2/BearPi_LiteOS/components/connectivity/agent_tiny/atiny_lwm2m\agenttiny.c ****             return ATINY_ARG_INVALID;
 163              		.loc 1 83 0
 164 0044 FFF7FEFF 		bl	lwm2m_gettime
 165              	.LVL23:
 166 0048 5323     		movs	r3, #83
 167 004a 0B4A     		ldr	r2, .L23
 168 004c 0146     		mov	r1, r0
 169 004e 0C48     		ldr	r0, .L23+8
 170 0050 FFF7FEFF 		bl	atiny_printf
 171              	.LVL24:
  84:C:/Users/lenovo/Desktop/liteos/Project2/BearPi_LiteOS/components/connectivity/agent_tiny/atiny_lwm2m\agenttiny.c ****         }
 172              		.loc 1 84 0
 173 0054 4FF0FF30 		mov	r0, #-1
 174 0058 DCE7     		b	.L7
 175              	.LVL25:
 176              	.L22:
  94:C:/Users/lenovo/Desktop/liteos/Project2/BearPi_LiteOS/components/connectivity/agent_tiny/atiny_lwm2m\agenttiny.c ****         return ATINY_ARG_INVALID;
 177              		.loc 1 94 0
 178 005a FFF7FEFF 		bl	lwm2m_gettime
 179              	.LVL26:
 180 005e 5E23     		movs	r3, #94
 181 0060 054A     		ldr	r2, .L23
 182 0062 0146     		mov	r1, r0
 183 0064 0748     		ldr	r0, .L23+12
 184 0066 FFF7FEFF 		bl	atiny_printf
 185              	.LVL27:
  95:C:/Users/lenovo/Desktop/liteos/Project2/BearPi_LiteOS/components/connectivity/agent_tiny/atiny_lwm2m\agenttiny.c ****     }
 186              		.loc 1 95 0
 187 006a 4FF0FF30 		mov	r0, #-1
 188 006e D1E7     		b	.L7
 189              	.LVL28:
 190              	.L13:
 191              	.LCFI2:
 192              		.cfi_def_cfa_offset 0
 193              		.cfi_restore 3
 194              		.cfi_restore 14
  68:C:/Users/lenovo/Desktop/liteos/Project2/BearPi_LiteOS/components/connectivity/agent_tiny/atiny_lwm2m\agenttiny.c ****     }
 195              		.loc 1 68 0
 196 0070 4FF0FF30 		mov	r0, #-1
 197              	.LVL29:
 100:C:/Users/lenovo/Desktop/liteos/Project2/BearPi_LiteOS/components/connectivity/agent_tiny/atiny_lwm2m\agenttiny.c **** 
 198              		.loc 1 100 0
 199 0074 7047     		bx	lr
 200              	.L24:
 201 0076 00BF     		.align	2
 202              	.L23:
 203 0078 00000000 		.word	.LANCHOR0
ARM GAS  c:\Users\lenovo\AppData\Local\Temp\ccDAYDpu.s 			page 17


 204 007c 00000000 		.word	.LC0
 205 0080 68000000 		.word	.LC1
 206 0084 E0000000 		.word	.LC2
 207              		.cfi_endproc
 208              	.LFE144:
 210              		.section	.text.atiny_event_handle,"ax",%progbits
 211              		.align	1
 212              		.global	atiny_event_handle
 213              		.syntax unified
 214              		.thumb
 215              		.thumb_func
 216              		.fpu fpv4-sp-d16
 218              	atiny_event_handle:
 219              	.LFB150:
 417:C:/Users/lenovo/Desktop/liteos/Project2/BearPi_LiteOS/components/connectivity/agent_tiny/atiny_lwm2m\agenttiny.c ****     switch (type)
 220              		.loc 1 417 0
 221              		.cfi_startproc
 222              		@ args = 0, pretend = 0, frame = 8
 223              		@ frame_needed = 0, uses_anonymous_args = 0
 224              	.LVL30:
 225 0000 10B5     		push	{r4, lr}
 226              	.LCFI3:
 227              		.cfi_def_cfa_offset 8
 228              		.cfi_offset 4, -8
 229              		.cfi_offset 14, -4
 230 0002 82B0     		sub	sp, sp, #8
 231              	.LCFI4:
 232              		.cfi_def_cfa_offset 16
 418:C:/Users/lenovo/Desktop/liteos/Project2/BearPi_LiteOS/components/connectivity/agent_tiny/atiny_lwm2m\agenttiny.c ****     {
 233              		.loc 1 418 0
 234 0004 20B1     		cbz	r0, .L27
 235 0006 1446     		mov	r4, r2
 236 0008 0228     		cmp	r0, #2
 237 000a 15D0     		beq	.L28
 238              	.LVL31:
 239              	.L25:
 473:C:/Users/lenovo/Desktop/liteos/Project2/BearPi_LiteOS/components/connectivity/agent_tiny/atiny_lwm2m\agenttiny.c **** 
 240              		.loc 1 473 0
 241 000c 02B0     		add	sp, sp, #8
 242              	.LCFI5:
 243              		.cfi_remember_state
 244              		.cfi_def_cfa_offset 8
 245              		@ sp needed
 246 000e 10BD     		pop	{r4, pc}
 247              	.LVL32:
 248              	.L27:
 249              	.LCFI6:
 250              		.cfi_restore_state
 422:C:/Users/lenovo/Desktop/liteos/Project2/BearPi_LiteOS/components/connectivity/agent_tiny/atiny_lwm2m\agenttiny.c ****         {
 251              		.loc 1 422 0
 252 0010 0229     		cmp	r1, #2
 253 0012 07D0     		beq	.L33
 429:C:/Users/lenovo/Desktop/liteos/Project2/BearPi_LiteOS/components/connectivity/agent_tiny/atiny_lwm2m\agenttiny.c ****         {
 254              		.loc 1 429 0
 255 0014 0329     		cmp	r1, #3
 256 0016 F9D1     		bne	.L25
 431:C:/Users/lenovo/Desktop/liteos/Project2/BearPi_LiteOS/components/connectivity/agent_tiny/atiny_lwm2m\agenttiny.c **** 
ARM GAS  c:\Users\lenovo\AppData\Local\Temp\ccDAYDpu.s 			page 18


 257              		.loc 1 431 0
 258 0018 0022     		movs	r2, #0
 259              	.LVL33:
 260 001a 1146     		mov	r1, r2
 261              	.LVL34:
 262 001c 0120     		movs	r0, #1
 263              	.LVL35:
 264 001e FFF7FEFF 		bl	atiny_event_notify
 265              	.LVL36:
 266 0022 F3E7     		b	.L25
 267              	.LVL37:
 268              	.L33:
 424:C:/Users/lenovo/Desktop/liteos/Project2/BearPi_LiteOS/components/connectivity/agent_tiny/atiny_lwm2m\agenttiny.c **** #ifdef CONFIG_FEATURE_FOTA
 269              		.loc 1 424 0
 270 0024 0022     		movs	r2, #0
 271              	.LVL38:
 272 0026 1146     		mov	r1, r2
 273              	.LVL39:
 274 0028 1046     		mov	r0, r2
 275              	.LVL40:
 276 002a FFF7FEFF 		bl	atiny_event_notify
 277              	.LVL41:
 426:C:/Users/lenovo/Desktop/liteos/Project2/BearPi_LiteOS/components/connectivity/agent_tiny/atiny_lwm2m\agenttiny.c **** #endif
 278              		.loc 1 426 0
 279 002e FFF7FEFF 		bl	atiny_fota_manager_get_instance
 280              	.LVL42:
 281 0032 FFF7FEFF 		bl	atiny_fota_manager_repot_result
 282              	.LVL43:
 283 0036 E9E7     		b	.L25
 284              	.LVL44:
 285              	.L28:
 442:C:/Users/lenovo/Desktop/liteos/Project2/BearPi_LiteOS/components/connectivity/agent_tiny/atiny_lwm2m\agenttiny.c ****         {
 286              		.loc 1 442 0
 287 0038 002C     		cmp	r4, #0
 288 003a E7D0     		beq	.L25
 442:C:/Users/lenovo/Desktop/liteos/Project2/BearPi_LiteOS/components/connectivity/agent_tiny/atiny_lwm2m\agenttiny.c ****         {
 289              		.loc 1 442 0 is_stmt 0 discriminator 1
 290 003c 072B     		cmp	r3, #7
 291 003e E5D9     		bls	.L25
 447:C:/Users/lenovo/Desktop/liteos/Project2/BearPi_LiteOS/components/connectivity/agent_tiny/atiny_lwm2m\agenttiny.c ****         {
 292              		.loc 1 447 0 is_stmt 1
 293 0040 79B9     		cbnz	r1, .L30
 294              	.LVL45:
 295              	.LBB10:
 296              	.LBB11:
 297              		.file 2 "C:/Users/lenovo/Desktop/liteos/Project2/BearPi_LiteOS/components/connectivity/lwm2m/core/
   1:C:/Users/lenovo/Desktop/liteos/Project2/BearPi_LiteOS/components/connectivity/lwm2m/core\internals.h **** /*----------------------------------------------------------------------------
   2:C:/Users/lenovo/Desktop/liteos/Project2/BearPi_LiteOS/components/connectivity/lwm2m/core\internals.h ****  * Copyright (c) <2016-2018>, <Huawei Technologies Co., Ltd>
   3:C:/Users/lenovo/Desktop/liteos/Project2/BearPi_LiteOS/components/connectivity/lwm2m/core\internals.h ****  * All rights reserved.
   4:C:/Users/lenovo/Desktop/liteos/Project2/BearPi_LiteOS/components/connectivity/lwm2m/core\internals.h ****  * Redistribution and use in source and binary forms, with or without modification,
   5:C:/Users/lenovo/Desktop/liteos/Project2/BearPi_LiteOS/components/connectivity/lwm2m/core\internals.h ****  * are permitted provided that the following conditions are met:
   6:C:/Users/lenovo/Desktop/liteos/Project2/BearPi_LiteOS/components/connectivity/lwm2m/core\internals.h ****  * 1. Redistributions of source code must retain the above copyright notice, this list of
   7:C:/Users/lenovo/Desktop/liteos/Project2/BearPi_LiteOS/components/connectivity/lwm2m/core\internals.h ****  * conditions and the following disclaimer.
   8:C:/Users/lenovo/Desktop/liteos/Project2/BearPi_LiteOS/components/connectivity/lwm2m/core\internals.h ****  * 2. Redistributions in binary form must reproduce the above copyright notice, this list
   9:C:/Users/lenovo/Desktop/liteos/Project2/BearPi_LiteOS/components/connectivity/lwm2m/core\internals.h ****  * of conditions and the following disclaimer in the documentation and/or other materials
  10:C:/Users/lenovo/Desktop/liteos/Project2/BearPi_LiteOS/components/connectivity/lwm2m/core\internals.h ****  * provided with the distribution.
  11:C:/Users/lenovo/Desktop/liteos/Project2/BearPi_LiteOS/components/connectivity/lwm2m/core\internals.h ****  * 3. Neither the name of the copyright holder nor the names of its contributors may be used
ARM GAS  c:\Users\lenovo\AppData\Local\Temp\ccDAYDpu.s 			page 19


  12:C:/Users/lenovo/Desktop/liteos/Project2/BearPi_LiteOS/components/connectivity/lwm2m/core\internals.h ****  * to endorse or promote products derived from this software without specific prior written
  13:C:/Users/lenovo/Desktop/liteos/Project2/BearPi_LiteOS/components/connectivity/lwm2m/core\internals.h ****  * permission.
  14:C:/Users/lenovo/Desktop/liteos/Project2/BearPi_LiteOS/components/connectivity/lwm2m/core\internals.h ****  * THIS SOFTWARE IS PROVIDED BY THE COPYRIGHT HOLDERS AND CONTRIBUTORS
  15:C:/Users/lenovo/Desktop/liteos/Project2/BearPi_LiteOS/components/connectivity/lwm2m/core\internals.h ****  * "AS IS" AND ANY EXPRESS OR IMPLIED WARRANTIES, INCLUDING, BUT NOT LIMITED TO,
  16:C:/Users/lenovo/Desktop/liteos/Project2/BearPi_LiteOS/components/connectivity/lwm2m/core\internals.h ****  * THE IMPLIED WARRANTIES OF MERCHANTABILITY AND FITNESS FOR A PARTICULAR
  17:C:/Users/lenovo/Desktop/liteos/Project2/BearPi_LiteOS/components/connectivity/lwm2m/core\internals.h ****  * PURPOSE ARE DISCLAIMED. IN NO EVENT SHALL THE COPYRIGHT HOLDER OR
  18:C:/Users/lenovo/Desktop/liteos/Project2/BearPi_LiteOS/components/connectivity/lwm2m/core\internals.h ****  * CONTRIBUTORS BE LIABLE FOR ANY DIRECT, INDIRECT, INCIDENTAL, SPECIAL,
  19:C:/Users/lenovo/Desktop/liteos/Project2/BearPi_LiteOS/components/connectivity/lwm2m/core\internals.h ****  * EXEMPLARY, OR CONSEQUENTIAL DAMAGES (INCLUDING, BUT NOT LIMITED TO,
  20:C:/Users/lenovo/Desktop/liteos/Project2/BearPi_LiteOS/components/connectivity/lwm2m/core\internals.h ****  * PROCUREMENT OF SUBSTITUTE GOODS OR SERVICES; LOSS OF USE, DATA, OR PROFITS;
  21:C:/Users/lenovo/Desktop/liteos/Project2/BearPi_LiteOS/components/connectivity/lwm2m/core\internals.h ****  * OR BUSINESS INTERRUPTION) HOWEVER CAUSED AND ON ANY THEORY OF LIABILITY,
  22:C:/Users/lenovo/Desktop/liteos/Project2/BearPi_LiteOS/components/connectivity/lwm2m/core\internals.h ****  * WHETHER IN CONTRACT, STRICT LIABILITY, OR TORT (INCLUDING NEGLIGENCE OR
  23:C:/Users/lenovo/Desktop/liteos/Project2/BearPi_LiteOS/components/connectivity/lwm2m/core\internals.h ****  * OTHERWISE) ARISING IN ANY WAY OUT OF THE USE OF THIS SOFTWARE, EVEN IF
  24:C:/Users/lenovo/Desktop/liteos/Project2/BearPi_LiteOS/components/connectivity/lwm2m/core\internals.h ****  * ADVISED OF THE POSSIBILITY OF SUCH DAMAGE.
  25:C:/Users/lenovo/Desktop/liteos/Project2/BearPi_LiteOS/components/connectivity/lwm2m/core\internals.h ****  *---------------------------------------------------------------------------*/
  26:C:/Users/lenovo/Desktop/liteos/Project2/BearPi_LiteOS/components/connectivity/lwm2m/core\internals.h **** /*----------------------------------------------------------------------------
  27:C:/Users/lenovo/Desktop/liteos/Project2/BearPi_LiteOS/components/connectivity/lwm2m/core\internals.h ****  * Notice of Export Control Law
  28:C:/Users/lenovo/Desktop/liteos/Project2/BearPi_LiteOS/components/connectivity/lwm2m/core\internals.h ****  * ===============================================
  29:C:/Users/lenovo/Desktop/liteos/Project2/BearPi_LiteOS/components/connectivity/lwm2m/core\internals.h ****  * Huawei LiteOS may be subject to applicable export control laws and regulations, which might
  30:C:/Users/lenovo/Desktop/liteos/Project2/BearPi_LiteOS/components/connectivity/lwm2m/core\internals.h ****  * include those applicable to Huawei LiteOS of U.S. and the country in which you are located.
  31:C:/Users/lenovo/Desktop/liteos/Project2/BearPi_LiteOS/components/connectivity/lwm2m/core\internals.h ****  * Import, export and usage of Huawei LiteOS in any manner by you shall be in compliance with such
  32:C:/Users/lenovo/Desktop/liteos/Project2/BearPi_LiteOS/components/connectivity/lwm2m/core\internals.h ****  * applicable export control laws and regulations.
  33:C:/Users/lenovo/Desktop/liteos/Project2/BearPi_LiteOS/components/connectivity/lwm2m/core\internals.h ****  *---------------------------------------------------------------------------*/
  34:C:/Users/lenovo/Desktop/liteos/Project2/BearPi_LiteOS/components/connectivity/lwm2m/core\internals.h **** 
  35:C:/Users/lenovo/Desktop/liteos/Project2/BearPi_LiteOS/components/connectivity/lwm2m/core\internals.h **** /*******************************************************************************
  36:C:/Users/lenovo/Desktop/liteos/Project2/BearPi_LiteOS/components/connectivity/lwm2m/core\internals.h ****  *
  37:C:/Users/lenovo/Desktop/liteos/Project2/BearPi_LiteOS/components/connectivity/lwm2m/core\internals.h ****  * Copyright (c) 2013, 2014 Intel Corporation and others.
  38:C:/Users/lenovo/Desktop/liteos/Project2/BearPi_LiteOS/components/connectivity/lwm2m/core\internals.h ****  * All rights reserved. This program and the accompanying materials
  39:C:/Users/lenovo/Desktop/liteos/Project2/BearPi_LiteOS/components/connectivity/lwm2m/core\internals.h ****  * are made available under the terms of the Eclipse Public License v1.0
  40:C:/Users/lenovo/Desktop/liteos/Project2/BearPi_LiteOS/components/connectivity/lwm2m/core\internals.h ****  * and Eclipse Distribution License v1.0 which accompany this distribution.
  41:C:/Users/lenovo/Desktop/liteos/Project2/BearPi_LiteOS/components/connectivity/lwm2m/core\internals.h ****  *
  42:C:/Users/lenovo/Desktop/liteos/Project2/BearPi_LiteOS/components/connectivity/lwm2m/core\internals.h ****  * The Eclipse Public License is available at
  43:C:/Users/lenovo/Desktop/liteos/Project2/BearPi_LiteOS/components/connectivity/lwm2m/core\internals.h ****  *    http://www.eclipse.org/legal/epl-v10.html
  44:C:/Users/lenovo/Desktop/liteos/Project2/BearPi_LiteOS/components/connectivity/lwm2m/core\internals.h ****  * The Eclipse Distribution License is available at
  45:C:/Users/lenovo/Desktop/liteos/Project2/BearPi_LiteOS/components/connectivity/lwm2m/core\internals.h ****  *    http://www.eclipse.org/org/documents/edl-v10.php.
  46:C:/Users/lenovo/Desktop/liteos/Project2/BearPi_LiteOS/components/connectivity/lwm2m/core\internals.h ****  *
  47:C:/Users/lenovo/Desktop/liteos/Project2/BearPi_LiteOS/components/connectivity/lwm2m/core\internals.h ****  * Contributors:
  48:C:/Users/lenovo/Desktop/liteos/Project2/BearPi_LiteOS/components/connectivity/lwm2m/core\internals.h ****  *    David Navarro, Intel Corporation - initial API and implementation
  49:C:/Users/lenovo/Desktop/liteos/Project2/BearPi_LiteOS/components/connectivity/lwm2m/core\internals.h ****  *    Fabien Fleutot - Please refer to git log
  50:C:/Users/lenovo/Desktop/liteos/Project2/BearPi_LiteOS/components/connectivity/lwm2m/core\internals.h ****  *    Toby Jaffey - Please refer to git log
  51:C:/Users/lenovo/Desktop/liteos/Project2/BearPi_LiteOS/components/connectivity/lwm2m/core\internals.h ****  *    Bosch Software Innovations GmbH - Please refer to git log
  52:C:/Users/lenovo/Desktop/liteos/Project2/BearPi_LiteOS/components/connectivity/lwm2m/core\internals.h ****  *    Pascal Rieux - Please refer to git log
  53:C:/Users/lenovo/Desktop/liteos/Project2/BearPi_LiteOS/components/connectivity/lwm2m/core\internals.h ****  *    Scott Bertin - Please refer to git log
  54:C:/Users/lenovo/Desktop/liteos/Project2/BearPi_LiteOS/components/connectivity/lwm2m/core\internals.h ****  *
  55:C:/Users/lenovo/Desktop/liteos/Project2/BearPi_LiteOS/components/connectivity/lwm2m/core\internals.h ****  *******************************************************************************/
  56:C:/Users/lenovo/Desktop/liteos/Project2/BearPi_LiteOS/components/connectivity/lwm2m/core\internals.h **** /*
  57:C:/Users/lenovo/Desktop/liteos/Project2/BearPi_LiteOS/components/connectivity/lwm2m/core\internals.h ****  Copyright (c) 2013, 2014 Intel Corporation
  58:C:/Users/lenovo/Desktop/liteos/Project2/BearPi_LiteOS/components/connectivity/lwm2m/core\internals.h **** 
  59:C:/Users/lenovo/Desktop/liteos/Project2/BearPi_LiteOS/components/connectivity/lwm2m/core\internals.h ****  Redistribution and use in source and binary forms, with or without modification,
  60:C:/Users/lenovo/Desktop/liteos/Project2/BearPi_LiteOS/components/connectivity/lwm2m/core\internals.h ****  are permitted provided that the following conditions are met:
  61:C:/Users/lenovo/Desktop/liteos/Project2/BearPi_LiteOS/components/connectivity/lwm2m/core\internals.h **** 
  62:C:/Users/lenovo/Desktop/liteos/Project2/BearPi_LiteOS/components/connectivity/lwm2m/core\internals.h ****      * Redistributions of source code must retain the above copyright notice,
  63:C:/Users/lenovo/Desktop/liteos/Project2/BearPi_LiteOS/components/connectivity/lwm2m/core\internals.h ****        this list of conditions and the following disclaimer.
  64:C:/Users/lenovo/Desktop/liteos/Project2/BearPi_LiteOS/components/connectivity/lwm2m/core\internals.h ****      * Redistributions in binary form must reproduce the above copyright notice,
  65:C:/Users/lenovo/Desktop/liteos/Project2/BearPi_LiteOS/components/connectivity/lwm2m/core\internals.h ****        this list of conditions and the following disclaimer in the documentation
  66:C:/Users/lenovo/Desktop/liteos/Project2/BearPi_LiteOS/components/connectivity/lwm2m/core\internals.h ****        and/or other materials provided with the distribution.
  67:C:/Users/lenovo/Desktop/liteos/Project2/BearPi_LiteOS/components/connectivity/lwm2m/core\internals.h ****      * Neither the name of Intel Corporation nor the names of its contributors
  68:C:/Users/lenovo/Desktop/liteos/Project2/BearPi_LiteOS/components/connectivity/lwm2m/core\internals.h ****        may be used to endorse or promote products derived from this software
ARM GAS  c:\Users\lenovo\AppData\Local\Temp\ccDAYDpu.s 			page 20


  69:C:/Users/lenovo/Desktop/liteos/Project2/BearPi_LiteOS/components/connectivity/lwm2m/core\internals.h ****        without specific prior written permission.
  70:C:/Users/lenovo/Desktop/liteos/Project2/BearPi_LiteOS/components/connectivity/lwm2m/core\internals.h **** 
  71:C:/Users/lenovo/Desktop/liteos/Project2/BearPi_LiteOS/components/connectivity/lwm2m/core\internals.h ****  THIS SOFTWARE IS PROVIDED BY THE COPYRIGHT HOLDERS AND CONTRIBUTORS "AS IS" AND
  72:C:/Users/lenovo/Desktop/liteos/Project2/BearPi_LiteOS/components/connectivity/lwm2m/core\internals.h ****  ANY EXPRESS OR IMPLIED WARRANTIES, INCLUDING, BUT NOT LIMITED TO, THE IMPLIED
  73:C:/Users/lenovo/Desktop/liteos/Project2/BearPi_LiteOS/components/connectivity/lwm2m/core\internals.h ****  WARRANTIES OF MERCHANTABILITY AND FITNESS FOR A PARTICULAR PURPOSE ARE DISCLAIMED.
  74:C:/Users/lenovo/Desktop/liteos/Project2/BearPi_LiteOS/components/connectivity/lwm2m/core\internals.h ****  IN NO EVENT SHALL THE COPYRIGHT OWNER OR CONTRIBUTORS BE LIABLE FOR ANY DIRECT,
  75:C:/Users/lenovo/Desktop/liteos/Project2/BearPi_LiteOS/components/connectivity/lwm2m/core\internals.h ****  INDIRECT, INCIDENTAL, SPECIAL, EXEMPLARY, OR CONSEQUENTIAL DAMAGES (INCLUDING,
  76:C:/Users/lenovo/Desktop/liteos/Project2/BearPi_LiteOS/components/connectivity/lwm2m/core\internals.h ****  BUT NOT LIMITED TO, PROCUREMENT OF SUBSTITUTE GOODS OR SERVICES; LOSS OF USE,
  77:C:/Users/lenovo/Desktop/liteos/Project2/BearPi_LiteOS/components/connectivity/lwm2m/core\internals.h ****  DATA, OR PROFITS; OR BUSINESS INTERRUPTION) HOWEVER CAUSED AND ON ANY THEORY OF
  78:C:/Users/lenovo/Desktop/liteos/Project2/BearPi_LiteOS/components/connectivity/lwm2m/core\internals.h ****  LIABILITY, WHETHER IN CONTRACT, STRICT LIABILITY, OR TORT (INCLUDING NEGLIGENCE OR
  79:C:/Users/lenovo/Desktop/liteos/Project2/BearPi_LiteOS/components/connectivity/lwm2m/core\internals.h ****  OTHERWISE) ARISING IN ANY WAY OUT OF THE USE OF THIS SOFTWARE, EVEN IF ADVISED OF
  80:C:/Users/lenovo/Desktop/liteos/Project2/BearPi_LiteOS/components/connectivity/lwm2m/core\internals.h ****  THE POSSIBILITY OF SUCH DAMAGE.
  81:C:/Users/lenovo/Desktop/liteos/Project2/BearPi_LiteOS/components/connectivity/lwm2m/core\internals.h **** 
  82:C:/Users/lenovo/Desktop/liteos/Project2/BearPi_LiteOS/components/connectivity/lwm2m/core\internals.h ****  David Navarro <david.navarro@intel.com>
  83:C:/Users/lenovo/Desktop/liteos/Project2/BearPi_LiteOS/components/connectivity/lwm2m/core\internals.h **** 
  84:C:/Users/lenovo/Desktop/liteos/Project2/BearPi_LiteOS/components/connectivity/lwm2m/core\internals.h **** */
  85:C:/Users/lenovo/Desktop/liteos/Project2/BearPi_LiteOS/components/connectivity/lwm2m/core\internals.h **** 
  86:C:/Users/lenovo/Desktop/liteos/Project2/BearPi_LiteOS/components/connectivity/lwm2m/core\internals.h **** #ifndef _LWM2M_INTERNALS_H_
  87:C:/Users/lenovo/Desktop/liteos/Project2/BearPi_LiteOS/components/connectivity/lwm2m/core\internals.h **** #define _LWM2M_INTERNALS_H_
  88:C:/Users/lenovo/Desktop/liteos/Project2/BearPi_LiteOS/components/connectivity/lwm2m/core\internals.h **** 
  89:C:/Users/lenovo/Desktop/liteos/Project2/BearPi_LiteOS/components/connectivity/lwm2m/core\internals.h **** #include "liblwm2m.h"
  90:C:/Users/lenovo/Desktop/liteos/Project2/BearPi_LiteOS/components/connectivity/lwm2m/core\internals.h **** 
  91:C:/Users/lenovo/Desktop/liteos/Project2/BearPi_LiteOS/components/connectivity/lwm2m/core\internals.h **** #include <stdlib.h>
  92:C:/Users/lenovo/Desktop/liteos/Project2/BearPi_LiteOS/components/connectivity/lwm2m/core\internals.h **** #include <string.h>
  93:C:/Users/lenovo/Desktop/liteos/Project2/BearPi_LiteOS/components/connectivity/lwm2m/core\internals.h **** #include <stdio.h>
  94:C:/Users/lenovo/Desktop/liteos/Project2/BearPi_LiteOS/components/connectivity/lwm2m/core\internals.h **** #include <ctype.h>
  95:C:/Users/lenovo/Desktop/liteos/Project2/BearPi_LiteOS/components/connectivity/lwm2m/core\internals.h **** #include <stdint.h>
  96:C:/Users/lenovo/Desktop/liteos/Project2/BearPi_LiteOS/components/connectivity/lwm2m/core\internals.h **** #include <stddef.h>
  97:C:/Users/lenovo/Desktop/liteos/Project2/BearPi_LiteOS/components/connectivity/lwm2m/core\internals.h **** #include <stdbool.h>
  98:C:/Users/lenovo/Desktop/liteos/Project2/BearPi_LiteOS/components/connectivity/lwm2m/core\internals.h **** 
  99:C:/Users/lenovo/Desktop/liteos/Project2/BearPi_LiteOS/components/connectivity/lwm2m/core\internals.h **** #include "er-coap-13/er-coap-13.h"
 100:C:/Users/lenovo/Desktop/liteos/Project2/BearPi_LiteOS/components/connectivity/lwm2m/core\internals.h **** #include "connection.h"
 101:C:/Users/lenovo/Desktop/liteos/Project2/BearPi_LiteOS/components/connectivity/lwm2m/core\internals.h **** 
 102:C:/Users/lenovo/Desktop/liteos/Project2/BearPi_LiteOS/components/connectivity/lwm2m/core\internals.h **** 
 103:C:/Users/lenovo/Desktop/liteos/Project2/BearPi_LiteOS/components/connectivity/lwm2m/core\internals.h **** #ifdef LWM2M_WITH_LOGS
 104:C:/Users/lenovo/Desktop/liteos/Project2/BearPi_LiteOS/components/connectivity/lwm2m/core\internals.h **** #include <inttypes.h>
 105:C:/Users/lenovo/Desktop/liteos/Project2/BearPi_LiteOS/components/connectivity/lwm2m/core\internals.h **** #define LOG(STR) (void)lwm2m_printf("[%d][%s:%d] " STR "\r\n", (uint32_t)lwm2m_gettime(), __func__ 
 106:C:/Users/lenovo/Desktop/liteos/Project2/BearPi_LiteOS/components/connectivity/lwm2m/core\internals.h **** #define LOG_ARG(FMT, ...) (void)lwm2m_printf("[%d][%s:%d] " FMT "\r\n", (uint32_t)lwm2m_gettime(), 
 107:C:/Users/lenovo/Desktop/liteos/Project2/BearPi_LiteOS/components/connectivity/lwm2m/core\internals.h **** #define LOG_URI(URI)                                                                \
 108:C:/Users/lenovo/Desktop/liteos/Project2/BearPi_LiteOS/components/connectivity/lwm2m/core\internals.h **** {                                                                                   \
 109:C:/Users/lenovo/Desktop/liteos/Project2/BearPi_LiteOS/components/connectivity/lwm2m/core\internals.h ****     if ((URI) == NULL) (void)lwm2m_printf("[%s:%d] NULL\r\n", __func__ , __LINE__);     \
 110:C:/Users/lenovo/Desktop/liteos/Project2/BearPi_LiteOS/components/connectivity/lwm2m/core\internals.h ****     else                                                                            \
 111:C:/Users/lenovo/Desktop/liteos/Project2/BearPi_LiteOS/components/connectivity/lwm2m/core\internals.h ****     {                                                                               \
 112:C:/Users/lenovo/Desktop/liteos/Project2/BearPi_LiteOS/components/connectivity/lwm2m/core\internals.h ****         (void)lwm2m_printf("[%s:%d] /%d", __func__ , __LINE__ , (URI)->objectId);       \
 113:C:/Users/lenovo/Desktop/liteos/Project2/BearPi_LiteOS/components/connectivity/lwm2m/core\internals.h ****         if (LWM2M_URI_IS_SET_INSTANCE(URI)) (void)lwm2m_printf("/%d", (URI)->instanceId); \
 114:C:/Users/lenovo/Desktop/liteos/Project2/BearPi_LiteOS/components/connectivity/lwm2m/core\internals.h ****         if (LWM2M_URI_IS_SET_RESOURCE(URI)) (void)lwm2m_printf("/%d", (URI)->resourceId); \
 115:C:/Users/lenovo/Desktop/liteos/Project2/BearPi_LiteOS/components/connectivity/lwm2m/core\internals.h ****         (void)lwm2m_printf("\r\n");                                                       \
 116:C:/Users/lenovo/Desktop/liteos/Project2/BearPi_LiteOS/components/connectivity/lwm2m/core\internals.h ****     }                                                                               \
 117:C:/Users/lenovo/Desktop/liteos/Project2/BearPi_LiteOS/components/connectivity/lwm2m/core\internals.h **** }
 118:C:/Users/lenovo/Desktop/liteos/Project2/BearPi_LiteOS/components/connectivity/lwm2m/core\internals.h **** #define UNUSEX(x)
 119:C:/Users/lenovo/Desktop/liteos/Project2/BearPi_LiteOS/components/connectivity/lwm2m/core\internals.h **** #define STR_STATUS(S)                                           \
 120:C:/Users/lenovo/Desktop/liteos/Project2/BearPi_LiteOS/components/connectivity/lwm2m/core\internals.h **** ((S) == STATE_DEREGISTERED ? "STATE_DEREGISTERED" :             \
 121:C:/Users/lenovo/Desktop/liteos/Project2/BearPi_LiteOS/components/connectivity/lwm2m/core\internals.h **** ((S) == STATE_REG_PENDING ? "STATE_REG_PENDING" :               \
 122:C:/Users/lenovo/Desktop/liteos/Project2/BearPi_LiteOS/components/connectivity/lwm2m/core\internals.h **** ((S) == STATE_REGISTERED ? "STATE_REGISTERED" :                 \
 123:C:/Users/lenovo/Desktop/liteos/Project2/BearPi_LiteOS/components/connectivity/lwm2m/core\internals.h **** ((S) == STATE_REG_FAILED ? "STATE_REG_FAILED" :                 \
 124:C:/Users/lenovo/Desktop/liteos/Project2/BearPi_LiteOS/components/connectivity/lwm2m/core\internals.h **** ((S) == STATE_REG_UPDATE_PENDING ? "STATE_REG_UPDATE_PENDING" : \
 125:C:/Users/lenovo/Desktop/liteos/Project2/BearPi_LiteOS/components/connectivity/lwm2m/core\internals.h **** ((S) == STATE_REG_UPDATE_NEEDED ? "STATE_REG_UPDATE_NEEDED" :   \
ARM GAS  c:\Users\lenovo\AppData\Local\Temp\ccDAYDpu.s 			page 21


 126:C:/Users/lenovo/Desktop/liteos/Project2/BearPi_LiteOS/components/connectivity/lwm2m/core\internals.h **** ((S) == STATE_REG_FULL_UPDATE_NEEDED ? "STATE_REG_FULL_UPDATE_NEEDED" :   \
 127:C:/Users/lenovo/Desktop/liteos/Project2/BearPi_LiteOS/components/connectivity/lwm2m/core\internals.h **** ((S) == STATE_DEREG_PENDING ? "STATE_DEREG_PENDING" :           \
 128:C:/Users/lenovo/Desktop/liteos/Project2/BearPi_LiteOS/components/connectivity/lwm2m/core\internals.h **** ((S) == STATE_BS_HOLD_OFF ? "STATE_BS_HOLD_OFF" :               \
 129:C:/Users/lenovo/Desktop/liteos/Project2/BearPi_LiteOS/components/connectivity/lwm2m/core\internals.h **** ((S) == STATE_BS_INITIATED ? "STATE_BS_INITIATED" :             \
 130:C:/Users/lenovo/Desktop/liteos/Project2/BearPi_LiteOS/components/connectivity/lwm2m/core\internals.h **** ((S) == STATE_BS_PENDING ? "STATE_BS_PENDING" :                 \
 131:C:/Users/lenovo/Desktop/liteos/Project2/BearPi_LiteOS/components/connectivity/lwm2m/core\internals.h **** ((S) == STATE_BS_FINISHED ? "STATE_BS_FINISHED" :               \
 132:C:/Users/lenovo/Desktop/liteos/Project2/BearPi_LiteOS/components/connectivity/lwm2m/core\internals.h **** ((S) == STATE_BS_FINISHING ? "STATE_BS_FINISHING" :             \
 133:C:/Users/lenovo/Desktop/liteos/Project2/BearPi_LiteOS/components/connectivity/lwm2m/core\internals.h **** ((S) == STATE_BS_FAILING ? "STATE_BS_FAILING" :                 \
 134:C:/Users/lenovo/Desktop/liteos/Project2/BearPi_LiteOS/components/connectivity/lwm2m/core\internals.h **** ((S) == STATE_BS_FAILED ? "STATE_BS_FAILED" :                   \
 135:C:/Users/lenovo/Desktop/liteos/Project2/BearPi_LiteOS/components/connectivity/lwm2m/core\internals.h **** "Unknown")))))))))))))))
 136:C:/Users/lenovo/Desktop/liteos/Project2/BearPi_LiteOS/components/connectivity/lwm2m/core\internals.h **** #define STR_MEDIA_TYPE(M)                                \
 137:C:/Users/lenovo/Desktop/liteos/Project2/BearPi_LiteOS/components/connectivity/lwm2m/core\internals.h **** ((M) == LWM2M_CONTENT_TEXT ? "LWM2M_CONTENT_TEXT" :      \
 138:C:/Users/lenovo/Desktop/liteos/Project2/BearPi_LiteOS/components/connectivity/lwm2m/core\internals.h **** ((M) == LWM2M_CONTENT_LINK ? "LWM2M_CONTENT_LINK" :      \
 139:C:/Users/lenovo/Desktop/liteos/Project2/BearPi_LiteOS/components/connectivity/lwm2m/core\internals.h **** ((M) == LWM2M_CONTENT_OPAQUE ? "LWM2M_CONTENT_OPAQUE" :  \
 140:C:/Users/lenovo/Desktop/liteos/Project2/BearPi_LiteOS/components/connectivity/lwm2m/core\internals.h **** ((M) == LWM2M_CONTENT_TLV ? "LWM2M_CONTENT_TLV" :        \
 141:C:/Users/lenovo/Desktop/liteos/Project2/BearPi_LiteOS/components/connectivity/lwm2m/core\internals.h **** ((M) == LWM2M_CONTENT_JSON ? "LWM2M_CONTENT_JSON" :      \
 142:C:/Users/lenovo/Desktop/liteos/Project2/BearPi_LiteOS/components/connectivity/lwm2m/core\internals.h **** "Unknown")))))
 143:C:/Users/lenovo/Desktop/liteos/Project2/BearPi_LiteOS/components/connectivity/lwm2m/core\internals.h **** #define STR_STATE(S)                                \
 144:C:/Users/lenovo/Desktop/liteos/Project2/BearPi_LiteOS/components/connectivity/lwm2m/core\internals.h **** ((S) == STATE_INITIAL ? "STATE_INITIAL" :      \
 145:C:/Users/lenovo/Desktop/liteos/Project2/BearPi_LiteOS/components/connectivity/lwm2m/core\internals.h **** ((S) == STATE_BOOTSTRAP_REQUIRED ? "STATE_BOOTSTRAP_REQUIRED" :      \
 146:C:/Users/lenovo/Desktop/liteos/Project2/BearPi_LiteOS/components/connectivity/lwm2m/core\internals.h **** ((S) == STATE_BOOTSTRAPPING ? "STATE_BOOTSTRAPPING" :  \
 147:C:/Users/lenovo/Desktop/liteos/Project2/BearPi_LiteOS/components/connectivity/lwm2m/core\internals.h **** ((S) == STATE_REGISTER_REQUIRED ? "STATE_REGISTER_REQUIRED" :        \
 148:C:/Users/lenovo/Desktop/liteos/Project2/BearPi_LiteOS/components/connectivity/lwm2m/core\internals.h **** ((S) == STATE_REGISTERING ? "STATE_REGISTERING" :      \
 149:C:/Users/lenovo/Desktop/liteos/Project2/BearPi_LiteOS/components/connectivity/lwm2m/core\internals.h **** ((S) == STATE_READY ? "STATE_READY" :      \
 150:C:/Users/lenovo/Desktop/liteos/Project2/BearPi_LiteOS/components/connectivity/lwm2m/core\internals.h **** "Unknown"))))))
 151:C:/Users/lenovo/Desktop/liteos/Project2/BearPi_LiteOS/components/connectivity/lwm2m/core\internals.h **** #else
 152:C:/Users/lenovo/Desktop/liteos/Project2/BearPi_LiteOS/components/connectivity/lwm2m/core\internals.h **** #define UNUSEX(x) (x)=(x)
 153:C:/Users/lenovo/Desktop/liteos/Project2/BearPi_LiteOS/components/connectivity/lwm2m/core\internals.h **** #define LOG_ARG(FMT, ...)
 154:C:/Users/lenovo/Desktop/liteos/Project2/BearPi_LiteOS/components/connectivity/lwm2m/core\internals.h **** #define LOG(STR)
 155:C:/Users/lenovo/Desktop/liteos/Project2/BearPi_LiteOS/components/connectivity/lwm2m/core\internals.h **** #define LOG_URI(URI)
 156:C:/Users/lenovo/Desktop/liteos/Project2/BearPi_LiteOS/components/connectivity/lwm2m/core\internals.h **** #endif
 157:C:/Users/lenovo/Desktop/liteos/Project2/BearPi_LiteOS/components/connectivity/lwm2m/core\internals.h **** 
 158:C:/Users/lenovo/Desktop/liteos/Project2/BearPi_LiteOS/components/connectivity/lwm2m/core\internals.h **** #define LWM2M_DEFAULT_LIFETIME  86400
 159:C:/Users/lenovo/Desktop/liteos/Project2/BearPi_LiteOS/components/connectivity/lwm2m/core\internals.h **** 
 160:C:/Users/lenovo/Desktop/liteos/Project2/BearPi_LiteOS/components/connectivity/lwm2m/core\internals.h **** #ifdef LWM2M_SUPPORT_JSON
 161:C:/Users/lenovo/Desktop/liteos/Project2/BearPi_LiteOS/components/connectivity/lwm2m/core\internals.h **** #define REG_LWM2M_RESOURCE_TYPE     ">;rt=\"oma.lwm2m\";ct=11543,"
 162:C:/Users/lenovo/Desktop/liteos/Project2/BearPi_LiteOS/components/connectivity/lwm2m/core\internals.h **** #define REG_LWM2M_RESOURCE_TYPE_LEN 25
 163:C:/Users/lenovo/Desktop/liteos/Project2/BearPi_LiteOS/components/connectivity/lwm2m/core\internals.h **** #else
 164:C:/Users/lenovo/Desktop/liteos/Project2/BearPi_LiteOS/components/connectivity/lwm2m/core\internals.h **** #define REG_LWM2M_RESOURCE_TYPE     ">;rt=\"oma.lwm2m\","
 165:C:/Users/lenovo/Desktop/liteos/Project2/BearPi_LiteOS/components/connectivity/lwm2m/core\internals.h **** #define REG_LWM2M_RESOURCE_TYPE_LEN 17
 166:C:/Users/lenovo/Desktop/liteos/Project2/BearPi_LiteOS/components/connectivity/lwm2m/core\internals.h **** #endif
 167:C:/Users/lenovo/Desktop/liteos/Project2/BearPi_LiteOS/components/connectivity/lwm2m/core\internals.h **** #define REG_START           "<"
 168:C:/Users/lenovo/Desktop/liteos/Project2/BearPi_LiteOS/components/connectivity/lwm2m/core\internals.h **** #define REG_DEFAULT_PATH    "/"
 169:C:/Users/lenovo/Desktop/liteos/Project2/BearPi_LiteOS/components/connectivity/lwm2m/core\internals.h **** 
 170:C:/Users/lenovo/Desktop/liteos/Project2/BearPi_LiteOS/components/connectivity/lwm2m/core\internals.h **** #define REG_OBJECT_MIN_LEN  5   // "</n>,"
 171:C:/Users/lenovo/Desktop/liteos/Project2/BearPi_LiteOS/components/connectivity/lwm2m/core\internals.h **** #define REG_PATH_END        ">,"
 172:C:/Users/lenovo/Desktop/liteos/Project2/BearPi_LiteOS/components/connectivity/lwm2m/core\internals.h **** #define REG_PATH_SEPARATOR  "/"
 173:C:/Users/lenovo/Desktop/liteos/Project2/BearPi_LiteOS/components/connectivity/lwm2m/core\internals.h **** 
 174:C:/Users/lenovo/Desktop/liteos/Project2/BearPi_LiteOS/components/connectivity/lwm2m/core\internals.h **** #define REG_OBJECT_PATH             "<%s/%hu>,"
 175:C:/Users/lenovo/Desktop/liteos/Project2/BearPi_LiteOS/components/connectivity/lwm2m/core\internals.h **** #define REG_OBJECT_INSTANCE_PATH    "<%s/%hu/%hu>,"
 176:C:/Users/lenovo/Desktop/liteos/Project2/BearPi_LiteOS/components/connectivity/lwm2m/core\internals.h **** 
 177:C:/Users/lenovo/Desktop/liteos/Project2/BearPi_LiteOS/components/connectivity/lwm2m/core\internals.h **** #define URI_REGISTRATION_SEGMENT        "rd"
 178:C:/Users/lenovo/Desktop/liteos/Project2/BearPi_LiteOS/components/connectivity/lwm2m/core\internals.h **** #define URI_REGISTRATION_SEGMENT_LEN    2
 179:C:/Users/lenovo/Desktop/liteos/Project2/BearPi_LiteOS/components/connectivity/lwm2m/core\internals.h **** #define URI_BOOTSTRAP_SEGMENT           "bs"
 180:C:/Users/lenovo/Desktop/liteos/Project2/BearPi_LiteOS/components/connectivity/lwm2m/core\internals.h **** #define URI_BOOTSTRAP_SEGMENT_LEN       2
 181:C:/Users/lenovo/Desktop/liteos/Project2/BearPi_LiteOS/components/connectivity/lwm2m/core\internals.h **** 
 182:C:/Users/lenovo/Desktop/liteos/Project2/BearPi_LiteOS/components/connectivity/lwm2m/core\internals.h **** #define QUERY_STARTER       "?"
ARM GAS  c:\Users\lenovo\AppData\Local\Temp\ccDAYDpu.s 			page 22


 183:C:/Users/lenovo/Desktop/liteos/Project2/BearPi_LiteOS/components/connectivity/lwm2m/core\internals.h **** #define QUERY_NAME          "ep="
 184:C:/Users/lenovo/Desktop/liteos/Project2/BearPi_LiteOS/components/connectivity/lwm2m/core\internals.h **** #define QUERY_NAME_LEN      3       // strlen("ep=")
 185:C:/Users/lenovo/Desktop/liteos/Project2/BearPi_LiteOS/components/connectivity/lwm2m/core\internals.h **** #define QUERY_SMS           "sms="
 186:C:/Users/lenovo/Desktop/liteos/Project2/BearPi_LiteOS/components/connectivity/lwm2m/core\internals.h **** #define QUERY_SMS_LEN       4
 187:C:/Users/lenovo/Desktop/liteos/Project2/BearPi_LiteOS/components/connectivity/lwm2m/core\internals.h **** #define QUERY_LIFETIME      "lt="
 188:C:/Users/lenovo/Desktop/liteos/Project2/BearPi_LiteOS/components/connectivity/lwm2m/core\internals.h **** #define QUERY_LIFETIME_LEN  3
 189:C:/Users/lenovo/Desktop/liteos/Project2/BearPi_LiteOS/components/connectivity/lwm2m/core\internals.h **** #define QUERY_VERSION       "lwm2m="
 190:C:/Users/lenovo/Desktop/liteos/Project2/BearPi_LiteOS/components/connectivity/lwm2m/core\internals.h **** #define QUERY_VERSION_LEN   6
 191:C:/Users/lenovo/Desktop/liteos/Project2/BearPi_LiteOS/components/connectivity/lwm2m/core\internals.h **** #define QUERY_BINDING       "b="
 192:C:/Users/lenovo/Desktop/liteos/Project2/BearPi_LiteOS/components/connectivity/lwm2m/core\internals.h **** #define QUERY_BINDING_LEN   2
 193:C:/Users/lenovo/Desktop/liteos/Project2/BearPi_LiteOS/components/connectivity/lwm2m/core\internals.h **** #define QUERY_DELIMITER     "&"
 194:C:/Users/lenovo/Desktop/liteos/Project2/BearPi_LiteOS/components/connectivity/lwm2m/core\internals.h **** 
 195:C:/Users/lenovo/Desktop/liteos/Project2/BearPi_LiteOS/components/connectivity/lwm2m/core\internals.h **** #define LWM2M_VERSION      "1.0"
 196:C:/Users/lenovo/Desktop/liteos/Project2/BearPi_LiteOS/components/connectivity/lwm2m/core\internals.h **** #define LWM2M_VERSION_LEN  3
 197:C:/Users/lenovo/Desktop/liteos/Project2/BearPi_LiteOS/components/connectivity/lwm2m/core\internals.h **** 
 198:C:/Users/lenovo/Desktop/liteos/Project2/BearPi_LiteOS/components/connectivity/lwm2m/core\internals.h **** #define QUERY_VERSION_FULL      QUERY_VERSION LWM2M_VERSION
 199:C:/Users/lenovo/Desktop/liteos/Project2/BearPi_LiteOS/components/connectivity/lwm2m/core\internals.h **** #define QUERY_VERSION_FULL_LEN  QUERY_VERSION_LEN+LWM2M_VERSION_LEN
 200:C:/Users/lenovo/Desktop/liteos/Project2/BearPi_LiteOS/components/connectivity/lwm2m/core\internals.h **** 
 201:C:/Users/lenovo/Desktop/liteos/Project2/BearPi_LiteOS/components/connectivity/lwm2m/core\internals.h **** #define REG_URI_START       '<'
 202:C:/Users/lenovo/Desktop/liteos/Project2/BearPi_LiteOS/components/connectivity/lwm2m/core\internals.h **** #define REG_URI_END         '>'
 203:C:/Users/lenovo/Desktop/liteos/Project2/BearPi_LiteOS/components/connectivity/lwm2m/core\internals.h **** #define REG_DELIMITER       ','
 204:C:/Users/lenovo/Desktop/liteos/Project2/BearPi_LiteOS/components/connectivity/lwm2m/core\internals.h **** #define REG_ATTR_SEPARATOR  ';'
 205:C:/Users/lenovo/Desktop/liteos/Project2/BearPi_LiteOS/components/connectivity/lwm2m/core\internals.h **** #define REG_ATTR_EQUALS     '='
 206:C:/Users/lenovo/Desktop/liteos/Project2/BearPi_LiteOS/components/connectivity/lwm2m/core\internals.h **** #define REG_ATTR_TYPE_KEY           "rt"
 207:C:/Users/lenovo/Desktop/liteos/Project2/BearPi_LiteOS/components/connectivity/lwm2m/core\internals.h **** #define REG_ATTR_TYPE_KEY_LEN       2
 208:C:/Users/lenovo/Desktop/liteos/Project2/BearPi_LiteOS/components/connectivity/lwm2m/core\internals.h **** #define REG_ATTR_TYPE_VALUE         "\"oma.lwm2m\""
 209:C:/Users/lenovo/Desktop/liteos/Project2/BearPi_LiteOS/components/connectivity/lwm2m/core\internals.h **** #define REG_ATTR_TYPE_VALUE_LEN     11
 210:C:/Users/lenovo/Desktop/liteos/Project2/BearPi_LiteOS/components/connectivity/lwm2m/core\internals.h **** #define REG_ATTR_CONTENT_KEY        "ct"
 211:C:/Users/lenovo/Desktop/liteos/Project2/BearPi_LiteOS/components/connectivity/lwm2m/core\internals.h **** #define REG_ATTR_CONTENT_KEY_LEN    2
 212:C:/Users/lenovo/Desktop/liteos/Project2/BearPi_LiteOS/components/connectivity/lwm2m/core\internals.h **** #define REG_ATTR_CONTENT_JSON       "11543"   // Temporary value
 213:C:/Users/lenovo/Desktop/liteos/Project2/BearPi_LiteOS/components/connectivity/lwm2m/core\internals.h **** #define REG_ATTR_CONTENT_JSON_LEN   5
 214:C:/Users/lenovo/Desktop/liteos/Project2/BearPi_LiteOS/components/connectivity/lwm2m/core\internals.h **** 
 215:C:/Users/lenovo/Desktop/liteos/Project2/BearPi_LiteOS/components/connectivity/lwm2m/core\internals.h **** #define ATTR_SERVER_ID_STR       "ep="
 216:C:/Users/lenovo/Desktop/liteos/Project2/BearPi_LiteOS/components/connectivity/lwm2m/core\internals.h **** #define ATTR_SERVER_ID_LEN       3
 217:C:/Users/lenovo/Desktop/liteos/Project2/BearPi_LiteOS/components/connectivity/lwm2m/core\internals.h **** #define ATTR_MIN_PERIOD_STR      "pmin="
 218:C:/Users/lenovo/Desktop/liteos/Project2/BearPi_LiteOS/components/connectivity/lwm2m/core\internals.h **** #define ATTR_MIN_PERIOD_LEN      5
 219:C:/Users/lenovo/Desktop/liteos/Project2/BearPi_LiteOS/components/connectivity/lwm2m/core\internals.h **** #define ATTR_MAX_PERIOD_STR      "pmax="
 220:C:/Users/lenovo/Desktop/liteos/Project2/BearPi_LiteOS/components/connectivity/lwm2m/core\internals.h **** #define ATTR_MAX_PERIOD_LEN      5
 221:C:/Users/lenovo/Desktop/liteos/Project2/BearPi_LiteOS/components/connectivity/lwm2m/core\internals.h **** #define ATTR_GREATER_THAN_STR    "gt="
 222:C:/Users/lenovo/Desktop/liteos/Project2/BearPi_LiteOS/components/connectivity/lwm2m/core\internals.h **** #define ATTR_GREATER_THAN_LEN    3
 223:C:/Users/lenovo/Desktop/liteos/Project2/BearPi_LiteOS/components/connectivity/lwm2m/core\internals.h **** #define ATTR_LESS_THAN_STR       "lt="
 224:C:/Users/lenovo/Desktop/liteos/Project2/BearPi_LiteOS/components/connectivity/lwm2m/core\internals.h **** #define ATTR_LESS_THAN_LEN       3
 225:C:/Users/lenovo/Desktop/liteos/Project2/BearPi_LiteOS/components/connectivity/lwm2m/core\internals.h **** #define ATTR_STEP_STR            "st="
 226:C:/Users/lenovo/Desktop/liteos/Project2/BearPi_LiteOS/components/connectivity/lwm2m/core\internals.h **** #define ATTR_STEP_LEN            3
 227:C:/Users/lenovo/Desktop/liteos/Project2/BearPi_LiteOS/components/connectivity/lwm2m/core\internals.h **** #define ATTR_DIMENSION_STR       "dim="
 228:C:/Users/lenovo/Desktop/liteos/Project2/BearPi_LiteOS/components/connectivity/lwm2m/core\internals.h **** #define ATTR_DIMENSION_LEN       4
 229:C:/Users/lenovo/Desktop/liteos/Project2/BearPi_LiteOS/components/connectivity/lwm2m/core\internals.h **** 
 230:C:/Users/lenovo/Desktop/liteos/Project2/BearPi_LiteOS/components/connectivity/lwm2m/core\internals.h **** #define URI_MAX_STRING_LEN    18      // /65535/65535/65535
 231:C:/Users/lenovo/Desktop/liteos/Project2/BearPi_LiteOS/components/connectivity/lwm2m/core\internals.h **** #define _PRV_64BIT_BUFFER_SIZE 8
 232:C:/Users/lenovo/Desktop/liteos/Project2/BearPi_LiteOS/components/connectivity/lwm2m/core\internals.h **** 
 233:C:/Users/lenovo/Desktop/liteos/Project2/BearPi_LiteOS/components/connectivity/lwm2m/core\internals.h **** #define LINK_ITEM_START             "<"
 234:C:/Users/lenovo/Desktop/liteos/Project2/BearPi_LiteOS/components/connectivity/lwm2m/core\internals.h **** #define LINK_ITEM_START_SIZE        1
 235:C:/Users/lenovo/Desktop/liteos/Project2/BearPi_LiteOS/components/connectivity/lwm2m/core\internals.h **** #define LINK_ITEM_END               ">,"
 236:C:/Users/lenovo/Desktop/liteos/Project2/BearPi_LiteOS/components/connectivity/lwm2m/core\internals.h **** #define LINK_ITEM_END_SIZE          2
 237:C:/Users/lenovo/Desktop/liteos/Project2/BearPi_LiteOS/components/connectivity/lwm2m/core\internals.h **** #define LINK_ITEM_DIM_START         ">;dim="
 238:C:/Users/lenovo/Desktop/liteos/Project2/BearPi_LiteOS/components/connectivity/lwm2m/core\internals.h **** #define LINK_ITEM_DIM_START_SIZE    6
 239:C:/Users/lenovo/Desktop/liteos/Project2/BearPi_LiteOS/components/connectivity/lwm2m/core\internals.h **** #define LINK_ITEM_ATTR_END          ","
ARM GAS  c:\Users\lenovo\AppData\Local\Temp\ccDAYDpu.s 			page 23


 240:C:/Users/lenovo/Desktop/liteos/Project2/BearPi_LiteOS/components/connectivity/lwm2m/core\internals.h **** #define LINK_ITEM_ATTR_END_SIZE     1
 241:C:/Users/lenovo/Desktop/liteos/Project2/BearPi_LiteOS/components/connectivity/lwm2m/core\internals.h **** #define LINK_URI_SEPARATOR          "/"
 242:C:/Users/lenovo/Desktop/liteos/Project2/BearPi_LiteOS/components/connectivity/lwm2m/core\internals.h **** #define LINK_URI_SEPARATOR_SIZE     1
 243:C:/Users/lenovo/Desktop/liteos/Project2/BearPi_LiteOS/components/connectivity/lwm2m/core\internals.h **** #define LINK_ATTR_SEPARATOR         ";"
 244:C:/Users/lenovo/Desktop/liteos/Project2/BearPi_LiteOS/components/connectivity/lwm2m/core\internals.h **** #define LINK_ATTR_SEPARATOR_SIZE    1
 245:C:/Users/lenovo/Desktop/liteos/Project2/BearPi_LiteOS/components/connectivity/lwm2m/core\internals.h **** 
 246:C:/Users/lenovo/Desktop/liteos/Project2/BearPi_LiteOS/components/connectivity/lwm2m/core\internals.h **** #define ATTR_FLAG_NUMERIC (uint8_t)(LWM2M_ATTR_FLAG_LESS_THAN | LWM2M_ATTR_FLAG_GREATER_THAN | LWM2
 247:C:/Users/lenovo/Desktop/liteos/Project2/BearPi_LiteOS/components/connectivity/lwm2m/core\internals.h **** 
 248:C:/Users/lenovo/Desktop/liteos/Project2/BearPi_LiteOS/components/connectivity/lwm2m/core\internals.h **** #define LWM2M_URI_FLAG_DM           (uint8_t)0x00
 249:C:/Users/lenovo/Desktop/liteos/Project2/BearPi_LiteOS/components/connectivity/lwm2m/core\internals.h **** #define LWM2M_URI_FLAG_DELETE_ALL   (uint8_t)0x10
 250:C:/Users/lenovo/Desktop/liteos/Project2/BearPi_LiteOS/components/connectivity/lwm2m/core\internals.h **** #define LWM2M_URI_FLAG_REGISTRATION (uint8_t)0x20
 251:C:/Users/lenovo/Desktop/liteos/Project2/BearPi_LiteOS/components/connectivity/lwm2m/core\internals.h **** #define LWM2M_URI_FLAG_BOOTSTRAP    (uint8_t)0x40
 252:C:/Users/lenovo/Desktop/liteos/Project2/BearPi_LiteOS/components/connectivity/lwm2m/core\internals.h **** 
 253:C:/Users/lenovo/Desktop/liteos/Project2/BearPi_LiteOS/components/connectivity/lwm2m/core\internals.h **** #define LWM2M_URI_MASK_TYPE (uint8_t)0x70
 254:C:/Users/lenovo/Desktop/liteos/Project2/BearPi_LiteOS/components/connectivity/lwm2m/core\internals.h **** #define LWM2M_URI_MASK_ID   (uint8_t)0x07
 255:C:/Users/lenovo/Desktop/liteos/Project2/BearPi_LiteOS/components/connectivity/lwm2m/core\internals.h **** 
 256:C:/Users/lenovo/Desktop/liteos/Project2/BearPi_LiteOS/components/connectivity/lwm2m/core\internals.h **** typedef struct
 257:C:/Users/lenovo/Desktop/liteos/Project2/BearPi_LiteOS/components/connectivity/lwm2m/core\internals.h **** {
 258:C:/Users/lenovo/Desktop/liteos/Project2/BearPi_LiteOS/components/connectivity/lwm2m/core\internals.h ****     uint16_t clientID;
 259:C:/Users/lenovo/Desktop/liteos/Project2/BearPi_LiteOS/components/connectivity/lwm2m/core\internals.h ****     lwm2m_uri_t uri;
 260:C:/Users/lenovo/Desktop/liteos/Project2/BearPi_LiteOS/components/connectivity/lwm2m/core\internals.h ****     lwm2m_result_callback_t callback;
 261:C:/Users/lenovo/Desktop/liteos/Project2/BearPi_LiteOS/components/connectivity/lwm2m/core\internals.h ****     void * userData;
 262:C:/Users/lenovo/Desktop/liteos/Project2/BearPi_LiteOS/components/connectivity/lwm2m/core\internals.h **** } dm_data_t;
 263:C:/Users/lenovo/Desktop/liteos/Project2/BearPi_LiteOS/components/connectivity/lwm2m/core\internals.h **** 
 264:C:/Users/lenovo/Desktop/liteos/Project2/BearPi_LiteOS/components/connectivity/lwm2m/core\internals.h **** typedef enum
 265:C:/Users/lenovo/Desktop/liteos/Project2/BearPi_LiteOS/components/connectivity/lwm2m/core\internals.h **** {
 266:C:/Users/lenovo/Desktop/liteos/Project2/BearPi_LiteOS/components/connectivity/lwm2m/core\internals.h ****     URI_DEPTH_OBJECT,
 267:C:/Users/lenovo/Desktop/liteos/Project2/BearPi_LiteOS/components/connectivity/lwm2m/core\internals.h ****     URI_DEPTH_OBJECT_INSTANCE,
 268:C:/Users/lenovo/Desktop/liteos/Project2/BearPi_LiteOS/components/connectivity/lwm2m/core\internals.h ****     URI_DEPTH_RESOURCE,
 269:C:/Users/lenovo/Desktop/liteos/Project2/BearPi_LiteOS/components/connectivity/lwm2m/core\internals.h ****     URI_DEPTH_RESOURCE_INSTANCE
 270:C:/Users/lenovo/Desktop/liteos/Project2/BearPi_LiteOS/components/connectivity/lwm2m/core\internals.h **** } uri_depth_t;
 271:C:/Users/lenovo/Desktop/liteos/Project2/BearPi_LiteOS/components/connectivity/lwm2m/core\internals.h **** 
 272:C:/Users/lenovo/Desktop/liteos/Project2/BearPi_LiteOS/components/connectivity/lwm2m/core\internals.h **** #ifdef LWM2M_BOOTSTRAP_SERVER_MODE
 273:C:/Users/lenovo/Desktop/liteos/Project2/BearPi_LiteOS/components/connectivity/lwm2m/core\internals.h **** typedef struct
 274:C:/Users/lenovo/Desktop/liteos/Project2/BearPi_LiteOS/components/connectivity/lwm2m/core\internals.h **** {
 275:C:/Users/lenovo/Desktop/liteos/Project2/BearPi_LiteOS/components/connectivity/lwm2m/core\internals.h ****     bool        isUri;
 276:C:/Users/lenovo/Desktop/liteos/Project2/BearPi_LiteOS/components/connectivity/lwm2m/core\internals.h ****     lwm2m_uri_t uri;
 277:C:/Users/lenovo/Desktop/liteos/Project2/BearPi_LiteOS/components/connectivity/lwm2m/core\internals.h ****     lwm2m_bootstrap_callback_t callback;
 278:C:/Users/lenovo/Desktop/liteos/Project2/BearPi_LiteOS/components/connectivity/lwm2m/core\internals.h ****     void *      userData;
 279:C:/Users/lenovo/Desktop/liteos/Project2/BearPi_LiteOS/components/connectivity/lwm2m/core\internals.h **** } bs_data_t;
 280:C:/Users/lenovo/Desktop/liteos/Project2/BearPi_LiteOS/components/connectivity/lwm2m/core\internals.h **** #endif
 281:C:/Users/lenovo/Desktop/liteos/Project2/BearPi_LiteOS/components/connectivity/lwm2m/core\internals.h **** 
 282:C:/Users/lenovo/Desktop/liteos/Project2/BearPi_LiteOS/components/connectivity/lwm2m/core\internals.h **** // defined in uri.c
 283:C:/Users/lenovo/Desktop/liteos/Project2/BearPi_LiteOS/components/connectivity/lwm2m/core\internals.h **** lwm2m_uri_t * uri_decode(char * altPath, multi_option_t *uriPath);
 284:C:/Users/lenovo/Desktop/liteos/Project2/BearPi_LiteOS/components/connectivity/lwm2m/core\internals.h **** int uri_getNumber(uint8_t * uriString, size_t uriLength);
 285:C:/Users/lenovo/Desktop/liteos/Project2/BearPi_LiteOS/components/connectivity/lwm2m/core\internals.h **** int uri_toString(lwm2m_uri_t * uriP, uint8_t * buffer, size_t bufferLen, uri_depth_t * depthP);
 286:C:/Users/lenovo/Desktop/liteos/Project2/BearPi_LiteOS/components/connectivity/lwm2m/core\internals.h **** 
 287:C:/Users/lenovo/Desktop/liteos/Project2/BearPi_LiteOS/components/connectivity/lwm2m/core\internals.h **** // defined in objects.c
 288:C:/Users/lenovo/Desktop/liteos/Project2/BearPi_LiteOS/components/connectivity/lwm2m/core\internals.h **** uint8_t object_readData(lwm2m_context_t * contextP, lwm2m_uri_t * uriP, int * sizeP, lwm2m_data_t *
 289:C:/Users/lenovo/Desktop/liteos/Project2/BearPi_LiteOS/components/connectivity/lwm2m/core\internals.h **** uint8_t object_read(lwm2m_context_t * contextP, lwm2m_uri_t * uriP, lwm2m_media_type_t * formatP, u
 290:C:/Users/lenovo/Desktop/liteos/Project2/BearPi_LiteOS/components/connectivity/lwm2m/core\internals.h **** uint8_t object_write(lwm2m_context_t * contextP, lwm2m_uri_t * uriP, lwm2m_media_type_t format, uin
 291:C:/Users/lenovo/Desktop/liteos/Project2/BearPi_LiteOS/components/connectivity/lwm2m/core\internals.h **** uint8_t object_create(lwm2m_context_t * contextP, lwm2m_uri_t * uriP, lwm2m_media_type_t format, ui
 292:C:/Users/lenovo/Desktop/liteos/Project2/BearPi_LiteOS/components/connectivity/lwm2m/core\internals.h **** uint8_t object_execute(lwm2m_context_t * contextP, lwm2m_uri_t * uriP, uint8_t * buffer, size_t len
 293:C:/Users/lenovo/Desktop/liteos/Project2/BearPi_LiteOS/components/connectivity/lwm2m/core\internals.h **** uint8_t object_delete(lwm2m_context_t * contextP, lwm2m_uri_t * uriP);
 294:C:/Users/lenovo/Desktop/liteos/Project2/BearPi_LiteOS/components/connectivity/lwm2m/core\internals.h **** uint8_t object_discover(lwm2m_context_t * contextP, lwm2m_uri_t * uriP, lwm2m_server_t * serverP, u
 295:C:/Users/lenovo/Desktop/liteos/Project2/BearPi_LiteOS/components/connectivity/lwm2m/core\internals.h **** uint8_t object_checkReadable(lwm2m_context_t * contextP, lwm2m_uri_t * uriP);
 296:C:/Users/lenovo/Desktop/liteos/Project2/BearPi_LiteOS/components/connectivity/lwm2m/core\internals.h **** uint8_t object_checkNumeric(lwm2m_context_t * contextP, lwm2m_uri_t * uriP);
ARM GAS  c:\Users\lenovo\AppData\Local\Temp\ccDAYDpu.s 			page 24


 297:C:/Users/lenovo/Desktop/liteos/Project2/BearPi_LiteOS/components/connectivity/lwm2m/core\internals.h **** bool object_isInstanceNew(lwm2m_context_t * contextP, uint16_t objectId, uint16_t instanceId);
 298:C:/Users/lenovo/Desktop/liteos/Project2/BearPi_LiteOS/components/connectivity/lwm2m/core\internals.h **** int object_getRegisterPayloadBufferLength(lwm2m_context_t * contextP);
 299:C:/Users/lenovo/Desktop/liteos/Project2/BearPi_LiteOS/components/connectivity/lwm2m/core\internals.h **** int object_getRegisterPayload(lwm2m_context_t * contextP, uint8_t * buffer, size_t length);
 300:C:/Users/lenovo/Desktop/liteos/Project2/BearPi_LiteOS/components/connectivity/lwm2m/core\internals.h **** int object_getServers(lwm2m_context_t * contextP, bool checkOnly);
 301:C:/Users/lenovo/Desktop/liteos/Project2/BearPi_LiteOS/components/connectivity/lwm2m/core\internals.h **** uint8_t object_createInstance(lwm2m_context_t * contextP, lwm2m_uri_t * uriP, lwm2m_data_t * dataP)
 302:C:/Users/lenovo/Desktop/liteos/Project2/BearPi_LiteOS/components/connectivity/lwm2m/core\internals.h **** uint8_t object_writeInstance(lwm2m_context_t * contextP, lwm2m_uri_t * uriP, lwm2m_data_t * dataP);
 303:C:/Users/lenovo/Desktop/liteos/Project2/BearPi_LiteOS/components/connectivity/lwm2m/core\internals.h **** 
 304:C:/Users/lenovo/Desktop/liteos/Project2/BearPi_LiteOS/components/connectivity/lwm2m/core\internals.h **** // defined in transaction.c
 305:C:/Users/lenovo/Desktop/liteos/Project2/BearPi_LiteOS/components/connectivity/lwm2m/core\internals.h **** lwm2m_transaction_t * transaction_new(void * sessionH, unsigned char method, char * altPath, lwm2m_
 306:C:/Users/lenovo/Desktop/liteos/Project2/BearPi_LiteOS/components/connectivity/lwm2m/core\internals.h **** int transaction_send(lwm2m_context_t * contextP, lwm2m_transaction_t * transacP);
 307:C:/Users/lenovo/Desktop/liteos/Project2/BearPi_LiteOS/components/connectivity/lwm2m/core\internals.h **** void transaction_free(lwm2m_transaction_t * transacP);
 308:C:/Users/lenovo/Desktop/liteos/Project2/BearPi_LiteOS/components/connectivity/lwm2m/core\internals.h **** void transaction_remove(lwm2m_context_t * contextP, lwm2m_transaction_t * transacP);
 309:C:/Users/lenovo/Desktop/liteos/Project2/BearPi_LiteOS/components/connectivity/lwm2m/core\internals.h **** bool transaction_handleResponse(lwm2m_context_t * contextP, void * fromSessionH, coap_packet_t * me
 310:C:/Users/lenovo/Desktop/liteos/Project2/BearPi_LiteOS/components/connectivity/lwm2m/core\internals.h **** void transaction_step(lwm2m_context_t * contextP, time_t currentTime, time_t * timeoutP);
 311:C:/Users/lenovo/Desktop/liteos/Project2/BearPi_LiteOS/components/connectivity/lwm2m/core\internals.h **** 
 312:C:/Users/lenovo/Desktop/liteos/Project2/BearPi_LiteOS/components/connectivity/lwm2m/core\internals.h **** // defined in management.c
 313:C:/Users/lenovo/Desktop/liteos/Project2/BearPi_LiteOS/components/connectivity/lwm2m/core\internals.h **** uint8_t dm_handleRequest(lwm2m_context_t * contextP, lwm2m_uri_t * uriP, lwm2m_server_t * serverP, 
 314:C:/Users/lenovo/Desktop/liteos/Project2/BearPi_LiteOS/components/connectivity/lwm2m/core\internals.h **** 
 315:C:/Users/lenovo/Desktop/liteos/Project2/BearPi_LiteOS/components/connectivity/lwm2m/core\internals.h **** // defined in observe.c
 316:C:/Users/lenovo/Desktop/liteos/Project2/BearPi_LiteOS/components/connectivity/lwm2m/core\internals.h **** uint8_t observe_handleRequest(lwm2m_context_t * contextP, lwm2m_uri_t * uriP, lwm2m_server_t * serv
 317:C:/Users/lenovo/Desktop/liteos/Project2/BearPi_LiteOS/components/connectivity/lwm2m/core\internals.h **** void observe_cancel(lwm2m_context_t * contextP, uint16_t mid, void * fromSessionH);
 318:C:/Users/lenovo/Desktop/liteos/Project2/BearPi_LiteOS/components/connectivity/lwm2m/core\internals.h **** uint8_t observe_setParameters(lwm2m_context_t * contextP, lwm2m_uri_t * uriP, lwm2m_server_t * serv
 319:C:/Users/lenovo/Desktop/liteos/Project2/BearPi_LiteOS/components/connectivity/lwm2m/core\internals.h **** void observe_step(lwm2m_context_t * contextP, time_t currentTime, time_t * timeoutP);
 320:C:/Users/lenovo/Desktop/liteos/Project2/BearPi_LiteOS/components/connectivity/lwm2m/core\internals.h **** void observe_clear(lwm2m_context_t * contextP, lwm2m_uri_t * uriP);
 321:C:/Users/lenovo/Desktop/liteos/Project2/BearPi_LiteOS/components/connectivity/lwm2m/core\internals.h **** //bool observe_handleNotify(lwm2m_context_t * contextP, void * fromSessionH, coap_packet_t * messag
 322:C:/Users/lenovo/Desktop/liteos/Project2/BearPi_LiteOS/components/connectivity/lwm2m/core\internals.h **** void observe_remove(lwm2m_observation_t * observationP);
 323:C:/Users/lenovo/Desktop/liteos/Project2/BearPi_LiteOS/components/connectivity/lwm2m/core\internals.h **** lwm2m_observed_t * observe_findByUri(lwm2m_context_t * contextP, lwm2m_uri_t * uriP);
 324:C:/Users/lenovo/Desktop/liteos/Project2/BearPi_LiteOS/components/connectivity/lwm2m/core\internals.h **** 
 325:C:/Users/lenovo/Desktop/liteos/Project2/BearPi_LiteOS/components/connectivity/lwm2m/core\internals.h **** // defined in registration.c
 326:C:/Users/lenovo/Desktop/liteos/Project2/BearPi_LiteOS/components/connectivity/lwm2m/core\internals.h **** //uint8_t registration_handleRequest(lwm2m_context_t * contextP, lwm2m_uri_t * uriP, void * fromSes
 327:C:/Users/lenovo/Desktop/liteos/Project2/BearPi_LiteOS/components/connectivity/lwm2m/core\internals.h **** void registration_deregister(lwm2m_context_t * contextP, lwm2m_server_t * serverP);
 328:C:/Users/lenovo/Desktop/liteos/Project2/BearPi_LiteOS/components/connectivity/lwm2m/core\internals.h **** void registration_freeClient(lwm2m_client_t * clientP);
 329:C:/Users/lenovo/Desktop/liteos/Project2/BearPi_LiteOS/components/connectivity/lwm2m/core\internals.h **** uint8_t registration_start(lwm2m_context_t * contextP);
 330:C:/Users/lenovo/Desktop/liteos/Project2/BearPi_LiteOS/components/connectivity/lwm2m/core\internals.h **** void registration_step(lwm2m_context_t * contextP, time_t currentTime, time_t * timeoutP);
 331:C:/Users/lenovo/Desktop/liteos/Project2/BearPi_LiteOS/components/connectivity/lwm2m/core\internals.h **** lwm2m_status_t registration_getStatus(lwm2m_context_t * contextP);
 332:C:/Users/lenovo/Desktop/liteos/Project2/BearPi_LiteOS/components/connectivity/lwm2m/core\internals.h **** void registration_reset(lwm2m_context_t * contextP, lwm2m_server_t * serverP);
 333:C:/Users/lenovo/Desktop/liteos/Project2/BearPi_LiteOS/components/connectivity/lwm2m/core\internals.h **** 
 334:C:/Users/lenovo/Desktop/liteos/Project2/BearPi_LiteOS/components/connectivity/lwm2m/core\internals.h **** // defined in packet.c
 335:C:/Users/lenovo/Desktop/liteos/Project2/BearPi_LiteOS/components/connectivity/lwm2m/core\internals.h **** uint8_t message_send(lwm2m_context_t * contextP, coap_packet_t * message, void * sessionH);
 336:C:/Users/lenovo/Desktop/liteos/Project2/BearPi_LiteOS/components/connectivity/lwm2m/core\internals.h **** 
 337:C:/Users/lenovo/Desktop/liteos/Project2/BearPi_LiteOS/components/connectivity/lwm2m/core\internals.h **** // defined in bootstrap.c
 338:C:/Users/lenovo/Desktop/liteos/Project2/BearPi_LiteOS/components/connectivity/lwm2m/core\internals.h **** void bootstrap_step(lwm2m_context_t * contextP, uint32_t currentTime, time_t* timeoutP);
 339:C:/Users/lenovo/Desktop/liteos/Project2/BearPi_LiteOS/components/connectivity/lwm2m/core\internals.h **** uint8_t bootstrap_handleCommand(lwm2m_context_t * contextP, lwm2m_uri_t * uriP, lwm2m_server_t * se
 340:C:/Users/lenovo/Desktop/liteos/Project2/BearPi_LiteOS/components/connectivity/lwm2m/core\internals.h **** uint8_t bootstrap_handleDeleteAll(lwm2m_context_t * context, void * fromSessionH);
 341:C:/Users/lenovo/Desktop/liteos/Project2/BearPi_LiteOS/components/connectivity/lwm2m/core\internals.h **** uint8_t bootstrap_handleFinish(lwm2m_context_t * context, void * fromSessionH);
 342:C:/Users/lenovo/Desktop/liteos/Project2/BearPi_LiteOS/components/connectivity/lwm2m/core\internals.h **** uint8_t bootstrap_handleRequest(lwm2m_context_t * contextP, lwm2m_uri_t * uriP, void * fromSessionH
 343:C:/Users/lenovo/Desktop/liteos/Project2/BearPi_LiteOS/components/connectivity/lwm2m/core\internals.h **** void bootstrap_start(lwm2m_context_t * contextP);
 344:C:/Users/lenovo/Desktop/liteos/Project2/BearPi_LiteOS/components/connectivity/lwm2m/core\internals.h **** lwm2m_status_t bootstrap_getStatus(lwm2m_context_t * contextP);
 345:C:/Users/lenovo/Desktop/liteos/Project2/BearPi_LiteOS/components/connectivity/lwm2m/core\internals.h **** bool bootstrap_isBsServerIpValid(const lwm2m_context_t *contextP);
 346:C:/Users/lenovo/Desktop/liteos/Project2/BearPi_LiteOS/components/connectivity/lwm2m/core\internals.h **** 
 347:C:/Users/lenovo/Desktop/liteos/Project2/BearPi_LiteOS/components/connectivity/lwm2m/core\internals.h **** 
 348:C:/Users/lenovo/Desktop/liteos/Project2/BearPi_LiteOS/components/connectivity/lwm2m/core\internals.h **** // defined in tlv.c
 349:C:/Users/lenovo/Desktop/liteos/Project2/BearPi_LiteOS/components/connectivity/lwm2m/core\internals.h **** int tlv_parse(uint8_t * buffer, size_t bufferLen, lwm2m_data_t ** dataP);
 350:C:/Users/lenovo/Desktop/liteos/Project2/BearPi_LiteOS/components/connectivity/lwm2m/core\internals.h **** int tlv_serialize(bool isResourceInstance, int size, lwm2m_data_t * dataP, uint8_t ** bufferP);
 351:C:/Users/lenovo/Desktop/liteos/Project2/BearPi_LiteOS/components/connectivity/lwm2m/core\internals.h **** 
 352:C:/Users/lenovo/Desktop/liteos/Project2/BearPi_LiteOS/components/connectivity/lwm2m/core\internals.h **** // defined in json.c
 353:C:/Users/lenovo/Desktop/liteos/Project2/BearPi_LiteOS/components/connectivity/lwm2m/core\internals.h **** #ifdef LWM2M_SUPPORT_JSON
ARM GAS  c:\Users\lenovo\AppData\Local\Temp\ccDAYDpu.s 			page 25


 354:C:/Users/lenovo/Desktop/liteos/Project2/BearPi_LiteOS/components/connectivity/lwm2m/core\internals.h **** int json_parse(lwm2m_uri_t * uriP, uint8_t * buffer, size_t bufferLen, lwm2m_data_t ** dataP);
 355:C:/Users/lenovo/Desktop/liteos/Project2/BearPi_LiteOS/components/connectivity/lwm2m/core\internals.h **** int json_serialize(lwm2m_uri_t * uriP, int size, lwm2m_data_t * tlvP, uint8_t ** bufferP);
 356:C:/Users/lenovo/Desktop/liteos/Project2/BearPi_LiteOS/components/connectivity/lwm2m/core\internals.h **** #endif
 357:C:/Users/lenovo/Desktop/liteos/Project2/BearPi_LiteOS/components/connectivity/lwm2m/core\internals.h **** 
 358:C:/Users/lenovo/Desktop/liteos/Project2/BearPi_LiteOS/components/connectivity/lwm2m/core\internals.h **** // defined in discover.c
 359:C:/Users/lenovo/Desktop/liteos/Project2/BearPi_LiteOS/components/connectivity/lwm2m/core\internals.h **** int discover_serialize(lwm2m_context_t * contextP, lwm2m_uri_t * uriP, lwm2m_server_t * serverP, in
 360:C:/Users/lenovo/Desktop/liteos/Project2/BearPi_LiteOS/components/connectivity/lwm2m/core\internals.h **** 
 361:C:/Users/lenovo/Desktop/liteos/Project2/BearPi_LiteOS/components/connectivity/lwm2m/core\internals.h **** // defined in block1.c
 362:C:/Users/lenovo/Desktop/liteos/Project2/BearPi_LiteOS/components/connectivity/lwm2m/core\internals.h **** uint8_t coap_block1_handler(lwm2m_block1_data_t ** block1Data, uint16_t mid, uint8_t * buffer, size
 363:C:/Users/lenovo/Desktop/liteos/Project2/BearPi_LiteOS/components/connectivity/lwm2m/core\internals.h **** void free_block1_buffer(lwm2m_block1_data_t * block1Data);
 364:C:/Users/lenovo/Desktop/liteos/Project2/BearPi_LiteOS/components/connectivity/lwm2m/core\internals.h **** 
 365:C:/Users/lenovo/Desktop/liteos/Project2/BearPi_LiteOS/components/connectivity/lwm2m/core\internals.h **** // defined in utils.c
 366:C:/Users/lenovo/Desktop/liteos/Project2/BearPi_LiteOS/components/connectivity/lwm2m/core\internals.h **** lwm2m_data_type_t utils_depthToDatatype(uri_depth_t depth);
 367:C:/Users/lenovo/Desktop/liteos/Project2/BearPi_LiteOS/components/connectivity/lwm2m/core\internals.h **** lwm2m_binding_t utils_stringToBinding(uint8_t *buffer, size_t length);
 368:C:/Users/lenovo/Desktop/liteos/Project2/BearPi_LiteOS/components/connectivity/lwm2m/core\internals.h **** lwm2m_media_type_t utils_convertMediaType(coap_content_type_t type);
 369:C:/Users/lenovo/Desktop/liteos/Project2/BearPi_LiteOS/components/connectivity/lwm2m/core\internals.h **** int utils_isAltPathValid(const char * altPath);
 370:C:/Users/lenovo/Desktop/liteos/Project2/BearPi_LiteOS/components/connectivity/lwm2m/core\internals.h **** int utils_stringCopy(char * buffer, size_t length, const char * str);
 371:C:/Users/lenovo/Desktop/liteos/Project2/BearPi_LiteOS/components/connectivity/lwm2m/core\internals.h **** size_t utils_intToText(int64_t data, uint8_t * string, size_t length);
 372:C:/Users/lenovo/Desktop/liteos/Project2/BearPi_LiteOS/components/connectivity/lwm2m/core\internals.h **** size_t utils_floatToText(double data, uint8_t * string, size_t length);
 373:C:/Users/lenovo/Desktop/liteos/Project2/BearPi_LiteOS/components/connectivity/lwm2m/core\internals.h **** int utils_textToInt(uint8_t * buffer, int length, int64_t * dataP);
 374:C:/Users/lenovo/Desktop/liteos/Project2/BearPi_LiteOS/components/connectivity/lwm2m/core\internals.h **** int utils_textToFloat(uint8_t * buffer, int length, double * dataP);
 375:C:/Users/lenovo/Desktop/liteos/Project2/BearPi_LiteOS/components/connectivity/lwm2m/core\internals.h **** void utils_copyValue(void * dst, const void * src, size_t len);
 376:C:/Users/lenovo/Desktop/liteos/Project2/BearPi_LiteOS/components/connectivity/lwm2m/core\internals.h **** size_t utils_base64GetSize(size_t dataLen);
 377:C:/Users/lenovo/Desktop/liteos/Project2/BearPi_LiteOS/components/connectivity/lwm2m/core\internals.h **** size_t utils_base64Encode(uint8_t * dataP, size_t dataLen, uint8_t * bufferP, size_t bufferLen);
 378:C:/Users/lenovo/Desktop/liteos/Project2/BearPi_LiteOS/components/connectivity/lwm2m/core\internals.h **** #ifdef LWM2M_CLIENT_MODE
 379:C:/Users/lenovo/Desktop/liteos/Project2/BearPi_LiteOS/components/connectivity/lwm2m/core\internals.h **** lwm2m_server_t * utils_findServer(lwm2m_context_t * contextP, void * fromSessionH);
 380:C:/Users/lenovo/Desktop/liteos/Project2/BearPi_LiteOS/components/connectivity/lwm2m/core\internals.h **** lwm2m_server_t * utils_findBootstrapServer(lwm2m_context_t * contextP, void * fromSessionH);
 381:C:/Users/lenovo/Desktop/liteos/Project2/BearPi_LiteOS/components/connectivity/lwm2m/core\internals.h **** #endif
 382:C:/Users/lenovo/Desktop/liteos/Project2/BearPi_LiteOS/components/connectivity/lwm2m/core\internals.h **** static inline int dm_isUriOpaqueHandle(const lwm2m_uri_t * uriP)
 383:C:/Users/lenovo/Desktop/liteos/Project2/BearPi_LiteOS/components/connectivity/lwm2m/core\internals.h **** {
 384:C:/Users/lenovo/Desktop/liteos/Project2/BearPi_LiteOS/components/connectivity/lwm2m/core\internals.h ****     return (19 == uriP->objectId);
 298              		.loc 2 384 0
 299 0042 6388     		ldrh	r3, [r4, #2]
 300              	.LVL46:
 301              	.LBE11:
 302              	.LBE10:
 449:C:/Users/lenovo/Desktop/liteos/Project2/BearPi_LiteOS/components/connectivity/agent_tiny/atiny_lwm2m\agenttiny.c ****             {
 303              		.loc 1 449 0
 304 0044 132B     		cmp	r3, #19
 305 0046 04D0     		beq	.L34
 306              	.LVL47:
 307              	.L31:
 454:C:/Users/lenovo/Desktop/liteos/Project2/BearPi_LiteOS/components/connectivity/agent_tiny/atiny_lwm2m\agenttiny.c ****         }
 308              		.loc 1 454 0
 309 0048 0221     		movs	r1, #2
 310 004a 2046     		mov	r0, r4
 311 004c FFF7FEFF 		bl	atiny_clear_rpt_data
 312              	.LVL48:
 313 0050 DCE7     		b	.L25
 314              	.LVL49:
 315              	.L34:
 316              	.LBB12:
 451:C:/Users/lenovo/Desktop/liteos/Project2/BearPi_LiteOS/components/connectivity/agent_tiny/atiny_lwm2m\agenttiny.c ****                 atiny_event_notify(ATINY_DATA_UNSUBSCRIBLE, (char *)&rpt_type, sizeof(rpt_type));
 317              		.loc 1 451 0
 318 0052 0122     		movs	r2, #1
 319              	.LVL50:
 320 0054 02A9     		add	r1, sp, #8
ARM GAS  c:\Users\lenovo\AppData\Local\Temp\ccDAYDpu.s 			page 26


 321              	.LVL51:
 322 0056 01F8012D 		strb	r2, [r1, #-1]!
 452:C:/Users/lenovo/Desktop/liteos/Project2/BearPi_LiteOS/components/connectivity/agent_tiny/atiny_lwm2m\agenttiny.c ****             }
 323              		.loc 1 452 0
 324 005a 0320     		movs	r0, #3
 325              	.LVL52:
 326 005c FFF7FEFF 		bl	atiny_event_notify
 327              	.LVL53:
 328 0060 F2E7     		b	.L31
 329              	.LVL54:
 330              	.L30:
 331              	.LBE12:
 456:C:/Users/lenovo/Desktop/liteos/Project2/BearPi_LiteOS/components/connectivity/agent_tiny/atiny_lwm2m\agenttiny.c ****         {
 332              		.loc 1 456 0
 333 0062 0129     		cmp	r1, #1
 334 0064 D2D1     		bne	.L25
 335              	.LVL55:
 336              	.LBB13:
 337              	.LBB14:
 338              		.loc 2 384 0
 339 0066 6388     		ldrh	r3, [r4, #2]
 340              	.LVL56:
 341              	.LBE14:
 342              	.LBE13:
 458:C:/Users/lenovo/Desktop/liteos/Project2/BearPi_LiteOS/components/connectivity/agent_tiny/atiny_lwm2m\agenttiny.c ****             {
 343              		.loc 1 458 0
 344 0068 132B     		cmp	r3, #19
 345 006a CFD1     		bne	.L25
 346              	.LBB15:
 460:C:/Users/lenovo/Desktop/liteos/Project2/BearPi_LiteOS/components/connectivity/agent_tiny/atiny_lwm2m\agenttiny.c ****                 atiny_event_notify(ATINY_DATA_SUBSCRIBLE, (char *)&rpt_type, sizeof(rpt_type));
 347              		.loc 1 460 0
 348 006c 0122     		movs	r2, #1
 349              	.LVL57:
 350 006e 02A9     		add	r1, sp, #8
 351              	.LVL58:
 352 0070 01F8012D 		strb	r2, [r1, #-1]!
 461:C:/Users/lenovo/Desktop/liteos/Project2/BearPi_LiteOS/components/connectivity/agent_tiny/atiny_lwm2m\agenttiny.c ****             }
 353              		.loc 1 461 0
 354 0074 0220     		movs	r0, #2
 355              	.LVL59:
 356 0076 FFF7FEFF 		bl	atiny_event_notify
 357              	.LVL60:
 358              	.LBE15:
 473:C:/Users/lenovo/Desktop/liteos/Project2/BearPi_LiteOS/components/connectivity/agent_tiny/atiny_lwm2m\agenttiny.c **** 
 359              		.loc 1 473 0
 360 007a C7E7     		b	.L25
 361              		.cfi_endproc
 362              	.LFE150:
 364              		.section	.text.atiny_handle_reconnect,"ax",%progbits
 365              		.align	1
 366              		.syntax unified
 367              		.thumb
 368              		.thumb_func
 369              		.fpu fpv4-sp-d16
 371              	atiny_handle_reconnect:
 372              	.LFB153:
 503:C:/Users/lenovo/Desktop/liteos/Project2/BearPi_LiteOS/components/connectivity/agent_tiny/atiny_lwm2m\agenttiny.c ****     if(handle->reconnect_flag)
ARM GAS  c:\Users\lenovo\AppData\Local\Temp\ccDAYDpu.s 			page 27


 373              		.loc 1 503 0
 374              		.cfi_startproc
 375              		@ args = 0, pretend = 0, frame = 0
 376              		@ frame_needed = 0, uses_anonymous_args = 0
 377              	.LVL61:
 504:C:/Users/lenovo/Desktop/liteos/Project2/BearPi_LiteOS/components/connectivity/agent_tiny/atiny_lwm2m\agenttiny.c ****     {
 378              		.loc 1 504 0
 379 0000 436F     		ldr	r3, [r0, #116]
 380 0002 03B9     		cbnz	r3, .L41
 381 0004 7047     		bx	lr
 382              	.L41:
 503:C:/Users/lenovo/Desktop/liteos/Project2/BearPi_LiteOS/components/connectivity/agent_tiny/atiny_lwm2m\agenttiny.c ****     if(handle->reconnect_flag)
 383              		.loc 1 503 0
 384 0006 10B5     		push	{r4, lr}
 385              	.LCFI7:
 386              		.cfi_def_cfa_offset 8
 387              		.cfi_offset 4, -8
 388              		.cfi_offset 14, -4
 389 0008 82B0     		sub	sp, sp, #8
 390              	.LCFI8:
 391              		.cfi_def_cfa_offset 16
 392 000a 0446     		mov	r4, r0
 506:C:/Users/lenovo/Desktop/liteos/Project2/BearPi_LiteOS/components/connectivity/agent_tiny/atiny_lwm2m\agenttiny.c ****         handle->reconnect_flag = false;
 393              		.loc 1 506 0
 394 000c 0068     		ldr	r0, [r0]
 395              	.LVL62:
 396 000e FFF7FEFF 		bl	lwm2m_reconnect
 397              	.LVL63:
 507:C:/Users/lenovo/Desktop/liteos/Project2/BearPi_LiteOS/components/connectivity/agent_tiny/atiny_lwm2m\agenttiny.c ****         ATINY_LOG(LOG_INFO, "lwm2m reconnect");
 398              		.loc 1 507 0
 399 0012 0023     		movs	r3, #0
 400 0014 6367     		str	r3, [r4, #116]
 508:C:/Users/lenovo/Desktop/liteos/Project2/BearPi_LiteOS/components/connectivity/agent_tiny/atiny_lwm2m\agenttiny.c ****     }
 401              		.loc 1 508 0
 402 0016 FFF7FEFF 		bl	atiny_get_log_level
 403              	.LVL64:
 404 001a 0128     		cmp	r0, #1
 405 001c 01D9     		bls	.L42
 406              	.LVL65:
 407              	.L35:
 510:C:/Users/lenovo/Desktop/liteos/Project2/BearPi_LiteOS/components/connectivity/agent_tiny/atiny_lwm2m\agenttiny.c **** 
 408              		.loc 1 510 0
 409 001e 02B0     		add	sp, sp, #8
 410              	.LCFI9:
 411              		.cfi_remember_state
 412              		.cfi_def_cfa_offset 8
 413              		@ sp needed
 414 0020 10BD     		pop	{r4, pc}
 415              	.LVL66:
 416              	.L42:
 417              	.LCFI10:
 418              		.cfi_restore_state
 508:C:/Users/lenovo/Desktop/liteos/Project2/BearPi_LiteOS/components/connectivity/agent_tiny/atiny_lwm2m\agenttiny.c ****     }
 419              		.loc 1 508 0 discriminator 1
 420 0022 0120     		movs	r0, #1
 421 0024 FFF7FEFF 		bl	atiny_get_log_level_name
 422              	.LVL67:
ARM GAS  c:\Users\lenovo\AppData\Local\Temp\ccDAYDpu.s 			page 28


 423 0028 0446     		mov	r4, r0
 424              	.LVL68:
 425 002a FFF7FEFF 		bl	atiny_gettime_ms
 426              	.LVL69:
 427 002e 4FF4FE73 		mov	r3, #508
 428 0032 0093     		str	r3, [sp]
 429 0034 034B     		ldr	r3, .L43
 430 0036 0246     		mov	r2, r0
 431 0038 2146     		mov	r1, r4
 432 003a 0348     		ldr	r0, .L43+4
 433 003c FFF7FEFF 		bl	atiny_printf
 434              	.LVL70:
 510:C:/Users/lenovo/Desktop/liteos/Project2/BearPi_LiteOS/components/connectivity/agent_tiny/atiny_lwm2m\agenttiny.c **** 
 435              		.loc 1 510 0 discriminator 1
 436 0040 EDE7     		b	.L35
 437              	.L44:
 438 0042 00BF     		.align	2
 439              	.L43:
 440 0044 00000000 		.word	.LANCHOR1
 441 0048 00000000 		.word	.LC3
 442              		.cfi_endproc
 443              	.LFE153:
 445              		.section	.text.lwm2m_poll,"ax",%progbits
 446              		.align	1
 447              		.syntax unified
 448              		.thumb
 449              		.thumb_func
 450              		.fpu fpv4-sp-d16
 452              	lwm2m_poll:
 453              	.LFB148:
 321:C:/Users/lenovo/Desktop/liteos/Project2/BearPi_LiteOS/components/connectivity/agent_tiny/atiny_lwm2m\agenttiny.c ****     client_data_t *dataP;
 454              		.loc 1 321 0
 455              		.cfi_startproc
 456              		@ args = 0, pretend = 0, frame = 0
 457              		@ frame_needed = 0, uses_anonymous_args = 0
 458              	.LVL71:
 459 0000 2DE9F041 		push	{r4, r5, r6, r7, r8, lr}
 460              	.LCFI11:
 461              		.cfi_def_cfa_offset 24
 462              		.cfi_offset 4, -24
 463              		.cfi_offset 5, -20
 464              		.cfi_offset 6, -16
 465              		.cfi_offset 7, -12
 466              		.cfi_offset 8, -8
 467              		.cfi_offset 14, -4
 468 0004 82B0     		sub	sp, sp, #8
 469              	.LCFI12:
 470              		.cfi_def_cfa_offset 32
 471 0006 0F46     		mov	r7, r1
 325:C:/Users/lenovo/Desktop/liteos/Project2/BearPi_LiteOS/components/connectivity/agent_tiny/atiny_lwm2m\agenttiny.c ****     uint8_t *recv_buffer = phandle->recv_buffer;
 472              		.loc 1 325 0
 473 0008 D0F80080 		ldr	r8, [r0]
 474              	.LVL72:
 326:C:/Users/lenovo/Desktop/liteos/Project2/BearPi_LiteOS/components/connectivity/agent_tiny/atiny_lwm2m\agenttiny.c **** 
 475              		.loc 1 326 0
 476 000c D0F88050 		ldr	r5, [r0, #128]
 477              	.LVL73:
ARM GAS  c:\Users\lenovo\AppData\Local\Temp\ccDAYDpu.s 			page 29


 328:C:/Users/lenovo/Desktop/liteos/Project2/BearPi_LiteOS/components/connectivity/agent_tiny/atiny_lwm2m\agenttiny.c ****     connP = dataP->connList;
 478              		.loc 1 328 0
 479 0010 D8F83430 		ldr	r3, [r8, #52]
 480              	.LVL74:
 329:C:/Users/lenovo/Desktop/liteos/Project2/BearPi_LiteOS/components/connectivity/agent_tiny/atiny_lwm2m\agenttiny.c **** 
 481              		.loc 1 329 0
 482 0014 9C68     		ldr	r4, [r3, #8]
 483              	.LVL75:
 331:C:/Users/lenovo/Desktop/liteos/Project2/BearPi_LiteOS/components/connectivity/agent_tiny/atiny_lwm2m\agenttiny.c ****     {
 484              		.loc 1 331 0
 485 0016 04E0     		b	.L46
 486              	.LVL76:
 487              	.L53:
 336:C:/Users/lenovo/Desktop/liteos/Project2/BearPi_LiteOS/components/connectivity/agent_tiny/atiny_lwm2m\agenttiny.c ****         }
 488              		.loc 1 336 0
 489 0018 FFF7FEFF 		bl	atiny_get_log_level
 490              	.LVL77:
 491 001c 0128     		cmp	r0, #1
 492 001e 19D9     		bls	.L51
 493              	.LVL78:
 494              	.L48:
 343:C:/Users/lenovo/Desktop/liteos/Project2/BearPi_LiteOS/components/connectivity/agent_tiny/atiny_lwm2m\agenttiny.c ****     }
 495              		.loc 1 343 0
 496 0020 2468     		ldr	r4, [r4]
 497              	.LVL79:
 498              	.L46:
 331:C:/Users/lenovo/Desktop/liteos/Project2/BearPi_LiteOS/components/connectivity/agent_tiny/atiny_lwm2m\agenttiny.c ****     {
 499              		.loc 1 331 0
 500 0022 3CB3     		cbz	r4, .L52
 333:C:/Users/lenovo/Desktop/liteos/Project2/BearPi_LiteOS/components/connectivity/agent_tiny/atiny_lwm2m\agenttiny.c ****         if (numBytes <= 0)
 501              		.loc 1 333 0
 502 0024 3B68     		ldr	r3, [r7]
 503 0026 4FF48062 		mov	r2, #1024
 504 002a 2946     		mov	r1, r5
 505 002c 2046     		mov	r0, r4
 506 002e FFF7FEFF 		bl	lwm2m_buffer_recv
 507              	.LVL80:
 334:C:/Users/lenovo/Desktop/liteos/Project2/BearPi_LiteOS/components/connectivity/agent_tiny/atiny_lwm2m\agenttiny.c ****         {
 508              		.loc 1 334 0
 509 0032 061E     		subs	r6, r0, #0
 510 0034 F0DD     		ble	.L53
 340:C:/Users/lenovo/Desktop/liteos/Project2/BearPi_LiteOS/components/connectivity/agent_tiny/atiny_lwm2m\agenttiny.c ****             lwm2m_handle_packet(contextP, recv_buffer, numBytes, connP);
 511              		.loc 1 340 0
 512 0036 114B     		ldr	r3, .L54
 513 0038 1868     		ldr	r0, [r3]
 514              	.LVL81:
 515 003a 0023     		movs	r3, #0
 516 003c 3246     		mov	r2, r6
 517 003e 2946     		mov	r1, r5
 518 0040 C068     		ldr	r0, [r0, #12]
 519 0042 FFF7FEFF 		bl	output_buffer
 520              	.LVL82:
 341:C:/Users/lenovo/Desktop/liteos/Project2/BearPi_LiteOS/components/connectivity/agent_tiny/atiny_lwm2m\agenttiny.c ****         }
 521              		.loc 1 341 0
 522 0046 2346     		mov	r3, r4
 523 0048 3246     		mov	r2, r6
 524 004a 2946     		mov	r1, r5
ARM GAS  c:\Users\lenovo\AppData\Local\Temp\ccDAYDpu.s 			page 30


 525 004c 4046     		mov	r0, r8
 526 004e FFF7FEFF 		bl	lwm2m_handle_packet
 527              	.LVL83:
 528 0052 E5E7     		b	.L48
 529              	.L51:
 336:C:/Users/lenovo/Desktop/liteos/Project2/BearPi_LiteOS/components/connectivity/agent_tiny/atiny_lwm2m\agenttiny.c ****         }
 530              		.loc 1 336 0 discriminator 1
 531 0054 0120     		movs	r0, #1
 532 0056 FFF7FEFF 		bl	atiny_get_log_level_name
 533              	.LVL84:
 534 005a 0646     		mov	r6, r0
 535              	.LVL85:
 536 005c FFF7FEFF 		bl	atiny_gettime_ms
 537              	.LVL86:
 538 0060 4FF4A873 		mov	r3, #336
 539 0064 0093     		str	r3, [sp]
 540 0066 064B     		ldr	r3, .L54+4
 541 0068 0246     		mov	r2, r0
 542 006a 3146     		mov	r1, r6
 543 006c 0548     		ldr	r0, .L54+8
 544 006e FFF7FEFF 		bl	atiny_printf
 545              	.LVL87:
 546 0072 D5E7     		b	.L48
 547              	.L52:
 347:C:/Users/lenovo/Desktop/liteos/Project2/BearPi_LiteOS/components/connectivity/agent_tiny/atiny_lwm2m\agenttiny.c **** 
 548              		.loc 1 347 0
 549 0074 0020     		movs	r0, #0
 550 0076 02B0     		add	sp, sp, #8
 551              	.LCFI13:
 552              		.cfi_def_cfa_offset 24
 553              		@ sp needed
 554 0078 BDE8F081 		pop	{r4, r5, r6, r7, r8, pc}
 555              	.LVL88:
 556              	.L55:
 557              		.align	2
 558              	.L54:
 559 007c 00000000 		.word	_impure_ptr
 560 0080 00000000 		.word	.LANCHOR2
 561 0084 00000000 		.word	.LC4
 562              		.cfi_endproc
 563              	.LFE148:
 565              		.section	.text.atiny_init,"ax",%progbits
 566              		.align	1
 567              		.global	atiny_init
 568              		.syntax unified
 569              		.thumb
 570              		.thumb_func
 571              		.fpu fpv4-sp-d16
 573              	atiny_init:
 574              	.LFB145:
 143:C:/Users/lenovo/Desktop/liteos/Project2/BearPi_LiteOS/components/connectivity/agent_tiny/atiny_lwm2m\agenttiny.c ****     int result;
 575              		.loc 1 143 0
 576              		.cfi_startproc
 577              		@ args = 0, pretend = 0, frame = 0
 578              		@ frame_needed = 0, uses_anonymous_args = 0
 579              	.LVL89:
 580 0000 F0B5     		push	{r4, r5, r6, r7, lr}
ARM GAS  c:\Users\lenovo\AppData\Local\Temp\ccDAYDpu.s 			page 31


 581              	.LCFI14:
 582              		.cfi_def_cfa_offset 20
 583              		.cfi_offset 4, -20
 584              		.cfi_offset 5, -16
 585              		.cfi_offset 6, -12
 586              		.cfi_offset 7, -8
 587              		.cfi_offset 14, -4
 588 0002 83B0     		sub	sp, sp, #12
 589              	.LCFI15:
 590              		.cfi_def_cfa_offset 32
 591 0004 0446     		mov	r4, r0
 592 0006 0E46     		mov	r6, r1
 146:C:/Users/lenovo/Desktop/liteos/Project2/BearPi_LiteOS/components/connectivity/agent_tiny/atiny_lwm2m\agenttiny.c ****     if (result != ATINY_OK)
 593              		.loc 1 146 0
 594 0008 FFF7FEFF 		bl	atiny_init_rpt
 595              	.LVL90:
 147:C:/Users/lenovo/Desktop/liteos/Project2/BearPi_LiteOS/components/connectivity/agent_tiny/atiny_lwm2m\agenttiny.c ****     {
 596              		.loc 1 147 0
 597 000c 40BB     		cbnz	r0, .L66
 153:C:/Users/lenovo/Desktop/liteos/Project2/BearPi_LiteOS/components/connectivity/agent_tiny/atiny_lwm2m\agenttiny.c ****     {
 598              		.loc 1 153 0
 599 000e 002C     		cmp	r4, #0
 600 0010 3BD0     		beq	.L59
 153:C:/Users/lenovo/Desktop/liteos/Project2/BearPi_LiteOS/components/connectivity/agent_tiny/atiny_lwm2m\agenttiny.c ****     {
 601              		.loc 1 153 0 is_stmt 0 discriminator 1
 602 0012 002E     		cmp	r6, #0
 603 0014 39D0     		beq	.L59
 159:C:/Users/lenovo/Desktop/liteos/Project2/BearPi_LiteOS/components/connectivity/agent_tiny/atiny_lwm2m\agenttiny.c ****     {
 604              		.loc 1 159 0 is_stmt 1
 605 0016 2046     		mov	r0, r4
 606              	.LVL91:
 607 0018 FFF7FEFF 		bl	atiny_check_bootstrap_init_param
 608              	.LVL92:
 609 001c 0028     		cmp	r0, #0
 610 001e 4ED1     		bne	.L67
 172:C:/Users/lenovo/Desktop/liteos/Project2/BearPi_LiteOS/components/connectivity/agent_tiny/atiny_lwm2m\agenttiny.c **** 
 611              		.loc 1 172 0
 612 0020 384D     		ldr	r5, .L71
 613 0022 8422     		movs	r2, #132
 614 0024 0021     		movs	r1, #0
 615 0026 2846     		mov	r0, r5
 616 0028 FFF7FEFF 		bl	memset
 617              	.LVL93:
 174:C:/Users/lenovo/Desktop/liteos/Project2/BearPi_LiteOS/components/connectivity/agent_tiny/atiny_lwm2m\agenttiny.c ****     if (NULL == g_atiny_handle.quit_sem)
 618              		.loc 1 174 0
 619 002c FFF7FEFF 		bl	atiny_mutex_create
 620              	.LVL94:
 621 0030 A867     		str	r0, [r5, #120]
 175:C:/Users/lenovo/Desktop/liteos/Project2/BearPi_LiteOS/components/connectivity/agent_tiny/atiny_lwm2m\agenttiny.c ****     {
 622              		.loc 1 175 0
 623 0032 0028     		cmp	r0, #0
 624 0034 4ED0     		beq	.L68
 180:C:/Users/lenovo/Desktop/liteos/Project2/BearPi_LiteOS/components/connectivity/agent_tiny/atiny_lwm2m\agenttiny.c ****     g_atiny_handle.atiny_params = *atiny_params;
 625              		.loc 1 180 0
 626 0036 FFF7FEFF 		bl	atiny_mutex_lock
 627              	.LVL95:
 181:C:/Users/lenovo/Desktop/liteos/Project2/BearPi_LiteOS/components/connectivity/agent_tiny/atiny_lwm2m\agenttiny.c ****     *phandle = &g_atiny_handle;
ARM GAS  c:\Users\lenovo\AppData\Local\Temp\ccDAYDpu.s 			page 32


 628              		.loc 1 181 0
 629 003a 324F     		ldr	r7, .L71
 630 003c 3D1D     		adds	r5, r7, #4
 631 003e 0FCC     		ldmia	r4!, {r0, r1, r2, r3}
 632              	.LVL96:
 633 0040 0FC5     		stmia	r5!, {r0, r1, r2, r3}
 634 0042 0FCC     		ldmia	r4!, {r0, r1, r2, r3}
 635              	.LVL97:
 636 0044 0FC5     		stmia	r5!, {r0, r1, r2, r3}
 637 0046 0FCC     		ldmia	r4!, {r0, r1, r2, r3}
 638              	.LVL98:
 639 0048 0FC5     		stmia	r5!, {r0, r1, r2, r3}
 640 004a 94E80700 		ldm	r4, {r0, r1, r2}
 641 004e 85E80700 		stm	r5, {r0, r1, r2}
 182:C:/Users/lenovo/Desktop/liteos/Project2/BearPi_LiteOS/components/connectivity/agent_tiny/atiny_lwm2m\agenttiny.c **** 
 642              		.loc 1 182 0
 643 0052 3760     		str	r7, [r6]
 186:C:/Users/lenovo/Desktop/liteos/Project2/BearPi_LiteOS/components/connectivity/agent_tiny/atiny_lwm2m\agenttiny.c **** #else
 644              		.loc 1 186 0
 645 0054 FFF7FEFF 		bl	atiny_fota_manager_get_instance
 646              	.LVL99:
 647 0058 FFF7FEFF 		bl	atiny_fota_manager_set_storage_device
 648              	.LVL100:
 649 005c 0546     		mov	r5, r0
 650 005e 1AE0     		b	.L56
 651              	.LVL101:
 652              	.L66:
 653 0060 0546     		mov	r5, r0
 149:C:/Users/lenovo/Desktop/liteos/Project2/BearPi_LiteOS/components/connectivity/agent_tiny/atiny_lwm2m\agenttiny.c ****         return result;
 654              		.loc 1 149 0
 655 0062 FFF7FEFF 		bl	atiny_get_log_level
 656              	.LVL102:
 657 0066 0428     		cmp	r0, #4
 658 0068 15D8     		bhi	.L56
 149:C:/Users/lenovo/Desktop/liteos/Project2/BearPi_LiteOS/components/connectivity/agent_tiny/atiny_lwm2m\agenttiny.c ****         return result;
 659              		.loc 1 149 0 is_stmt 0 discriminator 1
 660 006a 0420     		movs	r0, #4
 661 006c FFF7FEFF 		bl	atiny_get_log_level_name
 662              	.LVL103:
 663 0070 0446     		mov	r4, r0
 664              	.LVL104:
 665 0072 FFF7FEFF 		bl	atiny_gettime_ms
 666              	.LVL105:
 667 0076 0195     		str	r5, [sp, #4]
 668 0078 9523     		movs	r3, #149
 669 007a 0093     		str	r3, [sp]
 670 007c 224B     		ldr	r3, .L71+4
 671 007e 0246     		mov	r2, r0
 672 0080 2146     		mov	r1, r4
 673 0082 2248     		ldr	r0, .L71+8
 674 0084 FFF7FEFF 		bl	atiny_printf
 675              	.LVL106:
 676 0088 05E0     		b	.L56
 677              	.LVL107:
 678              	.L59:
 155:C:/Users/lenovo/Desktop/liteos/Project2/BearPi_LiteOS/components/connectivity/agent_tiny/atiny_lwm2m\agenttiny.c ****         return ATINY_ARG_INVALID;
 679              		.loc 1 155 0 is_stmt 1
ARM GAS  c:\Users\lenovo\AppData\Local\Temp\ccDAYDpu.s 			page 33


 680 008a FFF7FEFF 		bl	atiny_get_log_level
 681              	.LVL108:
 682 008e 0428     		cmp	r0, #4
 683 0090 04D9     		bls	.L69
 156:C:/Users/lenovo/Desktop/liteos/Project2/BearPi_LiteOS/components/connectivity/agent_tiny/atiny_lwm2m\agenttiny.c ****     }
 684              		.loc 1 156 0
 685 0092 4FF0FF35 		mov	r5, #-1
 686              	.LVL109:
 687              	.L56:
 191:C:/Users/lenovo/Desktop/liteos/Project2/BearPi_LiteOS/components/connectivity/agent_tiny/atiny_lwm2m\agenttiny.c **** 
 688              		.loc 1 191 0
 689 0096 2846     		mov	r0, r5
 690 0098 03B0     		add	sp, sp, #12
 691              	.LCFI16:
 692              		.cfi_remember_state
 693              		.cfi_def_cfa_offset 20
 694              		@ sp needed
 695 009a F0BD     		pop	{r4, r5, r6, r7, pc}
 696              	.LVL110:
 697              	.L69:
 698              	.LCFI17:
 699              		.cfi_restore_state
 155:C:/Users/lenovo/Desktop/liteos/Project2/BearPi_LiteOS/components/connectivity/agent_tiny/atiny_lwm2m\agenttiny.c ****         return ATINY_ARG_INVALID;
 700              		.loc 1 155 0 discriminator 1
 701 009c 0420     		movs	r0, #4
 702 009e FFF7FEFF 		bl	atiny_get_log_level_name
 703              	.LVL111:
 704 00a2 0446     		mov	r4, r0
 705              	.LVL112:
 706 00a4 FFF7FEFF 		bl	atiny_gettime_ms
 707              	.LVL113:
 708 00a8 9B23     		movs	r3, #155
 709 00aa 0093     		str	r3, [sp]
 710 00ac 164B     		ldr	r3, .L71+4
 711 00ae 0246     		mov	r2, r0
 712 00b0 2146     		mov	r1, r4
 713 00b2 1748     		ldr	r0, .L71+12
 714 00b4 FFF7FEFF 		bl	atiny_printf
 715              	.LVL114:
 156:C:/Users/lenovo/Desktop/liteos/Project2/BearPi_LiteOS/components/connectivity/agent_tiny/atiny_lwm2m\agenttiny.c ****     }
 716              		.loc 1 156 0 discriminator 1
 717 00b8 4FF0FF35 		mov	r5, #-1
 718 00bc EBE7     		b	.L56
 719              	.LVL115:
 720              	.L67:
 161:C:/Users/lenovo/Desktop/liteos/Project2/BearPi_LiteOS/components/connectivity/agent_tiny/atiny_lwm2m\agenttiny.c ****         return ATINY_ARG_INVALID;
 721              		.loc 1 161 0
 722 00be FFF7FEFF 		bl	lwm2m_gettime
 723              	.LVL116:
 724 00c2 A123     		movs	r3, #161
 725 00c4 134A     		ldr	r2, .L71+16
 726 00c6 0146     		mov	r1, r0
 727 00c8 1348     		ldr	r0, .L71+20
 728 00ca FFF7FEFF 		bl	atiny_printf
 729              	.LVL117:
 162:C:/Users/lenovo/Desktop/liteos/Project2/BearPi_LiteOS/components/connectivity/agent_tiny/atiny_lwm2m\agenttiny.c ****     }
 730              		.loc 1 162 0
ARM GAS  c:\Users\lenovo\AppData\Local\Temp\ccDAYDpu.s 			page 34


 731 00ce 4FF0FF35 		mov	r5, #-1
 732 00d2 E0E7     		b	.L56
 733              	.L68:
 177:C:/Users/lenovo/Desktop/liteos/Project2/BearPi_LiteOS/components/connectivity/agent_tiny/atiny_lwm2m\agenttiny.c ****         return ATINY_RESOURCE_NOT_ENOUGH;
 734              		.loc 1 177 0
 735 00d4 FFF7FEFF 		bl	atiny_get_log_level
 736              	.LVL118:
 737 00d8 0428     		cmp	r0, #4
 738 00da 02D9     		bls	.L70
 178:C:/Users/lenovo/Desktop/liteos/Project2/BearPi_LiteOS/components/connectivity/agent_tiny/atiny_lwm2m\agenttiny.c ****     }
 739              		.loc 1 178 0
 740 00dc 6FF00505 		mvn	r5, #5
 741 00e0 D9E7     		b	.L56
 742              	.L70:
 177:C:/Users/lenovo/Desktop/liteos/Project2/BearPi_LiteOS/components/connectivity/agent_tiny/atiny_lwm2m\agenttiny.c ****         return ATINY_RESOURCE_NOT_ENOUGH;
 743              		.loc 1 177 0 discriminator 1
 744 00e2 0420     		movs	r0, #4
 745 00e4 FFF7FEFF 		bl	atiny_get_log_level_name
 746              	.LVL119:
 747 00e8 0446     		mov	r4, r0
 748              	.LVL120:
 749 00ea FFF7FEFF 		bl	atiny_gettime_ms
 750              	.LVL121:
 751 00ee B123     		movs	r3, #177
 752 00f0 0093     		str	r3, [sp]
 753 00f2 054B     		ldr	r3, .L71+4
 754 00f4 0246     		mov	r2, r0
 755 00f6 2146     		mov	r1, r4
 756 00f8 0848     		ldr	r0, .L71+24
 757 00fa FFF7FEFF 		bl	atiny_printf
 758              	.LVL122:
 178:C:/Users/lenovo/Desktop/liteos/Project2/BearPi_LiteOS/components/connectivity/agent_tiny/atiny_lwm2m\agenttiny.c ****     }
 759              		.loc 1 178 0 discriminator 1
 760 00fe 6FF00505 		mvn	r5, #5
 761 0102 C8E7     		b	.L56
 762              	.L72:
 763              		.align	2
 764              	.L71:
 765 0104 00000000 		.word	.LANCHOR5
 766 0108 00000000 		.word	.LANCHOR3
 767 010c 00000000 		.word	.LC5
 768 0110 30000000 		.word	.LC6
 769 0114 00000000 		.word	.LANCHOR4
 770 0118 50000000 		.word	.LC7
 771 011c 8C000000 		.word	.LC8
 772              		.cfi_endproc
 773              	.LFE145:
 775              		.section	.text.atiny_set_bootstrap_sequence_state,"ax",%progbits
 776              		.align	1
 777              		.global	atiny_set_bootstrap_sequence_state
 778              		.syntax unified
 779              		.thumb
 780              		.thumb_func
 781              		.fpu fpv4-sp-d16
 783              	atiny_set_bootstrap_sequence_state:
 784              	.LFB146:
 203:C:/Users/lenovo/Desktop/liteos/Project2/BearPi_LiteOS/components/connectivity/agent_tiny/atiny_lwm2m\agenttiny.c ****     (void)lwm2m_initBootStrap(lwm2m_context, atiny_params->server_params.bootstrap_mode);
ARM GAS  c:\Users\lenovo\AppData\Local\Temp\ccDAYDpu.s 			page 35


 785              		.loc 1 203 0
 786              		.cfi_startproc
 787              		@ args = 0, pretend = 0, frame = 0
 788              		@ frame_needed = 0, uses_anonymous_args = 0
 789              	.LVL123:
 790 0000 08B5     		push	{r3, lr}
 791              	.LCFI18:
 792              		.cfi_def_cfa_offset 8
 793              		.cfi_offset 3, -8
 794              		.cfi_offset 14, -4
 795 0002 0B46     		mov	r3, r1
 204:C:/Users/lenovo/Desktop/liteos/Project2/BearPi_LiteOS/components/connectivity/agent_tiny/atiny_lwm2m\agenttiny.c **** }
 796              		.loc 1 204 0
 797 0004 017B     		ldrb	r1, [r0, #12]	@ zero_extendqisi2
 798              	.LVL124:
 799 0006 1846     		mov	r0, r3
 800              	.LVL125:
 801 0008 FFF7FEFF 		bl	lwm2m_initBootStrap
 802              	.LVL126:
 205:C:/Users/lenovo/Desktop/liteos/Project2/BearPi_LiteOS/components/connectivity/agent_tiny/atiny_lwm2m\agenttiny.c **** 
 803              		.loc 1 205 0
 804 000c 08BD     		pop	{r3, pc}
 805              		.cfi_endproc
 806              	.LFE146:
 808              		.section	.text.atiny_init_objects,"ax",%progbits
 809              		.align	1
 810              		.global	atiny_init_objects
 811              		.syntax unified
 812              		.thumb
 813              		.thumb_func
 814              		.fpu fpv4-sp-d16
 816              	atiny_init_objects:
 817              	.LFB147:
 215:C:/Users/lenovo/Desktop/liteos/Project2/BearPi_LiteOS/components/connectivity/agent_tiny/atiny_lwm2m\agenttiny.c ****     int result;
 818              		.loc 1 215 0
 819              		.cfi_startproc
 820              		@ args = 0, pretend = 0, frame = 0
 821              		@ frame_needed = 0, uses_anonymous_args = 0
 822              	.LVL127:
 823 0000 2DE9F043 		push	{r4, r5, r6, r7, r8, r9, lr}
 824              	.LCFI19:
 825              		.cfi_def_cfa_offset 28
 826              		.cfi_offset 4, -28
 827              		.cfi_offset 5, -24
 828              		.cfi_offset 6, -20
 829              		.cfi_offset 7, -16
 830              		.cfi_offset 8, -12
 831              		.cfi_offset 9, -8
 832              		.cfi_offset 14, -4
 833 0004 83B0     		sub	sp, sp, #12
 834              	.LCFI20:
 835              		.cfi_def_cfa_offset 40
 836 0006 0646     		mov	r6, r0
 837 0008 8846     		mov	r8, r1
 838 000a 1446     		mov	r4, r2
 839              	.LVL128:
 220:C:/Users/lenovo/Desktop/liteos/Project2/BearPi_LiteOS/components/connectivity/agent_tiny/atiny_lwm2m\agenttiny.c **** 
ARM GAS  c:\Users\lenovo\AppData\Local\Temp\ccDAYDpu.s 			page 36


 840              		.loc 1 220 0
 841 000c 0F68     		ldr	r7, [r1]
 842              	.LVL129:
 224:C:/Users/lenovo/Desktop/liteos/Project2/BearPi_LiteOS/components/connectivity/agent_tiny/atiny_lwm2m\agenttiny.c ****     memset(pdata, 0, sizeof(client_data_t));
 843              		.loc 1 224 0
 844 000e 02F14005 		add	r5, r2, #64
 845              	.LVL130:
 225:C:/Users/lenovo/Desktop/liteos/Project2/BearPi_LiteOS/components/connectivity/agent_tiny/atiny_lwm2m\agenttiny.c **** 
 846              		.loc 1 225 0
 847 0012 0023     		movs	r3, #0
 848 0014 1364     		str	r3, [r2, #64]	@ unaligned
 849 0016 6B60     		str	r3, [r5, #4]	@ unaligned
 850 0018 AB60     		str	r3, [r5, #8]	@ unaligned
 851 001a EB60     		str	r3, [r5, #12]	@ unaligned
 227:C:/Users/lenovo/Desktop/liteos/Project2/BearPi_LiteOS/components/connectivity/agent_tiny/atiny_lwm2m\agenttiny.c **** 
 852              		.loc 1 227 0
 853 001c FFF7FEFF 		bl	atiny_get_log_level
 854              	.LVL131:
 855 0020 0128     		cmp	r0, #1
 856 0022 60D9     		bls	.L99
 857              	.L76:
 229:C:/Users/lenovo/Desktop/liteos/Project2/BearPi_LiteOS/components/connectivity/agent_tiny/atiny_lwm2m\agenttiny.c ****     if (NULL == lwm2m_context)
 858              		.loc 1 229 0
 859 0024 2846     		mov	r0, r5
 860 0026 FFF7FEFF 		bl	lwm2m_init
 861              	.LVL132:
 230:C:/Users/lenovo/Desktop/liteos/Project2/BearPi_LiteOS/components/connectivity/agent_tiny/atiny_lwm2m\agenttiny.c ****     {
 862              		.loc 1 230 0
 863 002a 0546     		mov	r5, r0
 864              	.LVL133:
 865 002c 0028     		cmp	r0, #0
 866 002e 69D0     		beq	.L100
 235:C:/Users/lenovo/Desktop/liteos/Project2/BearPi_LiteOS/components/connectivity/agent_tiny/atiny_lwm2m\agenttiny.c ****     if (NULL == lwm2m_context->observe_mutex)
 867              		.loc 1 235 0
 868 0030 FFF7FEFF 		bl	atiny_mutex_create
 869              	.LVL134:
 870 0034 2862     		str	r0, [r5, #32]
 236:C:/Users/lenovo/Desktop/liteos/Project2/BearPi_LiteOS/components/connectivity/agent_tiny/atiny_lwm2m\agenttiny.c ****     {
 871              		.loc 1 236 0
 872 0036 0028     		cmp	r0, #0
 873 0038 7FD0     		beq	.L101
 243:C:/Users/lenovo/Desktop/liteos/Project2/BearPi_LiteOS/components/connectivity/agent_tiny/atiny_lwm2m\agenttiny.c **** 
 874              		.loc 1 243 0
 875 003a E564     		str	r5, [r4, #76]
 245:C:/Users/lenovo/Desktop/liteos/Project2/BearPi_LiteOS/components/connectivity/agent_tiny/atiny_lwm2m\agenttiny.c **** 
 876              		.loc 1 245 0
 877 003c 2560     		str	r5, [r4]
 248:C:/Users/lenovo/Desktop/liteos/Project2/BearPi_LiteOS/components/connectivity/agent_tiny/atiny_lwm2m\agenttiny.c **** 
 878              		.loc 1 248 0
 879 003e 2946     		mov	r1, r5
 880 0040 3046     		mov	r0, r6
 881 0042 FFF7FEFF 		bl	atiny_set_bootstrap_sequence_state
 882              	.LVL135:
 250:C:/Users/lenovo/Desktop/liteos/Project2/BearPi_LiteOS/components/connectivity/agent_tiny/atiny_lwm2m\agenttiny.c **** 
 883              		.loc 1 250 0
 884 0046 2A46     		mov	r2, r5
 885 0048 3146     		mov	r1, r6
ARM GAS  c:\Users\lenovo\AppData\Local\Temp\ccDAYDpu.s 			page 37


 886 004a 7B20     		movs	r0, #123
 887 004c FFF7FEFF 		bl	get_security_object
 888              	.LVL136:
 889 0050 2065     		str	r0, [r4, #80]
 252:C:/Users/lenovo/Desktop/liteos/Project2/BearPi_LiteOS/components/connectivity/agent_tiny/atiny_lwm2m\agenttiny.c ****     {
 890              		.loc 1 252 0
 891 0052 0028     		cmp	r0, #0
 892 0054 00F08A80 		beq	.L102
 257:C:/Users/lenovo/Desktop/liteos/Project2/BearPi_LiteOS/components/connectivity/agent_tiny/atiny_lwm2m\agenttiny.c **** 
 893              		.loc 1 257 0
 894 0058 2064     		str	r0, [r4, #64]
 260:C:/Users/lenovo/Desktop/liteos/Project2/BearPi_LiteOS/components/connectivity/agent_tiny/atiny_lwm2m\agenttiny.c ****     if (NULL == handle->obj_array[OBJ_SERVER_INDEX])
 895              		.loc 1 260 0
 896 005a B368     		ldr	r3, [r6, #8]
 259:C:/Users/lenovo/Desktop/liteos/Project2/BearPi_LiteOS/components/connectivity/agent_tiny/atiny_lwm2m\agenttiny.c ****                                           atiny_params->server_params.life_time, atiny_params->serv
 897              		.loc 1 259 0
 898 005c 0033     		adds	r3, r3, #0
 899 005e 18BF     		it	ne
 900 0060 0123     		movne	r3, #1
 901 0062 7268     		ldr	r2, [r6, #4]
 902 0064 3168     		ldr	r1, [r6]
 903 0066 7B20     		movs	r0, #123
 904 0068 FFF7FEFF 		bl	get_server_object
 905              	.LVL137:
 906 006c 6065     		str	r0, [r4, #84]
 261:C:/Users/lenovo/Desktop/liteos/Project2/BearPi_LiteOS/components/connectivity/agent_tiny/atiny_lwm2m\agenttiny.c ****     {
 907              		.loc 1 261 0
 908 006e 0028     		cmp	r0, #0
 909 0070 00F09480 		beq	.L103
 267:C:/Users/lenovo/Desktop/liteos/Project2/BearPi_LiteOS/components/connectivity/agent_tiny/atiny_lwm2m\agenttiny.c ****     if (NULL == handle->obj_array[OBJ_ACCESS_CONTROL_INDEX])
 910              		.loc 1 267 0
 911 0074 FFF7FEFF 		bl	acc_ctrl_create_object
 912              	.LVL138:
 913 0078 A065     		str	r0, [r4, #88]
 268:C:/Users/lenovo/Desktop/liteos/Project2/BearPi_LiteOS/components/connectivity/agent_tiny/atiny_lwm2m\agenttiny.c ****     {
 914              		.loc 1 268 0
 915 007a 0028     		cmp	r0, #0
 916 007c 00F0A780 		beq	.L104
 274:C:/Users/lenovo/Desktop/liteos/Project2/BearPi_LiteOS/components/connectivity/agent_tiny/atiny_lwm2m\agenttiny.c ****     if (NULL == handle->obj_array[OBJ_DEVICE_INDEX])
 917              		.loc 1 274 0
 918 0080 D8F80410 		ldr	r1, [r8, #4]
 919 0084 3046     		mov	r0, r6
 920 0086 FFF7FEFF 		bl	get_object_device
 921              	.LVL139:
 922 008a E065     		str	r0, [r4, #92]
 275:C:/Users/lenovo/Desktop/liteos/Project2/BearPi_LiteOS/components/connectivity/agent_tiny/atiny_lwm2m\agenttiny.c ****     {
 923              		.loc 1 275 0
 924 008c 0028     		cmp	r0, #0
 925 008e 00F0B780 		beq	.L105
 281:C:/Users/lenovo/Desktop/liteos/Project2/BearPi_LiteOS/components/connectivity/agent_tiny/atiny_lwm2m\agenttiny.c ****     if (NULL == handle->obj_array[OBJ_CONNECT_INDEX])
 926              		.loc 1 281 0
 927 0092 3046     		mov	r0, r6
 928 0094 FFF7FEFF 		bl	get_object_conn_m
 929              	.LVL140:
 930 0098 2066     		str	r0, [r4, #96]
 282:C:/Users/lenovo/Desktop/liteos/Project2/BearPi_LiteOS/components/connectivity/agent_tiny/atiny_lwm2m\agenttiny.c ****     {
 931              		.loc 1 282 0
ARM GAS  c:\Users\lenovo\AppData\Local\Temp\ccDAYDpu.s 			page 38


 932 009a 0028     		cmp	r0, #0
 933 009c 00F0C980 		beq	.L106
 288:C:/Users/lenovo/Desktop/liteos/Project2/BearPi_LiteOS/components/connectivity/agent_tiny/atiny_lwm2m\agenttiny.c **** #ifdef CONFIG_FEATURE_FOTA
 934              		.loc 1 288 0
 935 00a0 3046     		mov	r0, r6
 936 00a2 FFF7FEFF 		bl	get_object_firmware
 937              	.LVL141:
 938 00a6 6066     		str	r0, [r4, #100]
 290:C:/Users/lenovo/Desktop/liteos/Project2/BearPi_LiteOS/components/connectivity/agent_tiny/atiny_lwm2m\agenttiny.c ****     {
 939              		.loc 1 290 0
 940 00a8 0028     		cmp	r0, #0
 941 00aa 00F0DB80 		beq	.L107
 297:C:/Users/lenovo/Desktop/liteos/Project2/BearPi_LiteOS/components/connectivity/agent_tiny/atiny_lwm2m\agenttiny.c ****     if (NULL == handle->obj_array[OBJ_LOCATION_INDEX])
 942              		.loc 1 297 0
 943 00ae FFF7FEFF 		bl	get_object_location
 944              	.LVL142:
 945 00b2 A066     		str	r0, [r4, #104]
 298:C:/Users/lenovo/Desktop/liteos/Project2/BearPi_LiteOS/components/connectivity/agent_tiny/atiny_lwm2m\agenttiny.c ****     {
 946              		.loc 1 298 0
 947 00b4 0028     		cmp	r0, #0
 948 00b6 00F0EE80 		beq	.L108
 304:C:/Users/lenovo/Desktop/liteos/Project2/BearPi_LiteOS/components/connectivity/agent_tiny/atiny_lwm2m\agenttiny.c ****     if (NULL == handle->obj_array[OBJ_APP_INDEX])
 949              		.loc 1 304 0
 950 00ba 3046     		mov	r0, r6
 951 00bc FFF7FEFF 		bl	get_binary_app_data_object
 952              	.LVL143:
 953 00c0 E066     		str	r0, [r4, #108]
 305:C:/Users/lenovo/Desktop/liteos/Project2/BearPi_LiteOS/components/connectivity/agent_tiny/atiny_lwm2m\agenttiny.c ****     {
 954              		.loc 1 305 0
 955 00c2 0028     		cmp	r0, #0
 956 00c4 00F00081 		beq	.L109
 311:C:/Users/lenovo/Desktop/liteos/Project2/BearPi_LiteOS/components/connectivity/agent_tiny/atiny_lwm2m\agenttiny.c ****     if (result != 0)
 957              		.loc 1 311 0
 958 00c8 5034     		adds	r4, r4, #80
 959              	.LVL144:
 960 00ca 0194     		str	r4, [sp, #4]
 961 00cc 0823     		movs	r3, #8
 962 00ce 0093     		str	r3, [sp]
 963 00d0 0023     		movs	r3, #0
 964 00d2 1A46     		mov	r2, r3
 965 00d4 3946     		mov	r1, r7
 966 00d6 2846     		mov	r0, r5
 967 00d8 FFF7FEFF 		bl	lwm2m_configure
 968              	.LVL145:
 312:C:/Users/lenovo/Desktop/liteos/Project2/BearPi_LiteOS/components/connectivity/agent_tiny/atiny_lwm2m\agenttiny.c ****     {
 969              		.loc 1 312 0
 970 00dc 0346     		mov	r3, r0
 971 00de B8B1     		cbz	r0, .L75
 314:C:/Users/lenovo/Desktop/liteos/Project2/BearPi_LiteOS/components/connectivity/agent_tiny/atiny_lwm2m\agenttiny.c ****     }
 972              		.loc 1 314 0
 973 00e0 6FF00403 		mvn	r3, #4
 974 00e4 14E0     		b	.L75
 975              	.LVL146:
 976              	.L99:
 227:C:/Users/lenovo/Desktop/liteos/Project2/BearPi_LiteOS/components/connectivity/agent_tiny/atiny_lwm2m\agenttiny.c **** 
 977              		.loc 1 227 0 discriminator 1
 978 00e6 0120     		movs	r0, #1
ARM GAS  c:\Users\lenovo\AppData\Local\Temp\ccDAYDpu.s 			page 39


 979 00e8 FFF7FEFF 		bl	atiny_get_log_level_name
 980              	.LVL147:
 981 00ec 8146     		mov	r9, r0
 982 00ee FFF7FEFF 		bl	atiny_gettime_ms
 983              	.LVL148:
 984 00f2 E323     		movs	r3, #227
 985 00f4 0093     		str	r3, [sp]
 986 00f6 814B     		ldr	r3, .L120
 987 00f8 0246     		mov	r2, r0
 988 00fa 4946     		mov	r1, r9
 989 00fc 8048     		ldr	r0, .L120+4
 990 00fe FFF7FEFF 		bl	atiny_printf
 991              	.LVL149:
 992 0102 8FE7     		b	.L76
 993              	.LVL150:
 994              	.L100:
 232:C:/Users/lenovo/Desktop/liteos/Project2/BearPi_LiteOS/components/connectivity/agent_tiny/atiny_lwm2m\agenttiny.c ****         return ATINY_MALLOC_FAILED;
 995              		.loc 1 232 0
 996 0104 FFF7FEFF 		bl	atiny_get_log_level
 997              	.LVL151:
 998 0108 0428     		cmp	r0, #4
 999 010a 05D9     		bls	.L110
 233:C:/Users/lenovo/Desktop/liteos/Project2/BearPi_LiteOS/components/connectivity/agent_tiny/atiny_lwm2m\agenttiny.c ****     }
 1000              		.loc 1 233 0
 1001 010c 6FF00303 		mvn	r3, #3
 1002              	.LVL152:
 1003              	.L75:
 318:C:/Users/lenovo/Desktop/liteos/Project2/BearPi_LiteOS/components/connectivity/agent_tiny/atiny_lwm2m\agenttiny.c **** 
 1004              		.loc 1 318 0
 1005 0110 1846     		mov	r0, r3
 1006 0112 03B0     		add	sp, sp, #12
 1007              	.LCFI21:
 1008              		.cfi_remember_state
 1009              		.cfi_def_cfa_offset 28
 1010              		@ sp needed
 1011 0114 BDE8F083 		pop	{r4, r5, r6, r7, r8, r9, pc}
 1012              	.LVL153:
 1013              	.L110:
 1014              	.LCFI22:
 1015              		.cfi_restore_state
 232:C:/Users/lenovo/Desktop/liteos/Project2/BearPi_LiteOS/components/connectivity/agent_tiny/atiny_lwm2m\agenttiny.c ****         return ATINY_MALLOC_FAILED;
 1016              		.loc 1 232 0 discriminator 1
 1017 0118 0420     		movs	r0, #4
 1018 011a FFF7FEFF 		bl	atiny_get_log_level_name
 1019              	.LVL154:
 1020 011e 0446     		mov	r4, r0
 1021              	.LVL155:
 1022 0120 FFF7FEFF 		bl	atiny_gettime_ms
 1023              	.LVL156:
 1024 0124 E823     		movs	r3, #232
 1025 0126 0093     		str	r3, [sp]
 1026 0128 744B     		ldr	r3, .L120
 1027 012a 0246     		mov	r2, r0
 1028 012c 2146     		mov	r1, r4
 1029 012e 7548     		ldr	r0, .L120+8
 1030 0130 FFF7FEFF 		bl	atiny_printf
 1031              	.LVL157:
ARM GAS  c:\Users\lenovo\AppData\Local\Temp\ccDAYDpu.s 			page 40


 233:C:/Users/lenovo/Desktop/liteos/Project2/BearPi_LiteOS/components/connectivity/agent_tiny/atiny_lwm2m\agenttiny.c ****     }
 1032              		.loc 1 233 0 discriminator 1
 1033 0134 6FF00303 		mvn	r3, #3
 1034 0138 EAE7     		b	.L75
 1035              	.LVL158:
 1036              	.L101:
 238:C:/Users/lenovo/Desktop/liteos/Project2/BearPi_LiteOS/components/connectivity/agent_tiny/atiny_lwm2m\agenttiny.c ****         lwm2m_free(lwm2m_context);
 1037              		.loc 1 238 0
 1038 013a FFF7FEFF 		bl	atiny_get_log_level
 1039              	.LVL159:
 1040 013e 0428     		cmp	r0, #4
 1041 0140 05D9     		bls	.L111
 1042              	.LVL160:
 1043              	.L80:
 239:C:/Users/lenovo/Desktop/liteos/Project2/BearPi_LiteOS/components/connectivity/agent_tiny/atiny_lwm2m\agenttiny.c ****         return ATINY_RESOURCE_NOT_ENOUGH;
 1044              		.loc 1 239 0
 1045 0142 2846     		mov	r0, r5
 1046 0144 FFF7FEFF 		bl	lwm2m_free
 1047              	.LVL161:
 240:C:/Users/lenovo/Desktop/liteos/Project2/BearPi_LiteOS/components/connectivity/agent_tiny/atiny_lwm2m\agenttiny.c ****     }
 1048              		.loc 1 240 0
 1049 0148 6FF00503 		mvn	r3, #5
 1050 014c E0E7     		b	.L75
 1051              	.LVL162:
 1052              	.L111:
 238:C:/Users/lenovo/Desktop/liteos/Project2/BearPi_LiteOS/components/connectivity/agent_tiny/atiny_lwm2m\agenttiny.c ****         lwm2m_free(lwm2m_context);
 1053              		.loc 1 238 0 discriminator 1
 1054 014e 0420     		movs	r0, #4
 1055 0150 FFF7FEFF 		bl	atiny_get_log_level_name
 1056              	.LVL163:
 1057 0154 0446     		mov	r4, r0
 1058              	.LVL164:
 1059 0156 FFF7FEFF 		bl	atiny_gettime_ms
 1060              	.LVL165:
 1061 015a EE23     		movs	r3, #238
 1062 015c 0093     		str	r3, [sp]
 1063 015e 674B     		ldr	r3, .L120
 1064 0160 0246     		mov	r2, r0
 1065 0162 2146     		mov	r1, r4
 1066 0164 6848     		ldr	r0, .L120+12
 1067 0166 FFF7FEFF 		bl	atiny_printf
 1068              	.LVL166:
 1069 016a EAE7     		b	.L80
 1070              	.LVL167:
 1071              	.L102:
 254:C:/Users/lenovo/Desktop/liteos/Project2/BearPi_LiteOS/components/connectivity/agent_tiny/atiny_lwm2m\agenttiny.c ****         return ATINY_MALLOC_FAILED;
 1072              		.loc 1 254 0
 1073 016c FFF7FEFF 		bl	atiny_get_log_level
 1074              	.LVL168:
 1075 0170 0428     		cmp	r0, #4
 1076 0172 02D9     		bls	.L112
 255:C:/Users/lenovo/Desktop/liteos/Project2/BearPi_LiteOS/components/connectivity/agent_tiny/atiny_lwm2m\agenttiny.c ****     }
 1077              		.loc 1 255 0
 1078 0174 6FF00303 		mvn	r3, #3
 1079 0178 CAE7     		b	.L75
 1080              	.L112:
 254:C:/Users/lenovo/Desktop/liteos/Project2/BearPi_LiteOS/components/connectivity/agent_tiny/atiny_lwm2m\agenttiny.c ****         return ATINY_MALLOC_FAILED;
ARM GAS  c:\Users\lenovo\AppData\Local\Temp\ccDAYDpu.s 			page 41


 1081              		.loc 1 254 0 discriminator 1
 1082 017a 0420     		movs	r0, #4
 1083 017c FFF7FEFF 		bl	atiny_get_log_level_name
 1084              	.LVL169:
 1085 0180 0446     		mov	r4, r0
 1086              	.LVL170:
 1087 0182 FFF7FEFF 		bl	atiny_gettime_ms
 1088              	.LVL171:
 1089 0186 FE23     		movs	r3, #254
 1090 0188 0093     		str	r3, [sp]
 1091 018a 5C4B     		ldr	r3, .L120
 1092 018c 0246     		mov	r2, r0
 1093 018e 2146     		mov	r1, r4
 1094 0190 5E48     		ldr	r0, .L120+16
 1095 0192 FFF7FEFF 		bl	atiny_printf
 1096              	.LVL172:
 255:C:/Users/lenovo/Desktop/liteos/Project2/BearPi_LiteOS/components/connectivity/agent_tiny/atiny_lwm2m\agenttiny.c ****     }
 1097              		.loc 1 255 0 discriminator 1
 1098 0196 6FF00303 		mvn	r3, #3
 1099 019a B9E7     		b	.L75
 1100              	.LVL173:
 1101              	.L103:
 263:C:/Users/lenovo/Desktop/liteos/Project2/BearPi_LiteOS/components/connectivity/agent_tiny/atiny_lwm2m\agenttiny.c ****         return ATINY_MALLOC_FAILED;
 1102              		.loc 1 263 0
 1103 019c FFF7FEFF 		bl	atiny_get_log_level
 1104              	.LVL174:
 1105 01a0 0428     		cmp	r0, #4
 1106 01a2 02D9     		bls	.L113
 264:C:/Users/lenovo/Desktop/liteos/Project2/BearPi_LiteOS/components/connectivity/agent_tiny/atiny_lwm2m\agenttiny.c ****     }
 1107              		.loc 1 264 0
 1108 01a4 6FF00303 		mvn	r3, #3
 1109 01a8 B2E7     		b	.L75
 1110              	.L113:
 263:C:/Users/lenovo/Desktop/liteos/Project2/BearPi_LiteOS/components/connectivity/agent_tiny/atiny_lwm2m\agenttiny.c ****         return ATINY_MALLOC_FAILED;
 1111              		.loc 1 263 0 discriminator 1
 1112 01aa 0420     		movs	r0, #4
 1113 01ac FFF7FEFF 		bl	atiny_get_log_level_name
 1114              	.LVL175:
 1115 01b0 0446     		mov	r4, r0
 1116              	.LVL176:
 1117 01b2 FFF7FEFF 		bl	atiny_gettime_ms
 1118              	.LVL177:
 1119 01b6 40F20713 		movw	r3, #263
 1120 01ba 0093     		str	r3, [sp]
 1121 01bc 4F4B     		ldr	r3, .L120
 1122 01be 0246     		mov	r2, r0
 1123 01c0 2146     		mov	r1, r4
 1124 01c2 5348     		ldr	r0, .L120+20
 1125 01c4 FFF7FEFF 		bl	atiny_printf
 1126              	.LVL178:
 264:C:/Users/lenovo/Desktop/liteos/Project2/BearPi_LiteOS/components/connectivity/agent_tiny/atiny_lwm2m\agenttiny.c ****     }
 1127              		.loc 1 264 0 discriminator 1
 1128 01c8 6FF00303 		mvn	r3, #3
 1129 01cc A0E7     		b	.L75
 1130              	.LVL179:
 1131              	.L104:
 270:C:/Users/lenovo/Desktop/liteos/Project2/BearPi_LiteOS/components/connectivity/agent_tiny/atiny_lwm2m\agenttiny.c ****         return ATINY_MALLOC_FAILED;
ARM GAS  c:\Users\lenovo\AppData\Local\Temp\ccDAYDpu.s 			page 42


 1132              		.loc 1 270 0
 1133 01ce FFF7FEFF 		bl	atiny_get_log_level
 1134              	.LVL180:
 1135 01d2 0428     		cmp	r0, #4
 1136 01d4 02D9     		bls	.L114
 271:C:/Users/lenovo/Desktop/liteos/Project2/BearPi_LiteOS/components/connectivity/agent_tiny/atiny_lwm2m\agenttiny.c ****     }
 1137              		.loc 1 271 0
 1138 01d6 6FF00303 		mvn	r3, #3
 1139 01da 99E7     		b	.L75
 1140              	.L114:
 270:C:/Users/lenovo/Desktop/liteos/Project2/BearPi_LiteOS/components/connectivity/agent_tiny/atiny_lwm2m\agenttiny.c ****         return ATINY_MALLOC_FAILED;
 1141              		.loc 1 270 0 discriminator 1
 1142 01dc 0420     		movs	r0, #4
 1143 01de FFF7FEFF 		bl	atiny_get_log_level_name
 1144              	.LVL181:
 1145 01e2 0446     		mov	r4, r0
 1146              	.LVL182:
 1147 01e4 FFF7FEFF 		bl	atiny_gettime_ms
 1148              	.LVL183:
 1149 01e8 4FF48773 		mov	r3, #270
 1150 01ec 0093     		str	r3, [sp]
 1151 01ee 434B     		ldr	r3, .L120
 1152 01f0 0246     		mov	r2, r0
 1153 01f2 2146     		mov	r1, r4
 1154 01f4 4748     		ldr	r0, .L120+24
 1155 01f6 FFF7FEFF 		bl	atiny_printf
 1156              	.LVL184:
 271:C:/Users/lenovo/Desktop/liteos/Project2/BearPi_LiteOS/components/connectivity/agent_tiny/atiny_lwm2m\agenttiny.c ****     }
 1157              		.loc 1 271 0 discriminator 1
 1158 01fa 6FF00303 		mvn	r3, #3
 1159 01fe 87E7     		b	.L75
 1160              	.LVL185:
 1161              	.L105:
 277:C:/Users/lenovo/Desktop/liteos/Project2/BearPi_LiteOS/components/connectivity/agent_tiny/atiny_lwm2m\agenttiny.c ****         return ATINY_MALLOC_FAILED;
 1162              		.loc 1 277 0
 1163 0200 FFF7FEFF 		bl	atiny_get_log_level
 1164              	.LVL186:
 1165 0204 0428     		cmp	r0, #4
 1166 0206 02D9     		bls	.L115
 278:C:/Users/lenovo/Desktop/liteos/Project2/BearPi_LiteOS/components/connectivity/agent_tiny/atiny_lwm2m\agenttiny.c ****     }
 1167              		.loc 1 278 0
 1168 0208 6FF00303 		mvn	r3, #3
 1169 020c 80E7     		b	.L75
 1170              	.L115:
 277:C:/Users/lenovo/Desktop/liteos/Project2/BearPi_LiteOS/components/connectivity/agent_tiny/atiny_lwm2m\agenttiny.c ****         return ATINY_MALLOC_FAILED;
 1171              		.loc 1 277 0 discriminator 1
 1172 020e 0420     		movs	r0, #4
 1173 0210 FFF7FEFF 		bl	atiny_get_log_level_name
 1174              	.LVL187:
 1175 0214 0446     		mov	r4, r0
 1176              	.LVL188:
 1177 0216 FFF7FEFF 		bl	atiny_gettime_ms
 1178              	.LVL189:
 1179 021a 40F21513 		movw	r3, #277
 1180 021e 0093     		str	r3, [sp]
 1181 0220 364B     		ldr	r3, .L120
 1182 0222 0246     		mov	r2, r0
ARM GAS  c:\Users\lenovo\AppData\Local\Temp\ccDAYDpu.s 			page 43


 1183 0224 2146     		mov	r1, r4
 1184 0226 3C48     		ldr	r0, .L120+28
 1185 0228 FFF7FEFF 		bl	atiny_printf
 1186              	.LVL190:
 278:C:/Users/lenovo/Desktop/liteos/Project2/BearPi_LiteOS/components/connectivity/agent_tiny/atiny_lwm2m\agenttiny.c ****     }
 1187              		.loc 1 278 0 discriminator 1
 1188 022c 6FF00303 		mvn	r3, #3
 1189 0230 6EE7     		b	.L75
 1190              	.LVL191:
 1191              	.L106:
 284:C:/Users/lenovo/Desktop/liteos/Project2/BearPi_LiteOS/components/connectivity/agent_tiny/atiny_lwm2m\agenttiny.c ****         return ATINY_MALLOC_FAILED;
 1192              		.loc 1 284 0
 1193 0232 FFF7FEFF 		bl	atiny_get_log_level
 1194              	.LVL192:
 1195 0236 0428     		cmp	r0, #4
 1196 0238 02D9     		bls	.L116
 285:C:/Users/lenovo/Desktop/liteos/Project2/BearPi_LiteOS/components/connectivity/agent_tiny/atiny_lwm2m\agenttiny.c ****     }
 1197              		.loc 1 285 0
 1198 023a 6FF00303 		mvn	r3, #3
 1199 023e 67E7     		b	.L75
 1200              	.L116:
 284:C:/Users/lenovo/Desktop/liteos/Project2/BearPi_LiteOS/components/connectivity/agent_tiny/atiny_lwm2m\agenttiny.c ****         return ATINY_MALLOC_FAILED;
 1201              		.loc 1 284 0 discriminator 1
 1202 0240 0420     		movs	r0, #4
 1203 0242 FFF7FEFF 		bl	atiny_get_log_level_name
 1204              	.LVL193:
 1205 0246 0446     		mov	r4, r0
 1206              	.LVL194:
 1207 0248 FFF7FEFF 		bl	atiny_gettime_ms
 1208              	.LVL195:
 1209 024c 4FF48E73 		mov	r3, #284
 1210 0250 0093     		str	r3, [sp]
 1211 0252 2A4B     		ldr	r3, .L120
 1212 0254 0246     		mov	r2, r0
 1213 0256 2146     		mov	r1, r4
 1214 0258 3048     		ldr	r0, .L120+32
 1215 025a FFF7FEFF 		bl	atiny_printf
 1216              	.LVL196:
 285:C:/Users/lenovo/Desktop/liteos/Project2/BearPi_LiteOS/components/connectivity/agent_tiny/atiny_lwm2m\agenttiny.c ****     }
 1217              		.loc 1 285 0 discriminator 1
 1218 025e 6FF00303 		mvn	r3, #3
 1219 0262 55E7     		b	.L75
 1220              	.LVL197:
 1221              	.L107:
 292:C:/Users/lenovo/Desktop/liteos/Project2/BearPi_LiteOS/components/connectivity/agent_tiny/atiny_lwm2m\agenttiny.c ****         return ATINY_MALLOC_FAILED;
 1222              		.loc 1 292 0
 1223 0264 FFF7FEFF 		bl	atiny_get_log_level
 1224              	.LVL198:
 1225 0268 0428     		cmp	r0, #4
 1226 026a 02D9     		bls	.L117
 293:C:/Users/lenovo/Desktop/liteos/Project2/BearPi_LiteOS/components/connectivity/agent_tiny/atiny_lwm2m\agenttiny.c ****     }
 1227              		.loc 1 293 0
 1228 026c 6FF00303 		mvn	r3, #3
 1229 0270 4EE7     		b	.L75
 1230              	.L117:
 292:C:/Users/lenovo/Desktop/liteos/Project2/BearPi_LiteOS/components/connectivity/agent_tiny/atiny_lwm2m\agenttiny.c ****         return ATINY_MALLOC_FAILED;
 1231              		.loc 1 292 0 discriminator 1
ARM GAS  c:\Users\lenovo\AppData\Local\Temp\ccDAYDpu.s 			page 44


 1232 0272 0420     		movs	r0, #4
 1233 0274 FFF7FEFF 		bl	atiny_get_log_level_name
 1234              	.LVL199:
 1235 0278 0446     		mov	r4, r0
 1236              	.LVL200:
 1237 027a FFF7FEFF 		bl	atiny_gettime_ms
 1238              	.LVL201:
 1239 027e 4FF49273 		mov	r3, #292
 1240 0282 0093     		str	r3, [sp]
 1241 0284 1D4B     		ldr	r3, .L120
 1242 0286 0246     		mov	r2, r0
 1243 0288 2146     		mov	r1, r4
 1244 028a 2548     		ldr	r0, .L120+36
 1245 028c FFF7FEFF 		bl	atiny_printf
 1246              	.LVL202:
 293:C:/Users/lenovo/Desktop/liteos/Project2/BearPi_LiteOS/components/connectivity/agent_tiny/atiny_lwm2m\agenttiny.c ****     }
 1247              		.loc 1 293 0 discriminator 1
 1248 0290 6FF00303 		mvn	r3, #3
 1249 0294 3CE7     		b	.L75
 1250              	.LVL203:
 1251              	.L108:
 300:C:/Users/lenovo/Desktop/liteos/Project2/BearPi_LiteOS/components/connectivity/agent_tiny/atiny_lwm2m\agenttiny.c ****         return ATINY_MALLOC_FAILED;
 1252              		.loc 1 300 0
 1253 0296 FFF7FEFF 		bl	atiny_get_log_level
 1254              	.LVL204:
 1255 029a 0428     		cmp	r0, #4
 1256 029c 02D9     		bls	.L118
 301:C:/Users/lenovo/Desktop/liteos/Project2/BearPi_LiteOS/components/connectivity/agent_tiny/atiny_lwm2m\agenttiny.c ****     }
 1257              		.loc 1 301 0
 1258 029e 6FF00303 		mvn	r3, #3
 1259 02a2 35E7     		b	.L75
 1260              	.L118:
 300:C:/Users/lenovo/Desktop/liteos/Project2/BearPi_LiteOS/components/connectivity/agent_tiny/atiny_lwm2m\agenttiny.c ****         return ATINY_MALLOC_FAILED;
 1261              		.loc 1 300 0 discriminator 1
 1262 02a4 0420     		movs	r0, #4
 1263 02a6 FFF7FEFF 		bl	atiny_get_log_level_name
 1264              	.LVL205:
 1265 02aa 0446     		mov	r4, r0
 1266              	.LVL206:
 1267 02ac FFF7FEFF 		bl	atiny_gettime_ms
 1268              	.LVL207:
 1269 02b0 4FF49673 		mov	r3, #300
 1270 02b4 0093     		str	r3, [sp]
 1271 02b6 114B     		ldr	r3, .L120
 1272 02b8 0246     		mov	r2, r0
 1273 02ba 2146     		mov	r1, r4
 1274 02bc 1948     		ldr	r0, .L120+40
 1275 02be FFF7FEFF 		bl	atiny_printf
 1276              	.LVL208:
 301:C:/Users/lenovo/Desktop/liteos/Project2/BearPi_LiteOS/components/connectivity/agent_tiny/atiny_lwm2m\agenttiny.c ****     }
 1277              		.loc 1 301 0 discriminator 1
 1278 02c2 6FF00303 		mvn	r3, #3
 1279 02c6 23E7     		b	.L75
 1280              	.LVL209:
 1281              	.L109:
 307:C:/Users/lenovo/Desktop/liteos/Project2/BearPi_LiteOS/components/connectivity/agent_tiny/atiny_lwm2m\agenttiny.c ****         return ATINY_MALLOC_FAILED;
 1282              		.loc 1 307 0
ARM GAS  c:\Users\lenovo\AppData\Local\Temp\ccDAYDpu.s 			page 45


 1283 02c8 FFF7FEFF 		bl	atiny_get_log_level
 1284              	.LVL210:
 1285 02cc 0428     		cmp	r0, #4
 1286 02ce 02D9     		bls	.L119
 308:C:/Users/lenovo/Desktop/liteos/Project2/BearPi_LiteOS/components/connectivity/agent_tiny/atiny_lwm2m\agenttiny.c ****     }
 1287              		.loc 1 308 0
 1288 02d0 6FF00303 		mvn	r3, #3
 1289 02d4 1CE7     		b	.L75
 1290              	.L119:
 307:C:/Users/lenovo/Desktop/liteos/Project2/BearPi_LiteOS/components/connectivity/agent_tiny/atiny_lwm2m\agenttiny.c ****         return ATINY_MALLOC_FAILED;
 1291              		.loc 1 307 0 discriminator 1
 1292 02d6 0420     		movs	r0, #4
 1293 02d8 FFF7FEFF 		bl	atiny_get_log_level_name
 1294              	.LVL211:
 1295 02dc 0446     		mov	r4, r0
 1296              	.LVL212:
 1297 02de FFF7FEFF 		bl	atiny_gettime_ms
 1298              	.LVL213:
 1299 02e2 40F23313 		movw	r3, #307
 1300 02e6 0093     		str	r3, [sp]
 1301 02e8 044B     		ldr	r3, .L120
 1302 02ea 0246     		mov	r2, r0
 1303 02ec 2146     		mov	r1, r4
 1304 02ee 0E48     		ldr	r0, .L120+44
 1305 02f0 FFF7FEFF 		bl	atiny_printf
 1306              	.LVL214:
 308:C:/Users/lenovo/Desktop/liteos/Project2/BearPi_LiteOS/components/connectivity/agent_tiny/atiny_lwm2m\agenttiny.c ****     }
 1307              		.loc 1 308 0 discriminator 1
 1308 02f4 6FF00303 		mvn	r3, #3
 1309 02f8 0AE7     		b	.L75
 1310              	.L121:
 1311 02fa 00BF     		.align	2
 1312              	.L120:
 1313 02fc 00000000 		.word	.LANCHOR6
 1314 0300 00000000 		.word	.LC9
 1315 0304 2C000000 		.word	.LC10
 1316 0308 8C000000 		.word	.LC8
 1317 030c 50000000 		.word	.LC11
 1318 0310 84000000 		.word	.LC12
 1319 0314 B8000000 		.word	.LC13
 1320 0318 F4000000 		.word	.LC14
 1321 031c 28010000 		.word	.LC15
 1322 0320 5C010000 		.word	.LC16
 1323 0324 90010000 		.word	.LC17
 1324 0328 C4010000 		.word	.LC18
 1325              		.cfi_endproc
 1326              	.LFE147:
 1328              		.section	.text.atiny_destroy,"ax",%progbits
 1329              		.align	1
 1330              		.global	atiny_destroy
 1331              		.syntax unified
 1332              		.thumb
 1333              		.thumb_func
 1334              		.fpu fpv4-sp-d16
 1336              	atiny_destroy:
 1337              	.LFB149:
 350:C:/Users/lenovo/Desktop/liteos/Project2/BearPi_LiteOS/components/connectivity/agent_tiny/atiny_lwm2m\agenttiny.c ****     handle_data_t *handle_data = (handle_data_t *)handle;
ARM GAS  c:\Users\lenovo\AppData\Local\Temp\ccDAYDpu.s 			page 46


 1338              		.loc 1 350 0
 1339              		.cfi_startproc
 1340              		@ args = 0, pretend = 0, frame = 0
 1341              		@ frame_needed = 0, uses_anonymous_args = 0
 1342              	.LVL215:
 353:C:/Users/lenovo/Desktop/liteos/Project2/BearPi_LiteOS/components/connectivity/agent_tiny/atiny_lwm2m\agenttiny.c ****     {
 1343              		.loc 1 353 0
 1344 0000 0028     		cmp	r0, #0
 1345 0002 39D0     		beq	.L136
 350:C:/Users/lenovo/Desktop/liteos/Project2/BearPi_LiteOS/components/connectivity/agent_tiny/atiny_lwm2m\agenttiny.c ****     handle_data_t *handle_data = (handle_data_t *)handle;
 1346              		.loc 1 350 0
 1347 0004 10B5     		push	{r4, lr}
 1348              	.LCFI23:
 1349              		.cfi_def_cfa_offset 8
 1350              		.cfi_offset 4, -8
 1351              		.cfi_offset 14, -4
 1352 0006 0446     		mov	r4, r0
 358:C:/Users/lenovo/Desktop/liteos/Project2/BearPi_LiteOS/components/connectivity/agent_tiny/atiny_lwm2m\agenttiny.c **** #endif
 1353              		.loc 1 358 0
 1354 0008 FFF7FEFF 		bl	atiny_fota_manager_get_instance
 1355              	.LVL216:
 1356 000c FFF7FEFF 		bl	atiny_fota_manager_destroy
 1357              	.LVL217:
 360:C:/Users/lenovo/Desktop/liteos/Project2/BearPi_LiteOS/components/connectivity/agent_tiny/atiny_lwm2m\agenttiny.c ****     {
 1358              		.loc 1 360 0
 1359 0010 D4F88000 		ldr	r0, [r4, #128]
 1360 0014 08B1     		cbz	r0, .L124
 362:C:/Users/lenovo/Desktop/liteos/Project2/BearPi_LiteOS/components/connectivity/agent_tiny/atiny_lwm2m\agenttiny.c ****     }
 1361              		.loc 1 362 0
 1362 0016 FFF7FEFF 		bl	lwm2m_free
 1363              	.LVL218:
 1364              	.L124:
 364:C:/Users/lenovo/Desktop/liteos/Project2/BearPi_LiteOS/components/connectivity/agent_tiny/atiny_lwm2m\agenttiny.c ****     {
 1365              		.loc 1 364 0
 1366 001a 206D     		ldr	r0, [r4, #80]
 1367 001c 08B1     		cbz	r0, .L125
 366:C:/Users/lenovo/Desktop/liteos/Project2/BearPi_LiteOS/components/connectivity/agent_tiny/atiny_lwm2m\agenttiny.c ****     }
 1368              		.loc 1 366 0
 1369 001e FFF7FEFF 		bl	clean_security_object
 1370              	.LVL219:
 1371              	.L125:
 369:C:/Users/lenovo/Desktop/liteos/Project2/BearPi_LiteOS/components/connectivity/agent_tiny/atiny_lwm2m\agenttiny.c ****     {
 1372              		.loc 1 369 0
 1373 0022 606D     		ldr	r0, [r4, #84]
 1374 0024 08B1     		cbz	r0, .L126
 371:C:/Users/lenovo/Desktop/liteos/Project2/BearPi_LiteOS/components/connectivity/agent_tiny/atiny_lwm2m\agenttiny.c ****     }
 1375              		.loc 1 371 0
 1376 0026 FFF7FEFF 		bl	clean_server_object
 1377              	.LVL220:
 1378              	.L126:
 374:C:/Users/lenovo/Desktop/liteos/Project2/BearPi_LiteOS/components/connectivity/agent_tiny/atiny_lwm2m\agenttiny.c ****     {
 1379              		.loc 1 374 0
 1380 002a A06D     		ldr	r0, [r4, #88]
 1381 002c 08B1     		cbz	r0, .L127
 376:C:/Users/lenovo/Desktop/liteos/Project2/BearPi_LiteOS/components/connectivity/agent_tiny/atiny_lwm2m\agenttiny.c ****     }
 1382              		.loc 1 376 0
 1383 002e FFF7FEFF 		bl	acl_ctrl_free_object
ARM GAS  c:\Users\lenovo\AppData\Local\Temp\ccDAYDpu.s 			page 47


 1384              	.LVL221:
 1385              	.L127:
 379:C:/Users/lenovo/Desktop/liteos/Project2/BearPi_LiteOS/components/connectivity/agent_tiny/atiny_lwm2m\agenttiny.c ****     {
 1386              		.loc 1 379 0
 1387 0032 E06D     		ldr	r0, [r4, #92]
 1388 0034 08B1     		cbz	r0, .L128
 381:C:/Users/lenovo/Desktop/liteos/Project2/BearPi_LiteOS/components/connectivity/agent_tiny/atiny_lwm2m\agenttiny.c ****     }
 1389              		.loc 1 381 0
 1390 0036 FFF7FEFF 		bl	free_object_device
 1391              	.LVL222:
 1392              	.L128:
 384:C:/Users/lenovo/Desktop/liteos/Project2/BearPi_LiteOS/components/connectivity/agent_tiny/atiny_lwm2m\agenttiny.c ****     {
 1393              		.loc 1 384 0
 1394 003a 206E     		ldr	r0, [r4, #96]
 1395 003c 08B1     		cbz	r0, .L129
 386:C:/Users/lenovo/Desktop/liteos/Project2/BearPi_LiteOS/components/connectivity/agent_tiny/atiny_lwm2m\agenttiny.c ****     }
 1396              		.loc 1 386 0
 1397 003e FFF7FEFF 		bl	free_object_conn_m
 1398              	.LVL223:
 1399              	.L129:
 389:C:/Users/lenovo/Desktop/liteos/Project2/BearPi_LiteOS/components/connectivity/agent_tiny/atiny_lwm2m\agenttiny.c ****     {
 1400              		.loc 1 389 0
 1401 0042 606E     		ldr	r0, [r4, #100]
 1402 0044 08B1     		cbz	r0, .L130
 391:C:/Users/lenovo/Desktop/liteos/Project2/BearPi_LiteOS/components/connectivity/agent_tiny/atiny_lwm2m\agenttiny.c ****     }
 1403              		.loc 1 391 0
 1404 0046 FFF7FEFF 		bl	free_object_firmware
 1405              	.LVL224:
 1406              	.L130:
 394:C:/Users/lenovo/Desktop/liteos/Project2/BearPi_LiteOS/components/connectivity/agent_tiny/atiny_lwm2m\agenttiny.c ****     {
 1407              		.loc 1 394 0
 1408 004a A06E     		ldr	r0, [r4, #104]
 1409 004c 08B1     		cbz	r0, .L131
 396:C:/Users/lenovo/Desktop/liteos/Project2/BearPi_LiteOS/components/connectivity/agent_tiny/atiny_lwm2m\agenttiny.c ****     }
 1410              		.loc 1 396 0
 1411 004e FFF7FEFF 		bl	free_object_location
 1412              	.LVL225:
 1413              	.L131:
 399:C:/Users/lenovo/Desktop/liteos/Project2/BearPi_LiteOS/components/connectivity/agent_tiny/atiny_lwm2m\agenttiny.c ****     {
 1414              		.loc 1 399 0
 1415 0052 E06E     		ldr	r0, [r4, #108]
 1416 0054 08B1     		cbz	r0, .L132
 401:C:/Users/lenovo/Desktop/liteos/Project2/BearPi_LiteOS/components/connectivity/agent_tiny/atiny_lwm2m\agenttiny.c ****     }
 1417              		.loc 1 401 0
 1418 0056 FFF7FEFF 		bl	free_binary_app_data_object
 1419              	.LVL226:
 1420              	.L132:
 403:C:/Users/lenovo/Desktop/liteos/Project2/BearPi_LiteOS/components/connectivity/agent_tiny/atiny_lwm2m\agenttiny.c **** 
 1421              		.loc 1 403 0
 1422 005a FFF7FEFF 		bl	atiny_destroy_rpt
 1423              	.LVL227:
 405:C:/Users/lenovo/Desktop/liteos/Project2/BearPi_LiteOS/components/connectivity/agent_tiny/atiny_lwm2m\agenttiny.c ****     {
 1424              		.loc 1 405 0
 1425 005e 2368     		ldr	r3, [r4]
 1426 0060 33B1     		cbz	r3, .L133
 407:C:/Users/lenovo/Desktop/liteos/Project2/BearPi_LiteOS/components/connectivity/agent_tiny/atiny_lwm2m\agenttiny.c ****         {
 1427              		.loc 1 407 0
ARM GAS  c:\Users\lenovo\AppData\Local\Temp\ccDAYDpu.s 			page 48


 1428 0062 186A     		ldr	r0, [r3, #32]
 1429 0064 08B1     		cbz	r0, .L134
 409:C:/Users/lenovo/Desktop/liteos/Project2/BearPi_LiteOS/components/connectivity/agent_tiny/atiny_lwm2m\agenttiny.c ****         }
 1430              		.loc 1 409 0
 1431 0066 FFF7FEFF 		bl	atiny_mutex_destroy
 1432              	.LVL228:
 1433              	.L134:
 411:C:/Users/lenovo/Desktop/liteos/Project2/BearPi_LiteOS/components/connectivity/agent_tiny/atiny_lwm2m\agenttiny.c ****     }
 1434              		.loc 1 411 0
 1435 006a 2068     		ldr	r0, [r4]
 1436 006c FFF7FEFF 		bl	lwm2m_close
 1437              	.LVL229:
 1438              	.L133:
 413:C:/Users/lenovo/Desktop/liteos/Project2/BearPi_LiteOS/components/connectivity/agent_tiny/atiny_lwm2m\agenttiny.c **** }
 1439              		.loc 1 413 0
 1440 0070 A06F     		ldr	r0, [r4, #120]
 1441 0072 FFF7FEFF 		bl	atiny_mutex_unlock
 1442              	.LVL230:
 414:C:/Users/lenovo/Desktop/liteos/Project2/BearPi_LiteOS/components/connectivity/agent_tiny/atiny_lwm2m\agenttiny.c **** 
 1443              		.loc 1 414 0
 1444 0076 10BD     		pop	{r4, pc}
 1445              	.LVL231:
 1446              	.L136:
 1447              	.LCFI24:
 1448              		.cfi_def_cfa_offset 0
 1449              		.cfi_restore 4
 1450              		.cfi_restore 14
 1451 0078 7047     		bx	lr
 1452              		.cfi_endproc
 1453              	.LFE149:
 1455              		.section	.text.reboot_check,"ax",%progbits
 1456              		.align	1
 1457              		.global	reboot_check
 1458              		.syntax unified
 1459              		.thumb
 1460              		.thumb_func
 1461              		.fpu fpv4-sp-d16
 1463              	reboot_check:
 1464              	.LFB151:
 476:C:/Users/lenovo/Desktop/liteos/Project2/BearPi_LiteOS/components/connectivity/agent_tiny/atiny_lwm2m\agenttiny.c ****     if(g_reboot == 1)
 1465              		.loc 1 476 0
 1466              		.cfi_startproc
 1467              		@ args = 0, pretend = 0, frame = 0
 1468              		@ frame_needed = 0, uses_anonymous_args = 0
 1469 0000 08B5     		push	{r3, lr}
 1470              	.LCFI25:
 1471              		.cfi_def_cfa_offset 8
 1472              		.cfi_offset 3, -8
 1473              		.cfi_offset 14, -4
 477:C:/Users/lenovo/Desktop/liteos/Project2/BearPi_LiteOS/components/connectivity/agent_tiny/atiny_lwm2m\agenttiny.c ****     {
 1474              		.loc 1 477 0
 1475 0002 054B     		ldr	r3, .L143
 1476 0004 1B68     		ldr	r3, [r3]
 1477 0006 012B     		cmp	r3, #1
 1478 0008 00D0     		beq	.L142
 1479              	.L139:
 481:C:/Users/lenovo/Desktop/liteos/Project2/BearPi_LiteOS/components/connectivity/agent_tiny/atiny_lwm2m\agenttiny.c **** 
ARM GAS  c:\Users\lenovo\AppData\Local\Temp\ccDAYDpu.s 			page 49


 1480              		.loc 1 481 0
 1481 000a 08BD     		pop	{r3, pc}
 1482              	.L142:
 479:C:/Users/lenovo/Desktop/liteos/Project2/BearPi_LiteOS/components/connectivity/agent_tiny/atiny_lwm2m\agenttiny.c ****     }
 1483              		.loc 1 479 0
 1484 000c 0022     		movs	r2, #0
 1485 000e 1146     		mov	r1, r2
 1486 0010 0420     		movs	r0, #4
 1487 0012 FFF7FEFF 		bl	atiny_cmd_ioctl
 1488              	.LVL232:
 481:C:/Users/lenovo/Desktop/liteos/Project2/BearPi_LiteOS/components/connectivity/agent_tiny/atiny_lwm2m\agenttiny.c **** 
 1489              		.loc 1 481 0
 1490 0016 F8E7     		b	.L139
 1491              	.L144:
 1492              		.align	2
 1493              	.L143:
 1494 0018 00000000 		.word	.LANCHOR7
 1495              		.cfi_endproc
 1496              	.LFE151:
 1498              		.section	.text.atiny_deinit,"ax",%progbits
 1499              		.align	1
 1500              		.global	atiny_deinit
 1501              		.syntax unified
 1502              		.thumb
 1503              		.thumb_func
 1504              		.fpu fpv4-sp-d16
 1506              	atiny_deinit:
 1507              	.LFB155:
 577:C:/Users/lenovo/Desktop/liteos/Project2/BearPi_LiteOS/components/connectivity/agent_tiny/atiny_lwm2m\agenttiny.c ****     handle_data_t *handle;
 1508              		.loc 1 577 0
 1509              		.cfi_startproc
 1510              		@ args = 0, pretend = 0, frame = 0
 1511              		@ frame_needed = 0, uses_anonymous_args = 0
 1512              	.LVL233:
 581:C:/Users/lenovo/Desktop/liteos/Project2/BearPi_LiteOS/components/connectivity/agent_tiny/atiny_lwm2m\agenttiny.c ****     {
 1513              		.loc 1 581 0
 1514 0000 50B1     		cbz	r0, .L148
 577:C:/Users/lenovo/Desktop/liteos/Project2/BearPi_LiteOS/components/connectivity/agent_tiny/atiny_lwm2m\agenttiny.c ****     handle_data_t *handle;
 1515              		.loc 1 577 0
 1516 0002 10B5     		push	{r4, lr}
 1517              	.LCFI26:
 1518              		.cfi_def_cfa_offset 8
 1519              		.cfi_offset 4, -8
 1520              		.cfi_offset 14, -4
 1521              	.LVL234:
 587:C:/Users/lenovo/Desktop/liteos/Project2/BearPi_LiteOS/components/connectivity/agent_tiny/atiny_lwm2m\agenttiny.c ****     sem = handle->quit_sem;
 1522              		.loc 1 587 0
 1523 0004 0123     		movs	r3, #1
 1524 0006 0367     		str	r3, [r0, #112]
 588:C:/Users/lenovo/Desktop/liteos/Project2/BearPi_LiteOS/components/connectivity/agent_tiny/atiny_lwm2m\agenttiny.c ****     atiny_mutex_lock(sem);
 1525              		.loc 1 588 0
 1526 0008 846F     		ldr	r4, [r0, #120]
 1527              	.LVL235:
 589:C:/Users/lenovo/Desktop/liteos/Project2/BearPi_LiteOS/components/connectivity/agent_tiny/atiny_lwm2m\agenttiny.c ****     atiny_mutex_destroy(sem);
 1528              		.loc 1 589 0
 1529 000a 2046     		mov	r0, r4
 1530              	.LVL236:
ARM GAS  c:\Users\lenovo\AppData\Local\Temp\ccDAYDpu.s 			page 50


 1531 000c FFF7FEFF 		bl	atiny_mutex_lock
 1532              	.LVL237:
 590:C:/Users/lenovo/Desktop/liteos/Project2/BearPi_LiteOS/components/connectivity/agent_tiny/atiny_lwm2m\agenttiny.c **** }
 1533              		.loc 1 590 0
 1534 0010 2046     		mov	r0, r4
 1535 0012 FFF7FEFF 		bl	atiny_mutex_destroy
 1536              	.LVL238:
 591:C:/Users/lenovo/Desktop/liteos/Project2/BearPi_LiteOS/components/connectivity/agent_tiny/atiny_lwm2m\agenttiny.c **** 
 1537              		.loc 1 591 0
 1538 0016 10BD     		pop	{r4, pc}
 1539              	.LVL239:
 1540              	.L148:
 1541              	.LCFI27:
 1542              		.cfi_def_cfa_offset 0
 1543              		.cfi_restore 4
 1544              		.cfi_restore 14
 1545 0018 7047     		bx	lr
 1546              		.cfi_endproc
 1547              	.LFE155:
 1549              		.section	.text.atiny_bind,"ax",%progbits
 1550              		.align	1
 1551              		.global	atiny_bind
 1552              		.syntax unified
 1553              		.thumb
 1554              		.thumb_func
 1555              		.fpu fpv4-sp-d16
 1557              	atiny_bind:
 1558              	.LFB154:
 513:C:/Users/lenovo/Desktop/liteos/Project2/BearPi_LiteOS/components/connectivity/agent_tiny/atiny_lwm2m\agenttiny.c ****     handle_data_t *handle = (handle_data_t *)phandle;
 1559              		.loc 1 513 0
 1560              		.cfi_startproc
 1561              		@ args = 0, pretend = 0, frame = 8
 1562              		@ frame_needed = 0, uses_anonymous_args = 0
 1563              	.LVL240:
 1564 0000 70B5     		push	{r4, r5, r6, lr}
 1565              	.LCFI28:
 1566              		.cfi_def_cfa_offset 16
 1567              		.cfi_offset 4, -16
 1568              		.cfi_offset 5, -12
 1569              		.cfi_offset 6, -8
 1570              		.cfi_offset 14, -4
 1571 0002 84B0     		sub	sp, sp, #16
 1572              	.LCFI29:
 1573              		.cfi_def_cfa_offset 32
 1574 0004 0C46     		mov	r4, r1
 1575              	.LVL241:
 518:C:/Users/lenovo/Desktop/liteos/Project2/BearPi_LiteOS/components/connectivity/agent_tiny/atiny_lwm2m\agenttiny.c ****     {
 1576              		.loc 1 518 0
 1577 0006 B8B1     		cbz	r0, .L152
 1578 0008 0146     		mov	r1, r0
 1579              	.LVL242:
 518:C:/Users/lenovo/Desktop/liteos/Project2/BearPi_LiteOS/components/connectivity/agent_tiny/atiny_lwm2m\agenttiny.c ****     {
 1580              		.loc 1 518 0 is_stmt 0 discriminator 1
 1581 000a ACB1     		cbz	r4, .L152
 525:C:/Users/lenovo/Desktop/liteos/Project2/BearPi_LiteOS/components/connectivity/agent_tiny/atiny_lwm2m\agenttiny.c ****     {
 1582              		.loc 1 525 0 is_stmt 1
 1583 000c 0368     		ldr	r3, [r0]
ARM GAS  c:\Users\lenovo\AppData\Local\Temp\ccDAYDpu.s 			page 51


 1584 000e 6BB3     		cbz	r3, .L166
 532:C:/Users/lenovo/Desktop/liteos/Project2/BearPi_LiteOS/components/connectivity/agent_tiny/atiny_lwm2m\agenttiny.c ****     {
 1585              		.loc 1 532 0
 1586 0010 4368     		ldr	r3, [r0, #4]
 1587 0012 002B     		cmp	r3, #0
 1588 0014 44D0     		beq	.L167
 539:C:/Users/lenovo/Desktop/liteos/Project2/BearPi_LiteOS/components/connectivity/agent_tiny/atiny_lwm2m\agenttiny.c ****     if (ret != ATINY_OK)
 1589              		.loc 1 539 0
 1590 0016 2246     		mov	r2, r4
 1591 0018 201D     		adds	r0, r4, #4
 1592              	.LVL243:
 1593 001a FFF7FEFF 		bl	atiny_init_objects
 1594              	.LVL244:
 540:C:/Users/lenovo/Desktop/liteos/Project2/BearPi_LiteOS/components/connectivity/agent_tiny/atiny_lwm2m\agenttiny.c ****     {
 1595              		.loc 1 540 0
 1596 001e 0646     		mov	r6, r0
 1597 0020 0028     		cmp	r0, #0
 1598 0022 68D0     		beq	.L160
 542:C:/Users/lenovo/Desktop/liteos/Project2/BearPi_LiteOS/components/connectivity/agent_tiny/atiny_lwm2m\agenttiny.c ****         atiny_destroy(handle);
 1599              		.loc 1 542 0
 1600 0024 FFF7FEFF 		bl	atiny_get_log_level
 1601              	.LVL245:
 1602 0028 0428     		cmp	r0, #4
 1603 002a 53D9     		bls	.L168
 1604              	.L161:
 543:C:/Users/lenovo/Desktop/liteos/Project2/BearPi_LiteOS/components/connectivity/agent_tiny/atiny_lwm2m\agenttiny.c ****         return ret;
 1605              		.loc 1 543 0
 1606 002c 2046     		mov	r0, r4
 1607 002e FFF7FEFF 		bl	atiny_destroy
 1608              	.LVL246:
 1609              	.L151:
 574:C:/Users/lenovo/Desktop/liteos/Project2/BearPi_LiteOS/components/connectivity/agent_tiny/atiny_lwm2m\agenttiny.c **** 
 1610              		.loc 1 574 0
 1611 0032 3046     		mov	r0, r6
 1612 0034 04B0     		add	sp, sp, #16
 1613              	.LCFI30:
 1614              		.cfi_remember_state
 1615              		.cfi_def_cfa_offset 16
 1616              		@ sp needed
 1617 0036 70BD     		pop	{r4, r5, r6, pc}
 1618              	.LVL247:
 1619              	.L152:
 1620              	.LCFI31:
 1621              		.cfi_restore_state
 520:C:/Users/lenovo/Desktop/liteos/Project2/BearPi_LiteOS/components/connectivity/agent_tiny/atiny_lwm2m\agenttiny.c ****         atiny_deinit(phandle);
 1622              		.loc 1 520 0
 1623 0038 FFF7FEFF 		bl	atiny_get_log_level
 1624              	.LVL248:
 1625 003c 0428     		cmp	r0, #4
 1626 003e 05D9     		bls	.L169
 1627              	.L154:
 521:C:/Users/lenovo/Desktop/liteos/Project2/BearPi_LiteOS/components/connectivity/agent_tiny/atiny_lwm2m\agenttiny.c ****         return ATINY_ARG_INVALID;
 1628              		.loc 1 521 0
 1629 0040 2046     		mov	r0, r4
 1630 0042 FFF7FEFF 		bl	atiny_deinit
 1631              	.LVL249:
 522:C:/Users/lenovo/Desktop/liteos/Project2/BearPi_LiteOS/components/connectivity/agent_tiny/atiny_lwm2m\agenttiny.c ****     }
ARM GAS  c:\Users\lenovo\AppData\Local\Temp\ccDAYDpu.s 			page 52


 1632              		.loc 1 522 0
 1633 0046 4FF0FF36 		mov	r6, #-1
 1634 004a F2E7     		b	.L151
 1635              	.L169:
 520:C:/Users/lenovo/Desktop/liteos/Project2/BearPi_LiteOS/components/connectivity/agent_tiny/atiny_lwm2m\agenttiny.c ****         atiny_deinit(phandle);
 1636              		.loc 1 520 0 discriminator 1
 1637 004c 0420     		movs	r0, #4
 1638 004e FFF7FEFF 		bl	atiny_get_log_level_name
 1639              	.LVL250:
 1640 0052 0546     		mov	r5, r0
 1641 0054 FFF7FEFF 		bl	atiny_gettime_ms
 1642              	.LVL251:
 1643 0058 4FF40273 		mov	r3, #520
 1644 005c 0093     		str	r3, [sp]
 1645 005e 4A4B     		ldr	r3, .L173
 1646 0060 0246     		mov	r2, r0
 1647 0062 2946     		mov	r1, r5
 1648 0064 4948     		ldr	r0, .L173+4
 1649 0066 FFF7FEFF 		bl	atiny_printf
 1650              	.LVL252:
 1651 006a E9E7     		b	.L154
 1652              	.LVL253:
 1653              	.L166:
 527:C:/Users/lenovo/Desktop/liteos/Project2/BearPi_LiteOS/components/connectivity/agent_tiny/atiny_lwm2m\agenttiny.c ****         atiny_deinit(phandle);
 1654              		.loc 1 527 0
 1655 006c FFF7FEFF 		bl	atiny_get_log_level
 1656              	.LVL254:
 1657 0070 0428     		cmp	r0, #4
 1658 0072 05D9     		bls	.L170
 1659              	.L157:
 528:C:/Users/lenovo/Desktop/liteos/Project2/BearPi_LiteOS/components/connectivity/agent_tiny/atiny_lwm2m\agenttiny.c ****         return ATINY_ARG_INVALID;
 1660              		.loc 1 528 0
 1661 0074 2046     		mov	r0, r4
 1662 0076 FFF7FEFF 		bl	atiny_deinit
 1663              	.LVL255:
 529:C:/Users/lenovo/Desktop/liteos/Project2/BearPi_LiteOS/components/connectivity/agent_tiny/atiny_lwm2m\agenttiny.c ****     }
 1664              		.loc 1 529 0
 1665 007a 4FF0FF36 		mov	r6, #-1
 1666 007e D8E7     		b	.L151
 1667              	.L170:
 527:C:/Users/lenovo/Desktop/liteos/Project2/BearPi_LiteOS/components/connectivity/agent_tiny/atiny_lwm2m\agenttiny.c ****         atiny_deinit(phandle);
 1668              		.loc 1 527 0 discriminator 1
 1669 0080 0420     		movs	r0, #4
 1670 0082 FFF7FEFF 		bl	atiny_get_log_level_name
 1671              	.LVL256:
 1672 0086 0546     		mov	r5, r0
 1673 0088 FFF7FEFF 		bl	atiny_gettime_ms
 1674              	.LVL257:
 1675 008c 40F20F23 		movw	r3, #527
 1676 0090 0093     		str	r3, [sp]
 1677 0092 3D4B     		ldr	r3, .L173
 1678 0094 0246     		mov	r2, r0
 1679 0096 2946     		mov	r1, r5
 1680 0098 3D48     		ldr	r0, .L173+8
 1681 009a FFF7FEFF 		bl	atiny_printf
 1682              	.LVL258:
 1683 009e E9E7     		b	.L157
ARM GAS  c:\Users\lenovo\AppData\Local\Temp\ccDAYDpu.s 			page 53


 1684              	.LVL259:
 1685              	.L167:
 534:C:/Users/lenovo/Desktop/liteos/Project2/BearPi_LiteOS/components/connectivity/agent_tiny/atiny_lwm2m\agenttiny.c ****         atiny_deinit(phandle);
 1686              		.loc 1 534 0
 1687 00a0 FFF7FEFF 		bl	atiny_get_log_level
 1688              	.LVL260:
 1689 00a4 0428     		cmp	r0, #4
 1690 00a6 05D9     		bls	.L171
 1691              	.L159:
 535:C:/Users/lenovo/Desktop/liteos/Project2/BearPi_LiteOS/components/connectivity/agent_tiny/atiny_lwm2m\agenttiny.c ****         return ATINY_ARG_INVALID;
 1692              		.loc 1 535 0
 1693 00a8 2046     		mov	r0, r4
 1694 00aa FFF7FEFF 		bl	atiny_deinit
 1695              	.LVL261:
 536:C:/Users/lenovo/Desktop/liteos/Project2/BearPi_LiteOS/components/connectivity/agent_tiny/atiny_lwm2m\agenttiny.c ****     }
 1696              		.loc 1 536 0
 1697 00ae 4FF0FF36 		mov	r6, #-1
 1698 00b2 BEE7     		b	.L151
 1699              	.L171:
 534:C:/Users/lenovo/Desktop/liteos/Project2/BearPi_LiteOS/components/connectivity/agent_tiny/atiny_lwm2m\agenttiny.c ****         atiny_deinit(phandle);
 1700              		.loc 1 534 0 discriminator 1
 1701 00b4 0420     		movs	r0, #4
 1702 00b6 FFF7FEFF 		bl	atiny_get_log_level_name
 1703              	.LVL262:
 1704 00ba 0546     		mov	r5, r0
 1705 00bc FFF7FEFF 		bl	atiny_gettime_ms
 1706              	.LVL263:
 1707 00c0 40F21623 		movw	r3, #534
 1708 00c4 0093     		str	r3, [sp]
 1709 00c6 304B     		ldr	r3, .L173
 1710 00c8 0246     		mov	r2, r0
 1711 00ca 2946     		mov	r1, r5
 1712 00cc 3148     		ldr	r0, .L173+12
 1713 00ce FFF7FEFF 		bl	atiny_printf
 1714              	.LVL264:
 1715 00d2 E9E7     		b	.L159
 1716              	.LVL265:
 1717              	.L168:
 542:C:/Users/lenovo/Desktop/liteos/Project2/BearPi_LiteOS/components/connectivity/agent_tiny/atiny_lwm2m\agenttiny.c ****         atiny_destroy(handle);
 1718              		.loc 1 542 0 discriminator 1
 1719 00d4 0420     		movs	r0, #4
 1720 00d6 FFF7FEFF 		bl	atiny_get_log_level_name
 1721              	.LVL266:
 1722 00da 0546     		mov	r5, r0
 1723 00dc FFF7FEFF 		bl	atiny_gettime_ms
 1724              	.LVL267:
 1725 00e0 0196     		str	r6, [sp, #4]
 1726 00e2 40F21E23 		movw	r3, #542
 1727 00e6 0093     		str	r3, [sp]
 1728 00e8 274B     		ldr	r3, .L173
 1729 00ea 0246     		mov	r2, r0
 1730 00ec 2946     		mov	r1, r5
 1731 00ee 2A48     		ldr	r0, .L173+16
 1732 00f0 FFF7FEFF 		bl	atiny_printf
 1733              	.LVL268:
 1734 00f4 9AE7     		b	.L161
 1735              	.LVL269:
ARM GAS  c:\Users\lenovo\AppData\Local\Temp\ccDAYDpu.s 			page 54


 1736              	.L160:
 547:C:/Users/lenovo/Desktop/liteos/Project2/BearPi_LiteOS/components/connectivity/agent_tiny/atiny_lwm2m\agenttiny.c **** #endif
 1737              		.loc 1 547 0
 1738 00f6 FFF7FEFF 		bl	atiny_fota_manager_get_instance
 1739              	.LVL270:
 1740 00fa 2168     		ldr	r1, [r4]
 1741 00fc FFF7FEFF 		bl	atiny_fota_manager_set_lwm2m_context
 1742              	.LVL271:
 549:C:/Users/lenovo/Desktop/liteos/Project2/BearPi_LiteOS/components/connectivity/agent_tiny/atiny_lwm2m\agenttiny.c ****     lwm2m_register_event_handler(atiny_event_handle);
 1743              		.loc 1 549 0
 1744 0100 2648     		ldr	r0, .L173+20
 1745 0102 FFF7FEFF 		bl	lwm2m_register_observe_ack_call_back
 1746              	.LVL272:
 550:C:/Users/lenovo/Desktop/liteos/Project2/BearPi_LiteOS/components/connectivity/agent_tiny/atiny_lwm2m\agenttiny.c ****     lwm2m_register_connection_err_notify(atiny_connection_err_notify);
 1747              		.loc 1 550 0
 1748 0106 2648     		ldr	r0, .L173+24
 1749 0108 FFF7FEFF 		bl	lwm2m_register_event_handler
 1750              	.LVL273:
 551:C:/Users/lenovo/Desktop/liteos/Project2/BearPi_LiteOS/components/connectivity/agent_tiny/atiny_lwm2m\agenttiny.c **** 
 1751              		.loc 1 551 0
 1752 010c 2548     		ldr	r0, .L173+28
 1753 010e FFF7FEFF 		bl	lwm2m_register_connection_err_notify
 1754              	.LVL274:
 553:C:/Users/lenovo/Desktop/liteos/Project2/BearPi_LiteOS/components/connectivity/agent_tiny/atiny_lwm2m\agenttiny.c ****     if(handle->recv_buffer == NULL)
 1755              		.loc 1 553 0
 1756 0112 4FF48060 		mov	r0, #1024
 1757 0116 FFF7FEFF 		bl	lwm2m_malloc
 1758              	.LVL275:
 1759 011a C4F88000 		str	r0, [r4, #128]
 554:C:/Users/lenovo/Desktop/liteos/Project2/BearPi_LiteOS/components/connectivity/agent_tiny/atiny_lwm2m\agenttiny.c ****     {
 1760              		.loc 1 554 0
 1761 011e 60BB     		cbnz	r0, .L162
 556:C:/Users/lenovo/Desktop/liteos/Project2/BearPi_LiteOS/components/connectivity/agent_tiny/atiny_lwm2m\agenttiny.c ****         return ATINY_MALLOC_FAILED;
 1762              		.loc 1 556 0
 1763 0120 FFF7FEFF 		bl	atiny_get_log_level
 1764              	.LVL276:
 1765 0124 0428     		cmp	r0, #4
 1766 0126 02D9     		bls	.L172
 557:C:/Users/lenovo/Desktop/liteos/Project2/BearPi_LiteOS/components/connectivity/agent_tiny/atiny_lwm2m\agenttiny.c ****     }
 1767              		.loc 1 557 0
 1768 0128 6FF00306 		mvn	r6, #3
 1769              	.LVL277:
 1770 012c 81E7     		b	.L151
 1771              	.LVL278:
 1772              	.L172:
 556:C:/Users/lenovo/Desktop/liteos/Project2/BearPi_LiteOS/components/connectivity/agent_tiny/atiny_lwm2m\agenttiny.c ****         return ATINY_MALLOC_FAILED;
 1773              		.loc 1 556 0 discriminator 1
 1774 012e 0420     		movs	r0, #4
 1775 0130 FFF7FEFF 		bl	atiny_get_log_level_name
 1776              	.LVL279:
 1777 0134 0446     		mov	r4, r0
 1778              	.LVL280:
 1779 0136 FFF7FEFF 		bl	atiny_gettime_ms
 1780              	.LVL281:
 1781 013a 4FF40B73 		mov	r3, #556
 1782 013e 0093     		str	r3, [sp]
 1783 0140 114B     		ldr	r3, .L173
ARM GAS  c:\Users\lenovo\AppData\Local\Temp\ccDAYDpu.s 			page 55


 1784 0142 0246     		mov	r2, r0
 1785 0144 2146     		mov	r1, r4
 1786 0146 1848     		ldr	r0, .L173+32
 1787 0148 FFF7FEFF 		bl	atiny_printf
 1788              	.LVL282:
 557:C:/Users/lenovo/Desktop/liteos/Project2/BearPi_LiteOS/components/connectivity/agent_tiny/atiny_lwm2m\agenttiny.c ****     }
 1789              		.loc 1 557 0 discriminator 1
 1790 014c 6FF00306 		mvn	r6, #3
 1791              	.LVL283:
 1792 0150 6FE7     		b	.L151
 1793              	.LVL284:
 1794              	.L163:
 562:C:/Users/lenovo/Desktop/liteos/Project2/BearPi_LiteOS/components/connectivity/agent_tiny/atiny_lwm2m\agenttiny.c **** 
 1795              		.loc 1 562 0
 1796 0152 04AD     		add	r5, sp, #16
 1797 0154 0A23     		movs	r3, #10
 1798 0156 45F8043D 		str	r3, [r5, #-4]!
 564:C:/Users/lenovo/Desktop/liteos/Project2/BearPi_LiteOS/components/connectivity/agent_tiny/atiny_lwm2m\agenttiny.c ****         atiny_handle_reconnect(handle);
 1799              		.loc 1 564 0
 1800 015a 2068     		ldr	r0, [r4]
 1801 015c FFF7FEFF 		bl	atiny_step_rpt
 1802              	.LVL285:
 565:C:/Users/lenovo/Desktop/liteos/Project2/BearPi_LiteOS/components/connectivity/agent_tiny/atiny_lwm2m\agenttiny.c ****         (void)lwm2m_step(handle->lwm2m_context, (time_t *)&timeout);
 1803              		.loc 1 565 0
 1804 0160 2046     		mov	r0, r4
 1805 0162 FFF7FEFF 		bl	atiny_handle_reconnect
 1806              	.LVL286:
 566:C:/Users/lenovo/Desktop/liteos/Project2/BearPi_LiteOS/components/connectivity/agent_tiny/atiny_lwm2m\agenttiny.c ****         reboot_check();
 1807              		.loc 1 566 0
 1808 0166 2946     		mov	r1, r5
 1809 0168 2068     		ldr	r0, [r4]
 1810 016a FFF7FEFF 		bl	lwm2m_step
 1811              	.LVL287:
 567:C:/Users/lenovo/Desktop/liteos/Project2/BearPi_LiteOS/components/connectivity/agent_tiny/atiny_lwm2m\agenttiny.c ****         (void)lwm2m_poll(handle, &timeout);
 1812              		.loc 1 567 0
 1813 016e FFF7FEFF 		bl	reboot_check
 1814              	.LVL288:
 568:C:/Users/lenovo/Desktop/liteos/Project2/BearPi_LiteOS/components/connectivity/agent_tiny/atiny_lwm2m\agenttiny.c ****     }
 1815              		.loc 1 568 0
 1816 0172 2946     		mov	r1, r5
 1817 0174 2046     		mov	r0, r4
 1818 0176 FFF7FEFF 		bl	lwm2m_poll
 1819              	.LVL289:
 1820              	.L162:
 560:C:/Users/lenovo/Desktop/liteos/Project2/BearPi_LiteOS/components/connectivity/agent_tiny/atiny_lwm2m\agenttiny.c ****     {
 1821              		.loc 1 560 0
 1822 017a 236F     		ldr	r3, [r4, #112]
 1823 017c 002B     		cmp	r3, #0
 1824 017e E8D0     		beq	.L163
 571:C:/Users/lenovo/Desktop/liteos/Project2/BearPi_LiteOS/components/connectivity/agent_tiny/atiny_lwm2m\agenttiny.c **** 
 1825              		.loc 1 571 0
 1826 0180 2046     		mov	r0, r4
 1827 0182 FFF7FEFF 		bl	atiny_destroy
 1828              	.LVL290:
 573:C:/Users/lenovo/Desktop/liteos/Project2/BearPi_LiteOS/components/connectivity/agent_tiny/atiny_lwm2m\agenttiny.c **** }
 1829              		.loc 1 573 0
 1830 0186 54E7     		b	.L151
ARM GAS  c:\Users\lenovo\AppData\Local\Temp\ccDAYDpu.s 			page 56


 1831              	.L174:
 1832              		.align	2
 1833              	.L173:
 1834 0188 00000000 		.word	.LANCHOR8
 1835 018c 00000000 		.word	.LC19
 1836 0190 24000000 		.word	.LC20
 1837 0194 4C000000 		.word	.LC21
 1838 0198 78000000 		.word	.LC22
 1839 019c 00000000 		.word	observe_handle_ack
 1840 01a0 00000000 		.word	atiny_event_handle
 1841 01a4 00000000 		.word	atiny_connection_err_notify
 1842 01a8 A4000000 		.word	.LC23
 1843              		.cfi_endproc
 1844              	.LFE154:
 1846              		.section	.text.atiny_data_report,"ax",%progbits
 1847              		.align	1
 1848              		.global	atiny_data_report
 1849              		.syntax unified
 1850              		.thumb
 1851              		.thumb_func
 1852              		.fpu fpv4-sp-d16
 1854              	atiny_data_report:
 1855              	.LFB156:
 594:C:/Users/lenovo/Desktop/liteos/Project2/BearPi_LiteOS/components/connectivity/agent_tiny/atiny_lwm2m\agenttiny.c ****     lwm2m_uri_t uri;
 1856              		.loc 1 594 0
 1857              		.cfi_startproc
 1858              		@ args = 0, pretend = 0, frame = 32
 1859              		@ frame_needed = 0, uses_anonymous_args = 0
 1860              	.LVL291:
 1861 0000 30B5     		push	{r4, r5, lr}
 1862              	.LCFI32:
 1863              		.cfi_def_cfa_offset 12
 1864              		.cfi_offset 4, -12
 1865              		.cfi_offset 5, -8
 1866              		.cfi_offset 14, -4
 1867 0002 8BB0     		sub	sp, sp, #44
 1868              	.LCFI33:
 1869              		.cfi_def_cfa_offset 56
 600:C:/Users/lenovo/Desktop/liteos/Project2/BearPi_LiteOS/components/connectivity/agent_tiny/atiny_lwm2m\agenttiny.c ****             || report_data->len > MAX_REPORT_DATA_LEN || NULL == report_data->buf)
 1870              		.loc 1 600 0
 1871 0004 98B1     		cbz	r0, .L176
 1872 0006 0C46     		mov	r4, r1
 600:C:/Users/lenovo/Desktop/liteos/Project2/BearPi_LiteOS/components/connectivity/agent_tiny/atiny_lwm2m\agenttiny.c ****             || report_data->len > MAX_REPORT_DATA_LEN || NULL == report_data->buf)
 1873              		.loc 1 600 0 is_stmt 0 discriminator 1
 1874 0008 89B1     		cbz	r1, .L176
 600:C:/Users/lenovo/Desktop/liteos/Project2/BearPi_LiteOS/components/connectivity/agent_tiny/atiny_lwm2m\agenttiny.c ****             || report_data->len > MAX_REPORT_DATA_LEN || NULL == report_data->buf)
 1875              		.loc 1 600 0 discriminator 2
 1876 000a 8B68     		ldr	r3, [r1, #8]
 1877 000c 002B     		cmp	r3, #0
 1878 000e 0EDD     		ble	.L176
 601:C:/Users/lenovo/Desktop/liteos/Project2/BearPi_LiteOS/components/connectivity/agent_tiny/atiny_lwm2m\agenttiny.c ****     {
 1879              		.loc 1 601 0 is_stmt 1
 1880 0010 B3F5806F 		cmp	r3, #1024
 1881 0014 0BDC     		bgt	.L176
 601:C:/Users/lenovo/Desktop/liteos/Project2/BearPi_LiteOS/components/connectivity/agent_tiny/atiny_lwm2m\agenttiny.c ****     {
 1882              		.loc 1 601 0 is_stmt 0 discriminator 1
 1883 0016 CB68     		ldr	r3, [r1, #12]
ARM GAS  c:\Users\lenovo\AppData\Local\Temp\ccDAYDpu.s 			page 57


 1884 0018 4BB1     		cbz	r3, .L176
 607:C:/Users/lenovo/Desktop/liteos/Project2/BearPi_LiteOS/components/connectivity/agent_tiny/atiny_lwm2m\agenttiny.c **** 
 1885              		.loc 1 607 0 is_stmt 1
 1886 001a 0023     		movs	r3, #0
 1887 001c 0893     		str	r3, [sp, #32]
 1888 001e 0993     		str	r3, [sp, #36]
 609:C:/Users/lenovo/Desktop/liteos/Project2/BearPi_LiteOS/components/connectivity/agent_tiny/atiny_lwm2m\agenttiny.c ****     {
 1889              		.loc 1 609 0
 1890 0020 0B78     		ldrb	r3, [r1]	@ zero_extendqisi2
 1891 0022 FBB1     		cbz	r3, .L179
 1892 0024 012B     		cmp	r3, #1
 1893 0026 40D0     		beq	.L180
 618:C:/Users/lenovo/Desktop/liteos/Project2/BearPi_LiteOS/components/connectivity/agent_tiny/atiny_lwm2m\agenttiny.c ****     }
 1894              		.loc 1 618 0
 1895 0028 6FF00404 		mvn	r4, #4
 1896 002c 05E0     		b	.L175
 1897              	.L176:
 603:C:/Users/lenovo/Desktop/liteos/Project2/BearPi_LiteOS/components/connectivity/agent_tiny/atiny_lwm2m\agenttiny.c ****         return ATINY_ARG_INVALID;
 1898              		.loc 1 603 0
 1899 002e FFF7FEFF 		bl	atiny_get_log_level
 1900              	.LVL292:
 1901 0032 0328     		cmp	r0, #3
 1902 0034 04D9     		bls	.L188
 604:C:/Users/lenovo/Desktop/liteos/Project2/BearPi_LiteOS/components/connectivity/agent_tiny/atiny_lwm2m\agenttiny.c ****     }
 1903              		.loc 1 604 0
 1904 0036 4FF0FF34 		mov	r4, #-1
 1905              	.L175:
 641:C:/Users/lenovo/Desktop/liteos/Project2/BearPi_LiteOS/components/connectivity/agent_tiny/atiny_lwm2m\agenttiny.c **** 
 1906              		.loc 1 641 0
 1907 003a 2046     		mov	r0, r4
 1908 003c 0BB0     		add	sp, sp, #44
 1909              	.LCFI34:
 1910              		.cfi_remember_state
 1911              		.cfi_def_cfa_offset 12
 1912              		@ sp needed
 1913 003e 30BD     		pop	{r4, r5, pc}
 1914              	.L188:
 1915              	.LCFI35:
 1916              		.cfi_restore_state
 603:C:/Users/lenovo/Desktop/liteos/Project2/BearPi_LiteOS/components/connectivity/agent_tiny/atiny_lwm2m\agenttiny.c ****         return ATINY_ARG_INVALID;
 1917              		.loc 1 603 0 discriminator 1
 1918 0040 0320     		movs	r0, #3
 1919 0042 FFF7FEFF 		bl	atiny_get_log_level_name
 1920              	.LVL293:
 1921 0046 0446     		mov	r4, r0
 1922 0048 FFF7FEFF 		bl	atiny_gettime_ms
 1923              	.LVL294:
 1924 004c 40F25B23 		movw	r3, #603
 1925 0050 0093     		str	r3, [sp]
 1926 0052 274B     		ldr	r3, .L191
 1927 0054 0246     		mov	r2, r0
 1928 0056 2146     		mov	r1, r4
 1929 0058 2648     		ldr	r0, .L191+4
 1930 005a FFF7FEFF 		bl	atiny_printf
 1931              	.LVL295:
 604:C:/Users/lenovo/Desktop/liteos/Project2/BearPi_LiteOS/components/connectivity/agent_tiny/atiny_lwm2m\agenttiny.c ****     }
 1932              		.loc 1 604 0 discriminator 1
ARM GAS  c:\Users\lenovo\AppData\Local\Temp\ccDAYDpu.s 			page 58


 1933 005e 4FF0FF34 		mov	r4, #-1
 1934 0062 EAE7     		b	.L175
 1935              	.LVL296:
 1936              	.L179:
 612:C:/Users/lenovo/Desktop/liteos/Project2/BearPi_LiteOS/components/connectivity/agent_tiny/atiny_lwm2m\agenttiny.c ****         break;
 1937              		.loc 1 612 0
 1938 0064 08AA     		add	r2, sp, #32
 1939 0066 0621     		movs	r1, #6
 1940              	.LVL297:
 1941 0068 2348     		ldr	r0, .L191+8
 1942              	.LVL298:
 1943 006a FFF7FEFF 		bl	lwm2m_stringToUri
 1944              	.LVL299:
 1945              	.L181:
 621:C:/Users/lenovo/Desktop/liteos/Project2/BearPi_LiteOS/components/connectivity/agent_tiny/atiny_lwm2m\agenttiny.c ****     data.buf = lwm2m_malloc(report_data->len);
 1946              		.loc 1 621 0
 1947 006e 03AD     		add	r5, sp, #12
 1948 0070 2068     		ldr	r0, [r4]	@ unaligned
 1949 0072 6168     		ldr	r1, [r4, #4]	@ unaligned
 1950 0074 A268     		ldr	r2, [r4, #8]	@ unaligned
 1951 0076 E368     		ldr	r3, [r4, #12]	@ unaligned
 1952 0078 0FC5     		stmia	r5!, {r0, r1, r2, r3}
 1953 007a 2069     		ldr	r0, [r4, #16]	@ unaligned
 1954 007c 2860     		str	r0, [r5]
 622:C:/Users/lenovo/Desktop/liteos/Project2/BearPi_LiteOS/components/connectivity/agent_tiny/atiny_lwm2m\agenttiny.c ****     if (NULL == data.buf)
 1955              		.loc 1 622 0
 1956 007e A068     		ldr	r0, [r4, #8]
 1957 0080 FFF7FEFF 		bl	lwm2m_malloc
 1958              	.LVL300:
 1959 0084 0690     		str	r0, [sp, #24]
 623:C:/Users/lenovo/Desktop/liteos/Project2/BearPi_LiteOS/components/connectivity/agent_tiny/atiny_lwm2m\agenttiny.c ****     {
 1960              		.loc 1 623 0
 1961 0086 B8B1     		cbz	r0, .L189
 628:C:/Users/lenovo/Desktop/liteos/Project2/BearPi_LiteOS/components/connectivity/agent_tiny/atiny_lwm2m\agenttiny.c **** 
 1962              		.loc 1 628 0
 1963 0088 A268     		ldr	r2, [r4, #8]
 1964 008a E168     		ldr	r1, [r4, #12]
 1965 008c FFF7FEFF 		bl	memcpy
 1966              	.LVL301:
 630:C:/Users/lenovo/Desktop/liteos/Project2/BearPi_LiteOS/components/connectivity/agent_tiny/atiny_lwm2m\agenttiny.c **** 
 1967              		.loc 1 630 0
 1968 0090 03A9     		add	r1, sp, #12
 1969 0092 08A8     		add	r0, sp, #32
 1970 0094 FFF7FEFF 		bl	atiny_queue_rpt_data
 1971              	.LVL302:
 632:C:/Users/lenovo/Desktop/liteos/Project2/BearPi_LiteOS/components/connectivity/agent_tiny/atiny_lwm2m\agenttiny.c ****     {
 1972              		.loc 1 632 0
 1973 0098 0446     		mov	r4, r0
 1974              	.LVL303:
 1975 009a 0028     		cmp	r0, #0
 1976 009c CDD0     		beq	.L175
 634:C:/Users/lenovo/Desktop/liteos/Project2/BearPi_LiteOS/components/connectivity/agent_tiny/atiny_lwm2m\agenttiny.c ****         {
 1977              		.loc 1 634 0
 1978 009e 0698     		ldr	r0, [sp, #24]
 1979              	.LVL304:
 1980 00a0 0028     		cmp	r0, #0
 1981 00a2 CAD0     		beq	.L175
ARM GAS  c:\Users\lenovo\AppData\Local\Temp\ccDAYDpu.s 			page 59


 636:C:/Users/lenovo/Desktop/liteos/Project2/BearPi_LiteOS/components/connectivity/agent_tiny/atiny_lwm2m\agenttiny.c ****         }
 1982              		.loc 1 636 0
 1983 00a4 FFF7FEFF 		bl	lwm2m_free
 1984              	.LVL305:
 1985 00a8 C7E7     		b	.L175
 1986              	.LVL306:
 1987              	.L180:
 1988              	.LBB16:
 1989              	.LBB17:
 1990              		.file 3 "C:/Users/lenovo/Desktop/liteos/Project2/BearPi_LiteOS/components/connectivity/agent_tiny/
   1:C:/Users/lenovo/Desktop/liteos/Project2/BearPi_LiteOS/components/connectivity/agent_tiny/atiny_lwm2m\atiny_rpt.h **** /*----------------------------------------------------------------------------
   2:C:/Users/lenovo/Desktop/liteos/Project2/BearPi_LiteOS/components/connectivity/agent_tiny/atiny_lwm2m\atiny_rpt.h ****  * Copyright (c) <2016-2018>, <Huawei Technologies Co., Ltd>
   3:C:/Users/lenovo/Desktop/liteos/Project2/BearPi_LiteOS/components/connectivity/agent_tiny/atiny_lwm2m\atiny_rpt.h ****  * All rights reserved.
   4:C:/Users/lenovo/Desktop/liteos/Project2/BearPi_LiteOS/components/connectivity/agent_tiny/atiny_lwm2m\atiny_rpt.h ****  * Redistribution and use in source and binary forms, with or without modification,
   5:C:/Users/lenovo/Desktop/liteos/Project2/BearPi_LiteOS/components/connectivity/agent_tiny/atiny_lwm2m\atiny_rpt.h ****  * are permitted provided that the following conditions are met:
   6:C:/Users/lenovo/Desktop/liteos/Project2/BearPi_LiteOS/components/connectivity/agent_tiny/atiny_lwm2m\atiny_rpt.h ****  * 1. Redistributions of source code must retain the above copyright notice, this list of
   7:C:/Users/lenovo/Desktop/liteos/Project2/BearPi_LiteOS/components/connectivity/agent_tiny/atiny_lwm2m\atiny_rpt.h ****  * conditions and the following disclaimer.
   8:C:/Users/lenovo/Desktop/liteos/Project2/BearPi_LiteOS/components/connectivity/agent_tiny/atiny_lwm2m\atiny_rpt.h ****  * 2. Redistributions in binary form must reproduce the above copyright notice, this list
   9:C:/Users/lenovo/Desktop/liteos/Project2/BearPi_LiteOS/components/connectivity/agent_tiny/atiny_lwm2m\atiny_rpt.h ****  * of conditions and the following disclaimer in the documentation and/or other materials
  10:C:/Users/lenovo/Desktop/liteos/Project2/BearPi_LiteOS/components/connectivity/agent_tiny/atiny_lwm2m\atiny_rpt.h ****  * provided with the distribution.
  11:C:/Users/lenovo/Desktop/liteos/Project2/BearPi_LiteOS/components/connectivity/agent_tiny/atiny_lwm2m\atiny_rpt.h ****  * 3. Neither the name of the copyright holder nor the names of its contributors may be used
  12:C:/Users/lenovo/Desktop/liteos/Project2/BearPi_LiteOS/components/connectivity/agent_tiny/atiny_lwm2m\atiny_rpt.h ****  * to endorse or promote products derived from this software without specific prior written
  13:C:/Users/lenovo/Desktop/liteos/Project2/BearPi_LiteOS/components/connectivity/agent_tiny/atiny_lwm2m\atiny_rpt.h ****  * permission.
  14:C:/Users/lenovo/Desktop/liteos/Project2/BearPi_LiteOS/components/connectivity/agent_tiny/atiny_lwm2m\atiny_rpt.h ****  * THIS SOFTWARE IS PROVIDED BY THE COPYRIGHT HOLDERS AND CONTRIBUTORS
  15:C:/Users/lenovo/Desktop/liteos/Project2/BearPi_LiteOS/components/connectivity/agent_tiny/atiny_lwm2m\atiny_rpt.h ****  * "AS IS" AND ANY EXPRESS OR IMPLIED WARRANTIES, INCLUDING, BUT NOT LIMITED TO,
  16:C:/Users/lenovo/Desktop/liteos/Project2/BearPi_LiteOS/components/connectivity/agent_tiny/atiny_lwm2m\atiny_rpt.h ****  * THE IMPLIED WARRANTIES OF MERCHANTABILITY AND FITNESS FOR A PARTICULAR
  17:C:/Users/lenovo/Desktop/liteos/Project2/BearPi_LiteOS/components/connectivity/agent_tiny/atiny_lwm2m\atiny_rpt.h ****  * PURPOSE ARE DISCLAIMED. IN NO EVENT SHALL THE COPYRIGHT HOLDER OR
  18:C:/Users/lenovo/Desktop/liteos/Project2/BearPi_LiteOS/components/connectivity/agent_tiny/atiny_lwm2m\atiny_rpt.h ****  * CONTRIBUTORS BE LIABLE FOR ANY DIRECT, INDIRECT, INCIDENTAL, SPECIAL,
  19:C:/Users/lenovo/Desktop/liteos/Project2/BearPi_LiteOS/components/connectivity/agent_tiny/atiny_lwm2m\atiny_rpt.h ****  * EXEMPLARY, OR CONSEQUENTIAL DAMAGES (INCLUDING, BUT NOT LIMITED TO,
  20:C:/Users/lenovo/Desktop/liteos/Project2/BearPi_LiteOS/components/connectivity/agent_tiny/atiny_lwm2m\atiny_rpt.h ****  * PROCUREMENT OF SUBSTITUTE GOODS OR SERVICES; LOSS OF USE, DATA, OR PROFITS;
  21:C:/Users/lenovo/Desktop/liteos/Project2/BearPi_LiteOS/components/connectivity/agent_tiny/atiny_lwm2m\atiny_rpt.h ****  * OR BUSINESS INTERRUPTION) HOWEVER CAUSED AND ON ANY THEORY OF LIABILITY,
  22:C:/Users/lenovo/Desktop/liteos/Project2/BearPi_LiteOS/components/connectivity/agent_tiny/atiny_lwm2m\atiny_rpt.h ****  * WHETHER IN CONTRACT, STRICT LIABILITY, OR TORT (INCLUDING NEGLIGENCE OR
  23:C:/Users/lenovo/Desktop/liteos/Project2/BearPi_LiteOS/components/connectivity/agent_tiny/atiny_lwm2m\atiny_rpt.h ****  * OTHERWISE) ARISING IN ANY WAY OUT OF THE USE OF THIS SOFTWARE, EVEN IF
  24:C:/Users/lenovo/Desktop/liteos/Project2/BearPi_LiteOS/components/connectivity/agent_tiny/atiny_lwm2m\atiny_rpt.h ****  * ADVISED OF THE POSSIBILITY OF SUCH DAMAGE.
  25:C:/Users/lenovo/Desktop/liteos/Project2/BearPi_LiteOS/components/connectivity/agent_tiny/atiny_lwm2m\atiny_rpt.h ****  *---------------------------------------------------------------------------*/
  26:C:/Users/lenovo/Desktop/liteos/Project2/BearPi_LiteOS/components/connectivity/agent_tiny/atiny_lwm2m\atiny_rpt.h **** /*----------------------------------------------------------------------------
  27:C:/Users/lenovo/Desktop/liteos/Project2/BearPi_LiteOS/components/connectivity/agent_tiny/atiny_lwm2m\atiny_rpt.h ****  * Notice of Export Control Law
  28:C:/Users/lenovo/Desktop/liteos/Project2/BearPi_LiteOS/components/connectivity/agent_tiny/atiny_lwm2m\atiny_rpt.h ****  * ===============================================
  29:C:/Users/lenovo/Desktop/liteos/Project2/BearPi_LiteOS/components/connectivity/agent_tiny/atiny_lwm2m\atiny_rpt.h ****  * Huawei LiteOS may be subject to applicable export control laws and regulations, which might
  30:C:/Users/lenovo/Desktop/liteos/Project2/BearPi_LiteOS/components/connectivity/agent_tiny/atiny_lwm2m\atiny_rpt.h ****  * include those applicable to Huawei LiteOS of U.S. and the country in which you are located.
  31:C:/Users/lenovo/Desktop/liteos/Project2/BearPi_LiteOS/components/connectivity/agent_tiny/atiny_lwm2m\atiny_rpt.h ****  * Import, export and usage of Huawei LiteOS in any manner by you shall be in compliance with such
  32:C:/Users/lenovo/Desktop/liteos/Project2/BearPi_LiteOS/components/connectivity/agent_tiny/atiny_lwm2m\atiny_rpt.h ****  * applicable export control laws and regulations.
  33:C:/Users/lenovo/Desktop/liteos/Project2/BearPi_LiteOS/components/connectivity/agent_tiny/atiny_lwm2m\atiny_rpt.h ****  *---------------------------------------------------------------------------*/
  34:C:/Users/lenovo/Desktop/liteos/Project2/BearPi_LiteOS/components/connectivity/agent_tiny/atiny_lwm2m\atiny_rpt.h **** 
  35:C:/Users/lenovo/Desktop/liteos/Project2/BearPi_LiteOS/components/connectivity/agent_tiny/atiny_lwm2m\atiny_rpt.h **** #ifndef ATINY_RPT_H
  36:C:/Users/lenovo/Desktop/liteos/Project2/BearPi_LiteOS/components/connectivity/agent_tiny/atiny_lwm2m\atiny_rpt.h **** #define ATINY_RPT_H
  37:C:/Users/lenovo/Desktop/liteos/Project2/BearPi_LiteOS/components/connectivity/agent_tiny/atiny_lwm2m\atiny_rpt.h **** #include "atiny_lwm2m/agenttiny.h"
  38:C:/Users/lenovo/Desktop/liteos/Project2/BearPi_LiteOS/components/connectivity/agent_tiny/atiny_lwm2m\atiny_rpt.h **** #include "agent_list.h"
  39:C:/Users/lenovo/Desktop/liteos/Project2/BearPi_LiteOS/components/connectivity/agent_tiny/atiny_lwm2m\atiny_rpt.h **** 
  40:C:/Users/lenovo/Desktop/liteos/Project2/BearPi_LiteOS/components/connectivity/agent_tiny/atiny_lwm2m\atiny_rpt.h **** #ifdef __cplusplus
  41:C:/Users/lenovo/Desktop/liteos/Project2/BearPi_LiteOS/components/connectivity/agent_tiny/atiny_lwm2m\atiny_rpt.h **** extern "C" {
  42:C:/Users/lenovo/Desktop/liteos/Project2/BearPi_LiteOS/components/connectivity/agent_tiny/atiny_lwm2m\atiny_rpt.h **** #endif
  43:C:/Users/lenovo/Desktop/liteos/Project2/BearPi_LiteOS/components/connectivity/agent_tiny/atiny_lwm2m\atiny_rpt.h **** 
  44:C:/Users/lenovo/Desktop/liteos/Project2/BearPi_LiteOS/components/connectivity/agent_tiny/atiny_lwm2m\atiny_rpt.h **** #define URI_FORMAT "uri(flag:0x%x, objId:%d, instId:%d, resId:%d)"
  45:C:/Users/lenovo/Desktop/liteos/Project2/BearPi_LiteOS/components/connectivity/agent_tiny/atiny_lwm2m\atiny_rpt.h **** #define URI_LOG_PARAM(uri) (uri)->flag, (uri)->objectId, (uri)->instanceId, (uri)->resourceId
  46:C:/Users/lenovo/Desktop/liteos/Project2/BearPi_LiteOS/components/connectivity/agent_tiny/atiny_lwm2m\atiny_rpt.h **** 
  47:C:/Users/lenovo/Desktop/liteos/Project2/BearPi_LiteOS/components/connectivity/agent_tiny/atiny_lwm2m\atiny_rpt.h **** ATINY_INLINE void get_instance_uri(uint16_t object_id, uint16_t instance_id, lwm2m_uri_t* uri)
ARM GAS  c:\Users\lenovo\AppData\Local\Temp\ccDAYDpu.s 			page 60


  48:C:/Users/lenovo/Desktop/liteos/Project2/BearPi_LiteOS/components/connectivity/agent_tiny/atiny_lwm2m\atiny_rpt.h **** {
  49:C:/Users/lenovo/Desktop/liteos/Project2/BearPi_LiteOS/components/connectivity/agent_tiny/atiny_lwm2m\atiny_rpt.h ****     if (uri == NULL)
  50:C:/Users/lenovo/Desktop/liteos/Project2/BearPi_LiteOS/components/connectivity/agent_tiny/atiny_lwm2m\atiny_rpt.h ****     {
  51:C:/Users/lenovo/Desktop/liteos/Project2/BearPi_LiteOS/components/connectivity/agent_tiny/atiny_lwm2m\atiny_rpt.h ****         return;
  52:C:/Users/lenovo/Desktop/liteos/Project2/BearPi_LiteOS/components/connectivity/agent_tiny/atiny_lwm2m\atiny_rpt.h ****     }
  53:C:/Users/lenovo/Desktop/liteos/Project2/BearPi_LiteOS/components/connectivity/agent_tiny/atiny_lwm2m\atiny_rpt.h ****     uri->flag = LWM2M_URI_FLAG_OBJECT_ID | LWM2M_URI_FLAG_INSTANCE_ID;
  54:C:/Users/lenovo/Desktop/liteos/Project2/BearPi_LiteOS/components/connectivity/agent_tiny/atiny_lwm2m\atiny_rpt.h ****     uri->objectId = object_id;
  55:C:/Users/lenovo/Desktop/liteos/Project2/BearPi_LiteOS/components/connectivity/agent_tiny/atiny_lwm2m\atiny_rpt.h ****     uri->instanceId = instance_id;
  56:C:/Users/lenovo/Desktop/liteos/Project2/BearPi_LiteOS/components/connectivity/agent_tiny/atiny_lwm2m\atiny_rpt.h ****     uri->resourceId = 0;
  57:C:/Users/lenovo/Desktop/liteos/Project2/BearPi_LiteOS/components/connectivity/agent_tiny/atiny_lwm2m\atiny_rpt.h **** }
  58:C:/Users/lenovo/Desktop/liteos/Project2/BearPi_LiteOS/components/connectivity/agent_tiny/atiny_lwm2m\atiny_rpt.h **** 
  59:C:/Users/lenovo/Desktop/liteos/Project2/BearPi_LiteOS/components/connectivity/agent_tiny/atiny_lwm2m\atiny_rpt.h **** ATINY_INLINE void get_resource_uri(uint16_t object_id, uint16_t instance_id, uint16_t resource_id, 
  60:C:/Users/lenovo/Desktop/liteos/Project2/BearPi_LiteOS/components/connectivity/agent_tiny/atiny_lwm2m\atiny_rpt.h **** {
  61:C:/Users/lenovo/Desktop/liteos/Project2/BearPi_LiteOS/components/connectivity/agent_tiny/atiny_lwm2m\atiny_rpt.h ****     if (uri == NULL)
  62:C:/Users/lenovo/Desktop/liteos/Project2/BearPi_LiteOS/components/connectivity/agent_tiny/atiny_lwm2m\atiny_rpt.h ****     {
  63:C:/Users/lenovo/Desktop/liteos/Project2/BearPi_LiteOS/components/connectivity/agent_tiny/atiny_lwm2m\atiny_rpt.h ****         return;
  64:C:/Users/lenovo/Desktop/liteos/Project2/BearPi_LiteOS/components/connectivity/agent_tiny/atiny_lwm2m\atiny_rpt.h ****     }
  65:C:/Users/lenovo/Desktop/liteos/Project2/BearPi_LiteOS/components/connectivity/agent_tiny/atiny_lwm2m\atiny_rpt.h ****     uri->flag = LWM2M_URI_FLAG_OBJECT_ID | LWM2M_URI_FLAG_INSTANCE_ID | LWM2M_URI_FLAG_RESOURCE_ID;
 1991              		.loc 3 65 0
 1992 00aa 0723     		movs	r3, #7
 1993 00ac 8DF82030 		strb	r3, [sp, #32]
  66:C:/Users/lenovo/Desktop/liteos/Project2/BearPi_LiteOS/components/connectivity/agent_tiny/atiny_lwm2m\atiny_rpt.h ****     uri->objectId = object_id;
 1994              		.loc 3 66 0
 1995 00b0 1323     		movs	r3, #19
 1996 00b2 ADF82230 		strh	r3, [sp, #34]	@ movhi
 1997 00b6 DAE7     		b	.L181
 1998              	.LVL307:
 1999              	.L189:
 2000              	.LBE17:
 2001              	.LBE16:
 625:C:/Users/lenovo/Desktop/liteos/Project2/BearPi_LiteOS/components/connectivity/agent_tiny/atiny_lwm2m\agenttiny.c ****         return ATINY_MALLOC_FAILED;;
 2002              		.loc 1 625 0
 2003 00b8 FFF7FEFF 		bl	atiny_get_log_level
 2004              	.LVL308:
 2005 00bc 0328     		cmp	r0, #3
 2006 00be 02D9     		bls	.L190
 626:C:/Users/lenovo/Desktop/liteos/Project2/BearPi_LiteOS/components/connectivity/agent_tiny/atiny_lwm2m\agenttiny.c ****     }
 2007              		.loc 1 626 0
 2008 00c0 6FF00304 		mvn	r4, #3
 2009              	.LVL309:
 2010 00c4 B9E7     		b	.L175
 2011              	.LVL310:
 2012              	.L190:
 625:C:/Users/lenovo/Desktop/liteos/Project2/BearPi_LiteOS/components/connectivity/agent_tiny/atiny_lwm2m\agenttiny.c ****         return ATINY_MALLOC_FAILED;;
 2013              		.loc 1 625 0 discriminator 1
 2014 00c6 0320     		movs	r0, #3
 2015 00c8 FFF7FEFF 		bl	atiny_get_log_level_name
 2016              	.LVL311:
 2017 00cc 0446     		mov	r4, r0
 2018              	.LVL312:
 2019 00ce FFF7FEFF 		bl	atiny_gettime_ms
 2020              	.LVL313:
 2021 00d2 059B     		ldr	r3, [sp, #20]
 2022 00d4 0193     		str	r3, [sp, #4]
 2023 00d6 40F27123 		movw	r3, #625
 2024 00da 0093     		str	r3, [sp]
 2025 00dc 044B     		ldr	r3, .L191
ARM GAS  c:\Users\lenovo\AppData\Local\Temp\ccDAYDpu.s 			page 61


 2026 00de 0246     		mov	r2, r0
 2027 00e0 2146     		mov	r1, r4
 2028 00e2 0648     		ldr	r0, .L191+12
 2029 00e4 FFF7FEFF 		bl	atiny_printf
 2030              	.LVL314:
 626:C:/Users/lenovo/Desktop/liteos/Project2/BearPi_LiteOS/components/connectivity/agent_tiny/atiny_lwm2m\agenttiny.c ****     }
 2031              		.loc 1 626 0 discriminator 1
 2032 00e8 6FF00304 		mvn	r4, #3
 2033 00ec A5E7     		b	.L175
 2034              	.L192:
 2035 00ee 00BF     		.align	2
 2036              	.L191:
 2037 00f0 00000000 		.word	.LANCHOR9
 2038 00f4 00000000 		.word	.LC24
 2039 00f8 20000000 		.word	.LC25
 2040 00fc 28000000 		.word	.LC26
 2041              		.cfi_endproc
 2042              	.LFE156:
 2044              		.section	.text.atiny_data_change,"ax",%progbits
 2045              		.align	1
 2046              		.global	atiny_data_change
 2047              		.syntax unified
 2048              		.thumb
 2049              		.thumb_func
 2050              		.fpu fpv4-sp-d16
 2052              	atiny_data_change:
 2053              	.LFB157:
 644:C:/Users/lenovo/Desktop/liteos/Project2/BearPi_LiteOS/components/connectivity/agent_tiny/atiny_lwm2m\agenttiny.c ****     lwm2m_uri_t uri;
 2054              		.loc 1 644 0
 2055              		.cfi_startproc
 2056              		@ args = 0, pretend = 0, frame = 8
 2057              		@ frame_needed = 0, uses_anonymous_args = 0
 2058              	.LVL315:
 2059 0000 30B5     		push	{r4, r5, lr}
 2060              	.LCFI36:
 2061              		.cfi_def_cfa_offset 12
 2062              		.cfi_offset 4, -12
 2063              		.cfi_offset 5, -8
 2064              		.cfi_offset 14, -4
 2065 0002 85B0     		sub	sp, sp, #20
 2066              	.LCFI37:
 2067              		.cfi_def_cfa_offset 32
 648:C:/Users/lenovo/Desktop/liteos/Project2/BearPi_LiteOS/components/connectivity/agent_tiny/atiny_lwm2m\agenttiny.c ****     {
 2068              		.loc 1 648 0
 2069 0004 80B1     		cbz	r0, .L194
 2070 0006 0C46     		mov	r4, r1
 2071 0008 0546     		mov	r5, r0
 648:C:/Users/lenovo/Desktop/liteos/Project2/BearPi_LiteOS/components/connectivity/agent_tiny/atiny_lwm2m\agenttiny.c ****     {
 2072              		.loc 1 648 0 is_stmt 0 discriminator 1
 2073 000a 69B1     		cbz	r1, .L194
 654:C:/Users/lenovo/Desktop/liteos/Project2/BearPi_LiteOS/components/connectivity/agent_tiny/atiny_lwm2m\agenttiny.c ****     handle = (handle_data_t *)phandle;
 2074              		.loc 1 654 0 is_stmt 1
 2075 000c 0023     		movs	r3, #0
 2076 000e 0293     		str	r3, [sp, #8]
 2077 0010 0393     		str	r3, [sp, #12]
 2078              	.LVL316:
 657:C:/Users/lenovo/Desktop/liteos/Project2/BearPi_LiteOS/components/connectivity/agent_tiny/atiny_lwm2m\agenttiny.c ****     {
ARM GAS  c:\Users\lenovo\AppData\Local\Temp\ccDAYDpu.s 			page 62


 2079              		.loc 1 657 0
 2080 0012 0368     		ldr	r3, [r0]
 2081 0014 1B78     		ldrb	r3, [r3]	@ zero_extendqisi2
 2082 0016 052B     		cmp	r3, #5
 2083 0018 32D0     		beq	.L197
 659:C:/Users/lenovo/Desktop/liteos/Project2/BearPi_LiteOS/components/connectivity/agent_tiny/atiny_lwm2m\agenttiny.c ****         return ATINY_CLIENT_UNREGISTERED;
 2084              		.loc 1 659 0
 2085 001a FFF7FEFF 		bl	atiny_get_log_level
 2086              	.LVL317:
 2087 001e 0128     		cmp	r0, #1
 2088 0020 1CD9     		bls	.L201
 660:C:/Users/lenovo/Desktop/liteos/Project2/BearPi_LiteOS/components/connectivity/agent_tiny/atiny_lwm2m\agenttiny.c ****     }
 2089              		.loc 1 660 0
 2090 0022 6FF00600 		mvn	r0, #6
 2091 0026 05E0     		b	.L193
 2092              	.LVL318:
 2093              	.L194:
 650:C:/Users/lenovo/Desktop/liteos/Project2/BearPi_LiteOS/components/connectivity/agent_tiny/atiny_lwm2m\agenttiny.c ****         return ATINY_ARG_INVALID;
 2094              		.loc 1 650 0
 2095 0028 FFF7FEFF 		bl	atiny_get_log_level
 2096              	.LVL319:
 2097 002c 0328     		cmp	r0, #3
 2098 002e 03D9     		bls	.L202
 651:C:/Users/lenovo/Desktop/liteos/Project2/BearPi_LiteOS/components/connectivity/agent_tiny/atiny_lwm2m\agenttiny.c ****     }
 2099              		.loc 1 651 0
 2100 0030 4FF0FF30 		mov	r0, #-1
 2101              	.L193:
 670:C:/Users/lenovo/Desktop/liteos/Project2/BearPi_LiteOS/components/connectivity/agent_tiny/atiny_lwm2m\agenttiny.c **** 
 2102              		.loc 1 670 0
 2103 0034 05B0     		add	sp, sp, #20
 2104              	.LCFI38:
 2105              		.cfi_remember_state
 2106              		.cfi_def_cfa_offset 12
 2107              		@ sp needed
 2108 0036 30BD     		pop	{r4, r5, pc}
 2109              	.L202:
 2110              	.LCFI39:
 2111              		.cfi_restore_state
 650:C:/Users/lenovo/Desktop/liteos/Project2/BearPi_LiteOS/components/connectivity/agent_tiny/atiny_lwm2m\agenttiny.c ****         return ATINY_ARG_INVALID;
 2112              		.loc 1 650 0 discriminator 1
 2113 0038 0320     		movs	r0, #3
 2114 003a FFF7FEFF 		bl	atiny_get_log_level_name
 2115              	.LVL320:
 2116 003e 0446     		mov	r4, r0
 2117 0040 FFF7FEFF 		bl	atiny_gettime_ms
 2118              	.LVL321:
 2119 0044 40F28A23 		movw	r3, #650
 2120 0048 0093     		str	r3, [sp]
 2121 004a 184B     		ldr	r3, .L203
 2122 004c 0246     		mov	r2, r0
 2123 004e 2146     		mov	r1, r4
 2124 0050 1748     		ldr	r0, .L203+4
 2125 0052 FFF7FEFF 		bl	atiny_printf
 2126              	.LVL322:
 651:C:/Users/lenovo/Desktop/liteos/Project2/BearPi_LiteOS/components/connectivity/agent_tiny/atiny_lwm2m\agenttiny.c ****     }
 2127              		.loc 1 651 0 discriminator 1
 2128 0056 4FF0FF30 		mov	r0, #-1
ARM GAS  c:\Users\lenovo\AppData\Local\Temp\ccDAYDpu.s 			page 63


 2129 005a EBE7     		b	.L193
 2130              	.LVL323:
 2131              	.L201:
 659:C:/Users/lenovo/Desktop/liteos/Project2/BearPi_LiteOS/components/connectivity/agent_tiny/atiny_lwm2m\agenttiny.c ****         return ATINY_CLIENT_UNREGISTERED;
 2132              		.loc 1 659 0 discriminator 1
 2133 005c 0120     		movs	r0, #1
 2134 005e FFF7FEFF 		bl	atiny_get_log_level_name
 2135              	.LVL324:
 2136 0062 0446     		mov	r4, r0
 2137              	.LVL325:
 2138 0064 FFF7FEFF 		bl	atiny_gettime_ms
 2139              	.LVL326:
 2140 0068 40F29323 		movw	r3, #659
 2141 006c 0093     		str	r3, [sp]
 2142 006e 0F4B     		ldr	r3, .L203
 2143 0070 0246     		mov	r2, r0
 2144 0072 2146     		mov	r1, r4
 2145 0074 0F48     		ldr	r0, .L203+8
 2146 0076 FFF7FEFF 		bl	atiny_printf
 2147              	.LVL327:
 660:C:/Users/lenovo/Desktop/liteos/Project2/BearPi_LiteOS/components/connectivity/agent_tiny/atiny_lwm2m\agenttiny.c ****     }
 2148              		.loc 1 660 0 discriminator 1
 2149 007a 6FF00600 		mvn	r0, #6
 2150 007e D9E7     		b	.L193
 2151              	.LVL328:
 2152              	.L197:
 663:C:/Users/lenovo/Desktop/liteos/Project2/BearPi_LiteOS/components/connectivity/agent_tiny/atiny_lwm2m\agenttiny.c **** 
 2153              		.loc 1 663 0
 2154 0080 0846     		mov	r0, r1
 2155              	.LVL329:
 2156 0082 FFF7FEFF 		bl	strlen
 2157              	.LVL330:
 2158 0086 02AA     		add	r2, sp, #8
 2159 0088 0146     		mov	r1, r0
 2160 008a 2046     		mov	r0, r4
 2161 008c FFF7FEFF 		bl	lwm2m_stringToUri
 2162              	.LVL331:
 665:C:/Users/lenovo/Desktop/liteos/Project2/BearPi_LiteOS/components/connectivity/agent_tiny/atiny_lwm2m\agenttiny.c ****     lwm2m_resource_value_changed(handle->lwm2m_context, &uri);
 2163              		.loc 1 665 0
 2164 0090 2B68     		ldr	r3, [r5]
 2165 0092 186A     		ldr	r0, [r3, #32]
 2166 0094 FFF7FEFF 		bl	atiny_mutex_lock
 2167              	.LVL332:
 666:C:/Users/lenovo/Desktop/liteos/Project2/BearPi_LiteOS/components/connectivity/agent_tiny/atiny_lwm2m\agenttiny.c ****     atiny_mutex_unlock(handle->lwm2m_context->observe_mutex);
 2168              		.loc 1 666 0
 2169 0098 02A9     		add	r1, sp, #8
 2170 009a 2868     		ldr	r0, [r5]
 2171 009c FFF7FEFF 		bl	lwm2m_resource_value_changed
 2172              	.LVL333:
 667:C:/Users/lenovo/Desktop/liteos/Project2/BearPi_LiteOS/components/connectivity/agent_tiny/atiny_lwm2m\agenttiny.c **** 
 2173              		.loc 1 667 0
 2174 00a0 2B68     		ldr	r3, [r5]
 2175 00a2 186A     		ldr	r0, [r3, #32]
 2176 00a4 FFF7FEFF 		bl	atiny_mutex_unlock
 2177              	.LVL334:
 669:C:/Users/lenovo/Desktop/liteos/Project2/BearPi_LiteOS/components/connectivity/agent_tiny/atiny_lwm2m\agenttiny.c **** }
 2178              		.loc 1 669 0
ARM GAS  c:\Users\lenovo\AppData\Local\Temp\ccDAYDpu.s 			page 64


 2179 00a8 0020     		movs	r0, #0
 2180 00aa C3E7     		b	.L193
 2181              	.L204:
 2182              		.align	2
 2183              	.L203:
 2184 00ac 00000000 		.word	.LANCHOR10
 2185 00b0 00000000 		.word	.LC24
 2186 00b4 00000000 		.word	.LC27
 2187              		.cfi_endproc
 2188              	.LFE157:
 2190              		.section	.text.atiny_reconnect,"ax",%progbits
 2191              		.align	1
 2192              		.global	atiny_reconnect
 2193              		.syntax unified
 2194              		.thumb
 2195              		.thumb_func
 2196              		.fpu fpv4-sp-d16
 2198              	atiny_reconnect:
 2199              	.LFB159:
 688:C:/Users/lenovo/Desktop/liteos/Project2/BearPi_LiteOS/components/connectivity/agent_tiny/atiny_lwm2m\agenttiny.c **** 
 689:C:/Users/lenovo/Desktop/liteos/Project2/BearPi_LiteOS/components/connectivity/agent_tiny/atiny_lwm2m\agenttiny.c **** int atiny_reconnect(void *phandle)
 690:C:/Users/lenovo/Desktop/liteos/Project2/BearPi_LiteOS/components/connectivity/agent_tiny/atiny_lwm2m\agenttiny.c **** {
 2200              		.loc 1 690 0
 2201              		.cfi_startproc
 2202              		@ args = 0, pretend = 0, frame = 0
 2203              		@ frame_needed = 0, uses_anonymous_args = 0
 2204              	.LVL335:
 691:C:/Users/lenovo/Desktop/liteos/Project2/BearPi_LiteOS/components/connectivity/agent_tiny/atiny_lwm2m\agenttiny.c ****     handle_data_t *handle = (handle_data_t *)phandle;
 692:C:/Users/lenovo/Desktop/liteos/Project2/BearPi_LiteOS/components/connectivity/agent_tiny/atiny_lwm2m\agenttiny.c **** 
 693:C:/Users/lenovo/Desktop/liteos/Project2/BearPi_LiteOS/components/connectivity/agent_tiny/atiny_lwm2m\agenttiny.c **** 
 694:C:/Users/lenovo/Desktop/liteos/Project2/BearPi_LiteOS/components/connectivity/agent_tiny/atiny_lwm2m\agenttiny.c ****     if (NULL == phandle)
 2205              		.loc 1 694 0
 2206 0000 18B1     		cbz	r0, .L213
 695:C:/Users/lenovo/Desktop/liteos/Project2/BearPi_LiteOS/components/connectivity/agent_tiny/atiny_lwm2m\agenttiny.c ****     {
 696:C:/Users/lenovo/Desktop/liteos/Project2/BearPi_LiteOS/components/connectivity/agent_tiny/atiny_lwm2m\agenttiny.c ****         ATINY_LOG(LOG_FATAL, "Parameter null");
 697:C:/Users/lenovo/Desktop/liteos/Project2/BearPi_LiteOS/components/connectivity/agent_tiny/atiny_lwm2m\agenttiny.c ****         return ATINY_ARG_INVALID;
 698:C:/Users/lenovo/Desktop/liteos/Project2/BearPi_LiteOS/components/connectivity/agent_tiny/atiny_lwm2m\agenttiny.c ****     }
 699:C:/Users/lenovo/Desktop/liteos/Project2/BearPi_LiteOS/components/connectivity/agent_tiny/atiny_lwm2m\agenttiny.c ****     handle->reconnect_flag = true;
 2207              		.loc 1 699 0
 2208 0002 0122     		movs	r2, #1
 2209 0004 4267     		str	r2, [r0, #116]
 700:C:/Users/lenovo/Desktop/liteos/Project2/BearPi_LiteOS/components/connectivity/agent_tiny/atiny_lwm2m\agenttiny.c **** 
 701:C:/Users/lenovo/Desktop/liteos/Project2/BearPi_LiteOS/components/connectivity/agent_tiny/atiny_lwm2m\agenttiny.c ****     return ATINY_OK;
 2210              		.loc 1 701 0
 2211 0006 0020     		movs	r0, #0
 2212              	.LVL336:
 702:C:/Users/lenovo/Desktop/liteos/Project2/BearPi_LiteOS/components/connectivity/agent_tiny/atiny_lwm2m\agenttiny.c **** }
 2213              		.loc 1 702 0
 2214 0008 7047     		bx	lr
 2215              	.LVL337:
 2216              	.L213:
 690:C:/Users/lenovo/Desktop/liteos/Project2/BearPi_LiteOS/components/connectivity/agent_tiny/atiny_lwm2m\agenttiny.c ****     handle_data_t *handle = (handle_data_t *)phandle;
 2217              		.loc 1 690 0
 2218 000a 10B5     		push	{r4, lr}
 2219              	.LCFI40:
 2220              		.cfi_def_cfa_offset 8
 2221              		.cfi_offset 4, -8
ARM GAS  c:\Users\lenovo\AppData\Local\Temp\ccDAYDpu.s 			page 65


 2222              		.cfi_offset 14, -4
 2223 000c 82B0     		sub	sp, sp, #8
 2224              	.LCFI41:
 2225              		.cfi_def_cfa_offset 16
 696:C:/Users/lenovo/Desktop/liteos/Project2/BearPi_LiteOS/components/connectivity/agent_tiny/atiny_lwm2m\agenttiny.c ****         return ATINY_ARG_INVALID;
 2226              		.loc 1 696 0
 2227 000e FFF7FEFF 		bl	atiny_get_log_level
 2228              	.LVL338:
 2229 0012 0428     		cmp	r0, #4
 2230 0014 03D9     		bls	.L214
 697:C:/Users/lenovo/Desktop/liteos/Project2/BearPi_LiteOS/components/connectivity/agent_tiny/atiny_lwm2m\agenttiny.c ****     }
 2231              		.loc 1 697 0
 2232 0016 4FF0FF30 		mov	r0, #-1
 2233              	.L205:
 2234              		.loc 1 702 0
 2235 001a 02B0     		add	sp, sp, #8
 2236              	.LCFI42:
 2237              		.cfi_remember_state
 2238              		.cfi_def_cfa_offset 8
 2239              		@ sp needed
 2240 001c 10BD     		pop	{r4, pc}
 2241              	.L214:
 2242              	.LCFI43:
 2243              		.cfi_restore_state
 696:C:/Users/lenovo/Desktop/liteos/Project2/BearPi_LiteOS/components/connectivity/agent_tiny/atiny_lwm2m\agenttiny.c ****         return ATINY_ARG_INVALID;
 2244              		.loc 1 696 0 discriminator 1
 2245 001e 0420     		movs	r0, #4
 2246 0020 FFF7FEFF 		bl	atiny_get_log_level_name
 2247              	.LVL339:
 2248 0024 0446     		mov	r4, r0
 2249 0026 FFF7FEFF 		bl	atiny_gettime_ms
 2250              	.LVL340:
 2251 002a 4FF42E73 		mov	r3, #696
 2252 002e 0093     		str	r3, [sp]
 2253 0030 044B     		ldr	r3, .L215
 2254 0032 0246     		mov	r2, r0
 2255 0034 2146     		mov	r1, r4
 2256 0036 0448     		ldr	r0, .L215+4
 2257 0038 FFF7FEFF 		bl	atiny_printf
 2258              	.LVL341:
 697:C:/Users/lenovo/Desktop/liteos/Project2/BearPi_LiteOS/components/connectivity/agent_tiny/atiny_lwm2m\agenttiny.c ****     }
 2259              		.loc 1 697 0 discriminator 1
 2260 003c 4FF0FF30 		mov	r0, #-1
 2261 0040 EBE7     		b	.L205
 2262              	.L216:
 2263 0042 00BF     		.align	2
 2264              	.L215:
 2265 0044 00000000 		.word	.LANCHOR11
 2266 0048 00000000 		.word	.LC19
 2267              		.cfi_endproc
 2268              	.LFE159:
 2270              		.section	.text.atiny_connection_err_notify,"ax",%progbits
 2271              		.align	1
 2272              		.syntax unified
 2273              		.thumb
 2274              		.thumb_func
 2275              		.fpu fpv4-sp-d16
ARM GAS  c:\Users\lenovo\AppData\Local\Temp\ccDAYDpu.s 			page 66


 2277              	atiny_connection_err_notify:
 2278              	.LFB152:
 484:C:/Users/lenovo/Desktop/liteos/Project2/BearPi_LiteOS/components/connectivity/agent_tiny/atiny_lwm2m\agenttiny.c ****     handle_data_t *handle = NULL;
 2279              		.loc 1 484 0
 2280              		.cfi_startproc
 2281              		@ args = 0, pretend = 0, frame = 0
 2282              		@ frame_needed = 0, uses_anonymous_args = 0
 2283              	.LVL342:
 2284 0000 70B5     		push	{r4, r5, r6, lr}
 2285              	.LCFI44:
 2286              		.cfi_def_cfa_offset 16
 2287              		.cfi_offset 4, -16
 2288              		.cfi_offset 5, -12
 2289              		.cfi_offset 6, -8
 2290              		.cfi_offset 14, -4
 2291 0002 84B0     		sub	sp, sp, #16
 2292              	.LCFI45:
 2293              		.cfi_def_cfa_offset 32
 2294              	.LVL343:
 487:C:/Users/lenovo/Desktop/liteos/Project2/BearPi_LiteOS/components/connectivity/agent_tiny/atiny_lwm2m\agenttiny.c ****     {
 2295              		.loc 1 487 0
 2296 0004 50B1     		cbz	r0, .L218
 2297 0006 0D46     		mov	r5, r1
 2298 0008 1446     		mov	r4, r2
 487:C:/Users/lenovo/Desktop/liteos/Project2/BearPi_LiteOS/components/connectivity/agent_tiny/atiny_lwm2m\agenttiny.c ****     {
 2299              		.loc 1 487 0 is_stmt 0 discriminator 1
 2300 000a 406B     		ldr	r0, [r0, #52]
 2301              	.LVL344:
 2302 000c 30B1     		cbz	r0, .L218
 493:C:/Users/lenovo/Desktop/liteos/Project2/BearPi_LiteOS/components/connectivity/agent_tiny/atiny_lwm2m\agenttiny.c ****     {
 2303              		.loc 1 493 0 is_stmt 1
 2304 000e CAB1     		cbz	r2, .L223
 2305              	.LVL345:
 2306              	.L221:
 498:C:/Users/lenovo/Desktop/liteos/Project2/BearPi_LiteOS/components/connectivity/agent_tiny/atiny_lwm2m\agenttiny.c **** }
 2307              		.loc 1 498 0
 2308 0010 FFF7FEFF 		bl	atiny_get_log_level
 2309              	.LVL346:
 2310 0014 0128     		cmp	r0, #1
 2311 0016 19D9     		bls	.L224
 2312              	.L217:
 499:C:/Users/lenovo/Desktop/liteos/Project2/BearPi_LiteOS/components/connectivity/agent_tiny/atiny_lwm2m\agenttiny.c **** 
 2313              		.loc 1 499 0
 2314 0018 04B0     		add	sp, sp, #16
 2315              	.LCFI46:
 2316              		.cfi_remember_state
 2317              		.cfi_def_cfa_offset 16
 2318              		@ sp needed
 2319 001a 70BD     		pop	{r4, r5, r6, pc}
 2320              	.LVL347:
 2321              	.L218:
 2322              	.LCFI47:
 2323              		.cfi_restore_state
 489:C:/Users/lenovo/Desktop/liteos/Project2/BearPi_LiteOS/components/connectivity/agent_tiny/atiny_lwm2m\agenttiny.c ****         return;
 2324              		.loc 1 489 0
 2325 001c FFF7FEFF 		bl	atiny_get_log_level
 2326              	.LVL348:
ARM GAS  c:\Users\lenovo\AppData\Local\Temp\ccDAYDpu.s 			page 67


 2327 0020 0328     		cmp	r0, #3
 2328 0022 F9D8     		bhi	.L217
 489:C:/Users/lenovo/Desktop/liteos/Project2/BearPi_LiteOS/components/connectivity/agent_tiny/atiny_lwm2m\agenttiny.c ****         return;
 2329              		.loc 1 489 0 is_stmt 0 discriminator 1
 2330 0024 0320     		movs	r0, #3
 2331 0026 FFF7FEFF 		bl	atiny_get_log_level_name
 2332              	.LVL349:
 2333 002a 0446     		mov	r4, r0
 2334 002c FFF7FEFF 		bl	atiny_gettime_ms
 2335              	.LVL350:
 2336 0030 40F2E913 		movw	r3, #489
 2337 0034 0093     		str	r3, [sp]
 2338 0036 0E4B     		ldr	r3, .L225
 2339 0038 0246     		mov	r2, r0
 2340 003a 2146     		mov	r1, r4
 2341 003c 0D48     		ldr	r0, .L225+4
 2342 003e FFF7FEFF 		bl	atiny_printf
 2343              	.LVL351:
 2344 0042 E9E7     		b	.L217
 2345              	.LVL352:
 2346              	.L223:
 496:C:/Users/lenovo/Desktop/liteos/Project2/BearPi_LiteOS/components/connectivity/agent_tiny/atiny_lwm2m\agenttiny.c ****     }
 2347              		.loc 1 496 0 is_stmt 1
 2348 0044 4038     		subs	r0, r0, #64
 2349              	.LVL353:
 2350 0046 FFF7FEFF 		bl	atiny_reconnect
 2351              	.LVL354:
 2352 004a E1E7     		b	.L221
 2353              	.L224:
 498:C:/Users/lenovo/Desktop/liteos/Project2/BearPi_LiteOS/components/connectivity/agent_tiny/atiny_lwm2m\agenttiny.c **** }
 2354              		.loc 1 498 0 discriminator 1
 2355 004c 0120     		movs	r0, #1
 2356 004e FFF7FEFF 		bl	atiny_get_log_level_name
 2357              	.LVL355:
 2358 0052 0646     		mov	r6, r0
 2359 0054 FFF7FEFF 		bl	atiny_gettime_ms
 2360              	.LVL356:
 2361 0058 0294     		str	r4, [sp, #8]
 2362 005a 0195     		str	r5, [sp, #4]
 2363 005c 4FF4F973 		mov	r3, #498
 2364 0060 0093     		str	r3, [sp]
 2365 0062 034B     		ldr	r3, .L225
 2366 0064 0246     		mov	r2, r0
 2367 0066 3146     		mov	r1, r6
 2368 0068 0348     		ldr	r0, .L225+8
 2369 006a FFF7FEFF 		bl	atiny_printf
 2370              	.LVL357:
 2371 006e D3E7     		b	.L217
 2372              	.L226:
 2373              		.align	2
 2374              	.L225:
 2375 0070 00000000 		.word	.LANCHOR12
 2376 0074 00000000 		.word	.LC28
 2377 0078 20000000 		.word	.LC29
 2378              		.cfi_endproc
 2379              	.LFE152:
 2381              		.section	.text.atiny_set_reboot_flag,"ax",%progbits
ARM GAS  c:\Users\lenovo\AppData\Local\Temp\ccDAYDpu.s 			page 68


 2382              		.align	1
 2383              		.global	atiny_set_reboot_flag
 2384              		.syntax unified
 2385              		.thumb
 2386              		.thumb_func
 2387              		.fpu fpv4-sp-d16
 2389              	atiny_set_reboot_flag:
 2390              	.LFB160:
 703:C:/Users/lenovo/Desktop/liteos/Project2/BearPi_LiteOS/components/connectivity/agent_tiny/atiny_lwm2m\agenttiny.c **** 
 704:C:/Users/lenovo/Desktop/liteos/Project2/BearPi_LiteOS/components/connectivity/agent_tiny/atiny_lwm2m\agenttiny.c **** void atiny_set_reboot_flag()
 705:C:/Users/lenovo/Desktop/liteos/Project2/BearPi_LiteOS/components/connectivity/agent_tiny/atiny_lwm2m\agenttiny.c **** {
 2391              		.loc 1 705 0
 2392              		.cfi_startproc
 2393              		@ args = 0, pretend = 0, frame = 0
 2394              		@ frame_needed = 0, uses_anonymous_args = 0
 2395              		@ link register save eliminated.
 706:C:/Users/lenovo/Desktop/liteos/Project2/BearPi_LiteOS/components/connectivity/agent_tiny/atiny_lwm2m\agenttiny.c ****     g_reboot = true;
 2396              		.loc 1 706 0
 2397 0000 014B     		ldr	r3, .L228
 2398 0002 0122     		movs	r2, #1
 2399 0004 1A60     		str	r2, [r3]
 707:C:/Users/lenovo/Desktop/liteos/Project2/BearPi_LiteOS/components/connectivity/agent_tiny/atiny_lwm2m\agenttiny.c **** }
 2400              		.loc 1 707 0
 2401 0006 7047     		bx	lr
 2402              	.L229:
 2403              		.align	2
 2404              	.L228:
 2405 0008 00000000 		.word	.LANCHOR7
 2406              		.cfi_endproc
 2407              	.LFE160:
 2409              		.global	g_reboot
 2410              		.section	.bss.g_atiny_handle,"aw",%nobits
 2411              		.align	2
 2412              		.set	.LANCHOR5,. + 0
 2415              	g_atiny_handle:
 2416 0000 00000000 		.space	132
 2416      00000000 
 2416      00000000 
 2416      00000000 
 2416      00000000 
 2417              		.section	.bss.g_reboot,"aw",%nobits
 2418              		.align	2
 2419              		.set	.LANCHOR7,. + 0
 2422              	g_reboot:
 2423 0000 00000000 		.space	4
 2424              		.section	.rodata.__FUNCTION__.12091,"a",%progbits
 2425              		.align	2
 2426              		.set	.LANCHOR3,. + 0
 2429              	__FUNCTION__.12091:
 2430 0000 6174696E 		.ascii	"atiny_init\000"
 2430      795F696E 
 2430      697400
 2431              		.section	.rodata.__FUNCTION__.12107,"a",%progbits
 2432              		.align	2
 2433              		.set	.LANCHOR6,. + 0
 2436              	__FUNCTION__.12107:
 2437 0000 6174696E 		.ascii	"atiny_init_objects\000"
ARM GAS  c:\Users\lenovo\AppData\Local\Temp\ccDAYDpu.s 			page 69


 2437      795F696E 
 2437      69745F6F 
 2437      626A6563 
 2437      747300
 2438              		.section	.rodata.__FUNCTION__.12117,"a",%progbits
 2439              		.align	2
 2440              		.set	.LANCHOR2,. + 0
 2443              	__FUNCTION__.12117:
 2444 0000 6C776D32 		.ascii	"lwm2m_poll\000"
 2444      6D5F706F 
 2444      6C6C00
 2445              		.section	.rodata.__FUNCTION__.12147,"a",%progbits
 2446              		.align	2
 2447              		.set	.LANCHOR12,. + 0
 2450              	__FUNCTION__.12147:
 2451 0000 6174696E 		.ascii	"atiny_connection_err_notify\000"
 2451      795F636F 
 2451      6E6E6563 
 2451      74696F6E 
 2451      5F657272 
 2452              		.section	.rodata.__FUNCTION__.12151,"a",%progbits
 2453              		.align	2
 2454              		.set	.LANCHOR1,. + 0
 2457              	__FUNCTION__.12151:
 2458 0000 6174696E 		.ascii	"atiny_handle_reconnect\000"
 2458      795F6861 
 2458      6E646C65 
 2458      5F726563 
 2458      6F6E6E65 
 2459              		.section	.rodata.__FUNCTION__.12159,"a",%progbits
 2460              		.align	2
 2461              		.set	.LANCHOR8,. + 0
 2464              	__FUNCTION__.12159:
 2465 0000 6174696E 		.ascii	"atiny_bind\000"
 2465      795F6269 
 2465      6E6400
 2466              		.section	.rodata.__FUNCTION__.12175,"a",%progbits
 2467              		.align	2
 2468              		.set	.LANCHOR9,. + 0
 2471              	__FUNCTION__.12175:
 2472 0000 6174696E 		.ascii	"atiny_data_report\000"
 2472      795F6461 
 2472      74615F72 
 2472      65706F72 
 2472      7400
 2473              		.section	.rodata.__FUNCTION__.12186,"a",%progbits
 2474              		.align	2
 2475              		.set	.LANCHOR10,. + 0
 2478              	__FUNCTION__.12186:
 2479 0000 6174696E 		.ascii	"atiny_data_change\000"
 2479      795F6461 
 2479      74615F63 
 2479      68616E67 
 2479      6500
 2480              		.section	.rodata.__FUNCTION__.12196,"a",%progbits
 2481              		.align	2
 2482              		.set	.LANCHOR11,. + 0
ARM GAS  c:\Users\lenovo\AppData\Local\Temp\ccDAYDpu.s 			page 70


 2485              	__FUNCTION__.12196:
 2486 0000 6174696E 		.ascii	"atiny_reconnect\000"
 2486      795F7265 
 2486      636F6E6E 
 2486      65637400 
 2487              		.section	.rodata.__func__.12085,"a",%progbits
 2488              		.align	2
 2489              		.set	.LANCHOR0,. + 0
 2492              	__func__.12085:
 2493 0000 6174696E 		.ascii	"atiny_check_bootstrap_init_param\000"
 2493      795F6368 
 2493      65636B5F 
 2493      626F6F74 
 2493      73747261 
 2494              		.section	.rodata.__func__.12092,"a",%progbits
 2495              		.align	2
 2496              		.set	.LANCHOR4,. + 0
 2499              	__func__.12092:
 2500 0000 6174696E 		.ascii	"atiny_init\000"
 2500      795F696E 
 2500      697400
 2501              		.section	.rodata.atiny_bind.str1.4,"aMS",%progbits,1
 2502              		.align	2
 2503              	.LC19:
 2504 0000 5B25735D 		.ascii	"[%s][%u][%s:%d] Parameter null\015\012\000"
 2504      5B25755D 
 2504      5B25733A 
 2504      25645D20 
 2504      50617261 
 2505 0021 000000   		.space	3
 2506              	.LC20:
 2507 0024 5B25735D 		.ascii	"[%s][%u][%s:%d] Endpoint name null\015\012\000"
 2507      5B25755D 
 2507      5B25733A 
 2507      25645D20 
 2507      456E6470 
 2508 0049 000000   		.space	3
 2509              	.LC21:
 2510 004c 5B25735D 		.ascii	"[%s][%u][%s:%d] Manufacturer name null\015\012\000"
 2510      5B25755D 
 2510      5B25733A 
 2510      25645D20 
 2510      4D616E75 
 2511 0075 000000   		.space	3
 2512              	.LC22:
 2513 0078 5B25735D 		.ascii	"[%s][%u][%s:%d] atiny_init_object fail %d\015\012\000"
 2513      5B25755D 
 2513      5B25733A 
 2513      25645D20 
 2513      6174696E 
 2514              	.LC23:
 2515 00a4 5B25735D 		.ascii	"[%s][%u][%s:%d] memory not enough\015\012\000"
 2515      5B25755D 
 2515      5B25733A 
 2515      25645D20 
 2515      6D656D6F 
 2516              		.section	.rodata.atiny_check_bootstrap_init_param.str1.4,"aMS",%progbits,1
ARM GAS  c:\Users\lenovo\AppData\Local\Temp\ccDAYDpu.s 			page 71


 2517              		.align	2
 2518              	.LC0:
 2519 0000 5B25645D 		.ascii	"[%d][%s:%d] [bootstrap_tag]: BOOTSTRAP_FACTORY mode"
 2519      5B25733A 
 2519      25645D20 
 2519      5B626F6F 
 2519      74737472 
 2520 0033 27732070 		.ascii	"'s params is wrong, should have iot server ip/port\015"
 2520      6172616D 
 2520      73206973 
 2520      2077726F 
 2520      6E672C20 
 2521 0066 0A00     		.ascii	"\012\000"
 2522              	.LC1:
 2523 0068 5B25645D 		.ascii	"[%d][%s:%d] [bootstrap_tag]: BOOTSTRAP_CLIENT_INITI"
 2523      5B25733A 
 2523      25645D20 
 2523      5B626F6F 
 2523      74737472 
 2524 009b 41544544 		.ascii	"ATED mode's params is wrong, should have bootstrap "
 2524      206D6F64 
 2524      65277320 
 2524      70617261 
 2524      6D732069 
 2525 00ce 73657276 		.ascii	"server ip/port\015\012\000"
 2525      65722069 
 2525      702F706F 
 2525      72740D0A 
 2525      00
 2526 00df 00       		.space	1
 2527              	.LC2:
 2528 00e0 5B25645D 		.ascii	"[%d][%s:%d] [bootstrap_tag]: BOOTSTRAP only have th"
 2528      5B25733A 
 2528      25645D20 
 2528      5B626F6F 
 2528      74737472 
 2529 0113 72656520 		.ascii	"ree mode, should been :0,1,2\015\012\000"
 2529      6D6F6465 
 2529      2C207368 
 2529      6F756C64 
 2529      20626565 
 2530              		.section	.rodata.atiny_connection_err_notify.str1.4,"aMS",%progbits,1
 2531              		.align	2
 2532              	.LC28:
 2533 0000 5B25735D 		.ascii	"[%s][%u][%s:%d] null point\015\012\000"
 2533      5B25755D 
 2533      5B25733A 
 2533      25645D20 
 2533      6E756C6C 
 2534 001d 000000   		.space	3
 2535              	.LC29:
 2536 0020 5B25735D 		.ascii	"[%s][%u][%s:%d] connection err type %d bootstrap %d"
 2536      5B25755D 
 2536      5B25733A 
 2536      25645D20 
 2536      636F6E6E 
 2537 0053 0D0A00   		.ascii	"\015\012\000"
ARM GAS  c:\Users\lenovo\AppData\Local\Temp\ccDAYDpu.s 			page 72


 2538              		.section	.rodata.atiny_data_change.str1.4,"aMS",%progbits,1
 2539              		.align	2
 2540              	.LC27:
 2541 0000 5B25735D 		.ascii	"[%s][%u][%s:%d] not registered\015\012\000"
 2541      5B25755D 
 2541      5B25733A 
 2541      25645D20 
 2541      6E6F7420 
 2542              		.section	.rodata.atiny_data_report.str1.4,"aMS",%progbits,1
 2543              		.align	2
 2544              	.LC24:
 2545 0000 5B25735D 		.ascii	"[%s][%u][%s:%d] invalid args\015\012\000"
 2545      5B25755D 
 2545      5B25733A 
 2545      25645D20 
 2545      696E7661 
 2546 001f 00       		.space	1
 2547              	.LC25:
 2548 0020 2F352F30 		.ascii	"/5/0/3\000"
 2548      2F3300
 2549 0027 00       		.space	1
 2550              	.LC26:
 2551 0028 5B25735D 		.ascii	"[%s][%u][%s:%d] lwm2m_malloc fail,len %d\015\012\000"
 2551      5B25755D 
 2551      5B25733A 
 2551      25645D20 
 2551      6C776D32 
 2552              		.section	.rodata.atiny_handle_reconnect.str1.4,"aMS",%progbits,1
 2553              		.align	2
 2554              	.LC3:
 2555 0000 5B25735D 		.ascii	"[%s][%u][%s:%d] lwm2m reconnect\015\012\000"
 2555      5B25755D 
 2555      5B25733A 
 2555      25645D20 
 2555      6C776D32 
 2556              		.section	.rodata.atiny_init.str1.4,"aMS",%progbits,1
 2557              		.align	2
 2558              	.LC5:
 2559 0000 5B25735D 		.ascii	"[%s][%u][%s:%d] atiny_init_rpt fail,ret=%d\015\012\000"
 2559      5B25755D 
 2559      5B25733A 
 2559      25645D20 
 2559      6174696E 
 2560 002d 000000   		.space	3
 2561              	.LC6:
 2562 0030 5B25735D 		.ascii	"[%s][%u][%s:%d] Invalid args\015\012\000"
 2562      5B25755D 
 2562      5B25733A 
 2562      25645D20 
 2562      496E7661 
 2563 004f 00       		.space	1
 2564              	.LC7:
 2565 0050 5B25645D 		.ascii	"[%d][%s:%d] [bootstrap_tag]: BOOTSTRAP's params are"
 2565      5B25733A 
 2565      25645D20 
 2565      5B626F6F 
 2565      74737472 
ARM GAS  c:\Users\lenovo\AppData\Local\Temp\ccDAYDpu.s 			page 73


 2566 0083 2077726F 		.ascii	" wrong\015\012\000"
 2566      6E670D0A 
 2566      00
 2567              	.LC8:
 2568 008c 5B25735D 		.ascii	"[%s][%u][%s:%d] atiny_mutex_create fail\015\012\000"
 2568      5B25755D 
 2568      5B25733A 
 2568      25645D20 
 2568      6174696E 
 2569              		.section	.rodata.atiny_init_objects.str1.4,"aMS",%progbits,1
 2570              		.align	2
 2571              	.LC9:
 2572 0000 5B25735D 		.ascii	"[%s][%u][%s:%d] Trying to init objects\015\012\000"
 2572      5B25755D 
 2572      5B25733A 
 2572      25645D20 
 2572      54727969 
 2573 0029 000000   		.space	3
 2574              	.LC10:
 2575 002c 5B25735D 		.ascii	"[%s][%u][%s:%d] lwm2m_init fail\015\012\000"
 2575      5B25755D 
 2575      5B25733A 
 2575      25645D20 
 2575      6C776D32 
 2576 004e 0000     		.space	2
 2577              	.LC11:
 2578 0050 5B25735D 		.ascii	"[%s][%u][%s:%d] Failed to create security object\015"
 2578      5B25755D 
 2578      5B25733A 
 2578      25645D20 
 2578      4661696C 
 2579 0081 0A00     		.ascii	"\012\000"
 2580 0083 00       		.space	1
 2581              	.LC12:
 2582 0084 5B25735D 		.ascii	"[%s][%u][%s:%d] Failed to create server object\015\012"
 2582      5B25755D 
 2582      5B25733A 
 2582      25645D20 
 2582      4661696C 
 2583 00b4 00       		.ascii	"\000"
 2584 00b5 000000   		.space	3
 2585              	.LC13:
 2586 00b8 5B25735D 		.ascii	"[%s][%u][%s:%d] Failed to create access control obj"
 2586      5B25755D 
 2586      5B25733A 
 2586      25645D20 
 2586      4661696C 
 2587 00eb 6563740D 		.ascii	"ect\015\012\000"
 2587      0A00
 2588 00f1 000000   		.space	3
 2589              	.LC14:
 2590 00f4 5B25735D 		.ascii	"[%s][%u][%s:%d] Failed to create device object\015\012"
 2590      5B25755D 
 2590      5B25733A 
 2590      25645D20 
 2590      4661696C 
 2591 0124 00       		.ascii	"\000"
ARM GAS  c:\Users\lenovo\AppData\Local\Temp\ccDAYDpu.s 			page 74


 2592 0125 000000   		.space	3
 2593              	.LC15:
 2594 0128 5B25735D 		.ascii	"[%s][%u][%s:%d] Failed to create connect object\015"
 2594      5B25755D 
 2594      5B25733A 
 2594      25645D20 
 2594      4661696C 
 2595 0158 0A00     		.ascii	"\012\000"
 2596 015a 0000     		.space	2
 2597              	.LC16:
 2598 015c 5B25735D 		.ascii	"[%s][%u][%s:%d] Failed to create firmware object\015"
 2598      5B25755D 
 2598      5B25733A 
 2598      25645D20 
 2598      4661696C 
 2599 018d 0A00     		.ascii	"\012\000"
 2600 018f 00       		.space	1
 2601              	.LC17:
 2602 0190 5B25735D 		.ascii	"[%s][%u][%s:%d] Failed to create location object\015"
 2602      5B25755D 
 2602      5B25733A 
 2602      25645D20 
 2602      4661696C 
 2603 01c1 0A00     		.ascii	"\012\000"
 2604 01c3 00       		.space	1
 2605              	.LC18:
 2606 01c4 5B25735D 		.ascii	"[%s][%u][%s:%d] Failed to create app object\015\012"
 2606      5B25755D 
 2606      5B25733A 
 2606      25645D20 
 2606      4661696C 
 2607 01f1 00       		.ascii	"\000"
 2608              		.section	.rodata.lwm2m_poll.str1.4,"aMS",%progbits,1
 2609              		.align	2
 2610              	.LC4:
 2611 0000 5B25735D 		.ascii	"[%s][%u][%s:%d] no packet arrived!\015\012\000"
 2611      5B25755D 
 2611      5B25733A 
 2611      25645D20 
 2611      6E6F2070 
 2612              		.text
 2613              	.Letext0:
 2614              		.file 4 "c:\\program files (x86)\\liteos studio\\resources\\arm-none-eabi\\arm-none-eabi\\include\
 2615              		.file 5 "c:\\program files (x86)\\liteos studio\\resources\\arm-none-eabi\\arm-none-eabi\\include\
 2616              		.file 6 "C:/Users/lenovo/Desktop/liteos/Project2/BearPi_LiteOS/components/connectivity/lwm2m/core/
 2617              		.file 7 "c:\\program files (x86)\\liteos studio\\resources\\arm-none-eabi\\lib\\gcc\\arm-none-eabi
 2618              		.file 8 "c:\\program files (x86)\\liteos studio\\resources\\arm-none-eabi\\arm-none-eabi\\include\
 2619              		.file 9 "c:\\program files (x86)\\liteos studio\\resources\\arm-none-eabi\\arm-none-eabi\\include\
 2620              		.file 10 "c:\\program files (x86)\\liteos studio\\resources\\arm-none-eabi\\arm-none-eabi\\include
 2621              		.file 11 "c:\\program files (x86)\\liteos studio\\resources\\arm-none-eabi\\arm-none-eabi\\include
 2622              		.file 12 "c:\\program files (x86)\\liteos studio\\resources\\arm-none-eabi\\arm-none-eabi\\include
 2623              		.file 13 "C:/Users/lenovo/Desktop/liteos/Project2/BearPi_LiteOS/components/connectivity/lwm2m/core
 2624              		.file 14 "C:/Users/lenovo/Desktop/liteos/Project2/BearPi_LiteOS/kernel/include/los_typedef.h"
 2625              		.file 15 "C:/Users/lenovo/Desktop/liteos/Project2/BearPi_LiteOS/arch/arm/common/cmsis/core_cm4.h"
 2626              		.file 16 "C:/Users/lenovo/Desktop/liteos/Project2/BearPi_LiteOS/targets/STM32L431_BearPi/Inc/syste
 2627              		.file 17 "C:/Users/lenovo/Desktop/liteos/Project2/BearPi_LiteOS/kernel/include/los_list.h"
 2628              		.file 18 "C:/Users/lenovo/Desktop/liteos/Project2/BearPi_LiteOS/kernel/include/los_err.h"
ARM GAS  c:\Users\lenovo\AppData\Local\Temp\ccDAYDpu.s 			page 75


 2629              		.file 19 "C:/Users/lenovo/Desktop/liteos/Project2/BearPi_LiteOS/arch/arm/arm-m/include/los_hwi.h"
 2630              		.file 20 "C:/Users/lenovo/Desktop/liteos/Project2/BearPi_LiteOS/kernel/include/los_tick.h"
 2631              		.file 21 "C:/Users/lenovo/Desktop/liteos/Project2/BearPi_LiteOS/kernel/include/los_event.h"
 2632              		.file 22 "C:/Users/lenovo/Desktop/liteos/Project2/BearPi_LiteOS/kernel/include/los_task.h"
 2633              		.file 23 "C:/Users/lenovo/Desktop/liteos/Project2/BearPi_LiteOS/kernel/base/include/los_task.ph"
 2634              		.file 24 "C:/Users/lenovo/Desktop/liteos/Project2/BearPi_LiteOS/targets/STM32L431_BearPi/Inc/main.
 2635              		.file 25 "C:/Users/lenovo/Desktop/liteos/Project2/BearPi_LiteOS/targets/STM32L431_BearPi/OS_CONFIG
 2636              		.file 26 "C:/Users/lenovo/Desktop/liteos/Project2/BearPi_LiteOS/kernel/include/los_config.h"
 2637              		.file 27 "C:/Users/lenovo/Desktop/liteos/Project2/BearPi_LiteOS/components/connectivity/lwm2m/core
 2638              		.file 28 "c:\\program files (x86)\\liteos studio\\resources\\arm-none-eabi\\arm-none-eabi\\include
 2639              		.file 29 "c:\\program files (x86)\\liteos studio\\resources\\arm-none-eabi\\arm-none-eabi\\include
 2640              		.file 30 "C:/Users/lenovo/Desktop/liteos/Project2/BearPi_LiteOS/components/connectivity/agent_tiny
 2641              		.file 31 "C:/Users/lenovo/Desktop/liteos/Project2/BearPi_LiteOS/include/atiny_error.h"
 2642              		.file 32 "C:/Users/lenovo/Desktop/liteos/Project2/BearPi_LiteOS/include/log/atiny_log.h"
 2643              		.file 33 "C:/Users/lenovo/Desktop/liteos/Project2/BearPi_LiteOS/include/atiny_lwm2m/agenttiny.h"
 2644              		.file 34 "C:/Users/lenovo/Desktop/liteos/Project2/BearPi_LiteOS/components/connectivity/agent_tiny
 2645              		.file 35 "C:/Users/lenovo/Desktop/liteos/Project2/BearPi_LiteOS/components/connectivity/agent_tiny
 2646              		.file 36 "C:/Users/lenovo/Desktop/liteos/Project2/BearPi_LiteOS/include/osdepends/atiny_osdep.h"
 2647              		.file 37 "c:\\program files (x86)\\liteos studio\\resources\\arm-none-eabi\\arm-none-eabi\\include
 2648              		.file 38 "C:/Users/lenovo/Desktop/liteos/Project2/BearPi_LiteOS/components/connectivity/agent_tiny
 2649              		.file 39 "<built-in>"
ARM GAS  c:\Users\lenovo\AppData\Local\Temp\ccDAYDpu.s 			page 76


DEFINED SYMBOLS
                            *ABS*:00000000 agenttiny.c
c:\Users\lenovo\AppData\Local\Temp\ccDAYDpu.s:18     .text.observe_handle_ack:00000000 $t
c:\Users\lenovo\AppData\Local\Temp\ccDAYDpu.s:25     .text.observe_handle_ack:00000000 observe_handle_ack
c:\Users\lenovo\AppData\Local\Temp\ccDAYDpu.s:86     .text.atiny_check_bootstrap_init_param:00000000 $t
c:\Users\lenovo\AppData\Local\Temp\ccDAYDpu.s:92     .text.atiny_check_bootstrap_init_param:00000000 atiny_check_bootstrap_init_param
c:\Users\lenovo\AppData\Local\Temp\ccDAYDpu.s:203    .text.atiny_check_bootstrap_init_param:00000078 $d
c:\Users\lenovo\AppData\Local\Temp\ccDAYDpu.s:211    .text.atiny_event_handle:00000000 $t
c:\Users\lenovo\AppData\Local\Temp\ccDAYDpu.s:218    .text.atiny_event_handle:00000000 atiny_event_handle
c:\Users\lenovo\AppData\Local\Temp\ccDAYDpu.s:365    .text.atiny_handle_reconnect:00000000 $t
c:\Users\lenovo\AppData\Local\Temp\ccDAYDpu.s:371    .text.atiny_handle_reconnect:00000000 atiny_handle_reconnect
c:\Users\lenovo\AppData\Local\Temp\ccDAYDpu.s:440    .text.atiny_handle_reconnect:00000044 $d
c:\Users\lenovo\AppData\Local\Temp\ccDAYDpu.s:446    .text.lwm2m_poll:00000000 $t
c:\Users\lenovo\AppData\Local\Temp\ccDAYDpu.s:452    .text.lwm2m_poll:00000000 lwm2m_poll
c:\Users\lenovo\AppData\Local\Temp\ccDAYDpu.s:559    .text.lwm2m_poll:0000007c $d
c:\Users\lenovo\AppData\Local\Temp\ccDAYDpu.s:566    .text.atiny_init:00000000 $t
c:\Users\lenovo\AppData\Local\Temp\ccDAYDpu.s:573    .text.atiny_init:00000000 atiny_init
c:\Users\lenovo\AppData\Local\Temp\ccDAYDpu.s:765    .text.atiny_init:00000104 $d
c:\Users\lenovo\AppData\Local\Temp\ccDAYDpu.s:776    .text.atiny_set_bootstrap_sequence_state:00000000 $t
c:\Users\lenovo\AppData\Local\Temp\ccDAYDpu.s:783    .text.atiny_set_bootstrap_sequence_state:00000000 atiny_set_bootstrap_sequence_state
c:\Users\lenovo\AppData\Local\Temp\ccDAYDpu.s:809    .text.atiny_init_objects:00000000 $t
c:\Users\lenovo\AppData\Local\Temp\ccDAYDpu.s:816    .text.atiny_init_objects:00000000 atiny_init_objects
c:\Users\lenovo\AppData\Local\Temp\ccDAYDpu.s:1313   .text.atiny_init_objects:000002fc $d
c:\Users\lenovo\AppData\Local\Temp\ccDAYDpu.s:1329   .text.atiny_destroy:00000000 $t
c:\Users\lenovo\AppData\Local\Temp\ccDAYDpu.s:1336   .text.atiny_destroy:00000000 atiny_destroy
c:\Users\lenovo\AppData\Local\Temp\ccDAYDpu.s:1456   .text.reboot_check:00000000 $t
c:\Users\lenovo\AppData\Local\Temp\ccDAYDpu.s:1463   .text.reboot_check:00000000 reboot_check
c:\Users\lenovo\AppData\Local\Temp\ccDAYDpu.s:1494   .text.reboot_check:00000018 $d
c:\Users\lenovo\AppData\Local\Temp\ccDAYDpu.s:1499   .text.atiny_deinit:00000000 $t
c:\Users\lenovo\AppData\Local\Temp\ccDAYDpu.s:1506   .text.atiny_deinit:00000000 atiny_deinit
c:\Users\lenovo\AppData\Local\Temp\ccDAYDpu.s:1550   .text.atiny_bind:00000000 $t
c:\Users\lenovo\AppData\Local\Temp\ccDAYDpu.s:1557   .text.atiny_bind:00000000 atiny_bind
c:\Users\lenovo\AppData\Local\Temp\ccDAYDpu.s:1834   .text.atiny_bind:00000188 $d
c:\Users\lenovo\AppData\Local\Temp\ccDAYDpu.s:2277   .text.atiny_connection_err_notify:00000000 atiny_connection_err_notify
c:\Users\lenovo\AppData\Local\Temp\ccDAYDpu.s:1847   .text.atiny_data_report:00000000 $t
c:\Users\lenovo\AppData\Local\Temp\ccDAYDpu.s:1854   .text.atiny_data_report:00000000 atiny_data_report
c:\Users\lenovo\AppData\Local\Temp\ccDAYDpu.s:2037   .text.atiny_data_report:000000f0 $d
c:\Users\lenovo\AppData\Local\Temp\ccDAYDpu.s:2045   .text.atiny_data_change:00000000 $t
c:\Users\lenovo\AppData\Local\Temp\ccDAYDpu.s:2052   .text.atiny_data_change:00000000 atiny_data_change
c:\Users\lenovo\AppData\Local\Temp\ccDAYDpu.s:2184   .text.atiny_data_change:000000ac $d
c:\Users\lenovo\AppData\Local\Temp\ccDAYDpu.s:2191   .text.atiny_reconnect:00000000 $t
c:\Users\lenovo\AppData\Local\Temp\ccDAYDpu.s:2198   .text.atiny_reconnect:00000000 atiny_reconnect
c:\Users\lenovo\AppData\Local\Temp\ccDAYDpu.s:2265   .text.atiny_reconnect:00000044 $d
c:\Users\lenovo\AppData\Local\Temp\ccDAYDpu.s:2271   .text.atiny_connection_err_notify:00000000 $t
c:\Users\lenovo\AppData\Local\Temp\ccDAYDpu.s:2375   .text.atiny_connection_err_notify:00000070 $d
c:\Users\lenovo\AppData\Local\Temp\ccDAYDpu.s:2382   .text.atiny_set_reboot_flag:00000000 $t
c:\Users\lenovo\AppData\Local\Temp\ccDAYDpu.s:2389   .text.atiny_set_reboot_flag:00000000 atiny_set_reboot_flag
c:\Users\lenovo\AppData\Local\Temp\ccDAYDpu.s:2405   .text.atiny_set_reboot_flag:00000008 $d
c:\Users\lenovo\AppData\Local\Temp\ccDAYDpu.s:2422   .bss.g_reboot:00000000 g_reboot
c:\Users\lenovo\AppData\Local\Temp\ccDAYDpu.s:2411   .bss.g_atiny_handle:00000000 $d
c:\Users\lenovo\AppData\Local\Temp\ccDAYDpu.s:2415   .bss.g_atiny_handle:00000000 g_atiny_handle
c:\Users\lenovo\AppData\Local\Temp\ccDAYDpu.s:2418   .bss.g_reboot:00000000 $d
c:\Users\lenovo\AppData\Local\Temp\ccDAYDpu.s:2425   .rodata.__FUNCTION__.12091:00000000 $d
c:\Users\lenovo\AppData\Local\Temp\ccDAYDpu.s:2429   .rodata.__FUNCTION__.12091:00000000 __FUNCTION__.12091
c:\Users\lenovo\AppData\Local\Temp\ccDAYDpu.s:2432   .rodata.__FUNCTION__.12107:00000000 $d
c:\Users\lenovo\AppData\Local\Temp\ccDAYDpu.s:2436   .rodata.__FUNCTION__.12107:00000000 __FUNCTION__.12107
c:\Users\lenovo\AppData\Local\Temp\ccDAYDpu.s:2439   .rodata.__FUNCTION__.12117:00000000 $d
ARM GAS  c:\Users\lenovo\AppData\Local\Temp\ccDAYDpu.s 			page 77


c:\Users\lenovo\AppData\Local\Temp\ccDAYDpu.s:2443   .rodata.__FUNCTION__.12117:00000000 __FUNCTION__.12117
c:\Users\lenovo\AppData\Local\Temp\ccDAYDpu.s:2446   .rodata.__FUNCTION__.12147:00000000 $d
c:\Users\lenovo\AppData\Local\Temp\ccDAYDpu.s:2450   .rodata.__FUNCTION__.12147:00000000 __FUNCTION__.12147
c:\Users\lenovo\AppData\Local\Temp\ccDAYDpu.s:2453   .rodata.__FUNCTION__.12151:00000000 $d
c:\Users\lenovo\AppData\Local\Temp\ccDAYDpu.s:2457   .rodata.__FUNCTION__.12151:00000000 __FUNCTION__.12151
c:\Users\lenovo\AppData\Local\Temp\ccDAYDpu.s:2460   .rodata.__FUNCTION__.12159:00000000 $d
c:\Users\lenovo\AppData\Local\Temp\ccDAYDpu.s:2464   .rodata.__FUNCTION__.12159:00000000 __FUNCTION__.12159
c:\Users\lenovo\AppData\Local\Temp\ccDAYDpu.s:2467   .rodata.__FUNCTION__.12175:00000000 $d
c:\Users\lenovo\AppData\Local\Temp\ccDAYDpu.s:2471   .rodata.__FUNCTION__.12175:00000000 __FUNCTION__.12175
c:\Users\lenovo\AppData\Local\Temp\ccDAYDpu.s:2474   .rodata.__FUNCTION__.12186:00000000 $d
c:\Users\lenovo\AppData\Local\Temp\ccDAYDpu.s:2478   .rodata.__FUNCTION__.12186:00000000 __FUNCTION__.12186
c:\Users\lenovo\AppData\Local\Temp\ccDAYDpu.s:2481   .rodata.__FUNCTION__.12196:00000000 $d
c:\Users\lenovo\AppData\Local\Temp\ccDAYDpu.s:2485   .rodata.__FUNCTION__.12196:00000000 __FUNCTION__.12196
c:\Users\lenovo\AppData\Local\Temp\ccDAYDpu.s:2488   .rodata.__func__.12085:00000000 $d
c:\Users\lenovo\AppData\Local\Temp\ccDAYDpu.s:2492   .rodata.__func__.12085:00000000 __func__.12085
c:\Users\lenovo\AppData\Local\Temp\ccDAYDpu.s:2495   .rodata.__func__.12092:00000000 $d
c:\Users\lenovo\AppData\Local\Temp\ccDAYDpu.s:2499   .rodata.__func__.12092:00000000 __func__.12092
c:\Users\lenovo\AppData\Local\Temp\ccDAYDpu.s:2502   .rodata.atiny_bind.str1.4:00000000 $d
c:\Users\lenovo\AppData\Local\Temp\ccDAYDpu.s:2517   .rodata.atiny_check_bootstrap_init_param.str1.4:00000000 $d
c:\Users\lenovo\AppData\Local\Temp\ccDAYDpu.s:2531   .rodata.atiny_connection_err_notify.str1.4:00000000 $d
c:\Users\lenovo\AppData\Local\Temp\ccDAYDpu.s:2539   .rodata.atiny_data_change.str1.4:00000000 $d
c:\Users\lenovo\AppData\Local\Temp\ccDAYDpu.s:2543   .rodata.atiny_data_report.str1.4:00000000 $d
c:\Users\lenovo\AppData\Local\Temp\ccDAYDpu.s:2553   .rodata.atiny_handle_reconnect.str1.4:00000000 $d
c:\Users\lenovo\AppData\Local\Temp\ccDAYDpu.s:2557   .rodata.atiny_init.str1.4:00000000 $d
c:\Users\lenovo\AppData\Local\Temp\ccDAYDpu.s:2570   .rodata.atiny_init_objects.str1.4:00000000 $d
c:\Users\lenovo\AppData\Local\Temp\ccDAYDpu.s:2609   .rodata.lwm2m_poll.str1.4:00000000 $d

UNDEFINED SYMBOLS
lwm2m_gettime
atiny_printf
atiny_event_notify
atiny_fota_manager_get_instance
atiny_fota_manager_repot_result
atiny_clear_rpt_data
lwm2m_reconnect
atiny_get_log_level
atiny_get_log_level_name
atiny_gettime_ms
lwm2m_buffer_recv
output_buffer
lwm2m_handle_packet
_impure_ptr
atiny_init_rpt
memset
atiny_mutex_create
atiny_mutex_lock
atiny_fota_manager_set_storage_device
lwm2m_initBootStrap
lwm2m_init
get_security_object
get_server_object
acc_ctrl_create_object
get_object_device
get_object_conn_m
get_object_firmware
get_object_location
get_binary_app_data_object
ARM GAS  c:\Users\lenovo\AppData\Local\Temp\ccDAYDpu.s 			page 78


lwm2m_configure
lwm2m_free
atiny_fota_manager_destroy
clean_security_object
clean_server_object
acl_ctrl_free_object
free_object_device
free_object_conn_m
free_object_firmware
free_object_location
free_binary_app_data_object
atiny_destroy_rpt
atiny_mutex_destroy
lwm2m_close
atiny_mutex_unlock
atiny_cmd_ioctl
atiny_fota_manager_set_lwm2m_context
lwm2m_register_observe_ack_call_back
lwm2m_register_event_handler
lwm2m_register_connection_err_notify
lwm2m_malloc
atiny_step_rpt
lwm2m_step
lwm2m_stringToUri
memcpy
atiny_queue_rpt_data
strlen
lwm2m_resource_value_changed
