ARM GAS  c:\Users\lenovo\AppData\Local\Temp\cc91w6S1.s 			page 1


   1              		.cpu cortex-m4
   2              		.eabi_attribute 27, 1
   3              		.eabi_attribute 28, 1
   4              		.eabi_attribute 20, 1
   5              		.eabi_attribute 21, 1
   6              		.eabi_attribute 23, 3
   7              		.eabi_attribute 24, 1
   8              		.eabi_attribute 25, 1
   9              		.eabi_attribute 26, 1
  10              		.eabi_attribute 30, 1
  11              		.eabi_attribute 34, 1
  12              		.eabi_attribute 18, 4
  13              		.file	"at_api.c"
  14              		.text
  15              	.Ltext0:
  16              		.cfi_sections	.debug_frame
  17              		.section	.text.at_api_register,"ax",%progbits
  18              		.align	1
  19              		.global	at_api_register
  20              		.syntax unified
  21              		.thumb
  22              		.thumb_func
  23              		.fpu fpv4-sp-d16
  25              	at_api_register:
  26              	.LFB3:
  27              		.file 1 "C:/Users/lenovo/Desktop/liteos/Project2/BearPi_LiteOS/components/net/at_frame/at_api.c"
   1:C:/Users/lenovo/Desktop/liteos/Project2/BearPi_LiteOS/components/net/at_frame\at_api.c **** /*----------------------------------------------------------------------------
   2:C:/Users/lenovo/Desktop/liteos/Project2/BearPi_LiteOS/components/net/at_frame\at_api.c ****  * Copyright (c) <2016-2018>, <Huawei Technologies Co., Ltd>
   3:C:/Users/lenovo/Desktop/liteos/Project2/BearPi_LiteOS/components/net/at_frame\at_api.c ****  * All rights reserved.
   4:C:/Users/lenovo/Desktop/liteos/Project2/BearPi_LiteOS/components/net/at_frame\at_api.c ****  * Redistribution and use in source and binary forms, with or without modification,
   5:C:/Users/lenovo/Desktop/liteos/Project2/BearPi_LiteOS/components/net/at_frame\at_api.c ****  * are permitted provided that the following conditions are met:
   6:C:/Users/lenovo/Desktop/liteos/Project2/BearPi_LiteOS/components/net/at_frame\at_api.c ****  * 1. Redistributions of source code must retain the above copyright notice, this list of
   7:C:/Users/lenovo/Desktop/liteos/Project2/BearPi_LiteOS/components/net/at_frame\at_api.c ****  * conditions and the following disclaimer.
   8:C:/Users/lenovo/Desktop/liteos/Project2/BearPi_LiteOS/components/net/at_frame\at_api.c ****  * 2. Redistributions in binary form must reproduce the above copyright notice, this list
   9:C:/Users/lenovo/Desktop/liteos/Project2/BearPi_LiteOS/components/net/at_frame\at_api.c ****  * of conditions and the following disclaimer in the documentation and/or other materials
  10:C:/Users/lenovo/Desktop/liteos/Project2/BearPi_LiteOS/components/net/at_frame\at_api.c ****  * provided with the distribution.
  11:C:/Users/lenovo/Desktop/liteos/Project2/BearPi_LiteOS/components/net/at_frame\at_api.c ****  * 3. Neither the name of the copyright holder nor the names of its contributors may be used
  12:C:/Users/lenovo/Desktop/liteos/Project2/BearPi_LiteOS/components/net/at_frame\at_api.c ****  * to endorse or promote products derived from this software without specific prior written
  13:C:/Users/lenovo/Desktop/liteos/Project2/BearPi_LiteOS/components/net/at_frame\at_api.c ****  * permission.
  14:C:/Users/lenovo/Desktop/liteos/Project2/BearPi_LiteOS/components/net/at_frame\at_api.c ****  * THIS SOFTWARE IS PROVIDED BY THE COPYRIGHT HOLDERS AND CONTRIBUTORS
  15:C:/Users/lenovo/Desktop/liteos/Project2/BearPi_LiteOS/components/net/at_frame\at_api.c ****  * "AS IS" AND ANY EXPRESS OR IMPLIED WARRANTIES, INCLUDING, BUT NOT LIMITED TO,
  16:C:/Users/lenovo/Desktop/liteos/Project2/BearPi_LiteOS/components/net/at_frame\at_api.c ****  * THE IMPLIED WARRANTIES OF MERCHANTABILITY AND FITNESS FOR A PARTICULAR
  17:C:/Users/lenovo/Desktop/liteos/Project2/BearPi_LiteOS/components/net/at_frame\at_api.c ****  * PURPOSE ARE DISCLAIMED. IN NO EVENT SHALL THE COPYRIGHT HOLDER OR
  18:C:/Users/lenovo/Desktop/liteos/Project2/BearPi_LiteOS/components/net/at_frame\at_api.c ****  * CONTRIBUTORS BE LIABLE FOR ANY DIRECT, INDIRECT, INCIDENTAL, SPECIAL,
  19:C:/Users/lenovo/Desktop/liteos/Project2/BearPi_LiteOS/components/net/at_frame\at_api.c ****  * EXEMPLARY, OR CONSEQUENTIAL DAMAGES (INCLUDING, BUT NOT LIMITED TO,
  20:C:/Users/lenovo/Desktop/liteos/Project2/BearPi_LiteOS/components/net/at_frame\at_api.c ****  * PROCUREMENT OF SUBSTITUTE GOODS OR SERVICES; LOSS OF USE, DATA, OR PROFITS;
  21:C:/Users/lenovo/Desktop/liteos/Project2/BearPi_LiteOS/components/net/at_frame\at_api.c ****  * OR BUSINESS INTERRUPTION) HOWEVER CAUSED AND ON ANY THEORY OF LIABILITY,
  22:C:/Users/lenovo/Desktop/liteos/Project2/BearPi_LiteOS/components/net/at_frame\at_api.c ****  * WHETHER IN CONTRACT, STRICT LIABILITY, OR TORT (INCLUDING NEGLIGENCE OR
  23:C:/Users/lenovo/Desktop/liteos/Project2/BearPi_LiteOS/components/net/at_frame\at_api.c ****  * OTHERWISE) ARISING IN ANY WAY OUT OF THE USE OF THIS SOFTWARE, EVEN IF
  24:C:/Users/lenovo/Desktop/liteos/Project2/BearPi_LiteOS/components/net/at_frame\at_api.c ****  * ADVISED OF THE POSSIBILITY OF SUCH DAMAGE.
  25:C:/Users/lenovo/Desktop/liteos/Project2/BearPi_LiteOS/components/net/at_frame\at_api.c ****  *---------------------------------------------------------------------------*/
  26:C:/Users/lenovo/Desktop/liteos/Project2/BearPi_LiteOS/components/net/at_frame\at_api.c **** /*----------------------------------------------------------------------------
  27:C:/Users/lenovo/Desktop/liteos/Project2/BearPi_LiteOS/components/net/at_frame\at_api.c ****  * Notice of Export Control Law
  28:C:/Users/lenovo/Desktop/liteos/Project2/BearPi_LiteOS/components/net/at_frame\at_api.c ****  * ===============================================
  29:C:/Users/lenovo/Desktop/liteos/Project2/BearPi_LiteOS/components/net/at_frame\at_api.c ****  * Huawei LiteOS may be subject to applicable export control laws and regulations, which might
  30:C:/Users/lenovo/Desktop/liteos/Project2/BearPi_LiteOS/components/net/at_frame\at_api.c ****  * include those applicable to Huawei LiteOS of U.S. and the country in which you are located.
  31:C:/Users/lenovo/Desktop/liteos/Project2/BearPi_LiteOS/components/net/at_frame\at_api.c ****  * Import, export and usage of Huawei LiteOS in any manner by you shall be in compliance with such
ARM GAS  c:\Users\lenovo\AppData\Local\Temp\cc91w6S1.s 			page 2


  32:C:/Users/lenovo/Desktop/liteos/Project2/BearPi_LiteOS/components/net/at_frame\at_api.c ****  * applicable export control laws and regulations.
  33:C:/Users/lenovo/Desktop/liteos/Project2/BearPi_LiteOS/components/net/at_frame\at_api.c ****  *---------------------------------------------------------------------------*/
  34:C:/Users/lenovo/Desktop/liteos/Project2/BearPi_LiteOS/components/net/at_frame\at_api.c **** 
  35:C:/Users/lenovo/Desktop/liteos/Project2/BearPi_LiteOS/components/net/at_frame\at_api.c **** #if defined(WITH_AT_FRAMEWORK)
  36:C:/Users/lenovo/Desktop/liteos/Project2/BearPi_LiteOS/components/net/at_frame\at_api.c **** #include "at_frame/at_api.h"
  37:C:/Users/lenovo/Desktop/liteos/Project2/BearPi_LiteOS/components/net/at_frame\at_api.c **** 
  38:C:/Users/lenovo/Desktop/liteos/Project2/BearPi_LiteOS/components/net/at_frame\at_api.c **** static at_adaptor_api  *gp_at_adaptor_api = NULL;
  39:C:/Users/lenovo/Desktop/liteos/Project2/BearPi_LiteOS/components/net/at_frame\at_api.c **** 
  40:C:/Users/lenovo/Desktop/liteos/Project2/BearPi_LiteOS/components/net/at_frame\at_api.c **** int32_t at_api_register(at_adaptor_api *api)
  41:C:/Users/lenovo/Desktop/liteos/Project2/BearPi_LiteOS/components/net/at_frame\at_api.c **** {
  28              		.loc 1 41 0
  29              		.cfi_startproc
  30              		@ args = 0, pretend = 0, frame = 0
  31              		@ frame_needed = 0, uses_anonymous_args = 0
  32              	.LVL0:
  33 0000 08B5     		push	{r3, lr}
  34              	.LCFI0:
  35              		.cfi_def_cfa_offset 8
  36              		.cfi_offset 3, -8
  37              		.cfi_offset 14, -4
  42:C:/Users/lenovo/Desktop/liteos/Project2/BearPi_LiteOS/components/net/at_frame\at_api.c ****     if (NULL == gp_at_adaptor_api)
  38              		.loc 1 42 0
  39 0002 084B     		ldr	r3, .L8
  40 0004 1B68     		ldr	r3, [r3]
  41 0006 0BB1     		cbz	r3, .L7
  43:C:/Users/lenovo/Desktop/liteos/Project2/BearPi_LiteOS/components/net/at_frame\at_api.c ****     {
  44:C:/Users/lenovo/Desktop/liteos/Project2/BearPi_LiteOS/components/net/at_frame\at_api.c ****         gp_at_adaptor_api = api;
  45:C:/Users/lenovo/Desktop/liteos/Project2/BearPi_LiteOS/components/net/at_frame\at_api.c ****         if (gp_at_adaptor_api && gp_at_adaptor_api->init)
  46:C:/Users/lenovo/Desktop/liteos/Project2/BearPi_LiteOS/components/net/at_frame\at_api.c ****         {
  47:C:/Users/lenovo/Desktop/liteos/Project2/BearPi_LiteOS/components/net/at_frame\at_api.c ****             return gp_at_adaptor_api->init();
  48:C:/Users/lenovo/Desktop/liteos/Project2/BearPi_LiteOS/components/net/at_frame\at_api.c ****         }
  49:C:/Users/lenovo/Desktop/liteos/Project2/BearPi_LiteOS/components/net/at_frame\at_api.c ****     }
  50:C:/Users/lenovo/Desktop/liteos/Project2/BearPi_LiteOS/components/net/at_frame\at_api.c **** 
  51:C:/Users/lenovo/Desktop/liteos/Project2/BearPi_LiteOS/components/net/at_frame\at_api.c ****     return 0;
  42              		.loc 1 51 0
  43 0008 0020     		movs	r0, #0
  44              	.LVL1:
  45              	.L1:
  52:C:/Users/lenovo/Desktop/liteos/Project2/BearPi_LiteOS/components/net/at_frame\at_api.c **** }
  46              		.loc 1 52 0
  47 000a 08BD     		pop	{r3, pc}
  48              	.LVL2:
  49              	.L7:
  44:C:/Users/lenovo/Desktop/liteos/Project2/BearPi_LiteOS/components/net/at_frame\at_api.c ****         if (gp_at_adaptor_api && gp_at_adaptor_api->init)
  50              		.loc 1 44 0
  51 000c 054B     		ldr	r3, .L8
  52 000e 1860     		str	r0, [r3]
  45:C:/Users/lenovo/Desktop/liteos/Project2/BearPi_LiteOS/components/net/at_frame\at_api.c ****         {
  53              		.loc 1 45 0
  54 0010 18B1     		cbz	r0, .L4
  45:C:/Users/lenovo/Desktop/liteos/Project2/BearPi_LiteOS/components/net/at_frame\at_api.c ****         {
  55              		.loc 1 45 0 is_stmt 0 discriminator 1
  56 0012 0368     		ldr	r3, [r0]
  57 0014 1BB1     		cbz	r3, .L5
  47:C:/Users/lenovo/Desktop/liteos/Project2/BearPi_LiteOS/components/net/at_frame\at_api.c ****         }
  58              		.loc 1 47 0 is_stmt 1
  59 0016 9847     		blx	r3
ARM GAS  c:\Users\lenovo\AppData\Local\Temp\cc91w6S1.s 			page 3


  60              	.LVL3:
  61 0018 F7E7     		b	.L1
  62              	.LVL4:
  63              	.L4:
  51:C:/Users/lenovo/Desktop/liteos/Project2/BearPi_LiteOS/components/net/at_frame\at_api.c **** }
  64              		.loc 1 51 0
  65 001a 0020     		movs	r0, #0
  66              	.LVL5:
  67 001c F5E7     		b	.L1
  68              	.LVL6:
  69              	.L5:
  70 001e 0020     		movs	r0, #0
  71              	.LVL7:
  72 0020 F3E7     		b	.L1
  73              	.L9:
  74 0022 00BF     		.align	2
  75              	.L8:
  76 0024 00000000 		.word	.LANCHOR0
  77              		.cfi_endproc
  78              	.LFE3:
  80              		.section	.text.at_api_bind,"ax",%progbits
  81              		.align	1
  82              		.global	at_api_bind
  83              		.syntax unified
  84              		.thumb
  85              		.thumb_func
  86              		.fpu fpv4-sp-d16
  88              	at_api_bind:
  89              	.LFB4:
  53:C:/Users/lenovo/Desktop/liteos/Project2/BearPi_LiteOS/components/net/at_frame\at_api.c **** 
  54:C:/Users/lenovo/Desktop/liteos/Project2/BearPi_LiteOS/components/net/at_frame\at_api.c **** int32_t at_api_bind(const char *host, const char *port, int proto)
  55:C:/Users/lenovo/Desktop/liteos/Project2/BearPi_LiteOS/components/net/at_frame\at_api.c **** {
  90              		.loc 1 55 0
  91              		.cfi_startproc
  92              		@ args = 0, pretend = 0, frame = 0
  93              		@ frame_needed = 0, uses_anonymous_args = 0
  94              	.LVL8:
  95 0000 08B5     		push	{r3, lr}
  96              	.LCFI1:
  97              		.cfi_def_cfa_offset 8
  98              		.cfi_offset 3, -8
  99              		.cfi_offset 14, -4
 100              	.LVL9:
  56:C:/Users/lenovo/Desktop/liteos/Project2/BearPi_LiteOS/components/net/at_frame\at_api.c ****     int32_t ret = -1;
  57:C:/Users/lenovo/Desktop/liteos/Project2/BearPi_LiteOS/components/net/at_frame\at_api.c **** 
  58:C:/Users/lenovo/Desktop/liteos/Project2/BearPi_LiteOS/components/net/at_frame\at_api.c ****     if (gp_at_adaptor_api && gp_at_adaptor_api->bind)
 101              		.loc 1 58 0
 102 0002 064B     		ldr	r3, .L15
 103 0004 1B68     		ldr	r3, [r3]
 104 0006 1BB1     		cbz	r3, .L12
 105              		.loc 1 58 0 is_stmt 0 discriminator 1
 106 0008 DB68     		ldr	r3, [r3, #12]
 107 000a 23B1     		cbz	r3, .L13
  59:C:/Users/lenovo/Desktop/liteos/Project2/BearPi_LiteOS/components/net/at_frame\at_api.c ****     {
  60:C:/Users/lenovo/Desktop/liteos/Project2/BearPi_LiteOS/components/net/at_frame\at_api.c ****         ret = gp_at_adaptor_api->bind((int8_t *)host, (int8_t *)port, proto);
 108              		.loc 1 60 0 is_stmt 1
 109 000c 9847     		blx	r3
ARM GAS  c:\Users\lenovo\AppData\Local\Temp\cc91w6S1.s 			page 4


 110              	.LVL10:
 111              	.L10:
  61:C:/Users/lenovo/Desktop/liteos/Project2/BearPi_LiteOS/components/net/at_frame\at_api.c ****     }
  62:C:/Users/lenovo/Desktop/liteos/Project2/BearPi_LiteOS/components/net/at_frame\at_api.c ****     return ret;
  63:C:/Users/lenovo/Desktop/liteos/Project2/BearPi_LiteOS/components/net/at_frame\at_api.c **** }
 112              		.loc 1 63 0
 113 000e 08BD     		pop	{r3, pc}
 114              	.LVL11:
 115              	.L12:
  56:C:/Users/lenovo/Desktop/liteos/Project2/BearPi_LiteOS/components/net/at_frame\at_api.c **** 
 116              		.loc 1 56 0
 117 0010 4FF0FF30 		mov	r0, #-1
 118              	.LVL12:
 119 0014 FBE7     		b	.L10
 120              	.LVL13:
 121              	.L13:
 122 0016 4FF0FF30 		mov	r0, #-1
 123              	.LVL14:
  62:C:/Users/lenovo/Desktop/liteos/Project2/BearPi_LiteOS/components/net/at_frame\at_api.c **** }
 124              		.loc 1 62 0
 125 001a F8E7     		b	.L10
 126              	.L16:
 127              		.align	2
 128              	.L15:
 129 001c 00000000 		.word	.LANCHOR0
 130              		.cfi_endproc
 131              	.LFE4:
 133              		.section	.text.at_api_connect,"ax",%progbits
 134              		.align	1
 135              		.global	at_api_connect
 136              		.syntax unified
 137              		.thumb
 138              		.thumb_func
 139              		.fpu fpv4-sp-d16
 141              	at_api_connect:
 142              	.LFB5:
  64:C:/Users/lenovo/Desktop/liteos/Project2/BearPi_LiteOS/components/net/at_frame\at_api.c **** 
  65:C:/Users/lenovo/Desktop/liteos/Project2/BearPi_LiteOS/components/net/at_frame\at_api.c **** int32_t at_api_connect(const char *host, const char *port, int proto)
  66:C:/Users/lenovo/Desktop/liteos/Project2/BearPi_LiteOS/components/net/at_frame\at_api.c **** {
 143              		.loc 1 66 0
 144              		.cfi_startproc
 145              		@ args = 0, pretend = 0, frame = 0
 146              		@ frame_needed = 0, uses_anonymous_args = 0
 147              	.LVL15:
 148 0000 08B5     		push	{r3, lr}
 149              	.LCFI2:
 150              		.cfi_def_cfa_offset 8
 151              		.cfi_offset 3, -8
 152              		.cfi_offset 14, -4
 153              	.LVL16:
  67:C:/Users/lenovo/Desktop/liteos/Project2/BearPi_LiteOS/components/net/at_frame\at_api.c ****     int32_t ret = -1;
  68:C:/Users/lenovo/Desktop/liteos/Project2/BearPi_LiteOS/components/net/at_frame\at_api.c **** 
  69:C:/Users/lenovo/Desktop/liteos/Project2/BearPi_LiteOS/components/net/at_frame\at_api.c ****     if (gp_at_adaptor_api && gp_at_adaptor_api->connect)
 154              		.loc 1 69 0
 155 0002 064B     		ldr	r3, .L22
 156 0004 1B68     		ldr	r3, [r3]
 157 0006 1BB1     		cbz	r3, .L19
ARM GAS  c:\Users\lenovo\AppData\Local\Temp\cc91w6S1.s 			page 5


 158              		.loc 1 69 0 is_stmt 0 discriminator 1
 159 0008 1B69     		ldr	r3, [r3, #16]
 160 000a 23B1     		cbz	r3, .L20
  70:C:/Users/lenovo/Desktop/liteos/Project2/BearPi_LiteOS/components/net/at_frame\at_api.c ****     {
  71:C:/Users/lenovo/Desktop/liteos/Project2/BearPi_LiteOS/components/net/at_frame\at_api.c ****         ret = gp_at_adaptor_api->connect((int8_t *)host, (int8_t *)port, proto);
 161              		.loc 1 71 0 is_stmt 1
 162 000c 9847     		blx	r3
 163              	.LVL17:
 164              	.L17:
  72:C:/Users/lenovo/Desktop/liteos/Project2/BearPi_LiteOS/components/net/at_frame\at_api.c ****     }
  73:C:/Users/lenovo/Desktop/liteos/Project2/BearPi_LiteOS/components/net/at_frame\at_api.c ****     return ret;
  74:C:/Users/lenovo/Desktop/liteos/Project2/BearPi_LiteOS/components/net/at_frame\at_api.c **** }
 165              		.loc 1 74 0
 166 000e 08BD     		pop	{r3, pc}
 167              	.LVL18:
 168              	.L19:
  67:C:/Users/lenovo/Desktop/liteos/Project2/BearPi_LiteOS/components/net/at_frame\at_api.c **** 
 169              		.loc 1 67 0
 170 0010 4FF0FF30 		mov	r0, #-1
 171              	.LVL19:
 172 0014 FBE7     		b	.L17
 173              	.LVL20:
 174              	.L20:
 175 0016 4FF0FF30 		mov	r0, #-1
 176              	.LVL21:
  73:C:/Users/lenovo/Desktop/liteos/Project2/BearPi_LiteOS/components/net/at_frame\at_api.c **** }
 177              		.loc 1 73 0
 178 001a F8E7     		b	.L17
 179              	.L23:
 180              		.align	2
 181              	.L22:
 182 001c 00000000 		.word	.LANCHOR0
 183              		.cfi_endproc
 184              	.LFE5:
 186              		.section	.text.at_api_send,"ax",%progbits
 187              		.align	1
 188              		.global	at_api_send
 189              		.syntax unified
 190              		.thumb
 191              		.thumb_func
 192              		.fpu fpv4-sp-d16
 194              	at_api_send:
 195              	.LFB6:
  75:C:/Users/lenovo/Desktop/liteos/Project2/BearPi_LiteOS/components/net/at_frame\at_api.c **** 
  76:C:/Users/lenovo/Desktop/liteos/Project2/BearPi_LiteOS/components/net/at_frame\at_api.c **** int32_t at_api_send(int32_t id , const unsigned char *buf, uint32_t len)
  77:C:/Users/lenovo/Desktop/liteos/Project2/BearPi_LiteOS/components/net/at_frame\at_api.c **** {
 196              		.loc 1 77 0
 197              		.cfi_startproc
 198              		@ args = 0, pretend = 0, frame = 0
 199              		@ frame_needed = 0, uses_anonymous_args = 0
 200              	.LVL22:
 201 0000 08B5     		push	{r3, lr}
 202              	.LCFI3:
 203              		.cfi_def_cfa_offset 8
 204              		.cfi_offset 3, -8
 205              		.cfi_offset 14, -4
  78:C:/Users/lenovo/Desktop/liteos/Project2/BearPi_LiteOS/components/net/at_frame\at_api.c ****     if (gp_at_adaptor_api && gp_at_adaptor_api->send)
ARM GAS  c:\Users\lenovo\AppData\Local\Temp\cc91w6S1.s 			page 6


 206              		.loc 1 78 0
 207 0002 064B     		ldr	r3, .L29
 208 0004 1B68     		ldr	r3, [r3]
 209 0006 1BB1     		cbz	r3, .L26
 210              		.loc 1 78 0 is_stmt 0 discriminator 1
 211 0008 5B69     		ldr	r3, [r3, #20]
 212 000a 23B1     		cbz	r3, .L27
  79:C:/Users/lenovo/Desktop/liteos/Project2/BearPi_LiteOS/components/net/at_frame\at_api.c ****     {
  80:C:/Users/lenovo/Desktop/liteos/Project2/BearPi_LiteOS/components/net/at_frame\at_api.c ****         return gp_at_adaptor_api->send(id, buf, len);
 213              		.loc 1 80 0 is_stmt 1
 214 000c 9847     		blx	r3
 215              	.LVL23:
 216              	.L24:
  81:C:/Users/lenovo/Desktop/liteos/Project2/BearPi_LiteOS/components/net/at_frame\at_api.c ****     }
  82:C:/Users/lenovo/Desktop/liteos/Project2/BearPi_LiteOS/components/net/at_frame\at_api.c ****     return -1;
  83:C:/Users/lenovo/Desktop/liteos/Project2/BearPi_LiteOS/components/net/at_frame\at_api.c **** }
 217              		.loc 1 83 0
 218 000e 08BD     		pop	{r3, pc}
 219              	.LVL24:
 220              	.L26:
  82:C:/Users/lenovo/Desktop/liteos/Project2/BearPi_LiteOS/components/net/at_frame\at_api.c **** }
 221              		.loc 1 82 0
 222 0010 4FF0FF30 		mov	r0, #-1
 223              	.LVL25:
 224 0014 FBE7     		b	.L24
 225              	.LVL26:
 226              	.L27:
 227 0016 4FF0FF30 		mov	r0, #-1
 228              	.LVL27:
 229 001a F8E7     		b	.L24
 230              	.L30:
 231              		.align	2
 232              	.L29:
 233 001c 00000000 		.word	.LANCHOR0
 234              		.cfi_endproc
 235              	.LFE6:
 237              		.section	.text.at_api_sendto,"ax",%progbits
 238              		.align	1
 239              		.global	at_api_sendto
 240              		.syntax unified
 241              		.thumb
 242              		.thumb_func
 243              		.fpu fpv4-sp-d16
 245              	at_api_sendto:
 246              	.LFB7:
  84:C:/Users/lenovo/Desktop/liteos/Project2/BearPi_LiteOS/components/net/at_frame\at_api.c **** 
  85:C:/Users/lenovo/Desktop/liteos/Project2/BearPi_LiteOS/components/net/at_frame\at_api.c **** int32_t at_api_sendto(int32_t id , uint8_t  *buf, uint32_t len,char* ipaddr,int port)
  86:C:/Users/lenovo/Desktop/liteos/Project2/BearPi_LiteOS/components/net/at_frame\at_api.c **** {
 247              		.loc 1 86 0
 248              		.cfi_startproc
 249              		@ args = 4, pretend = 0, frame = 0
 250              		@ frame_needed = 0, uses_anonymous_args = 0
 251              	.LVL28:
 252 0000 30B5     		push	{r4, r5, lr}
 253              	.LCFI4:
 254              		.cfi_def_cfa_offset 12
 255              		.cfi_offset 4, -12
ARM GAS  c:\Users\lenovo\AppData\Local\Temp\cc91w6S1.s 			page 7


 256              		.cfi_offset 5, -8
 257              		.cfi_offset 14, -4
 258 0002 83B0     		sub	sp, sp, #12
 259              	.LCFI5:
 260              		.cfi_def_cfa_offset 24
  87:C:/Users/lenovo/Desktop/liteos/Project2/BearPi_LiteOS/components/net/at_frame\at_api.c ****     if (gp_at_adaptor_api && gp_at_adaptor_api->sendto)
 261              		.loc 1 87 0
 262 0004 074C     		ldr	r4, .L36
 263 0006 2468     		ldr	r4, [r4]
 264 0008 34B1     		cbz	r4, .L33
 265              		.loc 1 87 0 is_stmt 0 discriminator 1
 266 000a A469     		ldr	r4, [r4, #24]
 267 000c 3CB1     		cbz	r4, .L34
  88:C:/Users/lenovo/Desktop/liteos/Project2/BearPi_LiteOS/components/net/at_frame\at_api.c ****     {
  89:C:/Users/lenovo/Desktop/liteos/Project2/BearPi_LiteOS/components/net/at_frame\at_api.c ****         return gp_at_adaptor_api->sendto(id, buf, len,ipaddr, port);
 268              		.loc 1 89 0 is_stmt 1
 269 000e 069D     		ldr	r5, [sp, #24]
 270 0010 0095     		str	r5, [sp]
 271 0012 A047     		blx	r4
 272              	.LVL29:
 273              	.L31:
  90:C:/Users/lenovo/Desktop/liteos/Project2/BearPi_LiteOS/components/net/at_frame\at_api.c ****     }
  91:C:/Users/lenovo/Desktop/liteos/Project2/BearPi_LiteOS/components/net/at_frame\at_api.c ****     return -1;
  92:C:/Users/lenovo/Desktop/liteos/Project2/BearPi_LiteOS/components/net/at_frame\at_api.c **** }
 274              		.loc 1 92 0
 275 0014 03B0     		add	sp, sp, #12
 276              	.LCFI6:
 277              		.cfi_remember_state
 278              		.cfi_def_cfa_offset 12
 279              		@ sp needed
 280 0016 30BD     		pop	{r4, r5, pc}
 281              	.LVL30:
 282              	.L33:
 283              	.LCFI7:
 284              		.cfi_restore_state
  91:C:/Users/lenovo/Desktop/liteos/Project2/BearPi_LiteOS/components/net/at_frame\at_api.c **** }
 285              		.loc 1 91 0
 286 0018 4FF0FF30 		mov	r0, #-1
 287              	.LVL31:
 288 001c FAE7     		b	.L31
 289              	.LVL32:
 290              	.L34:
 291 001e 4FF0FF30 		mov	r0, #-1
 292              	.LVL33:
 293 0022 F7E7     		b	.L31
 294              	.L37:
 295              		.align	2
 296              	.L36:
 297 0024 00000000 		.word	.LANCHOR0
 298              		.cfi_endproc
 299              	.LFE7:
 301              		.section	.text.at_api_recv,"ax",%progbits
 302              		.align	1
 303              		.global	at_api_recv
 304              		.syntax unified
 305              		.thumb
 306              		.thumb_func
ARM GAS  c:\Users\lenovo\AppData\Local\Temp\cc91w6S1.s 			page 8


 307              		.fpu fpv4-sp-d16
 309              	at_api_recv:
 310              	.LFB8:
  93:C:/Users/lenovo/Desktop/liteos/Project2/BearPi_LiteOS/components/net/at_frame\at_api.c **** 
  94:C:/Users/lenovo/Desktop/liteos/Project2/BearPi_LiteOS/components/net/at_frame\at_api.c **** int32_t at_api_recv(int32_t id, unsigned char *buf, size_t len)
  95:C:/Users/lenovo/Desktop/liteos/Project2/BearPi_LiteOS/components/net/at_frame\at_api.c **** {
 311              		.loc 1 95 0
 312              		.cfi_startproc
 313              		@ args = 0, pretend = 0, frame = 0
 314              		@ frame_needed = 0, uses_anonymous_args = 0
 315              	.LVL34:
 316 0000 08B5     		push	{r3, lr}
 317              	.LCFI8:
 318              		.cfi_def_cfa_offset 8
 319              		.cfi_offset 3, -8
 320              		.cfi_offset 14, -4
  96:C:/Users/lenovo/Desktop/liteos/Project2/BearPi_LiteOS/components/net/at_frame\at_api.c ****     if (gp_at_adaptor_api && gp_at_adaptor_api->recv)
 321              		.loc 1 96 0
 322 0002 064B     		ldr	r3, .L43
 323 0004 1B68     		ldr	r3, [r3]
 324 0006 1BB1     		cbz	r3, .L40
 325              		.loc 1 96 0 is_stmt 0 discriminator 1
 326 0008 1B6A     		ldr	r3, [r3, #32]
 327 000a 23B1     		cbz	r3, .L41
  97:C:/Users/lenovo/Desktop/liteos/Project2/BearPi_LiteOS/components/net/at_frame\at_api.c ****     {
  98:C:/Users/lenovo/Desktop/liteos/Project2/BearPi_LiteOS/components/net/at_frame\at_api.c ****         return gp_at_adaptor_api->recv(id, buf, len);
 328              		.loc 1 98 0 is_stmt 1
 329 000c 9847     		blx	r3
 330              	.LVL35:
 331              	.L38:
  99:C:/Users/lenovo/Desktop/liteos/Project2/BearPi_LiteOS/components/net/at_frame\at_api.c ****     }
 100:C:/Users/lenovo/Desktop/liteos/Project2/BearPi_LiteOS/components/net/at_frame\at_api.c ****     return -1;
 101:C:/Users/lenovo/Desktop/liteos/Project2/BearPi_LiteOS/components/net/at_frame\at_api.c **** }
 332              		.loc 1 101 0
 333 000e 08BD     		pop	{r3, pc}
 334              	.LVL36:
 335              	.L40:
 100:C:/Users/lenovo/Desktop/liteos/Project2/BearPi_LiteOS/components/net/at_frame\at_api.c **** }
 336              		.loc 1 100 0
 337 0010 4FF0FF30 		mov	r0, #-1
 338              	.LVL37:
 339 0014 FBE7     		b	.L38
 340              	.LVL38:
 341              	.L41:
 342 0016 4FF0FF30 		mov	r0, #-1
 343              	.LVL39:
 344 001a F8E7     		b	.L38
 345              	.L44:
 346              		.align	2
 347              	.L43:
 348 001c 00000000 		.word	.LANCHOR0
 349              		.cfi_endproc
 350              	.LFE8:
 352              		.section	.text.at_api_recv_timeout,"ax",%progbits
 353              		.align	1
 354              		.global	at_api_recv_timeout
 355              		.syntax unified
ARM GAS  c:\Users\lenovo\AppData\Local\Temp\cc91w6S1.s 			page 9


 356              		.thumb
 357              		.thumb_func
 358              		.fpu fpv4-sp-d16
 360              	at_api_recv_timeout:
 361              	.LFB9:
 102:C:/Users/lenovo/Desktop/liteos/Project2/BearPi_LiteOS/components/net/at_frame\at_api.c **** 
 103:C:/Users/lenovo/Desktop/liteos/Project2/BearPi_LiteOS/components/net/at_frame\at_api.c **** int32_t at_api_recv_timeout(int32_t id , uint8_t  *buf, uint32_t len,char* ipaddr,int* port, int32_
 104:C:/Users/lenovo/Desktop/liteos/Project2/BearPi_LiteOS/components/net/at_frame\at_api.c **** {
 362              		.loc 1 104 0
 363              		.cfi_startproc
 364              		@ args = 8, pretend = 0, frame = 0
 365              		@ frame_needed = 0, uses_anonymous_args = 0
 366              	.LVL40:
 367 0000 30B5     		push	{r4, r5, lr}
 368              	.LCFI9:
 369              		.cfi_def_cfa_offset 12
 370              		.cfi_offset 4, -12
 371              		.cfi_offset 5, -8
 372              		.cfi_offset 14, -4
 373 0002 83B0     		sub	sp, sp, #12
 374              	.LCFI10:
 375              		.cfi_def_cfa_offset 24
 105:C:/Users/lenovo/Desktop/liteos/Project2/BearPi_LiteOS/components/net/at_frame\at_api.c ****     if (gp_at_adaptor_api && gp_at_adaptor_api->recv_timeout)
 376              		.loc 1 105 0
 377 0004 084C     		ldr	r4, .L50
 378 0006 2468     		ldr	r4, [r4]
 379 0008 44B1     		cbz	r4, .L47
 380              		.loc 1 105 0 is_stmt 0 discriminator 1
 381 000a E469     		ldr	r4, [r4, #28]
 382 000c 4CB1     		cbz	r4, .L48
 106:C:/Users/lenovo/Desktop/liteos/Project2/BearPi_LiteOS/components/net/at_frame\at_api.c ****     {
 107:C:/Users/lenovo/Desktop/liteos/Project2/BearPi_LiteOS/components/net/at_frame\at_api.c ****         return gp_at_adaptor_api->recv_timeout(id , buf, len, ipaddr, port, timeout);
 383              		.loc 1 107 0 is_stmt 1
 384 000e 079D     		ldr	r5, [sp, #28]
 385 0010 0195     		str	r5, [sp, #4]
 386 0012 069D     		ldr	r5, [sp, #24]
 387 0014 0095     		str	r5, [sp]
 388 0016 A047     		blx	r4
 389              	.LVL41:
 390              	.L45:
 108:C:/Users/lenovo/Desktop/liteos/Project2/BearPi_LiteOS/components/net/at_frame\at_api.c ****     }
 109:C:/Users/lenovo/Desktop/liteos/Project2/BearPi_LiteOS/components/net/at_frame\at_api.c ****     return -1;
 110:C:/Users/lenovo/Desktop/liteos/Project2/BearPi_LiteOS/components/net/at_frame\at_api.c **** }
 391              		.loc 1 110 0
 392 0018 03B0     		add	sp, sp, #12
 393              	.LCFI11:
 394              		.cfi_remember_state
 395              		.cfi_def_cfa_offset 12
 396              		@ sp needed
 397 001a 30BD     		pop	{r4, r5, pc}
 398              	.LVL42:
 399              	.L47:
 400              	.LCFI12:
 401              		.cfi_restore_state
 109:C:/Users/lenovo/Desktop/liteos/Project2/BearPi_LiteOS/components/net/at_frame\at_api.c **** }
 402              		.loc 1 109 0
 403 001c 4FF0FF30 		mov	r0, #-1
ARM GAS  c:\Users\lenovo\AppData\Local\Temp\cc91w6S1.s 			page 10


 404              	.LVL43:
 405 0020 FAE7     		b	.L45
 406              	.LVL44:
 407              	.L48:
 408 0022 4FF0FF30 		mov	r0, #-1
 409              	.LVL45:
 410 0026 F7E7     		b	.L45
 411              	.L51:
 412              		.align	2
 413              	.L50:
 414 0028 00000000 		.word	.LANCHOR0
 415              		.cfi_endproc
 416              	.LFE9:
 418              		.section	.text.at_api_close,"ax",%progbits
 419              		.align	1
 420              		.global	at_api_close
 421              		.syntax unified
 422              		.thumb
 423              		.thumb_func
 424              		.fpu fpv4-sp-d16
 426              	at_api_close:
 427              	.LFB10:
 111:C:/Users/lenovo/Desktop/liteos/Project2/BearPi_LiteOS/components/net/at_frame\at_api.c **** 
 112:C:/Users/lenovo/Desktop/liteos/Project2/BearPi_LiteOS/components/net/at_frame\at_api.c **** int32_t at_api_close(int32_t fd)
 113:C:/Users/lenovo/Desktop/liteos/Project2/BearPi_LiteOS/components/net/at_frame\at_api.c **** {
 428              		.loc 1 113 0
 429              		.cfi_startproc
 430              		@ args = 0, pretend = 0, frame = 0
 431              		@ frame_needed = 0, uses_anonymous_args = 0
 432              	.LVL46:
 433 0000 08B5     		push	{r3, lr}
 434              	.LCFI13:
 435              		.cfi_def_cfa_offset 8
 436              		.cfi_offset 3, -8
 437              		.cfi_offset 14, -4
 114:C:/Users/lenovo/Desktop/liteos/Project2/BearPi_LiteOS/components/net/at_frame\at_api.c ****     if (gp_at_adaptor_api && gp_at_adaptor_api->close)
 438              		.loc 1 114 0
 439 0002 064B     		ldr	r3, .L57
 440 0004 1B68     		ldr	r3, [r3]
 441 0006 1BB1     		cbz	r3, .L54
 442              		.loc 1 114 0 is_stmt 0 discriminator 1
 443 0008 9B6A     		ldr	r3, [r3, #40]
 444 000a 23B1     		cbz	r3, .L55
 115:C:/Users/lenovo/Desktop/liteos/Project2/BearPi_LiteOS/components/net/at_frame\at_api.c ****     {
 116:C:/Users/lenovo/Desktop/liteos/Project2/BearPi_LiteOS/components/net/at_frame\at_api.c ****         return gp_at_adaptor_api->close(fd);
 445              		.loc 1 116 0 is_stmt 1
 446 000c 9847     		blx	r3
 447              	.LVL47:
 448              	.L52:
 117:C:/Users/lenovo/Desktop/liteos/Project2/BearPi_LiteOS/components/net/at_frame\at_api.c ****     }
 118:C:/Users/lenovo/Desktop/liteos/Project2/BearPi_LiteOS/components/net/at_frame\at_api.c ****     return -1;
 119:C:/Users/lenovo/Desktop/liteos/Project2/BearPi_LiteOS/components/net/at_frame\at_api.c **** }
 449              		.loc 1 119 0
 450 000e 08BD     		pop	{r3, pc}
 451              	.LVL48:
 452              	.L54:
 118:C:/Users/lenovo/Desktop/liteos/Project2/BearPi_LiteOS/components/net/at_frame\at_api.c **** }
ARM GAS  c:\Users\lenovo\AppData\Local\Temp\cc91w6S1.s 			page 11


 453              		.loc 1 118 0
 454 0010 4FF0FF30 		mov	r0, #-1
 455              	.LVL49:
 456 0014 FBE7     		b	.L52
 457              	.LVL50:
 458              	.L55:
 459 0016 4FF0FF30 		mov	r0, #-1
 460              	.LVL51:
 461 001a F8E7     		b	.L52
 462              	.L58:
 463              		.align	2
 464              	.L57:
 465 001c 00000000 		.word	.LANCHOR0
 466              		.cfi_endproc
 467              	.LFE10:
 469              		.section	.bss.gp_at_adaptor_api,"aw",%nobits
 470              		.align	2
 471              		.set	.LANCHOR0,. + 0
 474              	gp_at_adaptor_api:
 475 0000 00000000 		.space	4
 476              		.text
 477              	.Letext0:
 478              		.file 2 "c:\\program files (x86)\\liteos studio\\resources\\arm-none-eabi\\arm-none-eabi\\include\
 479              		.file 3 "c:\\program files (x86)\\liteos studio\\resources\\arm-none-eabi\\arm-none-eabi\\include\
 480              		.file 4 "c:\\program files (x86)\\liteos studio\\resources\\arm-none-eabi\\lib\\gcc\\arm-none-eabi
 481              		.file 5 "c:\\program files (x86)\\liteos studio\\resources\\arm-none-eabi\\arm-none-eabi\\include\
 482              		.file 6 "c:\\program files (x86)\\liteos studio\\resources\\arm-none-eabi\\arm-none-eabi\\include\
 483              		.file 7 "c:\\program files (x86)\\liteos studio\\resources\\arm-none-eabi\\arm-none-eabi\\include\
 484              		.file 8 "C:/Users/lenovo/Desktop/liteos/Project2/BearPi_LiteOS/include/at_frame/at_api.h"
ARM GAS  c:\Users\lenovo\AppData\Local\Temp\cc91w6S1.s 			page 12

