ARM GAS  c:\Users\lenovo\AppData\Local\Temp\ccFFGHFi.s 			page 1


   1              		.cpu cortex-m4
   2              		.eabi_attribute 27, 1
   3              		.eabi_attribute 28, 1
   4              		.eabi_attribute 20, 1
   5              		.eabi_attribute 21, 1
   6              		.eabi_attribute 23, 3
   7              		.eabi_attribute 24, 1
   8              		.eabi_attribute 25, 1
   9              		.eabi_attribute 26, 1
  10              		.eabi_attribute 30, 1
  11              		.eabi_attribute 34, 1
  12              		.eabi_attribute 18, 4
  13              		.file	"atiny_fota_manager.c"
  14              		.text
  15              	.Ltext0:
  16              		.cfi_sections	.debug_frame
  17              		.section	.text.atiny_fota_manager_rcv_notify_ack,"ax",%progbits
  18              		.align	1
  19              		.syntax unified
  20              		.thumb
  21              		.thumb_func
  22              		.fpu fpv4-sp-d16
  24              	atiny_fota_manager_rcv_notify_ack:
  25              	.LFB164:
  26              		.file 1 "C:/Users/lenovo/Desktop/liteos/Project2/BearPi_LiteOS/components/connectivity/agent_tiny/
   1:C:/Users/lenovo/Desktop/liteos/Project2/BearPi_LiteOS/components/connectivity/agent_tiny/atiny_lwm2m\atiny_fota_manager.c **** /*----------------------------------------------------------------------------
   2:C:/Users/lenovo/Desktop/liteos/Project2/BearPi_LiteOS/components/connectivity/agent_tiny/atiny_lwm2m\atiny_fota_manager.c ****  * Copyright (c) <2016-2018>, <Huawei Technologies Co., Ltd>
   3:C:/Users/lenovo/Desktop/liteos/Project2/BearPi_LiteOS/components/connectivity/agent_tiny/atiny_lwm2m\atiny_fota_manager.c ****  * All rights reserved.
   4:C:/Users/lenovo/Desktop/liteos/Project2/BearPi_LiteOS/components/connectivity/agent_tiny/atiny_lwm2m\atiny_fota_manager.c ****  * Redistribution and use in source and binary forms, with or without modification,
   5:C:/Users/lenovo/Desktop/liteos/Project2/BearPi_LiteOS/components/connectivity/agent_tiny/atiny_lwm2m\atiny_fota_manager.c ****  * are permitted provided that the following conditions are met:
   6:C:/Users/lenovo/Desktop/liteos/Project2/BearPi_LiteOS/components/connectivity/agent_tiny/atiny_lwm2m\atiny_fota_manager.c ****  * 1. Redistributions of source code must retain the above copyright notice, this list of
   7:C:/Users/lenovo/Desktop/liteos/Project2/BearPi_LiteOS/components/connectivity/agent_tiny/atiny_lwm2m\atiny_fota_manager.c ****  * conditions and the following disclaimer.
   8:C:/Users/lenovo/Desktop/liteos/Project2/BearPi_LiteOS/components/connectivity/agent_tiny/atiny_lwm2m\atiny_fota_manager.c ****  * 2. Redistributions in binary form must reproduce the above copyright notice, this list
   9:C:/Users/lenovo/Desktop/liteos/Project2/BearPi_LiteOS/components/connectivity/agent_tiny/atiny_lwm2m\atiny_fota_manager.c ****  * of conditions and the following disclaimer in the documentation and/or other materials
  10:C:/Users/lenovo/Desktop/liteos/Project2/BearPi_LiteOS/components/connectivity/agent_tiny/atiny_lwm2m\atiny_fota_manager.c ****  * provided with the distribution.
  11:C:/Users/lenovo/Desktop/liteos/Project2/BearPi_LiteOS/components/connectivity/agent_tiny/atiny_lwm2m\atiny_fota_manager.c ****  * 3. Neither the name of the copyright holder nor the names of its contributors may be used
  12:C:/Users/lenovo/Desktop/liteos/Project2/BearPi_LiteOS/components/connectivity/agent_tiny/atiny_lwm2m\atiny_fota_manager.c ****  * to endorse or promote products derived from this software without specific prior written
  13:C:/Users/lenovo/Desktop/liteos/Project2/BearPi_LiteOS/components/connectivity/agent_tiny/atiny_lwm2m\atiny_fota_manager.c ****  * permission.
  14:C:/Users/lenovo/Desktop/liteos/Project2/BearPi_LiteOS/components/connectivity/agent_tiny/atiny_lwm2m\atiny_fota_manager.c ****  * THIS SOFTWARE IS PROVIDED BY THE COPYRIGHT HOLDERS AND CONTRIBUTORS
  15:C:/Users/lenovo/Desktop/liteos/Project2/BearPi_LiteOS/components/connectivity/agent_tiny/atiny_lwm2m\atiny_fota_manager.c ****  * "AS IS" AND ANY EXPRESS OR IMPLIED WARRANTIES, INCLUDING, BUT NOT LIMITED TO,
  16:C:/Users/lenovo/Desktop/liteos/Project2/BearPi_LiteOS/components/connectivity/agent_tiny/atiny_lwm2m\atiny_fota_manager.c ****  * THE IMPLIED WARRANTIES OF MERCHANTABILITY AND FITNESS FOR A PARTICULAR
  17:C:/Users/lenovo/Desktop/liteos/Project2/BearPi_LiteOS/components/connectivity/agent_tiny/atiny_lwm2m\atiny_fota_manager.c ****  * PURPOSE ARE DISCLAIMED. IN NO EVENT SHALL THE COPYRIGHT HOLDER OR
  18:C:/Users/lenovo/Desktop/liteos/Project2/BearPi_LiteOS/components/connectivity/agent_tiny/atiny_lwm2m\atiny_fota_manager.c ****  * CONTRIBUTORS BE LIABLE FOR ANY DIRECT, INDIRECT, INCIDENTAL, SPECIAL,
  19:C:/Users/lenovo/Desktop/liteos/Project2/BearPi_LiteOS/components/connectivity/agent_tiny/atiny_lwm2m\atiny_fota_manager.c ****  * EXEMPLARY, OR CONSEQUENTIAL DAMAGES (INCLUDING, BUT NOT LIMITED TO,
  20:C:/Users/lenovo/Desktop/liteos/Project2/BearPi_LiteOS/components/connectivity/agent_tiny/atiny_lwm2m\atiny_fota_manager.c ****  * PROCUREMENT OF SUBSTITUTE GOODS OR SERVICES; LOSS OF USE, DATA, OR PROFITS;
  21:C:/Users/lenovo/Desktop/liteos/Project2/BearPi_LiteOS/components/connectivity/agent_tiny/atiny_lwm2m\atiny_fota_manager.c ****  * OR BUSINESS INTERRUPTION) HOWEVER CAUSED AND ON ANY THEORY OF LIABILITY,
  22:C:/Users/lenovo/Desktop/liteos/Project2/BearPi_LiteOS/components/connectivity/agent_tiny/atiny_lwm2m\atiny_fota_manager.c ****  * WHETHER IN CONTRACT, STRICT LIABILITY, OR TORT (INCLUDING NEGLIGENCE OR
  23:C:/Users/lenovo/Desktop/liteos/Project2/BearPi_LiteOS/components/connectivity/agent_tiny/atiny_lwm2m\atiny_fota_manager.c ****  * OTHERWISE) ARISING IN ANY WAY OUT OF THE USE OF THIS SOFTWARE, EVEN IF
  24:C:/Users/lenovo/Desktop/liteos/Project2/BearPi_LiteOS/components/connectivity/agent_tiny/atiny_lwm2m\atiny_fota_manager.c ****  * ADVISED OF THE POSSIBILITY OF SUCH DAMAGE.
  25:C:/Users/lenovo/Desktop/liteos/Project2/BearPi_LiteOS/components/connectivity/agent_tiny/atiny_lwm2m\atiny_fota_manager.c ****  *---------------------------------------------------------------------------*/
  26:C:/Users/lenovo/Desktop/liteos/Project2/BearPi_LiteOS/components/connectivity/agent_tiny/atiny_lwm2m\atiny_fota_manager.c **** /*----------------------------------------------------------------------------
  27:C:/Users/lenovo/Desktop/liteos/Project2/BearPi_LiteOS/components/connectivity/agent_tiny/atiny_lwm2m\atiny_fota_manager.c ****  * Notice of Export Control Law
  28:C:/Users/lenovo/Desktop/liteos/Project2/BearPi_LiteOS/components/connectivity/agent_tiny/atiny_lwm2m\atiny_fota_manager.c ****  * ===============================================
  29:C:/Users/lenovo/Desktop/liteos/Project2/BearPi_LiteOS/components/connectivity/agent_tiny/atiny_lwm2m\atiny_fota_manager.c ****  * Huawei LiteOS may be subject to applicable export control laws and regulations, which might
  30:C:/Users/lenovo/Desktop/liteos/Project2/BearPi_LiteOS/components/connectivity/agent_tiny/atiny_lwm2m\atiny_fota_manager.c ****  * include those applicable to Huawei LiteOS of U.S. and the country in which you are located.
  31:C:/Users/lenovo/Desktop/liteos/Project2/BearPi_LiteOS/components/connectivity/agent_tiny/atiny_lwm2m\atiny_fota_manager.c ****  * Import, export and usage of Huawei LiteOS in any manner by you shall be in compliance with such
  32:C:/Users/lenovo/Desktop/liteos/Project2/BearPi_LiteOS/components/connectivity/agent_tiny/atiny_lwm2m\atiny_fota_manager.c ****  * applicable export control laws and regulations.
ARM GAS  c:\Users\lenovo\AppData\Local\Temp\ccFFGHFi.s 			page 2


  33:C:/Users/lenovo/Desktop/liteos/Project2/BearPi_LiteOS/components/connectivity/agent_tiny/atiny_lwm2m\atiny_fota_manager.c ****  *---------------------------------------------------------------------------*/
  34:C:/Users/lenovo/Desktop/liteos/Project2/BearPi_LiteOS/components/connectivity/agent_tiny/atiny_lwm2m\atiny_fota_manager.c **** 
  35:C:/Users/lenovo/Desktop/liteos/Project2/BearPi_LiteOS/components/connectivity/agent_tiny/atiny_lwm2m\atiny_fota_manager.c **** #include "atiny_fota_manager.h"
  36:C:/Users/lenovo/Desktop/liteos/Project2/BearPi_LiteOS/components/connectivity/agent_tiny/atiny_lwm2m\atiny_fota_manager.c **** #include "atiny_fota_state.h"
  37:C:/Users/lenovo/Desktop/liteos/Project2/BearPi_LiteOS/components/connectivity/agent_tiny/atiny_lwm2m\atiny_fota_manager.c **** #include <string.h>
  38:C:/Users/lenovo/Desktop/liteos/Project2/BearPi_LiteOS/components/connectivity/agent_tiny/atiny_lwm2m\atiny_fota_manager.c **** #include "firmware_update.h"
  39:C:/Users/lenovo/Desktop/liteos/Project2/BearPi_LiteOS/components/connectivity/agent_tiny/atiny_lwm2m\atiny_fota_manager.c **** #include "ota/package.h"
  40:C:/Users/lenovo/Desktop/liteos/Project2/BearPi_LiteOS/components/connectivity/agent_tiny/atiny_lwm2m\atiny_fota_manager.c **** 
  41:C:/Users/lenovo/Desktop/liteos/Project2/BearPi_LiteOS/components/connectivity/agent_tiny/atiny_lwm2m\atiny_fota_manager.c **** struct atiny_fota_manager_tag_s
  42:C:/Users/lenovo/Desktop/liteos/Project2/BearPi_LiteOS/components/connectivity/agent_tiny/atiny_lwm2m\atiny_fota_manager.c **** {
  43:C:/Users/lenovo/Desktop/liteos/Project2/BearPi_LiteOS/components/connectivity/agent_tiny/atiny_lwm2m\atiny_fota_manager.c ****     char *pkg_uri;
  44:C:/Users/lenovo/Desktop/liteos/Project2/BearPi_LiteOS/components/connectivity/agent_tiny/atiny_lwm2m\atiny_fota_manager.c ****     atiny_fota_state_e state;
  45:C:/Users/lenovo/Desktop/liteos/Project2/BearPi_LiteOS/components/connectivity/agent_tiny/atiny_lwm2m\atiny_fota_manager.c ****     atiny_update_result_e update_result;
  46:C:/Users/lenovo/Desktop/liteos/Project2/BearPi_LiteOS/components/connectivity/agent_tiny/atiny_lwm2m\atiny_fota_manager.c ****     atiny_fota_idle_state_s idle_state;
  47:C:/Users/lenovo/Desktop/liteos/Project2/BearPi_LiteOS/components/connectivity/agent_tiny/atiny_lwm2m\atiny_fota_manager.c ****     atiny_fota_downloading_state_s downloading_state;
  48:C:/Users/lenovo/Desktop/liteos/Project2/BearPi_LiteOS/components/connectivity/agent_tiny/atiny_lwm2m\atiny_fota_manager.c ****     atiny_fota_downloaded_state_s downloaded_state;
  49:C:/Users/lenovo/Desktop/liteos/Project2/BearPi_LiteOS/components/connectivity/agent_tiny/atiny_lwm2m\atiny_fota_manager.c ****     atiny_fota_updating_state_s updating_state;
  50:C:/Users/lenovo/Desktop/liteos/Project2/BearPi_LiteOS/components/connectivity/agent_tiny/atiny_lwm2m\atiny_fota_manager.c ****     atiny_fota_state_s *current;
  51:C:/Users/lenovo/Desktop/liteos/Project2/BearPi_LiteOS/components/connectivity/agent_tiny/atiny_lwm2m\atiny_fota_manager.c ****     pack_storage_device_api_s *device;
  52:C:/Users/lenovo/Desktop/liteos/Project2/BearPi_LiteOS/components/connectivity/agent_tiny/atiny_lwm2m\atiny_fota_manager.c ****     lwm2m_context_t  *lwm2m_context;
  53:C:/Users/lenovo/Desktop/liteos/Project2/BearPi_LiteOS/components/connectivity/agent_tiny/atiny_lwm2m\atiny_fota_manager.c ****     uint32_t cookie;
  54:C:/Users/lenovo/Desktop/liteos/Project2/BearPi_LiteOS/components/connectivity/agent_tiny/atiny_lwm2m\atiny_fota_manager.c ****     bool wait_ack_flag;
  55:C:/Users/lenovo/Desktop/liteos/Project2/BearPi_LiteOS/components/connectivity/agent_tiny/atiny_lwm2m\atiny_fota_manager.c ****     atiny_fota_state_e rpt_state;
  56:C:/Users/lenovo/Desktop/liteos/Project2/BearPi_LiteOS/components/connectivity/agent_tiny/atiny_lwm2m\atiny_fota_manager.c ****     ota_opt_s ota_opt;
  57:C:/Users/lenovo/Desktop/liteos/Project2/BearPi_LiteOS/components/connectivity/agent_tiny/atiny_lwm2m\atiny_fota_manager.c ****     bool init_flag;
  58:C:/Users/lenovo/Desktop/liteos/Project2/BearPi_LiteOS/components/connectivity/agent_tiny/atiny_lwm2m\atiny_fota_manager.c **** };
  59:C:/Users/lenovo/Desktop/liteos/Project2/BearPi_LiteOS/components/connectivity/agent_tiny/atiny_lwm2m\atiny_fota_manager.c **** 
  60:C:/Users/lenovo/Desktop/liteos/Project2/BearPi_LiteOS/components/connectivity/agent_tiny/atiny_lwm2m\atiny_fota_manager.c **** #define PULL_ONLY 0
  61:C:/Users/lenovo/Desktop/liteos/Project2/BearPi_LiteOS/components/connectivity/agent_tiny/atiny_lwm2m\atiny_fota_manager.c **** 
  62:C:/Users/lenovo/Desktop/liteos/Project2/BearPi_LiteOS/components/connectivity/agent_tiny/atiny_lwm2m\atiny_fota_manager.c **** static uint32_t g_firmware_cookie = 0;
  63:C:/Users/lenovo/Desktop/liteos/Project2/BearPi_LiteOS/components/connectivity/agent_tiny/atiny_lwm2m\atiny_fota_manager.c **** 
  64:C:/Users/lenovo/Desktop/liteos/Project2/BearPi_LiteOS/components/connectivity/agent_tiny/atiny_lwm2m\atiny_fota_manager.c **** 
  65:C:/Users/lenovo/Desktop/liteos/Project2/BearPi_LiteOS/components/connectivity/agent_tiny/atiny_lwm2m\atiny_fota_manager.c **** char *atiny_fota_manager_get_pkg_uri(const atiny_fota_manager_s *thi)
  66:C:/Users/lenovo/Desktop/liteos/Project2/BearPi_LiteOS/components/connectivity/agent_tiny/atiny_lwm2m\atiny_fota_manager.c **** {
  67:C:/Users/lenovo/Desktop/liteos/Project2/BearPi_LiteOS/components/connectivity/agent_tiny/atiny_lwm2m\atiny_fota_manager.c ****     ASSERT_THIS(return NULL);
  68:C:/Users/lenovo/Desktop/liteos/Project2/BearPi_LiteOS/components/connectivity/agent_tiny/atiny_lwm2m\atiny_fota_manager.c ****     return thi->pkg_uri;
  69:C:/Users/lenovo/Desktop/liteos/Project2/BearPi_LiteOS/components/connectivity/agent_tiny/atiny_lwm2m\atiny_fota_manager.c **** }
  70:C:/Users/lenovo/Desktop/liteos/Project2/BearPi_LiteOS/components/connectivity/agent_tiny/atiny_lwm2m\atiny_fota_manager.c **** int atiny_fota_manager_get_state(const atiny_fota_manager_s *thi)
  71:C:/Users/lenovo/Desktop/liteos/Project2/BearPi_LiteOS/components/connectivity/agent_tiny/atiny_lwm2m\atiny_fota_manager.c **** {
  72:C:/Users/lenovo/Desktop/liteos/Project2/BearPi_LiteOS/components/connectivity/agent_tiny/atiny_lwm2m\atiny_fota_manager.c ****     ASSERT_THIS(return ATINY_FOTA_IDLE);
  73:C:/Users/lenovo/Desktop/liteos/Project2/BearPi_LiteOS/components/connectivity/agent_tiny/atiny_lwm2m\atiny_fota_manager.c ****     return thi->state;
  74:C:/Users/lenovo/Desktop/liteos/Project2/BearPi_LiteOS/components/connectivity/agent_tiny/atiny_lwm2m\atiny_fota_manager.c **** }
  75:C:/Users/lenovo/Desktop/liteos/Project2/BearPi_LiteOS/components/connectivity/agent_tiny/atiny_lwm2m\atiny_fota_manager.c **** 
  76:C:/Users/lenovo/Desktop/liteos/Project2/BearPi_LiteOS/components/connectivity/agent_tiny/atiny_lwm2m\atiny_fota_manager.c **** int atiny_fota_manager_get_rpt_state(const atiny_fota_manager_s *thi)
  77:C:/Users/lenovo/Desktop/liteos/Project2/BearPi_LiteOS/components/connectivity/agent_tiny/atiny_lwm2m\atiny_fota_manager.c **** {
  78:C:/Users/lenovo/Desktop/liteos/Project2/BearPi_LiteOS/components/connectivity/agent_tiny/atiny_lwm2m\atiny_fota_manager.c ****     ASSERT_THIS(return ATINY_FOTA_IDLE);
  79:C:/Users/lenovo/Desktop/liteos/Project2/BearPi_LiteOS/components/connectivity/agent_tiny/atiny_lwm2m\atiny_fota_manager.c ****     return thi->rpt_state;
  80:C:/Users/lenovo/Desktop/liteos/Project2/BearPi_LiteOS/components/connectivity/agent_tiny/atiny_lwm2m\atiny_fota_manager.c **** }
  81:C:/Users/lenovo/Desktop/liteos/Project2/BearPi_LiteOS/components/connectivity/agent_tiny/atiny_lwm2m\atiny_fota_manager.c **** 
  82:C:/Users/lenovo/Desktop/liteos/Project2/BearPi_LiteOS/components/connectivity/agent_tiny/atiny_lwm2m\atiny_fota_manager.c **** int atiny_fota_manager_get_update_result(const atiny_fota_manager_s *thi)
  83:C:/Users/lenovo/Desktop/liteos/Project2/BearPi_LiteOS/components/connectivity/agent_tiny/atiny_lwm2m\atiny_fota_manager.c **** {
  84:C:/Users/lenovo/Desktop/liteos/Project2/BearPi_LiteOS/components/connectivity/agent_tiny/atiny_lwm2m\atiny_fota_manager.c ****     ASSERT_THIS(return ATINY_FIRMWARE_UPDATE_NULL);
  85:C:/Users/lenovo/Desktop/liteos/Project2/BearPi_LiteOS/components/connectivity/agent_tiny/atiny_lwm2m\atiny_fota_manager.c ****     return thi->update_result;
  86:C:/Users/lenovo/Desktop/liteos/Project2/BearPi_LiteOS/components/connectivity/agent_tiny/atiny_lwm2m\atiny_fota_manager.c **** }
  87:C:/Users/lenovo/Desktop/liteos/Project2/BearPi_LiteOS/components/connectivity/agent_tiny/atiny_lwm2m\atiny_fota_manager.c **** void atiny_fota_manager_set_update_result(atiny_fota_manager_s *thi, atiny_update_result_e result)
  88:C:/Users/lenovo/Desktop/liteos/Project2/BearPi_LiteOS/components/connectivity/agent_tiny/atiny_lwm2m\atiny_fota_manager.c **** {
  89:C:/Users/lenovo/Desktop/liteos/Project2/BearPi_LiteOS/components/connectivity/agent_tiny/atiny_lwm2m\atiny_fota_manager.c ****     ASSERT_THIS(return);
ARM GAS  c:\Users\lenovo\AppData\Local\Temp\ccFFGHFi.s 			page 3


  90:C:/Users/lenovo/Desktop/liteos/Project2/BearPi_LiteOS/components/connectivity/agent_tiny/atiny_lwm2m\atiny_fota_manager.c ****     thi->update_result = result;
  91:C:/Users/lenovo/Desktop/liteos/Project2/BearPi_LiteOS/components/connectivity/agent_tiny/atiny_lwm2m\atiny_fota_manager.c **** }
  92:C:/Users/lenovo/Desktop/liteos/Project2/BearPi_LiteOS/components/connectivity/agent_tiny/atiny_lwm2m\atiny_fota_manager.c **** 
  93:C:/Users/lenovo/Desktop/liteos/Project2/BearPi_LiteOS/components/connectivity/agent_tiny/atiny_lwm2m\atiny_fota_manager.c **** int atiny_fota_manager_get_deliver_method(const atiny_fota_manager_s *thi)
  94:C:/Users/lenovo/Desktop/liteos/Project2/BearPi_LiteOS/components/connectivity/agent_tiny/atiny_lwm2m\atiny_fota_manager.c **** {
  95:C:/Users/lenovo/Desktop/liteos/Project2/BearPi_LiteOS/components/connectivity/agent_tiny/atiny_lwm2m\atiny_fota_manager.c ****     return
  96:C:/Users/lenovo/Desktop/liteos/Project2/BearPi_LiteOS/components/connectivity/agent_tiny/atiny_lwm2m\atiny_fota_manager.c ****         PULL_ONLY;
  97:C:/Users/lenovo/Desktop/liteos/Project2/BearPi_LiteOS/components/connectivity/agent_tiny/atiny_lwm2m\atiny_fota_manager.c **** }
  98:C:/Users/lenovo/Desktop/liteos/Project2/BearPi_LiteOS/components/connectivity/agent_tiny/atiny_lwm2m\atiny_fota_manager.c **** int atiny_fota_manager_start_download(atiny_fota_manager_s *thi, const char *uri, uint32_t len)
  99:C:/Users/lenovo/Desktop/liteos/Project2/BearPi_LiteOS/components/connectivity/agent_tiny/atiny_lwm2m\atiny_fota_manager.c **** {
 100:C:/Users/lenovo/Desktop/liteos/Project2/BearPi_LiteOS/components/connectivity/agent_tiny/atiny_lwm2m\atiny_fota_manager.c **** 
 101:C:/Users/lenovo/Desktop/liteos/Project2/BearPi_LiteOS/components/connectivity/agent_tiny/atiny_lwm2m\atiny_fota_manager.c ****     ASSERT_THIS(return ATINY_ARG_INVALID);
 102:C:/Users/lenovo/Desktop/liteos/Project2/BearPi_LiteOS/components/connectivity/agent_tiny/atiny_lwm2m\atiny_fota_manager.c ****     if(thi->state != thi->rpt_state)
 103:C:/Users/lenovo/Desktop/liteos/Project2/BearPi_LiteOS/components/connectivity/agent_tiny/atiny_lwm2m\atiny_fota_manager.c ****     {
 104:C:/Users/lenovo/Desktop/liteos/Project2/BearPi_LiteOS/components/connectivity/agent_tiny/atiny_lwm2m\atiny_fota_manager.c ****         ATINY_LOG(LOG_ERR, "start download busy state %u rpt state %u",
 105:C:/Users/lenovo/Desktop/liteos/Project2/BearPi_LiteOS/components/connectivity/agent_tiny/atiny_lwm2m\atiny_fota_manager.c ****                   thi->state, thi->rpt_state);
 106:C:/Users/lenovo/Desktop/liteos/Project2/BearPi_LiteOS/components/connectivity/agent_tiny/atiny_lwm2m\atiny_fota_manager.c ****         return ATINY_ERR;
 107:C:/Users/lenovo/Desktop/liteos/Project2/BearPi_LiteOS/components/connectivity/agent_tiny/atiny_lwm2m\atiny_fota_manager.c ****     }
 108:C:/Users/lenovo/Desktop/liteos/Project2/BearPi_LiteOS/components/connectivity/agent_tiny/atiny_lwm2m\atiny_fota_manager.c **** 
 109:C:/Users/lenovo/Desktop/liteos/Project2/BearPi_LiteOS/components/connectivity/agent_tiny/atiny_lwm2m\atiny_fota_manager.c ****     if(NULL == thi->current || uri == NULL)
 110:C:/Users/lenovo/Desktop/liteos/Project2/BearPi_LiteOS/components/connectivity/agent_tiny/atiny_lwm2m\atiny_fota_manager.c ****     {
 111:C:/Users/lenovo/Desktop/liteos/Project2/BearPi_LiteOS/components/connectivity/agent_tiny/atiny_lwm2m\atiny_fota_manager.c ****         ATINY_LOG(LOG_ERR, "null pointer");
 112:C:/Users/lenovo/Desktop/liteos/Project2/BearPi_LiteOS/components/connectivity/agent_tiny/atiny_lwm2m\atiny_fota_manager.c ****         return ATINY_ERR;
 113:C:/Users/lenovo/Desktop/liteos/Project2/BearPi_LiteOS/components/connectivity/agent_tiny/atiny_lwm2m\atiny_fota_manager.c ****     }
 114:C:/Users/lenovo/Desktop/liteos/Project2/BearPi_LiteOS/components/connectivity/agent_tiny/atiny_lwm2m\atiny_fota_manager.c **** 
 115:C:/Users/lenovo/Desktop/liteos/Project2/BearPi_LiteOS/components/connectivity/agent_tiny/atiny_lwm2m\atiny_fota_manager.c ****     if(thi->pkg_uri)
 116:C:/Users/lenovo/Desktop/liteos/Project2/BearPi_LiteOS/components/connectivity/agent_tiny/atiny_lwm2m\atiny_fota_manager.c ****     {
 117:C:/Users/lenovo/Desktop/liteos/Project2/BearPi_LiteOS/components/connectivity/agent_tiny/atiny_lwm2m\atiny_fota_manager.c ****         atiny_free(thi->pkg_uri);
 118:C:/Users/lenovo/Desktop/liteos/Project2/BearPi_LiteOS/components/connectivity/agent_tiny/atiny_lwm2m\atiny_fota_manager.c ****         thi->pkg_uri = NULL;
 119:C:/Users/lenovo/Desktop/liteos/Project2/BearPi_LiteOS/components/connectivity/agent_tiny/atiny_lwm2m\atiny_fota_manager.c ****     }
 120:C:/Users/lenovo/Desktop/liteos/Project2/BearPi_LiteOS/components/connectivity/agent_tiny/atiny_lwm2m\atiny_fota_manager.c ****     thi->pkg_uri = atiny_malloc(len + 1);
 121:C:/Users/lenovo/Desktop/liteos/Project2/BearPi_LiteOS/components/connectivity/agent_tiny/atiny_lwm2m\atiny_fota_manager.c ****     if(NULL == thi->pkg_uri)
 122:C:/Users/lenovo/Desktop/liteos/Project2/BearPi_LiteOS/components/connectivity/agent_tiny/atiny_lwm2m\atiny_fota_manager.c ****     {
 123:C:/Users/lenovo/Desktop/liteos/Project2/BearPi_LiteOS/components/connectivity/agent_tiny/atiny_lwm2m\atiny_fota_manager.c ****         ATINY_LOG(LOG_ERR, "lwm2m_strdup fail");
 124:C:/Users/lenovo/Desktop/liteos/Project2/BearPi_LiteOS/components/connectivity/agent_tiny/atiny_lwm2m\atiny_fota_manager.c ****         return ATINY_ERR;
 125:C:/Users/lenovo/Desktop/liteos/Project2/BearPi_LiteOS/components/connectivity/agent_tiny/atiny_lwm2m\atiny_fota_manager.c ****     }
 126:C:/Users/lenovo/Desktop/liteos/Project2/BearPi_LiteOS/components/connectivity/agent_tiny/atiny_lwm2m\atiny_fota_manager.c ****     memcpy(thi->pkg_uri, uri, len);
 127:C:/Users/lenovo/Desktop/liteos/Project2/BearPi_LiteOS/components/connectivity/agent_tiny/atiny_lwm2m\atiny_fota_manager.c ****     thi->pkg_uri[len] = '\0';
 128:C:/Users/lenovo/Desktop/liteos/Project2/BearPi_LiteOS/components/connectivity/agent_tiny/atiny_lwm2m\atiny_fota_manager.c ****     ATINY_LOG(LOG_INFO, "start download");
 129:C:/Users/lenovo/Desktop/liteos/Project2/BearPi_LiteOS/components/connectivity/agent_tiny/atiny_lwm2m\atiny_fota_manager.c ****     return thi->current->start_download(thi->current, thi->pkg_uri);
 130:C:/Users/lenovo/Desktop/liteos/Project2/BearPi_LiteOS/components/connectivity/agent_tiny/atiny_lwm2m\atiny_fota_manager.c **** }
 131:C:/Users/lenovo/Desktop/liteos/Project2/BearPi_LiteOS/components/connectivity/agent_tiny/atiny_lwm2m\atiny_fota_manager.c **** int atiny_fota_manager_execute_update(atiny_fota_manager_s *thi)
 132:C:/Users/lenovo/Desktop/liteos/Project2/BearPi_LiteOS/components/connectivity/agent_tiny/atiny_lwm2m\atiny_fota_manager.c **** {
 133:C:/Users/lenovo/Desktop/liteos/Project2/BearPi_LiteOS/components/connectivity/agent_tiny/atiny_lwm2m\atiny_fota_manager.c ****     ASSERT_THIS(return ATINY_ARG_INVALID);
 134:C:/Users/lenovo/Desktop/liteos/Project2/BearPi_LiteOS/components/connectivity/agent_tiny/atiny_lwm2m\atiny_fota_manager.c **** 
 135:C:/Users/lenovo/Desktop/liteos/Project2/BearPi_LiteOS/components/connectivity/agent_tiny/atiny_lwm2m\atiny_fota_manager.c ****     if(thi->state != thi->rpt_state)
 136:C:/Users/lenovo/Desktop/liteos/Project2/BearPi_LiteOS/components/connectivity/agent_tiny/atiny_lwm2m\atiny_fota_manager.c ****     {
 137:C:/Users/lenovo/Desktop/liteos/Project2/BearPi_LiteOS/components/connectivity/agent_tiny/atiny_lwm2m\atiny_fota_manager.c ****         ATINY_LOG(LOG_ERR, "execute update busy state %u rpt state %u",
 138:C:/Users/lenovo/Desktop/liteos/Project2/BearPi_LiteOS/components/connectivity/agent_tiny/atiny_lwm2m\atiny_fota_manager.c ****                   thi->state, thi->rpt_state);
 139:C:/Users/lenovo/Desktop/liteos/Project2/BearPi_LiteOS/components/connectivity/agent_tiny/atiny_lwm2m\atiny_fota_manager.c ****         return ATINY_ERR;
 140:C:/Users/lenovo/Desktop/liteos/Project2/BearPi_LiteOS/components/connectivity/agent_tiny/atiny_lwm2m\atiny_fota_manager.c ****     }
 141:C:/Users/lenovo/Desktop/liteos/Project2/BearPi_LiteOS/components/connectivity/agent_tiny/atiny_lwm2m\atiny_fota_manager.c **** 
 142:C:/Users/lenovo/Desktop/liteos/Project2/BearPi_LiteOS/components/connectivity/agent_tiny/atiny_lwm2m\atiny_fota_manager.c ****     if(NULL == thi->current)
 143:C:/Users/lenovo/Desktop/liteos/Project2/BearPi_LiteOS/components/connectivity/agent_tiny/atiny_lwm2m\atiny_fota_manager.c ****     {
 144:C:/Users/lenovo/Desktop/liteos/Project2/BearPi_LiteOS/components/connectivity/agent_tiny/atiny_lwm2m\atiny_fota_manager.c ****         ATINY_LOG(LOG_ERR, "current null pointer");
 145:C:/Users/lenovo/Desktop/liteos/Project2/BearPi_LiteOS/components/connectivity/agent_tiny/atiny_lwm2m\atiny_fota_manager.c ****         return ATINY_ERR;
 146:C:/Users/lenovo/Desktop/liteos/Project2/BearPi_LiteOS/components/connectivity/agent_tiny/atiny_lwm2m\atiny_fota_manager.c ****     }
ARM GAS  c:\Users\lenovo\AppData\Local\Temp\ccFFGHFi.s 			page 4


 147:C:/Users/lenovo/Desktop/liteos/Project2/BearPi_LiteOS/components/connectivity/agent_tiny/atiny_lwm2m\atiny_fota_manager.c **** 
 148:C:/Users/lenovo/Desktop/liteos/Project2/BearPi_LiteOS/components/connectivity/agent_tiny/atiny_lwm2m\atiny_fota_manager.c ****     ATINY_LOG(LOG_INFO, "excecute update");
 149:C:/Users/lenovo/Desktop/liteos/Project2/BearPi_LiteOS/components/connectivity/agent_tiny/atiny_lwm2m\atiny_fota_manager.c ****     return thi->current->execute_update(thi->current);
 150:C:/Users/lenovo/Desktop/liteos/Project2/BearPi_LiteOS/components/connectivity/agent_tiny/atiny_lwm2m\atiny_fota_manager.c **** }
 151:C:/Users/lenovo/Desktop/liteos/Project2/BearPi_LiteOS/components/connectivity/agent_tiny/atiny_lwm2m\atiny_fota_manager.c **** 
 152:C:/Users/lenovo/Desktop/liteos/Project2/BearPi_LiteOS/components/connectivity/agent_tiny/atiny_lwm2m\atiny_fota_manager.c **** int atiny_fota_manager_finish_download(atiny_fota_manager_s *thi, int result)
 153:C:/Users/lenovo/Desktop/liteos/Project2/BearPi_LiteOS/components/connectivity/agent_tiny/atiny_lwm2m\atiny_fota_manager.c **** {
 154:C:/Users/lenovo/Desktop/liteos/Project2/BearPi_LiteOS/components/connectivity/agent_tiny/atiny_lwm2m\atiny_fota_manager.c ****     ASSERT_THIS(return ATINY_ARG_INVALID);
 155:C:/Users/lenovo/Desktop/liteos/Project2/BearPi_LiteOS/components/connectivity/agent_tiny/atiny_lwm2m\atiny_fota_manager.c **** 
 156:C:/Users/lenovo/Desktop/liteos/Project2/BearPi_LiteOS/components/connectivity/agent_tiny/atiny_lwm2m\atiny_fota_manager.c ****     if(thi->state != thi->rpt_state)
 157:C:/Users/lenovo/Desktop/liteos/Project2/BearPi_LiteOS/components/connectivity/agent_tiny/atiny_lwm2m\atiny_fota_manager.c ****     {
 158:C:/Users/lenovo/Desktop/liteos/Project2/BearPi_LiteOS/components/connectivity/agent_tiny/atiny_lwm2m\atiny_fota_manager.c ****         ATINY_LOG(LOG_ERR, "finish download busy state %u rpt state %u",
 159:C:/Users/lenovo/Desktop/liteos/Project2/BearPi_LiteOS/components/connectivity/agent_tiny/atiny_lwm2m\atiny_fota_manager.c ****                   thi->state, thi->rpt_state);
 160:C:/Users/lenovo/Desktop/liteos/Project2/BearPi_LiteOS/components/connectivity/agent_tiny/atiny_lwm2m\atiny_fota_manager.c ****         return ATINY_ERR;
 161:C:/Users/lenovo/Desktop/liteos/Project2/BearPi_LiteOS/components/connectivity/agent_tiny/atiny_lwm2m\atiny_fota_manager.c ****     }
 162:C:/Users/lenovo/Desktop/liteos/Project2/BearPi_LiteOS/components/connectivity/agent_tiny/atiny_lwm2m\atiny_fota_manager.c **** 
 163:C:/Users/lenovo/Desktop/liteos/Project2/BearPi_LiteOS/components/connectivity/agent_tiny/atiny_lwm2m\atiny_fota_manager.c ****     if(NULL == thi->current)
 164:C:/Users/lenovo/Desktop/liteos/Project2/BearPi_LiteOS/components/connectivity/agent_tiny/atiny_lwm2m\atiny_fota_manager.c ****     {
 165:C:/Users/lenovo/Desktop/liteos/Project2/BearPi_LiteOS/components/connectivity/agent_tiny/atiny_lwm2m\atiny_fota_manager.c ****         ATINY_LOG(LOG_ERR, "current null pointer");
 166:C:/Users/lenovo/Desktop/liteos/Project2/BearPi_LiteOS/components/connectivity/agent_tiny/atiny_lwm2m\atiny_fota_manager.c ****         return ATINY_ERR;
 167:C:/Users/lenovo/Desktop/liteos/Project2/BearPi_LiteOS/components/connectivity/agent_tiny/atiny_lwm2m\atiny_fota_manager.c ****     }
 168:C:/Users/lenovo/Desktop/liteos/Project2/BearPi_LiteOS/components/connectivity/agent_tiny/atiny_lwm2m\atiny_fota_manager.c **** 
 169:C:/Users/lenovo/Desktop/liteos/Project2/BearPi_LiteOS/components/connectivity/agent_tiny/atiny_lwm2m\atiny_fota_manager.c ****     ATINY_LOG(LOG_INFO, "finish download result %d", result);
 170:C:/Users/lenovo/Desktop/liteos/Project2/BearPi_LiteOS/components/connectivity/agent_tiny/atiny_lwm2m\atiny_fota_manager.c ****     return thi->current->finish_download(thi->current, result);
 171:C:/Users/lenovo/Desktop/liteos/Project2/BearPi_LiteOS/components/connectivity/agent_tiny/atiny_lwm2m\atiny_fota_manager.c **** }
 172:C:/Users/lenovo/Desktop/liteos/Project2/BearPi_LiteOS/components/connectivity/agent_tiny/atiny_lwm2m\atiny_fota_manager.c **** int atiny_fota_manager_repot_result(atiny_fota_manager_s *thi)
 173:C:/Users/lenovo/Desktop/liteos/Project2/BearPi_LiteOS/components/connectivity/agent_tiny/atiny_lwm2m\atiny_fota_manager.c **** {
 174:C:/Users/lenovo/Desktop/liteos/Project2/BearPi_LiteOS/components/connectivity/agent_tiny/atiny_lwm2m\atiny_fota_manager.c ****     ASSERT_THIS(return ATINY_ARG_INVALID);
 175:C:/Users/lenovo/Desktop/liteos/Project2/BearPi_LiteOS/components/connectivity/agent_tiny/atiny_lwm2m\atiny_fota_manager.c **** 
 176:C:/Users/lenovo/Desktop/liteos/Project2/BearPi_LiteOS/components/connectivity/agent_tiny/atiny_lwm2m\atiny_fota_manager.c ****     if(NULL == thi->current)
 177:C:/Users/lenovo/Desktop/liteos/Project2/BearPi_LiteOS/components/connectivity/agent_tiny/atiny_lwm2m\atiny_fota_manager.c ****     {
 178:C:/Users/lenovo/Desktop/liteos/Project2/BearPi_LiteOS/components/connectivity/agent_tiny/atiny_lwm2m\atiny_fota_manager.c ****         ATINY_LOG(LOG_ERR, "current null pointer");
 179:C:/Users/lenovo/Desktop/liteos/Project2/BearPi_LiteOS/components/connectivity/agent_tiny/atiny_lwm2m\atiny_fota_manager.c ****         return ATINY_ERR;
 180:C:/Users/lenovo/Desktop/liteos/Project2/BearPi_LiteOS/components/connectivity/agent_tiny/atiny_lwm2m\atiny_fota_manager.c ****     }
 181:C:/Users/lenovo/Desktop/liteos/Project2/BearPi_LiteOS/components/connectivity/agent_tiny/atiny_lwm2m\atiny_fota_manager.c **** 
 182:C:/Users/lenovo/Desktop/liteos/Project2/BearPi_LiteOS/components/connectivity/agent_tiny/atiny_lwm2m\atiny_fota_manager.c ****     return thi->current->repot_result(thi->current);
 183:C:/Users/lenovo/Desktop/liteos/Project2/BearPi_LiteOS/components/connectivity/agent_tiny/atiny_lwm2m\atiny_fota_manager.c **** }
 184:C:/Users/lenovo/Desktop/liteos/Project2/BearPi_LiteOS/components/connectivity/agent_tiny/atiny_lwm2m\atiny_fota_manager.c **** 
 185:C:/Users/lenovo/Desktop/liteos/Project2/BearPi_LiteOS/components/connectivity/agent_tiny/atiny_lwm2m\atiny_fota_manager.c **** 
 186:C:/Users/lenovo/Desktop/liteos/Project2/BearPi_LiteOS/components/connectivity/agent_tiny/atiny_lwm2m\atiny_fota_manager.c **** int atiny_fota_manager_set_state(atiny_fota_manager_s *thi, atiny_fota_state_e state)
 187:C:/Users/lenovo/Desktop/liteos/Project2/BearPi_LiteOS/components/connectivity/agent_tiny/atiny_lwm2m\atiny_fota_manager.c **** {
 188:C:/Users/lenovo/Desktop/liteos/Project2/BearPi_LiteOS/components/connectivity/agent_tiny/atiny_lwm2m\atiny_fota_manager.c ****     ASSERT_THIS(return ATINY_ARG_INVALID);
 189:C:/Users/lenovo/Desktop/liteos/Project2/BearPi_LiteOS/components/connectivity/agent_tiny/atiny_lwm2m\atiny_fota_manager.c **** 
 190:C:/Users/lenovo/Desktop/liteos/Project2/BearPi_LiteOS/components/connectivity/agent_tiny/atiny_lwm2m\atiny_fota_manager.c ****     if(state > ATINY_FOTA_UPDATING)
 191:C:/Users/lenovo/Desktop/liteos/Project2/BearPi_LiteOS/components/connectivity/agent_tiny/atiny_lwm2m\atiny_fota_manager.c ****     {
 192:C:/Users/lenovo/Desktop/liteos/Project2/BearPi_LiteOS/components/connectivity/agent_tiny/atiny_lwm2m\atiny_fota_manager.c ****         ATINY_LOG(LOG_ERR, "invalid download state %d", state);
 193:C:/Users/lenovo/Desktop/liteos/Project2/BearPi_LiteOS/components/connectivity/agent_tiny/atiny_lwm2m\atiny_fota_manager.c ****         return ATINY_ARG_INVALID;
 194:C:/Users/lenovo/Desktop/liteos/Project2/BearPi_LiteOS/components/connectivity/agent_tiny/atiny_lwm2m\atiny_fota_manager.c ****     }
 195:C:/Users/lenovo/Desktop/liteos/Project2/BearPi_LiteOS/components/connectivity/agent_tiny/atiny_lwm2m\atiny_fota_manager.c **** 
 196:C:/Users/lenovo/Desktop/liteos/Project2/BearPi_LiteOS/components/connectivity/agent_tiny/atiny_lwm2m\atiny_fota_manager.c ****     ATINY_LOG(LOG_INFO, "download stat from %d to %d", thi->state, state);
 197:C:/Users/lenovo/Desktop/liteos/Project2/BearPi_LiteOS/components/connectivity/agent_tiny/atiny_lwm2m\atiny_fota_manager.c ****     if(thi->state != state)
 198:C:/Users/lenovo/Desktop/liteos/Project2/BearPi_LiteOS/components/connectivity/agent_tiny/atiny_lwm2m\atiny_fota_manager.c ****     {
 199:C:/Users/lenovo/Desktop/liteos/Project2/BearPi_LiteOS/components/connectivity/agent_tiny/atiny_lwm2m\atiny_fota_manager.c ****         /*lint -e614 */
 200:C:/Users/lenovo/Desktop/liteos/Project2/BearPi_LiteOS/components/connectivity/agent_tiny/atiny_lwm2m\atiny_fota_manager.c ****         atiny_fota_state_s *states[ATINY_FOTA_UPDATING + 1];
 201:C:/Users/lenovo/Desktop/liteos/Project2/BearPi_LiteOS/components/connectivity/agent_tiny/atiny_lwm2m\atiny_fota_manager.c ****         states[ATINY_FOTA_IDLE] = ATINY_GET_STATE(thi->idle_state);
 202:C:/Users/lenovo/Desktop/liteos/Project2/BearPi_LiteOS/components/connectivity/agent_tiny/atiny_lwm2m\atiny_fota_manager.c ****         states[ATINY_FOTA_DOWNLOADING] = ATINY_GET_STATE(thi->downloading_state);
 203:C:/Users/lenovo/Desktop/liteos/Project2/BearPi_LiteOS/components/connectivity/agent_tiny/atiny_lwm2m\atiny_fota_manager.c ****         states[ATINY_FOTA_DOWNLOADED] = ATINY_GET_STATE(thi->downloaded_state);
ARM GAS  c:\Users\lenovo\AppData\Local\Temp\ccFFGHFi.s 			page 5


 204:C:/Users/lenovo/Desktop/liteos/Project2/BearPi_LiteOS/components/connectivity/agent_tiny/atiny_lwm2m\atiny_fota_manager.c ****         states[ATINY_FOTA_UPDATING] = ATINY_GET_STATE(thi->updating_state);
 205:C:/Users/lenovo/Desktop/liteos/Project2/BearPi_LiteOS/components/connectivity/agent_tiny/atiny_lwm2m\atiny_fota_manager.c ****         thi->current = states[state];
 206:C:/Users/lenovo/Desktop/liteos/Project2/BearPi_LiteOS/components/connectivity/agent_tiny/atiny_lwm2m\atiny_fota_manager.c ****         thi->state = state;
 207:C:/Users/lenovo/Desktop/liteos/Project2/BearPi_LiteOS/components/connectivity/agent_tiny/atiny_lwm2m\atiny_fota_manager.c ****         thi->wait_ack_flag = false;
 208:C:/Users/lenovo/Desktop/liteos/Project2/BearPi_LiteOS/components/connectivity/agent_tiny/atiny_lwm2m\atiny_fota_manager.c ****         /*lint +e614 */
 209:C:/Users/lenovo/Desktop/liteos/Project2/BearPi_LiteOS/components/connectivity/agent_tiny/atiny_lwm2m\atiny_fota_manager.c ****     }
 210:C:/Users/lenovo/Desktop/liteos/Project2/BearPi_LiteOS/components/connectivity/agent_tiny/atiny_lwm2m\atiny_fota_manager.c ****     thi->rpt_state = state;
 211:C:/Users/lenovo/Desktop/liteos/Project2/BearPi_LiteOS/components/connectivity/agent_tiny/atiny_lwm2m\atiny_fota_manager.c ****     atiny_event_notify(ATINY_FOTA_STATE, (const char *)&thi->state, sizeof(thi->state));
 212:C:/Users/lenovo/Desktop/liteos/Project2/BearPi_LiteOS/components/connectivity/agent_tiny/atiny_lwm2m\atiny_fota_manager.c ****     return ATINY_OK;
 213:C:/Users/lenovo/Desktop/liteos/Project2/BearPi_LiteOS/components/connectivity/agent_tiny/atiny_lwm2m\atiny_fota_manager.c **** }
 214:C:/Users/lenovo/Desktop/liteos/Project2/BearPi_LiteOS/components/connectivity/agent_tiny/atiny_lwm2m\atiny_fota_manager.c **** 
 215:C:/Users/lenovo/Desktop/liteos/Project2/BearPi_LiteOS/components/connectivity/agent_tiny/atiny_lwm2m\atiny_fota_manager.c **** int atiny_fota_manager_rpt_state(atiny_fota_manager_s *thi, atiny_fota_state_e rpt_state)
 216:C:/Users/lenovo/Desktop/liteos/Project2/BearPi_LiteOS/components/connectivity/agent_tiny/atiny_lwm2m\atiny_fota_manager.c **** {
 217:C:/Users/lenovo/Desktop/liteos/Project2/BearPi_LiteOS/components/connectivity/agent_tiny/atiny_lwm2m\atiny_fota_manager.c ****     lwm2m_uri_t uri;
 218:C:/Users/lenovo/Desktop/liteos/Project2/BearPi_LiteOS/components/connectivity/agent_tiny/atiny_lwm2m\atiny_fota_manager.c ****     const char *uri_str = "/5/0/3";
 219:C:/Users/lenovo/Desktop/liteos/Project2/BearPi_LiteOS/components/connectivity/agent_tiny/atiny_lwm2m\atiny_fota_manager.c ****     ASSERT_THIS(return ATINY_ARG_INVALID);
 220:C:/Users/lenovo/Desktop/liteos/Project2/BearPi_LiteOS/components/connectivity/agent_tiny/atiny_lwm2m\atiny_fota_manager.c **** 
 221:C:/Users/lenovo/Desktop/liteos/Project2/BearPi_LiteOS/components/connectivity/agent_tiny/atiny_lwm2m\atiny_fota_manager.c ****     atiny_fota_manager_save_rpt_state(thi, rpt_state);
 222:C:/Users/lenovo/Desktop/liteos/Project2/BearPi_LiteOS/components/connectivity/agent_tiny/atiny_lwm2m\atiny_fota_manager.c ****     memset((void *)&uri, 0, sizeof(uri));
 223:C:/Users/lenovo/Desktop/liteos/Project2/BearPi_LiteOS/components/connectivity/agent_tiny/atiny_lwm2m\atiny_fota_manager.c ****     (void)lwm2m_stringToUri(uri_str, strlen(uri_str), &uri);
 224:C:/Users/lenovo/Desktop/liteos/Project2/BearPi_LiteOS/components/connectivity/agent_tiny/atiny_lwm2m\atiny_fota_manager.c ****     lwm2m_resource_value_changed(thi->lwm2m_context, &uri);
 225:C:/Users/lenovo/Desktop/liteos/Project2/BearPi_LiteOS/components/connectivity/agent_tiny/atiny_lwm2m\atiny_fota_manager.c ****     return ATINY_OK;
 226:C:/Users/lenovo/Desktop/liteos/Project2/BearPi_LiteOS/components/connectivity/agent_tiny/atiny_lwm2m\atiny_fota_manager.c **** }
 227:C:/Users/lenovo/Desktop/liteos/Project2/BearPi_LiteOS/components/connectivity/agent_tiny/atiny_lwm2m\atiny_fota_manager.c **** 
 228:C:/Users/lenovo/Desktop/liteos/Project2/BearPi_LiteOS/components/connectivity/agent_tiny/atiny_lwm2m\atiny_fota_manager.c **** void atiny_fota_manager_save_rpt_state(atiny_fota_manager_s *thi, atiny_fota_state_e rpt_state)
 229:C:/Users/lenovo/Desktop/liteos/Project2/BearPi_LiteOS/components/connectivity/agent_tiny/atiny_lwm2m\atiny_fota_manager.c **** {
 230:C:/Users/lenovo/Desktop/liteos/Project2/BearPi_LiteOS/components/connectivity/agent_tiny/atiny_lwm2m\atiny_fota_manager.c **** 
 231:C:/Users/lenovo/Desktop/liteos/Project2/BearPi_LiteOS/components/connectivity/agent_tiny/atiny_lwm2m\atiny_fota_manager.c ****     ASSERT_THIS(return);
 232:C:/Users/lenovo/Desktop/liteos/Project2/BearPi_LiteOS/components/connectivity/agent_tiny/atiny_lwm2m\atiny_fota_manager.c **** 
 233:C:/Users/lenovo/Desktop/liteos/Project2/BearPi_LiteOS/components/connectivity/agent_tiny/atiny_lwm2m\atiny_fota_manager.c ****     ATINY_LOG(LOG_INFO, "rpt download state %d", rpt_state);
 234:C:/Users/lenovo/Desktop/liteos/Project2/BearPi_LiteOS/components/connectivity/agent_tiny/atiny_lwm2m\atiny_fota_manager.c ****     thi->rpt_state = rpt_state;
 235:C:/Users/lenovo/Desktop/liteos/Project2/BearPi_LiteOS/components/connectivity/agent_tiny/atiny_lwm2m\atiny_fota_manager.c ****     thi->wait_ack_flag = true;
 236:C:/Users/lenovo/Desktop/liteos/Project2/BearPi_LiteOS/components/connectivity/agent_tiny/atiny_lwm2m\atiny_fota_manager.c ****     thi->cookie = g_firmware_cookie++;
 237:C:/Users/lenovo/Desktop/liteos/Project2/BearPi_LiteOS/components/connectivity/agent_tiny/atiny_lwm2m\atiny_fota_manager.c **** }
 238:C:/Users/lenovo/Desktop/liteos/Project2/BearPi_LiteOS/components/connectivity/agent_tiny/atiny_lwm2m\atiny_fota_manager.c **** 
 239:C:/Users/lenovo/Desktop/liteos/Project2/BearPi_LiteOS/components/connectivity/agent_tiny/atiny_lwm2m\atiny_fota_manager.c **** 
 240:C:/Users/lenovo/Desktop/liteos/Project2/BearPi_LiteOS/components/connectivity/agent_tiny/atiny_lwm2m\atiny_fota_manager.c **** static int atiny_fota_manager_flag_read(void* buf, int32_t len)
 241:C:/Users/lenovo/Desktop/liteos/Project2/BearPi_LiteOS/components/connectivity/agent_tiny/atiny_lwm2m\atiny_fota_manager.c **** {
 242:C:/Users/lenovo/Desktop/liteos/Project2/BearPi_LiteOS/components/connectivity/agent_tiny/atiny_lwm2m\atiny_fota_manager.c ****     int (*read_flash)(ota_flash_type_e type, void *buf, int32_t len, uint32_t location) =
 243:C:/Users/lenovo/Desktop/liteos/Project2/BearPi_LiteOS/components/connectivity/agent_tiny/atiny_lwm2m\atiny_fota_manager.c ****                 atiny_fota_manager_get_instance()->ota_opt.read_flash;
 244:C:/Users/lenovo/Desktop/liteos/Project2/BearPi_LiteOS/components/connectivity/agent_tiny/atiny_lwm2m\atiny_fota_manager.c ****     if (read_flash)
 245:C:/Users/lenovo/Desktop/liteos/Project2/BearPi_LiteOS/components/connectivity/agent_tiny/atiny_lwm2m\atiny_fota_manager.c ****     {
 246:C:/Users/lenovo/Desktop/liteos/Project2/BearPi_LiteOS/components/connectivity/agent_tiny/atiny_lwm2m\atiny_fota_manager.c ****         return read_flash(OTA_UPDATE_INFO, buf, len, 0);
 247:C:/Users/lenovo/Desktop/liteos/Project2/BearPi_LiteOS/components/connectivity/agent_tiny/atiny_lwm2m\atiny_fota_manager.c ****     }
 248:C:/Users/lenovo/Desktop/liteos/Project2/BearPi_LiteOS/components/connectivity/agent_tiny/atiny_lwm2m\atiny_fota_manager.c ****     ATINY_LOG(LOG_ERR, "write_flash null");
 249:C:/Users/lenovo/Desktop/liteos/Project2/BearPi_LiteOS/components/connectivity/agent_tiny/atiny_lwm2m\atiny_fota_manager.c ****     return -1;
 250:C:/Users/lenovo/Desktop/liteos/Project2/BearPi_LiteOS/components/connectivity/agent_tiny/atiny_lwm2m\atiny_fota_manager.c **** }
 251:C:/Users/lenovo/Desktop/liteos/Project2/BearPi_LiteOS/components/connectivity/agent_tiny/atiny_lwm2m\atiny_fota_manager.c **** 
 252:C:/Users/lenovo/Desktop/liteos/Project2/BearPi_LiteOS/components/connectivity/agent_tiny/atiny_lwm2m\atiny_fota_manager.c **** static int atiny_fota_manager_flag_write(const void* buf, int32_t len)
 253:C:/Users/lenovo/Desktop/liteos/Project2/BearPi_LiteOS/components/connectivity/agent_tiny/atiny_lwm2m\atiny_fota_manager.c **** {
 254:C:/Users/lenovo/Desktop/liteos/Project2/BearPi_LiteOS/components/connectivity/agent_tiny/atiny_lwm2m\atiny_fota_manager.c ****     int (*write_flash)(ota_flash_type_e type, const void *buf, int32_t len, uint32_t location) =
 255:C:/Users/lenovo/Desktop/liteos/Project2/BearPi_LiteOS/components/connectivity/agent_tiny/atiny_lwm2m\atiny_fota_manager.c ****                 atiny_fota_manager_get_instance()->ota_opt.write_flash;
 256:C:/Users/lenovo/Desktop/liteos/Project2/BearPi_LiteOS/components/connectivity/agent_tiny/atiny_lwm2m\atiny_fota_manager.c **** 
 257:C:/Users/lenovo/Desktop/liteos/Project2/BearPi_LiteOS/components/connectivity/agent_tiny/atiny_lwm2m\atiny_fota_manager.c ****     if (write_flash)
 258:C:/Users/lenovo/Desktop/liteos/Project2/BearPi_LiteOS/components/connectivity/agent_tiny/atiny_lwm2m\atiny_fota_manager.c ****     {
 259:C:/Users/lenovo/Desktop/liteos/Project2/BearPi_LiteOS/components/connectivity/agent_tiny/atiny_lwm2m\atiny_fota_manager.c ****         return write_flash(OTA_UPDATE_INFO, buf, len, 0);
 260:C:/Users/lenovo/Desktop/liteos/Project2/BearPi_LiteOS/components/connectivity/agent_tiny/atiny_lwm2m\atiny_fota_manager.c ****     }
ARM GAS  c:\Users\lenovo\AppData\Local\Temp\ccFFGHFi.s 			page 6


 261:C:/Users/lenovo/Desktop/liteos/Project2/BearPi_LiteOS/components/connectivity/agent_tiny/atiny_lwm2m\atiny_fota_manager.c ****     ATINY_LOG(LOG_ERR, "write_flash null");
 262:C:/Users/lenovo/Desktop/liteos/Project2/BearPi_LiteOS/components/connectivity/agent_tiny/atiny_lwm2m\atiny_fota_manager.c ****     return -1;
 263:C:/Users/lenovo/Desktop/liteos/Project2/BearPi_LiteOS/components/connectivity/agent_tiny/atiny_lwm2m\atiny_fota_manager.c **** }
 264:C:/Users/lenovo/Desktop/liteos/Project2/BearPi_LiteOS/components/connectivity/agent_tiny/atiny_lwm2m\atiny_fota_manager.c **** 
 265:C:/Users/lenovo/Desktop/liteos/Project2/BearPi_LiteOS/components/connectivity/agent_tiny/atiny_lwm2m\atiny_fota_manager.c **** 
 266:C:/Users/lenovo/Desktop/liteos/Project2/BearPi_LiteOS/components/connectivity/agent_tiny/atiny_lwm2m\atiny_fota_manager.c **** int atiny_fota_manager_set_storage_device(atiny_fota_manager_s *thi)
 267:C:/Users/lenovo/Desktop/liteos/Project2/BearPi_LiteOS/components/connectivity/agent_tiny/atiny_lwm2m\atiny_fota_manager.c **** {
 268:C:/Users/lenovo/Desktop/liteos/Project2/BearPi_LiteOS/components/connectivity/agent_tiny/atiny_lwm2m\atiny_fota_manager.c ****     int ret;
 269:C:/Users/lenovo/Desktop/liteos/Project2/BearPi_LiteOS/components/connectivity/agent_tiny/atiny_lwm2m\atiny_fota_manager.c ****     flag_op_s flag_op;
 270:C:/Users/lenovo/Desktop/liteos/Project2/BearPi_LiteOS/components/connectivity/agent_tiny/atiny_lwm2m\atiny_fota_manager.c ****     pack_params_s pack_param;
 271:C:/Users/lenovo/Desktop/liteos/Project2/BearPi_LiteOS/components/connectivity/agent_tiny/atiny_lwm2m\atiny_fota_manager.c **** 
 272:C:/Users/lenovo/Desktop/liteos/Project2/BearPi_LiteOS/components/connectivity/agent_tiny/atiny_lwm2m\atiny_fota_manager.c ****     ASSERT_THIS(return ATINY_ARG_INVALID);
 273:C:/Users/lenovo/Desktop/liteos/Project2/BearPi_LiteOS/components/connectivity/agent_tiny/atiny_lwm2m\atiny_fota_manager.c **** 
 274:C:/Users/lenovo/Desktop/liteos/Project2/BearPi_LiteOS/components/connectivity/agent_tiny/atiny_lwm2m\atiny_fota_manager.c ****     ret = atiny_cmd_ioctl(ATINY_GET_OTA_OPT, (char * )&thi->ota_opt, sizeof(thi->ota_opt));
 275:C:/Users/lenovo/Desktop/liteos/Project2/BearPi_LiteOS/components/connectivity/agent_tiny/atiny_lwm2m\atiny_fota_manager.c ****     if (ret != ATINY_OK)
 276:C:/Users/lenovo/Desktop/liteos/Project2/BearPi_LiteOS/components/connectivity/agent_tiny/atiny_lwm2m\atiny_fota_manager.c ****     {
 277:C:/Users/lenovo/Desktop/liteos/Project2/BearPi_LiteOS/components/connectivity/agent_tiny/atiny_lwm2m\atiny_fota_manager.c ****         ATINY_LOG(LOG_FATAL, "atiny_cmd_ioctl fail");
 278:C:/Users/lenovo/Desktop/liteos/Project2/BearPi_LiteOS/components/connectivity/agent_tiny/atiny_lwm2m\atiny_fota_manager.c ****         return ret;
 279:C:/Users/lenovo/Desktop/liteos/Project2/BearPi_LiteOS/components/connectivity/agent_tiny/atiny_lwm2m\atiny_fota_manager.c ****     }
 280:C:/Users/lenovo/Desktop/liteos/Project2/BearPi_LiteOS/components/connectivity/agent_tiny/atiny_lwm2m\atiny_fota_manager.c **** 
 281:C:/Users/lenovo/Desktop/liteos/Project2/BearPi_LiteOS/components/connectivity/agent_tiny/atiny_lwm2m\atiny_fota_manager.c ****     flag_op.func_flag_read = atiny_fota_manager_flag_read;
 282:C:/Users/lenovo/Desktop/liteos/Project2/BearPi_LiteOS/components/connectivity/agent_tiny/atiny_lwm2m\atiny_fota_manager.c ****     flag_op.func_flag_write = atiny_fota_manager_flag_write;
 283:C:/Users/lenovo/Desktop/liteos/Project2/BearPi_LiteOS/components/connectivity/agent_tiny/atiny_lwm2m\atiny_fota_manager.c ****     (void)flag_init(&flag_op);
 284:C:/Users/lenovo/Desktop/liteos/Project2/BearPi_LiteOS/components/connectivity/agent_tiny/atiny_lwm2m\atiny_fota_manager.c ****     ret = flag_upgrade_init();
 285:C:/Users/lenovo/Desktop/liteos/Project2/BearPi_LiteOS/components/connectivity/agent_tiny/atiny_lwm2m\atiny_fota_manager.c ****     if (ret != ATINY_OK)
 286:C:/Users/lenovo/Desktop/liteos/Project2/BearPi_LiteOS/components/connectivity/agent_tiny/atiny_lwm2m\atiny_fota_manager.c ****     {
 287:C:/Users/lenovo/Desktop/liteos/Project2/BearPi_LiteOS/components/connectivity/agent_tiny/atiny_lwm2m\atiny_fota_manager.c ****         ATINY_LOG(LOG_FATAL, "flag_upgrade_init fail");
 288:C:/Users/lenovo/Desktop/liteos/Project2/BearPi_LiteOS/components/connectivity/agent_tiny/atiny_lwm2m\atiny_fota_manager.c ****         return ret;
 289:C:/Users/lenovo/Desktop/liteos/Project2/BearPi_LiteOS/components/connectivity/agent_tiny/atiny_lwm2m\atiny_fota_manager.c ****     }
 290:C:/Users/lenovo/Desktop/liteos/Project2/BearPi_LiteOS/components/connectivity/agent_tiny/atiny_lwm2m\atiny_fota_manager.c **** 
 291:C:/Users/lenovo/Desktop/liteos/Project2/BearPi_LiteOS/components/connectivity/agent_tiny/atiny_lwm2m\atiny_fota_manager.c ****     memcpy(&pack_param.ota_opt, &thi->ota_opt, sizeof(pack_param.ota_opt));
 292:C:/Users/lenovo/Desktop/liteos/Project2/BearPi_LiteOS/components/connectivity/agent_tiny/atiny_lwm2m\atiny_fota_manager.c ****     pack_param.malloc = atiny_malloc;
 293:C:/Users/lenovo/Desktop/liteos/Project2/BearPi_LiteOS/components/connectivity/agent_tiny/atiny_lwm2m\atiny_fota_manager.c ****     pack_param.free = atiny_free;
 294:C:/Users/lenovo/Desktop/liteos/Project2/BearPi_LiteOS/components/connectivity/agent_tiny/atiny_lwm2m\atiny_fota_manager.c ****     pack_param.printf = atiny_printf;
 295:C:/Users/lenovo/Desktop/liteos/Project2/BearPi_LiteOS/components/connectivity/agent_tiny/atiny_lwm2m\atiny_fota_manager.c ****     ret = pack_init_device(&pack_param);
 296:C:/Users/lenovo/Desktop/liteos/Project2/BearPi_LiteOS/components/connectivity/agent_tiny/atiny_lwm2m\atiny_fota_manager.c ****     if (ret != ATINY_OK)
 297:C:/Users/lenovo/Desktop/liteos/Project2/BearPi_LiteOS/components/connectivity/agent_tiny/atiny_lwm2m\atiny_fota_manager.c ****     {
 298:C:/Users/lenovo/Desktop/liteos/Project2/BearPi_LiteOS/components/connectivity/agent_tiny/atiny_lwm2m\atiny_fota_manager.c ****         ATINY_LOG(LOG_FATAL, "pack_init_device fail");
 299:C:/Users/lenovo/Desktop/liteos/Project2/BearPi_LiteOS/components/connectivity/agent_tiny/atiny_lwm2m\atiny_fota_manager.c ****         return ret;
 300:C:/Users/lenovo/Desktop/liteos/Project2/BearPi_LiteOS/components/connectivity/agent_tiny/atiny_lwm2m\atiny_fota_manager.c ****     }
 301:C:/Users/lenovo/Desktop/liteos/Project2/BearPi_LiteOS/components/connectivity/agent_tiny/atiny_lwm2m\atiny_fota_manager.c **** 
 302:C:/Users/lenovo/Desktop/liteos/Project2/BearPi_LiteOS/components/connectivity/agent_tiny/atiny_lwm2m\atiny_fota_manager.c ****     thi->device = pack_get_device();
 303:C:/Users/lenovo/Desktop/liteos/Project2/BearPi_LiteOS/components/connectivity/agent_tiny/atiny_lwm2m\atiny_fota_manager.c ****     return atiny_fota_idle_state_int_report_result(&thi->idle_state);
 304:C:/Users/lenovo/Desktop/liteos/Project2/BearPi_LiteOS/components/connectivity/agent_tiny/atiny_lwm2m\atiny_fota_manager.c **** }
 305:C:/Users/lenovo/Desktop/liteos/Project2/BearPi_LiteOS/components/connectivity/agent_tiny/atiny_lwm2m\atiny_fota_manager.c **** 
 306:C:/Users/lenovo/Desktop/liteos/Project2/BearPi_LiteOS/components/connectivity/agent_tiny/atiny_lwm2m\atiny_fota_manager.c **** pack_storage_device_api_s *atiny_fota_manager_get_storage_device(atiny_fota_manager_s *thi)
 307:C:/Users/lenovo/Desktop/liteos/Project2/BearPi_LiteOS/components/connectivity/agent_tiny/atiny_lwm2m\atiny_fota_manager.c **** {
 308:C:/Users/lenovo/Desktop/liteos/Project2/BearPi_LiteOS/components/connectivity/agent_tiny/atiny_lwm2m\atiny_fota_manager.c ****     ASSERT_THIS(return NULL);
 309:C:/Users/lenovo/Desktop/liteos/Project2/BearPi_LiteOS/components/connectivity/agent_tiny/atiny_lwm2m\atiny_fota_manager.c ****     return thi->device;
 310:C:/Users/lenovo/Desktop/liteos/Project2/BearPi_LiteOS/components/connectivity/agent_tiny/atiny_lwm2m\atiny_fota_manager.c **** }
 311:C:/Users/lenovo/Desktop/liteos/Project2/BearPi_LiteOS/components/connectivity/agent_tiny/atiny_lwm2m\atiny_fota_manager.c **** 
 312:C:/Users/lenovo/Desktop/liteos/Project2/BearPi_LiteOS/components/connectivity/agent_tiny/atiny_lwm2m\atiny_fota_manager.c **** 
 313:C:/Users/lenovo/Desktop/liteos/Project2/BearPi_LiteOS/components/connectivity/agent_tiny/atiny_lwm2m\atiny_fota_manager.c **** void atiny_fota_manager_update_notify(firmware_update_rst_e rst, void *param)
 314:C:/Users/lenovo/Desktop/liteos/Project2/BearPi_LiteOS/components/connectivity/agent_tiny/atiny_lwm2m\atiny_fota_manager.c **** {
 315:C:/Users/lenovo/Desktop/liteos/Project2/BearPi_LiteOS/components/connectivity/agent_tiny/atiny_lwm2m\atiny_fota_manager.c ****     atiny_fota_manager_s *thi = ( atiny_fota_manager_s *)param;
 316:C:/Users/lenovo/Desktop/liteos/Project2/BearPi_LiteOS/components/connectivity/agent_tiny/atiny_lwm2m\atiny_fota_manager.c ****     (void)atiny_fota_manager_finish_download(thi, rst);
 317:C:/Users/lenovo/Desktop/liteos/Project2/BearPi_LiteOS/components/connectivity/agent_tiny/atiny_lwm2m\atiny_fota_manager.c **** }
ARM GAS  c:\Users\lenovo\AppData\Local\Temp\ccFFGHFi.s 			page 7


 318:C:/Users/lenovo/Desktop/liteos/Project2/BearPi_LiteOS/components/connectivity/agent_tiny/atiny_lwm2m\atiny_fota_manager.c **** void atiny_fota_manager_init(atiny_fota_manager_s *thi)
 319:C:/Users/lenovo/Desktop/liteos/Project2/BearPi_LiteOS/components/connectivity/agent_tiny/atiny_lwm2m\atiny_fota_manager.c **** {
 320:C:/Users/lenovo/Desktop/liteos/Project2/BearPi_LiteOS/components/connectivity/agent_tiny/atiny_lwm2m\atiny_fota_manager.c ****     memset(thi, 0, sizeof(*thi));
 321:C:/Users/lenovo/Desktop/liteos/Project2/BearPi_LiteOS/components/connectivity/agent_tiny/atiny_lwm2m\atiny_fota_manager.c ****     atiny_fota_idle_state_init(&thi->idle_state, thi);
 322:C:/Users/lenovo/Desktop/liteos/Project2/BearPi_LiteOS/components/connectivity/agent_tiny/atiny_lwm2m\atiny_fota_manager.c ****     atiny_fota_downloading_state_init(&thi->downloading_state, thi);
 323:C:/Users/lenovo/Desktop/liteos/Project2/BearPi_LiteOS/components/connectivity/agent_tiny/atiny_lwm2m\atiny_fota_manager.c ****     atiny_fota_downloaded_state_init(&thi->downloaded_state, thi);
 324:C:/Users/lenovo/Desktop/liteos/Project2/BearPi_LiteOS/components/connectivity/agent_tiny/atiny_lwm2m\atiny_fota_manager.c ****     atiny_fota_updating_state_init(&thi->updating_state, thi);
 325:C:/Users/lenovo/Desktop/liteos/Project2/BearPi_LiteOS/components/connectivity/agent_tiny/atiny_lwm2m\atiny_fota_manager.c ****     thi->current = ATINY_GET_STATE(thi->idle_state);
 326:C:/Users/lenovo/Desktop/liteos/Project2/BearPi_LiteOS/components/connectivity/agent_tiny/atiny_lwm2m\atiny_fota_manager.c ****     set_firmware_update_notify(atiny_fota_manager_update_notify, thi);
 327:C:/Users/lenovo/Desktop/liteos/Project2/BearPi_LiteOS/components/connectivity/agent_tiny/atiny_lwm2m\atiny_fota_manager.c ****     atiny_event_notify(ATINY_FOTA_STATE, (const char *)&thi->state, sizeof(thi->state));
 328:C:/Users/lenovo/Desktop/liteos/Project2/BearPi_LiteOS/components/connectivity/agent_tiny/atiny_lwm2m\atiny_fota_manager.c ****     thi->init_flag = true;
 329:C:/Users/lenovo/Desktop/liteos/Project2/BearPi_LiteOS/components/connectivity/agent_tiny/atiny_lwm2m\atiny_fota_manager.c **** }
 330:C:/Users/lenovo/Desktop/liteos/Project2/BearPi_LiteOS/components/connectivity/agent_tiny/atiny_lwm2m\atiny_fota_manager.c **** 
 331:C:/Users/lenovo/Desktop/liteos/Project2/BearPi_LiteOS/components/connectivity/agent_tiny/atiny_lwm2m\atiny_fota_manager.c **** void atiny_fota_manager_destroy(atiny_fota_manager_s *thi)
 332:C:/Users/lenovo/Desktop/liteos/Project2/BearPi_LiteOS/components/connectivity/agent_tiny/atiny_lwm2m\atiny_fota_manager.c **** {
 333:C:/Users/lenovo/Desktop/liteos/Project2/BearPi_LiteOS/components/connectivity/agent_tiny/atiny_lwm2m\atiny_fota_manager.c ****     ASSERT_THIS(return);
 334:C:/Users/lenovo/Desktop/liteos/Project2/BearPi_LiteOS/components/connectivity/agent_tiny/atiny_lwm2m\atiny_fota_manager.c **** 
 335:C:/Users/lenovo/Desktop/liteos/Project2/BearPi_LiteOS/components/connectivity/agent_tiny/atiny_lwm2m\atiny_fota_manager.c ****     if(thi->pkg_uri)
 336:C:/Users/lenovo/Desktop/liteos/Project2/BearPi_LiteOS/components/connectivity/agent_tiny/atiny_lwm2m\atiny_fota_manager.c ****     {
 337:C:/Users/lenovo/Desktop/liteos/Project2/BearPi_LiteOS/components/connectivity/agent_tiny/atiny_lwm2m\atiny_fota_manager.c ****         atiny_free(thi->pkg_uri);
 338:C:/Users/lenovo/Desktop/liteos/Project2/BearPi_LiteOS/components/connectivity/agent_tiny/atiny_lwm2m\atiny_fota_manager.c ****     }
 339:C:/Users/lenovo/Desktop/liteos/Project2/BearPi_LiteOS/components/connectivity/agent_tiny/atiny_lwm2m\atiny_fota_manager.c ****     /*lint -e668 */
 340:C:/Users/lenovo/Desktop/liteos/Project2/BearPi_LiteOS/components/connectivity/agent_tiny/atiny_lwm2m\atiny_fota_manager.c ****     memset(thi, 0, sizeof(*thi));
 341:C:/Users/lenovo/Desktop/liteos/Project2/BearPi_LiteOS/components/connectivity/agent_tiny/atiny_lwm2m\atiny_fota_manager.c ****     /*lint +e668 */
 342:C:/Users/lenovo/Desktop/liteos/Project2/BearPi_LiteOS/components/connectivity/agent_tiny/atiny_lwm2m\atiny_fota_manager.c **** }
 343:C:/Users/lenovo/Desktop/liteos/Project2/BearPi_LiteOS/components/connectivity/agent_tiny/atiny_lwm2m\atiny_fota_manager.c **** 
 344:C:/Users/lenovo/Desktop/liteos/Project2/BearPi_LiteOS/components/connectivity/agent_tiny/atiny_lwm2m\atiny_fota_manager.c **** int atiny_fota_manager_set_lwm2m_context(atiny_fota_manager_s *thi, lwm2m_context_t  *lwm2m_context
 345:C:/Users/lenovo/Desktop/liteos/Project2/BearPi_LiteOS/components/connectivity/agent_tiny/atiny_lwm2m\atiny_fota_manager.c **** {
 346:C:/Users/lenovo/Desktop/liteos/Project2/BearPi_LiteOS/components/connectivity/agent_tiny/atiny_lwm2m\atiny_fota_manager.c ****     ASSERT_THIS(return ATINY_ARG_INVALID);
 347:C:/Users/lenovo/Desktop/liteos/Project2/BearPi_LiteOS/components/connectivity/agent_tiny/atiny_lwm2m\atiny_fota_manager.c ****     thi->lwm2m_context = lwm2m_context;
 348:C:/Users/lenovo/Desktop/liteos/Project2/BearPi_LiteOS/components/connectivity/agent_tiny/atiny_lwm2m\atiny_fota_manager.c ****     return ATINY_OK;
 349:C:/Users/lenovo/Desktop/liteos/Project2/BearPi_LiteOS/components/connectivity/agent_tiny/atiny_lwm2m\atiny_fota_manager.c **** }
 350:C:/Users/lenovo/Desktop/liteos/Project2/BearPi_LiteOS/components/connectivity/agent_tiny/atiny_lwm2m\atiny_fota_manager.c **** lwm2m_context_t *atiny_fota_manager_get_lwm2m_context(atiny_fota_manager_s *thi)
 351:C:/Users/lenovo/Desktop/liteos/Project2/BearPi_LiteOS/components/connectivity/agent_tiny/atiny_lwm2m\atiny_fota_manager.c **** {
 352:C:/Users/lenovo/Desktop/liteos/Project2/BearPi_LiteOS/components/connectivity/agent_tiny/atiny_lwm2m\atiny_fota_manager.c ****     ASSERT_THIS(return NULL);
 353:C:/Users/lenovo/Desktop/liteos/Project2/BearPi_LiteOS/components/connectivity/agent_tiny/atiny_lwm2m\atiny_fota_manager.c ****     return thi->lwm2m_context;
 354:C:/Users/lenovo/Desktop/liteos/Project2/BearPi_LiteOS/components/connectivity/agent_tiny/atiny_lwm2m\atiny_fota_manager.c **** }
 355:C:/Users/lenovo/Desktop/liteos/Project2/BearPi_LiteOS/components/connectivity/agent_tiny/atiny_lwm2m\atiny_fota_manager.c **** 
 356:C:/Users/lenovo/Desktop/liteos/Project2/BearPi_LiteOS/components/connectivity/agent_tiny/atiny_lwm2m\atiny_fota_manager.c **** static int atiny_fota_manager_rcv_notify_ack(atiny_fota_manager_s *thi, data_send_status_e status)
 357:C:/Users/lenovo/Desktop/liteos/Project2/BearPi_LiteOS/components/connectivity/agent_tiny/atiny_lwm2m\atiny_fota_manager.c **** {
  27              		.loc 1 357 0
  28              		.cfi_startproc
  29              		@ args = 0, pretend = 0, frame = 0
  30              		@ frame_needed = 0, uses_anonymous_args = 0
  31              	.LVL0:
  32 0000 10B5     		push	{r4, lr}
  33              	.LCFI0:
  34              		.cfi_def_cfa_offset 8
  35              		.cfi_offset 4, -8
  36              		.cfi_offset 14, -4
  37 0002 82B0     		sub	sp, sp, #8
  38              	.LCFI1:
  39              		.cfi_def_cfa_offset 16
 358:C:/Users/lenovo/Desktop/liteos/Project2/BearPi_LiteOS/components/connectivity/agent_tiny/atiny_lwm2m\atiny_fota_manager.c ****     ASSERT_THIS(return ATINY_ARG_INVALID);
  40              		.loc 1 358 0
  41 0004 30B1     		cbz	r0, .L8
 359:C:/Users/lenovo/Desktop/liteos/Project2/BearPi_LiteOS/components/connectivity/agent_tiny/atiny_lwm2m\atiny_fota_manager.c **** 
ARM GAS  c:\Users\lenovo\AppData\Local\Temp\ccFFGHFi.s 			page 8


 360:C:/Users/lenovo/Desktop/liteos/Project2/BearPi_LiteOS/components/connectivity/agent_tiny/atiny_lwm2m\atiny_fota_manager.c ****     if(NULL == thi->current)
  42              		.loc 1 360 0
  43 0006 D0F88800 		ldr	r0, [r0, #136]
  44              	.LVL1:
  45 000a E0B1     		cbz	r0, .L9
 361:C:/Users/lenovo/Desktop/liteos/Project2/BearPi_LiteOS/components/connectivity/agent_tiny/atiny_lwm2m\atiny_fota_manager.c ****     {
 362:C:/Users/lenovo/Desktop/liteos/Project2/BearPi_LiteOS/components/connectivity/agent_tiny/atiny_lwm2m\atiny_fota_manager.c ****         ATINY_LOG(LOG_ERR, "current null pointer");
 363:C:/Users/lenovo/Desktop/liteos/Project2/BearPi_LiteOS/components/connectivity/agent_tiny/atiny_lwm2m\atiny_fota_manager.c ****         return ATINY_ERR;
 364:C:/Users/lenovo/Desktop/liteos/Project2/BearPi_LiteOS/components/connectivity/agent_tiny/atiny_lwm2m\atiny_fota_manager.c ****     }
 365:C:/Users/lenovo/Desktop/liteos/Project2/BearPi_LiteOS/components/connectivity/agent_tiny/atiny_lwm2m\atiny_fota_manager.c **** 
 366:C:/Users/lenovo/Desktop/liteos/Project2/BearPi_LiteOS/components/connectivity/agent_tiny/atiny_lwm2m\atiny_fota_manager.c ****     return thi->current->recv_notify_ack(thi->current, status);
  46              		.loc 1 366 0
  47 000c 0369     		ldr	r3, [r0, #16]
  48 000e 9847     		blx	r3
  49              	.LVL2:
  50              	.L1:
 367:C:/Users/lenovo/Desktop/liteos/Project2/BearPi_LiteOS/components/connectivity/agent_tiny/atiny_lwm2m\atiny_fota_manager.c **** }
  51              		.loc 1 367 0
  52 0010 02B0     		add	sp, sp, #8
  53              	.LCFI2:
  54              		.cfi_remember_state
  55              		.cfi_def_cfa_offset 8
  56              		@ sp needed
  57 0012 10BD     		pop	{r4, pc}
  58              	.LVL3:
  59              	.L8:
  60              	.LCFI3:
  61              		.cfi_restore_state
 358:C:/Users/lenovo/Desktop/liteos/Project2/BearPi_LiteOS/components/connectivity/agent_tiny/atiny_lwm2m\atiny_fota_manager.c **** 
  62              		.loc 1 358 0 discriminator 1
  63 0014 FFF7FEFF 		bl	atiny_get_log_level
  64              	.LVL4:
  65 0018 0328     		cmp	r0, #3
  66 001a 02D9     		bls	.L10
 358:C:/Users/lenovo/Desktop/liteos/Project2/BearPi_LiteOS/components/connectivity/agent_tiny/atiny_lwm2m\atiny_fota_manager.c **** 
  67              		.loc 1 358 0 is_stmt 0
  68 001c 4FF0FF30 		mov	r0, #-1
  69 0020 F6E7     		b	.L1
  70              	.L10:
 358:C:/Users/lenovo/Desktop/liteos/Project2/BearPi_LiteOS/components/connectivity/agent_tiny/atiny_lwm2m\atiny_fota_manager.c **** 
  71              		.loc 1 358 0 discriminator 2
  72 0022 0320     		movs	r0, #3
  73 0024 FFF7FEFF 		bl	atiny_get_log_level_name
  74              	.LVL5:
  75 0028 0446     		mov	r4, r0
  76 002a FFF7FEFF 		bl	atiny_gettime_ms
  77              	.LVL6:
  78 002e 4FF4B373 		mov	r3, #358
  79 0032 0093     		str	r3, [sp]
  80 0034 104B     		ldr	r3, .L12
  81 0036 0246     		mov	r2, r0
  82 0038 2146     		mov	r1, r4
  83 003a 1048     		ldr	r0, .L12+4
  84 003c FFF7FEFF 		bl	atiny_printf
  85              	.LVL7:
  86 0040 4FF0FF30 		mov	r0, #-1
  87 0044 E4E7     		b	.L1
ARM GAS  c:\Users\lenovo\AppData\Local\Temp\ccFFGHFi.s 			page 9


  88              	.LVL8:
  89              	.L9:
 362:C:/Users/lenovo/Desktop/liteos/Project2/BearPi_LiteOS/components/connectivity/agent_tiny/atiny_lwm2m\atiny_fota_manager.c ****         return ATINY_ERR;
  90              		.loc 1 362 0 is_stmt 1
  91 0046 FFF7FEFF 		bl	atiny_get_log_level
  92              	.LVL9:
  93 004a 0328     		cmp	r0, #3
  94 004c 02D9     		bls	.L11
 363:C:/Users/lenovo/Desktop/liteos/Project2/BearPi_LiteOS/components/connectivity/agent_tiny/atiny_lwm2m\atiny_fota_manager.c ****     }
  95              		.loc 1 363 0
  96 004e 6FF00800 		mvn	r0, #8
  97 0052 DDE7     		b	.L1
  98              	.L11:
 362:C:/Users/lenovo/Desktop/liteos/Project2/BearPi_LiteOS/components/connectivity/agent_tiny/atiny_lwm2m\atiny_fota_manager.c ****         return ATINY_ERR;
  99              		.loc 1 362 0 discriminator 1
 100 0054 0320     		movs	r0, #3
 101 0056 FFF7FEFF 		bl	atiny_get_log_level_name
 102              	.LVL10:
 103 005a 0446     		mov	r4, r0
 104 005c FFF7FEFF 		bl	atiny_gettime_ms
 105              	.LVL11:
 106 0060 4FF4B573 		mov	r3, #362
 107 0064 0093     		str	r3, [sp]
 108 0066 044B     		ldr	r3, .L12
 109 0068 0246     		mov	r2, r0
 110 006a 2146     		mov	r1, r4
 111 006c 0448     		ldr	r0, .L12+8
 112 006e FFF7FEFF 		bl	atiny_printf
 113              	.LVL12:
 363:C:/Users/lenovo/Desktop/liteos/Project2/BearPi_LiteOS/components/connectivity/agent_tiny/atiny_lwm2m\atiny_fota_manager.c ****     }
 114              		.loc 1 363 0 discriminator 1
 115 0072 6FF00800 		mvn	r0, #8
 116 0076 CBE7     		b	.L1
 117              	.L13:
 118              		.align	2
 119              	.L12:
 120 0078 00000000 		.word	.LANCHOR0
 121 007c 00000000 		.word	.LC0
 122 0080 24000000 		.word	.LC1
 123              		.cfi_endproc
 124              	.LFE164:
 126              		.section	.text.atiny_fota_manager_get_pkg_uri,"ax",%progbits
 127              		.align	1
 128              		.global	atiny_fota_manager_get_pkg_uri
 129              		.syntax unified
 130              		.thumb
 131              		.thumb_func
 132              		.fpu fpv4-sp-d16
 134              	atiny_fota_manager_get_pkg_uri:
 135              	.LFB142:
  66:C:/Users/lenovo/Desktop/liteos/Project2/BearPi_LiteOS/components/connectivity/agent_tiny/atiny_lwm2m\atiny_fota_manager.c ****     ASSERT_THIS(return NULL);
 136              		.loc 1 66 0
 137              		.cfi_startproc
 138              		@ args = 0, pretend = 0, frame = 0
 139              		@ frame_needed = 0, uses_anonymous_args = 0
 140              	.LVL13:
  67:C:/Users/lenovo/Desktop/liteos/Project2/BearPi_LiteOS/components/connectivity/agent_tiny/atiny_lwm2m\atiny_fota_manager.c ****     return thi->pkg_uri;
ARM GAS  c:\Users\lenovo\AppData\Local\Temp\ccFFGHFi.s 			page 10


 141              		.loc 1 67 0
 142 0000 08B1     		cbz	r0, .L22
  68:C:/Users/lenovo/Desktop/liteos/Project2/BearPi_LiteOS/components/connectivity/agent_tiny/atiny_lwm2m\atiny_fota_manager.c **** }
 143              		.loc 1 68 0
 144 0002 0068     		ldr	r0, [r0]
 145              	.LVL14:
  69:C:/Users/lenovo/Desktop/liteos/Project2/BearPi_LiteOS/components/connectivity/agent_tiny/atiny_lwm2m\atiny_fota_manager.c **** int atiny_fota_manager_get_state(const atiny_fota_manager_s *thi)
 146              		.loc 1 69 0
 147 0004 7047     		bx	lr
 148              	.LVL15:
 149              	.L22:
  66:C:/Users/lenovo/Desktop/liteos/Project2/BearPi_LiteOS/components/connectivity/agent_tiny/atiny_lwm2m\atiny_fota_manager.c ****     ASSERT_THIS(return NULL);
 150              		.loc 1 66 0 discriminator 1
 151 0006 10B5     		push	{r4, lr}
 152              	.LCFI4:
 153              		.cfi_def_cfa_offset 8
 154              		.cfi_offset 4, -8
 155              		.cfi_offset 14, -4
 156 0008 82B0     		sub	sp, sp, #8
 157              	.LCFI5:
 158              		.cfi_def_cfa_offset 16
  67:C:/Users/lenovo/Desktop/liteos/Project2/BearPi_LiteOS/components/connectivity/agent_tiny/atiny_lwm2m\atiny_fota_manager.c ****     return thi->pkg_uri;
 159              		.loc 1 67 0 discriminator 1
 160 000a FFF7FEFF 		bl	atiny_get_log_level
 161              	.LVL16:
 162 000e 0328     		cmp	r0, #3
 163 0010 02D9     		bls	.L23
  67:C:/Users/lenovo/Desktop/liteos/Project2/BearPi_LiteOS/components/connectivity/agent_tiny/atiny_lwm2m\atiny_fota_manager.c ****     return thi->pkg_uri;
 164              		.loc 1 67 0 is_stmt 0
 165 0012 0020     		movs	r0, #0
 166              	.L14:
  69:C:/Users/lenovo/Desktop/liteos/Project2/BearPi_LiteOS/components/connectivity/agent_tiny/atiny_lwm2m\atiny_fota_manager.c **** int atiny_fota_manager_get_state(const atiny_fota_manager_s *thi)
 167              		.loc 1 69 0 is_stmt 1
 168 0014 02B0     		add	sp, sp, #8
 169              	.LCFI6:
 170              		.cfi_remember_state
 171              		.cfi_def_cfa_offset 8
 172              		@ sp needed
 173 0016 10BD     		pop	{r4, pc}
 174              	.L23:
 175              	.LCFI7:
 176              		.cfi_restore_state
  67:C:/Users/lenovo/Desktop/liteos/Project2/BearPi_LiteOS/components/connectivity/agent_tiny/atiny_lwm2m\atiny_fota_manager.c ****     return thi->pkg_uri;
 177              		.loc 1 67 0 discriminator 2
 178 0018 0320     		movs	r0, #3
 179 001a FFF7FEFF 		bl	atiny_get_log_level_name
 180              	.LVL17:
 181 001e 0446     		mov	r4, r0
 182 0020 FFF7FEFF 		bl	atiny_gettime_ms
 183              	.LVL18:
 184 0024 4323     		movs	r3, #67
 185 0026 0093     		str	r3, [sp]
 186 0028 034B     		ldr	r3, .L24
 187 002a 0246     		mov	r2, r0
 188 002c 2146     		mov	r1, r4
 189 002e 0348     		ldr	r0, .L24+4
 190 0030 FFF7FEFF 		bl	atiny_printf
ARM GAS  c:\Users\lenovo\AppData\Local\Temp\ccFFGHFi.s 			page 11


 191              	.LVL19:
 192 0034 0020     		movs	r0, #0
 193 0036 EDE7     		b	.L14
 194              	.L25:
 195              		.align	2
 196              	.L24:
 197 0038 00000000 		.word	.LANCHOR1
 198 003c 00000000 		.word	.LC0
 199              		.cfi_endproc
 200              	.LFE142:
 202              		.section	.text.atiny_fota_manager_get_state,"ax",%progbits
 203              		.align	1
 204              		.global	atiny_fota_manager_get_state
 205              		.syntax unified
 206              		.thumb
 207              		.thumb_func
 208              		.fpu fpv4-sp-d16
 210              	atiny_fota_manager_get_state:
 211              	.LFB143:
  71:C:/Users/lenovo/Desktop/liteos/Project2/BearPi_LiteOS/components/connectivity/agent_tiny/atiny_lwm2m\atiny_fota_manager.c ****     ASSERT_THIS(return ATINY_FOTA_IDLE);
 212              		.loc 1 71 0
 213              		.cfi_startproc
 214              		@ args = 0, pretend = 0, frame = 0
 215              		@ frame_needed = 0, uses_anonymous_args = 0
 216              	.LVL20:
  72:C:/Users/lenovo/Desktop/liteos/Project2/BearPi_LiteOS/components/connectivity/agent_tiny/atiny_lwm2m\atiny_fota_manager.c ****     return thi->state;
 217              		.loc 1 72 0
 218 0000 08B1     		cbz	r0, .L34
  73:C:/Users/lenovo/Desktop/liteos/Project2/BearPi_LiteOS/components/connectivity/agent_tiny/atiny_lwm2m\atiny_fota_manager.c **** }
 219              		.loc 1 73 0
 220 0002 4068     		ldr	r0, [r0, #4]
 221              	.LVL21:
  74:C:/Users/lenovo/Desktop/liteos/Project2/BearPi_LiteOS/components/connectivity/agent_tiny/atiny_lwm2m\atiny_fota_manager.c **** 
 222              		.loc 1 74 0
 223 0004 7047     		bx	lr
 224              	.LVL22:
 225              	.L34:
  71:C:/Users/lenovo/Desktop/liteos/Project2/BearPi_LiteOS/components/connectivity/agent_tiny/atiny_lwm2m\atiny_fota_manager.c ****     ASSERT_THIS(return ATINY_FOTA_IDLE);
 226              		.loc 1 71 0 discriminator 1
 227 0006 10B5     		push	{r4, lr}
 228              	.LCFI8:
 229              		.cfi_def_cfa_offset 8
 230              		.cfi_offset 4, -8
 231              		.cfi_offset 14, -4
 232 0008 82B0     		sub	sp, sp, #8
 233              	.LCFI9:
 234              		.cfi_def_cfa_offset 16
  72:C:/Users/lenovo/Desktop/liteos/Project2/BearPi_LiteOS/components/connectivity/agent_tiny/atiny_lwm2m\atiny_fota_manager.c ****     return thi->state;
 235              		.loc 1 72 0 discriminator 1
 236 000a FFF7FEFF 		bl	atiny_get_log_level
 237              	.LVL23:
 238 000e 0328     		cmp	r0, #3
 239 0010 02D9     		bls	.L35
  72:C:/Users/lenovo/Desktop/liteos/Project2/BearPi_LiteOS/components/connectivity/agent_tiny/atiny_lwm2m\atiny_fota_manager.c ****     return thi->state;
 240              		.loc 1 72 0 is_stmt 0
 241 0012 0020     		movs	r0, #0
 242              	.L26:
ARM GAS  c:\Users\lenovo\AppData\Local\Temp\ccFFGHFi.s 			page 12


  74:C:/Users/lenovo/Desktop/liteos/Project2/BearPi_LiteOS/components/connectivity/agent_tiny/atiny_lwm2m\atiny_fota_manager.c **** 
 243              		.loc 1 74 0 is_stmt 1
 244 0014 02B0     		add	sp, sp, #8
 245              	.LCFI10:
 246              		.cfi_remember_state
 247              		.cfi_def_cfa_offset 8
 248              		@ sp needed
 249 0016 10BD     		pop	{r4, pc}
 250              	.L35:
 251              	.LCFI11:
 252              		.cfi_restore_state
  72:C:/Users/lenovo/Desktop/liteos/Project2/BearPi_LiteOS/components/connectivity/agent_tiny/atiny_lwm2m\atiny_fota_manager.c ****     return thi->state;
 253              		.loc 1 72 0 discriminator 2
 254 0018 0320     		movs	r0, #3
 255 001a FFF7FEFF 		bl	atiny_get_log_level_name
 256              	.LVL24:
 257 001e 0446     		mov	r4, r0
 258 0020 FFF7FEFF 		bl	atiny_gettime_ms
 259              	.LVL25:
 260 0024 4823     		movs	r3, #72
 261 0026 0093     		str	r3, [sp]
 262 0028 034B     		ldr	r3, .L36
 263 002a 0246     		mov	r2, r0
 264 002c 2146     		mov	r1, r4
 265 002e 0348     		ldr	r0, .L36+4
 266 0030 FFF7FEFF 		bl	atiny_printf
 267              	.LVL26:
 268 0034 0020     		movs	r0, #0
 269 0036 EDE7     		b	.L26
 270              	.L37:
 271              		.align	2
 272              	.L36:
 273 0038 00000000 		.word	.LANCHOR2
 274 003c 00000000 		.word	.LC0
 275              		.cfi_endproc
 276              	.LFE143:
 278              		.section	.text.atiny_fota_manager_get_rpt_state,"ax",%progbits
 279              		.align	1
 280              		.global	atiny_fota_manager_get_rpt_state
 281              		.syntax unified
 282              		.thumb
 283              		.thumb_func
 284              		.fpu fpv4-sp-d16
 286              	atiny_fota_manager_get_rpt_state:
 287              	.LFB144:
  77:C:/Users/lenovo/Desktop/liteos/Project2/BearPi_LiteOS/components/connectivity/agent_tiny/atiny_lwm2m\atiny_fota_manager.c ****     ASSERT_THIS(return ATINY_FOTA_IDLE);
 288              		.loc 1 77 0
 289              		.cfi_startproc
 290              		@ args = 0, pretend = 0, frame = 0
 291              		@ frame_needed = 0, uses_anonymous_args = 0
 292              	.LVL27:
  78:C:/Users/lenovo/Desktop/liteos/Project2/BearPi_LiteOS/components/connectivity/agent_tiny/atiny_lwm2m\atiny_fota_manager.c ****     return thi->rpt_state;
 293              		.loc 1 78 0
 294 0000 10B1     		cbz	r0, .L46
  79:C:/Users/lenovo/Desktop/liteos/Project2/BearPi_LiteOS/components/connectivity/agent_tiny/atiny_lwm2m\atiny_fota_manager.c **** }
 295              		.loc 1 79 0
 296 0002 D0F89C00 		ldr	r0, [r0, #156]
ARM GAS  c:\Users\lenovo\AppData\Local\Temp\ccFFGHFi.s 			page 13


 297              	.LVL28:
  80:C:/Users/lenovo/Desktop/liteos/Project2/BearPi_LiteOS/components/connectivity/agent_tiny/atiny_lwm2m\atiny_fota_manager.c **** 
 298              		.loc 1 80 0
 299 0006 7047     		bx	lr
 300              	.LVL29:
 301              	.L46:
  77:C:/Users/lenovo/Desktop/liteos/Project2/BearPi_LiteOS/components/connectivity/agent_tiny/atiny_lwm2m\atiny_fota_manager.c ****     ASSERT_THIS(return ATINY_FOTA_IDLE);
 302              		.loc 1 77 0 discriminator 1
 303 0008 10B5     		push	{r4, lr}
 304              	.LCFI12:
 305              		.cfi_def_cfa_offset 8
 306              		.cfi_offset 4, -8
 307              		.cfi_offset 14, -4
 308 000a 82B0     		sub	sp, sp, #8
 309              	.LCFI13:
 310              		.cfi_def_cfa_offset 16
  78:C:/Users/lenovo/Desktop/liteos/Project2/BearPi_LiteOS/components/connectivity/agent_tiny/atiny_lwm2m\atiny_fota_manager.c ****     return thi->rpt_state;
 311              		.loc 1 78 0 discriminator 1
 312 000c FFF7FEFF 		bl	atiny_get_log_level
 313              	.LVL30:
 314 0010 0328     		cmp	r0, #3
 315 0012 02D9     		bls	.L47
  78:C:/Users/lenovo/Desktop/liteos/Project2/BearPi_LiteOS/components/connectivity/agent_tiny/atiny_lwm2m\atiny_fota_manager.c ****     return thi->rpt_state;
 316              		.loc 1 78 0 is_stmt 0
 317 0014 0020     		movs	r0, #0
 318              	.L38:
  80:C:/Users/lenovo/Desktop/liteos/Project2/BearPi_LiteOS/components/connectivity/agent_tiny/atiny_lwm2m\atiny_fota_manager.c **** 
 319              		.loc 1 80 0 is_stmt 1
 320 0016 02B0     		add	sp, sp, #8
 321              	.LCFI14:
 322              		.cfi_remember_state
 323              		.cfi_def_cfa_offset 8
 324              		@ sp needed
 325 0018 10BD     		pop	{r4, pc}
 326              	.L47:
 327              	.LCFI15:
 328              		.cfi_restore_state
  78:C:/Users/lenovo/Desktop/liteos/Project2/BearPi_LiteOS/components/connectivity/agent_tiny/atiny_lwm2m\atiny_fota_manager.c ****     return thi->rpt_state;
 329              		.loc 1 78 0 discriminator 2
 330 001a 0320     		movs	r0, #3
 331 001c FFF7FEFF 		bl	atiny_get_log_level_name
 332              	.LVL31:
 333 0020 0446     		mov	r4, r0
 334 0022 FFF7FEFF 		bl	atiny_gettime_ms
 335              	.LVL32:
 336 0026 4E23     		movs	r3, #78
 337 0028 0093     		str	r3, [sp]
 338 002a 044B     		ldr	r3, .L48
 339 002c 0246     		mov	r2, r0
 340 002e 2146     		mov	r1, r4
 341 0030 0348     		ldr	r0, .L48+4
 342 0032 FFF7FEFF 		bl	atiny_printf
 343              	.LVL33:
 344 0036 0020     		movs	r0, #0
 345 0038 EDE7     		b	.L38
 346              	.L49:
 347 003a 00BF     		.align	2
ARM GAS  c:\Users\lenovo\AppData\Local\Temp\ccFFGHFi.s 			page 14


 348              	.L48:
 349 003c 00000000 		.word	.LANCHOR3
 350 0040 00000000 		.word	.LC0
 351              		.cfi_endproc
 352              	.LFE144:
 354              		.section	.text.atiny_fota_manager_get_update_result,"ax",%progbits
 355              		.align	1
 356              		.global	atiny_fota_manager_get_update_result
 357              		.syntax unified
 358              		.thumb
 359              		.thumb_func
 360              		.fpu fpv4-sp-d16
 362              	atiny_fota_manager_get_update_result:
 363              	.LFB145:
  83:C:/Users/lenovo/Desktop/liteos/Project2/BearPi_LiteOS/components/connectivity/agent_tiny/atiny_lwm2m\atiny_fota_manager.c ****     ASSERT_THIS(return ATINY_FIRMWARE_UPDATE_NULL);
 364              		.loc 1 83 0
 365              		.cfi_startproc
 366              		@ args = 0, pretend = 0, frame = 0
 367              		@ frame_needed = 0, uses_anonymous_args = 0
 368              	.LVL34:
  84:C:/Users/lenovo/Desktop/liteos/Project2/BearPi_LiteOS/components/connectivity/agent_tiny/atiny_lwm2m\atiny_fota_manager.c ****     return thi->update_result;
 369              		.loc 1 84 0
 370 0000 08B1     		cbz	r0, .L58
  85:C:/Users/lenovo/Desktop/liteos/Project2/BearPi_LiteOS/components/connectivity/agent_tiny/atiny_lwm2m\atiny_fota_manager.c **** }
 371              		.loc 1 85 0
 372 0002 8068     		ldr	r0, [r0, #8]
 373              	.LVL35:
  86:C:/Users/lenovo/Desktop/liteos/Project2/BearPi_LiteOS/components/connectivity/agent_tiny/atiny_lwm2m\atiny_fota_manager.c **** void atiny_fota_manager_set_update_result(atiny_fota_manager_s *thi, atiny_update_result_e result)
 374              		.loc 1 86 0
 375 0004 7047     		bx	lr
 376              	.LVL36:
 377              	.L58:
  83:C:/Users/lenovo/Desktop/liteos/Project2/BearPi_LiteOS/components/connectivity/agent_tiny/atiny_lwm2m\atiny_fota_manager.c ****     ASSERT_THIS(return ATINY_FIRMWARE_UPDATE_NULL);
 378              		.loc 1 83 0 discriminator 1
 379 0006 10B5     		push	{r4, lr}
 380              	.LCFI16:
 381              		.cfi_def_cfa_offset 8
 382              		.cfi_offset 4, -8
 383              		.cfi_offset 14, -4
 384 0008 82B0     		sub	sp, sp, #8
 385              	.LCFI17:
 386              		.cfi_def_cfa_offset 16
  84:C:/Users/lenovo/Desktop/liteos/Project2/BearPi_LiteOS/components/connectivity/agent_tiny/atiny_lwm2m\atiny_fota_manager.c ****     return thi->update_result;
 387              		.loc 1 84 0 discriminator 1
 388 000a FFF7FEFF 		bl	atiny_get_log_level
 389              	.LVL37:
 390 000e 0328     		cmp	r0, #3
 391 0010 02D9     		bls	.L59
  84:C:/Users/lenovo/Desktop/liteos/Project2/BearPi_LiteOS/components/connectivity/agent_tiny/atiny_lwm2m\atiny_fota_manager.c ****     return thi->update_result;
 392              		.loc 1 84 0 is_stmt 0
 393 0012 0020     		movs	r0, #0
 394              	.L50:
  86:C:/Users/lenovo/Desktop/liteos/Project2/BearPi_LiteOS/components/connectivity/agent_tiny/atiny_lwm2m\atiny_fota_manager.c **** void atiny_fota_manager_set_update_result(atiny_fota_manager_s *thi, atiny_update_result_e result)
 395              		.loc 1 86 0 is_stmt 1
 396 0014 02B0     		add	sp, sp, #8
 397              	.LCFI18:
 398              		.cfi_remember_state
ARM GAS  c:\Users\lenovo\AppData\Local\Temp\ccFFGHFi.s 			page 15


 399              		.cfi_def_cfa_offset 8
 400              		@ sp needed
 401 0016 10BD     		pop	{r4, pc}
 402              	.L59:
 403              	.LCFI19:
 404              		.cfi_restore_state
  84:C:/Users/lenovo/Desktop/liteos/Project2/BearPi_LiteOS/components/connectivity/agent_tiny/atiny_lwm2m\atiny_fota_manager.c ****     return thi->update_result;
 405              		.loc 1 84 0 discriminator 2
 406 0018 0320     		movs	r0, #3
 407 001a FFF7FEFF 		bl	atiny_get_log_level_name
 408              	.LVL38:
 409 001e 0446     		mov	r4, r0
 410 0020 FFF7FEFF 		bl	atiny_gettime_ms
 411              	.LVL39:
 412 0024 5423     		movs	r3, #84
 413 0026 0093     		str	r3, [sp]
 414 0028 034B     		ldr	r3, .L60
 415 002a 0246     		mov	r2, r0
 416 002c 2146     		mov	r1, r4
 417 002e 0348     		ldr	r0, .L60+4
 418 0030 FFF7FEFF 		bl	atiny_printf
 419              	.LVL40:
 420 0034 0020     		movs	r0, #0
 421 0036 EDE7     		b	.L50
 422              	.L61:
 423              		.align	2
 424              	.L60:
 425 0038 00000000 		.word	.LANCHOR4
 426 003c 00000000 		.word	.LC0
 427              		.cfi_endproc
 428              	.LFE145:
 430              		.section	.text.atiny_fota_manager_set_update_result,"ax",%progbits
 431              		.align	1
 432              		.global	atiny_fota_manager_set_update_result
 433              		.syntax unified
 434              		.thumb
 435              		.thumb_func
 436              		.fpu fpv4-sp-d16
 438              	atiny_fota_manager_set_update_result:
 439              	.LFB146:
  88:C:/Users/lenovo/Desktop/liteos/Project2/BearPi_LiteOS/components/connectivity/agent_tiny/atiny_lwm2m\atiny_fota_manager.c ****     ASSERT_THIS(return);
 440              		.loc 1 88 0
 441              		.cfi_startproc
 442              		@ args = 0, pretend = 0, frame = 0
 443              		@ frame_needed = 0, uses_anonymous_args = 0
 444              	.LVL41:
  89:C:/Users/lenovo/Desktop/liteos/Project2/BearPi_LiteOS/components/connectivity/agent_tiny/atiny_lwm2m\atiny_fota_manager.c ****     thi->update_result = result;
 445              		.loc 1 89 0
 446 0000 08B1     		cbz	r0, .L69
  90:C:/Users/lenovo/Desktop/liteos/Project2/BearPi_LiteOS/components/connectivity/agent_tiny/atiny_lwm2m\atiny_fota_manager.c **** }
 447              		.loc 1 90 0
 448 0002 8160     		str	r1, [r0, #8]
 449 0004 7047     		bx	lr
 450              	.L69:
  88:C:/Users/lenovo/Desktop/liteos/Project2/BearPi_LiteOS/components/connectivity/agent_tiny/atiny_lwm2m\atiny_fota_manager.c ****     ASSERT_THIS(return);
 451              		.loc 1 88 0 discriminator 1
 452 0006 10B5     		push	{r4, lr}
ARM GAS  c:\Users\lenovo\AppData\Local\Temp\ccFFGHFi.s 			page 16


 453              	.LCFI20:
 454              		.cfi_def_cfa_offset 8
 455              		.cfi_offset 4, -8
 456              		.cfi_offset 14, -4
 457 0008 82B0     		sub	sp, sp, #8
 458              	.LCFI21:
 459              		.cfi_def_cfa_offset 16
  89:C:/Users/lenovo/Desktop/liteos/Project2/BearPi_LiteOS/components/connectivity/agent_tiny/atiny_lwm2m\atiny_fota_manager.c ****     thi->update_result = result;
 460              		.loc 1 89 0 discriminator 1
 461 000a FFF7FEFF 		bl	atiny_get_log_level
 462              	.LVL42:
 463 000e 0328     		cmp	r0, #3
 464 0010 01D9     		bls	.L70
 465              	.L62:
  91:C:/Users/lenovo/Desktop/liteos/Project2/BearPi_LiteOS/components/connectivity/agent_tiny/atiny_lwm2m\atiny_fota_manager.c **** 
 466              		.loc 1 91 0
 467 0012 02B0     		add	sp, sp, #8
 468              	.LCFI22:
 469              		.cfi_remember_state
 470              		.cfi_def_cfa_offset 8
 471              		@ sp needed
 472 0014 10BD     		pop	{r4, pc}
 473              	.L70:
 474              	.LCFI23:
 475              		.cfi_restore_state
  89:C:/Users/lenovo/Desktop/liteos/Project2/BearPi_LiteOS/components/connectivity/agent_tiny/atiny_lwm2m\atiny_fota_manager.c ****     thi->update_result = result;
 476              		.loc 1 89 0 discriminator 2
 477 0016 0320     		movs	r0, #3
 478 0018 FFF7FEFF 		bl	atiny_get_log_level_name
 479              	.LVL43:
 480 001c 0446     		mov	r4, r0
 481 001e FFF7FEFF 		bl	atiny_gettime_ms
 482              	.LVL44:
 483 0022 5923     		movs	r3, #89
 484 0024 0093     		str	r3, [sp]
 485 0026 034B     		ldr	r3, .L71
 486 0028 0246     		mov	r2, r0
 487 002a 2146     		mov	r1, r4
 488 002c 0248     		ldr	r0, .L71+4
 489 002e FFF7FEFF 		bl	atiny_printf
 490              	.LVL45:
 491 0032 EEE7     		b	.L62
 492              	.L72:
 493              		.align	2
 494              	.L71:
 495 0034 00000000 		.word	.LANCHOR5
 496 0038 00000000 		.word	.LC0
 497              		.cfi_endproc
 498              	.LFE146:
 500              		.section	.text.atiny_fota_manager_get_deliver_method,"ax",%progbits
 501              		.align	1
 502              		.global	atiny_fota_manager_get_deliver_method
 503              		.syntax unified
 504              		.thumb
 505              		.thumb_func
 506              		.fpu fpv4-sp-d16
 508              	atiny_fota_manager_get_deliver_method:
ARM GAS  c:\Users\lenovo\AppData\Local\Temp\ccFFGHFi.s 			page 17


 509              	.LFB147:
  94:C:/Users/lenovo/Desktop/liteos/Project2/BearPi_LiteOS/components/connectivity/agent_tiny/atiny_lwm2m\atiny_fota_manager.c ****     return
 510              		.loc 1 94 0
 511              		.cfi_startproc
 512              		@ args = 0, pretend = 0, frame = 0
 513              		@ frame_needed = 0, uses_anonymous_args = 0
 514              		@ link register save eliminated.
 515              	.LVL46:
  97:C:/Users/lenovo/Desktop/liteos/Project2/BearPi_LiteOS/components/connectivity/agent_tiny/atiny_lwm2m\atiny_fota_manager.c **** int atiny_fota_manager_start_download(atiny_fota_manager_s *thi, const char *uri, uint32_t len)
 516              		.loc 1 97 0
 517 0000 0020     		movs	r0, #0
 518              	.LVL47:
 519 0002 7047     		bx	lr
 520              		.cfi_endproc
 521              	.LFE147:
 523              		.section	.text.atiny_fota_manager_start_download,"ax",%progbits
 524              		.align	1
 525              		.global	atiny_fota_manager_start_download
 526              		.syntax unified
 527              		.thumb
 528              		.thumb_func
 529              		.fpu fpv4-sp-d16
 531              	atiny_fota_manager_start_download:
 532              	.LFB148:
  99:C:/Users/lenovo/Desktop/liteos/Project2/BearPi_LiteOS/components/connectivity/agent_tiny/atiny_lwm2m\atiny_fota_manager.c **** 
 533              		.loc 1 99 0
 534              		.cfi_startproc
 535              		@ args = 0, pretend = 0, frame = 0
 536              		@ frame_needed = 0, uses_anonymous_args = 0
 537              	.LVL48:
 538 0000 70B5     		push	{r4, r5, r6, lr}
 539              	.LCFI24:
 540              		.cfi_def_cfa_offset 16
 541              		.cfi_offset 4, -16
 542              		.cfi_offset 5, -12
 543              		.cfi_offset 6, -8
 544              		.cfi_offset 14, -4
 545 0002 84B0     		sub	sp, sp, #16
 546              	.LCFI25:
 547              		.cfi_def_cfa_offset 32
 101:C:/Users/lenovo/Desktop/liteos/Project2/BearPi_LiteOS/components/connectivity/agent_tiny/atiny_lwm2m\atiny_fota_manager.c ****     if(thi->state != thi->rpt_state)
 548              		.loc 1 101 0
 549 0004 50B3     		cbz	r0, .L88
 550 0006 0E46     		mov	r6, r1
 551 0008 1546     		mov	r5, r2
 552 000a 0446     		mov	r4, r0
 102:C:/Users/lenovo/Desktop/liteos/Project2/BearPi_LiteOS/components/connectivity/agent_tiny/atiny_lwm2m\atiny_fota_manager.c ****     {
 553              		.loc 1 102 0
 554 000c 4268     		ldr	r2, [r0, #4]
 555              	.LVL49:
 556 000e D0F89C30 		ldr	r3, [r0, #156]
 557 0012 9A42     		cmp	r2, r3
 558 0014 3AD1     		bne	.L89
 109:C:/Users/lenovo/Desktop/liteos/Project2/BearPi_LiteOS/components/connectivity/agent_tiny/atiny_lwm2m\atiny_fota_manager.c ****     {
 559              		.loc 1 109 0
 560 0016 D0F88830 		ldr	r3, [r0, #136]
 561 001a 002B     		cmp	r3, #0
ARM GAS  c:\Users\lenovo\AppData\Local\Temp\ccFFGHFi.s 			page 18


 562 001c 54D0     		beq	.L78
 109:C:/Users/lenovo/Desktop/liteos/Project2/BearPi_LiteOS/components/connectivity/agent_tiny/atiny_lwm2m\atiny_fota_manager.c ****     {
 563              		.loc 1 109 0 is_stmt 0 discriminator 1
 564 001e 0029     		cmp	r1, #0
 565 0020 52D0     		beq	.L78
 115:C:/Users/lenovo/Desktop/liteos/Project2/BearPi_LiteOS/components/connectivity/agent_tiny/atiny_lwm2m\atiny_fota_manager.c ****     {
 566              		.loc 1 115 0 is_stmt 1
 567 0022 0068     		ldr	r0, [r0]
 568              	.LVL50:
 569 0024 18B1     		cbz	r0, .L80
 117:C:/Users/lenovo/Desktop/liteos/Project2/BearPi_LiteOS/components/connectivity/agent_tiny/atiny_lwm2m\atiny_fota_manager.c ****         thi->pkg_uri = NULL;
 570              		.loc 1 117 0
 571 0026 FFF7FEFF 		bl	atiny_free
 572              	.LVL51:
 118:C:/Users/lenovo/Desktop/liteos/Project2/BearPi_LiteOS/components/connectivity/agent_tiny/atiny_lwm2m\atiny_fota_manager.c ****     }
 573              		.loc 1 118 0
 574 002a 0023     		movs	r3, #0
 575 002c 2360     		str	r3, [r4]
 576              	.L80:
 120:C:/Users/lenovo/Desktop/liteos/Project2/BearPi_LiteOS/components/connectivity/agent_tiny/atiny_lwm2m\atiny_fota_manager.c ****     if(NULL == thi->pkg_uri)
 577              		.loc 1 120 0
 578 002e 681C     		adds	r0, r5, #1
 579 0030 FFF7FEFF 		bl	atiny_malloc
 580              	.LVL52:
 581 0034 2060     		str	r0, [r4]
 121:C:/Users/lenovo/Desktop/liteos/Project2/BearPi_LiteOS/components/connectivity/agent_tiny/atiny_lwm2m\atiny_fota_manager.c ****     {
 582              		.loc 1 121 0
 583 0036 0028     		cmp	r0, #0
 584 0038 5ED0     		beq	.L90
 126:C:/Users/lenovo/Desktop/liteos/Project2/BearPi_LiteOS/components/connectivity/agent_tiny/atiny_lwm2m\atiny_fota_manager.c ****     thi->pkg_uri[len] = '\0';
 585              		.loc 1 126 0
 586 003a 2A46     		mov	r2, r5
 587 003c 3146     		mov	r1, r6
 588 003e FFF7FEFF 		bl	memcpy
 589              	.LVL53:
 127:C:/Users/lenovo/Desktop/liteos/Project2/BearPi_LiteOS/components/connectivity/agent_tiny/atiny_lwm2m\atiny_fota_manager.c ****     ATINY_LOG(LOG_INFO, "start download");
 590              		.loc 1 127 0
 591 0042 2368     		ldr	r3, [r4]
 592 0044 0022     		movs	r2, #0
 593 0046 5A55     		strb	r2, [r3, r5]
 128:C:/Users/lenovo/Desktop/liteos/Project2/BearPi_LiteOS/components/connectivity/agent_tiny/atiny_lwm2m\atiny_fota_manager.c ****     return thi->current->start_download(thi->current, thi->pkg_uri);
 594              		.loc 1 128 0
 595 0048 FFF7FEFF 		bl	atiny_get_log_level
 596              	.LVL54:
 597 004c 0128     		cmp	r0, #1
 598 004e 6BD9     		bls	.L91
 599              	.LVL55:
 600              	.L82:
 129:C:/Users/lenovo/Desktop/liteos/Project2/BearPi_LiteOS/components/connectivity/agent_tiny/atiny_lwm2m\atiny_fota_manager.c **** }
 601              		.loc 1 129 0
 602 0050 D4F88800 		ldr	r0, [r4, #136]
 603 0054 0368     		ldr	r3, [r0]
 604 0056 2168     		ldr	r1, [r4]
 605 0058 9847     		blx	r3
 606              	.LVL56:
 607 005a 1DE0     		b	.L74
 608              	.LVL57:
ARM GAS  c:\Users\lenovo\AppData\Local\Temp\ccFFGHFi.s 			page 19


 609              	.L88:
 101:C:/Users/lenovo/Desktop/liteos/Project2/BearPi_LiteOS/components/connectivity/agent_tiny/atiny_lwm2m\atiny_fota_manager.c ****     if(thi->state != thi->rpt_state)
 610              		.loc 1 101 0 discriminator 1
 611 005c FFF7FEFF 		bl	atiny_get_log_level
 612              	.LVL58:
 613 0060 0328     		cmp	r0, #3
 614 0062 02D9     		bls	.L92
 101:C:/Users/lenovo/Desktop/liteos/Project2/BearPi_LiteOS/components/connectivity/agent_tiny/atiny_lwm2m\atiny_fota_manager.c ****     if(thi->state != thi->rpt_state)
 615              		.loc 1 101 0 is_stmt 0
 616 0064 4FF0FF30 		mov	r0, #-1
 617 0068 16E0     		b	.L74
 618              	.L92:
 101:C:/Users/lenovo/Desktop/liteos/Project2/BearPi_LiteOS/components/connectivity/agent_tiny/atiny_lwm2m\atiny_fota_manager.c ****     if(thi->state != thi->rpt_state)
 619              		.loc 1 101 0 discriminator 2
 620 006a 0320     		movs	r0, #3
 621 006c FFF7FEFF 		bl	atiny_get_log_level_name
 622              	.LVL59:
 623 0070 0446     		mov	r4, r0
 624 0072 FFF7FEFF 		bl	atiny_gettime_ms
 625              	.LVL60:
 626 0076 6523     		movs	r3, #101
 627 0078 0093     		str	r3, [sp]
 628 007a 334B     		ldr	r3, .L96
 629 007c 0246     		mov	r2, r0
 630 007e 2146     		mov	r1, r4
 631 0080 3248     		ldr	r0, .L96+4
 632 0082 FFF7FEFF 		bl	atiny_printf
 633              	.LVL61:
 634 0086 4FF0FF30 		mov	r0, #-1
 635 008a 05E0     		b	.L74
 636              	.LVL62:
 637              	.L89:
 104:C:/Users/lenovo/Desktop/liteos/Project2/BearPi_LiteOS/components/connectivity/agent_tiny/atiny_lwm2m\atiny_fota_manager.c ****                   thi->state, thi->rpt_state);
 638              		.loc 1 104 0 is_stmt 1
 639 008c FFF7FEFF 		bl	atiny_get_log_level
 640              	.LVL63:
 641 0090 0328     		cmp	r0, #3
 642 0092 03D9     		bls	.L93
 106:C:/Users/lenovo/Desktop/liteos/Project2/BearPi_LiteOS/components/connectivity/agent_tiny/atiny_lwm2m\atiny_fota_manager.c ****     }
 643              		.loc 1 106 0
 644 0094 6FF00800 		mvn	r0, #8
 645              	.LVL64:
 646              	.L74:
 130:C:/Users/lenovo/Desktop/liteos/Project2/BearPi_LiteOS/components/connectivity/agent_tiny/atiny_lwm2m\atiny_fota_manager.c **** int atiny_fota_manager_execute_update(atiny_fota_manager_s *thi)
 647              		.loc 1 130 0
 648 0098 04B0     		add	sp, sp, #16
 649              	.LCFI26:
 650              		.cfi_remember_state
 651              		.cfi_def_cfa_offset 16
 652              		@ sp needed
 653 009a 70BD     		pop	{r4, r5, r6, pc}
 654              	.LVL65:
 655              	.L93:
 656              	.LCFI27:
 657              		.cfi_restore_state
 104:C:/Users/lenovo/Desktop/liteos/Project2/BearPi_LiteOS/components/connectivity/agent_tiny/atiny_lwm2m\atiny_fota_manager.c ****                   thi->state, thi->rpt_state);
 658              		.loc 1 104 0 discriminator 1
ARM GAS  c:\Users\lenovo\AppData\Local\Temp\ccFFGHFi.s 			page 20


 659 009c 0320     		movs	r0, #3
 660 009e FFF7FEFF 		bl	atiny_get_log_level_name
 661              	.LVL66:
 662 00a2 0546     		mov	r5, r0
 663              	.LVL67:
 664 00a4 FFF7FEFF 		bl	atiny_gettime_ms
 665              	.LVL68:
 666 00a8 6368     		ldr	r3, [r4, #4]
 667 00aa D4F89C20 		ldr	r2, [r4, #156]
 668 00ae 0292     		str	r2, [sp, #8]
 669 00b0 0193     		str	r3, [sp, #4]
 670 00b2 6923     		movs	r3, #105
 671 00b4 0093     		str	r3, [sp]
 672 00b6 244B     		ldr	r3, .L96
 673 00b8 0246     		mov	r2, r0
 674 00ba 2946     		mov	r1, r5
 675 00bc 2448     		ldr	r0, .L96+8
 676 00be FFF7FEFF 		bl	atiny_printf
 677              	.LVL69:
 106:C:/Users/lenovo/Desktop/liteos/Project2/BearPi_LiteOS/components/connectivity/agent_tiny/atiny_lwm2m\atiny_fota_manager.c ****     }
 678              		.loc 1 106 0 discriminator 1
 679 00c2 6FF00800 		mvn	r0, #8
 680 00c6 E7E7     		b	.L74
 681              	.LVL70:
 682              	.L78:
 111:C:/Users/lenovo/Desktop/liteos/Project2/BearPi_LiteOS/components/connectivity/agent_tiny/atiny_lwm2m\atiny_fota_manager.c ****         return ATINY_ERR;
 683              		.loc 1 111 0
 684 00c8 FFF7FEFF 		bl	atiny_get_log_level
 685              	.LVL71:
 686 00cc 0328     		cmp	r0, #3
 687 00ce 02D9     		bls	.L94
 112:C:/Users/lenovo/Desktop/liteos/Project2/BearPi_LiteOS/components/connectivity/agent_tiny/atiny_lwm2m\atiny_fota_manager.c ****     }
 688              		.loc 1 112 0
 689 00d0 6FF00800 		mvn	r0, #8
 690 00d4 E0E7     		b	.L74
 691              	.L94:
 111:C:/Users/lenovo/Desktop/liteos/Project2/BearPi_LiteOS/components/connectivity/agent_tiny/atiny_lwm2m\atiny_fota_manager.c ****         return ATINY_ERR;
 692              		.loc 1 111 0 discriminator 1
 693 00d6 0320     		movs	r0, #3
 694 00d8 FFF7FEFF 		bl	atiny_get_log_level_name
 695              	.LVL72:
 696 00dc 0446     		mov	r4, r0
 697              	.LVL73:
 698 00de FFF7FEFF 		bl	atiny_gettime_ms
 699              	.LVL74:
 700 00e2 6F23     		movs	r3, #111
 701 00e4 0093     		str	r3, [sp]
 702 00e6 184B     		ldr	r3, .L96
 703 00e8 0246     		mov	r2, r0
 704 00ea 2146     		mov	r1, r4
 705 00ec 1948     		ldr	r0, .L96+12
 706 00ee FFF7FEFF 		bl	atiny_printf
 707              	.LVL75:
 112:C:/Users/lenovo/Desktop/liteos/Project2/BearPi_LiteOS/components/connectivity/agent_tiny/atiny_lwm2m\atiny_fota_manager.c ****     }
 708              		.loc 1 112 0 discriminator 1
 709 00f2 6FF00800 		mvn	r0, #8
 710 00f6 CFE7     		b	.L74
ARM GAS  c:\Users\lenovo\AppData\Local\Temp\ccFFGHFi.s 			page 21


 711              	.LVL76:
 712              	.L90:
 123:C:/Users/lenovo/Desktop/liteos/Project2/BearPi_LiteOS/components/connectivity/agent_tiny/atiny_lwm2m\atiny_fota_manager.c ****         return ATINY_ERR;
 713              		.loc 1 123 0
 714 00f8 FFF7FEFF 		bl	atiny_get_log_level
 715              	.LVL77:
 716 00fc 0328     		cmp	r0, #3
 717 00fe 02D9     		bls	.L95
 124:C:/Users/lenovo/Desktop/liteos/Project2/BearPi_LiteOS/components/connectivity/agent_tiny/atiny_lwm2m\atiny_fota_manager.c ****     }
 718              		.loc 1 124 0
 719 0100 6FF00800 		mvn	r0, #8
 720 0104 C8E7     		b	.L74
 721              	.L95:
 123:C:/Users/lenovo/Desktop/liteos/Project2/BearPi_LiteOS/components/connectivity/agent_tiny/atiny_lwm2m\atiny_fota_manager.c ****         return ATINY_ERR;
 722              		.loc 1 123 0 discriminator 1
 723 0106 0320     		movs	r0, #3
 724 0108 FFF7FEFF 		bl	atiny_get_log_level_name
 725              	.LVL78:
 726 010c 0446     		mov	r4, r0
 727              	.LVL79:
 728 010e FFF7FEFF 		bl	atiny_gettime_ms
 729              	.LVL80:
 730 0112 7B23     		movs	r3, #123
 731 0114 0093     		str	r3, [sp]
 732 0116 0C4B     		ldr	r3, .L96
 733 0118 0246     		mov	r2, r0
 734 011a 2146     		mov	r1, r4
 735 011c 0E48     		ldr	r0, .L96+16
 736 011e FFF7FEFF 		bl	atiny_printf
 737              	.LVL81:
 124:C:/Users/lenovo/Desktop/liteos/Project2/BearPi_LiteOS/components/connectivity/agent_tiny/atiny_lwm2m\atiny_fota_manager.c ****     }
 738              		.loc 1 124 0 discriminator 1
 739 0122 6FF00800 		mvn	r0, #8
 740 0126 B7E7     		b	.L74
 741              	.LVL82:
 742              	.L91:
 128:C:/Users/lenovo/Desktop/liteos/Project2/BearPi_LiteOS/components/connectivity/agent_tiny/atiny_lwm2m\atiny_fota_manager.c ****     return thi->current->start_download(thi->current, thi->pkg_uri);
 743              		.loc 1 128 0 discriminator 1
 744 0128 0120     		movs	r0, #1
 745 012a FFF7FEFF 		bl	atiny_get_log_level_name
 746              	.LVL83:
 747 012e 0546     		mov	r5, r0
 748              	.LVL84:
 749 0130 FFF7FEFF 		bl	atiny_gettime_ms
 750              	.LVL85:
 751 0134 8023     		movs	r3, #128
 752 0136 0093     		str	r3, [sp]
 753 0138 034B     		ldr	r3, .L96
 754 013a 0246     		mov	r2, r0
 755 013c 2946     		mov	r1, r5
 756 013e 0748     		ldr	r0, .L96+20
 757 0140 FFF7FEFF 		bl	atiny_printf
 758              	.LVL86:
 759 0144 84E7     		b	.L82
 760              	.L97:
 761 0146 00BF     		.align	2
 762              	.L96:
ARM GAS  c:\Users\lenovo\AppData\Local\Temp\ccFFGHFi.s 			page 22


 763 0148 00000000 		.word	.LANCHOR6
 764 014c 00000000 		.word	.LC0
 765 0150 00000000 		.word	.LC2
 766 0154 3C000000 		.word	.LC3
 767 0158 5C000000 		.word	.LC4
 768 015c 80000000 		.word	.LC5
 769              		.cfi_endproc
 770              	.LFE148:
 772              		.section	.text.atiny_fota_manager_execute_update,"ax",%progbits
 773              		.align	1
 774              		.global	atiny_fota_manager_execute_update
 775              		.syntax unified
 776              		.thumb
 777              		.thumb_func
 778              		.fpu fpv4-sp-d16
 780              	atiny_fota_manager_execute_update:
 781              	.LFB149:
 132:C:/Users/lenovo/Desktop/liteos/Project2/BearPi_LiteOS/components/connectivity/agent_tiny/atiny_lwm2m\atiny_fota_manager.c ****     ASSERT_THIS(return ATINY_ARG_INVALID);
 782              		.loc 1 132 0
 783              		.cfi_startproc
 784              		@ args = 0, pretend = 0, frame = 0
 785              		@ frame_needed = 0, uses_anonymous_args = 0
 786              	.LVL87:
 787 0000 30B5     		push	{r4, r5, lr}
 788              	.LCFI28:
 789              		.cfi_def_cfa_offset 12
 790              		.cfi_offset 4, -12
 791              		.cfi_offset 5, -8
 792              		.cfi_offset 14, -4
 793 0002 85B0     		sub	sp, sp, #20
 794              	.LCFI29:
 795              		.cfi_def_cfa_offset 32
 133:C:/Users/lenovo/Desktop/liteos/Project2/BearPi_LiteOS/components/connectivity/agent_tiny/atiny_lwm2m\atiny_fota_manager.c **** 
 796              		.loc 1 133 0
 797 0004 98B1     		cbz	r0, .L108
 798 0006 0446     		mov	r4, r0
 135:C:/Users/lenovo/Desktop/liteos/Project2/BearPi_LiteOS/components/connectivity/agent_tiny/atiny_lwm2m\atiny_fota_manager.c ****     {
 799              		.loc 1 135 0
 800 0008 4268     		ldr	r2, [r0, #4]
 801 000a D0F89C30 		ldr	r3, [r0, #156]
 802 000e 9A42     		cmp	r2, r3
 803 0010 25D1     		bne	.L109
 142:C:/Users/lenovo/Desktop/liteos/Project2/BearPi_LiteOS/components/connectivity/agent_tiny/atiny_lwm2m\atiny_fota_manager.c ****     {
 804              		.loc 1 142 0
 805 0012 D0F88830 		ldr	r3, [r0, #136]
 806 0016 002B     		cmp	r3, #0
 807 0018 3ED0     		beq	.L110
 148:C:/Users/lenovo/Desktop/liteos/Project2/BearPi_LiteOS/components/connectivity/agent_tiny/atiny_lwm2m\atiny_fota_manager.c ****     return thi->current->execute_update(thi->current);
 808              		.loc 1 148 0
 809 001a FFF7FEFF 		bl	atiny_get_log_level
 810              	.LVL88:
 811 001e 0128     		cmp	r0, #1
 812 0020 52D9     		bls	.L111
 813              	.L103:
 149:C:/Users/lenovo/Desktop/liteos/Project2/BearPi_LiteOS/components/connectivity/agent_tiny/atiny_lwm2m\atiny_fota_manager.c **** }
 814              		.loc 1 149 0
 815 0022 D4F88800 		ldr	r0, [r4, #136]
ARM GAS  c:\Users\lenovo\AppData\Local\Temp\ccFFGHFi.s 			page 23


 816 0026 4368     		ldr	r3, [r0, #4]
 817 0028 9847     		blx	r3
 818              	.LVL89:
 819              	.L98:
 150:C:/Users/lenovo/Desktop/liteos/Project2/BearPi_LiteOS/components/connectivity/agent_tiny/atiny_lwm2m\atiny_fota_manager.c **** 
 820              		.loc 1 150 0
 821 002a 05B0     		add	sp, sp, #20
 822              	.LCFI30:
 823              		.cfi_remember_state
 824              		.cfi_def_cfa_offset 12
 825              		@ sp needed
 826 002c 30BD     		pop	{r4, r5, pc}
 827              	.LVL90:
 828              	.L108:
 829              	.LCFI31:
 830              		.cfi_restore_state
 133:C:/Users/lenovo/Desktop/liteos/Project2/BearPi_LiteOS/components/connectivity/agent_tiny/atiny_lwm2m\atiny_fota_manager.c **** 
 831              		.loc 1 133 0 discriminator 1
 832 002e FFF7FEFF 		bl	atiny_get_log_level
 833              	.LVL91:
 834 0032 0328     		cmp	r0, #3
 835 0034 02D9     		bls	.L112
 133:C:/Users/lenovo/Desktop/liteos/Project2/BearPi_LiteOS/components/connectivity/agent_tiny/atiny_lwm2m\atiny_fota_manager.c **** 
 836              		.loc 1 133 0 is_stmt 0
 837 0036 4FF0FF30 		mov	r0, #-1
 838 003a F6E7     		b	.L98
 839              	.L112:
 133:C:/Users/lenovo/Desktop/liteos/Project2/BearPi_LiteOS/components/connectivity/agent_tiny/atiny_lwm2m\atiny_fota_manager.c **** 
 840              		.loc 1 133 0 discriminator 2
 841 003c 0320     		movs	r0, #3
 842 003e FFF7FEFF 		bl	atiny_get_log_level_name
 843              	.LVL92:
 844 0042 0446     		mov	r4, r0
 845 0044 FFF7FEFF 		bl	atiny_gettime_ms
 846              	.LVL93:
 847 0048 8523     		movs	r3, #133
 848 004a 0093     		str	r3, [sp]
 849 004c 264B     		ldr	r3, .L115
 850 004e 0246     		mov	r2, r0
 851 0050 2146     		mov	r1, r4
 852 0052 2648     		ldr	r0, .L115+4
 853 0054 FFF7FEFF 		bl	atiny_printf
 854              	.LVL94:
 855 0058 4FF0FF30 		mov	r0, #-1
 856 005c E5E7     		b	.L98
 857              	.LVL95:
 858              	.L109:
 137:C:/Users/lenovo/Desktop/liteos/Project2/BearPi_LiteOS/components/connectivity/agent_tiny/atiny_lwm2m\atiny_fota_manager.c ****                   thi->state, thi->rpt_state);
 859              		.loc 1 137 0 is_stmt 1
 860 005e FFF7FEFF 		bl	atiny_get_log_level
 861              	.LVL96:
 862 0062 0328     		cmp	r0, #3
 863 0064 02D9     		bls	.L113
 139:C:/Users/lenovo/Desktop/liteos/Project2/BearPi_LiteOS/components/connectivity/agent_tiny/atiny_lwm2m\atiny_fota_manager.c ****     }
 864              		.loc 1 139 0
 865 0066 6FF00800 		mvn	r0, #8
 866 006a DEE7     		b	.L98
ARM GAS  c:\Users\lenovo\AppData\Local\Temp\ccFFGHFi.s 			page 24


 867              	.L113:
 137:C:/Users/lenovo/Desktop/liteos/Project2/BearPi_LiteOS/components/connectivity/agent_tiny/atiny_lwm2m\atiny_fota_manager.c ****                   thi->state, thi->rpt_state);
 868              		.loc 1 137 0 discriminator 1
 869 006c 0320     		movs	r0, #3
 870 006e FFF7FEFF 		bl	atiny_get_log_level_name
 871              	.LVL97:
 872 0072 0546     		mov	r5, r0
 873 0074 FFF7FEFF 		bl	atiny_gettime_ms
 874              	.LVL98:
 875 0078 6368     		ldr	r3, [r4, #4]
 876 007a D4F89C20 		ldr	r2, [r4, #156]
 877 007e 0292     		str	r2, [sp, #8]
 878 0080 0193     		str	r3, [sp, #4]
 879 0082 8A23     		movs	r3, #138
 880 0084 0093     		str	r3, [sp]
 881 0086 184B     		ldr	r3, .L115
 882 0088 0246     		mov	r2, r0
 883 008a 2946     		mov	r1, r5
 884 008c 1848     		ldr	r0, .L115+8
 885 008e FFF7FEFF 		bl	atiny_printf
 886              	.LVL99:
 139:C:/Users/lenovo/Desktop/liteos/Project2/BearPi_LiteOS/components/connectivity/agent_tiny/atiny_lwm2m\atiny_fota_manager.c ****     }
 887              		.loc 1 139 0 discriminator 1
 888 0092 6FF00800 		mvn	r0, #8
 889 0096 C8E7     		b	.L98
 890              	.LVL100:
 891              	.L110:
 144:C:/Users/lenovo/Desktop/liteos/Project2/BearPi_LiteOS/components/connectivity/agent_tiny/atiny_lwm2m\atiny_fota_manager.c ****         return ATINY_ERR;
 892              		.loc 1 144 0
 893 0098 FFF7FEFF 		bl	atiny_get_log_level
 894              	.LVL101:
 895 009c 0328     		cmp	r0, #3
 896 009e 02D9     		bls	.L114
 145:C:/Users/lenovo/Desktop/liteos/Project2/BearPi_LiteOS/components/connectivity/agent_tiny/atiny_lwm2m\atiny_fota_manager.c ****     }
 897              		.loc 1 145 0
 898 00a0 6FF00800 		mvn	r0, #8
 899 00a4 C1E7     		b	.L98
 900              	.L114:
 144:C:/Users/lenovo/Desktop/liteos/Project2/BearPi_LiteOS/components/connectivity/agent_tiny/atiny_lwm2m\atiny_fota_manager.c ****         return ATINY_ERR;
 901              		.loc 1 144 0 discriminator 1
 902 00a6 0320     		movs	r0, #3
 903 00a8 FFF7FEFF 		bl	atiny_get_log_level_name
 904              	.LVL102:
 905 00ac 0446     		mov	r4, r0
 906              	.LVL103:
 907 00ae FFF7FEFF 		bl	atiny_gettime_ms
 908              	.LVL104:
 909 00b2 9023     		movs	r3, #144
 910 00b4 0093     		str	r3, [sp]
 911 00b6 0C4B     		ldr	r3, .L115
 912 00b8 0246     		mov	r2, r0
 913 00ba 2146     		mov	r1, r4
 914 00bc 0D48     		ldr	r0, .L115+12
 915 00be FFF7FEFF 		bl	atiny_printf
 916              	.LVL105:
 145:C:/Users/lenovo/Desktop/liteos/Project2/BearPi_LiteOS/components/connectivity/agent_tiny/atiny_lwm2m\atiny_fota_manager.c ****     }
 917              		.loc 1 145 0 discriminator 1
ARM GAS  c:\Users\lenovo\AppData\Local\Temp\ccFFGHFi.s 			page 25


 918 00c2 6FF00800 		mvn	r0, #8
 919 00c6 B0E7     		b	.L98
 920              	.LVL106:
 921              	.L111:
 148:C:/Users/lenovo/Desktop/liteos/Project2/BearPi_LiteOS/components/connectivity/agent_tiny/atiny_lwm2m\atiny_fota_manager.c ****     return thi->current->execute_update(thi->current);
 922              		.loc 1 148 0 discriminator 1
 923 00c8 0120     		movs	r0, #1
 924 00ca FFF7FEFF 		bl	atiny_get_log_level_name
 925              	.LVL107:
 926 00ce 0546     		mov	r5, r0
 927 00d0 FFF7FEFF 		bl	atiny_gettime_ms
 928              	.LVL108:
 929 00d4 9423     		movs	r3, #148
 930 00d6 0093     		str	r3, [sp]
 931 00d8 034B     		ldr	r3, .L115
 932 00da 0246     		mov	r2, r0
 933 00dc 2946     		mov	r1, r5
 934 00de 0648     		ldr	r0, .L115+16
 935 00e0 FFF7FEFF 		bl	atiny_printf
 936              	.LVL109:
 937 00e4 9DE7     		b	.L103
 938              	.L116:
 939 00e6 00BF     		.align	2
 940              	.L115:
 941 00e8 00000000 		.word	.LANCHOR7
 942 00ec 00000000 		.word	.LC0
 943 00f0 00000000 		.word	.LC6
 944 00f4 24000000 		.word	.LC1
 945 00f8 3C000000 		.word	.LC7
 946              		.cfi_endproc
 947              	.LFE149:
 949              		.section	.text.atiny_fota_manager_finish_download,"ax",%progbits
 950              		.align	1
 951              		.global	atiny_fota_manager_finish_download
 952              		.syntax unified
 953              		.thumb
 954              		.thumb_func
 955              		.fpu fpv4-sp-d16
 957              	atiny_fota_manager_finish_download:
 958              	.LFB150:
 153:C:/Users/lenovo/Desktop/liteos/Project2/BearPi_LiteOS/components/connectivity/agent_tiny/atiny_lwm2m\atiny_fota_manager.c ****     ASSERT_THIS(return ATINY_ARG_INVALID);
 959              		.loc 1 153 0
 960              		.cfi_startproc
 961              		@ args = 0, pretend = 0, frame = 0
 962              		@ frame_needed = 0, uses_anonymous_args = 0
 963              	.LVL110:
 964 0000 70B5     		push	{r4, r5, r6, lr}
 965              	.LCFI32:
 966              		.cfi_def_cfa_offset 16
 967              		.cfi_offset 4, -16
 968              		.cfi_offset 5, -12
 969              		.cfi_offset 6, -8
 970              		.cfi_offset 14, -4
 971 0002 84B0     		sub	sp, sp, #16
 972              	.LCFI33:
 973              		.cfi_def_cfa_offset 32
 154:C:/Users/lenovo/Desktop/liteos/Project2/BearPi_LiteOS/components/connectivity/agent_tiny/atiny_lwm2m\atiny_fota_manager.c **** 
ARM GAS  c:\Users\lenovo\AppData\Local\Temp\ccFFGHFi.s 			page 26


 974              		.loc 1 154 0
 975 0004 A8B1     		cbz	r0, .L127
 976 0006 0D46     		mov	r5, r1
 977 0008 0446     		mov	r4, r0
 156:C:/Users/lenovo/Desktop/liteos/Project2/BearPi_LiteOS/components/connectivity/agent_tiny/atiny_lwm2m\atiny_fota_manager.c ****     {
 978              		.loc 1 156 0
 979 000a 4268     		ldr	r2, [r0, #4]
 980 000c D0F89C30 		ldr	r3, [r0, #156]
 981 0010 9A42     		cmp	r2, r3
 982 0012 26D1     		bne	.L128
 163:C:/Users/lenovo/Desktop/liteos/Project2/BearPi_LiteOS/components/connectivity/agent_tiny/atiny_lwm2m\atiny_fota_manager.c ****     {
 983              		.loc 1 163 0
 984 0014 D0F88830 		ldr	r3, [r0, #136]
 985 0018 002B     		cmp	r3, #0
 986 001a 3FD0     		beq	.L129
 169:C:/Users/lenovo/Desktop/liteos/Project2/BearPi_LiteOS/components/connectivity/agent_tiny/atiny_lwm2m\atiny_fota_manager.c ****     return thi->current->finish_download(thi->current, result);
 987              		.loc 1 169 0
 988 001c FFF7FEFF 		bl	atiny_get_log_level
 989              	.LVL111:
 990 0020 0128     		cmp	r0, #1
 991 0022 53D9     		bls	.L130
 992              	.L122:
 170:C:/Users/lenovo/Desktop/liteos/Project2/BearPi_LiteOS/components/connectivity/agent_tiny/atiny_lwm2m\atiny_fota_manager.c **** }
 993              		.loc 1 170 0
 994 0024 D4F88800 		ldr	r0, [r4, #136]
 995 0028 8368     		ldr	r3, [r0, #8]
 996 002a 2946     		mov	r1, r5
 997 002c 9847     		blx	r3
 998              	.LVL112:
 999              	.L117:
 171:C:/Users/lenovo/Desktop/liteos/Project2/BearPi_LiteOS/components/connectivity/agent_tiny/atiny_lwm2m\atiny_fota_manager.c **** int atiny_fota_manager_repot_result(atiny_fota_manager_s *thi)
 1000              		.loc 1 171 0
 1001 002e 04B0     		add	sp, sp, #16
 1002              	.LCFI34:
 1003              		.cfi_remember_state
 1004              		.cfi_def_cfa_offset 16
 1005              		@ sp needed
 1006 0030 70BD     		pop	{r4, r5, r6, pc}
 1007              	.LVL113:
 1008              	.L127:
 1009              	.LCFI35:
 1010              		.cfi_restore_state
 154:C:/Users/lenovo/Desktop/liteos/Project2/BearPi_LiteOS/components/connectivity/agent_tiny/atiny_lwm2m\atiny_fota_manager.c **** 
 1011              		.loc 1 154 0 discriminator 1
 1012 0032 FFF7FEFF 		bl	atiny_get_log_level
 1013              	.LVL114:
 1014 0036 0328     		cmp	r0, #3
 1015 0038 02D9     		bls	.L131
 154:C:/Users/lenovo/Desktop/liteos/Project2/BearPi_LiteOS/components/connectivity/agent_tiny/atiny_lwm2m\atiny_fota_manager.c **** 
 1016              		.loc 1 154 0 is_stmt 0
 1017 003a 4FF0FF30 		mov	r0, #-1
 1018 003e F6E7     		b	.L117
 1019              	.L131:
 154:C:/Users/lenovo/Desktop/liteos/Project2/BearPi_LiteOS/components/connectivity/agent_tiny/atiny_lwm2m\atiny_fota_manager.c **** 
 1020              		.loc 1 154 0 discriminator 2
 1021 0040 0320     		movs	r0, #3
 1022 0042 FFF7FEFF 		bl	atiny_get_log_level_name
ARM GAS  c:\Users\lenovo\AppData\Local\Temp\ccFFGHFi.s 			page 27


 1023              	.LVL115:
 1024 0046 0446     		mov	r4, r0
 1025 0048 FFF7FEFF 		bl	atiny_gettime_ms
 1026              	.LVL116:
 1027 004c 9A23     		movs	r3, #154
 1028 004e 0093     		str	r3, [sp]
 1029 0050 264B     		ldr	r3, .L134
 1030 0052 0246     		mov	r2, r0
 1031 0054 2146     		mov	r1, r4
 1032 0056 2648     		ldr	r0, .L134+4
 1033 0058 FFF7FEFF 		bl	atiny_printf
 1034              	.LVL117:
 1035 005c 4FF0FF30 		mov	r0, #-1
 1036 0060 E5E7     		b	.L117
 1037              	.LVL118:
 1038              	.L128:
 158:C:/Users/lenovo/Desktop/liteos/Project2/BearPi_LiteOS/components/connectivity/agent_tiny/atiny_lwm2m\atiny_fota_manager.c ****                   thi->state, thi->rpt_state);
 1039              		.loc 1 158 0 is_stmt 1
 1040 0062 FFF7FEFF 		bl	atiny_get_log_level
 1041              	.LVL119:
 1042 0066 0328     		cmp	r0, #3
 1043 0068 02D9     		bls	.L132
 160:C:/Users/lenovo/Desktop/liteos/Project2/BearPi_LiteOS/components/connectivity/agent_tiny/atiny_lwm2m\atiny_fota_manager.c ****     }
 1044              		.loc 1 160 0
 1045 006a 6FF00800 		mvn	r0, #8
 1046 006e DEE7     		b	.L117
 1047              	.L132:
 158:C:/Users/lenovo/Desktop/liteos/Project2/BearPi_LiteOS/components/connectivity/agent_tiny/atiny_lwm2m\atiny_fota_manager.c ****                   thi->state, thi->rpt_state);
 1048              		.loc 1 158 0 discriminator 1
 1049 0070 0320     		movs	r0, #3
 1050 0072 FFF7FEFF 		bl	atiny_get_log_level_name
 1051              	.LVL120:
 1052 0076 0546     		mov	r5, r0
 1053              	.LVL121:
 1054 0078 FFF7FEFF 		bl	atiny_gettime_ms
 1055              	.LVL122:
 1056 007c 6368     		ldr	r3, [r4, #4]
 1057 007e D4F89C20 		ldr	r2, [r4, #156]
 1058 0082 0292     		str	r2, [sp, #8]
 1059 0084 0193     		str	r3, [sp, #4]
 1060 0086 9F23     		movs	r3, #159
 1061 0088 0093     		str	r3, [sp]
 1062 008a 184B     		ldr	r3, .L134
 1063 008c 0246     		mov	r2, r0
 1064 008e 2946     		mov	r1, r5
 1065 0090 1848     		ldr	r0, .L134+8
 1066 0092 FFF7FEFF 		bl	atiny_printf
 1067              	.LVL123:
 160:C:/Users/lenovo/Desktop/liteos/Project2/BearPi_LiteOS/components/connectivity/agent_tiny/atiny_lwm2m\atiny_fota_manager.c ****     }
 1068              		.loc 1 160 0 discriminator 1
 1069 0096 6FF00800 		mvn	r0, #8
 1070 009a C8E7     		b	.L117
 1071              	.LVL124:
 1072              	.L129:
 165:C:/Users/lenovo/Desktop/liteos/Project2/BearPi_LiteOS/components/connectivity/agent_tiny/atiny_lwm2m\atiny_fota_manager.c ****         return ATINY_ERR;
 1073              		.loc 1 165 0
 1074 009c FFF7FEFF 		bl	atiny_get_log_level
ARM GAS  c:\Users\lenovo\AppData\Local\Temp\ccFFGHFi.s 			page 28


 1075              	.LVL125:
 1076 00a0 0328     		cmp	r0, #3
 1077 00a2 02D9     		bls	.L133
 166:C:/Users/lenovo/Desktop/liteos/Project2/BearPi_LiteOS/components/connectivity/agent_tiny/atiny_lwm2m\atiny_fota_manager.c ****     }
 1078              		.loc 1 166 0
 1079 00a4 6FF00800 		mvn	r0, #8
 1080 00a8 C1E7     		b	.L117
 1081              	.L133:
 165:C:/Users/lenovo/Desktop/liteos/Project2/BearPi_LiteOS/components/connectivity/agent_tiny/atiny_lwm2m\atiny_fota_manager.c ****         return ATINY_ERR;
 1082              		.loc 1 165 0 discriminator 1
 1083 00aa 0320     		movs	r0, #3
 1084 00ac FFF7FEFF 		bl	atiny_get_log_level_name
 1085              	.LVL126:
 1086 00b0 0446     		mov	r4, r0
 1087              	.LVL127:
 1088 00b2 FFF7FEFF 		bl	atiny_gettime_ms
 1089              	.LVL128:
 1090 00b6 A523     		movs	r3, #165
 1091 00b8 0093     		str	r3, [sp]
 1092 00ba 0C4B     		ldr	r3, .L134
 1093 00bc 0246     		mov	r2, r0
 1094 00be 2146     		mov	r1, r4
 1095 00c0 0D48     		ldr	r0, .L134+12
 1096 00c2 FFF7FEFF 		bl	atiny_printf
 1097              	.LVL129:
 166:C:/Users/lenovo/Desktop/liteos/Project2/BearPi_LiteOS/components/connectivity/agent_tiny/atiny_lwm2m\atiny_fota_manager.c ****     }
 1098              		.loc 1 166 0 discriminator 1
 1099 00c6 6FF00800 		mvn	r0, #8
 1100 00ca B0E7     		b	.L117
 1101              	.LVL130:
 1102              	.L130:
 169:C:/Users/lenovo/Desktop/liteos/Project2/BearPi_LiteOS/components/connectivity/agent_tiny/atiny_lwm2m\atiny_fota_manager.c ****     return thi->current->finish_download(thi->current, result);
 1103              		.loc 1 169 0 discriminator 1
 1104 00cc 0120     		movs	r0, #1
 1105 00ce FFF7FEFF 		bl	atiny_get_log_level_name
 1106              	.LVL131:
 1107 00d2 0646     		mov	r6, r0
 1108 00d4 FFF7FEFF 		bl	atiny_gettime_ms
 1109              	.LVL132:
 1110 00d8 0195     		str	r5, [sp, #4]
 1111 00da A923     		movs	r3, #169
 1112 00dc 0093     		str	r3, [sp]
 1113 00de 034B     		ldr	r3, .L134
 1114 00e0 0246     		mov	r2, r0
 1115 00e2 3146     		mov	r1, r6
 1116 00e4 0548     		ldr	r0, .L134+16
 1117 00e6 FFF7FEFF 		bl	atiny_printf
 1118              	.LVL133:
 1119 00ea 9BE7     		b	.L122
 1120              	.L135:
 1121              		.align	2
 1122              	.L134:
 1123 00ec 00000000 		.word	.LANCHOR8
 1124 00f0 00000000 		.word	.LC0
 1125 00f4 00000000 		.word	.LC8
 1126 00f8 24000000 		.word	.LC1
 1127 00fc 40000000 		.word	.LC9
ARM GAS  c:\Users\lenovo\AppData\Local\Temp\ccFFGHFi.s 			page 29


 1128              		.cfi_endproc
 1129              	.LFE150:
 1131              		.section	.text.atiny_fota_manager_update_notify,"ax",%progbits
 1132              		.align	1
 1133              		.global	atiny_fota_manager_update_notify
 1134              		.syntax unified
 1135              		.thumb
 1136              		.thumb_func
 1137              		.fpu fpv4-sp-d16
 1139              	atiny_fota_manager_update_notify:
 1140              	.LFB159:
 314:C:/Users/lenovo/Desktop/liteos/Project2/BearPi_LiteOS/components/connectivity/agent_tiny/atiny_lwm2m\atiny_fota_manager.c ****     atiny_fota_manager_s *thi = ( atiny_fota_manager_s *)param;
 1141              		.loc 1 314 0
 1142              		.cfi_startproc
 1143              		@ args = 0, pretend = 0, frame = 0
 1144              		@ frame_needed = 0, uses_anonymous_args = 0
 1145              	.LVL134:
 1146 0000 08B5     		push	{r3, lr}
 1147              	.LCFI36:
 1148              		.cfi_def_cfa_offset 8
 1149              		.cfi_offset 3, -8
 1150              		.cfi_offset 14, -4
 1151 0002 0B46     		mov	r3, r1
 1152              	.LVL135:
 316:C:/Users/lenovo/Desktop/liteos/Project2/BearPi_LiteOS/components/connectivity/agent_tiny/atiny_lwm2m\atiny_fota_manager.c **** }
 1153              		.loc 1 316 0
 1154 0004 0146     		mov	r1, r0
 1155              	.LVL136:
 1156 0006 1846     		mov	r0, r3
 1157              	.LVL137:
 1158 0008 FFF7FEFF 		bl	atiny_fota_manager_finish_download
 1159              	.LVL138:
 317:C:/Users/lenovo/Desktop/liteos/Project2/BearPi_LiteOS/components/connectivity/agent_tiny/atiny_lwm2m\atiny_fota_manager.c **** void atiny_fota_manager_init(atiny_fota_manager_s *thi)
 1160              		.loc 1 317 0
 1161 000c 08BD     		pop	{r3, pc}
 1162              		.cfi_endproc
 1163              	.LFE159:
 1165              		.section	.text.atiny_fota_manager_repot_result,"ax",%progbits
 1166              		.align	1
 1167              		.global	atiny_fota_manager_repot_result
 1168              		.syntax unified
 1169              		.thumb
 1170              		.thumb_func
 1171              		.fpu fpv4-sp-d16
 1173              	atiny_fota_manager_repot_result:
 1174              	.LFB151:
 173:C:/Users/lenovo/Desktop/liteos/Project2/BearPi_LiteOS/components/connectivity/agent_tiny/atiny_lwm2m\atiny_fota_manager.c ****     ASSERT_THIS(return ATINY_ARG_INVALID);
 1175              		.loc 1 173 0
 1176              		.cfi_startproc
 1177              		@ args = 0, pretend = 0, frame = 0
 1178              		@ frame_needed = 0, uses_anonymous_args = 0
 1179              	.LVL139:
 1180 0000 10B5     		push	{r4, lr}
 1181              	.LCFI37:
 1182              		.cfi_def_cfa_offset 8
 1183              		.cfi_offset 4, -8
 1184              		.cfi_offset 14, -4
ARM GAS  c:\Users\lenovo\AppData\Local\Temp\ccFFGHFi.s 			page 30


 1185 0002 82B0     		sub	sp, sp, #8
 1186              	.LCFI38:
 1187              		.cfi_def_cfa_offset 16
 174:C:/Users/lenovo/Desktop/liteos/Project2/BearPi_LiteOS/components/connectivity/agent_tiny/atiny_lwm2m\atiny_fota_manager.c **** 
 1188              		.loc 1 174 0
 1189 0004 30B1     		cbz	r0, .L145
 176:C:/Users/lenovo/Desktop/liteos/Project2/BearPi_LiteOS/components/connectivity/agent_tiny/atiny_lwm2m\atiny_fota_manager.c ****     {
 1190              		.loc 1 176 0
 1191 0006 D0F88800 		ldr	r0, [r0, #136]
 1192              	.LVL140:
 1193 000a D8B1     		cbz	r0, .L146
 182:C:/Users/lenovo/Desktop/liteos/Project2/BearPi_LiteOS/components/connectivity/agent_tiny/atiny_lwm2m\atiny_fota_manager.c **** }
 1194              		.loc 1 182 0
 1195 000c C368     		ldr	r3, [r0, #12]
 1196 000e 9847     		blx	r3
 1197              	.LVL141:
 1198              	.L138:
 183:C:/Users/lenovo/Desktop/liteos/Project2/BearPi_LiteOS/components/connectivity/agent_tiny/atiny_lwm2m\atiny_fota_manager.c **** 
 1199              		.loc 1 183 0
 1200 0010 02B0     		add	sp, sp, #8
 1201              	.LCFI39:
 1202              		.cfi_remember_state
 1203              		.cfi_def_cfa_offset 8
 1204              		@ sp needed
 1205 0012 10BD     		pop	{r4, pc}
 1206              	.LVL142:
 1207              	.L145:
 1208              	.LCFI40:
 1209              		.cfi_restore_state
 174:C:/Users/lenovo/Desktop/liteos/Project2/BearPi_LiteOS/components/connectivity/agent_tiny/atiny_lwm2m\atiny_fota_manager.c **** 
 1210              		.loc 1 174 0 discriminator 1
 1211 0014 FFF7FEFF 		bl	atiny_get_log_level
 1212              	.LVL143:
 1213 0018 0328     		cmp	r0, #3
 1214 001a 02D9     		bls	.L147
 174:C:/Users/lenovo/Desktop/liteos/Project2/BearPi_LiteOS/components/connectivity/agent_tiny/atiny_lwm2m\atiny_fota_manager.c **** 
 1215              		.loc 1 174 0 is_stmt 0
 1216 001c 4FF0FF30 		mov	r0, #-1
 1217 0020 F6E7     		b	.L138
 1218              	.L147:
 174:C:/Users/lenovo/Desktop/liteos/Project2/BearPi_LiteOS/components/connectivity/agent_tiny/atiny_lwm2m\atiny_fota_manager.c **** 
 1219              		.loc 1 174 0 discriminator 2
 1220 0022 0320     		movs	r0, #3
 1221 0024 FFF7FEFF 		bl	atiny_get_log_level_name
 1222              	.LVL144:
 1223 0028 0446     		mov	r4, r0
 1224 002a FFF7FEFF 		bl	atiny_gettime_ms
 1225              	.LVL145:
 1226 002e AE23     		movs	r3, #174
 1227 0030 0093     		str	r3, [sp]
 1228 0032 104B     		ldr	r3, .L149
 1229 0034 0246     		mov	r2, r0
 1230 0036 2146     		mov	r1, r4
 1231 0038 0F48     		ldr	r0, .L149+4
 1232 003a FFF7FEFF 		bl	atiny_printf
 1233              	.LVL146:
 1234 003e 4FF0FF30 		mov	r0, #-1
ARM GAS  c:\Users\lenovo\AppData\Local\Temp\ccFFGHFi.s 			page 31


 1235 0042 E5E7     		b	.L138
 1236              	.L146:
 178:C:/Users/lenovo/Desktop/liteos/Project2/BearPi_LiteOS/components/connectivity/agent_tiny/atiny_lwm2m\atiny_fota_manager.c ****         return ATINY_ERR;
 1237              		.loc 1 178 0 is_stmt 1
 1238 0044 FFF7FEFF 		bl	atiny_get_log_level
 1239              	.LVL147:
 1240 0048 0328     		cmp	r0, #3
 1241 004a 02D9     		bls	.L148
 179:C:/Users/lenovo/Desktop/liteos/Project2/BearPi_LiteOS/components/connectivity/agent_tiny/atiny_lwm2m\atiny_fota_manager.c ****     }
 1242              		.loc 1 179 0
 1243 004c 6FF00800 		mvn	r0, #8
 1244 0050 DEE7     		b	.L138
 1245              	.L148:
 178:C:/Users/lenovo/Desktop/liteos/Project2/BearPi_LiteOS/components/connectivity/agent_tiny/atiny_lwm2m\atiny_fota_manager.c ****         return ATINY_ERR;
 1246              		.loc 1 178 0 discriminator 1
 1247 0052 0320     		movs	r0, #3
 1248 0054 FFF7FEFF 		bl	atiny_get_log_level_name
 1249              	.LVL148:
 1250 0058 0446     		mov	r4, r0
 1251 005a FFF7FEFF 		bl	atiny_gettime_ms
 1252              	.LVL149:
 1253 005e B223     		movs	r3, #178
 1254 0060 0093     		str	r3, [sp]
 1255 0062 044B     		ldr	r3, .L149
 1256 0064 0246     		mov	r2, r0
 1257 0066 2146     		mov	r1, r4
 1258 0068 0448     		ldr	r0, .L149+8
 1259 006a FFF7FEFF 		bl	atiny_printf
 1260              	.LVL150:
 179:C:/Users/lenovo/Desktop/liteos/Project2/BearPi_LiteOS/components/connectivity/agent_tiny/atiny_lwm2m\atiny_fota_manager.c ****     }
 1261              		.loc 1 179 0 discriminator 1
 1262 006e 6FF00800 		mvn	r0, #8
 1263 0072 CDE7     		b	.L138
 1264              	.L150:
 1265              		.align	2
 1266              	.L149:
 1267 0074 00000000 		.word	.LANCHOR9
 1268 0078 00000000 		.word	.LC0
 1269 007c 24000000 		.word	.LC1
 1270              		.cfi_endproc
 1271              	.LFE151:
 1273              		.section	.text.atiny_fota_manager_set_state,"ax",%progbits
 1274              		.align	1
 1275              		.global	atiny_fota_manager_set_state
 1276              		.syntax unified
 1277              		.thumb
 1278              		.thumb_func
 1279              		.fpu fpv4-sp-d16
 1281              	atiny_fota_manager_set_state:
 1282              	.LFB152:
 187:C:/Users/lenovo/Desktop/liteos/Project2/BearPi_LiteOS/components/connectivity/agent_tiny/atiny_lwm2m\atiny_fota_manager.c ****     ASSERT_THIS(return ATINY_ARG_INVALID);
 1283              		.loc 1 187 0
 1284              		.cfi_startproc
 1285              		@ args = 0, pretend = 0, frame = 16
 1286              		@ frame_needed = 0, uses_anonymous_args = 0
 1287              	.LVL151:
 1288 0000 70B5     		push	{r4, r5, r6, lr}
ARM GAS  c:\Users\lenovo\AppData\Local\Temp\ccFFGHFi.s 			page 32


 1289              	.LCFI41:
 1290              		.cfi_def_cfa_offset 16
 1291              		.cfi_offset 4, -16
 1292              		.cfi_offset 5, -12
 1293              		.cfi_offset 6, -8
 1294              		.cfi_offset 14, -4
 1295 0002 88B0     		sub	sp, sp, #32
 1296              	.LCFI42:
 1297              		.cfi_def_cfa_offset 48
 188:C:/Users/lenovo/Desktop/liteos/Project2/BearPi_LiteOS/components/connectivity/agent_tiny/atiny_lwm2m\atiny_fota_manager.c **** 
 1298              		.loc 1 188 0
 1299 0004 50B1     		cbz	r0, .L160
 1300 0006 0D46     		mov	r5, r1
 1301 0008 0446     		mov	r4, r0
 190:C:/Users/lenovo/Desktop/liteos/Project2/BearPi_LiteOS/components/connectivity/agent_tiny/atiny_lwm2m\atiny_fota_manager.c ****     {
 1302              		.loc 1 190 0
 1303 000a 0329     		cmp	r1, #3
 1304 000c 30DD     		ble	.L154
 192:C:/Users/lenovo/Desktop/liteos/Project2/BearPi_LiteOS/components/connectivity/agent_tiny/atiny_lwm2m\atiny_fota_manager.c ****         return ATINY_ARG_INVALID;
 1305              		.loc 1 192 0
 1306 000e FFF7FEFF 		bl	atiny_get_log_level
 1307              	.LVL152:
 1308 0012 0328     		cmp	r0, #3
 1309 0014 1AD9     		bls	.L161
 193:C:/Users/lenovo/Desktop/liteos/Project2/BearPi_LiteOS/components/connectivity/agent_tiny/atiny_lwm2m\atiny_fota_manager.c ****     }
 1310              		.loc 1 193 0
 1311 0016 4FF0FF30 		mov	r0, #-1
 1312 001a 4FE0     		b	.L151
 1313              	.LVL153:
 1314              	.L160:
 188:C:/Users/lenovo/Desktop/liteos/Project2/BearPi_LiteOS/components/connectivity/agent_tiny/atiny_lwm2m\atiny_fota_manager.c **** 
 1315              		.loc 1 188 0 discriminator 1
 1316 001c FFF7FEFF 		bl	atiny_get_log_level
 1317              	.LVL154:
 1318 0020 0328     		cmp	r0, #3
 1319 0022 02D9     		bls	.L162
 188:C:/Users/lenovo/Desktop/liteos/Project2/BearPi_LiteOS/components/connectivity/agent_tiny/atiny_lwm2m\atiny_fota_manager.c **** 
 1320              		.loc 1 188 0 is_stmt 0
 1321 0024 4FF0FF30 		mov	r0, #-1
 1322 0028 48E0     		b	.L151
 1323              	.L162:
 188:C:/Users/lenovo/Desktop/liteos/Project2/BearPi_LiteOS/components/connectivity/agent_tiny/atiny_lwm2m\atiny_fota_manager.c **** 
 1324              		.loc 1 188 0 discriminator 2
 1325 002a 0320     		movs	r0, #3
 1326 002c FFF7FEFF 		bl	atiny_get_log_level_name
 1327              	.LVL155:
 1328 0030 0446     		mov	r4, r0
 1329 0032 FFF7FEFF 		bl	atiny_gettime_ms
 1330              	.LVL156:
 1331 0036 BC23     		movs	r3, #188
 1332 0038 0093     		str	r3, [sp]
 1333 003a 2A4B     		ldr	r3, .L164
 1334 003c 0246     		mov	r2, r0
 1335 003e 2146     		mov	r1, r4
 1336 0040 2948     		ldr	r0, .L164+4
 1337 0042 FFF7FEFF 		bl	atiny_printf
 1338              	.LVL157:
ARM GAS  c:\Users\lenovo\AppData\Local\Temp\ccFFGHFi.s 			page 33


 1339 0046 4FF0FF30 		mov	r0, #-1
 1340 004a 37E0     		b	.L151
 1341              	.LVL158:
 1342              	.L161:
 192:C:/Users/lenovo/Desktop/liteos/Project2/BearPi_LiteOS/components/connectivity/agent_tiny/atiny_lwm2m\atiny_fota_manager.c ****         return ATINY_ARG_INVALID;
 1343              		.loc 1 192 0 is_stmt 1 discriminator 1
 1344 004c 0320     		movs	r0, #3
 1345 004e FFF7FEFF 		bl	atiny_get_log_level_name
 1346              	.LVL159:
 1347 0052 0446     		mov	r4, r0
 1348              	.LVL160:
 1349 0054 FFF7FEFF 		bl	atiny_gettime_ms
 1350              	.LVL161:
 1351 0058 0195     		str	r5, [sp, #4]
 1352 005a C023     		movs	r3, #192
 1353 005c 0093     		str	r3, [sp]
 1354 005e 214B     		ldr	r3, .L164
 1355 0060 0246     		mov	r2, r0
 1356 0062 2146     		mov	r1, r4
 1357 0064 2148     		ldr	r0, .L164+8
 1358 0066 FFF7FEFF 		bl	atiny_printf
 1359              	.LVL162:
 193:C:/Users/lenovo/Desktop/liteos/Project2/BearPi_LiteOS/components/connectivity/agent_tiny/atiny_lwm2m\atiny_fota_manager.c ****     }
 1360              		.loc 1 193 0 discriminator 1
 1361 006a 4FF0FF30 		mov	r0, #-1
 1362 006e 25E0     		b	.L151
 1363              	.LVL163:
 1364              	.L154:
 196:C:/Users/lenovo/Desktop/liteos/Project2/BearPi_LiteOS/components/connectivity/agent_tiny/atiny_lwm2m\atiny_fota_manager.c ****     if(thi->state != state)
 1365              		.loc 1 196 0
 1366 0070 FFF7FEFF 		bl	atiny_get_log_level
 1367              	.LVL164:
 1368 0074 0128     		cmp	r0, #1
 1369 0076 23D9     		bls	.L163
 1370              	.L155:
 197:C:/Users/lenovo/Desktop/liteos/Project2/BearPi_LiteOS/components/connectivity/agent_tiny/atiny_lwm2m\atiny_fota_manager.c ****     {
 1371              		.loc 1 197 0
 1372 0078 6368     		ldr	r3, [r4, #4]
 1373 007a AB42     		cmp	r3, r5
 1374 007c 16D0     		beq	.L156
 1375              	.LBB2:
 201:C:/Users/lenovo/Desktop/liteos/Project2/BearPi_LiteOS/components/connectivity/agent_tiny/atiny_lwm2m\atiny_fota_manager.c ****         states[ATINY_FOTA_DOWNLOADING] = ATINY_GET_STATE(thi->downloading_state);
 1376              		.loc 1 201 0
 1377 007e 04F10C03 		add	r3, r4, #12
 1378 0082 0493     		str	r3, [sp, #16]
 202:C:/Users/lenovo/Desktop/liteos/Project2/BearPi_LiteOS/components/connectivity/agent_tiny/atiny_lwm2m\atiny_fota_manager.c ****         states[ATINY_FOTA_DOWNLOADED] = ATINY_GET_STATE(thi->downloaded_state);
 1379              		.loc 1 202 0
 1380 0084 04F14003 		add	r3, r4, #64
 1381 0088 0593     		str	r3, [sp, #20]
 203:C:/Users/lenovo/Desktop/liteos/Project2/BearPi_LiteOS/components/connectivity/agent_tiny/atiny_lwm2m\atiny_fota_manager.c ****         states[ATINY_FOTA_UPDATING] = ATINY_GET_STATE(thi->updating_state);
 1382              		.loc 1 203 0
 1383 008a 04F15803 		add	r3, r4, #88
 1384 008e 0693     		str	r3, [sp, #24]
 204:C:/Users/lenovo/Desktop/liteos/Project2/BearPi_LiteOS/components/connectivity/agent_tiny/atiny_lwm2m\atiny_fota_manager.c ****         thi->current = states[state];
 1385              		.loc 1 204 0
 1386 0090 04F17003 		add	r3, r4, #112
 1387 0094 0793     		str	r3, [sp, #28]
ARM GAS  c:\Users\lenovo\AppData\Local\Temp\ccFFGHFi.s 			page 34


 205:C:/Users/lenovo/Desktop/liteos/Project2/BearPi_LiteOS/components/connectivity/agent_tiny/atiny_lwm2m\atiny_fota_manager.c ****         thi->state = state;
 1388              		.loc 1 205 0
 1389 0096 08AB     		add	r3, sp, #32
 1390 0098 03EB8503 		add	r3, r3, r5, lsl #2
 1391 009c 53F8103C 		ldr	r3, [r3, #-16]
 1392 00a0 C4F88830 		str	r3, [r4, #136]
 206:C:/Users/lenovo/Desktop/liteos/Project2/BearPi_LiteOS/components/connectivity/agent_tiny/atiny_lwm2m\atiny_fota_manager.c ****         thi->wait_ack_flag = false;
 1393              		.loc 1 206 0
 1394 00a4 6560     		str	r5, [r4, #4]
 207:C:/Users/lenovo/Desktop/liteos/Project2/BearPi_LiteOS/components/connectivity/agent_tiny/atiny_lwm2m\atiny_fota_manager.c ****         /*lint +e614 */
 1395              		.loc 1 207 0
 1396 00a6 0023     		movs	r3, #0
 1397 00a8 84F89830 		strb	r3, [r4, #152]
 1398              	.L156:
 1399              	.LBE2:
 210:C:/Users/lenovo/Desktop/liteos/Project2/BearPi_LiteOS/components/connectivity/agent_tiny/atiny_lwm2m\atiny_fota_manager.c ****     atiny_event_notify(ATINY_FOTA_STATE, (const char *)&thi->state, sizeof(thi->state));
 1400              		.loc 1 210 0
 1401 00ac C4F89C50 		str	r5, [r4, #156]
 211:C:/Users/lenovo/Desktop/liteos/Project2/BearPi_LiteOS/components/connectivity/agent_tiny/atiny_lwm2m\atiny_fota_manager.c ****     return ATINY_OK;
 1402              		.loc 1 211 0
 1403 00b0 0422     		movs	r2, #4
 1404 00b2 A118     		adds	r1, r4, r2
 1405 00b4 1046     		mov	r0, r2
 1406 00b6 FFF7FEFF 		bl	atiny_event_notify
 1407              	.LVL165:
 212:C:/Users/lenovo/Desktop/liteos/Project2/BearPi_LiteOS/components/connectivity/agent_tiny/atiny_lwm2m\atiny_fota_manager.c **** }
 1408              		.loc 1 212 0
 1409 00ba 0020     		movs	r0, #0
 1410              	.LVL166:
 1411              	.L151:
 213:C:/Users/lenovo/Desktop/liteos/Project2/BearPi_LiteOS/components/connectivity/agent_tiny/atiny_lwm2m\atiny_fota_manager.c **** 
 1412              		.loc 1 213 0
 1413 00bc 08B0     		add	sp, sp, #32
 1414              	.LCFI43:
 1415              		.cfi_remember_state
 1416              		.cfi_def_cfa_offset 16
 1417              		@ sp needed
 1418 00be 70BD     		pop	{r4, r5, r6, pc}
 1419              	.LVL167:
 1420              	.L163:
 1421              	.LCFI44:
 1422              		.cfi_restore_state
 196:C:/Users/lenovo/Desktop/liteos/Project2/BearPi_LiteOS/components/connectivity/agent_tiny/atiny_lwm2m\atiny_fota_manager.c ****     if(thi->state != state)
 1423              		.loc 1 196 0 discriminator 1
 1424 00c0 0120     		movs	r0, #1
 1425 00c2 FFF7FEFF 		bl	atiny_get_log_level_name
 1426              	.LVL168:
 1427 00c6 0646     		mov	r6, r0
 1428 00c8 FFF7FEFF 		bl	atiny_gettime_ms
 1429              	.LVL169:
 1430 00cc 6368     		ldr	r3, [r4, #4]
 1431 00ce 0295     		str	r5, [sp, #8]
 1432 00d0 0193     		str	r3, [sp, #4]
 1433 00d2 C423     		movs	r3, #196
 1434 00d4 0093     		str	r3, [sp]
 1435 00d6 034B     		ldr	r3, .L164
 1436 00d8 0246     		mov	r2, r0
ARM GAS  c:\Users\lenovo\AppData\Local\Temp\ccFFGHFi.s 			page 35


 1437 00da 3146     		mov	r1, r6
 1438 00dc 0448     		ldr	r0, .L164+12
 1439 00de FFF7FEFF 		bl	atiny_printf
 1440              	.LVL170:
 1441 00e2 C9E7     		b	.L155
 1442              	.L165:
 1443              		.align	2
 1444              	.L164:
 1445 00e4 00000000 		.word	.LANCHOR10
 1446 00e8 00000000 		.word	.LC0
 1447 00ec 00000000 		.word	.LC10
 1448 00f0 2C000000 		.word	.LC11
 1449              		.cfi_endproc
 1450              	.LFE152:
 1452              		.section	.text.atiny_fota_manager_save_rpt_state,"ax",%progbits
 1453              		.align	1
 1454              		.global	atiny_fota_manager_save_rpt_state
 1455              		.syntax unified
 1456              		.thumb
 1457              		.thumb_func
 1458              		.fpu fpv4-sp-d16
 1460              	atiny_fota_manager_save_rpt_state:
 1461              	.LFB154:
 229:C:/Users/lenovo/Desktop/liteos/Project2/BearPi_LiteOS/components/connectivity/agent_tiny/atiny_lwm2m\atiny_fota_manager.c **** 
 1462              		.loc 1 229 0
 1463              		.cfi_startproc
 1464              		@ args = 0, pretend = 0, frame = 0
 1465              		@ frame_needed = 0, uses_anonymous_args = 0
 1466              	.LVL171:
 1467 0000 70B5     		push	{r4, r5, r6, lr}
 1468              	.LCFI45:
 1469              		.cfi_def_cfa_offset 16
 1470              		.cfi_offset 4, -16
 1471              		.cfi_offset 5, -12
 1472              		.cfi_offset 6, -8
 1473              		.cfi_offset 14, -4
 1474 0002 82B0     		sub	sp, sp, #8
 1475              	.LCFI46:
 1476              		.cfi_def_cfa_offset 24
 231:C:/Users/lenovo/Desktop/liteos/Project2/BearPi_LiteOS/components/connectivity/agent_tiny/atiny_lwm2m\atiny_fota_manager.c **** 
 1477              		.loc 1 231 0
 1478 0004 90B1     		cbz	r0, .L171
 1479 0006 0D46     		mov	r5, r1
 1480 0008 0446     		mov	r4, r0
 233:C:/Users/lenovo/Desktop/liteos/Project2/BearPi_LiteOS/components/connectivity/agent_tiny/atiny_lwm2m\atiny_fota_manager.c ****     thi->rpt_state = rpt_state;
 1481              		.loc 1 233 0
 1482 000a FFF7FEFF 		bl	atiny_get_log_level
 1483              	.LVL172:
 1484 000e 0128     		cmp	r0, #1
 1485 0010 1FD9     		bls	.L172
 1486              	.L169:
 234:C:/Users/lenovo/Desktop/liteos/Project2/BearPi_LiteOS/components/connectivity/agent_tiny/atiny_lwm2m\atiny_fota_manager.c ****     thi->wait_ack_flag = true;
 1487              		.loc 1 234 0
 1488 0012 C4F89C50 		str	r5, [r4, #156]
 235:C:/Users/lenovo/Desktop/liteos/Project2/BearPi_LiteOS/components/connectivity/agent_tiny/atiny_lwm2m\atiny_fota_manager.c ****     thi->cookie = g_firmware_cookie++;
 1489              		.loc 1 235 0
 1490 0016 0123     		movs	r3, #1
ARM GAS  c:\Users\lenovo\AppData\Local\Temp\ccFFGHFi.s 			page 36


 1491 0018 84F89830 		strb	r3, [r4, #152]
 236:C:/Users/lenovo/Desktop/liteos/Project2/BearPi_LiteOS/components/connectivity/agent_tiny/atiny_lwm2m\atiny_fota_manager.c **** }
 1492              		.loc 1 236 0
 1493 001c 154A     		ldr	r2, .L173
 1494 001e 1368     		ldr	r3, [r2]
 1495 0020 591C     		adds	r1, r3, #1
 1496 0022 1160     		str	r1, [r2]
 1497 0024 C4F89430 		str	r3, [r4, #148]
 1498              	.LVL173:
 1499              	.L166:
 237:C:/Users/lenovo/Desktop/liteos/Project2/BearPi_LiteOS/components/connectivity/agent_tiny/atiny_lwm2m\atiny_fota_manager.c **** 
 1500              		.loc 1 237 0
 1501 0028 02B0     		add	sp, sp, #8
 1502              	.LCFI47:
 1503              		.cfi_remember_state
 1504              		.cfi_def_cfa_offset 16
 1505              		@ sp needed
 1506 002a 70BD     		pop	{r4, r5, r6, pc}
 1507              	.LVL174:
 1508              	.L171:
 1509              	.LCFI48:
 1510              		.cfi_restore_state
 231:C:/Users/lenovo/Desktop/liteos/Project2/BearPi_LiteOS/components/connectivity/agent_tiny/atiny_lwm2m\atiny_fota_manager.c **** 
 1511              		.loc 1 231 0 discriminator 1
 1512 002c FFF7FEFF 		bl	atiny_get_log_level
 1513              	.LVL175:
 1514 0030 0328     		cmp	r0, #3
 1515 0032 F9D8     		bhi	.L166
 231:C:/Users/lenovo/Desktop/liteos/Project2/BearPi_LiteOS/components/connectivity/agent_tiny/atiny_lwm2m\atiny_fota_manager.c **** 
 1516              		.loc 1 231 0 is_stmt 0 discriminator 2
 1517 0034 0320     		movs	r0, #3
 1518 0036 FFF7FEFF 		bl	atiny_get_log_level_name
 1519              	.LVL176:
 1520 003a 0446     		mov	r4, r0
 1521 003c FFF7FEFF 		bl	atiny_gettime_ms
 1522              	.LVL177:
 1523 0040 E723     		movs	r3, #231
 1524 0042 0093     		str	r3, [sp]
 1525 0044 0C4B     		ldr	r3, .L173+4
 1526 0046 0246     		mov	r2, r0
 1527 0048 2146     		mov	r1, r4
 1528 004a 0C48     		ldr	r0, .L173+8
 1529 004c FFF7FEFF 		bl	atiny_printf
 1530              	.LVL178:
 1531 0050 EAE7     		b	.L166
 1532              	.LVL179:
 1533              	.L172:
 233:C:/Users/lenovo/Desktop/liteos/Project2/BearPi_LiteOS/components/connectivity/agent_tiny/atiny_lwm2m\atiny_fota_manager.c ****     thi->rpt_state = rpt_state;
 1534              		.loc 1 233 0 is_stmt 1 discriminator 1
 1535 0052 0120     		movs	r0, #1
 1536 0054 FFF7FEFF 		bl	atiny_get_log_level_name
 1537              	.LVL180:
 1538 0058 0646     		mov	r6, r0
 1539 005a FFF7FEFF 		bl	atiny_gettime_ms
 1540              	.LVL181:
 1541 005e 0195     		str	r5, [sp, #4]
 1542 0060 E923     		movs	r3, #233
ARM GAS  c:\Users\lenovo\AppData\Local\Temp\ccFFGHFi.s 			page 37


 1543 0062 0093     		str	r3, [sp]
 1544 0064 044B     		ldr	r3, .L173+4
 1545 0066 0246     		mov	r2, r0
 1546 0068 3146     		mov	r1, r6
 1547 006a 0548     		ldr	r0, .L173+12
 1548 006c FFF7FEFF 		bl	atiny_printf
 1549              	.LVL182:
 1550 0070 CFE7     		b	.L169
 1551              	.L174:
 1552 0072 00BF     		.align	2
 1553              	.L173:
 1554 0074 00000000 		.word	.LANCHOR12
 1555 0078 00000000 		.word	.LANCHOR11
 1556 007c 00000000 		.word	.LC0
 1557 0080 00000000 		.word	.LC12
 1558              		.cfi_endproc
 1559              	.LFE154:
 1561              		.section	.text.atiny_fota_manager_rpt_state,"ax",%progbits
 1562              		.align	1
 1563              		.global	atiny_fota_manager_rpt_state
 1564              		.syntax unified
 1565              		.thumb
 1566              		.thumb_func
 1567              		.fpu fpv4-sp-d16
 1569              	atiny_fota_manager_rpt_state:
 1570              	.LFB153:
 216:C:/Users/lenovo/Desktop/liteos/Project2/BearPi_LiteOS/components/connectivity/agent_tiny/atiny_lwm2m\atiny_fota_manager.c ****     lwm2m_uri_t uri;
 1571              		.loc 1 216 0
 1572              		.cfi_startproc
 1573              		@ args = 0, pretend = 0, frame = 8
 1574              		@ frame_needed = 0, uses_anonymous_args = 0
 1575              	.LVL183:
 1576 0000 30B5     		push	{r4, r5, lr}
 1577              	.LCFI49:
 1578              		.cfi_def_cfa_offset 12
 1579              		.cfi_offset 4, -12
 1580              		.cfi_offset 5, -8
 1581              		.cfi_offset 14, -4
 1582 0002 85B0     		sub	sp, sp, #20
 1583              	.LCFI50:
 1584              		.cfi_def_cfa_offset 32
 1585              	.LVL184:
 219:C:/Users/lenovo/Desktop/liteos/Project2/BearPi_LiteOS/components/connectivity/agent_tiny/atiny_lwm2m\atiny_fota_manager.c **** 
 1586              		.loc 1 219 0
 1587 0004 90B1     		cbz	r0, .L180
 1588 0006 0546     		mov	r5, r0
 221:C:/Users/lenovo/Desktop/liteos/Project2/BearPi_LiteOS/components/connectivity/agent_tiny/atiny_lwm2m\atiny_fota_manager.c ****     memset((void *)&uri, 0, sizeof(uri));
 1589              		.loc 1 221 0
 1590 0008 FFF7FEFF 		bl	atiny_fota_manager_save_rpt_state
 1591              	.LVL185:
 222:C:/Users/lenovo/Desktop/liteos/Project2/BearPi_LiteOS/components/connectivity/agent_tiny/atiny_lwm2m\atiny_fota_manager.c ****     (void)lwm2m_stringToUri(uri_str, strlen(uri_str), &uri);
 1592              		.loc 1 222 0
 1593 000c 0024     		movs	r4, #0
 1594 000e 0294     		str	r4, [sp, #8]
 1595 0010 0394     		str	r4, [sp, #12]
 223:C:/Users/lenovo/Desktop/liteos/Project2/BearPi_LiteOS/components/connectivity/agent_tiny/atiny_lwm2m\atiny_fota_manager.c ****     lwm2m_resource_value_changed(thi->lwm2m_context, &uri);
 1596              		.loc 1 223 0
ARM GAS  c:\Users\lenovo\AppData\Local\Temp\ccFFGHFi.s 			page 38


 1597 0012 02AA     		add	r2, sp, #8
 1598 0014 0621     		movs	r1, #6
 1599 0016 1148     		ldr	r0, .L182
 1600 0018 FFF7FEFF 		bl	lwm2m_stringToUri
 1601              	.LVL186:
 224:C:/Users/lenovo/Desktop/liteos/Project2/BearPi_LiteOS/components/connectivity/agent_tiny/atiny_lwm2m\atiny_fota_manager.c ****     return ATINY_OK;
 1602              		.loc 1 224 0
 1603 001c 02A9     		add	r1, sp, #8
 1604 001e D5F89000 		ldr	r0, [r5, #144]
 1605 0022 FFF7FEFF 		bl	lwm2m_resource_value_changed
 1606              	.LVL187:
 225:C:/Users/lenovo/Desktop/liteos/Project2/BearPi_LiteOS/components/connectivity/agent_tiny/atiny_lwm2m\atiny_fota_manager.c **** }
 1607              		.loc 1 225 0
 1608 0026 2046     		mov	r0, r4
 1609              	.LVL188:
 1610              	.L175:
 226:C:/Users/lenovo/Desktop/liteos/Project2/BearPi_LiteOS/components/connectivity/agent_tiny/atiny_lwm2m\atiny_fota_manager.c **** 
 1611              		.loc 1 226 0
 1612 0028 05B0     		add	sp, sp, #20
 1613              	.LCFI51:
 1614              		.cfi_remember_state
 1615              		.cfi_def_cfa_offset 12
 1616              		@ sp needed
 1617 002a 30BD     		pop	{r4, r5, pc}
 1618              	.LVL189:
 1619              	.L180:
 1620              	.LCFI52:
 1621              		.cfi_restore_state
 219:C:/Users/lenovo/Desktop/liteos/Project2/BearPi_LiteOS/components/connectivity/agent_tiny/atiny_lwm2m\atiny_fota_manager.c **** 
 1622              		.loc 1 219 0 discriminator 1
 1623 002c FFF7FEFF 		bl	atiny_get_log_level
 1624              	.LVL190:
 1625 0030 0328     		cmp	r0, #3
 1626 0032 02D9     		bls	.L181
 219:C:/Users/lenovo/Desktop/liteos/Project2/BearPi_LiteOS/components/connectivity/agent_tiny/atiny_lwm2m\atiny_fota_manager.c **** 
 1627              		.loc 1 219 0 is_stmt 0
 1628 0034 4FF0FF30 		mov	r0, #-1
 1629 0038 F6E7     		b	.L175
 1630              	.L181:
 219:C:/Users/lenovo/Desktop/liteos/Project2/BearPi_LiteOS/components/connectivity/agent_tiny/atiny_lwm2m\atiny_fota_manager.c **** 
 1631              		.loc 1 219 0 discriminator 2
 1632 003a 0320     		movs	r0, #3
 1633 003c FFF7FEFF 		bl	atiny_get_log_level_name
 1634              	.LVL191:
 1635 0040 0446     		mov	r4, r0
 1636 0042 FFF7FEFF 		bl	atiny_gettime_ms
 1637              	.LVL192:
 1638 0046 DB23     		movs	r3, #219
 1639 0048 0093     		str	r3, [sp]
 1640 004a 054B     		ldr	r3, .L182+4
 1641 004c 0246     		mov	r2, r0
 1642 004e 2146     		mov	r1, r4
 1643 0050 0448     		ldr	r0, .L182+8
 1644 0052 FFF7FEFF 		bl	atiny_printf
 1645              	.LVL193:
 1646 0056 4FF0FF30 		mov	r0, #-1
 1647 005a E5E7     		b	.L175
ARM GAS  c:\Users\lenovo\AppData\Local\Temp\ccFFGHFi.s 			page 39


 1648              	.L183:
 1649              		.align	2
 1650              	.L182:
 1651 005c 00000000 		.word	.LC13
 1652 0060 00000000 		.word	.LANCHOR13
 1653 0064 00000000 		.word	.LC0
 1654              		.cfi_endproc
 1655              	.LFE153:
 1657              		.section	.text.atiny_fota_manager_set_storage_device,"ax",%progbits
 1658              		.align	1
 1659              		.global	atiny_fota_manager_set_storage_device
 1660              		.syntax unified
 1661              		.thumb
 1662              		.thumb_func
 1663              		.fpu fpv4-sp-d16
 1665              	atiny_fota_manager_set_storage_device:
 1666              	.LFB157:
 267:C:/Users/lenovo/Desktop/liteos/Project2/BearPi_LiteOS/components/connectivity/agent_tiny/atiny_lwm2m\atiny_fota_manager.c ****     int ret;
 1667              		.loc 1 267 0 is_stmt 1
 1668              		.cfi_startproc
 1669              		@ args = 0, pretend = 0, frame = 40
 1670              		@ frame_needed = 0, uses_anonymous_args = 0
 1671              	.LVL194:
 1672 0000 70B5     		push	{r4, r5, r6, lr}
 1673              	.LCFI53:
 1674              		.cfi_def_cfa_offset 16
 1675              		.cfi_offset 4, -16
 1676              		.cfi_offset 5, -12
 1677              		.cfi_offset 6, -8
 1678              		.cfi_offset 14, -4
 1679 0002 8CB0     		sub	sp, sp, #48
 1680              	.LCFI54:
 1681              		.cfi_def_cfa_offset 64
 272:C:/Users/lenovo/Desktop/liteos/Project2/BearPi_LiteOS/components/connectivity/agent_tiny/atiny_lwm2m\atiny_fota_manager.c **** 
 1682              		.loc 1 272 0
 1683 0004 80B1     		cbz	r0, .L192
 1684 0006 0646     		mov	r6, r0
 274:C:/Users/lenovo/Desktop/liteos/Project2/BearPi_LiteOS/components/connectivity/agent_tiny/atiny_lwm2m\atiny_fota_manager.c ****     if (ret != ATINY_OK)
 1685              		.loc 1 274 0
 1686 0008 00F1A005 		add	r5, r0, #160
 1687 000c 1422     		movs	r2, #20
 1688 000e 2946     		mov	r1, r5
 1689 0010 2320     		movs	r0, #35
 1690              	.LVL195:
 1691 0012 FFF7FEFF 		bl	atiny_cmd_ioctl
 1692              	.LVL196:
 275:C:/Users/lenovo/Desktop/liteos/Project2/BearPi_LiteOS/components/connectivity/agent_tiny/atiny_lwm2m\atiny_fota_manager.c ****     {
 1693              		.loc 1 275 0
 1694 0016 0446     		mov	r4, r0
 1695 0018 78B3     		cbz	r0, .L187
 277:C:/Users/lenovo/Desktop/liteos/Project2/BearPi_LiteOS/components/connectivity/agent_tiny/atiny_lwm2m\atiny_fota_manager.c ****         return ret;
 1696              		.loc 1 277 0
 1697 001a FFF7FEFF 		bl	atiny_get_log_level
 1698              	.LVL197:
 1699 001e 0428     		cmp	r0, #4
 1700 0020 1BD9     		bls	.L193
 1701              	.LVL198:
ARM GAS  c:\Users\lenovo\AppData\Local\Temp\ccFFGHFi.s 			page 40


 1702              	.L184:
 304:C:/Users/lenovo/Desktop/liteos/Project2/BearPi_LiteOS/components/connectivity/agent_tiny/atiny_lwm2m\atiny_fota_manager.c **** 
 1703              		.loc 1 304 0
 1704 0022 2046     		mov	r0, r4
 1705 0024 0CB0     		add	sp, sp, #48
 1706              	.LCFI55:
 1707              		.cfi_remember_state
 1708              		.cfi_def_cfa_offset 16
 1709              		@ sp needed
 1710 0026 70BD     		pop	{r4, r5, r6, pc}
 1711              	.LVL199:
 1712              	.L192:
 1713              	.LCFI56:
 1714              		.cfi_restore_state
 272:C:/Users/lenovo/Desktop/liteos/Project2/BearPi_LiteOS/components/connectivity/agent_tiny/atiny_lwm2m\atiny_fota_manager.c **** 
 1715              		.loc 1 272 0 discriminator 1
 1716 0028 FFF7FEFF 		bl	atiny_get_log_level
 1717              	.LVL200:
 1718 002c 0328     		cmp	r0, #3
 1719 002e 02D9     		bls	.L194
 272:C:/Users/lenovo/Desktop/liteos/Project2/BearPi_LiteOS/components/connectivity/agent_tiny/atiny_lwm2m\atiny_fota_manager.c **** 
 1720              		.loc 1 272 0 is_stmt 0
 1721 0030 4FF0FF34 		mov	r4, #-1
 1722 0034 F5E7     		b	.L184
 1723              	.L194:
 272:C:/Users/lenovo/Desktop/liteos/Project2/BearPi_LiteOS/components/connectivity/agent_tiny/atiny_lwm2m\atiny_fota_manager.c **** 
 1724              		.loc 1 272 0 discriminator 2
 1725 0036 0320     		movs	r0, #3
 1726 0038 FFF7FEFF 		bl	atiny_get_log_level_name
 1727              	.LVL201:
 1728 003c 0446     		mov	r4, r0
 1729 003e FFF7FEFF 		bl	atiny_gettime_ms
 1730              	.LVL202:
 1731 0042 4FF48873 		mov	r3, #272
 1732 0046 0093     		str	r3, [sp]
 1733 0048 344B     		ldr	r3, .L195
 1734 004a 0246     		mov	r2, r0
 1735 004c 2146     		mov	r1, r4
 1736 004e 3448     		ldr	r0, .L195+4
 1737 0050 FFF7FEFF 		bl	atiny_printf
 1738              	.LVL203:
 1739 0054 4FF0FF34 		mov	r4, #-1
 1740 0058 E3E7     		b	.L184
 1741              	.LVL204:
 1742              	.L193:
 277:C:/Users/lenovo/Desktop/liteos/Project2/BearPi_LiteOS/components/connectivity/agent_tiny/atiny_lwm2m\atiny_fota_manager.c ****         return ret;
 1743              		.loc 1 277 0 is_stmt 1 discriminator 1
 1744 005a 0420     		movs	r0, #4
 1745 005c FFF7FEFF 		bl	atiny_get_log_level_name
 1746              	.LVL205:
 1747 0060 0546     		mov	r5, r0
 1748 0062 FFF7FEFF 		bl	atiny_gettime_ms
 1749              	.LVL206:
 1750 0066 40F21513 		movw	r3, #277
 1751 006a 0093     		str	r3, [sp]
 1752 006c 2B4B     		ldr	r3, .L195
 1753 006e 0246     		mov	r2, r0
ARM GAS  c:\Users\lenovo\AppData\Local\Temp\ccFFGHFi.s 			page 41


 1754 0070 2946     		mov	r1, r5
 1755 0072 2C48     		ldr	r0, .L195+8
 1756 0074 FFF7FEFF 		bl	atiny_printf
 1757              	.LVL207:
 1758 0078 D3E7     		b	.L184
 1759              	.LVL208:
 1760              	.L187:
 281:C:/Users/lenovo/Desktop/liteos/Project2/BearPi_LiteOS/components/connectivity/agent_tiny/atiny_lwm2m\atiny_fota_manager.c ****     flag_op.func_flag_write = atiny_fota_manager_flag_write;
 1761              		.loc 1 281 0
 1762 007a 2B4B     		ldr	r3, .L195+12
 1763 007c 0A93     		str	r3, [sp, #40]
 282:C:/Users/lenovo/Desktop/liteos/Project2/BearPi_LiteOS/components/connectivity/agent_tiny/atiny_lwm2m\atiny_fota_manager.c ****     (void)flag_init(&flag_op);
 1764              		.loc 1 282 0
 1765 007e 2B4B     		ldr	r3, .L195+16
 1766 0080 0B93     		str	r3, [sp, #44]
 283:C:/Users/lenovo/Desktop/liteos/Project2/BearPi_LiteOS/components/connectivity/agent_tiny/atiny_lwm2m\atiny_fota_manager.c ****     ret = flag_upgrade_init();
 1767              		.loc 1 283 0
 1768 0082 0AA8     		add	r0, sp, #40
 1769              	.LVL209:
 1770 0084 FFF7FEFF 		bl	flag_init
 1771              	.LVL210:
 284:C:/Users/lenovo/Desktop/liteos/Project2/BearPi_LiteOS/components/connectivity/agent_tiny/atiny_lwm2m\atiny_fota_manager.c ****     if (ret != ATINY_OK)
 1772              		.loc 1 284 0
 1773 0088 FFF7FEFF 		bl	flag_upgrade_init
 1774              	.LVL211:
 285:C:/Users/lenovo/Desktop/liteos/Project2/BearPi_LiteOS/components/connectivity/agent_tiny/atiny_lwm2m\atiny_fota_manager.c ****     {
 1775              		.loc 1 285 0
 1776 008c 0446     		mov	r4, r0
 1777 008e 98B1     		cbz	r0, .L188
 287:C:/Users/lenovo/Desktop/liteos/Project2/BearPi_LiteOS/components/connectivity/agent_tiny/atiny_lwm2m\atiny_fota_manager.c ****         return ret;
 1778              		.loc 1 287 0
 1779 0090 FFF7FEFF 		bl	atiny_get_log_level
 1780              	.LVL212:
 1781 0094 0428     		cmp	r0, #4
 1782 0096 C4D8     		bhi	.L184
 287:C:/Users/lenovo/Desktop/liteos/Project2/BearPi_LiteOS/components/connectivity/agent_tiny/atiny_lwm2m\atiny_fota_manager.c ****         return ret;
 1783              		.loc 1 287 0 is_stmt 0 discriminator 1
 1784 0098 0420     		movs	r0, #4
 1785 009a FFF7FEFF 		bl	atiny_get_log_level_name
 1786              	.LVL213:
 1787 009e 0546     		mov	r5, r0
 1788 00a0 FFF7FEFF 		bl	atiny_gettime_ms
 1789              	.LVL214:
 1790 00a4 40F21F13 		movw	r3, #287
 1791 00a8 0093     		str	r3, [sp]
 1792 00aa 1C4B     		ldr	r3, .L195
 1793 00ac 0246     		mov	r2, r0
 1794 00ae 2946     		mov	r1, r5
 1795 00b0 1F48     		ldr	r0, .L195+20
 1796 00b2 FFF7FEFF 		bl	atiny_printf
 1797              	.LVL215:
 1798 00b6 B4E7     		b	.L184
 1799              	.LVL216:
 1800              	.L188:
 291:C:/Users/lenovo/Desktop/liteos/Project2/BearPi_LiteOS/components/connectivity/agent_tiny/atiny_lwm2m\atiny_fota_manager.c ****     pack_param.malloc = atiny_malloc;
 1801              		.loc 1 291 0 is_stmt 1
 1802 00b8 02AC     		add	r4, sp, #8
ARM GAS  c:\Users\lenovo\AppData\Local\Temp\ccFFGHFi.s 			page 42


 1803 00ba 2868     		ldr	r0, [r5]	@ unaligned
 1804              	.LVL217:
 1805 00bc 6968     		ldr	r1, [r5, #4]	@ unaligned
 1806 00be AA68     		ldr	r2, [r5, #8]	@ unaligned
 1807 00c0 EB68     		ldr	r3, [r5, #12]	@ unaligned
 1808 00c2 0FC4     		stmia	r4!, {r0, r1, r2, r3}
 1809 00c4 2869     		ldr	r0, [r5, #16]	@ unaligned
 1810 00c6 2060     		str	r0, [r4]
 292:C:/Users/lenovo/Desktop/liteos/Project2/BearPi_LiteOS/components/connectivity/agent_tiny/atiny_lwm2m\atiny_fota_manager.c ****     pack_param.free = atiny_free;
 1811              		.loc 1 292 0
 1812 00c8 1A4B     		ldr	r3, .L195+24
 1813 00ca 0793     		str	r3, [sp, #28]
 293:C:/Users/lenovo/Desktop/liteos/Project2/BearPi_LiteOS/components/connectivity/agent_tiny/atiny_lwm2m\atiny_fota_manager.c ****     pack_param.printf = atiny_printf;
 1814              		.loc 1 293 0
 1815 00cc 1A4B     		ldr	r3, .L195+28
 1816 00ce 0893     		str	r3, [sp, #32]
 294:C:/Users/lenovo/Desktop/liteos/Project2/BearPi_LiteOS/components/connectivity/agent_tiny/atiny_lwm2m\atiny_fota_manager.c ****     ret = pack_init_device(&pack_param);
 1817              		.loc 1 294 0
 1818 00d0 1A4B     		ldr	r3, .L195+32
 1819 00d2 0993     		str	r3, [sp, #36]
 295:C:/Users/lenovo/Desktop/liteos/Project2/BearPi_LiteOS/components/connectivity/agent_tiny/atiny_lwm2m\atiny_fota_manager.c ****     if (ret != ATINY_OK)
 1820              		.loc 1 295 0
 1821 00d4 02A8     		add	r0, sp, #8
 1822 00d6 FFF7FEFF 		bl	pack_init_device
 1823              	.LVL218:
 296:C:/Users/lenovo/Desktop/liteos/Project2/BearPi_LiteOS/components/connectivity/agent_tiny/atiny_lwm2m\atiny_fota_manager.c ****     {
 1824              		.loc 1 296 0
 1825 00da 0446     		mov	r4, r0
 1826 00dc 98B1     		cbz	r0, .L189
 298:C:/Users/lenovo/Desktop/liteos/Project2/BearPi_LiteOS/components/connectivity/agent_tiny/atiny_lwm2m\atiny_fota_manager.c ****         return ret;
 1827              		.loc 1 298 0
 1828 00de FFF7FEFF 		bl	atiny_get_log_level
 1829              	.LVL219:
 1830 00e2 0428     		cmp	r0, #4
 1831 00e4 9DD8     		bhi	.L184
 298:C:/Users/lenovo/Desktop/liteos/Project2/BearPi_LiteOS/components/connectivity/agent_tiny/atiny_lwm2m\atiny_fota_manager.c ****         return ret;
 1832              		.loc 1 298 0 is_stmt 0 discriminator 1
 1833 00e6 0420     		movs	r0, #4
 1834 00e8 FFF7FEFF 		bl	atiny_get_log_level_name
 1835              	.LVL220:
 1836 00ec 0546     		mov	r5, r0
 1837 00ee FFF7FEFF 		bl	atiny_gettime_ms
 1838              	.LVL221:
 1839 00f2 4FF49573 		mov	r3, #298
 1840 00f6 0093     		str	r3, [sp]
 1841 00f8 084B     		ldr	r3, .L195
 1842 00fa 0246     		mov	r2, r0
 1843 00fc 2946     		mov	r1, r5
 1844 00fe 1048     		ldr	r0, .L195+36
 1845 0100 FFF7FEFF 		bl	atiny_printf
 1846              	.LVL222:
 1847 0104 8DE7     		b	.L184
 1848              	.LVL223:
 1849              	.L189:
 302:C:/Users/lenovo/Desktop/liteos/Project2/BearPi_LiteOS/components/connectivity/agent_tiny/atiny_lwm2m\atiny_fota_manager.c ****     return atiny_fota_idle_state_int_report_result(&thi->idle_state);
 1850              		.loc 1 302 0 is_stmt 1
 1851 0106 FFF7FEFF 		bl	pack_get_device
ARM GAS  c:\Users\lenovo\AppData\Local\Temp\ccFFGHFi.s 			page 43


 1852              	.LVL224:
 1853 010a C6F88C00 		str	r0, [r6, #140]
 303:C:/Users/lenovo/Desktop/liteos/Project2/BearPi_LiteOS/components/connectivity/agent_tiny/atiny_lwm2m\atiny_fota_manager.c **** }
 1854              		.loc 1 303 0
 1855 010e 06F10C00 		add	r0, r6, #12
 1856 0112 FFF7FEFF 		bl	atiny_fota_idle_state_int_report_result
 1857              	.LVL225:
 1858 0116 0446     		mov	r4, r0
 1859              	.LVL226:
 1860 0118 83E7     		b	.L184
 1861              	.L196:
 1862 011a 00BF     		.align	2
 1863              	.L195:
 1864 011c 00000000 		.word	.LANCHOR14
 1865 0120 00000000 		.word	.LC0
 1866 0124 00000000 		.word	.LC14
 1867 0128 00000000 		.word	atiny_fota_manager_flag_read
 1868 012c 00000000 		.word	atiny_fota_manager_flag_write
 1869 0130 28000000 		.word	.LC15
 1870 0134 00000000 		.word	atiny_malloc
 1871 0138 00000000 		.word	atiny_free
 1872 013c 00000000 		.word	atiny_printf
 1873 0140 54000000 		.word	.LC16
 1874              		.cfi_endproc
 1875              	.LFE157:
 1877              		.section	.text.atiny_fota_manager_get_storage_device,"ax",%progbits
 1878              		.align	1
 1879              		.global	atiny_fota_manager_get_storage_device
 1880              		.syntax unified
 1881              		.thumb
 1882              		.thumb_func
 1883              		.fpu fpv4-sp-d16
 1885              	atiny_fota_manager_get_storage_device:
 1886              	.LFB158:
 307:C:/Users/lenovo/Desktop/liteos/Project2/BearPi_LiteOS/components/connectivity/agent_tiny/atiny_lwm2m\atiny_fota_manager.c ****     ASSERT_THIS(return NULL);
 1887              		.loc 1 307 0
 1888              		.cfi_startproc
 1889              		@ args = 0, pretend = 0, frame = 0
 1890              		@ frame_needed = 0, uses_anonymous_args = 0
 1891              	.LVL227:
 308:C:/Users/lenovo/Desktop/liteos/Project2/BearPi_LiteOS/components/connectivity/agent_tiny/atiny_lwm2m\atiny_fota_manager.c ****     return thi->device;
 1892              		.loc 1 308 0
 1893 0000 10B1     		cbz	r0, .L205
 309:C:/Users/lenovo/Desktop/liteos/Project2/BearPi_LiteOS/components/connectivity/agent_tiny/atiny_lwm2m\atiny_fota_manager.c **** }
 1894              		.loc 1 309 0
 1895 0002 D0F88C00 		ldr	r0, [r0, #140]
 1896              	.LVL228:
 310:C:/Users/lenovo/Desktop/liteos/Project2/BearPi_LiteOS/components/connectivity/agent_tiny/atiny_lwm2m\atiny_fota_manager.c **** 
 1897              		.loc 1 310 0
 1898 0006 7047     		bx	lr
 1899              	.LVL229:
 1900              	.L205:
 307:C:/Users/lenovo/Desktop/liteos/Project2/BearPi_LiteOS/components/connectivity/agent_tiny/atiny_lwm2m\atiny_fota_manager.c ****     ASSERT_THIS(return NULL);
 1901              		.loc 1 307 0 discriminator 1
 1902 0008 10B5     		push	{r4, lr}
 1903              	.LCFI57:
 1904              		.cfi_def_cfa_offset 8
ARM GAS  c:\Users\lenovo\AppData\Local\Temp\ccFFGHFi.s 			page 44


 1905              		.cfi_offset 4, -8
 1906              		.cfi_offset 14, -4
 1907 000a 82B0     		sub	sp, sp, #8
 1908              	.LCFI58:
 1909              		.cfi_def_cfa_offset 16
 308:C:/Users/lenovo/Desktop/liteos/Project2/BearPi_LiteOS/components/connectivity/agent_tiny/atiny_lwm2m\atiny_fota_manager.c ****     return thi->device;
 1910              		.loc 1 308 0 discriminator 1
 1911 000c FFF7FEFF 		bl	atiny_get_log_level
 1912              	.LVL230:
 1913 0010 0328     		cmp	r0, #3
 1914 0012 02D9     		bls	.L206
 308:C:/Users/lenovo/Desktop/liteos/Project2/BearPi_LiteOS/components/connectivity/agent_tiny/atiny_lwm2m\atiny_fota_manager.c ****     return thi->device;
 1915              		.loc 1 308 0 is_stmt 0
 1916 0014 0020     		movs	r0, #0
 1917              	.L197:
 310:C:/Users/lenovo/Desktop/liteos/Project2/BearPi_LiteOS/components/connectivity/agent_tiny/atiny_lwm2m\atiny_fota_manager.c **** 
 1918              		.loc 1 310 0 is_stmt 1
 1919 0016 02B0     		add	sp, sp, #8
 1920              	.LCFI59:
 1921              		.cfi_remember_state
 1922              		.cfi_def_cfa_offset 8
 1923              		@ sp needed
 1924 0018 10BD     		pop	{r4, pc}
 1925              	.L206:
 1926              	.LCFI60:
 1927              		.cfi_restore_state
 308:C:/Users/lenovo/Desktop/liteos/Project2/BearPi_LiteOS/components/connectivity/agent_tiny/atiny_lwm2m\atiny_fota_manager.c ****     return thi->device;
 1928              		.loc 1 308 0 discriminator 2
 1929 001a 0320     		movs	r0, #3
 1930 001c FFF7FEFF 		bl	atiny_get_log_level_name
 1931              	.LVL231:
 1932 0020 0446     		mov	r4, r0
 1933 0022 FFF7FEFF 		bl	atiny_gettime_ms
 1934              	.LVL232:
 1935 0026 4FF49A73 		mov	r3, #308
 1936 002a 0093     		str	r3, [sp]
 1937 002c 034B     		ldr	r3, .L207
 1938 002e 0246     		mov	r2, r0
 1939 0030 2146     		mov	r1, r4
 1940 0032 0348     		ldr	r0, .L207+4
 1941 0034 FFF7FEFF 		bl	atiny_printf
 1942              	.LVL233:
 1943 0038 0020     		movs	r0, #0
 1944 003a ECE7     		b	.L197
 1945              	.L208:
 1946              		.align	2
 1947              	.L207:
 1948 003c 00000000 		.word	.LANCHOR15
 1949 0040 00000000 		.word	.LC0
 1950              		.cfi_endproc
 1951              	.LFE158:
 1953              		.section	.text.atiny_fota_manager_init,"ax",%progbits
 1954              		.align	1
 1955              		.global	atiny_fota_manager_init
 1956              		.syntax unified
 1957              		.thumb
 1958              		.thumb_func
ARM GAS  c:\Users\lenovo\AppData\Local\Temp\ccFFGHFi.s 			page 45


 1959              		.fpu fpv4-sp-d16
 1961              	atiny_fota_manager_init:
 1962              	.LFB160:
 319:C:/Users/lenovo/Desktop/liteos/Project2/BearPi_LiteOS/components/connectivity/agent_tiny/atiny_lwm2m\atiny_fota_manager.c ****     memset(thi, 0, sizeof(*thi));
 1963              		.loc 1 319 0
 1964              		.cfi_startproc
 1965              		@ args = 0, pretend = 0, frame = 0
 1966              		@ frame_needed = 0, uses_anonymous_args = 0
 1967              	.LVL234:
 1968 0000 38B5     		push	{r3, r4, r5, lr}
 1969              	.LCFI61:
 1970              		.cfi_def_cfa_offset 16
 1971              		.cfi_offset 3, -16
 1972              		.cfi_offset 4, -12
 1973              		.cfi_offset 5, -8
 1974              		.cfi_offset 14, -4
 1975 0002 0446     		mov	r4, r0
 320:C:/Users/lenovo/Desktop/liteos/Project2/BearPi_LiteOS/components/connectivity/agent_tiny/atiny_lwm2m\atiny_fota_manager.c ****     atiny_fota_idle_state_init(&thi->idle_state, thi);
 1976              		.loc 1 320 0
 1977 0004 B822     		movs	r2, #184
 1978 0006 0021     		movs	r1, #0
 1979 0008 FFF7FEFF 		bl	memset
 1980              	.LVL235:
 321:C:/Users/lenovo/Desktop/liteos/Project2/BearPi_LiteOS/components/connectivity/agent_tiny/atiny_lwm2m\atiny_fota_manager.c ****     atiny_fota_downloading_state_init(&thi->downloading_state, thi);
 1981              		.loc 1 321 0
 1982 000c 04F10C05 		add	r5, r4, #12
 1983 0010 2146     		mov	r1, r4
 1984 0012 2846     		mov	r0, r5
 1985 0014 FFF7FEFF 		bl	atiny_fota_idle_state_init
 1986              	.LVL236:
 322:C:/Users/lenovo/Desktop/liteos/Project2/BearPi_LiteOS/components/connectivity/agent_tiny/atiny_lwm2m\atiny_fota_manager.c ****     atiny_fota_downloaded_state_init(&thi->downloaded_state, thi);
 1987              		.loc 1 322 0
 1988 0018 2146     		mov	r1, r4
 1989 001a 04F14000 		add	r0, r4, #64
 1990 001e FFF7FEFF 		bl	atiny_fota_downloading_state_init
 1991              	.LVL237:
 323:C:/Users/lenovo/Desktop/liteos/Project2/BearPi_LiteOS/components/connectivity/agent_tiny/atiny_lwm2m\atiny_fota_manager.c ****     atiny_fota_updating_state_init(&thi->updating_state, thi);
 1992              		.loc 1 323 0
 1993 0022 2146     		mov	r1, r4
 1994 0024 04F15800 		add	r0, r4, #88
 1995 0028 FFF7FEFF 		bl	atiny_fota_downloaded_state_init
 1996              	.LVL238:
 324:C:/Users/lenovo/Desktop/liteos/Project2/BearPi_LiteOS/components/connectivity/agent_tiny/atiny_lwm2m\atiny_fota_manager.c ****     thi->current = ATINY_GET_STATE(thi->idle_state);
 1997              		.loc 1 324 0
 1998 002c 2146     		mov	r1, r4
 1999 002e 04F17000 		add	r0, r4, #112
 2000 0032 FFF7FEFF 		bl	atiny_fota_updating_state_init
 2001              	.LVL239:
 325:C:/Users/lenovo/Desktop/liteos/Project2/BearPi_LiteOS/components/connectivity/agent_tiny/atiny_lwm2m\atiny_fota_manager.c ****     set_firmware_update_notify(atiny_fota_manager_update_notify, thi);
 2002              		.loc 1 325 0
 2003 0036 C4F88850 		str	r5, [r4, #136]
 326:C:/Users/lenovo/Desktop/liteos/Project2/BearPi_LiteOS/components/connectivity/agent_tiny/atiny_lwm2m\atiny_fota_manager.c ****     atiny_event_notify(ATINY_FOTA_STATE, (const char *)&thi->state, sizeof(thi->state));
 2004              		.loc 1 326 0
 2005 003a 2146     		mov	r1, r4
 2006 003c 0548     		ldr	r0, .L211
 2007 003e FFF7FEFF 		bl	set_firmware_update_notify
 2008              	.LVL240:
ARM GAS  c:\Users\lenovo\AppData\Local\Temp\ccFFGHFi.s 			page 46


 327:C:/Users/lenovo/Desktop/liteos/Project2/BearPi_LiteOS/components/connectivity/agent_tiny/atiny_lwm2m\atiny_fota_manager.c ****     thi->init_flag = true;
 2009              		.loc 1 327 0
 2010 0042 0422     		movs	r2, #4
 2011 0044 A118     		adds	r1, r4, r2
 2012 0046 1046     		mov	r0, r2
 2013 0048 FFF7FEFF 		bl	atiny_event_notify
 2014              	.LVL241:
 328:C:/Users/lenovo/Desktop/liteos/Project2/BearPi_LiteOS/components/connectivity/agent_tiny/atiny_lwm2m\atiny_fota_manager.c **** }
 2015              		.loc 1 328 0
 2016 004c 0123     		movs	r3, #1
 2017 004e 84F8B430 		strb	r3, [r4, #180]
 329:C:/Users/lenovo/Desktop/liteos/Project2/BearPi_LiteOS/components/connectivity/agent_tiny/atiny_lwm2m\atiny_fota_manager.c **** 
 2018              		.loc 1 329 0
 2019 0052 38BD     		pop	{r3, r4, r5, pc}
 2020              	.LVL242:
 2021              	.L212:
 2022              		.align	2
 2023              	.L211:
 2024 0054 00000000 		.word	atiny_fota_manager_update_notify
 2025              		.cfi_endproc
 2026              	.LFE160:
 2028              		.section	.text.atiny_fota_manager_destroy,"ax",%progbits
 2029              		.align	1
 2030              		.global	atiny_fota_manager_destroy
 2031              		.syntax unified
 2032              		.thumb
 2033              		.thumb_func
 2034              		.fpu fpv4-sp-d16
 2036              	atiny_fota_manager_destroy:
 2037              	.LFB161:
 332:C:/Users/lenovo/Desktop/liteos/Project2/BearPi_LiteOS/components/connectivity/agent_tiny/atiny_lwm2m\atiny_fota_manager.c ****     ASSERT_THIS(return);
 2038              		.loc 1 332 0
 2039              		.cfi_startproc
 2040              		@ args = 0, pretend = 0, frame = 0
 2041              		@ frame_needed = 0, uses_anonymous_args = 0
 2042              	.LVL243:
 2043 0000 10B5     		push	{r4, lr}
 2044              	.LCFI62:
 2045              		.cfi_def_cfa_offset 8
 2046              		.cfi_offset 4, -8
 2047              		.cfi_offset 14, -4
 2048 0002 82B0     		sub	sp, sp, #8
 2049              	.LCFI63:
 2050              		.cfi_def_cfa_offset 16
 333:C:/Users/lenovo/Desktop/liteos/Project2/BearPi_LiteOS/components/connectivity/agent_tiny/atiny_lwm2m\atiny_fota_manager.c **** 
 2051              		.loc 1 333 0
 2052 0004 58B1     		cbz	r0, .L218
 2053 0006 0446     		mov	r4, r0
 335:C:/Users/lenovo/Desktop/liteos/Project2/BearPi_LiteOS/components/connectivity/agent_tiny/atiny_lwm2m\atiny_fota_manager.c ****     {
 2054              		.loc 1 335 0
 2055 0008 0068     		ldr	r0, [r0]
 2056              	.LVL244:
 2057 000a 08B1     		cbz	r0, .L216
 337:C:/Users/lenovo/Desktop/liteos/Project2/BearPi_LiteOS/components/connectivity/agent_tiny/atiny_lwm2m\atiny_fota_manager.c ****     }
 2058              		.loc 1 337 0
 2059 000c FFF7FEFF 		bl	atiny_free
 2060              	.LVL245:
ARM GAS  c:\Users\lenovo\AppData\Local\Temp\ccFFGHFi.s 			page 47


 2061              	.L216:
 340:C:/Users/lenovo/Desktop/liteos/Project2/BearPi_LiteOS/components/connectivity/agent_tiny/atiny_lwm2m\atiny_fota_manager.c ****     /*lint +e668 */
 2062              		.loc 1 340 0
 2063 0010 B822     		movs	r2, #184
 2064 0012 0021     		movs	r1, #0
 2065 0014 2046     		mov	r0, r4
 2066 0016 FFF7FEFF 		bl	memset
 2067              	.LVL246:
 2068              	.L213:
 342:C:/Users/lenovo/Desktop/liteos/Project2/BearPi_LiteOS/components/connectivity/agent_tiny/atiny_lwm2m\atiny_fota_manager.c **** 
 2069              		.loc 1 342 0
 2070 001a 02B0     		add	sp, sp, #8
 2071              	.LCFI64:
 2072              		.cfi_remember_state
 2073              		.cfi_def_cfa_offset 8
 2074              		@ sp needed
 2075 001c 10BD     		pop	{r4, pc}
 2076              	.LVL247:
 2077              	.L218:
 2078              	.LCFI65:
 2079              		.cfi_restore_state
 333:C:/Users/lenovo/Desktop/liteos/Project2/BearPi_LiteOS/components/connectivity/agent_tiny/atiny_lwm2m\atiny_fota_manager.c **** 
 2080              		.loc 1 333 0 discriminator 1
 2081 001e FFF7FEFF 		bl	atiny_get_log_level
 2082              	.LVL248:
 2083 0022 0328     		cmp	r0, #3
 2084 0024 F9D8     		bhi	.L213
 333:C:/Users/lenovo/Desktop/liteos/Project2/BearPi_LiteOS/components/connectivity/agent_tiny/atiny_lwm2m\atiny_fota_manager.c **** 
 2085              		.loc 1 333 0 is_stmt 0 discriminator 2
 2086 0026 0320     		movs	r0, #3
 2087 0028 FFF7FEFF 		bl	atiny_get_log_level_name
 2088              	.LVL249:
 2089 002c 0446     		mov	r4, r0
 2090 002e FFF7FEFF 		bl	atiny_gettime_ms
 2091              	.LVL250:
 2092 0032 40F24D13 		movw	r3, #333
 2093 0036 0093     		str	r3, [sp]
 2094 0038 034B     		ldr	r3, .L219
 2095 003a 0246     		mov	r2, r0
 2096 003c 2146     		mov	r1, r4
 2097 003e 0348     		ldr	r0, .L219+4
 2098 0040 FFF7FEFF 		bl	atiny_printf
 2099              	.LVL251:
 2100 0044 E9E7     		b	.L213
 2101              	.L220:
 2102 0046 00BF     		.align	2
 2103              	.L219:
 2104 0048 00000000 		.word	.LANCHOR16
 2105 004c 00000000 		.word	.LC0
 2106              		.cfi_endproc
 2107              	.LFE161:
 2109              		.section	.text.atiny_fota_manager_set_lwm2m_context,"ax",%progbits
 2110              		.align	1
 2111              		.global	atiny_fota_manager_set_lwm2m_context
 2112              		.syntax unified
 2113              		.thumb
 2114              		.thumb_func
ARM GAS  c:\Users\lenovo\AppData\Local\Temp\ccFFGHFi.s 			page 48


 2115              		.fpu fpv4-sp-d16
 2117              	atiny_fota_manager_set_lwm2m_context:
 2118              	.LFB162:
 345:C:/Users/lenovo/Desktop/liteos/Project2/BearPi_LiteOS/components/connectivity/agent_tiny/atiny_lwm2m\atiny_fota_manager.c ****     ASSERT_THIS(return ATINY_ARG_INVALID);
 2119              		.loc 1 345 0 is_stmt 1
 2120              		.cfi_startproc
 2121              		@ args = 0, pretend = 0, frame = 0
 2122              		@ frame_needed = 0, uses_anonymous_args = 0
 2123              	.LVL252:
 346:C:/Users/lenovo/Desktop/liteos/Project2/BearPi_LiteOS/components/connectivity/agent_tiny/atiny_lwm2m\atiny_fota_manager.c ****     thi->lwm2m_context = lwm2m_context;
 2124              		.loc 1 346 0
 2125 0000 18B1     		cbz	r0, .L229
 347:C:/Users/lenovo/Desktop/liteos/Project2/BearPi_LiteOS/components/connectivity/agent_tiny/atiny_lwm2m\atiny_fota_manager.c ****     return ATINY_OK;
 2126              		.loc 1 347 0
 2127 0002 C0F89010 		str	r1, [r0, #144]
 348:C:/Users/lenovo/Desktop/liteos/Project2/BearPi_LiteOS/components/connectivity/agent_tiny/atiny_lwm2m\atiny_fota_manager.c **** }
 2128              		.loc 1 348 0
 2129 0006 0020     		movs	r0, #0
 2130              	.LVL253:
 349:C:/Users/lenovo/Desktop/liteos/Project2/BearPi_LiteOS/components/connectivity/agent_tiny/atiny_lwm2m\atiny_fota_manager.c **** lwm2m_context_t *atiny_fota_manager_get_lwm2m_context(atiny_fota_manager_s *thi)
 2131              		.loc 1 349 0
 2132 0008 7047     		bx	lr
 2133              	.LVL254:
 2134              	.L229:
 345:C:/Users/lenovo/Desktop/liteos/Project2/BearPi_LiteOS/components/connectivity/agent_tiny/atiny_lwm2m\atiny_fota_manager.c ****     ASSERT_THIS(return ATINY_ARG_INVALID);
 2135              		.loc 1 345 0 discriminator 1
 2136 000a 10B5     		push	{r4, lr}
 2137              	.LCFI66:
 2138              		.cfi_def_cfa_offset 8
 2139              		.cfi_offset 4, -8
 2140              		.cfi_offset 14, -4
 2141 000c 82B0     		sub	sp, sp, #8
 2142              	.LCFI67:
 2143              		.cfi_def_cfa_offset 16
 346:C:/Users/lenovo/Desktop/liteos/Project2/BearPi_LiteOS/components/connectivity/agent_tiny/atiny_lwm2m\atiny_fota_manager.c ****     thi->lwm2m_context = lwm2m_context;
 2144              		.loc 1 346 0 discriminator 1
 2145 000e FFF7FEFF 		bl	atiny_get_log_level
 2146              	.LVL255:
 2147 0012 0328     		cmp	r0, #3
 2148 0014 03D9     		bls	.L230
 346:C:/Users/lenovo/Desktop/liteos/Project2/BearPi_LiteOS/components/connectivity/agent_tiny/atiny_lwm2m\atiny_fota_manager.c ****     thi->lwm2m_context = lwm2m_context;
 2149              		.loc 1 346 0 is_stmt 0
 2150 0016 4FF0FF30 		mov	r0, #-1
 2151              	.L221:
 349:C:/Users/lenovo/Desktop/liteos/Project2/BearPi_LiteOS/components/connectivity/agent_tiny/atiny_lwm2m\atiny_fota_manager.c **** lwm2m_context_t *atiny_fota_manager_get_lwm2m_context(atiny_fota_manager_s *thi)
 2152              		.loc 1 349 0 is_stmt 1
 2153 001a 02B0     		add	sp, sp, #8
 2154              	.LCFI68:
 2155              		.cfi_remember_state
 2156              		.cfi_def_cfa_offset 8
 2157              		@ sp needed
 2158 001c 10BD     		pop	{r4, pc}
 2159              	.L230:
 2160              	.LCFI69:
 2161              		.cfi_restore_state
 346:C:/Users/lenovo/Desktop/liteos/Project2/BearPi_LiteOS/components/connectivity/agent_tiny/atiny_lwm2m\atiny_fota_manager.c ****     thi->lwm2m_context = lwm2m_context;
 2162              		.loc 1 346 0 discriminator 2
ARM GAS  c:\Users\lenovo\AppData\Local\Temp\ccFFGHFi.s 			page 49


 2163 001e 0320     		movs	r0, #3
 2164 0020 FFF7FEFF 		bl	atiny_get_log_level_name
 2165              	.LVL256:
 2166 0024 0446     		mov	r4, r0
 2167 0026 FFF7FEFF 		bl	atiny_gettime_ms
 2168              	.LVL257:
 2169 002a 4FF4AD73 		mov	r3, #346
 2170 002e 0093     		str	r3, [sp]
 2171 0030 044B     		ldr	r3, .L231
 2172 0032 0246     		mov	r2, r0
 2173 0034 2146     		mov	r1, r4
 2174 0036 0448     		ldr	r0, .L231+4
 2175 0038 FFF7FEFF 		bl	atiny_printf
 2176              	.LVL258:
 2177 003c 4FF0FF30 		mov	r0, #-1
 2178 0040 EBE7     		b	.L221
 2179              	.L232:
 2180 0042 00BF     		.align	2
 2181              	.L231:
 2182 0044 00000000 		.word	.LANCHOR17
 2183 0048 00000000 		.word	.LC0
 2184              		.cfi_endproc
 2185              	.LFE162:
 2187              		.section	.text.atiny_fota_manager_get_lwm2m_context,"ax",%progbits
 2188              		.align	1
 2189              		.global	atiny_fota_manager_get_lwm2m_context
 2190              		.syntax unified
 2191              		.thumb
 2192              		.thumb_func
 2193              		.fpu fpv4-sp-d16
 2195              	atiny_fota_manager_get_lwm2m_context:
 2196              	.LFB163:
 351:C:/Users/lenovo/Desktop/liteos/Project2/BearPi_LiteOS/components/connectivity/agent_tiny/atiny_lwm2m\atiny_fota_manager.c ****     ASSERT_THIS(return NULL);
 2197              		.loc 1 351 0
 2198              		.cfi_startproc
 2199              		@ args = 0, pretend = 0, frame = 0
 2200              		@ frame_needed = 0, uses_anonymous_args = 0
 2201              	.LVL259:
 352:C:/Users/lenovo/Desktop/liteos/Project2/BearPi_LiteOS/components/connectivity/agent_tiny/atiny_lwm2m\atiny_fota_manager.c ****     return thi->lwm2m_context;
 2202              		.loc 1 352 0
 2203 0000 10B1     		cbz	r0, .L241
 353:C:/Users/lenovo/Desktop/liteos/Project2/BearPi_LiteOS/components/connectivity/agent_tiny/atiny_lwm2m\atiny_fota_manager.c **** }
 2204              		.loc 1 353 0
 2205 0002 D0F89000 		ldr	r0, [r0, #144]
 2206              	.LVL260:
 354:C:/Users/lenovo/Desktop/liteos/Project2/BearPi_LiteOS/components/connectivity/agent_tiny/atiny_lwm2m\atiny_fota_manager.c **** 
 2207              		.loc 1 354 0
 2208 0006 7047     		bx	lr
 2209              	.LVL261:
 2210              	.L241:
 351:C:/Users/lenovo/Desktop/liteos/Project2/BearPi_LiteOS/components/connectivity/agent_tiny/atiny_lwm2m\atiny_fota_manager.c ****     ASSERT_THIS(return NULL);
 2211              		.loc 1 351 0 discriminator 1
 2212 0008 10B5     		push	{r4, lr}
 2213              	.LCFI70:
 2214              		.cfi_def_cfa_offset 8
 2215              		.cfi_offset 4, -8
 2216              		.cfi_offset 14, -4
ARM GAS  c:\Users\lenovo\AppData\Local\Temp\ccFFGHFi.s 			page 50


 2217 000a 82B0     		sub	sp, sp, #8
 2218              	.LCFI71:
 2219              		.cfi_def_cfa_offset 16
 352:C:/Users/lenovo/Desktop/liteos/Project2/BearPi_LiteOS/components/connectivity/agent_tiny/atiny_lwm2m\atiny_fota_manager.c ****     return thi->lwm2m_context;
 2220              		.loc 1 352 0 discriminator 1
 2221 000c FFF7FEFF 		bl	atiny_get_log_level
 2222              	.LVL262:
 2223 0010 0328     		cmp	r0, #3
 2224 0012 02D9     		bls	.L242
 352:C:/Users/lenovo/Desktop/liteos/Project2/BearPi_LiteOS/components/connectivity/agent_tiny/atiny_lwm2m\atiny_fota_manager.c ****     return thi->lwm2m_context;
 2225              		.loc 1 352 0 is_stmt 0
 2226 0014 0020     		movs	r0, #0
 2227              	.L233:
 354:C:/Users/lenovo/Desktop/liteos/Project2/BearPi_LiteOS/components/connectivity/agent_tiny/atiny_lwm2m\atiny_fota_manager.c **** 
 2228              		.loc 1 354 0 is_stmt 1
 2229 0016 02B0     		add	sp, sp, #8
 2230              	.LCFI72:
 2231              		.cfi_remember_state
 2232              		.cfi_def_cfa_offset 8
 2233              		@ sp needed
 2234 0018 10BD     		pop	{r4, pc}
 2235              	.L242:
 2236              	.LCFI73:
 2237              		.cfi_restore_state
 352:C:/Users/lenovo/Desktop/liteos/Project2/BearPi_LiteOS/components/connectivity/agent_tiny/atiny_lwm2m\atiny_fota_manager.c ****     return thi->lwm2m_context;
 2238              		.loc 1 352 0 discriminator 2
 2239 001a 0320     		movs	r0, #3
 2240 001c FFF7FEFF 		bl	atiny_get_log_level_name
 2241              	.LVL263:
 2242 0020 0446     		mov	r4, r0
 2243 0022 FFF7FEFF 		bl	atiny_gettime_ms
 2244              	.LVL264:
 2245 0026 4FF4B073 		mov	r3, #352
 2246 002a 0093     		str	r3, [sp]
 2247 002c 034B     		ldr	r3, .L243
 2248 002e 0246     		mov	r2, r0
 2249 0030 2146     		mov	r1, r4
 2250 0032 0348     		ldr	r0, .L243+4
 2251 0034 FFF7FEFF 		bl	atiny_printf
 2252              	.LVL265:
 2253 0038 0020     		movs	r0, #0
 2254 003a ECE7     		b	.L233
 2255              	.L244:
 2256              		.align	2
 2257              	.L243:
 2258 003c 00000000 		.word	.LANCHOR18
 2259 0040 00000000 		.word	.LC0
 2260              		.cfi_endproc
 2261              	.LFE163:
 2263              		.section	.text.atiny_fota_manager_get_data_cfg,"ax",%progbits
 2264              		.align	1
 2265              		.global	atiny_fota_manager_get_data_cfg
 2266              		.syntax unified
 2267              		.thumb
 2268              		.thumb_func
 2269              		.fpu fpv4-sp-d16
 2271              	atiny_fota_manager_get_data_cfg:
ARM GAS  c:\Users\lenovo\AppData\Local\Temp\ccFFGHFi.s 			page 51


 2272              	.LFB166:
 368:C:/Users/lenovo/Desktop/liteos/Project2/BearPi_LiteOS/components/connectivity/agent_tiny/atiny_lwm2m\atiny_fota_manager.c **** 
 369:C:/Users/lenovo/Desktop/liteos/Project2/BearPi_LiteOS/components/connectivity/agent_tiny/atiny_lwm2m\atiny_fota_manager.c **** static void atiny_fota_manager_notify_ack_callback(atiny_report_type_e type, int cookie, data_send_
 370:C:/Users/lenovo/Desktop/liteos/Project2/BearPi_LiteOS/components/connectivity/agent_tiny/atiny_lwm2m\atiny_fota_manager.c **** {
 371:C:/Users/lenovo/Desktop/liteos/Project2/BearPi_LiteOS/components/connectivity/agent_tiny/atiny_lwm2m\atiny_fota_manager.c ****     ATINY_LOG(LOG_INFO, "download state ack type %d rev cookie %u expect cookie %u status %d, rpt s
 372:C:/Users/lenovo/Desktop/liteos/Project2/BearPi_LiteOS/components/connectivity/agent_tiny/atiny_lwm2m\atiny_fota_manager.c ****               atiny_fota_manager_get_instance()->rpt_state);
 373:C:/Users/lenovo/Desktop/liteos/Project2/BearPi_LiteOS/components/connectivity/agent_tiny/atiny_lwm2m\atiny_fota_manager.c ****     if((atiny_fota_manager_get_instance()->wait_ack_flag) && atiny_fota_manager_get_instance()->coo
 374:C:/Users/lenovo/Desktop/liteos/Project2/BearPi_LiteOS/components/connectivity/agent_tiny/atiny_lwm2m\atiny_fota_manager.c ****     {
 375:C:/Users/lenovo/Desktop/liteos/Project2/BearPi_LiteOS/components/connectivity/agent_tiny/atiny_lwm2m\atiny_fota_manager.c ****         (void)atiny_fota_manager_rcv_notify_ack(atiny_fota_manager_get_instance(), status);
 376:C:/Users/lenovo/Desktop/liteos/Project2/BearPi_LiteOS/components/connectivity/agent_tiny/atiny_lwm2m\atiny_fota_manager.c ****         atiny_fota_manager_get_instance()->wait_ack_flag = false;
 377:C:/Users/lenovo/Desktop/liteos/Project2/BearPi_LiteOS/components/connectivity/agent_tiny/atiny_lwm2m\atiny_fota_manager.c ****     }
 378:C:/Users/lenovo/Desktop/liteos/Project2/BearPi_LiteOS/components/connectivity/agent_tiny/atiny_lwm2m\atiny_fota_manager.c **** 
 379:C:/Users/lenovo/Desktop/liteos/Project2/BearPi_LiteOS/components/connectivity/agent_tiny/atiny_lwm2m\atiny_fota_manager.c **** }
 380:C:/Users/lenovo/Desktop/liteos/Project2/BearPi_LiteOS/components/connectivity/agent_tiny/atiny_lwm2m\atiny_fota_manager.c **** 
 381:C:/Users/lenovo/Desktop/liteos/Project2/BearPi_LiteOS/components/connectivity/agent_tiny/atiny_lwm2m\atiny_fota_manager.c **** 
 382:C:/Users/lenovo/Desktop/liteos/Project2/BearPi_LiteOS/components/connectivity/agent_tiny/atiny_lwm2m\atiny_fota_manager.c **** void atiny_fota_manager_get_data_cfg(const atiny_fota_manager_s *thi, lwm2m_data_cfg_t *data_cfg)
 383:C:/Users/lenovo/Desktop/liteos/Project2/BearPi_LiteOS/components/connectivity/agent_tiny/atiny_lwm2m\atiny_fota_manager.c **** {
 2273              		.loc 1 383 0
 2274              		.cfi_startproc
 2275              		@ args = 0, pretend = 0, frame = 0
 2276              		@ frame_needed = 0, uses_anonymous_args = 0
 2277              	.LVL266:
 2278 0000 10B5     		push	{r4, lr}
 2279              	.LCFI74:
 2280              		.cfi_def_cfa_offset 8
 2281              		.cfi_offset 4, -8
 2282              		.cfi_offset 14, -4
 2283 0002 82B0     		sub	sp, sp, #8
 2284              	.LCFI75:
 2285              		.cfi_def_cfa_offset 16
 384:C:/Users/lenovo/Desktop/liteos/Project2/BearPi_LiteOS/components/connectivity/agent_tiny/atiny_lwm2m\atiny_fota_manager.c ****     ASSERT_THIS(return);
 2286              		.loc 1 384 0
 2287 0004 48B1     		cbz	r0, .L250
 385:C:/Users/lenovo/Desktop/liteos/Project2/BearPi_LiteOS/components/connectivity/agent_tiny/atiny_lwm2m\atiny_fota_manager.c ****     if(NULL == data_cfg)
 2288              		.loc 1 385 0
 2289 0006 E1B1     		cbz	r1, .L251
 386:C:/Users/lenovo/Desktop/liteos/Project2/BearPi_LiteOS/components/connectivity/agent_tiny/atiny_lwm2m\atiny_fota_manager.c ****     {
 387:C:/Users/lenovo/Desktop/liteos/Project2/BearPi_LiteOS/components/connectivity/agent_tiny/atiny_lwm2m\atiny_fota_manager.c ****         ATINY_LOG(LOG_ERR, "current null pointer");
 388:C:/Users/lenovo/Desktop/liteos/Project2/BearPi_LiteOS/components/connectivity/agent_tiny/atiny_lwm2m\atiny_fota_manager.c ****         return;
 389:C:/Users/lenovo/Desktop/liteos/Project2/BearPi_LiteOS/components/connectivity/agent_tiny/atiny_lwm2m\atiny_fota_manager.c ****     }
 390:C:/Users/lenovo/Desktop/liteos/Project2/BearPi_LiteOS/components/connectivity/agent_tiny/atiny_lwm2m\atiny_fota_manager.c **** 
 391:C:/Users/lenovo/Desktop/liteos/Project2/BearPi_LiteOS/components/connectivity/agent_tiny/atiny_lwm2m\atiny_fota_manager.c ****     data_cfg->callback = (lwm2m_data_process)atiny_fota_manager_notify_ack_callback;
 2290              		.loc 1 391 0
 2291 0008 184A     		ldr	r2, .L252
 2292 000a 8A60     		str	r2, [r1, #8]
 392:C:/Users/lenovo/Desktop/liteos/Project2/BearPi_LiteOS/components/connectivity/agent_tiny/atiny_lwm2m\atiny_fota_manager.c ****     data_cfg->cookie = thi->cookie;
 2293              		.loc 1 392 0
 2294 000c D0F89430 		ldr	r3, [r0, #148]
 2295 0010 4B60     		str	r3, [r1, #4]
 393:C:/Users/lenovo/Desktop/liteos/Project2/BearPi_LiteOS/components/connectivity/agent_tiny/atiny_lwm2m\atiny_fota_manager.c ****     // ATINY_LOG(LOG_INFO, "download cookie %d", data_cfg->cookie);
 394:C:/Users/lenovo/Desktop/liteos/Project2/BearPi_LiteOS/components/connectivity/agent_tiny/atiny_lwm2m\atiny_fota_manager.c ****     data_cfg->type = FIRMWARE_UPDATE_STATE;
 2296              		.loc 1 394 0
 2297 0012 0023     		movs	r3, #0
 2298 0014 0B60     		str	r3, [r1]
 2299              	.LVL267:
 2300              	.L245:
 395:C:/Users/lenovo/Desktop/liteos/Project2/BearPi_LiteOS/components/connectivity/agent_tiny/atiny_lwm2m\atiny_fota_manager.c **** }
ARM GAS  c:\Users\lenovo\AppData\Local\Temp\ccFFGHFi.s 			page 52


 2301              		.loc 1 395 0
 2302 0016 02B0     		add	sp, sp, #8
 2303              	.LCFI76:
 2304              		.cfi_remember_state
 2305              		.cfi_def_cfa_offset 8
 2306              		@ sp needed
 2307 0018 10BD     		pop	{r4, pc}
 2308              	.LVL268:
 2309              	.L250:
 2310              	.LCFI77:
 2311              		.cfi_restore_state
 384:C:/Users/lenovo/Desktop/liteos/Project2/BearPi_LiteOS/components/connectivity/agent_tiny/atiny_lwm2m\atiny_fota_manager.c ****     if(NULL == data_cfg)
 2312              		.loc 1 384 0 discriminator 1
 2313 001a FFF7FEFF 		bl	atiny_get_log_level
 2314              	.LVL269:
 2315 001e 0328     		cmp	r0, #3
 2316 0020 F9D8     		bhi	.L245
 384:C:/Users/lenovo/Desktop/liteos/Project2/BearPi_LiteOS/components/connectivity/agent_tiny/atiny_lwm2m\atiny_fota_manager.c ****     if(NULL == data_cfg)
 2317              		.loc 1 384 0 is_stmt 0 discriminator 2
 2318 0022 0320     		movs	r0, #3
 2319 0024 FFF7FEFF 		bl	atiny_get_log_level_name
 2320              	.LVL270:
 2321 0028 0446     		mov	r4, r0
 2322 002a FFF7FEFF 		bl	atiny_gettime_ms
 2323              	.LVL271:
 2324 002e 4FF4C073 		mov	r3, #384
 2325 0032 0093     		str	r3, [sp]
 2326 0034 0E4B     		ldr	r3, .L252+4
 2327 0036 0246     		mov	r2, r0
 2328 0038 2146     		mov	r1, r4
 2329 003a 0E48     		ldr	r0, .L252+8
 2330 003c FFF7FEFF 		bl	atiny_printf
 2331              	.LVL272:
 2332 0040 E9E7     		b	.L245
 2333              	.LVL273:
 2334              	.L251:
 387:C:/Users/lenovo/Desktop/liteos/Project2/BearPi_LiteOS/components/connectivity/agent_tiny/atiny_lwm2m\atiny_fota_manager.c ****         return;
 2335              		.loc 1 387 0 is_stmt 1
 2336 0042 FFF7FEFF 		bl	atiny_get_log_level
 2337              	.LVL274:
 2338 0046 0328     		cmp	r0, #3
 2339 0048 E5D8     		bhi	.L245
 387:C:/Users/lenovo/Desktop/liteos/Project2/BearPi_LiteOS/components/connectivity/agent_tiny/atiny_lwm2m\atiny_fota_manager.c ****         return;
 2340              		.loc 1 387 0 is_stmt 0 discriminator 1
 2341 004a 0320     		movs	r0, #3
 2342 004c FFF7FEFF 		bl	atiny_get_log_level_name
 2343              	.LVL275:
 2344 0050 0446     		mov	r4, r0
 2345 0052 FFF7FEFF 		bl	atiny_gettime_ms
 2346              	.LVL276:
 2347 0056 40F28313 		movw	r3, #387
 2348 005a 0093     		str	r3, [sp]
 2349 005c 044B     		ldr	r3, .L252+4
 2350 005e 0246     		mov	r2, r0
 2351 0060 2146     		mov	r1, r4
 2352 0062 0548     		ldr	r0, .L252+12
 2353 0064 FFF7FEFF 		bl	atiny_printf
ARM GAS  c:\Users\lenovo\AppData\Local\Temp\ccFFGHFi.s 			page 53


 2354              	.LVL277:
 2355 0068 D5E7     		b	.L245
 2356              	.L253:
 2357 006a 00BF     		.align	2
 2358              	.L252:
 2359 006c 00000000 		.word	atiny_fota_manager_notify_ack_callback
 2360 0070 00000000 		.word	.LANCHOR19
 2361 0074 00000000 		.word	.LC0
 2362 0078 24000000 		.word	.LC1
 2363              		.cfi_endproc
 2364              	.LFE166:
 2366              		.section	.text.atiny_fota_manager_get_instance,"ax",%progbits
 2367              		.align	1
 2368              		.global	atiny_fota_manager_get_instance
 2369              		.syntax unified
 2370              		.thumb
 2371              		.thumb_func
 2372              		.fpu fpv4-sp-d16
 2374              	atiny_fota_manager_get_instance:
 2375              	.LFB167:
 396:C:/Users/lenovo/Desktop/liteos/Project2/BearPi_LiteOS/components/connectivity/agent_tiny/atiny_lwm2m\atiny_fota_manager.c **** 
 397:C:/Users/lenovo/Desktop/liteos/Project2/BearPi_LiteOS/components/connectivity/agent_tiny/atiny_lwm2m\atiny_fota_manager.c **** 
 398:C:/Users/lenovo/Desktop/liteos/Project2/BearPi_LiteOS/components/connectivity/agent_tiny/atiny_lwm2m\atiny_fota_manager.c **** 
 399:C:/Users/lenovo/Desktop/liteos/Project2/BearPi_LiteOS/components/connectivity/agent_tiny/atiny_lwm2m\atiny_fota_manager.c **** static atiny_fota_manager_s g_fota_manager;
 400:C:/Users/lenovo/Desktop/liteos/Project2/BearPi_LiteOS/components/connectivity/agent_tiny/atiny_lwm2m\atiny_fota_manager.c **** atiny_fota_manager_s *atiny_fota_manager_get_instance(void)
 401:C:/Users/lenovo/Desktop/liteos/Project2/BearPi_LiteOS/components/connectivity/agent_tiny/atiny_lwm2m\atiny_fota_manager.c **** {
 2376              		.loc 1 401 0 is_stmt 1
 2377              		.cfi_startproc
 2378              		@ args = 0, pretend = 0, frame = 0
 2379              		@ frame_needed = 0, uses_anonymous_args = 0
 2380 0000 08B5     		push	{r3, lr}
 2381              	.LCFI78:
 2382              		.cfi_def_cfa_offset 8
 2383              		.cfi_offset 3, -8
 2384              		.cfi_offset 14, -4
 2385              	.LVL278:
 402:C:/Users/lenovo/Desktop/liteos/Project2/BearPi_LiteOS/components/connectivity/agent_tiny/atiny_lwm2m\atiny_fota_manager.c ****     atiny_fota_manager_s *manager = &g_fota_manager;
 403:C:/Users/lenovo/Desktop/liteos/Project2/BearPi_LiteOS/components/connectivity/agent_tiny/atiny_lwm2m\atiny_fota_manager.c ****     if(manager->init_flag)
 2386              		.loc 1 403 0
 2387 0002 054B     		ldr	r3, .L258
 2388 0004 93F8B430 		ldrb	r3, [r3, #180]	@ zero_extendqisi2
 2389 0008 0BB1     		cbz	r3, .L257
 2390              	.L255:
 404:C:/Users/lenovo/Desktop/liteos/Project2/BearPi_LiteOS/components/connectivity/agent_tiny/atiny_lwm2m\atiny_fota_manager.c ****     {
 405:C:/Users/lenovo/Desktop/liteos/Project2/BearPi_LiteOS/components/connectivity/agent_tiny/atiny_lwm2m\atiny_fota_manager.c ****         return manager;
 406:C:/Users/lenovo/Desktop/liteos/Project2/BearPi_LiteOS/components/connectivity/agent_tiny/atiny_lwm2m\atiny_fota_manager.c ****     }
 407:C:/Users/lenovo/Desktop/liteos/Project2/BearPi_LiteOS/components/connectivity/agent_tiny/atiny_lwm2m\atiny_fota_manager.c **** 
 408:C:/Users/lenovo/Desktop/liteos/Project2/BearPi_LiteOS/components/connectivity/agent_tiny/atiny_lwm2m\atiny_fota_manager.c ****     atiny_fota_manager_init(manager);
 409:C:/Users/lenovo/Desktop/liteos/Project2/BearPi_LiteOS/components/connectivity/agent_tiny/atiny_lwm2m\atiny_fota_manager.c ****     return manager;
 410:C:/Users/lenovo/Desktop/liteos/Project2/BearPi_LiteOS/components/connectivity/agent_tiny/atiny_lwm2m\atiny_fota_manager.c **** }
 2391              		.loc 1 410 0
 2392 000a 0348     		ldr	r0, .L258
 2393 000c 08BD     		pop	{r3, pc}
 2394              	.L257:
 408:C:/Users/lenovo/Desktop/liteos/Project2/BearPi_LiteOS/components/connectivity/agent_tiny/atiny_lwm2m\atiny_fota_manager.c ****     return manager;
 2395              		.loc 1 408 0
 2396 000e 0248     		ldr	r0, .L258
ARM GAS  c:\Users\lenovo\AppData\Local\Temp\ccFFGHFi.s 			page 54


 2397 0010 FFF7FEFF 		bl	atiny_fota_manager_init
 2398              	.LVL279:
 409:C:/Users/lenovo/Desktop/liteos/Project2/BearPi_LiteOS/components/connectivity/agent_tiny/atiny_lwm2m\atiny_fota_manager.c **** }
 2399              		.loc 1 409 0
 2400 0014 F9E7     		b	.L255
 2401              	.L259:
 2402 0016 00BF     		.align	2
 2403              	.L258:
 2404 0018 00000000 		.word	.LANCHOR20
 2405              		.cfi_endproc
 2406              	.LFE167:
 2408              		.section	.text.atiny_fota_manager_flag_write,"ax",%progbits
 2409              		.align	1
 2410              		.syntax unified
 2411              		.thumb
 2412              		.thumb_func
 2413              		.fpu fpv4-sp-d16
 2415              	atiny_fota_manager_flag_write:
 2416              	.LFB156:
 253:C:/Users/lenovo/Desktop/liteos/Project2/BearPi_LiteOS/components/connectivity/agent_tiny/atiny_lwm2m\atiny_fota_manager.c ****     int (*write_flash)(ota_flash_type_e type, const void *buf, int32_t len, uint32_t location) =
 2417              		.loc 1 253 0
 2418              		.cfi_startproc
 2419              		@ args = 0, pretend = 0, frame = 0
 2420              		@ frame_needed = 0, uses_anonymous_args = 0
 2421              	.LVL280:
 2422 0000 70B5     		push	{r4, r5, r6, lr}
 2423              	.LCFI79:
 2424              		.cfi_def_cfa_offset 16
 2425              		.cfi_offset 4, -16
 2426              		.cfi_offset 5, -12
 2427              		.cfi_offset 6, -8
 2428              		.cfi_offset 14, -4
 2429 0002 82B0     		sub	sp, sp, #8
 2430              	.LCFI80:
 2431              		.cfi_def_cfa_offset 24
 2432 0004 0546     		mov	r5, r0
 2433 0006 0E46     		mov	r6, r1
 255:C:/Users/lenovo/Desktop/liteos/Project2/BearPi_LiteOS/components/connectivity/agent_tiny/atiny_lwm2m\atiny_fota_manager.c **** 
 2434              		.loc 1 255 0
 2435 0008 FFF7FEFF 		bl	atiny_fota_manager_get_instance
 2436              	.LVL281:
 254:C:/Users/lenovo/Desktop/liteos/Project2/BearPi_LiteOS/components/connectivity/agent_tiny/atiny_lwm2m\atiny_fota_manager.c ****                 atiny_fota_manager_get_instance()->ota_opt.write_flash;
 2437              		.loc 1 254 0
 2438 000c D0F8A440 		ldr	r4, [r0, #164]
 2439              	.LVL282:
 257:C:/Users/lenovo/Desktop/liteos/Project2/BearPi_LiteOS/components/connectivity/agent_tiny/atiny_lwm2m\atiny_fota_manager.c ****     {
 2440              		.loc 1 257 0
 2441 0010 34B1     		cbz	r4, .L261
 259:C:/Users/lenovo/Desktop/liteos/Project2/BearPi_LiteOS/components/connectivity/agent_tiny/atiny_lwm2m\atiny_fota_manager.c ****     }
 2442              		.loc 1 259 0
 2443 0012 0023     		movs	r3, #0
 2444 0014 3246     		mov	r2, r6
 2445 0016 2946     		mov	r1, r5
 2446 0018 0220     		movs	r0, #2
 2447 001a A047     		blx	r4
 2448              	.LVL283:
 2449              	.L260:
ARM GAS  c:\Users\lenovo\AppData\Local\Temp\ccFFGHFi.s 			page 55


 263:C:/Users/lenovo/Desktop/liteos/Project2/BearPi_LiteOS/components/connectivity/agent_tiny/atiny_lwm2m\atiny_fota_manager.c **** 
 2450              		.loc 1 263 0
 2451 001c 02B0     		add	sp, sp, #8
 2452              	.LCFI81:
 2453              		.cfi_remember_state
 2454              		.cfi_def_cfa_offset 16
 2455              		@ sp needed
 2456 001e 70BD     		pop	{r4, r5, r6, pc}
 2457              	.LVL284:
 2458              	.L261:
 2459              	.LCFI82:
 2460              		.cfi_restore_state
 261:C:/Users/lenovo/Desktop/liteos/Project2/BearPi_LiteOS/components/connectivity/agent_tiny/atiny_lwm2m\atiny_fota_manager.c ****     return -1;
 2461              		.loc 1 261 0
 2462 0020 FFF7FEFF 		bl	atiny_get_log_level
 2463              	.LVL285:
 2464 0024 0328     		cmp	r0, #3
 2465 0026 02D9     		bls	.L265
 262:C:/Users/lenovo/Desktop/liteos/Project2/BearPi_LiteOS/components/connectivity/agent_tiny/atiny_lwm2m\atiny_fota_manager.c **** }
 2466              		.loc 1 262 0
 2467 0028 4FF0FF30 		mov	r0, #-1
 2468 002c F6E7     		b	.L260
 2469              	.L265:
 261:C:/Users/lenovo/Desktop/liteos/Project2/BearPi_LiteOS/components/connectivity/agent_tiny/atiny_lwm2m\atiny_fota_manager.c ****     return -1;
 2470              		.loc 1 261 0 discriminator 1
 2471 002e 0320     		movs	r0, #3
 2472 0030 FFF7FEFF 		bl	atiny_get_log_level_name
 2473              	.LVL286:
 2474 0034 0446     		mov	r4, r0
 2475              	.LVL287:
 2476 0036 FFF7FEFF 		bl	atiny_gettime_ms
 2477              	.LVL288:
 2478 003a 40F20513 		movw	r3, #261
 2479 003e 0093     		str	r3, [sp]
 2480 0040 044B     		ldr	r3, .L266
 2481 0042 0246     		mov	r2, r0
 2482 0044 2146     		mov	r1, r4
 2483 0046 0448     		ldr	r0, .L266+4
 2484 0048 FFF7FEFF 		bl	atiny_printf
 2485              	.LVL289:
 262:C:/Users/lenovo/Desktop/liteos/Project2/BearPi_LiteOS/components/connectivity/agent_tiny/atiny_lwm2m\atiny_fota_manager.c **** }
 2486              		.loc 1 262 0 discriminator 1
 2487 004c 4FF0FF30 		mov	r0, #-1
 2488 0050 E4E7     		b	.L260
 2489              	.L267:
 2490 0052 00BF     		.align	2
 2491              	.L266:
 2492 0054 00000000 		.word	.LANCHOR21
 2493 0058 00000000 		.word	.LC17
 2494              		.cfi_endproc
 2495              	.LFE156:
 2497              		.section	.text.atiny_fota_manager_flag_read,"ax",%progbits
 2498              		.align	1
 2499              		.syntax unified
 2500              		.thumb
 2501              		.thumb_func
 2502              		.fpu fpv4-sp-d16
ARM GAS  c:\Users\lenovo\AppData\Local\Temp\ccFFGHFi.s 			page 56


 2504              	atiny_fota_manager_flag_read:
 2505              	.LFB155:
 241:C:/Users/lenovo/Desktop/liteos/Project2/BearPi_LiteOS/components/connectivity/agent_tiny/atiny_lwm2m\atiny_fota_manager.c ****     int (*read_flash)(ota_flash_type_e type, void *buf, int32_t len, uint32_t location) =
 2506              		.loc 1 241 0
 2507              		.cfi_startproc
 2508              		@ args = 0, pretend = 0, frame = 0
 2509              		@ frame_needed = 0, uses_anonymous_args = 0
 2510              	.LVL290:
 2511 0000 70B5     		push	{r4, r5, r6, lr}
 2512              	.LCFI83:
 2513              		.cfi_def_cfa_offset 16
 2514              		.cfi_offset 4, -16
 2515              		.cfi_offset 5, -12
 2516              		.cfi_offset 6, -8
 2517              		.cfi_offset 14, -4
 2518 0002 82B0     		sub	sp, sp, #8
 2519              	.LCFI84:
 2520              		.cfi_def_cfa_offset 24
 2521 0004 0546     		mov	r5, r0
 2522 0006 0E46     		mov	r6, r1
 243:C:/Users/lenovo/Desktop/liteos/Project2/BearPi_LiteOS/components/connectivity/agent_tiny/atiny_lwm2m\atiny_fota_manager.c ****     if (read_flash)
 2523              		.loc 1 243 0
 2524 0008 FFF7FEFF 		bl	atiny_fota_manager_get_instance
 2525              	.LVL291:
 242:C:/Users/lenovo/Desktop/liteos/Project2/BearPi_LiteOS/components/connectivity/agent_tiny/atiny_lwm2m\atiny_fota_manager.c ****                 atiny_fota_manager_get_instance()->ota_opt.read_flash;
 2526              		.loc 1 242 0
 2527 000c D0F8A040 		ldr	r4, [r0, #160]
 2528              	.LVL292:
 244:C:/Users/lenovo/Desktop/liteos/Project2/BearPi_LiteOS/components/connectivity/agent_tiny/atiny_lwm2m\atiny_fota_manager.c ****     {
 2529              		.loc 1 244 0
 2530 0010 34B1     		cbz	r4, .L269
 246:C:/Users/lenovo/Desktop/liteos/Project2/BearPi_LiteOS/components/connectivity/agent_tiny/atiny_lwm2m\atiny_fota_manager.c ****     }
 2531              		.loc 1 246 0
 2532 0012 0023     		movs	r3, #0
 2533 0014 3246     		mov	r2, r6
 2534 0016 2946     		mov	r1, r5
 2535 0018 0220     		movs	r0, #2
 2536 001a A047     		blx	r4
 2537              	.LVL293:
 2538              	.L268:
 250:C:/Users/lenovo/Desktop/liteos/Project2/BearPi_LiteOS/components/connectivity/agent_tiny/atiny_lwm2m\atiny_fota_manager.c **** 
 2539              		.loc 1 250 0
 2540 001c 02B0     		add	sp, sp, #8
 2541              	.LCFI85:
 2542              		.cfi_remember_state
 2543              		.cfi_def_cfa_offset 16
 2544              		@ sp needed
 2545 001e 70BD     		pop	{r4, r5, r6, pc}
 2546              	.LVL294:
 2547              	.L269:
 2548              	.LCFI86:
 2549              		.cfi_restore_state
 248:C:/Users/lenovo/Desktop/liteos/Project2/BearPi_LiteOS/components/connectivity/agent_tiny/atiny_lwm2m\atiny_fota_manager.c ****     return -1;
 2550              		.loc 1 248 0
 2551 0020 FFF7FEFF 		bl	atiny_get_log_level
 2552              	.LVL295:
 2553 0024 0328     		cmp	r0, #3
ARM GAS  c:\Users\lenovo\AppData\Local\Temp\ccFFGHFi.s 			page 57


 2554 0026 02D9     		bls	.L273
 249:C:/Users/lenovo/Desktop/liteos/Project2/BearPi_LiteOS/components/connectivity/agent_tiny/atiny_lwm2m\atiny_fota_manager.c **** }
 2555              		.loc 1 249 0
 2556 0028 4FF0FF30 		mov	r0, #-1
 2557 002c F6E7     		b	.L268
 2558              	.L273:
 248:C:/Users/lenovo/Desktop/liteos/Project2/BearPi_LiteOS/components/connectivity/agent_tiny/atiny_lwm2m\atiny_fota_manager.c ****     return -1;
 2559              		.loc 1 248 0 discriminator 1
 2560 002e 0320     		movs	r0, #3
 2561 0030 FFF7FEFF 		bl	atiny_get_log_level_name
 2562              	.LVL296:
 2563 0034 0446     		mov	r4, r0
 2564              	.LVL297:
 2565 0036 FFF7FEFF 		bl	atiny_gettime_ms
 2566              	.LVL298:
 2567 003a F823     		movs	r3, #248
 2568 003c 0093     		str	r3, [sp]
 2569 003e 044B     		ldr	r3, .L274
 2570 0040 0246     		mov	r2, r0
 2571 0042 2146     		mov	r1, r4
 2572 0044 0348     		ldr	r0, .L274+4
 2573 0046 FFF7FEFF 		bl	atiny_printf
 2574              	.LVL299:
 249:C:/Users/lenovo/Desktop/liteos/Project2/BearPi_LiteOS/components/connectivity/agent_tiny/atiny_lwm2m\atiny_fota_manager.c **** }
 2575              		.loc 1 249 0 discriminator 1
 2576 004a 4FF0FF30 		mov	r0, #-1
 2577 004e E5E7     		b	.L268
 2578              	.L275:
 2579              		.align	2
 2580              	.L274:
 2581 0050 00000000 		.word	.LANCHOR22
 2582 0054 00000000 		.word	.LC17
 2583              		.cfi_endproc
 2584              	.LFE155:
 2586              		.section	.text.atiny_fota_manager_notify_ack_callback,"ax",%progbits
 2587              		.align	1
 2588              		.syntax unified
 2589              		.thumb
 2590              		.thumb_func
 2591              		.fpu fpv4-sp-d16
 2593              	atiny_fota_manager_notify_ack_callback:
 2594              	.LFB165:
 370:C:/Users/lenovo/Desktop/liteos/Project2/BearPi_LiteOS/components/connectivity/agent_tiny/atiny_lwm2m\atiny_fota_manager.c ****     ATINY_LOG(LOG_INFO, "download state ack type %d rev cookie %u expect cookie %u status %d, rpt s
 2595              		.loc 1 370 0
 2596              		.cfi_startproc
 2597              		@ args = 0, pretend = 0, frame = 0
 2598              		@ frame_needed = 0, uses_anonymous_args = 0
 2599              	.LVL300:
 2600 0000 2DE9F043 		push	{r4, r5, r6, r7, r8, r9, lr}
 2601              	.LCFI87:
 2602              		.cfi_def_cfa_offset 28
 2603              		.cfi_offset 4, -28
 2604              		.cfi_offset 5, -24
 2605              		.cfi_offset 6, -20
 2606              		.cfi_offset 7, -16
 2607              		.cfi_offset 8, -12
 2608              		.cfi_offset 9, -8
ARM GAS  c:\Users\lenovo\AppData\Local\Temp\ccFFGHFi.s 			page 58


 2609              		.cfi_offset 14, -4
 2610 0004 87B0     		sub	sp, sp, #28
 2611              	.LCFI88:
 2612              		.cfi_def_cfa_offset 56
 2613 0006 0646     		mov	r6, r0
 2614 0008 0C46     		mov	r4, r1
 2615 000a 1546     		mov	r5, r2
 371:C:/Users/lenovo/Desktop/liteos/Project2/BearPi_LiteOS/components/connectivity/agent_tiny/atiny_lwm2m\atiny_fota_manager.c ****               atiny_fota_manager_get_instance()->rpt_state);
 2616              		.loc 1 371 0
 2617 000c FFF7FEFF 		bl	atiny_get_log_level
 2618              	.LVL301:
 2619 0010 0128     		cmp	r0, #1
 2620 0012 07D9     		bls	.L280
 2621              	.L277:
 373:C:/Users/lenovo/Desktop/liteos/Project2/BearPi_LiteOS/components/connectivity/agent_tiny/atiny_lwm2m\atiny_fota_manager.c ****     {
 2622              		.loc 1 373 0
 2623 0014 FFF7FEFF 		bl	atiny_fota_manager_get_instance
 2624              	.LVL302:
 2625 0018 90F89830 		ldrb	r3, [r0, #152]	@ zero_extendqisi2
 2626 001c 03BB     		cbnz	r3, .L281
 2627              	.L276:
 379:C:/Users/lenovo/Desktop/liteos/Project2/BearPi_LiteOS/components/connectivity/agent_tiny/atiny_lwm2m\atiny_fota_manager.c **** 
 2628              		.loc 1 379 0
 2629 001e 07B0     		add	sp, sp, #28
 2630              	.LCFI89:
 2631              		.cfi_remember_state
 2632              		.cfi_def_cfa_offset 28
 2633              		@ sp needed
 2634 0020 BDE8F083 		pop	{r4, r5, r6, r7, r8, r9, pc}
 2635              	.LVL303:
 2636              	.L280:
 2637              	.LCFI90:
 2638              		.cfi_restore_state
 371:C:/Users/lenovo/Desktop/liteos/Project2/BearPi_LiteOS/components/connectivity/agent_tiny/atiny_lwm2m\atiny_fota_manager.c ****               atiny_fota_manager_get_instance()->rpt_state);
 2639              		.loc 1 371 0 discriminator 1
 2640 0024 0120     		movs	r0, #1
 2641 0026 FFF7FEFF 		bl	atiny_get_log_level_name
 2642              	.LVL304:
 2643 002a 8146     		mov	r9, r0
 2644 002c FFF7FEFF 		bl	atiny_gettime_ms
 2645              	.LVL305:
 2646 0030 8046     		mov	r8, r0
 2647 0032 FFF7FEFF 		bl	atiny_fota_manager_get_instance
 2648              	.LVL306:
 2649 0036 D0F89470 		ldr	r7, [r0, #148]
 2650 003a FFF7FEFF 		bl	atiny_fota_manager_get_instance
 2651              	.LVL307:
 2652 003e D0F89C30 		ldr	r3, [r0, #156]
 2653 0042 0593     		str	r3, [sp, #20]
 2654 0044 0495     		str	r5, [sp, #16]
 2655 0046 0397     		str	r7, [sp, #12]
 2656 0048 0294     		str	r4, [sp, #8]
 2657 004a 0196     		str	r6, [sp, #4]
 2658 004c 4FF4BA73 		mov	r3, #372
 2659 0050 0093     		str	r3, [sp]
 2660 0052 0C4B     		ldr	r3, .L282
 2661 0054 4246     		mov	r2, r8
ARM GAS  c:\Users\lenovo\AppData\Local\Temp\ccFFGHFi.s 			page 59


 2662 0056 4946     		mov	r1, r9
 2663 0058 0B48     		ldr	r0, .L282+4
 2664 005a FFF7FEFF 		bl	atiny_printf
 2665              	.LVL308:
 2666 005e D9E7     		b	.L277
 2667              	.L281:
 373:C:/Users/lenovo/Desktop/liteos/Project2/BearPi_LiteOS/components/connectivity/agent_tiny/atiny_lwm2m\atiny_fota_manager.c ****     {
 2668              		.loc 1 373 0 discriminator 1
 2669 0060 FFF7FEFF 		bl	atiny_fota_manager_get_instance
 2670              	.LVL309:
 2671 0064 D0F89430 		ldr	r3, [r0, #148]
 2672 0068 A342     		cmp	r3, r4
 2673 006a D8D1     		bne	.L276
 375:C:/Users/lenovo/Desktop/liteos/Project2/BearPi_LiteOS/components/connectivity/agent_tiny/atiny_lwm2m\atiny_fota_manager.c ****         atiny_fota_manager_get_instance()->wait_ack_flag = false;
 2674              		.loc 1 375 0
 2675 006c FFF7FEFF 		bl	atiny_fota_manager_get_instance
 2676              	.LVL310:
 2677 0070 2946     		mov	r1, r5
 2678 0072 FFF7FEFF 		bl	atiny_fota_manager_rcv_notify_ack
 2679              	.LVL311:
 376:C:/Users/lenovo/Desktop/liteos/Project2/BearPi_LiteOS/components/connectivity/agent_tiny/atiny_lwm2m\atiny_fota_manager.c ****     }
 2680              		.loc 1 376 0
 2681 0076 FFF7FEFF 		bl	atiny_fota_manager_get_instance
 2682              	.LVL312:
 2683 007a 0023     		movs	r3, #0
 2684 007c 80F89830 		strb	r3, [r0, #152]
 379:C:/Users/lenovo/Desktop/liteos/Project2/BearPi_LiteOS/components/connectivity/agent_tiny/atiny_lwm2m\atiny_fota_manager.c **** 
 2685              		.loc 1 379 0
 2686 0080 CDE7     		b	.L276
 2687              	.L283:
 2688 0082 00BF     		.align	2
 2689              	.L282:
 2690 0084 00000000 		.word	.LANCHOR23
 2691 0088 00000000 		.word	.LC18
 2692              		.cfi_endproc
 2693              	.LFE165:
 2695              		.section	.bss.g_firmware_cookie,"aw",%nobits
 2696              		.align	2
 2697              		.set	.LANCHOR12,. + 0
 2700              	g_firmware_cookie:
 2701 0000 00000000 		.space	4
 2702              		.section	.bss.g_fota_manager,"aw",%nobits
 2703              		.align	2
 2704              		.set	.LANCHOR20,. + 0
 2707              	g_fota_manager:
 2708 0000 00000000 		.space	184
 2708      00000000 
 2708      00000000 
 2708      00000000 
 2708      00000000 
 2709              		.section	.rodata.__FUNCTION__.12156,"a",%progbits
 2710              		.align	2
 2711              		.set	.LANCHOR1,. + 0
 2714              	__FUNCTION__.12156:
 2715 0000 6174696E 		.ascii	"atiny_fota_manager_get_pkg_uri\000"
 2715      795F666F 
 2715      74615F6D 
ARM GAS  c:\Users\lenovo\AppData\Local\Temp\ccFFGHFi.s 			page 60


 2715      616E6167 
 2715      65725F67 
 2716              		.section	.rodata.__FUNCTION__.12160,"a",%progbits
 2717              		.align	2
 2718              		.set	.LANCHOR2,. + 0
 2721              	__FUNCTION__.12160:
 2722 0000 6174696E 		.ascii	"atiny_fota_manager_get_state\000"
 2722      795F666F 
 2722      74615F6D 
 2722      616E6167 
 2722      65725F67 
 2723              		.section	.rodata.__FUNCTION__.12164,"a",%progbits
 2724              		.align	2
 2725              		.set	.LANCHOR3,. + 0
 2728              	__FUNCTION__.12164:
 2729 0000 6174696E 		.ascii	"atiny_fota_manager_get_rpt_state\000"
 2729      795F666F 
 2729      74615F6D 
 2729      616E6167 
 2729      65725F67 
 2730              		.section	.rodata.__FUNCTION__.12168,"a",%progbits
 2731              		.align	2
 2732              		.set	.LANCHOR4,. + 0
 2735              	__FUNCTION__.12168:
 2736 0000 6174696E 		.ascii	"atiny_fota_manager_get_update_result\000"
 2736      795F666F 
 2736      74615F6D 
 2736      616E6167 
 2736      65725F67 
 2737              		.section	.rodata.__FUNCTION__.12173,"a",%progbits
 2738              		.align	2
 2739              		.set	.LANCHOR5,. + 0
 2742              	__FUNCTION__.12173:
 2743 0000 6174696E 		.ascii	"atiny_fota_manager_set_update_result\000"
 2743      795F666F 
 2743      74615F6D 
 2743      616E6167 
 2743      65725F73 
 2744              		.section	.rodata.__FUNCTION__.12182,"a",%progbits
 2745              		.align	2
 2746              		.set	.LANCHOR6,. + 0
 2749              	__FUNCTION__.12182:
 2750 0000 6174696E 		.ascii	"atiny_fota_manager_start_download\000"
 2750      795F666F 
 2750      74615F6D 
 2750      616E6167 
 2750      65725F73 
 2751              		.section	.rodata.__FUNCTION__.12186,"a",%progbits
 2752              		.align	2
 2753              		.set	.LANCHOR7,. + 0
 2756              	__FUNCTION__.12186:
 2757 0000 6174696E 		.ascii	"atiny_fota_manager_execute_update\000"
 2757      795F666F 
 2757      74615F6D 
 2757      616E6167 
 2757      65725F65 
 2758              		.section	.rodata.__FUNCTION__.12191,"a",%progbits
ARM GAS  c:\Users\lenovo\AppData\Local\Temp\ccFFGHFi.s 			page 61


 2759              		.align	2
 2760              		.set	.LANCHOR8,. + 0
 2763              	__FUNCTION__.12191:
 2764 0000 6174696E 		.ascii	"atiny_fota_manager_finish_download\000"
 2764      795F666F 
 2764      74615F6D 
 2764      616E6167 
 2764      65725F66 
 2765              		.section	.rodata.__FUNCTION__.12195,"a",%progbits
 2766              		.align	2
 2767              		.set	.LANCHOR9,. + 0
 2770              	__FUNCTION__.12195:
 2771 0000 6174696E 		.ascii	"atiny_fota_manager_repot_result\000"
 2771      795F666F 
 2771      74615F6D 
 2771      616E6167 
 2771      65725F72 
 2772              		.section	.rodata.__FUNCTION__.12200,"a",%progbits
 2773              		.align	2
 2774              		.set	.LANCHOR10,. + 0
 2777              	__FUNCTION__.12200:
 2778 0000 6174696E 		.ascii	"atiny_fota_manager_set_state\000"
 2778      795F666F 
 2778      74615F6D 
 2778      616E6167 
 2778      65725F73 
 2779              		.section	.rodata.__FUNCTION__.12208,"a",%progbits
 2780              		.align	2
 2781              		.set	.LANCHOR13,. + 0
 2784              	__FUNCTION__.12208:
 2785 0000 6174696E 		.ascii	"atiny_fota_manager_rpt_state\000"
 2785      795F666F 
 2785      74615F6D 
 2785      616E6167 
 2785      65725F72 
 2786              		.section	.rodata.__FUNCTION__.12213,"a",%progbits
 2787              		.align	2
 2788              		.set	.LANCHOR11,. + 0
 2791              	__FUNCTION__.12213:
 2792 0000 6174696E 		.ascii	"atiny_fota_manager_save_rpt_state\000"
 2792      795F666F 
 2792      74615F6D 
 2792      616E6167 
 2792      65725F73 
 2793              		.section	.rodata.__FUNCTION__.12223,"a",%progbits
 2794              		.align	2
 2795              		.set	.LANCHOR22,. + 0
 2798              	__FUNCTION__.12223:
 2799 0000 6174696E 		.ascii	"atiny_fota_manager_flag_read\000"
 2799      795F666F 
 2799      74615F6D 
 2799      616E6167 
 2799      65725F66 
 2800              		.section	.rodata.__FUNCTION__.12233,"a",%progbits
 2801              		.align	2
 2802              		.set	.LANCHOR21,. + 0
 2805              	__FUNCTION__.12233:
ARM GAS  c:\Users\lenovo\AppData\Local\Temp\ccFFGHFi.s 			page 62


 2806 0000 6174696E 		.ascii	"atiny_fota_manager_flag_write\000"
 2806      795F666F 
 2806      74615F6D 
 2806      616E6167 
 2806      65725F66 
 2807              		.section	.rodata.__FUNCTION__.12240,"a",%progbits
 2808              		.align	2
 2809              		.set	.LANCHOR14,. + 0
 2812              	__FUNCTION__.12240:
 2813 0000 6174696E 		.ascii	"atiny_fota_manager_set_storage_device\000"
 2813      795F666F 
 2813      74615F6D 
 2813      616E6167 
 2813      65725F73 
 2814              		.section	.rodata.__FUNCTION__.12244,"a",%progbits
 2815              		.align	2
 2816              		.set	.LANCHOR15,. + 0
 2819              	__FUNCTION__.12244:
 2820 0000 6174696E 		.ascii	"atiny_fota_manager_get_storage_device\000"
 2820      795F666F 
 2820      74615F6D 
 2820      616E6167 
 2820      65725F67 
 2821              		.section	.rodata.__FUNCTION__.12256,"a",%progbits
 2822              		.align	2
 2823              		.set	.LANCHOR16,. + 0
 2826              	__FUNCTION__.12256:
 2827 0000 6174696E 		.ascii	"atiny_fota_manager_destroy\000"
 2827      795F666F 
 2827      74615F6D 
 2827      616E6167 
 2827      65725F64 
 2828              		.section	.rodata.__FUNCTION__.12261,"a",%progbits
 2829              		.align	2
 2830              		.set	.LANCHOR17,. + 0
 2833              	__FUNCTION__.12261:
 2834 0000 6174696E 		.ascii	"atiny_fota_manager_set_lwm2m_context\000"
 2834      795F666F 
 2834      74615F6D 
 2834      616E6167 
 2834      65725F73 
 2835              		.section	.rodata.__FUNCTION__.12265,"a",%progbits
 2836              		.align	2
 2837              		.set	.LANCHOR18,. + 0
 2840              	__FUNCTION__.12265:
 2841 0000 6174696E 		.ascii	"atiny_fota_manager_get_lwm2m_context\000"
 2841      795F666F 
 2841      74615F6D 
 2841      616E6167 
 2841      65725F67 
 2842              		.section	.rodata.__FUNCTION__.12270,"a",%progbits
 2843              		.align	2
 2844              		.set	.LANCHOR0,. + 0
 2847              	__FUNCTION__.12270:
 2848 0000 6174696E 		.ascii	"atiny_fota_manager_rcv_notify_ack\000"
 2848      795F666F 
 2848      74615F6D 
ARM GAS  c:\Users\lenovo\AppData\Local\Temp\ccFFGHFi.s 			page 63


 2848      616E6167 
 2848      65725F72 
 2849              		.section	.rodata.__FUNCTION__.12276,"a",%progbits
 2850              		.align	2
 2851              		.set	.LANCHOR23,. + 0
 2854              	__FUNCTION__.12276:
 2855 0000 6174696E 		.ascii	"atiny_fota_manager_notify_ack_callback\000"
 2855      795F666F 
 2855      74615F6D 
 2855      616E6167 
 2855      65725F6E 
 2856              		.section	.rodata.__FUNCTION__.12281,"a",%progbits
 2857              		.align	2
 2858              		.set	.LANCHOR19,. + 0
 2861              	__FUNCTION__.12281:
 2862 0000 6174696E 		.ascii	"atiny_fota_manager_get_data_cfg\000"
 2862      795F666F 
 2862      74615F6D 
 2862      616E6167 
 2862      65725F67 
 2863              		.section	.rodata.atiny_fota_manager_execute_update.str1.4,"aMS",%progbits,1
 2864              		.align	2
 2865              	.LC6:
 2866 0000 5B25735D 		.ascii	"[%s][%u][%s:%d] execute update busy state %u rpt st"
 2866      5B25755D 
 2866      5B25733A 
 2866      25645D20 
 2866      65786563 
 2867 0033 61746520 		.ascii	"ate %u\015\012\000"
 2867      25750D0A 
 2867      00
 2868              	.LC7:
 2869 003c 5B25735D 		.ascii	"[%s][%u][%s:%d] excecute update\015\012\000"
 2869      5B25755D 
 2869      5B25733A 
 2869      25645D20 
 2869      65786365 
 2870              		.section	.rodata.atiny_fota_manager_finish_download.str1.4,"aMS",%progbits,1
 2871              		.align	2
 2872              	.LC8:
 2873 0000 5B25735D 		.ascii	"[%s][%u][%s:%d] finish download busy state %u rpt s"
 2873      5B25755D 
 2873      5B25733A 
 2873      25645D20 
 2873      66696E69 
 2874 0033 74617465 		.ascii	"tate %u\015\012\000"
 2874      2025750D 
 2874      0A00
 2875 003d 000000   		.space	3
 2876              	.LC9:
 2877 0040 5B25735D 		.ascii	"[%s][%u][%s:%d] finish download result %d\015\012\000"
 2877      5B25755D 
 2877      5B25733A 
 2877      25645D20 
 2877      66696E69 
 2878              		.section	.rodata.atiny_fota_manager_flag_write.str1.4,"aMS",%progbits,1
 2879              		.align	2
ARM GAS  c:\Users\lenovo\AppData\Local\Temp\ccFFGHFi.s 			page 64


 2880              	.LC17:
 2881 0000 5B25735D 		.ascii	"[%s][%u][%s:%d] write_flash null\015\012\000"
 2881      5B25755D 
 2881      5B25733A 
 2881      25645D20 
 2881      77726974 
 2882              		.section	.rodata.atiny_fota_manager_notify_ack_callback.str1.4,"aMS",%progbits,1
 2883              		.align	2
 2884              	.LC18:
 2885 0000 5B25735D 		.ascii	"[%s][%u][%s:%d] download state ack type %d rev cook"
 2885      5B25755D 
 2885      5B25733A 
 2885      25645D20 
 2885      646F776E 
 2886 0033 69652025 		.ascii	"ie %u expect cookie %u status %d, rpt stat %d\015\012"
 2886      75206578 
 2886      70656374 
 2886      20636F6F 
 2886      6B696520 
 2887 0062 00       		.ascii	"\000"
 2888              		.section	.rodata.atiny_fota_manager_rcv_notify_ack.str1.4,"aMS",%progbits,1
 2889              		.align	2
 2890              	.LC0:
 2891 0000 5B25735D 		.ascii	"[%s][%u][%s:%d] this null pointer\015\012\000"
 2891      5B25755D 
 2891      5B25733A 
 2891      25645D20 
 2891      74686973 
 2892              	.LC1:
 2893 0024 5B25735D 		.ascii	"[%s][%u][%s:%d] current null pointer\015\012\000"
 2893      5B25755D 
 2893      5B25733A 
 2893      25645D20 
 2893      63757272 
 2894              		.section	.rodata.atiny_fota_manager_rpt_state.str1.4,"aMS",%progbits,1
 2895              		.align	2
 2896              	.LC13:
 2897 0000 2F352F30 		.ascii	"/5/0/3\000"
 2897      2F3300
 2898              		.section	.rodata.atiny_fota_manager_save_rpt_state.str1.4,"aMS",%progbits,1
 2899              		.align	2
 2900              	.LC12:
 2901 0000 5B25735D 		.ascii	"[%s][%u][%s:%d] rpt download state %d\015\012\000"
 2901      5B25755D 
 2901      5B25733A 
 2901      25645D20 
 2901      72707420 
 2902              		.section	.rodata.atiny_fota_manager_set_state.str1.4,"aMS",%progbits,1
 2903              		.align	2
 2904              	.LC10:
 2905 0000 5B25735D 		.ascii	"[%s][%u][%s:%d] invalid download state %d\015\012\000"
 2905      5B25755D 
 2905      5B25733A 
 2905      25645D20 
 2905      696E7661 
 2906              	.LC11:
 2907 002c 5B25735D 		.ascii	"[%s][%u][%s:%d] download stat from %d to %d\015\012"
ARM GAS  c:\Users\lenovo\AppData\Local\Temp\ccFFGHFi.s 			page 65


 2907      5B25755D 
 2907      5B25733A 
 2907      25645D20 
 2907      646F776E 
 2908 0059 00       		.ascii	"\000"
 2909              		.section	.rodata.atiny_fota_manager_set_storage_device.str1.4,"aMS",%progbits,1
 2910              		.align	2
 2911              	.LC14:
 2912 0000 5B25735D 		.ascii	"[%s][%u][%s:%d] atiny_cmd_ioctl fail\015\012\000"
 2912      5B25755D 
 2912      5B25733A 
 2912      25645D20 
 2912      6174696E 
 2913 0027 00       		.space	1
 2914              	.LC15:
 2915 0028 5B25735D 		.ascii	"[%s][%u][%s:%d] flag_upgrade_init fail\015\012\000"
 2915      5B25755D 
 2915      5B25733A 
 2915      25645D20 
 2915      666C6167 
 2916 0051 000000   		.space	3
 2917              	.LC16:
 2918 0054 5B25735D 		.ascii	"[%s][%u][%s:%d] pack_init_device fail\015\012\000"
 2918      5B25755D 
 2918      5B25733A 
 2918      25645D20 
 2918      7061636B 
 2919              		.section	.rodata.atiny_fota_manager_start_download.str1.4,"aMS",%progbits,1
 2920              		.align	2
 2921              	.LC2:
 2922 0000 5B25735D 		.ascii	"[%s][%u][%s:%d] start download busy state %u rpt st"
 2922      5B25755D 
 2922      5B25733A 
 2922      25645D20 
 2922      73746172 
 2923 0033 61746520 		.ascii	"ate %u\015\012\000"
 2923      25750D0A 
 2923      00
 2924              	.LC3:
 2925 003c 5B25735D 		.ascii	"[%s][%u][%s:%d] null pointer\015\012\000"
 2925      5B25755D 
 2925      5B25733A 
 2925      25645D20 
 2925      6E756C6C 
 2926 005b 00       		.space	1
 2927              	.LC4:
 2928 005c 5B25735D 		.ascii	"[%s][%u][%s:%d] lwm2m_strdup fail\015\012\000"
 2928      5B25755D 
 2928      5B25733A 
 2928      25645D20 
 2928      6C776D32 
 2929              	.LC5:
 2930 0080 5B25735D 		.ascii	"[%s][%u][%s:%d] start download\015\012\000"
 2930      5B25755D 
 2930      5B25733A 
 2930      25645D20 
 2930      73746172 
ARM GAS  c:\Users\lenovo\AppData\Local\Temp\ccFFGHFi.s 			page 66


 2931              		.text
 2932              	.Letext0:
 2933              		.file 2 "c:\\program files (x86)\\liteos studio\\resources\\arm-none-eabi\\arm-none-eabi\\include\
 2934              		.file 3 "c:\\program files (x86)\\liteos studio\\resources\\arm-none-eabi\\arm-none-eabi\\include\
 2935              		.file 4 "c:\\program files (x86)\\liteos studio\\resources\\arm-none-eabi\\lib\\gcc\\arm-none-eabi
 2936              		.file 5 "c:\\program files (x86)\\liteos studio\\resources\\arm-none-eabi\\arm-none-eabi\\include\
 2937              		.file 6 "c:\\program files (x86)\\liteos studio\\resources\\arm-none-eabi\\arm-none-eabi\\include\
 2938              		.file 7 "c:\\program files (x86)\\liteos studio\\resources\\arm-none-eabi\\arm-none-eabi\\include\
 2939              		.file 8 "c:\\program files (x86)\\liteos studio\\resources\\arm-none-eabi\\arm-none-eabi\\include\
 2940              		.file 9 "C:/Users/lenovo/Desktop/liteos/Project2/BearPi_LiteOS/kernel/include/los_typedef.h"
 2941              		.file 10 "C:/Users/lenovo/Desktop/liteos/Project2/BearPi_LiteOS/arch/arm/common/cmsis/core_cm4.h"
 2942              		.file 11 "C:/Users/lenovo/Desktop/liteos/Project2/BearPi_LiteOS/targets/STM32L431_BearPi/Inc/syste
 2943              		.file 12 "C:/Users/lenovo/Desktop/liteos/Project2/BearPi_LiteOS/kernel/include/los_list.h"
 2944              		.file 13 "C:/Users/lenovo/Desktop/liteos/Project2/BearPi_LiteOS/kernel/include/los_err.h"
 2945              		.file 14 "C:/Users/lenovo/Desktop/liteos/Project2/BearPi_LiteOS/arch/arm/arm-m/include/los_hwi.h"
 2946              		.file 15 "C:/Users/lenovo/Desktop/liteos/Project2/BearPi_LiteOS/kernel/include/los_tick.h"
 2947              		.file 16 "C:/Users/lenovo/Desktop/liteos/Project2/BearPi_LiteOS/kernel/include/los_event.h"
 2948              		.file 17 "C:/Users/lenovo/Desktop/liteos/Project2/BearPi_LiteOS/kernel/include/los_task.h"
 2949              		.file 18 "C:/Users/lenovo/Desktop/liteos/Project2/BearPi_LiteOS/kernel/base/include/los_task.ph"
 2950              		.file 19 "C:/Users/lenovo/Desktop/liteos/Project2/BearPi_LiteOS/targets/STM32L431_BearPi/Inc/main.
 2951              		.file 20 "C:/Users/lenovo/Desktop/liteos/Project2/BearPi_LiteOS/targets/STM32L431_BearPi/OS_CONFIG
 2952              		.file 21 "C:/Users/lenovo/Desktop/liteos/Project2/BearPi_LiteOS/kernel/include/los_config.h"
 2953              		.file 22 "C:/Users/lenovo/Desktop/liteos/Project2/BearPi_LiteOS/include/atiny_error.h"
 2954              		.file 23 "C:/Users/lenovo/Desktop/liteos/Project2/BearPi_LiteOS/include/log/atiny_log.h"
 2955              		.file 24 "C:/Users/lenovo/Desktop/liteos/Project2/BearPi_LiteOS/include/ota/ota_api.h"
 2956              		.file 25 "C:/Users/lenovo/Desktop/liteos/Project2/BearPi_LiteOS/components/connectivity/lwm2m/core
 2957              		.file 26 "C:/Users/lenovo/Desktop/liteos/Project2/BearPi_LiteOS/include/atiny_lwm2m/agenttiny.h"
 2958              		.file 27 "c:\\program files (x86)\\liteos studio\\resources\\arm-none-eabi\\arm-none-eabi\\include
 2959              		.file 28 "C:/Users/lenovo/Desktop/liteos/Project2/BearPi_LiteOS/components/connectivity/lwm2m/core
 2960              		.file 29 "C:/Users/lenovo/Desktop/liteos/Project2/BearPi_LiteOS/components/connectivity/lwm2m/core
 2961              		.file 30 "C:/Users/lenovo/Desktop/liteos/Project2/BearPi_LiteOS/include/ota/package.h"
 2962              		.file 31 "C:/Users/lenovo/Desktop/liteos/Project2/BearPi_LiteOS/components/connectivity/agent_tiny
 2963              		.file 32 "c:\\program files (x86)\\liteos studio\\resources\\arm-none-eabi\\arm-none-eabi\\include
 2964              		.file 33 "c:\\program files (x86)\\liteos studio\\resources\\arm-none-eabi\\arm-none-eabi\\include
 2965              		.file 34 "C:/Users/lenovo/Desktop/liteos/Project2/BearPi_LiteOS/components/connectivity/agent_tiny
 2966              		.file 35 "C:/Users/lenovo/Desktop/liteos/Project2/BearPi_LiteOS/components/connectivity/agent_tiny
 2967              		.file 36 "C:/Users/lenovo/Desktop/liteos/Project2/BearPi_LiteOS/components/ota/flag_operate/flag_m
 2968              		.file 37 "C:/Users/lenovo/Desktop/liteos/Project2/BearPi_LiteOS/components/connectivity/agent_tiny
 2969              		.file 38 "C:/Users/lenovo/Desktop/liteos/Project2/BearPi_LiteOS/components/connectivity/agent_tiny
 2970              		.file 39 "C:/Users/lenovo/Desktop/liteos/Project2/BearPi_LiteOS/include/osdepends/atiny_osdep.h"
 2971              		.file 40 "C:/Users/lenovo/Desktop/liteos/Project2/BearPi_LiteOS/components/ota/flag_operate/upgrad
 2972              		.file 41 "<built-in>"
ARM GAS  c:\Users\lenovo\AppData\Local\Temp\ccFFGHFi.s 			page 67

