ARM GAS  c:\Users\lenovo\AppData\Local\Temp\ccE9ZvNF.s 			page 1


   1              		.cpu cortex-m4
   2              		.eabi_attribute 27, 1
   3              		.eabi_attribute 28, 1
   4              		.eabi_attribute 20, 1
   5              		.eabi_attribute 21, 1
   6              		.eabi_attribute 23, 3
   7              		.eabi_attribute 24, 1
   8              		.eabi_attribute 25, 1
   9              		.eabi_attribute 26, 1
  10              		.eabi_attribute 30, 1
  11              		.eabi_attribute 34, 1
  12              		.eabi_attribute 18, 4
  13              		.file	"atiny_rpt.c"
  14              		.text
  15              	.Ltext0:
  16              		.cfi_sections	.debug_frame
  17              		.section	.text.atiny_is_uri_equal,"ax",%progbits
  18              		.align	1
  19              		.syntax unified
  20              		.thumb
  21              		.thumb_func
  22              		.fpu fpv4-sp-d16
  24              	atiny_is_uri_equal:
  25              	.LFB143:
  26              		.file 1 "C:/Users/lenovo/Desktop/liteos/Project2/BearPi_LiteOS/components/connectivity/agent_tiny/
   1:C:/Users/lenovo/Desktop/liteos/Project2/BearPi_LiteOS/components/connectivity/agent_tiny/atiny_lwm2m\atiny_rpt.c **** /*----------------------------------------------------------------------------
   2:C:/Users/lenovo/Desktop/liteos/Project2/BearPi_LiteOS/components/connectivity/agent_tiny/atiny_lwm2m\atiny_rpt.c ****  * Copyright (c) <2016-2018>, <Huawei Technologies Co., Ltd>
   3:C:/Users/lenovo/Desktop/liteos/Project2/BearPi_LiteOS/components/connectivity/agent_tiny/atiny_lwm2m\atiny_rpt.c ****  * All rights reserved.
   4:C:/Users/lenovo/Desktop/liteos/Project2/BearPi_LiteOS/components/connectivity/agent_tiny/atiny_lwm2m\atiny_rpt.c ****  * Redistribution and use in source and binary forms, with or without modification,
   5:C:/Users/lenovo/Desktop/liteos/Project2/BearPi_LiteOS/components/connectivity/agent_tiny/atiny_lwm2m\atiny_rpt.c ****  * are permitted provided that the following conditions are met:
   6:C:/Users/lenovo/Desktop/liteos/Project2/BearPi_LiteOS/components/connectivity/agent_tiny/atiny_lwm2m\atiny_rpt.c ****  * 1. Redistributions of source code must retain the above copyright notice, this list of
   7:C:/Users/lenovo/Desktop/liteos/Project2/BearPi_LiteOS/components/connectivity/agent_tiny/atiny_lwm2m\atiny_rpt.c ****  * conditions and the following disclaimer.
   8:C:/Users/lenovo/Desktop/liteos/Project2/BearPi_LiteOS/components/connectivity/agent_tiny/atiny_lwm2m\atiny_rpt.c ****  * 2. Redistributions in binary form must reproduce the above copyright notice, this list
   9:C:/Users/lenovo/Desktop/liteos/Project2/BearPi_LiteOS/components/connectivity/agent_tiny/atiny_lwm2m\atiny_rpt.c ****  * of conditions and the following disclaimer in the documentation and/or other materials
  10:C:/Users/lenovo/Desktop/liteos/Project2/BearPi_LiteOS/components/connectivity/agent_tiny/atiny_lwm2m\atiny_rpt.c ****  * provided with the distribution.
  11:C:/Users/lenovo/Desktop/liteos/Project2/BearPi_LiteOS/components/connectivity/agent_tiny/atiny_lwm2m\atiny_rpt.c ****  * 3. Neither the name of the copyright holder nor the names of its contributors may be used
  12:C:/Users/lenovo/Desktop/liteos/Project2/BearPi_LiteOS/components/connectivity/agent_tiny/atiny_lwm2m\atiny_rpt.c ****  * to endorse or promote products derived from this software without specific prior written
  13:C:/Users/lenovo/Desktop/liteos/Project2/BearPi_LiteOS/components/connectivity/agent_tiny/atiny_lwm2m\atiny_rpt.c ****  * permission.
  14:C:/Users/lenovo/Desktop/liteos/Project2/BearPi_LiteOS/components/connectivity/agent_tiny/atiny_lwm2m\atiny_rpt.c ****  * THIS SOFTWARE IS PROVIDED BY THE COPYRIGHT HOLDERS AND CONTRIBUTORS
  15:C:/Users/lenovo/Desktop/liteos/Project2/BearPi_LiteOS/components/connectivity/agent_tiny/atiny_lwm2m\atiny_rpt.c ****  * "AS IS" AND ANY EXPRESS OR IMPLIED WARRANTIES, INCLUDING, BUT NOT LIMITED TO,
  16:C:/Users/lenovo/Desktop/liteos/Project2/BearPi_LiteOS/components/connectivity/agent_tiny/atiny_lwm2m\atiny_rpt.c ****  * THE IMPLIED WARRANTIES OF MERCHANTABILITY AND FITNESS FOR A PARTICULAR
  17:C:/Users/lenovo/Desktop/liteos/Project2/BearPi_LiteOS/components/connectivity/agent_tiny/atiny_lwm2m\atiny_rpt.c ****  * PURPOSE ARE DISCLAIMED. IN NO EVENT SHALL THE COPYRIGHT HOLDER OR
  18:C:/Users/lenovo/Desktop/liteos/Project2/BearPi_LiteOS/components/connectivity/agent_tiny/atiny_lwm2m\atiny_rpt.c ****  * CONTRIBUTORS BE LIABLE FOR ANY DIRECT, INDIRECT, INCIDENTAL, SPECIAL,
  19:C:/Users/lenovo/Desktop/liteos/Project2/BearPi_LiteOS/components/connectivity/agent_tiny/atiny_lwm2m\atiny_rpt.c ****  * EXEMPLARY, OR CONSEQUENTIAL DAMAGES (INCLUDING, BUT NOT LIMITED TO,
  20:C:/Users/lenovo/Desktop/liteos/Project2/BearPi_LiteOS/components/connectivity/agent_tiny/atiny_lwm2m\atiny_rpt.c ****  * PROCUREMENT OF SUBSTITUTE GOODS OR SERVICES; LOSS OF USE, DATA, OR PROFITS;
  21:C:/Users/lenovo/Desktop/liteos/Project2/BearPi_LiteOS/components/connectivity/agent_tiny/atiny_lwm2m\atiny_rpt.c ****  * OR BUSINESS INTERRUPTION) HOWEVER CAUSED AND ON ANY THEORY OF LIABILITY,
  22:C:/Users/lenovo/Desktop/liteos/Project2/BearPi_LiteOS/components/connectivity/agent_tiny/atiny_lwm2m\atiny_rpt.c ****  * WHETHER IN CONTRACT, STRICT LIABILITY, OR TORT (INCLUDING NEGLIGENCE OR
  23:C:/Users/lenovo/Desktop/liteos/Project2/BearPi_LiteOS/components/connectivity/agent_tiny/atiny_lwm2m\atiny_rpt.c ****  * OTHERWISE) ARISING IN ANY WAY OUT OF THE USE OF THIS SOFTWARE, EVEN IF
  24:C:/Users/lenovo/Desktop/liteos/Project2/BearPi_LiteOS/components/connectivity/agent_tiny/atiny_lwm2m\atiny_rpt.c ****  * ADVISED OF THE POSSIBILITY OF SUCH DAMAGE.
  25:C:/Users/lenovo/Desktop/liteos/Project2/BearPi_LiteOS/components/connectivity/agent_tiny/atiny_lwm2m\atiny_rpt.c ****  *---------------------------------------------------------------------------*/
  26:C:/Users/lenovo/Desktop/liteos/Project2/BearPi_LiteOS/components/connectivity/agent_tiny/atiny_lwm2m\atiny_rpt.c **** /*----------------------------------------------------------------------------
  27:C:/Users/lenovo/Desktop/liteos/Project2/BearPi_LiteOS/components/connectivity/agent_tiny/atiny_lwm2m\atiny_rpt.c ****  * Notice of Export Control Law
  28:C:/Users/lenovo/Desktop/liteos/Project2/BearPi_LiteOS/components/connectivity/agent_tiny/atiny_lwm2m\atiny_rpt.c ****  * ===============================================
  29:C:/Users/lenovo/Desktop/liteos/Project2/BearPi_LiteOS/components/connectivity/agent_tiny/atiny_lwm2m\atiny_rpt.c ****  * Huawei LiteOS may be subject to applicable export control laws and regulations, which might
  30:C:/Users/lenovo/Desktop/liteos/Project2/BearPi_LiteOS/components/connectivity/agent_tiny/atiny_lwm2m\atiny_rpt.c ****  * include those applicable to Huawei LiteOS of U.S. and the country in which you are located.
  31:C:/Users/lenovo/Desktop/liteos/Project2/BearPi_LiteOS/components/connectivity/agent_tiny/atiny_lwm2m\atiny_rpt.c ****  * Import, export and usage of Huawei LiteOS in any manner by you shall be in compliance with such
  32:C:/Users/lenovo/Desktop/liteos/Project2/BearPi_LiteOS/components/connectivity/agent_tiny/atiny_lwm2m\atiny_rpt.c ****  * applicable export control laws and regulations.
ARM GAS  c:\Users\lenovo\AppData\Local\Temp\ccE9ZvNF.s 			page 2


  33:C:/Users/lenovo/Desktop/liteos/Project2/BearPi_LiteOS/components/connectivity/agent_tiny/atiny_lwm2m\atiny_rpt.c ****  *---------------------------------------------------------------------------*/
  34:C:/Users/lenovo/Desktop/liteos/Project2/BearPi_LiteOS/components/connectivity/agent_tiny/atiny_lwm2m\atiny_rpt.c **** 
  35:C:/Users/lenovo/Desktop/liteos/Project2/BearPi_LiteOS/components/connectivity/agent_tiny/atiny_lwm2m\atiny_rpt.c **** #include "liblwm2m.h"
  36:C:/Users/lenovo/Desktop/liteos/Project2/BearPi_LiteOS/components/connectivity/agent_tiny/atiny_lwm2m\atiny_rpt.c **** #include "atiny_rpt.h"
  37:C:/Users/lenovo/Desktop/liteos/Project2/BearPi_LiteOS/components/connectivity/agent_tiny/atiny_lwm2m\atiny_rpt.c **** #include "log/atiny_log.h"
  38:C:/Users/lenovo/Desktop/liteos/Project2/BearPi_LiteOS/components/connectivity/agent_tiny/atiny_lwm2m\atiny_rpt.c **** 
  39:C:/Users/lenovo/Desktop/liteos/Project2/BearPi_LiteOS/components/connectivity/agent_tiny/atiny_lwm2m\atiny_rpt.c **** typedef struct _atiny_rpt_list_t
  40:C:/Users/lenovo/Desktop/liteos/Project2/BearPi_LiteOS/components/connectivity/agent_tiny/atiny_lwm2m\atiny_rpt.c **** {
  41:C:/Users/lenovo/Desktop/liteos/Project2/BearPi_LiteOS/components/connectivity/agent_tiny/atiny_lwm2m\atiny_rpt.c ****     atiny_dl_list node;
  42:C:/Users/lenovo/Desktop/liteos/Project2/BearPi_LiteOS/components/connectivity/agent_tiny/atiny_lwm2m\atiny_rpt.c ****     lwm2m_uri_t uri;
  43:C:/Users/lenovo/Desktop/liteos/Project2/BearPi_LiteOS/components/connectivity/agent_tiny/atiny_lwm2m\atiny_rpt.c ****     atiny_dl_list rpt_list;
  44:C:/Users/lenovo/Desktop/liteos/Project2/BearPi_LiteOS/components/connectivity/agent_tiny/atiny_lwm2m\atiny_rpt.c ****     uint32_t rpt_node_cnt;
  45:C:/Users/lenovo/Desktop/liteos/Project2/BearPi_LiteOS/components/connectivity/agent_tiny/atiny_lwm2m\atiny_rpt.c ****     uint32_t max_cnt;
  46:C:/Users/lenovo/Desktop/liteos/Project2/BearPi_LiteOS/components/connectivity/agent_tiny/atiny_lwm2m\atiny_rpt.c **** } atiny_rpt_list_t;
  47:C:/Users/lenovo/Desktop/liteos/Project2/BearPi_LiteOS/components/connectivity/agent_tiny/atiny_lwm2m\atiny_rpt.c **** 
  48:C:/Users/lenovo/Desktop/liteos/Project2/BearPi_LiteOS/components/connectivity/agent_tiny/atiny_lwm2m\atiny_rpt.c **** typedef struct
  49:C:/Users/lenovo/Desktop/liteos/Project2/BearPi_LiteOS/components/connectivity/agent_tiny/atiny_lwm2m\atiny_rpt.c **** {
  50:C:/Users/lenovo/Desktop/liteos/Project2/BearPi_LiteOS/components/connectivity/agent_tiny/atiny_lwm2m\atiny_rpt.c ****     atiny_dl_list list;
  51:C:/Users/lenovo/Desktop/liteos/Project2/BearPi_LiteOS/components/connectivity/agent_tiny/atiny_lwm2m\atiny_rpt.c ****     data_report_t data;
  52:C:/Users/lenovo/Desktop/liteos/Project2/BearPi_LiteOS/components/connectivity/agent_tiny/atiny_lwm2m\atiny_rpt.c **** } atiny_rpt_node_t;
  53:C:/Users/lenovo/Desktop/liteos/Project2/BearPi_LiteOS/components/connectivity/agent_tiny/atiny_lwm2m\atiny_rpt.c **** 
  54:C:/Users/lenovo/Desktop/liteos/Project2/BearPi_LiteOS/components/connectivity/agent_tiny/atiny_lwm2m\atiny_rpt.c **** static atiny_dl_list g_atiny_rpt_table;
  55:C:/Users/lenovo/Desktop/liteos/Project2/BearPi_LiteOS/components/connectivity/agent_tiny/atiny_lwm2m\atiny_rpt.c **** static void *g_mutex = NULL;
  56:C:/Users/lenovo/Desktop/liteos/Project2/BearPi_LiteOS/components/connectivity/agent_tiny/atiny_lwm2m\atiny_rpt.c **** 
  57:C:/Users/lenovo/Desktop/liteos/Project2/BearPi_LiteOS/components/connectivity/agent_tiny/atiny_lwm2m\atiny_rpt.c **** // TODO: when free, recorrect then callback code
  58:C:/Users/lenovo/Desktop/liteos/Project2/BearPi_LiteOS/components/connectivity/agent_tiny/atiny_lwm2m\atiny_rpt.c **** 
  59:C:/Users/lenovo/Desktop/liteos/Project2/BearPi_LiteOS/components/connectivity/agent_tiny/atiny_lwm2m\atiny_rpt.c **** static int atiny_is_uri_equal(const lwm2m_uri_t *uri0, const lwm2m_uri_t *uri1)
  60:C:/Users/lenovo/Desktop/liteos/Project2/BearPi_LiteOS/components/connectivity/agent_tiny/atiny_lwm2m\atiny_rpt.c **** {
  27              		.loc 1 60 0
  28              		.cfi_startproc
  29              		@ args = 0, pretend = 0, frame = 0
  30              		@ frame_needed = 0, uses_anonymous_args = 0
  31              		@ link register save eliminated.
  32              	.LVL0:
  61:C:/Users/lenovo/Desktop/liteos/Project2/BearPi_LiteOS/components/connectivity/agent_tiny/atiny_lwm2m\atiny_rpt.c ****     if (LWM2M_URI_IS_SET_RESOURCE(uri0) && LWM2M_URI_IS_SET_RESOURCE(uri1))
  33              		.loc 1 61 0
  34 0000 0378     		ldrb	r3, [r0]	@ zero_extendqisi2
  35 0002 13F0010F 		tst	r3, #1
  36 0006 15D0     		beq	.L2
  37              		.loc 1 61 0 is_stmt 0 discriminator 1
  38 0008 0B78     		ldrb	r3, [r1]	@ zero_extendqisi2
  39 000a 13F0010F 		tst	r3, #1
  40 000e 11D0     		beq	.L2
  62:C:/Users/lenovo/Desktop/liteos/Project2/BearPi_LiteOS/components/connectivity/agent_tiny/atiny_lwm2m\atiny_rpt.c ****     {
  63:C:/Users/lenovo/Desktop/liteos/Project2/BearPi_LiteOS/components/connectivity/agent_tiny/atiny_lwm2m\atiny_rpt.c ****         return (uri0->objectId == uri1->objectId) && (uri0->instanceId == uri1->instanceId)
  41              		.loc 1 63 0 is_stmt 1
  42 0010 4288     		ldrh	r2, [r0, #2]
  43 0012 4B88     		ldrh	r3, [r1, #2]
  64:C:/Users/lenovo/Desktop/liteos/Project2/BearPi_LiteOS/components/connectivity/agent_tiny/atiny_lwm2m\atiny_rpt.c ****                && (uri0->resourceId == uri1->resourceId);
  44              		.loc 1 64 0
  45 0014 9A42     		cmp	r2, r3
  46 0016 01D0     		beq	.L9
  47 0018 0020     		movs	r0, #0
  48              	.LVL1:
  49 001a 7047     		bx	lr
  50              	.LVL2:
  51              	.L9:
ARM GAS  c:\Users\lenovo\AppData\Local\Temp\ccE9ZvNF.s 			page 3


  63:C:/Users/lenovo/Desktop/liteos/Project2/BearPi_LiteOS/components/connectivity/agent_tiny/atiny_lwm2m\atiny_rpt.c ****                && (uri0->resourceId == uri1->resourceId);
  52              		.loc 1 63 0
  53 001c 8288     		ldrh	r2, [r0, #4]
  54 001e 8B88     		ldrh	r3, [r1, #4]
  55 0020 9A42     		cmp	r2, r3
  56 0022 01D0     		beq	.L10
  57              		.loc 1 64 0
  58 0024 0020     		movs	r0, #0
  59              	.LVL3:
  60 0026 7047     		bx	lr
  61              	.LVL4:
  62              	.L10:
  63              		.loc 1 64 0 is_stmt 0 discriminator 3
  64 0028 C288     		ldrh	r2, [r0, #6]
  65 002a CB88     		ldrh	r3, [r1, #6]
  66 002c 9A42     		cmp	r2, r3
  67 002e 0DD0     		beq	.L6
  68              		.loc 1 64 0
  69 0030 0020     		movs	r0, #0
  70              	.LVL5:
  71 0032 7047     		bx	lr
  72              	.LVL6:
  73              	.L2:
  65:C:/Users/lenovo/Desktop/liteos/Project2/BearPi_LiteOS/components/connectivity/agent_tiny/atiny_lwm2m\atiny_rpt.c ****     }
  66:C:/Users/lenovo/Desktop/liteos/Project2/BearPi_LiteOS/components/connectivity/agent_tiny/atiny_lwm2m\atiny_rpt.c **** 
  67:C:/Users/lenovo/Desktop/liteos/Project2/BearPi_LiteOS/components/connectivity/agent_tiny/atiny_lwm2m\atiny_rpt.c ****     return (uri0->objectId == uri1->objectId) && (uri0->instanceId == uri1->instanceId);
  74              		.loc 1 67 0 is_stmt 1
  75 0034 4288     		ldrh	r2, [r0, #2]
  76 0036 4B88     		ldrh	r3, [r1, #2]
  77 0038 9A42     		cmp	r2, r3
  78 003a 01D0     		beq	.L11
  79 003c 0020     		movs	r0, #0
  80              	.LVL7:
  81 003e 7047     		bx	lr
  82              	.LVL8:
  83              	.L11:
  84              		.loc 1 67 0 is_stmt 0 discriminator 1
  85 0040 8288     		ldrh	r2, [r0, #4]
  86 0042 8B88     		ldrh	r3, [r1, #4]
  87 0044 9A42     		cmp	r2, r3
  88 0046 03D0     		beq	.L8
  89              		.loc 1 67 0
  90 0048 0020     		movs	r0, #0
  91              	.LVL9:
  92 004a 7047     		bx	lr
  93              	.LVL10:
  94              	.L6:
  64:C:/Users/lenovo/Desktop/liteos/Project2/BearPi_LiteOS/components/connectivity/agent_tiny/atiny_lwm2m\atiny_rpt.c ****     }
  95              		.loc 1 64 0 is_stmt 1
  96 004c 0120     		movs	r0, #1
  97              	.LVL11:
  98 004e 7047     		bx	lr
  99              	.LVL12:
 100              	.L8:
 101              		.loc 1 67 0
 102 0050 0120     		movs	r0, #1
 103              	.LVL13:
ARM GAS  c:\Users\lenovo\AppData\Local\Temp\ccE9ZvNF.s 			page 4


  68:C:/Users/lenovo/Desktop/liteos/Project2/BearPi_LiteOS/components/connectivity/agent_tiny/atiny_lwm2m\atiny_rpt.c **** }
 104              		.loc 1 68 0
 105 0052 7047     		bx	lr
 106              		.cfi_endproc
 107              	.LFE143:
 109              		.section	.text.atiny_find_rpt_list,"ax",%progbits
 110              		.align	1
 111              		.syntax unified
 112              		.thumb
 113              		.thumb_func
 114              		.fpu fpv4-sp-d16
 116              	atiny_find_rpt_list:
 117              	.LFB144:
  69:C:/Users/lenovo/Desktop/liteos/Project2/BearPi_LiteOS/components/connectivity/agent_tiny/atiny_lwm2m\atiny_rpt.c **** 
  70:C:/Users/lenovo/Desktop/liteos/Project2/BearPi_LiteOS/components/connectivity/agent_tiny/atiny_lwm2m\atiny_rpt.c **** static atiny_rpt_list_t *atiny_find_rpt_list(const lwm2m_uri_t *uri)
  71:C:/Users/lenovo/Desktop/liteos/Project2/BearPi_LiteOS/components/connectivity/agent_tiny/atiny_lwm2m\atiny_rpt.c **** {
 118              		.loc 1 71 0
 119              		.cfi_startproc
 120              		@ args = 0, pretend = 0, frame = 0
 121              		@ frame_needed = 0, uses_anonymous_args = 0
 122              	.LVL14:
 123 0000 70B5     		push	{r4, r5, r6, lr}
 124              	.LCFI0:
 125              		.cfi_def_cfa_offset 16
 126              		.cfi_offset 4, -16
 127              		.cfi_offset 5, -12
 128              		.cfi_offset 6, -8
 129              		.cfi_offset 14, -4
 130 0002 0646     		mov	r6, r0
  72:C:/Users/lenovo/Desktop/liteos/Project2/BearPi_LiteOS/components/connectivity/agent_tiny/atiny_lwm2m\atiny_rpt.c ****     atiny_dl_list *item;
  73:C:/Users/lenovo/Desktop/liteos/Project2/BearPi_LiteOS/components/connectivity/agent_tiny/atiny_lwm2m\atiny_rpt.c ****     atiny_dl_list *next;
  74:C:/Users/lenovo/Desktop/liteos/Project2/BearPi_LiteOS/components/connectivity/agent_tiny/atiny_lwm2m\atiny_rpt.c **** 
  75:C:/Users/lenovo/Desktop/liteos/Project2/BearPi_LiteOS/components/connectivity/agent_tiny/atiny_lwm2m\atiny_rpt.c ****     ATINY_DL_LIST_FOR_EACH_SAFE(item, next, &g_atiny_rpt_table)
 131              		.loc 1 75 0
 132 0004 084B     		ldr	r3, .L18
 133 0006 5C68     		ldr	r4, [r3, #4]
 134              	.LVL15:
 135 0008 6568     		ldr	r5, [r4, #4]
 136              	.LVL16:
 137              	.L13:
 138              		.loc 1 75 0 is_stmt 0 discriminator 1
 139 000a 074B     		ldr	r3, .L18
 140 000c 9C42     		cmp	r4, r3
 141 000e 08D0     		beq	.L17
 142              	.LVL17:
 143              	.LBB29:
  76:C:/Users/lenovo/Desktop/liteos/Project2/BearPi_LiteOS/components/connectivity/agent_tiny/atiny_lwm2m\atiny_rpt.c ****     {
  77:C:/Users/lenovo/Desktop/liteos/Project2/BearPi_LiteOS/components/connectivity/agent_tiny/atiny_lwm2m\atiny_rpt.c ****         atiny_rpt_list_t *data_node = (atiny_rpt_list_t *)item;
  78:C:/Users/lenovo/Desktop/liteos/Project2/BearPi_LiteOS/components/connectivity/agent_tiny/atiny_lwm2m\atiny_rpt.c **** 
  79:C:/Users/lenovo/Desktop/liteos/Project2/BearPi_LiteOS/components/connectivity/agent_tiny/atiny_lwm2m\atiny_rpt.c ****         if (atiny_is_uri_equal(&data_node->uri, uri))
 144              		.loc 1 79 0 is_stmt 1
 145 0010 3146     		mov	r1, r6
 146 0012 04F10800 		add	r0, r4, #8
 147 0016 FFF7FEFF 		bl	atiny_is_uri_equal
 148              	.LVL18:
 149 001a 18B9     		cbnz	r0, .L12
 150              	.LVL19:
ARM GAS  c:\Users\lenovo\AppData\Local\Temp\ccE9ZvNF.s 			page 5


 151              	.LBE29:
  75:C:/Users/lenovo/Desktop/liteos/Project2/BearPi_LiteOS/components/connectivity/agent_tiny/atiny_lwm2m\atiny_rpt.c ****     {
 152              		.loc 1 75 0 discriminator 2
 153 001c 2C46     		mov	r4, r5
 154              	.LVL20:
 155 001e 6D68     		ldr	r5, [r5, #4]
 156              	.LVL21:
 157 0020 F3E7     		b	.L13
 158              	.L17:
  80:C:/Users/lenovo/Desktop/liteos/Project2/BearPi_LiteOS/components/connectivity/agent_tiny/atiny_lwm2m\atiny_rpt.c ****         {
  81:C:/Users/lenovo/Desktop/liteos/Project2/BearPi_LiteOS/components/connectivity/agent_tiny/atiny_lwm2m\atiny_rpt.c ****             return data_node;
  82:C:/Users/lenovo/Desktop/liteos/Project2/BearPi_LiteOS/components/connectivity/agent_tiny/atiny_lwm2m\atiny_rpt.c ****         }
  83:C:/Users/lenovo/Desktop/liteos/Project2/BearPi_LiteOS/components/connectivity/agent_tiny/atiny_lwm2m\atiny_rpt.c ****     }
  84:C:/Users/lenovo/Desktop/liteos/Project2/BearPi_LiteOS/components/connectivity/agent_tiny/atiny_lwm2m\atiny_rpt.c **** 
  85:C:/Users/lenovo/Desktop/liteos/Project2/BearPi_LiteOS/components/connectivity/agent_tiny/atiny_lwm2m\atiny_rpt.c ****     return NULL;
 159              		.loc 1 85 0
 160 0022 0024     		movs	r4, #0
 161              	.LVL22:
 162              	.L12:
  86:C:/Users/lenovo/Desktop/liteos/Project2/BearPi_LiteOS/components/connectivity/agent_tiny/atiny_lwm2m\atiny_rpt.c **** }
 163              		.loc 1 86 0
 164 0024 2046     		mov	r0, r4
 165 0026 70BD     		pop	{r4, r5, r6, pc}
 166              	.LVL23:
 167              	.L19:
 168              		.align	2
 169              	.L18:
 170 0028 00000000 		.word	.LANCHOR0
 171              		.cfi_endproc
 172              	.LFE144:
 174              		.section	.text.atiny_visit_list,"ax",%progbits
 175              		.align	1
 176              		.syntax unified
 177              		.thumb
 178              		.thumb_func
 179              		.fpu fpv4-sp-d16
 181              	atiny_visit_list:
 182              	.LFB146:
  87:C:/Users/lenovo/Desktop/liteos/Project2/BearPi_LiteOS/components/connectivity/agent_tiny/atiny_lwm2m\atiny_rpt.c **** 
  88:C:/Users/lenovo/Desktop/liteos/Project2/BearPi_LiteOS/components/connectivity/agent_tiny/atiny_lwm2m\atiny_rpt.c **** static void atiny_free_list(atiny_dl_list *list,  void(*free_data)(atiny_dl_list *node, void *param
  89:C:/Users/lenovo/Desktop/liteos/Project2/BearPi_LiteOS/components/connectivity/agent_tiny/atiny_lwm2m\atiny_rpt.c **** {
  90:C:/Users/lenovo/Desktop/liteos/Project2/BearPi_LiteOS/components/connectivity/agent_tiny/atiny_lwm2m\atiny_rpt.c ****     atiny_dl_list *item;
  91:C:/Users/lenovo/Desktop/liteos/Project2/BearPi_LiteOS/components/connectivity/agent_tiny/atiny_lwm2m\atiny_rpt.c ****     atiny_dl_list *next;
  92:C:/Users/lenovo/Desktop/liteos/Project2/BearPi_LiteOS/components/connectivity/agent_tiny/atiny_lwm2m\atiny_rpt.c **** 
  93:C:/Users/lenovo/Desktop/liteos/Project2/BearPi_LiteOS/components/connectivity/agent_tiny/atiny_lwm2m\atiny_rpt.c ****     ATINY_DL_LIST_FOR_EACH_SAFE(item, next, list)
  94:C:/Users/lenovo/Desktop/liteos/Project2/BearPi_LiteOS/components/connectivity/agent_tiny/atiny_lwm2m\atiny_rpt.c ****     {
  95:C:/Users/lenovo/Desktop/liteos/Project2/BearPi_LiteOS/components/connectivity/agent_tiny/atiny_lwm2m\atiny_rpt.c ****         atiny_list_delete(item);
  96:C:/Users/lenovo/Desktop/liteos/Project2/BearPi_LiteOS/components/connectivity/agent_tiny/atiny_lwm2m\atiny_rpt.c **** 
  97:C:/Users/lenovo/Desktop/liteos/Project2/BearPi_LiteOS/components/connectivity/agent_tiny/atiny_lwm2m\atiny_rpt.c ****         if (free_data != NULL)
  98:C:/Users/lenovo/Desktop/liteos/Project2/BearPi_LiteOS/components/connectivity/agent_tiny/atiny_lwm2m\atiny_rpt.c ****         {
  99:C:/Users/lenovo/Desktop/liteos/Project2/BearPi_LiteOS/components/connectivity/agent_tiny/atiny_lwm2m\atiny_rpt.c ****             free_data(item, param);
 100:C:/Users/lenovo/Desktop/liteos/Project2/BearPi_LiteOS/components/connectivity/agent_tiny/atiny_lwm2m\atiny_rpt.c ****         }
 101:C:/Users/lenovo/Desktop/liteos/Project2/BearPi_LiteOS/components/connectivity/agent_tiny/atiny_lwm2m\atiny_rpt.c ****         lwm2m_free(item);
 102:C:/Users/lenovo/Desktop/liteos/Project2/BearPi_LiteOS/components/connectivity/agent_tiny/atiny_lwm2m\atiny_rpt.c ****     }
 103:C:/Users/lenovo/Desktop/liteos/Project2/BearPi_LiteOS/components/connectivity/agent_tiny/atiny_lwm2m\atiny_rpt.c **** }
 104:C:/Users/lenovo/Desktop/liteos/Project2/BearPi_LiteOS/components/connectivity/agent_tiny/atiny_lwm2m\atiny_rpt.c **** 
 105:C:/Users/lenovo/Desktop/liteos/Project2/BearPi_LiteOS/components/connectivity/agent_tiny/atiny_lwm2m\atiny_rpt.c **** static void atiny_visit_list(atiny_dl_list *list,  void(*visit_data)(atiny_dl_list *node, void *par
ARM GAS  c:\Users\lenovo\AppData\Local\Temp\ccE9ZvNF.s 			page 6


 106:C:/Users/lenovo/Desktop/liteos/Project2/BearPi_LiteOS/components/connectivity/agent_tiny/atiny_lwm2m\atiny_rpt.c **** {
 183              		.loc 1 106 0
 184              		.cfi_startproc
 185              		@ args = 0, pretend = 0, frame = 0
 186              		@ frame_needed = 0, uses_anonymous_args = 0
 187              	.LVL24:
 188 0000 F8B5     		push	{r3, r4, r5, r6, r7, lr}
 189              	.LCFI1:
 190              		.cfi_def_cfa_offset 24
 191              		.cfi_offset 3, -24
 192              		.cfi_offset 4, -20
 193              		.cfi_offset 5, -16
 194              		.cfi_offset 6, -12
 195              		.cfi_offset 7, -8
 196              		.cfi_offset 14, -4
 197 0002 0546     		mov	r5, r0
 198 0004 0F46     		mov	r7, r1
 199 0006 1646     		mov	r6, r2
 107:C:/Users/lenovo/Desktop/liteos/Project2/BearPi_LiteOS/components/connectivity/agent_tiny/atiny_lwm2m\atiny_rpt.c ****     atiny_dl_list *item;
 108:C:/Users/lenovo/Desktop/liteos/Project2/BearPi_LiteOS/components/connectivity/agent_tiny/atiny_lwm2m\atiny_rpt.c ****     atiny_dl_list *next;
 109:C:/Users/lenovo/Desktop/liteos/Project2/BearPi_LiteOS/components/connectivity/agent_tiny/atiny_lwm2m\atiny_rpt.c **** 
 110:C:/Users/lenovo/Desktop/liteos/Project2/BearPi_LiteOS/components/connectivity/agent_tiny/atiny_lwm2m\atiny_rpt.c ****     ATINY_DL_LIST_FOR_EACH_SAFE(item, next, list)
 200              		.loc 1 110 0
 201 0008 4068     		ldr	r0, [r0, #4]
 202              	.LVL25:
 203 000a 4468     		ldr	r4, [r0, #4]
 204              	.LVL26:
 205 000c 03E0     		b	.L21
 206              	.LVL27:
 207              	.L22:
 111:C:/Users/lenovo/Desktop/liteos/Project2/BearPi_LiteOS/components/connectivity/agent_tiny/atiny_lwm2m\atiny_rpt.c ****     {
 112:C:/Users/lenovo/Desktop/liteos/Project2/BearPi_LiteOS/components/connectivity/agent_tiny/atiny_lwm2m\atiny_rpt.c ****         visit_data(item, param);
 208              		.loc 1 112 0 discriminator 3
 209 000e 3146     		mov	r1, r6
 210 0010 B847     		blx	r7
 211              	.LVL28:
 110:C:/Users/lenovo/Desktop/liteos/Project2/BearPi_LiteOS/components/connectivity/agent_tiny/atiny_lwm2m\atiny_rpt.c ****     {
 212              		.loc 1 110 0 discriminator 3
 213 0012 2046     		mov	r0, r4
 214 0014 6468     		ldr	r4, [r4, #4]
 215              	.LVL29:
 216              	.L21:
 110:C:/Users/lenovo/Desktop/liteos/Project2/BearPi_LiteOS/components/connectivity/agent_tiny/atiny_lwm2m\atiny_rpt.c ****     {
 217              		.loc 1 110 0 is_stmt 0 discriminator 1
 218 0016 A842     		cmp	r0, r5
 219 0018 F9D1     		bne	.L22
 113:C:/Users/lenovo/Desktop/liteos/Project2/BearPi_LiteOS/components/connectivity/agent_tiny/atiny_lwm2m\atiny_rpt.c ****     }
 114:C:/Users/lenovo/Desktop/liteos/Project2/BearPi_LiteOS/components/connectivity/agent_tiny/atiny_lwm2m\atiny_rpt.c **** }
 220              		.loc 1 114 0 is_stmt 1
 221 001a F8BD     		pop	{r3, r4, r5, r6, r7, pc}
 222              		.cfi_endproc
 223              	.LFE146:
 225              		.section	.text.atiny_clear_rpt_list_node_data,"ax",%progbits
 226              		.align	1
 227              		.syntax unified
 228              		.thumb
 229              		.thumb_func
ARM GAS  c:\Users\lenovo\AppData\Local\Temp\ccE9ZvNF.s 			page 7


 230              		.fpu fpv4-sp-d16
 232              	atiny_clear_rpt_list_node_data:
 233              	.LFB147:
 115:C:/Users/lenovo/Desktop/liteos/Project2/BearPi_LiteOS/components/connectivity/agent_tiny/atiny_lwm2m\atiny_rpt.c **** 
 116:C:/Users/lenovo/Desktop/liteos/Project2/BearPi_LiteOS/components/connectivity/agent_tiny/atiny_lwm2m\atiny_rpt.c **** static void atiny_clear_rpt_list_node_data(atiny_dl_list *node,  void *result)
 117:C:/Users/lenovo/Desktop/liteos/Project2/BearPi_LiteOS/components/connectivity/agent_tiny/atiny_lwm2m\atiny_rpt.c **** {
 234              		.loc 1 117 0
 235              		.cfi_startproc
 236              		@ args = 0, pretend = 0, frame = 0
 237              		@ frame_needed = 0, uses_anonymous_args = 0
 238              	.LVL30:
 239 0000 10B5     		push	{r4, lr}
 240              	.LCFI2:
 241              		.cfi_def_cfa_offset 8
 242              		.cfi_offset 4, -8
 243              		.cfi_offset 14, -4
 244 0002 0446     		mov	r4, r0
 245              	.LVL31:
 118:C:/Users/lenovo/Desktop/liteos/Project2/BearPi_LiteOS/components/connectivity/agent_tiny/atiny_lwm2m\atiny_rpt.c ****     atiny_rpt_node_t *rpt_node = (atiny_rpt_node_t *)node;
 119:C:/Users/lenovo/Desktop/liteos/Project2/BearPi_LiteOS/components/connectivity/agent_tiny/atiny_lwm2m\atiny_rpt.c **** 
 120:C:/Users/lenovo/Desktop/liteos/Project2/BearPi_LiteOS/components/connectivity/agent_tiny/atiny_lwm2m\atiny_rpt.c ****     if (rpt_node->data.callback)
 246              		.loc 1 120 0
 247 0004 8369     		ldr	r3, [r0, #24]
 248 0006 1BB1     		cbz	r3, .L25
 121:C:/Users/lenovo/Desktop/liteos/Project2/BearPi_LiteOS/components/connectivity/agent_tiny/atiny_lwm2m\atiny_rpt.c ****     {
 122:C:/Users/lenovo/Desktop/liteos/Project2/BearPi_LiteOS/components/connectivity/agent_tiny/atiny_lwm2m\atiny_rpt.c ****         rpt_node->data.callback(rpt_node->data.type,
 249              		.loc 1 122 0
 250 0008 CAB2     		uxtb	r2, r1
 251 000a C168     		ldr	r1, [r0, #12]
 252              	.LVL32:
 253 000c 007A     		ldrb	r0, [r0, #8]	@ zero_extendqisi2
 254              	.LVL33:
 255 000e 9847     		blx	r3
 256              	.LVL34:
 257              	.L25:
 123:C:/Users/lenovo/Desktop/liteos/Project2/BearPi_LiteOS/components/connectivity/agent_tiny/atiny_lwm2m\atiny_rpt.c ****                                 rpt_node->data.cookie, (data_send_status_e)(long)result);
 124:C:/Users/lenovo/Desktop/liteos/Project2/BearPi_LiteOS/components/connectivity/agent_tiny/atiny_lwm2m\atiny_rpt.c ****     }
 125:C:/Users/lenovo/Desktop/liteos/Project2/BearPi_LiteOS/components/connectivity/agent_tiny/atiny_lwm2m\atiny_rpt.c **** 
 126:C:/Users/lenovo/Desktop/liteos/Project2/BearPi_LiteOS/components/connectivity/agent_tiny/atiny_lwm2m\atiny_rpt.c ****     if (rpt_node->data.buf)
 258              		.loc 1 126 0
 259 0010 6069     		ldr	r0, [r4, #20]
 260 0012 18B1     		cbz	r0, .L24
 127:C:/Users/lenovo/Desktop/liteos/Project2/BearPi_LiteOS/components/connectivity/agent_tiny/atiny_lwm2m\atiny_rpt.c ****     {
 128:C:/Users/lenovo/Desktop/liteos/Project2/BearPi_LiteOS/components/connectivity/agent_tiny/atiny_lwm2m\atiny_rpt.c ****         lwm2m_free(rpt_node->data.buf);
 261              		.loc 1 128 0
 262 0014 FFF7FEFF 		bl	lwm2m_free
 263              	.LVL35:
 129:C:/Users/lenovo/Desktop/liteos/Project2/BearPi_LiteOS/components/connectivity/agent_tiny/atiny_lwm2m\atiny_rpt.c ****         rpt_node->data.buf = NULL;
 264              		.loc 1 129 0
 265 0018 0023     		movs	r3, #0
 266 001a 6361     		str	r3, [r4, #20]
 267              	.L24:
 130:C:/Users/lenovo/Desktop/liteos/Project2/BearPi_LiteOS/components/connectivity/agent_tiny/atiny_lwm2m\atiny_rpt.c ****     }
 131:C:/Users/lenovo/Desktop/liteos/Project2/BearPi_LiteOS/components/connectivity/agent_tiny/atiny_lwm2m\atiny_rpt.c **** }
 268              		.loc 1 131 0
 269 001c 10BD     		pop	{r4, pc}
 270              		.cfi_endproc
ARM GAS  c:\Users\lenovo\AppData\Local\Temp\ccE9ZvNF.s 			page 8


 271              	.LFE147:
 273              		.section	.text.atiny_free_list,"ax",%progbits
 274              		.align	1
 275              		.syntax unified
 276              		.thumb
 277              		.thumb_func
 278              		.fpu fpv4-sp-d16
 280              	atiny_free_list:
 281              	.LFB145:
  89:C:/Users/lenovo/Desktop/liteos/Project2/BearPi_LiteOS/components/connectivity/agent_tiny/atiny_lwm2m\atiny_rpt.c ****     atiny_dl_list *item;
 282              		.loc 1 89 0
 283              		.cfi_startproc
 284              		@ args = 0, pretend = 0, frame = 0
 285              		@ frame_needed = 0, uses_anonymous_args = 0
 286              	.LVL36:
 287 0000 2DE9F041 		push	{r4, r5, r6, r7, r8, lr}
 288              	.LCFI3:
 289              		.cfi_def_cfa_offset 24
 290              		.cfi_offset 4, -24
 291              		.cfi_offset 5, -20
 292              		.cfi_offset 6, -16
 293              		.cfi_offset 7, -12
 294              		.cfi_offset 8, -8
 295              		.cfi_offset 14, -4
 296 0004 0746     		mov	r7, r0
 297 0006 0E46     		mov	r6, r1
 298 0008 9046     		mov	r8, r2
  93:C:/Users/lenovo/Desktop/liteos/Project2/BearPi_LiteOS/components/connectivity/agent_tiny/atiny_lwm2m\atiny_rpt.c ****     {
 299              		.loc 1 93 0
 300 000a 4468     		ldr	r4, [r0, #4]
 301              	.LVL37:
 302 000c 6568     		ldr	r5, [r4, #4]
 303              	.LVL38:
 304 000e 04E0     		b	.L29
 305              	.LVL39:
 306              	.L30:
 101:C:/Users/lenovo/Desktop/liteos/Project2/BearPi_LiteOS/components/connectivity/agent_tiny/atiny_lwm2m\atiny_rpt.c ****     }
 307              		.loc 1 101 0 discriminator 2
 308 0010 2046     		mov	r0, r4
 309 0012 FFF7FEFF 		bl	lwm2m_free
 310              	.LVL40:
  93:C:/Users/lenovo/Desktop/liteos/Project2/BearPi_LiteOS/components/connectivity/agent_tiny/atiny_lwm2m\atiny_rpt.c ****     {
 311              		.loc 1 93 0 discriminator 2
 312 0016 2C46     		mov	r4, r5
 313 0018 6D68     		ldr	r5, [r5, #4]
 314              	.LVL41:
 315              	.L29:
  93:C:/Users/lenovo/Desktop/liteos/Project2/BearPi_LiteOS/components/connectivity/agent_tiny/atiny_lwm2m\atiny_rpt.c ****     {
 316              		.loc 1 93 0 is_stmt 0 discriminator 1
 317 001a BC42     		cmp	r4, r7
 318 001c 0ED0     		beq	.L33
 319              	.LVL42:
 320              	.LBB30:
 321              	.LBB31:
 322              		.file 2 "C:/Users/lenovo/Desktop/liteos/Project2/BearPi_LiteOS/components/connectivity/agent_tiny/
   1:C:/Users/lenovo/Desktop/liteos/Project2/BearPi_LiteOS/components/connectivity/agent_tiny/atiny_lwm2m\agent_list.h **** /*----------------------------------------------------------------------------
   2:C:/Users/lenovo/Desktop/liteos/Project2/BearPi_LiteOS/components/connectivity/agent_tiny/atiny_lwm2m\agent_list.h ****  * Copyright (c) <2016-2018>, <Huawei Technologies Co., Ltd>
ARM GAS  c:\Users\lenovo\AppData\Local\Temp\ccE9ZvNF.s 			page 9


   3:C:/Users/lenovo/Desktop/liteos/Project2/BearPi_LiteOS/components/connectivity/agent_tiny/atiny_lwm2m\agent_list.h ****  * All rights reserved.
   4:C:/Users/lenovo/Desktop/liteos/Project2/BearPi_LiteOS/components/connectivity/agent_tiny/atiny_lwm2m\agent_list.h ****  * Redistribution and use in source and binary forms, with or without modification,
   5:C:/Users/lenovo/Desktop/liteos/Project2/BearPi_LiteOS/components/connectivity/agent_tiny/atiny_lwm2m\agent_list.h ****  * are permitted provided that the following conditions are met:
   6:C:/Users/lenovo/Desktop/liteos/Project2/BearPi_LiteOS/components/connectivity/agent_tiny/atiny_lwm2m\agent_list.h ****  * 1. Redistributions of source code must retain the above copyright notice, this list of
   7:C:/Users/lenovo/Desktop/liteos/Project2/BearPi_LiteOS/components/connectivity/agent_tiny/atiny_lwm2m\agent_list.h ****  * conditions and the following disclaimer.
   8:C:/Users/lenovo/Desktop/liteos/Project2/BearPi_LiteOS/components/connectivity/agent_tiny/atiny_lwm2m\agent_list.h ****  * 2. Redistributions in binary form must reproduce the above copyright notice, this list
   9:C:/Users/lenovo/Desktop/liteos/Project2/BearPi_LiteOS/components/connectivity/agent_tiny/atiny_lwm2m\agent_list.h ****  * of conditions and the following disclaimer in the documentation and/or other materials
  10:C:/Users/lenovo/Desktop/liteos/Project2/BearPi_LiteOS/components/connectivity/agent_tiny/atiny_lwm2m\agent_list.h ****  * provided with the distribution.
  11:C:/Users/lenovo/Desktop/liteos/Project2/BearPi_LiteOS/components/connectivity/agent_tiny/atiny_lwm2m\agent_list.h ****  * 3. Neither the name of the copyright holder nor the names of its contributors may be used
  12:C:/Users/lenovo/Desktop/liteos/Project2/BearPi_LiteOS/components/connectivity/agent_tiny/atiny_lwm2m\agent_list.h ****  * to endorse or promote products derived from this software without specific prior written
  13:C:/Users/lenovo/Desktop/liteos/Project2/BearPi_LiteOS/components/connectivity/agent_tiny/atiny_lwm2m\agent_list.h ****  * permission.
  14:C:/Users/lenovo/Desktop/liteos/Project2/BearPi_LiteOS/components/connectivity/agent_tiny/atiny_lwm2m\agent_list.h ****  * THIS SOFTWARE IS PROVIDED BY THE COPYRIGHT HOLDERS AND CONTRIBUTORS
  15:C:/Users/lenovo/Desktop/liteos/Project2/BearPi_LiteOS/components/connectivity/agent_tiny/atiny_lwm2m\agent_list.h ****  * "AS IS" AND ANY EXPRESS OR IMPLIED WARRANTIES, INCLUDING, BUT NOT LIMITED TO,
  16:C:/Users/lenovo/Desktop/liteos/Project2/BearPi_LiteOS/components/connectivity/agent_tiny/atiny_lwm2m\agent_list.h ****  * THE IMPLIED WARRANTIES OF MERCHANTABILITY AND FITNESS FOR A PARTICULAR
  17:C:/Users/lenovo/Desktop/liteos/Project2/BearPi_LiteOS/components/connectivity/agent_tiny/atiny_lwm2m\agent_list.h ****  * PURPOSE ARE DISCLAIMED. IN NO EVENT SHALL THE COPYRIGHT HOLDER OR
  18:C:/Users/lenovo/Desktop/liteos/Project2/BearPi_LiteOS/components/connectivity/agent_tiny/atiny_lwm2m\agent_list.h ****  * CONTRIBUTORS BE LIABLE FOR ANY DIRECT, INDIRECT, INCIDENTAL, SPECIAL,
  19:C:/Users/lenovo/Desktop/liteos/Project2/BearPi_LiteOS/components/connectivity/agent_tiny/atiny_lwm2m\agent_list.h ****  * EXEMPLARY, OR CONSEQUENTIAL DAMAGES (INCLUDING, BUT NOT LIMITED TO,
  20:C:/Users/lenovo/Desktop/liteos/Project2/BearPi_LiteOS/components/connectivity/agent_tiny/atiny_lwm2m\agent_list.h ****  * PROCUREMENT OF SUBSTITUTE GOODS OR SERVICES; LOSS OF USE, DATA, OR PROFITS;
  21:C:/Users/lenovo/Desktop/liteos/Project2/BearPi_LiteOS/components/connectivity/agent_tiny/atiny_lwm2m\agent_list.h ****  * OR BUSINESS INTERRUPTION) HOWEVER CAUSED AND ON ANY THEORY OF LIABILITY,
  22:C:/Users/lenovo/Desktop/liteos/Project2/BearPi_LiteOS/components/connectivity/agent_tiny/atiny_lwm2m\agent_list.h ****  * WHETHER IN CONTRACT, STRICT LIABILITY, OR TORT (INCLUDING NEGLIGENCE OR
  23:C:/Users/lenovo/Desktop/liteos/Project2/BearPi_LiteOS/components/connectivity/agent_tiny/atiny_lwm2m\agent_list.h ****  * OTHERWISE) ARISING IN ANY WAY OUT OF THE USE OF THIS SOFTWARE, EVEN IF
  24:C:/Users/lenovo/Desktop/liteos/Project2/BearPi_LiteOS/components/connectivity/agent_tiny/atiny_lwm2m\agent_list.h ****  * ADVISED OF THE POSSIBILITY OF SUCH DAMAGE.
  25:C:/Users/lenovo/Desktop/liteos/Project2/BearPi_LiteOS/components/connectivity/agent_tiny/atiny_lwm2m\agent_list.h ****  *---------------------------------------------------------------------------*/
  26:C:/Users/lenovo/Desktop/liteos/Project2/BearPi_LiteOS/components/connectivity/agent_tiny/atiny_lwm2m\agent_list.h **** /*----------------------------------------------------------------------------
  27:C:/Users/lenovo/Desktop/liteos/Project2/BearPi_LiteOS/components/connectivity/agent_tiny/atiny_lwm2m\agent_list.h ****  * Notice of Export Control Law
  28:C:/Users/lenovo/Desktop/liteos/Project2/BearPi_LiteOS/components/connectivity/agent_tiny/atiny_lwm2m\agent_list.h ****  * ===============================================
  29:C:/Users/lenovo/Desktop/liteos/Project2/BearPi_LiteOS/components/connectivity/agent_tiny/atiny_lwm2m\agent_list.h ****  * Huawei LiteOS may be subject to applicable export control laws and regulations, which might
  30:C:/Users/lenovo/Desktop/liteos/Project2/BearPi_LiteOS/components/connectivity/agent_tiny/atiny_lwm2m\agent_list.h ****  * include those applicable to Huawei LiteOS of U.S. and the country in which you are located.
  31:C:/Users/lenovo/Desktop/liteos/Project2/BearPi_LiteOS/components/connectivity/agent_tiny/atiny_lwm2m\agent_list.h ****  * Import, export and usage of Huawei LiteOS in any manner by you shall be in compliance with such
  32:C:/Users/lenovo/Desktop/liteos/Project2/BearPi_LiteOS/components/connectivity/agent_tiny/atiny_lwm2m\agent_list.h ****  * applicable export control laws and regulations.
  33:C:/Users/lenovo/Desktop/liteos/Project2/BearPi_LiteOS/components/connectivity/agent_tiny/atiny_lwm2m\agent_list.h ****  *---------------------------------------------------------------------------*/
  34:C:/Users/lenovo/Desktop/liteos/Project2/BearPi_LiteOS/components/connectivity/agent_tiny/atiny_lwm2m\agent_list.h **** 
  35:C:/Users/lenovo/Desktop/liteos/Project2/BearPi_LiteOS/components/connectivity/agent_tiny/atiny_lwm2m\agent_list.h **** #ifndef _ATINY_LIST_H
  36:C:/Users/lenovo/Desktop/liteos/Project2/BearPi_LiteOS/components/connectivity/agent_tiny/atiny_lwm2m\agent_list.h **** 
  37:C:/Users/lenovo/Desktop/liteos/Project2/BearPi_LiteOS/components/connectivity/agent_tiny/atiny_lwm2m\agent_list.h **** #define _ATINY_LIST_H
  38:C:/Users/lenovo/Desktop/liteos/Project2/BearPi_LiteOS/components/connectivity/agent_tiny/atiny_lwm2m\agent_list.h **** #define ATINY_INLINE static inline
  39:C:/Users/lenovo/Desktop/liteos/Project2/BearPi_LiteOS/components/connectivity/agent_tiny/atiny_lwm2m\agent_list.h **** 
  40:C:/Users/lenovo/Desktop/liteos/Project2/BearPi_LiteOS/components/connectivity/agent_tiny/atiny_lwm2m\agent_list.h **** 
  41:C:/Users/lenovo/Desktop/liteos/Project2/BearPi_LiteOS/components/connectivity/agent_tiny/atiny_lwm2m\agent_list.h **** #ifdef __cplusplus
  42:C:/Users/lenovo/Desktop/liteos/Project2/BearPi_LiteOS/components/connectivity/agent_tiny/atiny_lwm2m\agent_list.h **** #if __cplusplus
  43:C:/Users/lenovo/Desktop/liteos/Project2/BearPi_LiteOS/components/connectivity/agent_tiny/atiny_lwm2m\agent_list.h **** 
  44:C:/Users/lenovo/Desktop/liteos/Project2/BearPi_LiteOS/components/connectivity/agent_tiny/atiny_lwm2m\agent_list.h **** extern "C" {
  45:C:/Users/lenovo/Desktop/liteos/Project2/BearPi_LiteOS/components/connectivity/agent_tiny/atiny_lwm2m\agent_list.h **** 
  46:C:/Users/lenovo/Desktop/liteos/Project2/BearPi_LiteOS/components/connectivity/agent_tiny/atiny_lwm2m\agent_list.h **** #endif /* __cplusplus */
  47:C:/Users/lenovo/Desktop/liteos/Project2/BearPi_LiteOS/components/connectivity/agent_tiny/atiny_lwm2m\agent_list.h **** 
  48:C:/Users/lenovo/Desktop/liteos/Project2/BearPi_LiteOS/components/connectivity/agent_tiny/atiny_lwm2m\agent_list.h **** #endif /* __cplusplus */
  49:C:/Users/lenovo/Desktop/liteos/Project2/BearPi_LiteOS/components/connectivity/agent_tiny/atiny_lwm2m\agent_list.h **** 
  50:C:/Users/lenovo/Desktop/liteos/Project2/BearPi_LiteOS/components/connectivity/agent_tiny/atiny_lwm2m\agent_list.h **** 
  51:C:/Users/lenovo/Desktop/liteos/Project2/BearPi_LiteOS/components/connectivity/agent_tiny/atiny_lwm2m\agent_list.h **** /**
  52:C:/Users/lenovo/Desktop/liteos/Project2/BearPi_LiteOS/components/connectivity/agent_tiny/atiny_lwm2m\agent_list.h **** 
  53:C:/Users/lenovo/Desktop/liteos/Project2/BearPi_LiteOS/components/connectivity/agent_tiny/atiny_lwm2m\agent_list.h ****  *@ingroup atiny_list
  54:C:/Users/lenovo/Desktop/liteos/Project2/BearPi_LiteOS/components/connectivity/agent_tiny/atiny_lwm2m\agent_list.h **** 
  55:C:/Users/lenovo/Desktop/liteos/Project2/BearPi_LiteOS/components/connectivity/agent_tiny/atiny_lwm2m\agent_list.h ****  *Structure of a node in a doubly linked list.
  56:C:/Users/lenovo/Desktop/liteos/Project2/BearPi_LiteOS/components/connectivity/agent_tiny/atiny_lwm2m\agent_list.h **** 
  57:C:/Users/lenovo/Desktop/liteos/Project2/BearPi_LiteOS/components/connectivity/agent_tiny/atiny_lwm2m\agent_list.h ****  */
  58:C:/Users/lenovo/Desktop/liteos/Project2/BearPi_LiteOS/components/connectivity/agent_tiny/atiny_lwm2m\agent_list.h **** 
  59:C:/Users/lenovo/Desktop/liteos/Project2/BearPi_LiteOS/components/connectivity/agent_tiny/atiny_lwm2m\agent_list.h **** typedef struct atiny_dl_list
ARM GAS  c:\Users\lenovo\AppData\Local\Temp\ccE9ZvNF.s 			page 10


  60:C:/Users/lenovo/Desktop/liteos/Project2/BearPi_LiteOS/components/connectivity/agent_tiny/atiny_lwm2m\agent_list.h **** {
  61:C:/Users/lenovo/Desktop/liteos/Project2/BearPi_LiteOS/components/connectivity/agent_tiny/atiny_lwm2m\agent_list.h ****     struct atiny_dl_list *prev;            /**< Current node's pointer to the previous node*/
  62:C:/Users/lenovo/Desktop/liteos/Project2/BearPi_LiteOS/components/connectivity/agent_tiny/atiny_lwm2m\agent_list.h ****     struct atiny_dl_list *next;            /**< Current node's pointer to the next node*/
  63:C:/Users/lenovo/Desktop/liteos/Project2/BearPi_LiteOS/components/connectivity/agent_tiny/atiny_lwm2m\agent_list.h **** 
  64:C:/Users/lenovo/Desktop/liteos/Project2/BearPi_LiteOS/components/connectivity/agent_tiny/atiny_lwm2m\agent_list.h **** } atiny_dl_list;
  65:C:/Users/lenovo/Desktop/liteos/Project2/BearPi_LiteOS/components/connectivity/agent_tiny/atiny_lwm2m\agent_list.h **** 
  66:C:/Users/lenovo/Desktop/liteos/Project2/BearPi_LiteOS/components/connectivity/agent_tiny/atiny_lwm2m\agent_list.h **** 
  67:C:/Users/lenovo/Desktop/liteos/Project2/BearPi_LiteOS/components/connectivity/agent_tiny/atiny_lwm2m\agent_list.h **** ATINY_INLINE void atiny_list_init(atiny_dl_list *list)
  68:C:/Users/lenovo/Desktop/liteos/Project2/BearPi_LiteOS/components/connectivity/agent_tiny/atiny_lwm2m\agent_list.h **** {
  69:C:/Users/lenovo/Desktop/liteos/Project2/BearPi_LiteOS/components/connectivity/agent_tiny/atiny_lwm2m\agent_list.h ****     list->next = list;
  70:C:/Users/lenovo/Desktop/liteos/Project2/BearPi_LiteOS/components/connectivity/agent_tiny/atiny_lwm2m\agent_list.h ****     list->prev = list;
  71:C:/Users/lenovo/Desktop/liteos/Project2/BearPi_LiteOS/components/connectivity/agent_tiny/atiny_lwm2m\agent_list.h **** }
  72:C:/Users/lenovo/Desktop/liteos/Project2/BearPi_LiteOS/components/connectivity/agent_tiny/atiny_lwm2m\agent_list.h **** 
  73:C:/Users/lenovo/Desktop/liteos/Project2/BearPi_LiteOS/components/connectivity/agent_tiny/atiny_lwm2m\agent_list.h **** #define ATINY_DL_LIST_FIRST(object) ((object)->next)
  74:C:/Users/lenovo/Desktop/liteos/Project2/BearPi_LiteOS/components/connectivity/agent_tiny/atiny_lwm2m\agent_list.h **** 
  75:C:/Users/lenovo/Desktop/liteos/Project2/BearPi_LiteOS/components/connectivity/agent_tiny/atiny_lwm2m\agent_list.h **** ATINY_INLINE void atiny_list_add(atiny_dl_list *list, atiny_dl_list *node)
  76:C:/Users/lenovo/Desktop/liteos/Project2/BearPi_LiteOS/components/connectivity/agent_tiny/atiny_lwm2m\agent_list.h **** {
  77:C:/Users/lenovo/Desktop/liteos/Project2/BearPi_LiteOS/components/connectivity/agent_tiny/atiny_lwm2m\agent_list.h ****     node->next = list->next;
  78:C:/Users/lenovo/Desktop/liteos/Project2/BearPi_LiteOS/components/connectivity/agent_tiny/atiny_lwm2m\agent_list.h ****     node->prev = list;
  79:C:/Users/lenovo/Desktop/liteos/Project2/BearPi_LiteOS/components/connectivity/agent_tiny/atiny_lwm2m\agent_list.h ****     list->next->prev = node;
  80:C:/Users/lenovo/Desktop/liteos/Project2/BearPi_LiteOS/components/connectivity/agent_tiny/atiny_lwm2m\agent_list.h ****     list->next = node;
  81:C:/Users/lenovo/Desktop/liteos/Project2/BearPi_LiteOS/components/connectivity/agent_tiny/atiny_lwm2m\agent_list.h **** }
  82:C:/Users/lenovo/Desktop/liteos/Project2/BearPi_LiteOS/components/connectivity/agent_tiny/atiny_lwm2m\agent_list.h **** 
  83:C:/Users/lenovo/Desktop/liteos/Project2/BearPi_LiteOS/components/connectivity/agent_tiny/atiny_lwm2m\agent_list.h **** ATINY_INLINE void atiny_list_insert_tail(atiny_dl_list *list, atiny_dl_list *node)
  84:C:/Users/lenovo/Desktop/liteos/Project2/BearPi_LiteOS/components/connectivity/agent_tiny/atiny_lwm2m\agent_list.h **** {
  85:C:/Users/lenovo/Desktop/liteos/Project2/BearPi_LiteOS/components/connectivity/agent_tiny/atiny_lwm2m\agent_list.h ****     atiny_list_add(list->prev, node);
  86:C:/Users/lenovo/Desktop/liteos/Project2/BearPi_LiteOS/components/connectivity/agent_tiny/atiny_lwm2m\agent_list.h **** }
  87:C:/Users/lenovo/Desktop/liteos/Project2/BearPi_LiteOS/components/connectivity/agent_tiny/atiny_lwm2m\agent_list.h **** 
  88:C:/Users/lenovo/Desktop/liteos/Project2/BearPi_LiteOS/components/connectivity/agent_tiny/atiny_lwm2m\agent_list.h **** ATINY_INLINE atiny_dl_list * atiny_list_get_head(atiny_dl_list *header)
  89:C:/Users/lenovo/Desktop/liteos/Project2/BearPi_LiteOS/components/connectivity/agent_tiny/atiny_lwm2m\agent_list.h **** {
  90:C:/Users/lenovo/Desktop/liteos/Project2/BearPi_LiteOS/components/connectivity/agent_tiny/atiny_lwm2m\agent_list.h ****     return header->next;
  91:C:/Users/lenovo/Desktop/liteos/Project2/BearPi_LiteOS/components/connectivity/agent_tiny/atiny_lwm2m\agent_list.h **** }
  92:C:/Users/lenovo/Desktop/liteos/Project2/BearPi_LiteOS/components/connectivity/agent_tiny/atiny_lwm2m\agent_list.h **** 
  93:C:/Users/lenovo/Desktop/liteos/Project2/BearPi_LiteOS/components/connectivity/agent_tiny/atiny_lwm2m\agent_list.h **** ATINY_INLINE void atiny_list_delete(atiny_dl_list *node)
  94:C:/Users/lenovo/Desktop/liteos/Project2/BearPi_LiteOS/components/connectivity/agent_tiny/atiny_lwm2m\agent_list.h **** {
  95:C:/Users/lenovo/Desktop/liteos/Project2/BearPi_LiteOS/components/connectivity/agent_tiny/atiny_lwm2m\agent_list.h ****     node->next->prev = node->prev;
 323              		.loc 2 95 0 is_stmt 1
 324 001e 6368     		ldr	r3, [r4, #4]
 325 0020 2268     		ldr	r2, [r4]
 326 0022 1A60     		str	r2, [r3]
  96:C:/Users/lenovo/Desktop/liteos/Project2/BearPi_LiteOS/components/connectivity/agent_tiny/atiny_lwm2m\agent_list.h ****     node->prev->next = node->next;
 327              		.loc 2 96 0
 328 0024 2368     		ldr	r3, [r4]
 329 0026 6268     		ldr	r2, [r4, #4]
 330 0028 5A60     		str	r2, [r3, #4]
  97:C:/Users/lenovo/Desktop/liteos/Project2/BearPi_LiteOS/components/connectivity/agent_tiny/atiny_lwm2m\agent_list.h ****     node->next = (atiny_dl_list *)NULL;
 331              		.loc 2 97 0
 332 002a 0023     		movs	r3, #0
 333 002c 6360     		str	r3, [r4, #4]
  98:C:/Users/lenovo/Desktop/liteos/Project2/BearPi_LiteOS/components/connectivity/agent_tiny/atiny_lwm2m\agent_list.h ****     node->prev = (atiny_dl_list *)NULL;
 334              		.loc 2 98 0
 335 002e 2360     		str	r3, [r4]
 336              	.LVL43:
 337              	.LBE31:
 338              	.LBE30:
  97:C:/Users/lenovo/Desktop/liteos/Project2/BearPi_LiteOS/components/connectivity/agent_tiny/atiny_lwm2m\atiny_rpt.c ****         {
 339              		.loc 1 97 0
ARM GAS  c:\Users\lenovo\AppData\Local\Temp\ccE9ZvNF.s 			page 11


 340 0030 002E     		cmp	r6, #0
 341 0032 EDD0     		beq	.L30
  99:C:/Users/lenovo/Desktop/liteos/Project2/BearPi_LiteOS/components/connectivity/agent_tiny/atiny_lwm2m\atiny_rpt.c ****         }
 342              		.loc 1 99 0
 343 0034 4146     		mov	r1, r8
 344 0036 2046     		mov	r0, r4
 345 0038 B047     		blx	r6
 346              	.LVL44:
 347 003a E9E7     		b	.L30
 348              	.L33:
 103:C:/Users/lenovo/Desktop/liteos/Project2/BearPi_LiteOS/components/connectivity/agent_tiny/atiny_lwm2m\atiny_rpt.c **** 
 349              		.loc 1 103 0
 350 003c BDE8F081 		pop	{r4, r5, r6, r7, r8, pc}
 351              		.cfi_endproc
 352              	.LFE145:
 354              		.section	.text.atiny_clear_rpt_list,"ax",%progbits
 355              		.align	1
 356              		.syntax unified
 357              		.thumb
 358              		.thumb_func
 359              		.fpu fpv4-sp-d16
 361              	atiny_clear_rpt_list:
 362              	.LFB148:
 132:C:/Users/lenovo/Desktop/liteos/Project2/BearPi_LiteOS/components/connectivity/agent_tiny/atiny_lwm2m\atiny_rpt.c **** 
 133:C:/Users/lenovo/Desktop/liteos/Project2/BearPi_LiteOS/components/connectivity/agent_tiny/atiny_lwm2m\atiny_rpt.c **** static void atiny_clear_rpt_list(atiny_dl_list *node, void *result)
 134:C:/Users/lenovo/Desktop/liteos/Project2/BearPi_LiteOS/components/connectivity/agent_tiny/atiny_lwm2m\atiny_rpt.c **** {
 363              		.loc 1 134 0
 364              		.cfi_startproc
 365              		@ args = 0, pretend = 0, frame = 0
 366              		@ frame_needed = 0, uses_anonymous_args = 0
 367              	.LVL45:
 368 0000 08B5     		push	{r3, lr}
 369              	.LCFI4:
 370              		.cfi_def_cfa_offset 8
 371              		.cfi_offset 3, -8
 372              		.cfi_offset 14, -4
 373              	.LVL46:
 135:C:/Users/lenovo/Desktop/liteos/Project2/BearPi_LiteOS/components/connectivity/agent_tiny/atiny_lwm2m\atiny_rpt.c ****     atiny_rpt_list_t *rpt_list = (atiny_rpt_list_t *)node;
 136:C:/Users/lenovo/Desktop/liteos/Project2/BearPi_LiteOS/components/connectivity/agent_tiny/atiny_lwm2m\atiny_rpt.c ****     atiny_free_list(&rpt_list->rpt_list, atiny_clear_rpt_list_node_data, result);
 374              		.loc 1 136 0
 375 0002 0A46     		mov	r2, r1
 376 0004 0249     		ldr	r1, .L36
 377              	.LVL47:
 378 0006 1030     		adds	r0, r0, #16
 379              	.LVL48:
 380 0008 FFF7FEFF 		bl	atiny_free_list
 381              	.LVL49:
 137:C:/Users/lenovo/Desktop/liteos/Project2/BearPi_LiteOS/components/connectivity/agent_tiny/atiny_lwm2m\atiny_rpt.c **** }
 382              		.loc 1 137 0
 383 000c 08BD     		pop	{r3, pc}
 384              	.L37:
 385 000e 00BF     		.align	2
 386              	.L36:
 387 0010 00000000 		.word	atiny_clear_rpt_list_node_data
 388              		.cfi_endproc
 389              	.LFE148:
 391              		.section	.text.atiny_notify_stack_rpt_data_change,"ax",%progbits
ARM GAS  c:\Users\lenovo\AppData\Local\Temp\ccE9ZvNF.s 			page 12


 392              		.align	1
 393              		.syntax unified
 394              		.thumb
 395              		.thumb_func
 396              		.fpu fpv4-sp-d16
 398              	atiny_notify_stack_rpt_data_change:
 399              	.LFB149:
 138:C:/Users/lenovo/Desktop/liteos/Project2/BearPi_LiteOS/components/connectivity/agent_tiny/atiny_lwm2m\atiny_rpt.c **** 
 139:C:/Users/lenovo/Desktop/liteos/Project2/BearPi_LiteOS/components/connectivity/agent_tiny/atiny_lwm2m\atiny_rpt.c **** static void atiny_notify_stack_rpt_data_change(atiny_dl_list *node, void *context)
 140:C:/Users/lenovo/Desktop/liteos/Project2/BearPi_LiteOS/components/connectivity/agent_tiny/atiny_lwm2m\atiny_rpt.c **** {
 400              		.loc 1 140 0
 401              		.cfi_startproc
 402              		@ args = 0, pretend = 0, frame = 0
 403              		@ frame_needed = 0, uses_anonymous_args = 0
 404              	.LVL50:
 141:C:/Users/lenovo/Desktop/liteos/Project2/BearPi_LiteOS/components/connectivity/agent_tiny/atiny_lwm2m\atiny_rpt.c ****     atiny_rpt_list_t *rpt_list = (atiny_rpt_list_t *)node;
 142:C:/Users/lenovo/Desktop/liteos/Project2/BearPi_LiteOS/components/connectivity/agent_tiny/atiny_lwm2m\atiny_rpt.c **** 
 143:C:/Users/lenovo/Desktop/liteos/Project2/BearPi_LiteOS/components/connectivity/agent_tiny/atiny_lwm2m\atiny_rpt.c ****     if (!atiny_list_empty(&rpt_list->rpt_list))
 405              		.loc 1 143 0
 406 0000 00F11002 		add	r2, r0, #16
 407              	.LVL51:
 408              	.LBB32:
 409              	.LBB33:
  99:C:/Users/lenovo/Desktop/liteos/Project2/BearPi_LiteOS/components/connectivity/agent_tiny/atiny_lwm2m\agent_list.h **** }
 100:C:/Users/lenovo/Desktop/liteos/Project2/BearPi_LiteOS/components/connectivity/agent_tiny/atiny_lwm2m\agent_list.h **** 
 101:C:/Users/lenovo/Desktop/liteos/Project2/BearPi_LiteOS/components/connectivity/agent_tiny/atiny_lwm2m\agent_list.h **** ATINY_INLINE int atiny_list_empty(atiny_dl_list *node)
 102:C:/Users/lenovo/Desktop/liteos/Project2/BearPi_LiteOS/components/connectivity/agent_tiny/atiny_lwm2m\agent_list.h **** {
 103:C:/Users/lenovo/Desktop/liteos/Project2/BearPi_LiteOS/components/connectivity/agent_tiny/atiny_lwm2m\agent_list.h ****     return (node->next == node);
 410              		.loc 2 103 0
 411 0004 4369     		ldr	r3, [r0, #20]
 412              	.LVL52:
 413              	.LBE33:
 414              	.LBE32:
 415              		.loc 1 143 0
 416 0006 9A42     		cmp	r2, r3
 417 0008 27D0     		beq	.L42
 140:C:/Users/lenovo/Desktop/liteos/Project2/BearPi_LiteOS/components/connectivity/agent_tiny/atiny_lwm2m\atiny_rpt.c ****     atiny_rpt_list_t *rpt_list = (atiny_rpt_list_t *)node;
 418              		.loc 1 140 0
 419 000a F0B5     		push	{r4, r5, r6, r7, lr}
 420              	.LCFI5:
 421              		.cfi_def_cfa_offset 20
 422              		.cfi_offset 4, -20
 423              		.cfi_offset 5, -16
 424              		.cfi_offset 6, -12
 425              		.cfi_offset 7, -8
 426              		.cfi_offset 14, -4
 427 000c 87B0     		sub	sp, sp, #28
 428              	.LCFI6:
 429              		.cfi_def_cfa_offset 48
 430 000e 0D46     		mov	r5, r1
 431 0010 0446     		mov	r4, r0
 144:C:/Users/lenovo/Desktop/liteos/Project2/BearPi_LiteOS/components/connectivity/agent_tiny/atiny_lwm2m\atiny_rpt.c ****     {
 145:C:/Users/lenovo/Desktop/liteos/Project2/BearPi_LiteOS/components/connectivity/agent_tiny/atiny_lwm2m\atiny_rpt.c ****         ATINY_LOG(LOG_INFO, "data change cnt %d "URI_FORMAT,  rpt_list->rpt_node_cnt, URI_LOG_PARAM
 432              		.loc 1 145 0
 433 0012 FFF7FEFF 		bl	atiny_get_log_level
 434              	.LVL53:
 435 0016 0128     		cmp	r0, #1
ARM GAS  c:\Users\lenovo\AppData\Local\Temp\ccE9ZvNF.s 			page 13


 436 0018 06D9     		bls	.L45
 437              	.L40:
 146:C:/Users/lenovo/Desktop/liteos/Project2/BearPi_LiteOS/components/connectivity/agent_tiny/atiny_lwm2m\atiny_rpt.c ****         lwm2m_resource_value_changed(context, &rpt_list->uri);
 438              		.loc 1 146 0
 439 001a 04F10801 		add	r1, r4, #8
 440 001e 2846     		mov	r0, r5
 441 0020 FFF7FEFF 		bl	lwm2m_resource_value_changed
 442              	.LVL54:
 147:C:/Users/lenovo/Desktop/liteos/Project2/BearPi_LiteOS/components/connectivity/agent_tiny/atiny_lwm2m\atiny_rpt.c ****     }
 148:C:/Users/lenovo/Desktop/liteos/Project2/BearPi_LiteOS/components/connectivity/agent_tiny/atiny_lwm2m\atiny_rpt.c **** }
 443              		.loc 1 148 0
 444 0024 07B0     		add	sp, sp, #28
 445              	.LCFI7:
 446              		.cfi_remember_state
 447              		.cfi_def_cfa_offset 20
 448              		@ sp needed
 449 0026 F0BD     		pop	{r4, r5, r6, r7, pc}
 450              	.LVL55:
 451              	.L45:
 452              	.LCFI8:
 453              		.cfi_restore_state
 145:C:/Users/lenovo/Desktop/liteos/Project2/BearPi_LiteOS/components/connectivity/agent_tiny/atiny_lwm2m\atiny_rpt.c ****         lwm2m_resource_value_changed(context, &rpt_list->uri);
 454              		.loc 1 145 0 discriminator 1
 455 0028 0120     		movs	r0, #1
 456 002a FFF7FEFF 		bl	atiny_get_log_level_name
 457              	.LVL56:
 458 002e 0646     		mov	r6, r0
 459 0030 FFF7FEFF 		bl	atiny_gettime_ms
 460              	.LVL57:
 461 0034 227A     		ldrb	r2, [r4, #8]	@ zero_extendqisi2
 462 0036 6189     		ldrh	r1, [r4, #10]
 463 0038 A789     		ldrh	r7, [r4, #12]
 464 003a E389     		ldrh	r3, [r4, #14]
 465 003c 0593     		str	r3, [sp, #20]
 466 003e 0497     		str	r7, [sp, #16]
 467 0040 0391     		str	r1, [sp, #12]
 468 0042 0292     		str	r2, [sp, #8]
 469 0044 A369     		ldr	r3, [r4, #24]
 470 0046 0193     		str	r3, [sp, #4]
 471 0048 9123     		movs	r3, #145
 472 004a 0093     		str	r3, [sp]
 473 004c 034B     		ldr	r3, .L46
 474 004e 0246     		mov	r2, r0
 475 0050 3146     		mov	r1, r6
 476 0052 0348     		ldr	r0, .L46+4
 477 0054 FFF7FEFF 		bl	atiny_printf
 478              	.LVL58:
 479 0058 DFE7     		b	.L40
 480              	.LVL59:
 481              	.L42:
 482              	.LCFI9:
 483              		.cfi_def_cfa_offset 0
 484              		.cfi_restore 4
 485              		.cfi_restore 5
 486              		.cfi_restore 6
 487              		.cfi_restore 7
 488              		.cfi_restore 14
ARM GAS  c:\Users\lenovo\AppData\Local\Temp\ccE9ZvNF.s 			page 14


 489 005a 7047     		bx	lr
 490              	.L47:
 491              		.align	2
 492              	.L46:
 493 005c 00000000 		.word	.LANCHOR1
 494 0060 00000000 		.word	.LC0
 495              		.cfi_endproc
 496              	.LFE149:
 498              		.section	.text.atiny_init_rpt,"ax",%progbits
 499              		.align	1
 500              		.global	atiny_init_rpt
 501              		.syntax unified
 502              		.thumb
 503              		.thumb_func
 504              		.fpu fpv4-sp-d16
 506              	atiny_init_rpt:
 507              	.LFB150:
 149:C:/Users/lenovo/Desktop/liteos/Project2/BearPi_LiteOS/components/connectivity/agent_tiny/atiny_lwm2m\atiny_rpt.c **** 
 150:C:/Users/lenovo/Desktop/liteos/Project2/BearPi_LiteOS/components/connectivity/agent_tiny/atiny_lwm2m\atiny_rpt.c **** int atiny_init_rpt(void)
 151:C:/Users/lenovo/Desktop/liteos/Project2/BearPi_LiteOS/components/connectivity/agent_tiny/atiny_lwm2m\atiny_rpt.c **** {
 508              		.loc 1 151 0
 509              		.cfi_startproc
 510              		@ args = 0, pretend = 0, frame = 0
 511              		@ frame_needed = 0, uses_anonymous_args = 0
 512 0000 10B5     		push	{r4, lr}
 513              	.LCFI10:
 514              		.cfi_def_cfa_offset 8
 515              		.cfi_offset 4, -8
 516              		.cfi_offset 14, -4
 517 0002 82B0     		sub	sp, sp, #8
 518              	.LCFI11:
 519              		.cfi_def_cfa_offset 16
 520              	.LVL60:
 521              	.LBB34:
 522              	.LBB35:
  69:C:/Users/lenovo/Desktop/liteos/Project2/BearPi_LiteOS/components/connectivity/agent_tiny/atiny_lwm2m\agent_list.h ****     list->prev = list;
 523              		.loc 2 69 0
 524 0004 114B     		ldr	r3, .L55
 525 0006 5B60     		str	r3, [r3, #4]
  70:C:/Users/lenovo/Desktop/liteos/Project2/BearPi_LiteOS/components/connectivity/agent_tiny/atiny_lwm2m\agent_list.h **** }
 526              		.loc 2 70 0
 527 0008 1B60     		str	r3, [r3]
 528              	.LVL61:
 529              	.LBE35:
 530              	.LBE34:
 152:C:/Users/lenovo/Desktop/liteos/Project2/BearPi_LiteOS/components/connectivity/agent_tiny/atiny_lwm2m\atiny_rpt.c ****     atiny_list_init(&g_atiny_rpt_table);
 153:C:/Users/lenovo/Desktop/liteos/Project2/BearPi_LiteOS/components/connectivity/agent_tiny/atiny_lwm2m\atiny_rpt.c ****     g_mutex = atiny_mutex_create();
 531              		.loc 1 153 0
 532 000a FFF7FEFF 		bl	atiny_mutex_create
 533              	.LVL62:
 534 000e 104B     		ldr	r3, .L55+4
 535 0010 1860     		str	r0, [r3]
 154:C:/Users/lenovo/Desktop/liteos/Project2/BearPi_LiteOS/components/connectivity/agent_tiny/atiny_lwm2m\atiny_rpt.c **** 
 155:C:/Users/lenovo/Desktop/liteos/Project2/BearPi_LiteOS/components/connectivity/agent_tiny/atiny_lwm2m\atiny_rpt.c ****     if (NULL == g_mutex)
 536              		.loc 1 155 0
 537 0012 10B1     		cbz	r0, .L53
 156:C:/Users/lenovo/Desktop/liteos/Project2/BearPi_LiteOS/components/connectivity/agent_tiny/atiny_lwm2m\atiny_rpt.c ****     {
ARM GAS  c:\Users\lenovo\AppData\Local\Temp\ccE9ZvNF.s 			page 15


 157:C:/Users/lenovo/Desktop/liteos/Project2/BearPi_LiteOS/components/connectivity/agent_tiny/atiny_lwm2m\atiny_rpt.c ****         ATINY_LOG(LOG_ERR, "atiny_mutex_create fail");
 158:C:/Users/lenovo/Desktop/liteos/Project2/BearPi_LiteOS/components/connectivity/agent_tiny/atiny_lwm2m\atiny_rpt.c ****         return ATINY_RESOURCE_NOT_ENOUGH;;
 159:C:/Users/lenovo/Desktop/liteos/Project2/BearPi_LiteOS/components/connectivity/agent_tiny/atiny_lwm2m\atiny_rpt.c ****     }
 160:C:/Users/lenovo/Desktop/liteos/Project2/BearPi_LiteOS/components/connectivity/agent_tiny/atiny_lwm2m\atiny_rpt.c **** 
 161:C:/Users/lenovo/Desktop/liteos/Project2/BearPi_LiteOS/components/connectivity/agent_tiny/atiny_lwm2m\atiny_rpt.c ****     return ATINY_OK;
 538              		.loc 1 161 0
 539 0014 0020     		movs	r0, #0
 540              	.L48:
 162:C:/Users/lenovo/Desktop/liteos/Project2/BearPi_LiteOS/components/connectivity/agent_tiny/atiny_lwm2m\atiny_rpt.c **** }
 541              		.loc 1 162 0
 542 0016 02B0     		add	sp, sp, #8
 543              	.LCFI12:
 544              		.cfi_remember_state
 545              		.cfi_def_cfa_offset 8
 546              		@ sp needed
 547 0018 10BD     		pop	{r4, pc}
 548              	.L53:
 549              	.LCFI13:
 550              		.cfi_restore_state
 157:C:/Users/lenovo/Desktop/liteos/Project2/BearPi_LiteOS/components/connectivity/agent_tiny/atiny_lwm2m\atiny_rpt.c ****         return ATINY_RESOURCE_NOT_ENOUGH;;
 551              		.loc 1 157 0
 552 001a FFF7FEFF 		bl	atiny_get_log_level
 553              	.LVL63:
 554 001e 0328     		cmp	r0, #3
 555 0020 02D9     		bls	.L54
 158:C:/Users/lenovo/Desktop/liteos/Project2/BearPi_LiteOS/components/connectivity/agent_tiny/atiny_lwm2m\atiny_rpt.c ****     }
 556              		.loc 1 158 0
 557 0022 6FF00500 		mvn	r0, #5
 558 0026 F6E7     		b	.L48
 559              	.L54:
 157:C:/Users/lenovo/Desktop/liteos/Project2/BearPi_LiteOS/components/connectivity/agent_tiny/atiny_lwm2m\atiny_rpt.c ****         return ATINY_RESOURCE_NOT_ENOUGH;;
 560              		.loc 1 157 0 discriminator 1
 561 0028 0320     		movs	r0, #3
 562 002a FFF7FEFF 		bl	atiny_get_log_level_name
 563              	.LVL64:
 564 002e 0446     		mov	r4, r0
 565 0030 FFF7FEFF 		bl	atiny_gettime_ms
 566              	.LVL65:
 567 0034 9D23     		movs	r3, #157
 568 0036 0093     		str	r3, [sp]
 569 0038 064B     		ldr	r3, .L55+8
 570 003a 0246     		mov	r2, r0
 571 003c 2146     		mov	r1, r4
 572 003e 0648     		ldr	r0, .L55+12
 573 0040 FFF7FEFF 		bl	atiny_printf
 574              	.LVL66:
 158:C:/Users/lenovo/Desktop/liteos/Project2/BearPi_LiteOS/components/connectivity/agent_tiny/atiny_lwm2m\atiny_rpt.c ****     }
 575              		.loc 1 158 0 discriminator 1
 576 0044 6FF00500 		mvn	r0, #5
 577 0048 E5E7     		b	.L48
 578              	.L56:
 579 004a 00BF     		.align	2
 580              	.L55:
 581 004c 00000000 		.word	.LANCHOR0
 582 0050 00000000 		.word	.LANCHOR2
 583 0054 00000000 		.word	.LANCHOR3
 584 0058 00000000 		.word	.LC1
ARM GAS  c:\Users\lenovo\AppData\Local\Temp\ccE9ZvNF.s 			page 16


 585              		.cfi_endproc
 586              	.LFE150:
 588              		.section	.text.atiny_add_rpt_uri,"ax",%progbits
 589              		.align	1
 590              		.global	atiny_add_rpt_uri
 591              		.syntax unified
 592              		.thumb
 593              		.thumb_func
 594              		.fpu fpv4-sp-d16
 596              	atiny_add_rpt_uri:
 597              	.LFB151:
 163:C:/Users/lenovo/Desktop/liteos/Project2/BearPi_LiteOS/components/connectivity/agent_tiny/atiny_lwm2m\atiny_rpt.c **** 
 164:C:/Users/lenovo/Desktop/liteos/Project2/BearPi_LiteOS/components/connectivity/agent_tiny/atiny_lwm2m\atiny_rpt.c **** int atiny_add_rpt_uri(const lwm2m_uri_t *uri,  rpt_list_t *list)
 165:C:/Users/lenovo/Desktop/liteos/Project2/BearPi_LiteOS/components/connectivity/agent_tiny/atiny_lwm2m\atiny_rpt.c **** {
 598              		.loc 1 165 0
 599              		.cfi_startproc
 600              		@ args = 0, pretend = 0, frame = 0
 601              		@ frame_needed = 0, uses_anonymous_args = 0
 602              	.LVL67:
 603 0000 F0B5     		push	{r4, r5, r6, r7, lr}
 604              	.LCFI14:
 605              		.cfi_def_cfa_offset 20
 606              		.cfi_offset 4, -20
 607              		.cfi_offset 5, -16
 608              		.cfi_offset 6, -12
 609              		.cfi_offset 7, -8
 610              		.cfi_offset 14, -4
 611 0002 87B0     		sub	sp, sp, #28
 612              	.LCFI15:
 613              		.cfi_def_cfa_offset 48
 614              	.LVL68:
 166:C:/Users/lenovo/Desktop/liteos/Project2/BearPi_LiteOS/components/connectivity/agent_tiny/atiny_lwm2m\atiny_rpt.c ****     atiny_rpt_list_t *rpt_list  = NULL;
 167:C:/Users/lenovo/Desktop/liteos/Project2/BearPi_LiteOS/components/connectivity/agent_tiny/atiny_lwm2m\atiny_rpt.c ****     int ret = ATINY_ARG_INVALID;
 168:C:/Users/lenovo/Desktop/liteos/Project2/BearPi_LiteOS/components/connectivity/agent_tiny/atiny_lwm2m\atiny_rpt.c **** 
 169:C:/Users/lenovo/Desktop/liteos/Project2/BearPi_LiteOS/components/connectivity/agent_tiny/atiny_lwm2m\atiny_rpt.c ****     if (NULL == uri)
 615              		.loc 1 169 0
 616 0004 E0B1     		cbz	r0, .L69
 617 0006 0C46     		mov	r4, r1
 618 0008 0646     		mov	r6, r0
 170:C:/Users/lenovo/Desktop/liteos/Project2/BearPi_LiteOS/components/connectivity/agent_tiny/atiny_lwm2m\atiny_rpt.c ****     {
 171:C:/Users/lenovo/Desktop/liteos/Project2/BearPi_LiteOS/components/connectivity/agent_tiny/atiny_lwm2m\atiny_rpt.c ****         ATINY_LOG(LOG_ERR, "null point");
 172:C:/Users/lenovo/Desktop/liteos/Project2/BearPi_LiteOS/components/connectivity/agent_tiny/atiny_lwm2m\atiny_rpt.c ****         return ATINY_ARG_INVALID;
 173:C:/Users/lenovo/Desktop/liteos/Project2/BearPi_LiteOS/components/connectivity/agent_tiny/atiny_lwm2m\atiny_rpt.c ****     }
 174:C:/Users/lenovo/Desktop/liteos/Project2/BearPi_LiteOS/components/connectivity/agent_tiny/atiny_lwm2m\atiny_rpt.c **** 
 175:C:/Users/lenovo/Desktop/liteos/Project2/BearPi_LiteOS/components/connectivity/agent_tiny/atiny_lwm2m\atiny_rpt.c ****     if (NULL == list)
 619              		.loc 1 175 0
 620 000a 89B3     		cbz	r1, .L70
 176:C:/Users/lenovo/Desktop/liteos/Project2/BearPi_LiteOS/components/connectivity/agent_tiny/atiny_lwm2m\atiny_rpt.c ****     {
 177:C:/Users/lenovo/Desktop/liteos/Project2/BearPi_LiteOS/components/connectivity/agent_tiny/atiny_lwm2m\atiny_rpt.c ****         ATINY_LOG(LOG_ERR, "null point");
 178:C:/Users/lenovo/Desktop/liteos/Project2/BearPi_LiteOS/components/connectivity/agent_tiny/atiny_lwm2m\atiny_rpt.c ****         return ATINY_ARG_INVALID;
 179:C:/Users/lenovo/Desktop/liteos/Project2/BearPi_LiteOS/components/connectivity/agent_tiny/atiny_lwm2m\atiny_rpt.c ****     }
 180:C:/Users/lenovo/Desktop/liteos/Project2/BearPi_LiteOS/components/connectivity/agent_tiny/atiny_lwm2m\atiny_rpt.c **** 
 181:C:/Users/lenovo/Desktop/liteos/Project2/BearPi_LiteOS/components/connectivity/agent_tiny/atiny_lwm2m\atiny_rpt.c ****     *list = NULL;
 621              		.loc 1 181 0
 622 000c 0023     		movs	r3, #0
 623 000e 0B60     		str	r3, [r1]
 182:C:/Users/lenovo/Desktop/liteos/Project2/BearPi_LiteOS/components/connectivity/agent_tiny/atiny_lwm2m\atiny_rpt.c **** 
ARM GAS  c:\Users\lenovo\AppData\Local\Temp\ccE9ZvNF.s 			page 17


 183:C:/Users/lenovo/Desktop/liteos/Project2/BearPi_LiteOS/components/connectivity/agent_tiny/atiny_lwm2m\atiny_rpt.c ****     atiny_mutex_lock(g_mutex);
 624              		.loc 1 183 0
 625 0010 4E4B     		ldr	r3, .L76
 626 0012 1868     		ldr	r0, [r3]
 627              	.LVL69:
 628 0014 FFF7FEFF 		bl	atiny_mutex_lock
 629              	.LVL70:
 184:C:/Users/lenovo/Desktop/liteos/Project2/BearPi_LiteOS/components/connectivity/agent_tiny/atiny_lwm2m\atiny_rpt.c **** 
 185:C:/Users/lenovo/Desktop/liteos/Project2/BearPi_LiteOS/components/connectivity/agent_tiny/atiny_lwm2m\atiny_rpt.c ****     do
 186:C:/Users/lenovo/Desktop/liteos/Project2/BearPi_LiteOS/components/connectivity/agent_tiny/atiny_lwm2m\atiny_rpt.c ****     {
 187:C:/Users/lenovo/Desktop/liteos/Project2/BearPi_LiteOS/components/connectivity/agent_tiny/atiny_lwm2m\atiny_rpt.c ****         rpt_list = atiny_find_rpt_list(uri);
 630              		.loc 1 187 0
 631 0018 3046     		mov	r0, r6
 632 001a FFF7FEFF 		bl	atiny_find_rpt_list
 633              	.LVL71:
 188:C:/Users/lenovo/Desktop/liteos/Project2/BearPi_LiteOS/components/connectivity/agent_tiny/atiny_lwm2m\atiny_rpt.c **** 
 189:C:/Users/lenovo/Desktop/liteos/Project2/BearPi_LiteOS/components/connectivity/agent_tiny/atiny_lwm2m\atiny_rpt.c ****         if (rpt_list != NULL)
 634              		.loc 1 189 0
 635 001e 0546     		mov	r5, r0
 636 0020 0028     		cmp	r0, #0
 637 0022 56D0     		beq	.L61
 190:C:/Users/lenovo/Desktop/liteos/Project2/BearPi_LiteOS/components/connectivity/agent_tiny/atiny_lwm2m\atiny_rpt.c ****         {
 191:C:/Users/lenovo/Desktop/liteos/Project2/BearPi_LiteOS/components/connectivity/agent_tiny/atiny_lwm2m\atiny_rpt.c ****             ATINY_LOG(LOG_ERR, "uri exist," URI_FORMAT, URI_LOG_PARAM(uri));
 638              		.loc 1 191 0
 639 0024 FFF7FEFF 		bl	atiny_get_log_level
 640              	.LVL72:
 641 0028 0328     		cmp	r0, #3
 642 002a 39D9     		bls	.L71
 167:C:/Users/lenovo/Desktop/liteos/Project2/BearPi_LiteOS/components/connectivity/agent_tiny/atiny_lwm2m\atiny_rpt.c **** 
 643              		.loc 1 167 0
 644 002c 4FF0FF36 		mov	r6, #-1
 645              	.LVL73:
 646              	.L62:
 192:C:/Users/lenovo/Desktop/liteos/Project2/BearPi_LiteOS/components/connectivity/agent_tiny/atiny_lwm2m\atiny_rpt.c ****             break;
 193:C:/Users/lenovo/Desktop/liteos/Project2/BearPi_LiteOS/components/connectivity/agent_tiny/atiny_lwm2m\atiny_rpt.c ****         }
 194:C:/Users/lenovo/Desktop/liteos/Project2/BearPi_LiteOS/components/connectivity/agent_tiny/atiny_lwm2m\atiny_rpt.c **** 
 195:C:/Users/lenovo/Desktop/liteos/Project2/BearPi_LiteOS/components/connectivity/agent_tiny/atiny_lwm2m\atiny_rpt.c ****         rpt_list = lwm2m_malloc(sizeof(*rpt_list));
 196:C:/Users/lenovo/Desktop/liteos/Project2/BearPi_LiteOS/components/connectivity/agent_tiny/atiny_lwm2m\atiny_rpt.c **** 
 197:C:/Users/lenovo/Desktop/liteos/Project2/BearPi_LiteOS/components/connectivity/agent_tiny/atiny_lwm2m\atiny_rpt.c ****         if (NULL == rpt_list)
 198:C:/Users/lenovo/Desktop/liteos/Project2/BearPi_LiteOS/components/connectivity/agent_tiny/atiny_lwm2m\atiny_rpt.c ****         {
 199:C:/Users/lenovo/Desktop/liteos/Project2/BearPi_LiteOS/components/connectivity/agent_tiny/atiny_lwm2m\atiny_rpt.c ****             ATINY_LOG(LOG_ERR, "lwm2m_malloc fail," URI_FORMAT, URI_LOG_PARAM(uri));
 200:C:/Users/lenovo/Desktop/liteos/Project2/BearPi_LiteOS/components/connectivity/agent_tiny/atiny_lwm2m\atiny_rpt.c ****             break;
 201:C:/Users/lenovo/Desktop/liteos/Project2/BearPi_LiteOS/components/connectivity/agent_tiny/atiny_lwm2m\atiny_rpt.c ****         }
 202:C:/Users/lenovo/Desktop/liteos/Project2/BearPi_LiteOS/components/connectivity/agent_tiny/atiny_lwm2m\atiny_rpt.c **** 
 203:C:/Users/lenovo/Desktop/liteos/Project2/BearPi_LiteOS/components/connectivity/agent_tiny/atiny_lwm2m\atiny_rpt.c ****         memset(rpt_list, 0, sizeof(*rpt_list));
 204:C:/Users/lenovo/Desktop/liteos/Project2/BearPi_LiteOS/components/connectivity/agent_tiny/atiny_lwm2m\atiny_rpt.c ****         atiny_list_init(&rpt_list->rpt_list);
 205:C:/Users/lenovo/Desktop/liteos/Project2/BearPi_LiteOS/components/connectivity/agent_tiny/atiny_lwm2m\atiny_rpt.c ****         memcpy(&rpt_list->uri, uri, sizeof(rpt_list->uri));
 206:C:/Users/lenovo/Desktop/liteos/Project2/BearPi_LiteOS/components/connectivity/agent_tiny/atiny_lwm2m\atiny_rpt.c ****         rpt_list->max_cnt = MAX_BUFFER_REPORT_CNT;
 207:C:/Users/lenovo/Desktop/liteos/Project2/BearPi_LiteOS/components/connectivity/agent_tiny/atiny_lwm2m\atiny_rpt.c ****         atiny_list_insert_tail(&g_atiny_rpt_table, &rpt_list->node);
 208:C:/Users/lenovo/Desktop/liteos/Project2/BearPi_LiteOS/components/connectivity/agent_tiny/atiny_lwm2m\atiny_rpt.c ****         ret = ATINY_OK;
 209:C:/Users/lenovo/Desktop/liteos/Project2/BearPi_LiteOS/components/connectivity/agent_tiny/atiny_lwm2m\atiny_rpt.c **** 
 210:C:/Users/lenovo/Desktop/liteos/Project2/BearPi_LiteOS/components/connectivity/agent_tiny/atiny_lwm2m\atiny_rpt.c ****     }
 211:C:/Users/lenovo/Desktop/liteos/Project2/BearPi_LiteOS/components/connectivity/agent_tiny/atiny_lwm2m\atiny_rpt.c ****     while (0);
 212:C:/Users/lenovo/Desktop/liteos/Project2/BearPi_LiteOS/components/connectivity/agent_tiny/atiny_lwm2m\atiny_rpt.c **** 
 213:C:/Users/lenovo/Desktop/liteos/Project2/BearPi_LiteOS/components/connectivity/agent_tiny/atiny_lwm2m\atiny_rpt.c ****     atiny_mutex_unlock(g_mutex);
 647              		.loc 1 213 0
 648 0030 464B     		ldr	r3, .L76
ARM GAS  c:\Users\lenovo\AppData\Local\Temp\ccE9ZvNF.s 			page 18


 649 0032 1868     		ldr	r0, [r3]
 650 0034 FFF7FEFF 		bl	atiny_mutex_unlock
 651              	.LVL74:
 214:C:/Users/lenovo/Desktop/liteos/Project2/BearPi_LiteOS/components/connectivity/agent_tiny/atiny_lwm2m\atiny_rpt.c **** 
 215:C:/Users/lenovo/Desktop/liteos/Project2/BearPi_LiteOS/components/connectivity/agent_tiny/atiny_lwm2m\atiny_rpt.c ****     *list = rpt_list;
 652              		.loc 1 215 0
 653 0038 2560     		str	r5, [r4]
 654              	.LVL75:
 655              	.L57:
 216:C:/Users/lenovo/Desktop/liteos/Project2/BearPi_LiteOS/components/connectivity/agent_tiny/atiny_lwm2m\atiny_rpt.c **** 
 217:C:/Users/lenovo/Desktop/liteos/Project2/BearPi_LiteOS/components/connectivity/agent_tiny/atiny_lwm2m\atiny_rpt.c ****     return ret;
 218:C:/Users/lenovo/Desktop/liteos/Project2/BearPi_LiteOS/components/connectivity/agent_tiny/atiny_lwm2m\atiny_rpt.c **** }
 656              		.loc 1 218 0
 657 003a 3046     		mov	r0, r6
 658 003c 07B0     		add	sp, sp, #28
 659              	.LCFI16:
 660              		.cfi_remember_state
 661              		.cfi_def_cfa_offset 20
 662              		@ sp needed
 663 003e F0BD     		pop	{r4, r5, r6, r7, pc}
 664              	.LVL76:
 665              	.L69:
 666              	.LCFI17:
 667              		.cfi_restore_state
 171:C:/Users/lenovo/Desktop/liteos/Project2/BearPi_LiteOS/components/connectivity/agent_tiny/atiny_lwm2m\atiny_rpt.c ****         return ATINY_ARG_INVALID;
 668              		.loc 1 171 0
 669 0040 FFF7FEFF 		bl	atiny_get_log_level
 670              	.LVL77:
 671 0044 0328     		cmp	r0, #3
 672 0046 02D9     		bls	.L72
 172:C:/Users/lenovo/Desktop/liteos/Project2/BearPi_LiteOS/components/connectivity/agent_tiny/atiny_lwm2m\atiny_rpt.c ****     }
 673              		.loc 1 172 0
 674 0048 4FF0FF36 		mov	r6, #-1
 675 004c F5E7     		b	.L57
 676              	.L72:
 171:C:/Users/lenovo/Desktop/liteos/Project2/BearPi_LiteOS/components/connectivity/agent_tiny/atiny_lwm2m\atiny_rpt.c ****         return ATINY_ARG_INVALID;
 677              		.loc 1 171 0 discriminator 1
 678 004e 0320     		movs	r0, #3
 679 0050 FFF7FEFF 		bl	atiny_get_log_level_name
 680              	.LVL78:
 681 0054 0446     		mov	r4, r0
 682 0056 FFF7FEFF 		bl	atiny_gettime_ms
 683              	.LVL79:
 684 005a AB23     		movs	r3, #171
 685 005c 0093     		str	r3, [sp]
 686 005e 3C4B     		ldr	r3, .L76+4
 687 0060 0246     		mov	r2, r0
 688 0062 2146     		mov	r1, r4
 689 0064 3B48     		ldr	r0, .L76+8
 690 0066 FFF7FEFF 		bl	atiny_printf
 691              	.LVL80:
 172:C:/Users/lenovo/Desktop/liteos/Project2/BearPi_LiteOS/components/connectivity/agent_tiny/atiny_lwm2m\atiny_rpt.c ****     }
 692              		.loc 1 172 0 discriminator 1
 693 006a 4FF0FF36 		mov	r6, #-1
 694 006e E4E7     		b	.L57
 695              	.LVL81:
 696              	.L70:
ARM GAS  c:\Users\lenovo\AppData\Local\Temp\ccE9ZvNF.s 			page 19


 177:C:/Users/lenovo/Desktop/liteos/Project2/BearPi_LiteOS/components/connectivity/agent_tiny/atiny_lwm2m\atiny_rpt.c ****         return ATINY_ARG_INVALID;
 697              		.loc 1 177 0
 698 0070 FFF7FEFF 		bl	atiny_get_log_level
 699              	.LVL82:
 700 0074 0328     		cmp	r0, #3
 701 0076 02D9     		bls	.L73
 178:C:/Users/lenovo/Desktop/liteos/Project2/BearPi_LiteOS/components/connectivity/agent_tiny/atiny_lwm2m\atiny_rpt.c ****     }
 702              		.loc 1 178 0
 703 0078 4FF0FF36 		mov	r6, #-1
 704              	.LVL83:
 705 007c DDE7     		b	.L57
 706              	.LVL84:
 707              	.L73:
 177:C:/Users/lenovo/Desktop/liteos/Project2/BearPi_LiteOS/components/connectivity/agent_tiny/atiny_lwm2m\atiny_rpt.c ****         return ATINY_ARG_INVALID;
 708              		.loc 1 177 0 discriminator 1
 709 007e 0320     		movs	r0, #3
 710 0080 FFF7FEFF 		bl	atiny_get_log_level_name
 711              	.LVL85:
 712 0084 0446     		mov	r4, r0
 713              	.LVL86:
 714 0086 FFF7FEFF 		bl	atiny_gettime_ms
 715              	.LVL87:
 716 008a B123     		movs	r3, #177
 717 008c 0093     		str	r3, [sp]
 718 008e 304B     		ldr	r3, .L76+4
 719 0090 0246     		mov	r2, r0
 720 0092 2146     		mov	r1, r4
 721 0094 2F48     		ldr	r0, .L76+8
 722 0096 FFF7FEFF 		bl	atiny_printf
 723              	.LVL88:
 178:C:/Users/lenovo/Desktop/liteos/Project2/BearPi_LiteOS/components/connectivity/agent_tiny/atiny_lwm2m\atiny_rpt.c ****     }
 724              		.loc 1 178 0 discriminator 1
 725 009a 4FF0FF36 		mov	r6, #-1
 726              	.LVL89:
 727 009e CCE7     		b	.L57
 728              	.LVL90:
 729              	.L71:
 191:C:/Users/lenovo/Desktop/liteos/Project2/BearPi_LiteOS/components/connectivity/agent_tiny/atiny_lwm2m\atiny_rpt.c ****             break;
 730              		.loc 1 191 0 discriminator 1
 731 00a0 0320     		movs	r0, #3
 732 00a2 FFF7FEFF 		bl	atiny_get_log_level_name
 733              	.LVL91:
 734 00a6 0746     		mov	r7, r0
 735 00a8 FFF7FEFF 		bl	atiny_gettime_ms
 736              	.LVL92:
 737 00ac 3378     		ldrb	r3, [r6]	@ zero_extendqisi2
 738 00ae 7288     		ldrh	r2, [r6, #2]
 739 00b0 B188     		ldrh	r1, [r6, #4]
 740 00b2 F688     		ldrh	r6, [r6, #6]
 741              	.LVL93:
 742 00b4 0496     		str	r6, [sp, #16]
 743 00b6 0391     		str	r1, [sp, #12]
 744 00b8 0292     		str	r2, [sp, #8]
 745 00ba 0193     		str	r3, [sp, #4]
 746 00bc BF23     		movs	r3, #191
 747 00be 0093     		str	r3, [sp]
 748 00c0 234B     		ldr	r3, .L76+4
ARM GAS  c:\Users\lenovo\AppData\Local\Temp\ccE9ZvNF.s 			page 20


 749 00c2 0246     		mov	r2, r0
 750 00c4 3946     		mov	r1, r7
 751 00c6 2448     		ldr	r0, .L76+12
 752 00c8 FFF7FEFF 		bl	atiny_printf
 753              	.LVL94:
 167:C:/Users/lenovo/Desktop/liteos/Project2/BearPi_LiteOS/components/connectivity/agent_tiny/atiny_lwm2m\atiny_rpt.c **** 
 754              		.loc 1 167 0 discriminator 1
 755 00cc 4FF0FF36 		mov	r6, #-1
 756 00d0 AEE7     		b	.L62
 757              	.LVL95:
 758              	.L61:
 195:C:/Users/lenovo/Desktop/liteos/Project2/BearPi_LiteOS/components/connectivity/agent_tiny/atiny_lwm2m\atiny_rpt.c **** 
 759              		.loc 1 195 0
 760 00d2 2020     		movs	r0, #32
 761              	.LVL96:
 762 00d4 FFF7FEFF 		bl	lwm2m_malloc
 763              	.LVL97:
 197:C:/Users/lenovo/Desktop/liteos/Project2/BearPi_LiteOS/components/connectivity/agent_tiny/atiny_lwm2m\atiny_rpt.c ****         {
 764              		.loc 1 197 0
 765 00d8 0546     		mov	r5, r0
 766 00da B8B1     		cbz	r0, .L74
 203:C:/Users/lenovo/Desktop/liteos/Project2/BearPi_LiteOS/components/connectivity/agent_tiny/atiny_lwm2m\atiny_rpt.c ****         atiny_list_init(&rpt_list->rpt_list);
 767              		.loc 1 203 0
 768 00dc 2022     		movs	r2, #32
 769 00de 0021     		movs	r1, #0
 770 00e0 FFF7FEFF 		bl	memset
 771              	.LVL98:
 204:C:/Users/lenovo/Desktop/liteos/Project2/BearPi_LiteOS/components/connectivity/agent_tiny/atiny_lwm2m\atiny_rpt.c ****         memcpy(&rpt_list->uri, uri, sizeof(rpt_list->uri));
 772              		.loc 1 204 0
 773 00e4 05F11003 		add	r3, r5, #16
 774              	.LVL99:
 775              	.LBB36:
 776              	.LBB37:
  69:C:/Users/lenovo/Desktop/liteos/Project2/BearPi_LiteOS/components/connectivity/agent_tiny/atiny_lwm2m\agent_list.h ****     list->prev = list;
 777              		.loc 2 69 0
 778 00e8 6B61     		str	r3, [r5, #20]
  70:C:/Users/lenovo/Desktop/liteos/Project2/BearPi_LiteOS/components/connectivity/agent_tiny/atiny_lwm2m\agent_list.h **** }
 779              		.loc 2 70 0
 780 00ea 2B61     		str	r3, [r5, #16]
 781              	.LVL100:
 782              	.LBE37:
 783              	.LBE36:
 205:C:/Users/lenovo/Desktop/liteos/Project2/BearPi_LiteOS/components/connectivity/agent_tiny/atiny_lwm2m\atiny_rpt.c ****         rpt_list->max_cnt = MAX_BUFFER_REPORT_CNT;
 784              		.loc 1 205 0
 785 00ec 3268     		ldr	r2, [r6]	@ unaligned
 786 00ee 7368     		ldr	r3, [r6, #4]	@ unaligned
 787 00f0 AA60     		str	r2, [r5, #8]	@ unaligned
 788 00f2 EB60     		str	r3, [r5, #12]	@ unaligned
 206:C:/Users/lenovo/Desktop/liteos/Project2/BearPi_LiteOS/components/connectivity/agent_tiny/atiny_lwm2m\atiny_rpt.c ****         atiny_list_insert_tail(&g_atiny_rpt_table, &rpt_list->node);
 789              		.loc 1 206 0
 790 00f4 0823     		movs	r3, #8
 791 00f6 EB61     		str	r3, [r5, #28]
 792              	.LVL101:
 793              	.LBB38:
 794              	.LBB39:
  85:C:/Users/lenovo/Desktop/liteos/Project2/BearPi_LiteOS/components/connectivity/agent_tiny/atiny_lwm2m\agent_list.h **** }
 795              		.loc 2 85 0
ARM GAS  c:\Users\lenovo\AppData\Local\Temp\ccE9ZvNF.s 			page 21


 796 00f8 184B     		ldr	r3, .L76+16
 797 00fa 1B68     		ldr	r3, [r3]
 798              	.LVL102:
 799              	.LBB40:
 800              	.LBB41:
  77:C:/Users/lenovo/Desktop/liteos/Project2/BearPi_LiteOS/components/connectivity/agent_tiny/atiny_lwm2m\agent_list.h ****     node->prev = list;
 801              		.loc 2 77 0
 802 00fc 5A68     		ldr	r2, [r3, #4]
 803 00fe 6A60     		str	r2, [r5, #4]
  78:C:/Users/lenovo/Desktop/liteos/Project2/BearPi_LiteOS/components/connectivity/agent_tiny/atiny_lwm2m\agent_list.h ****     list->next->prev = node;
 804              		.loc 2 78 0
 805 0100 2B60     		str	r3, [r5]
  79:C:/Users/lenovo/Desktop/liteos/Project2/BearPi_LiteOS/components/connectivity/agent_tiny/atiny_lwm2m\agent_list.h ****     list->next = node;
 806              		.loc 2 79 0
 807 0102 5A68     		ldr	r2, [r3, #4]
 808 0104 1560     		str	r5, [r2]
  80:C:/Users/lenovo/Desktop/liteos/Project2/BearPi_LiteOS/components/connectivity/agent_tiny/atiny_lwm2m\agent_list.h **** }
 809              		.loc 2 80 0
 810 0106 5D60     		str	r5, [r3, #4]
 811              	.LVL103:
 812              	.LBE41:
 813              	.LBE40:
 814              	.LBE39:
 815              	.LBE38:
 208:C:/Users/lenovo/Desktop/liteos/Project2/BearPi_LiteOS/components/connectivity/agent_tiny/atiny_lwm2m\atiny_rpt.c **** 
 816              		.loc 1 208 0
 817 0108 0026     		movs	r6, #0
 818              	.LVL104:
 819 010a 91E7     		b	.L62
 820              	.LVL105:
 821              	.L74:
 199:C:/Users/lenovo/Desktop/liteos/Project2/BearPi_LiteOS/components/connectivity/agent_tiny/atiny_lwm2m\atiny_rpt.c ****             break;
 822              		.loc 1 199 0
 823 010c FFF7FEFF 		bl	atiny_get_log_level
 824              	.LVL106:
 825 0110 0328     		cmp	r0, #3
 826 0112 02D9     		bls	.L75
 167:C:/Users/lenovo/Desktop/liteos/Project2/BearPi_LiteOS/components/connectivity/agent_tiny/atiny_lwm2m\atiny_rpt.c **** 
 827              		.loc 1 167 0
 828 0114 4FF0FF36 		mov	r6, #-1
 829              	.LVL107:
 830 0118 8AE7     		b	.L62
 831              	.LVL108:
 832              	.L75:
 199:C:/Users/lenovo/Desktop/liteos/Project2/BearPi_LiteOS/components/connectivity/agent_tiny/atiny_lwm2m\atiny_rpt.c ****             break;
 833              		.loc 1 199 0 discriminator 1
 834 011a 0320     		movs	r0, #3
 835 011c FFF7FEFF 		bl	atiny_get_log_level_name
 836              	.LVL109:
 837 0120 0746     		mov	r7, r0
 838 0122 FFF7FEFF 		bl	atiny_gettime_ms
 839              	.LVL110:
 840 0126 3378     		ldrb	r3, [r6]	@ zero_extendqisi2
 841 0128 7288     		ldrh	r2, [r6, #2]
 842 012a B188     		ldrh	r1, [r6, #4]
 843 012c F688     		ldrh	r6, [r6, #6]
 844              	.LVL111:
ARM GAS  c:\Users\lenovo\AppData\Local\Temp\ccE9ZvNF.s 			page 22


 845 012e 0496     		str	r6, [sp, #16]
 846 0130 0391     		str	r1, [sp, #12]
 847 0132 0292     		str	r2, [sp, #8]
 848 0134 0193     		str	r3, [sp, #4]
 849 0136 C723     		movs	r3, #199
 850 0138 0093     		str	r3, [sp]
 851 013a 054B     		ldr	r3, .L76+4
 852 013c 0246     		mov	r2, r0
 853 013e 3946     		mov	r1, r7
 854 0140 0748     		ldr	r0, .L76+20
 855 0142 FFF7FEFF 		bl	atiny_printf
 856              	.LVL112:
 167:C:/Users/lenovo/Desktop/liteos/Project2/BearPi_LiteOS/components/connectivity/agent_tiny/atiny_lwm2m\atiny_rpt.c **** 
 857              		.loc 1 167 0 discriminator 1
 858 0146 4FF0FF36 		mov	r6, #-1
 859 014a 71E7     		b	.L62
 860              	.L77:
 861              		.align	2
 862              	.L76:
 863 014c 00000000 		.word	.LANCHOR2
 864 0150 00000000 		.word	.LANCHOR4
 865 0154 00000000 		.word	.LC2
 866 0158 20000000 		.word	.LC3
 867 015c 00000000 		.word	.LANCHOR0
 868 0160 6C000000 		.word	.LC4
 869              		.cfi_endproc
 870              	.LFE151:
 872              		.section	.text.atiny_rm_rpt_uri,"ax",%progbits
 873              		.align	1
 874              		.global	atiny_rm_rpt_uri
 875              		.syntax unified
 876              		.thumb
 877              		.thumb_func
 878              		.fpu fpv4-sp-d16
 880              	atiny_rm_rpt_uri:
 881              	.LFB152:
 219:C:/Users/lenovo/Desktop/liteos/Project2/BearPi_LiteOS/components/connectivity/agent_tiny/atiny_lwm2m\atiny_rpt.c **** 
 220:C:/Users/lenovo/Desktop/liteos/Project2/BearPi_LiteOS/components/connectivity/agent_tiny/atiny_lwm2m\atiny_rpt.c **** int atiny_rm_rpt_uri(const lwm2m_uri_t *uri)
 221:C:/Users/lenovo/Desktop/liteos/Project2/BearPi_LiteOS/components/connectivity/agent_tiny/atiny_lwm2m\atiny_rpt.c **** {
 882              		.loc 1 221 0
 883              		.cfi_startproc
 884              		@ args = 0, pretend = 0, frame = 0
 885              		@ frame_needed = 0, uses_anonymous_args = 0
 886              	.LVL113:
 887 0000 30B5     		push	{r4, r5, lr}
 888              	.LCFI18:
 889              		.cfi_def_cfa_offset 12
 890              		.cfi_offset 4, -12
 891              		.cfi_offset 5, -8
 892              		.cfi_offset 14, -4
 893 0002 87B0     		sub	sp, sp, #28
 894              	.LCFI19:
 895              		.cfi_def_cfa_offset 40
 896              	.LVL114:
 222:C:/Users/lenovo/Desktop/liteos/Project2/BearPi_LiteOS/components/connectivity/agent_tiny/atiny_lwm2m\atiny_rpt.c **** 
 223:C:/Users/lenovo/Desktop/liteos/Project2/BearPi_LiteOS/components/connectivity/agent_tiny/atiny_lwm2m\atiny_rpt.c ****     int ret = ATINY_ARG_INVALID;
 224:C:/Users/lenovo/Desktop/liteos/Project2/BearPi_LiteOS/components/connectivity/agent_tiny/atiny_lwm2m\atiny_rpt.c **** 
ARM GAS  c:\Users\lenovo\AppData\Local\Temp\ccE9ZvNF.s 			page 23


 225:C:/Users/lenovo/Desktop/liteos/Project2/BearPi_LiteOS/components/connectivity/agent_tiny/atiny_lwm2m\atiny_rpt.c ****     if (NULL == uri)
 897              		.loc 1 225 0
 898 0004 08B3     		cbz	r0, .L86
 899 0006 0446     		mov	r4, r0
 226:C:/Users/lenovo/Desktop/liteos/Project2/BearPi_LiteOS/components/connectivity/agent_tiny/atiny_lwm2m\atiny_rpt.c ****     {
 227:C:/Users/lenovo/Desktop/liteos/Project2/BearPi_LiteOS/components/connectivity/agent_tiny/atiny_lwm2m\atiny_rpt.c ****         ATINY_LOG(LOG_ERR, "null point");
 228:C:/Users/lenovo/Desktop/liteos/Project2/BearPi_LiteOS/components/connectivity/agent_tiny/atiny_lwm2m\atiny_rpt.c ****         return ATINY_ARG_INVALID;
 229:C:/Users/lenovo/Desktop/liteos/Project2/BearPi_LiteOS/components/connectivity/agent_tiny/atiny_lwm2m\atiny_rpt.c ****     }
 230:C:/Users/lenovo/Desktop/liteos/Project2/BearPi_LiteOS/components/connectivity/agent_tiny/atiny_lwm2m\atiny_rpt.c **** 
 231:C:/Users/lenovo/Desktop/liteos/Project2/BearPi_LiteOS/components/connectivity/agent_tiny/atiny_lwm2m\atiny_rpt.c ****     atiny_mutex_lock(g_mutex);
 900              		.loc 1 231 0
 901 0008 2C4B     		ldr	r3, .L90
 902 000a 1868     		ldr	r0, [r3]
 903              	.LVL115:
 904 000c FFF7FEFF 		bl	atiny_mutex_lock
 905              	.LVL116:
 906              	.LBB42:
 232:C:/Users/lenovo/Desktop/liteos/Project2/BearPi_LiteOS/components/connectivity/agent_tiny/atiny_lwm2m\atiny_rpt.c **** 
 233:C:/Users/lenovo/Desktop/liteos/Project2/BearPi_LiteOS/components/connectivity/agent_tiny/atiny_lwm2m\atiny_rpt.c ****     do
 234:C:/Users/lenovo/Desktop/liteos/Project2/BearPi_LiteOS/components/connectivity/agent_tiny/atiny_lwm2m\atiny_rpt.c ****     {
 235:C:/Users/lenovo/Desktop/liteos/Project2/BearPi_LiteOS/components/connectivity/agent_tiny/atiny_lwm2m\atiny_rpt.c ****         atiny_rpt_list_t *rpt_list  = NULL;
 236:C:/Users/lenovo/Desktop/liteos/Project2/BearPi_LiteOS/components/connectivity/agent_tiny/atiny_lwm2m\atiny_rpt.c ****         rpt_list = atiny_find_rpt_list(uri);
 907              		.loc 1 236 0
 908 0010 2046     		mov	r0, r4
 909 0012 FFF7FEFF 		bl	atiny_find_rpt_list
 910              	.LVL117:
 237:C:/Users/lenovo/Desktop/liteos/Project2/BearPi_LiteOS/components/connectivity/agent_tiny/atiny_lwm2m\atiny_rpt.c **** 
 238:C:/Users/lenovo/Desktop/liteos/Project2/BearPi_LiteOS/components/connectivity/agent_tiny/atiny_lwm2m\atiny_rpt.c ****         if (NULL == rpt_list)
 911              		.loc 1 238 0
 912 0016 0546     		mov	r5, r0
 913 0018 78B3     		cbz	r0, .L87
 914              	.LVL118:
 915              	.LBB43:
 916              	.LBB44:
  95:C:/Users/lenovo/Desktop/liteos/Project2/BearPi_LiteOS/components/connectivity/agent_tiny/atiny_lwm2m\agent_list.h ****     node->prev->next = node->next;
 917              		.loc 2 95 0
 918 001a 4368     		ldr	r3, [r0, #4]
 919 001c 0268     		ldr	r2, [r0]
 920 001e 1A60     		str	r2, [r3]
  96:C:/Users/lenovo/Desktop/liteos/Project2/BearPi_LiteOS/components/connectivity/agent_tiny/atiny_lwm2m\agent_list.h ****     node->next = (atiny_dl_list *)NULL;
 921              		.loc 2 96 0
 922 0020 0368     		ldr	r3, [r0]
 923 0022 4268     		ldr	r2, [r0, #4]
 924 0024 5A60     		str	r2, [r3, #4]
  97:C:/Users/lenovo/Desktop/liteos/Project2/BearPi_LiteOS/components/connectivity/agent_tiny/atiny_lwm2m\agent_list.h ****     node->prev = (atiny_dl_list *)NULL;
 925              		.loc 2 97 0
 926 0026 0024     		movs	r4, #0
 927              	.LVL119:
 928 0028 4460     		str	r4, [r0, #4]
  98:C:/Users/lenovo/Desktop/liteos/Project2/BearPi_LiteOS/components/connectivity/agent_tiny/atiny_lwm2m\agent_list.h **** }
 929              		.loc 2 98 0
 930 002a 40F8104B 		str	r4, [r0], #16
 931              	.LVL120:
 932              	.LBE44:
 933              	.LBE43:
 239:C:/Users/lenovo/Desktop/liteos/Project2/BearPi_LiteOS/components/connectivity/agent_tiny/atiny_lwm2m\atiny_rpt.c ****         {
 240:C:/Users/lenovo/Desktop/liteos/Project2/BearPi_LiteOS/components/connectivity/agent_tiny/atiny_lwm2m\atiny_rpt.c ****             ATINY_LOG(LOG_ERR, "uri not exit," URI_FORMAT, URI_LOG_PARAM(uri));
ARM GAS  c:\Users\lenovo\AppData\Local\Temp\ccE9ZvNF.s 			page 24


 241:C:/Users/lenovo/Desktop/liteos/Project2/BearPi_LiteOS/components/connectivity/agent_tiny/atiny_lwm2m\atiny_rpt.c ****             break;
 242:C:/Users/lenovo/Desktop/liteos/Project2/BearPi_LiteOS/components/connectivity/agent_tiny/atiny_lwm2m\atiny_rpt.c ****         }
 243:C:/Users/lenovo/Desktop/liteos/Project2/BearPi_LiteOS/components/connectivity/agent_tiny/atiny_lwm2m\atiny_rpt.c **** 
 244:C:/Users/lenovo/Desktop/liteos/Project2/BearPi_LiteOS/components/connectivity/agent_tiny/atiny_lwm2m\atiny_rpt.c ****         atiny_list_delete(&rpt_list->node);
 245:C:/Users/lenovo/Desktop/liteos/Project2/BearPi_LiteOS/components/connectivity/agent_tiny/atiny_lwm2m\atiny_rpt.c ****         atiny_free_list(&rpt_list->rpt_list, atiny_clear_rpt_list_node_data,  (void *)NOT_SENT);
 934              		.loc 1 245 0
 935 002e 2246     		mov	r2, r4
 936 0030 2349     		ldr	r1, .L90+4
 937 0032 FFF7FEFF 		bl	atiny_free_list
 938              	.LVL121:
 246:C:/Users/lenovo/Desktop/liteos/Project2/BearPi_LiteOS/components/connectivity/agent_tiny/atiny_lwm2m\atiny_rpt.c ****         lwm2m_free(rpt_list);
 939              		.loc 1 246 0
 940 0036 2846     		mov	r0, r5
 941 0038 FFF7FEFF 		bl	lwm2m_free
 942              	.LVL122:
 943              	.L82:
 944              	.LBE42:
 247:C:/Users/lenovo/Desktop/liteos/Project2/BearPi_LiteOS/components/connectivity/agent_tiny/atiny_lwm2m\atiny_rpt.c **** 
 248:C:/Users/lenovo/Desktop/liteos/Project2/BearPi_LiteOS/components/connectivity/agent_tiny/atiny_lwm2m\atiny_rpt.c ****         ret = ATINY_OK;
 249:C:/Users/lenovo/Desktop/liteos/Project2/BearPi_LiteOS/components/connectivity/agent_tiny/atiny_lwm2m\atiny_rpt.c ****     }
 250:C:/Users/lenovo/Desktop/liteos/Project2/BearPi_LiteOS/components/connectivity/agent_tiny/atiny_lwm2m\atiny_rpt.c ****     while (0);
 251:C:/Users/lenovo/Desktop/liteos/Project2/BearPi_LiteOS/components/connectivity/agent_tiny/atiny_lwm2m\atiny_rpt.c **** 
 252:C:/Users/lenovo/Desktop/liteos/Project2/BearPi_LiteOS/components/connectivity/agent_tiny/atiny_lwm2m\atiny_rpt.c ****     atiny_mutex_unlock(g_mutex);
 945              		.loc 1 252 0
 946 003c 1F4B     		ldr	r3, .L90
 947 003e 1868     		ldr	r0, [r3]
 948 0040 FFF7FEFF 		bl	atiny_mutex_unlock
 949              	.LVL123:
 950              	.L78:
 253:C:/Users/lenovo/Desktop/liteos/Project2/BearPi_LiteOS/components/connectivity/agent_tiny/atiny_lwm2m\atiny_rpt.c **** 
 254:C:/Users/lenovo/Desktop/liteos/Project2/BearPi_LiteOS/components/connectivity/agent_tiny/atiny_lwm2m\atiny_rpt.c ****     return ret;
 255:C:/Users/lenovo/Desktop/liteos/Project2/BearPi_LiteOS/components/connectivity/agent_tiny/atiny_lwm2m\atiny_rpt.c **** }
 951              		.loc 1 255 0
 952 0044 2046     		mov	r0, r4
 953 0046 07B0     		add	sp, sp, #28
 954              	.LCFI20:
 955              		.cfi_remember_state
 956              		.cfi_def_cfa_offset 12
 957              		@ sp needed
 958 0048 30BD     		pop	{r4, r5, pc}
 959              	.LVL124:
 960              	.L86:
 961              	.LCFI21:
 962              		.cfi_restore_state
 227:C:/Users/lenovo/Desktop/liteos/Project2/BearPi_LiteOS/components/connectivity/agent_tiny/atiny_lwm2m\atiny_rpt.c ****         return ATINY_ARG_INVALID;
 963              		.loc 1 227 0
 964 004a FFF7FEFF 		bl	atiny_get_log_level
 965              	.LVL125:
 966 004e 0328     		cmp	r0, #3
 967 0050 02D9     		bls	.L88
 228:C:/Users/lenovo/Desktop/liteos/Project2/BearPi_LiteOS/components/connectivity/agent_tiny/atiny_lwm2m\atiny_rpt.c ****     }
 968              		.loc 1 228 0
 969 0052 4FF0FF34 		mov	r4, #-1
 970 0056 F5E7     		b	.L78
 971              	.L88:
 227:C:/Users/lenovo/Desktop/liteos/Project2/BearPi_LiteOS/components/connectivity/agent_tiny/atiny_lwm2m\atiny_rpt.c ****         return ATINY_ARG_INVALID;
 972              		.loc 1 227 0 discriminator 1
ARM GAS  c:\Users\lenovo\AppData\Local\Temp\ccE9ZvNF.s 			page 25


 973 0058 0320     		movs	r0, #3
 974 005a FFF7FEFF 		bl	atiny_get_log_level_name
 975              	.LVL126:
 976 005e 0446     		mov	r4, r0
 977 0060 FFF7FEFF 		bl	atiny_gettime_ms
 978              	.LVL127:
 979 0064 E323     		movs	r3, #227
 980 0066 0093     		str	r3, [sp]
 981 0068 164B     		ldr	r3, .L90+8
 982 006a 0246     		mov	r2, r0
 983 006c 2146     		mov	r1, r4
 984 006e 1648     		ldr	r0, .L90+12
 985 0070 FFF7FEFF 		bl	atiny_printf
 986              	.LVL128:
 228:C:/Users/lenovo/Desktop/liteos/Project2/BearPi_LiteOS/components/connectivity/agent_tiny/atiny_lwm2m\atiny_rpt.c ****     }
 987              		.loc 1 228 0 discriminator 1
 988 0074 4FF0FF34 		mov	r4, #-1
 989 0078 E4E7     		b	.L78
 990              	.LVL129:
 991              	.L87:
 992              	.LBB45:
 240:C:/Users/lenovo/Desktop/liteos/Project2/BearPi_LiteOS/components/connectivity/agent_tiny/atiny_lwm2m\atiny_rpt.c ****             break;
 993              		.loc 1 240 0
 994 007a FFF7FEFF 		bl	atiny_get_log_level
 995              	.LVL130:
 996 007e 0328     		cmp	r0, #3
 997 0080 02D9     		bls	.L89
 998              	.LBE45:
 223:C:/Users/lenovo/Desktop/liteos/Project2/BearPi_LiteOS/components/connectivity/agent_tiny/atiny_lwm2m\atiny_rpt.c **** 
 999              		.loc 1 223 0
 1000 0082 4FF0FF34 		mov	r4, #-1
 1001              	.LVL131:
 1002 0086 D9E7     		b	.L82
 1003              	.LVL132:
 1004              	.L89:
 1005              	.LBB46:
 240:C:/Users/lenovo/Desktop/liteos/Project2/BearPi_LiteOS/components/connectivity/agent_tiny/atiny_lwm2m\atiny_rpt.c ****             break;
 1006              		.loc 1 240 0 discriminator 1
 1007 0088 0320     		movs	r0, #3
 1008 008a FFF7FEFF 		bl	atiny_get_log_level_name
 1009              	.LVL133:
 1010 008e 0546     		mov	r5, r0
 1011              	.LVL134:
 1012 0090 FFF7FEFF 		bl	atiny_gettime_ms
 1013              	.LVL135:
 1014 0094 2378     		ldrb	r3, [r4]	@ zero_extendqisi2
 1015 0096 6288     		ldrh	r2, [r4, #2]
 1016 0098 A188     		ldrh	r1, [r4, #4]
 1017 009a E488     		ldrh	r4, [r4, #6]
 1018              	.LVL136:
 1019 009c 0494     		str	r4, [sp, #16]
 1020 009e 0391     		str	r1, [sp, #12]
 1021 00a0 0292     		str	r2, [sp, #8]
 1022 00a2 0193     		str	r3, [sp, #4]
 1023 00a4 F023     		movs	r3, #240
 1024 00a6 0093     		str	r3, [sp]
 1025 00a8 064B     		ldr	r3, .L90+8
ARM GAS  c:\Users\lenovo\AppData\Local\Temp\ccE9ZvNF.s 			page 26


 1026 00aa 0246     		mov	r2, r0
 1027 00ac 2946     		mov	r1, r5
 1028 00ae 0748     		ldr	r0, .L90+16
 1029 00b0 FFF7FEFF 		bl	atiny_printf
 1030              	.LVL137:
 1031              	.LBE46:
 223:C:/Users/lenovo/Desktop/liteos/Project2/BearPi_LiteOS/components/connectivity/agent_tiny/atiny_lwm2m\atiny_rpt.c **** 
 1032              		.loc 1 223 0 discriminator 1
 1033 00b4 4FF0FF34 		mov	r4, #-1
 1034 00b8 C0E7     		b	.L82
 1035              	.L91:
 1036 00ba 00BF     		.align	2
 1037              	.L90:
 1038 00bc 00000000 		.word	.LANCHOR2
 1039 00c0 00000000 		.word	atiny_clear_rpt_list_node_data
 1040 00c4 00000000 		.word	.LANCHOR5
 1041 00c8 00000000 		.word	.LC2
 1042 00cc 00000000 		.word	.LC5
 1043              		.cfi_endproc
 1044              	.LFE152:
 1046              		.section	.text.atiny_dequeue_rpt_data,"ax",%progbits
 1047              		.align	1
 1048              		.global	atiny_dequeue_rpt_data
 1049              		.syntax unified
 1050              		.thumb
 1051              		.thumb_func
 1052              		.fpu fpv4-sp-d16
 1054              	atiny_dequeue_rpt_data:
 1055              	.LFB153:
 256:C:/Users/lenovo/Desktop/liteos/Project2/BearPi_LiteOS/components/connectivity/agent_tiny/atiny_lwm2m\atiny_rpt.c **** 
 257:C:/Users/lenovo/Desktop/liteos/Project2/BearPi_LiteOS/components/connectivity/agent_tiny/atiny_lwm2m\atiny_rpt.c **** int atiny_dequeue_rpt_data(rpt_list_t rpt_list,  data_report_t *data)
 258:C:/Users/lenovo/Desktop/liteos/Project2/BearPi_LiteOS/components/connectivity/agent_tiny/atiny_lwm2m\atiny_rpt.c **** {
 1056              		.loc 1 258 0
 1057              		.cfi_startproc
 1058              		@ args = 0, pretend = 0, frame = 0
 1059              		@ frame_needed = 0, uses_anonymous_args = 0
 1060              	.LVL138:
 1061 0000 F0B5     		push	{r4, r5, r6, r7, lr}
 1062              	.LCFI22:
 1063              		.cfi_def_cfa_offset 20
 1064              		.cfi_offset 4, -20
 1065              		.cfi_offset 5, -16
 1066              		.cfi_offset 6, -12
 1067              		.cfi_offset 7, -8
 1068              		.cfi_offset 14, -4
 1069 0002 83B0     		sub	sp, sp, #12
 1070              	.LCFI23:
 1071              		.cfi_def_cfa_offset 32
 1072              	.LVL139:
 259:C:/Users/lenovo/Desktop/liteos/Project2/BearPi_LiteOS/components/connectivity/agent_tiny/atiny_lwm2m\atiny_rpt.c ****     int ret = ATINY_RESOURCE_NOT_FOUND;
 260:C:/Users/lenovo/Desktop/liteos/Project2/BearPi_LiteOS/components/connectivity/agent_tiny/atiny_lwm2m\atiny_rpt.c **** 
 261:C:/Users/lenovo/Desktop/liteos/Project2/BearPi_LiteOS/components/connectivity/agent_tiny/atiny_lwm2m\atiny_rpt.c ****     if (NULL == rpt_list || (NULL == data))
 1073              		.loc 1 261 0
 1074 0004 60B3     		cbz	r0, .L93
 1075 0006 0C46     		mov	r4, r1
 1076 0008 0646     		mov	r6, r0
 1077              		.loc 1 261 0 is_stmt 0 discriminator 1
ARM GAS  c:\Users\lenovo\AppData\Local\Temp\ccE9ZvNF.s 			page 27


 1078 000a 49B3     		cbz	r1, .L93
 262:C:/Users/lenovo/Desktop/liteos/Project2/BearPi_LiteOS/components/connectivity/agent_tiny/atiny_lwm2m\atiny_rpt.c ****     {
 263:C:/Users/lenovo/Desktop/liteos/Project2/BearPi_LiteOS/components/connectivity/agent_tiny/atiny_lwm2m\atiny_rpt.c ****         ATINY_LOG(LOG_ERR, "null point");
 264:C:/Users/lenovo/Desktop/liteos/Project2/BearPi_LiteOS/components/connectivity/agent_tiny/atiny_lwm2m\atiny_rpt.c ****         return ATINY_ARG_INVALID;
 265:C:/Users/lenovo/Desktop/liteos/Project2/BearPi_LiteOS/components/connectivity/agent_tiny/atiny_lwm2m\atiny_rpt.c ****     }
 266:C:/Users/lenovo/Desktop/liteos/Project2/BearPi_LiteOS/components/connectivity/agent_tiny/atiny_lwm2m\atiny_rpt.c **** 
 267:C:/Users/lenovo/Desktop/liteos/Project2/BearPi_LiteOS/components/connectivity/agent_tiny/atiny_lwm2m\atiny_rpt.c ****     atiny_mutex_lock(g_mutex);
 1079              		.loc 1 267 0 is_stmt 1
 1080 000c 2D4B     		ldr	r3, .L104
 1081 000e 1868     		ldr	r0, [r3]
 1082              	.LVL140:
 1083 0010 FFF7FEFF 		bl	atiny_mutex_lock
 1084              	.LVL141:
 1085              	.LBB47:
 268:C:/Users/lenovo/Desktop/liteos/Project2/BearPi_LiteOS/components/connectivity/agent_tiny/atiny_lwm2m\atiny_rpt.c **** 
 269:C:/Users/lenovo/Desktop/liteos/Project2/BearPi_LiteOS/components/connectivity/agent_tiny/atiny_lwm2m\atiny_rpt.c ****     do
 270:C:/Users/lenovo/Desktop/liteos/Project2/BearPi_LiteOS/components/connectivity/agent_tiny/atiny_lwm2m\atiny_rpt.c ****     {
 271:C:/Users/lenovo/Desktop/liteos/Project2/BearPi_LiteOS/components/connectivity/agent_tiny/atiny_lwm2m\atiny_rpt.c ****         atiny_rpt_node_t *data_node;
 272:C:/Users/lenovo/Desktop/liteos/Project2/BearPi_LiteOS/components/connectivity/agent_tiny/atiny_lwm2m\atiny_rpt.c **** 
 273:C:/Users/lenovo/Desktop/liteos/Project2/BearPi_LiteOS/components/connectivity/agent_tiny/atiny_lwm2m\atiny_rpt.c ****         if (atiny_list_empty(&rpt_list->rpt_list))
 1086              		.loc 1 273 0
 1087 0014 06F11003 		add	r3, r6, #16
 1088              	.LBB48:
 1089              	.LBB49:
 1090              		.loc 2 103 0
 1091 0018 7069     		ldr	r0, [r6, #20]
 1092              	.LBE49:
 1093              	.LBE48:
 1094              		.loc 1 273 0
 1095 001a 8342     		cmp	r3, r0
 1096 001c 39D0     		beq	.L101
 1097              	.LVL142:
 1098              	.LBB50:
 1099              	.LBB51:
  95:C:/Users/lenovo/Desktop/liteos/Project2/BearPi_LiteOS/components/connectivity/agent_tiny/atiny_lwm2m\agent_list.h ****     node->prev->next = node->next;
 1100              		.loc 2 95 0
 1101 001e 4368     		ldr	r3, [r0, #4]
 1102 0020 0268     		ldr	r2, [r0]
 1103 0022 1A60     		str	r2, [r3]
  96:C:/Users/lenovo/Desktop/liteos/Project2/BearPi_LiteOS/components/connectivity/agent_tiny/atiny_lwm2m\agent_list.h ****     node->next = (atiny_dl_list *)NULL;
 1104              		.loc 2 96 0
 1105 0024 0368     		ldr	r3, [r0]
 1106 0026 4268     		ldr	r2, [r0, #4]
 1107 0028 5A60     		str	r2, [r3, #4]
  97:C:/Users/lenovo/Desktop/liteos/Project2/BearPi_LiteOS/components/connectivity/agent_tiny/atiny_lwm2m\agent_list.h ****     node->prev = (atiny_dl_list *)NULL;
 1108              		.loc 2 97 0
 1109 002a 0025     		movs	r5, #0
 1110 002c 4560     		str	r5, [r0, #4]
  98:C:/Users/lenovo/Desktop/liteos/Project2/BearPi_LiteOS/components/connectivity/agent_tiny/atiny_lwm2m\agent_list.h **** }
 1111              		.loc 2 98 0
 1112 002e 0560     		str	r5, [r0]
 1113              	.LVL143:
 1114              	.LBE51:
 1115              	.LBE50:
 274:C:/Users/lenovo/Desktop/liteos/Project2/BearPi_LiteOS/components/connectivity/agent_tiny/atiny_lwm2m\atiny_rpt.c ****         {
 275:C:/Users/lenovo/Desktop/liteos/Project2/BearPi_LiteOS/components/connectivity/agent_tiny/atiny_lwm2m\atiny_rpt.c **** 
 276:C:/Users/lenovo/Desktop/liteos/Project2/BearPi_LiteOS/components/connectivity/agent_tiny/atiny_lwm2m\atiny_rpt.c ****             ATINY_LOG(LOG_INFO, "dequeue empty rpt list");
ARM GAS  c:\Users\lenovo\AppData\Local\Temp\ccE9ZvNF.s 			page 28


 277:C:/Users/lenovo/Desktop/liteos/Project2/BearPi_LiteOS/components/connectivity/agent_tiny/atiny_lwm2m\atiny_rpt.c ****             break;
 278:C:/Users/lenovo/Desktop/liteos/Project2/BearPi_LiteOS/components/connectivity/agent_tiny/atiny_lwm2m\atiny_rpt.c ****         }
 279:C:/Users/lenovo/Desktop/liteos/Project2/BearPi_LiteOS/components/connectivity/agent_tiny/atiny_lwm2m\atiny_rpt.c **** 
 280:C:/Users/lenovo/Desktop/liteos/Project2/BearPi_LiteOS/components/connectivity/agent_tiny/atiny_lwm2m\atiny_rpt.c ****         data_node = (atiny_rpt_node_t *)rpt_list->rpt_list.next;
 281:C:/Users/lenovo/Desktop/liteos/Project2/BearPi_LiteOS/components/connectivity/agent_tiny/atiny_lwm2m\atiny_rpt.c ****         atiny_list_delete(&data_node->list);
 282:C:/Users/lenovo/Desktop/liteos/Project2/BearPi_LiteOS/components/connectivity/agent_tiny/atiny_lwm2m\atiny_rpt.c ****         rpt_list->rpt_node_cnt--;
 1116              		.loc 1 282 0
 1117 0030 B369     		ldr	r3, [r6, #24]
 1118 0032 013B     		subs	r3, r3, #1
 1119 0034 B361     		str	r3, [r6, #24]
 283:C:/Users/lenovo/Desktop/liteos/Project2/BearPi_LiteOS/components/connectivity/agent_tiny/atiny_lwm2m\atiny_rpt.c **** 
 284:C:/Users/lenovo/Desktop/liteos/Project2/BearPi_LiteOS/components/connectivity/agent_tiny/atiny_lwm2m\atiny_rpt.c ****         memcpy((void *)data, (void *)&data_node->data, sizeof(*data));
 1120              		.loc 1 284 0
 1121 0036 0346     		mov	r3, r0
 1122 0038 53F8082F 		ldr	r2, [r3, #8]!	@ unaligned
 1123 003c 5F68     		ldr	r7, [r3, #4]	@ unaligned
 1124 003e 9E68     		ldr	r6, [r3, #8]	@ unaligned
 1125              	.LVL144:
 1126 0040 D968     		ldr	r1, [r3, #12]	@ unaligned
 1127 0042 2260     		str	r2, [r4]	@ unaligned
 1128 0044 6760     		str	r7, [r4, #4]	@ unaligned
 1129 0046 A660     		str	r6, [r4, #8]	@ unaligned
 1130 0048 E160     		str	r1, [r4, #12]	@ unaligned
 1131 004a 1A69     		ldr	r2, [r3, #16]	@ unaligned
 1132 004c 2261     		str	r2, [r4, #16]	@ unaligned
 285:C:/Users/lenovo/Desktop/liteos/Project2/BearPi_LiteOS/components/connectivity/agent_tiny/atiny_lwm2m\atiny_rpt.c ****         lwm2m_free(data_node);
 1133              		.loc 1 285 0
 1134 004e FFF7FEFF 		bl	lwm2m_free
 1135              	.LVL145:
 1136              	.L97:
 1137              	.LBE47:
 286:C:/Users/lenovo/Desktop/liteos/Project2/BearPi_LiteOS/components/connectivity/agent_tiny/atiny_lwm2m\atiny_rpt.c **** 
 287:C:/Users/lenovo/Desktop/liteos/Project2/BearPi_LiteOS/components/connectivity/agent_tiny/atiny_lwm2m\atiny_rpt.c ****         ret = ATINY_OK;
 288:C:/Users/lenovo/Desktop/liteos/Project2/BearPi_LiteOS/components/connectivity/agent_tiny/atiny_lwm2m\atiny_rpt.c ****     }
 289:C:/Users/lenovo/Desktop/liteos/Project2/BearPi_LiteOS/components/connectivity/agent_tiny/atiny_lwm2m\atiny_rpt.c ****     while (0);
 290:C:/Users/lenovo/Desktop/liteos/Project2/BearPi_LiteOS/components/connectivity/agent_tiny/atiny_lwm2m\atiny_rpt.c **** 
 291:C:/Users/lenovo/Desktop/liteos/Project2/BearPi_LiteOS/components/connectivity/agent_tiny/atiny_lwm2m\atiny_rpt.c ****     atiny_mutex_unlock(g_mutex);
 1138              		.loc 1 291 0
 1139 0052 1C4B     		ldr	r3, .L104
 1140 0054 1868     		ldr	r0, [r3]
 1141 0056 FFF7FEFF 		bl	atiny_mutex_unlock
 1142              	.LVL146:
 1143              	.L92:
 292:C:/Users/lenovo/Desktop/liteos/Project2/BearPi_LiteOS/components/connectivity/agent_tiny/atiny_lwm2m\atiny_rpt.c **** 
 293:C:/Users/lenovo/Desktop/liteos/Project2/BearPi_LiteOS/components/connectivity/agent_tiny/atiny_lwm2m\atiny_rpt.c ****     return ret;
 294:C:/Users/lenovo/Desktop/liteos/Project2/BearPi_LiteOS/components/connectivity/agent_tiny/atiny_lwm2m\atiny_rpt.c **** }
 1144              		.loc 1 294 0
 1145 005a 2846     		mov	r0, r5
 1146 005c 03B0     		add	sp, sp, #12
 1147              	.LCFI24:
 1148              		.cfi_remember_state
 1149              		.cfi_def_cfa_offset 20
 1150              		@ sp needed
 1151 005e F0BD     		pop	{r4, r5, r6, r7, pc}
 1152              	.LVL147:
 1153              	.L93:
 1154              	.LCFI25:
ARM GAS  c:\Users\lenovo\AppData\Local\Temp\ccE9ZvNF.s 			page 29


 1155              		.cfi_restore_state
 263:C:/Users/lenovo/Desktop/liteos/Project2/BearPi_LiteOS/components/connectivity/agent_tiny/atiny_lwm2m\atiny_rpt.c ****         return ATINY_ARG_INVALID;
 1156              		.loc 1 263 0
 1157 0060 FFF7FEFF 		bl	atiny_get_log_level
 1158              	.LVL148:
 1159 0064 0328     		cmp	r0, #3
 1160 0066 02D9     		bls	.L102
 264:C:/Users/lenovo/Desktop/liteos/Project2/BearPi_LiteOS/components/connectivity/agent_tiny/atiny_lwm2m\atiny_rpt.c ****     }
 1161              		.loc 1 264 0
 1162 0068 4FF0FF35 		mov	r5, #-1
 1163 006c F5E7     		b	.L92
 1164              	.L102:
 263:C:/Users/lenovo/Desktop/liteos/Project2/BearPi_LiteOS/components/connectivity/agent_tiny/atiny_lwm2m\atiny_rpt.c ****         return ATINY_ARG_INVALID;
 1165              		.loc 1 263 0 discriminator 1
 1166 006e 0320     		movs	r0, #3
 1167 0070 FFF7FEFF 		bl	atiny_get_log_level_name
 1168              	.LVL149:
 1169 0074 0446     		mov	r4, r0
 1170 0076 FFF7FEFF 		bl	atiny_gettime_ms
 1171              	.LVL150:
 1172 007a 40F20713 		movw	r3, #263
 1173 007e 0093     		str	r3, [sp]
 1174 0080 114B     		ldr	r3, .L104+4
 1175 0082 0246     		mov	r2, r0
 1176 0084 2146     		mov	r1, r4
 1177 0086 1148     		ldr	r0, .L104+8
 1178 0088 FFF7FEFF 		bl	atiny_printf
 1179              	.LVL151:
 264:C:/Users/lenovo/Desktop/liteos/Project2/BearPi_LiteOS/components/connectivity/agent_tiny/atiny_lwm2m\atiny_rpt.c ****     }
 1180              		.loc 1 264 0 discriminator 1
 1181 008c 4FF0FF35 		mov	r5, #-1
 1182 0090 E3E7     		b	.L92
 1183              	.LVL152:
 1184              	.L101:
 1185              	.LBB52:
 276:C:/Users/lenovo/Desktop/liteos/Project2/BearPi_LiteOS/components/connectivity/agent_tiny/atiny_lwm2m\atiny_rpt.c ****             break;
 1186              		.loc 1 276 0
 1187 0092 FFF7FEFF 		bl	atiny_get_log_level
 1188              	.LVL153:
 1189 0096 0128     		cmp	r0, #1
 1190 0098 02D9     		bls	.L103
 1191              	.LBE52:
 259:C:/Users/lenovo/Desktop/liteos/Project2/BearPi_LiteOS/components/connectivity/agent_tiny/atiny_lwm2m\atiny_rpt.c **** 
 1192              		.loc 1 259 0
 1193 009a 6FF00405 		mvn	r5, #4
 1194 009e D8E7     		b	.L97
 1195              	.L103:
 1196              	.LBB53:
 276:C:/Users/lenovo/Desktop/liteos/Project2/BearPi_LiteOS/components/connectivity/agent_tiny/atiny_lwm2m\atiny_rpt.c ****             break;
 1197              		.loc 1 276 0 discriminator 1
 1198 00a0 0120     		movs	r0, #1
 1199 00a2 FFF7FEFF 		bl	atiny_get_log_level_name
 1200              	.LVL154:
 1201 00a6 0446     		mov	r4, r0
 1202              	.LVL155:
 1203 00a8 FFF7FEFF 		bl	atiny_gettime_ms
 1204              	.LVL156:
ARM GAS  c:\Users\lenovo\AppData\Local\Temp\ccE9ZvNF.s 			page 30


 1205 00ac 4FF48A73 		mov	r3, #276
 1206 00b0 0093     		str	r3, [sp]
 1207 00b2 054B     		ldr	r3, .L104+4
 1208 00b4 0246     		mov	r2, r0
 1209 00b6 2146     		mov	r1, r4
 1210 00b8 0548     		ldr	r0, .L104+12
 1211 00ba FFF7FEFF 		bl	atiny_printf
 1212              	.LVL157:
 1213              	.LBE53:
 259:C:/Users/lenovo/Desktop/liteos/Project2/BearPi_LiteOS/components/connectivity/agent_tiny/atiny_lwm2m\atiny_rpt.c **** 
 1214              		.loc 1 259 0 discriminator 1
 1215 00be 6FF00405 		mvn	r5, #4
 1216 00c2 C6E7     		b	.L97
 1217              	.L105:
 1218              		.align	2
 1219              	.L104:
 1220 00c4 00000000 		.word	.LANCHOR2
 1221 00c8 00000000 		.word	.LANCHOR6
 1222 00cc 00000000 		.word	.LC2
 1223 00d0 00000000 		.word	.LC6
 1224              		.cfi_endproc
 1225              	.LFE153:
 1227              		.section	.text.atiny_queue_rpt_data,"ax",%progbits
 1228              		.align	1
 1229              		.global	atiny_queue_rpt_data
 1230              		.syntax unified
 1231              		.thumb
 1232              		.thumb_func
 1233              		.fpu fpv4-sp-d16
 1235              	atiny_queue_rpt_data:
 1236              	.LFB154:
 295:C:/Users/lenovo/Desktop/liteos/Project2/BearPi_LiteOS/components/connectivity/agent_tiny/atiny_lwm2m\atiny_rpt.c **** 
 296:C:/Users/lenovo/Desktop/liteos/Project2/BearPi_LiteOS/components/connectivity/agent_tiny/atiny_lwm2m\atiny_rpt.c **** int atiny_queue_rpt_data(const lwm2m_uri_t *uri, const data_report_t *data)
 297:C:/Users/lenovo/Desktop/liteos/Project2/BearPi_LiteOS/components/connectivity/agent_tiny/atiny_lwm2m\atiny_rpt.c **** {
 1237              		.loc 1 297 0
 1238              		.cfi_startproc
 1239              		@ args = 0, pretend = 0, frame = 0
 1240              		@ frame_needed = 0, uses_anonymous_args = 0
 1241              	.LVL158:
 1242 0000 F0B5     		push	{r4, r5, r6, r7, lr}
 1243              	.LCFI26:
 1244              		.cfi_def_cfa_offset 20
 1245              		.cfi_offset 4, -20
 1246              		.cfi_offset 5, -16
 1247              		.cfi_offset 6, -12
 1248              		.cfi_offset 7, -8
 1249              		.cfi_offset 14, -4
 1250 0002 89B0     		sub	sp, sp, #36
 1251              	.LCFI27:
 1252              		.cfi_def_cfa_offset 56
 1253              	.LVL159:
 298:C:/Users/lenovo/Desktop/liteos/Project2/BearPi_LiteOS/components/connectivity/agent_tiny/atiny_lwm2m\atiny_rpt.c ****     int ret = ATINY_MALLOC_FAILED;
 299:C:/Users/lenovo/Desktop/liteos/Project2/BearPi_LiteOS/components/connectivity/agent_tiny/atiny_lwm2m\atiny_rpt.c **** 
 300:C:/Users/lenovo/Desktop/liteos/Project2/BearPi_LiteOS/components/connectivity/agent_tiny/atiny_lwm2m\atiny_rpt.c ****     if ((NULL == uri) || (NULL == data))
 1254              		.loc 1 300 0
 1255 0004 E0B1     		cbz	r0, .L107
 1256 0006 0D46     		mov	r5, r1
ARM GAS  c:\Users\lenovo\AppData\Local\Temp\ccE9ZvNF.s 			page 31


 1257 0008 0446     		mov	r4, r0
 1258              		.loc 1 300 0 is_stmt 0 discriminator 1
 1259 000a C9B1     		cbz	r1, .L107
 301:C:/Users/lenovo/Desktop/liteos/Project2/BearPi_LiteOS/components/connectivity/agent_tiny/atiny_lwm2m\atiny_rpt.c ****     {
 302:C:/Users/lenovo/Desktop/liteos/Project2/BearPi_LiteOS/components/connectivity/agent_tiny/atiny_lwm2m\atiny_rpt.c ****         ATINY_LOG(LOG_ERR, "null point");
 303:C:/Users/lenovo/Desktop/liteos/Project2/BearPi_LiteOS/components/connectivity/agent_tiny/atiny_lwm2m\atiny_rpt.c ****         return ATINY_ARG_INVALID;
 304:C:/Users/lenovo/Desktop/liteos/Project2/BearPi_LiteOS/components/connectivity/agent_tiny/atiny_lwm2m\atiny_rpt.c ****     }
 305:C:/Users/lenovo/Desktop/liteos/Project2/BearPi_LiteOS/components/connectivity/agent_tiny/atiny_lwm2m\atiny_rpt.c **** 
 306:C:/Users/lenovo/Desktop/liteos/Project2/BearPi_LiteOS/components/connectivity/agent_tiny/atiny_lwm2m\atiny_rpt.c ****     atiny_mutex_lock(g_mutex);
 1260              		.loc 1 306 0 is_stmt 1
 1261 000c 584B     		ldr	r3, .L125
 1262 000e 1868     		ldr	r0, [r3]
 1263              	.LVL160:
 1264 0010 FFF7FEFF 		bl	atiny_mutex_lock
 1265              	.LVL161:
 1266              	.LBB54:
 307:C:/Users/lenovo/Desktop/liteos/Project2/BearPi_LiteOS/components/connectivity/agent_tiny/atiny_lwm2m\atiny_rpt.c **** 
 308:C:/Users/lenovo/Desktop/liteos/Project2/BearPi_LiteOS/components/connectivity/agent_tiny/atiny_lwm2m\atiny_rpt.c ****     do
 309:C:/Users/lenovo/Desktop/liteos/Project2/BearPi_LiteOS/components/connectivity/agent_tiny/atiny_lwm2m\atiny_rpt.c ****     {
 310:C:/Users/lenovo/Desktop/liteos/Project2/BearPi_LiteOS/components/connectivity/agent_tiny/atiny_lwm2m\atiny_rpt.c ****         atiny_rpt_list_t *rpt_list;
 311:C:/Users/lenovo/Desktop/liteos/Project2/BearPi_LiteOS/components/connectivity/agent_tiny/atiny_lwm2m\atiny_rpt.c ****         atiny_rpt_node_t *data_node;
 312:C:/Users/lenovo/Desktop/liteos/Project2/BearPi_LiteOS/components/connectivity/agent_tiny/atiny_lwm2m\atiny_rpt.c **** 
 313:C:/Users/lenovo/Desktop/liteos/Project2/BearPi_LiteOS/components/connectivity/agent_tiny/atiny_lwm2m\atiny_rpt.c ****         rpt_list = atiny_find_rpt_list(uri);
 1267              		.loc 1 313 0
 1268 0014 2046     		mov	r0, r4
 1269 0016 FFF7FEFF 		bl	atiny_find_rpt_list
 1270              	.LVL162:
 314:C:/Users/lenovo/Desktop/liteos/Project2/BearPi_LiteOS/components/connectivity/agent_tiny/atiny_lwm2m\atiny_rpt.c **** 
 315:C:/Users/lenovo/Desktop/liteos/Project2/BearPi_LiteOS/components/connectivity/agent_tiny/atiny_lwm2m\atiny_rpt.c ****         if (NULL == rpt_list)
 1271              		.loc 1 315 0
 1272 001a 0646     		mov	r6, r0
 1273 001c 48B3     		cbz	r0, .L119
 316:C:/Users/lenovo/Desktop/liteos/Project2/BearPi_LiteOS/components/connectivity/agent_tiny/atiny_lwm2m\atiny_rpt.c ****         {
 317:C:/Users/lenovo/Desktop/liteos/Project2/BearPi_LiteOS/components/connectivity/agent_tiny/atiny_lwm2m\atiny_rpt.c ****             ATINY_LOG(LOG_INFO, "uri rpt list not exit," URI_FORMAT, URI_LOG_PARAM(uri));
 318:C:/Users/lenovo/Desktop/liteos/Project2/BearPi_LiteOS/components/connectivity/agent_tiny/atiny_lwm2m\atiny_rpt.c ****             ret = ATINY_RESOURCE_NOT_FOUND;
 319:C:/Users/lenovo/Desktop/liteos/Project2/BearPi_LiteOS/components/connectivity/agent_tiny/atiny_lwm2m\atiny_rpt.c ****             break;
 320:C:/Users/lenovo/Desktop/liteos/Project2/BearPi_LiteOS/components/connectivity/agent_tiny/atiny_lwm2m\atiny_rpt.c ****         }
 321:C:/Users/lenovo/Desktop/liteos/Project2/BearPi_LiteOS/components/connectivity/agent_tiny/atiny_lwm2m\atiny_rpt.c **** 
 322:C:/Users/lenovo/Desktop/liteos/Project2/BearPi_LiteOS/components/connectivity/agent_tiny/atiny_lwm2m\atiny_rpt.c ****         if (rpt_list->rpt_node_cnt >= rpt_list->max_cnt)
 1274              		.loc 1 322 0
 1275 001e 8269     		ldr	r2, [r0, #24]
 1276 0020 C369     		ldr	r3, [r0, #28]
 1277 0022 9A42     		cmp	r2, r3
 1278 0024 64D3     		bcc	.L112
 323:C:/Users/lenovo/Desktop/liteos/Project2/BearPi_LiteOS/components/connectivity/agent_tiny/atiny_lwm2m\atiny_rpt.c ****         {
 324:C:/Users/lenovo/Desktop/liteos/Project2/BearPi_LiteOS/components/connectivity/agent_tiny/atiny_lwm2m\atiny_rpt.c ****             ATINY_LOG(LOG_INFO, "uri rpt exceed rpt cnt %d max cnt %d," URI_FORMAT,
 1279              		.loc 1 324 0
 1280 0026 FFF7FEFF 		bl	atiny_get_log_level
 1281              	.LVL163:
 1282 002a 0128     		cmp	r0, #1
 1283 002c 42D9     		bls	.L120
 325:C:/Users/lenovo/Desktop/liteos/Project2/BearPi_LiteOS/components/connectivity/agent_tiny/atiny_lwm2m\atiny_rpt.c ****                       rpt_list->rpt_node_cnt, rpt_list->max_cnt, URI_LOG_PARAM(uri));
 326:C:/Users/lenovo/Desktop/liteos/Project2/BearPi_LiteOS/components/connectivity/agent_tiny/atiny_lwm2m\atiny_rpt.c ****             ret = ATINY_RESOURCE_NOT_ENOUGH;
 1284              		.loc 1 326 0
 1285 002e 6FF00504 		mvn	r4, #5
 1286              	.LVL164:
 1287              	.L111:
ARM GAS  c:\Users\lenovo\AppData\Local\Temp\ccE9ZvNF.s 			page 32


 1288              	.LBE54:
 327:C:/Users/lenovo/Desktop/liteos/Project2/BearPi_LiteOS/components/connectivity/agent_tiny/atiny_lwm2m\atiny_rpt.c ****             break;
 328:C:/Users/lenovo/Desktop/liteos/Project2/BearPi_LiteOS/components/connectivity/agent_tiny/atiny_lwm2m\atiny_rpt.c ****         }
 329:C:/Users/lenovo/Desktop/liteos/Project2/BearPi_LiteOS/components/connectivity/agent_tiny/atiny_lwm2m\atiny_rpt.c **** 
 330:C:/Users/lenovo/Desktop/liteos/Project2/BearPi_LiteOS/components/connectivity/agent_tiny/atiny_lwm2m\atiny_rpt.c ****         data_node = lwm2m_malloc(sizeof(*data_node));
 331:C:/Users/lenovo/Desktop/liteos/Project2/BearPi_LiteOS/components/connectivity/agent_tiny/atiny_lwm2m\atiny_rpt.c **** 
 332:C:/Users/lenovo/Desktop/liteos/Project2/BearPi_LiteOS/components/connectivity/agent_tiny/atiny_lwm2m\atiny_rpt.c ****         if (NULL == data_node)
 333:C:/Users/lenovo/Desktop/liteos/Project2/BearPi_LiteOS/components/connectivity/agent_tiny/atiny_lwm2m\atiny_rpt.c ****         {
 334:C:/Users/lenovo/Desktop/liteos/Project2/BearPi_LiteOS/components/connectivity/agent_tiny/atiny_lwm2m\atiny_rpt.c ****             ATINY_LOG(LOG_ERR, "malloc fail," URI_FORMAT, URI_LOG_PARAM(uri));
 335:C:/Users/lenovo/Desktop/liteos/Project2/BearPi_LiteOS/components/connectivity/agent_tiny/atiny_lwm2m\atiny_rpt.c ****             break;
 336:C:/Users/lenovo/Desktop/liteos/Project2/BearPi_LiteOS/components/connectivity/agent_tiny/atiny_lwm2m\atiny_rpt.c ****         }
 337:C:/Users/lenovo/Desktop/liteos/Project2/BearPi_LiteOS/components/connectivity/agent_tiny/atiny_lwm2m\atiny_rpt.c **** 
 338:C:/Users/lenovo/Desktop/liteos/Project2/BearPi_LiteOS/components/connectivity/agent_tiny/atiny_lwm2m\atiny_rpt.c ****         memset((void *)&data_node->list, 0, sizeof(data_node->list));
 339:C:/Users/lenovo/Desktop/liteos/Project2/BearPi_LiteOS/components/connectivity/agent_tiny/atiny_lwm2m\atiny_rpt.c ****         memcpy((void *)&data_node->data, (void *)data, sizeof(data_node->data));
 340:C:/Users/lenovo/Desktop/liteos/Project2/BearPi_LiteOS/components/connectivity/agent_tiny/atiny_lwm2m\atiny_rpt.c ****         atiny_list_insert_tail(&rpt_list->rpt_list, &data_node->list);
 341:C:/Users/lenovo/Desktop/liteos/Project2/BearPi_LiteOS/components/connectivity/agent_tiny/atiny_lwm2m\atiny_rpt.c ****         rpt_list->rpt_node_cnt++;
 342:C:/Users/lenovo/Desktop/liteos/Project2/BearPi_LiteOS/components/connectivity/agent_tiny/atiny_lwm2m\atiny_rpt.c **** 
 343:C:/Users/lenovo/Desktop/liteos/Project2/BearPi_LiteOS/components/connectivity/agent_tiny/atiny_lwm2m\atiny_rpt.c ****         ret = ATINY_OK;
 344:C:/Users/lenovo/Desktop/liteos/Project2/BearPi_LiteOS/components/connectivity/agent_tiny/atiny_lwm2m\atiny_rpt.c **** 
 345:C:/Users/lenovo/Desktop/liteos/Project2/BearPi_LiteOS/components/connectivity/agent_tiny/atiny_lwm2m\atiny_rpt.c ****     }
 346:C:/Users/lenovo/Desktop/liteos/Project2/BearPi_LiteOS/components/connectivity/agent_tiny/atiny_lwm2m\atiny_rpt.c ****     while (0);
 347:C:/Users/lenovo/Desktop/liteos/Project2/BearPi_LiteOS/components/connectivity/agent_tiny/atiny_lwm2m\atiny_rpt.c **** 
 348:C:/Users/lenovo/Desktop/liteos/Project2/BearPi_LiteOS/components/connectivity/agent_tiny/atiny_lwm2m\atiny_rpt.c ****     atiny_mutex_unlock(g_mutex);
 1289              		.loc 1 348 0
 1290 0032 4F4B     		ldr	r3, .L125
 1291 0034 1868     		ldr	r0, [r3]
 1292 0036 FFF7FEFF 		bl	atiny_mutex_unlock
 1293              	.LVL165:
 1294              	.L106:
 349:C:/Users/lenovo/Desktop/liteos/Project2/BearPi_LiteOS/components/connectivity/agent_tiny/atiny_lwm2m\atiny_rpt.c **** 
 350:C:/Users/lenovo/Desktop/liteos/Project2/BearPi_LiteOS/components/connectivity/agent_tiny/atiny_lwm2m\atiny_rpt.c ****     return ret;
 351:C:/Users/lenovo/Desktop/liteos/Project2/BearPi_LiteOS/components/connectivity/agent_tiny/atiny_lwm2m\atiny_rpt.c **** 
 352:C:/Users/lenovo/Desktop/liteos/Project2/BearPi_LiteOS/components/connectivity/agent_tiny/atiny_lwm2m\atiny_rpt.c **** }
 1295              		.loc 1 352 0
 1296 003a 2046     		mov	r0, r4
 1297 003c 09B0     		add	sp, sp, #36
 1298              	.LCFI28:
 1299              		.cfi_remember_state
 1300              		.cfi_def_cfa_offset 20
 1301              		@ sp needed
 1302 003e F0BD     		pop	{r4, r5, r6, r7, pc}
 1303              	.LVL166:
 1304              	.L107:
 1305              	.LCFI29:
 1306              		.cfi_restore_state
 302:C:/Users/lenovo/Desktop/liteos/Project2/BearPi_LiteOS/components/connectivity/agent_tiny/atiny_lwm2m\atiny_rpt.c ****         return ATINY_ARG_INVALID;
 1307              		.loc 1 302 0
 1308 0040 FFF7FEFF 		bl	atiny_get_log_level
 1309              	.LVL167:
 1310 0044 0328     		cmp	r0, #3
 1311 0046 02D9     		bls	.L121
 303:C:/Users/lenovo/Desktop/liteos/Project2/BearPi_LiteOS/components/connectivity/agent_tiny/atiny_lwm2m\atiny_rpt.c ****     }
 1312              		.loc 1 303 0
 1313 0048 4FF0FF34 		mov	r4, #-1
 1314 004c F5E7     		b	.L106
 1315              	.L121:
 302:C:/Users/lenovo/Desktop/liteos/Project2/BearPi_LiteOS/components/connectivity/agent_tiny/atiny_lwm2m\atiny_rpt.c ****         return ATINY_ARG_INVALID;
ARM GAS  c:\Users\lenovo\AppData\Local\Temp\ccE9ZvNF.s 			page 33


 1316              		.loc 1 302 0 discriminator 1
 1317 004e 0320     		movs	r0, #3
 1318 0050 FFF7FEFF 		bl	atiny_get_log_level_name
 1319              	.LVL168:
 1320 0054 0446     		mov	r4, r0
 1321 0056 FFF7FEFF 		bl	atiny_gettime_ms
 1322              	.LVL169:
 1323 005a 4FF49773 		mov	r3, #302
 1324 005e 0093     		str	r3, [sp]
 1325 0060 444B     		ldr	r3, .L125+4
 1326 0062 0246     		mov	r2, r0
 1327 0064 2146     		mov	r1, r4
 1328 0066 4448     		ldr	r0, .L125+8
 1329 0068 FFF7FEFF 		bl	atiny_printf
 1330              	.LVL170:
 303:C:/Users/lenovo/Desktop/liteos/Project2/BearPi_LiteOS/components/connectivity/agent_tiny/atiny_lwm2m\atiny_rpt.c ****     }
 1331              		.loc 1 303 0 discriminator 1
 1332 006c 4FF0FF34 		mov	r4, #-1
 1333 0070 E3E7     		b	.L106
 1334              	.LVL171:
 1335              	.L119:
 1336              	.LBB59:
 317:C:/Users/lenovo/Desktop/liteos/Project2/BearPi_LiteOS/components/connectivity/agent_tiny/atiny_lwm2m\atiny_rpt.c ****             ret = ATINY_RESOURCE_NOT_FOUND;
 1337              		.loc 1 317 0
 1338 0072 FFF7FEFF 		bl	atiny_get_log_level
 1339              	.LVL172:
 1340 0076 0128     		cmp	r0, #1
 1341 0078 02D9     		bls	.L122
 318:C:/Users/lenovo/Desktop/liteos/Project2/BearPi_LiteOS/components/connectivity/agent_tiny/atiny_lwm2m\atiny_rpt.c ****             break;
 1342              		.loc 1 318 0
 1343 007a 6FF00404 		mvn	r4, #4
 1344              	.LVL173:
 1345 007e D8E7     		b	.L111
 1346              	.LVL174:
 1347              	.L122:
 317:C:/Users/lenovo/Desktop/liteos/Project2/BearPi_LiteOS/components/connectivity/agent_tiny/atiny_lwm2m\atiny_rpt.c ****             ret = ATINY_RESOURCE_NOT_FOUND;
 1348              		.loc 1 317 0 discriminator 1
 1349 0080 0120     		movs	r0, #1
 1350 0082 FFF7FEFF 		bl	atiny_get_log_level_name
 1351              	.LVL175:
 1352 0086 0546     		mov	r5, r0
 1353              	.LVL176:
 1354 0088 FFF7FEFF 		bl	atiny_gettime_ms
 1355              	.LVL177:
 1356 008c 2378     		ldrb	r3, [r4]	@ zero_extendqisi2
 1357 008e 6288     		ldrh	r2, [r4, #2]
 1358 0090 A188     		ldrh	r1, [r4, #4]
 1359 0092 E488     		ldrh	r4, [r4, #6]
 1360              	.LVL178:
 1361 0094 0494     		str	r4, [sp, #16]
 1362 0096 0391     		str	r1, [sp, #12]
 1363 0098 0292     		str	r2, [sp, #8]
 1364 009a 0193     		str	r3, [sp, #4]
 1365 009c 40F23D13 		movw	r3, #317
 1366 00a0 0093     		str	r3, [sp]
 1367 00a2 344B     		ldr	r3, .L125+4
 1368 00a4 0246     		mov	r2, r0
ARM GAS  c:\Users\lenovo\AppData\Local\Temp\ccE9ZvNF.s 			page 34


 1369 00a6 2946     		mov	r1, r5
 1370 00a8 3448     		ldr	r0, .L125+12
 1371 00aa FFF7FEFF 		bl	atiny_printf
 1372              	.LVL179:
 318:C:/Users/lenovo/Desktop/liteos/Project2/BearPi_LiteOS/components/connectivity/agent_tiny/atiny_lwm2m\atiny_rpt.c ****             break;
 1373              		.loc 1 318 0 discriminator 1
 1374 00ae 6FF00404 		mvn	r4, #4
 1375 00b2 BEE7     		b	.L111
 1376              	.LVL180:
 1377              	.L120:
 324:C:/Users/lenovo/Desktop/liteos/Project2/BearPi_LiteOS/components/connectivity/agent_tiny/atiny_lwm2m\atiny_rpt.c ****                       rpt_list->rpt_node_cnt, rpt_list->max_cnt, URI_LOG_PARAM(uri));
 1378              		.loc 1 324 0 discriminator 1
 1379 00b4 0120     		movs	r0, #1
 1380 00b6 FFF7FEFF 		bl	atiny_get_log_level_name
 1381              	.LVL181:
 1382 00ba 0546     		mov	r5, r0
 1383              	.LVL182:
 1384 00bc FFF7FEFF 		bl	atiny_gettime_ms
 1385              	.LVL183:
 1386 00c0 B369     		ldr	r3, [r6, #24]
 1387 00c2 F269     		ldr	r2, [r6, #28]
 1388 00c4 2178     		ldrb	r1, [r4]	@ zero_extendqisi2
 1389 00c6 6688     		ldrh	r6, [r4, #2]
 1390              	.LVL184:
 1391 00c8 A788     		ldrh	r7, [r4, #4]
 1392 00ca E488     		ldrh	r4, [r4, #6]
 1393              	.LVL185:
 1394 00cc 0694     		str	r4, [sp, #24]
 1395 00ce 0597     		str	r7, [sp, #20]
 1396 00d0 0496     		str	r6, [sp, #16]
 1397 00d2 0391     		str	r1, [sp, #12]
 1398 00d4 0292     		str	r2, [sp, #8]
 1399 00d6 0193     		str	r3, [sp, #4]
 1400 00d8 40F24513 		movw	r3, #325
 1401 00dc 0093     		str	r3, [sp]
 1402 00de 254B     		ldr	r3, .L125+4
 1403 00e0 0246     		mov	r2, r0
 1404 00e2 2946     		mov	r1, r5
 1405 00e4 2648     		ldr	r0, .L125+16
 1406 00e6 FFF7FEFF 		bl	atiny_printf
 1407              	.LVL186:
 326:C:/Users/lenovo/Desktop/liteos/Project2/BearPi_LiteOS/components/connectivity/agent_tiny/atiny_lwm2m\atiny_rpt.c ****             break;
 1408              		.loc 1 326 0 discriminator 1
 1409 00ea 6FF00504 		mvn	r4, #5
 1410 00ee A0E7     		b	.L111
 1411              	.LVL187:
 1412              	.L112:
 330:C:/Users/lenovo/Desktop/liteos/Project2/BearPi_LiteOS/components/connectivity/agent_tiny/atiny_lwm2m\atiny_rpt.c **** 
 1413              		.loc 1 330 0
 1414 00f0 1C20     		movs	r0, #28
 1415              	.LVL188:
 1416 00f2 FFF7FEFF 		bl	lwm2m_malloc
 1417              	.LVL189:
 332:C:/Users/lenovo/Desktop/liteos/Project2/BearPi_LiteOS/components/connectivity/agent_tiny/atiny_lwm2m\atiny_rpt.c ****         {
 1418              		.loc 1 332 0
 1419 00f6 0346     		mov	r3, r0
 1420 00f8 C8B1     		cbz	r0, .L123
ARM GAS  c:\Users\lenovo\AppData\Local\Temp\ccE9ZvNF.s 			page 35


 338:C:/Users/lenovo/Desktop/liteos/Project2/BearPi_LiteOS/components/connectivity/agent_tiny/atiny_lwm2m\atiny_rpt.c ****         memcpy((void *)&data_node->data, (void *)data, sizeof(data_node->data));
 1421              		.loc 1 338 0
 1422 00fa 0024     		movs	r4, #0
 1423              	.LVL190:
 1424 00fc 0460     		str	r4, [r0]	@ unaligned
 1425 00fe 4460     		str	r4, [r0, #4]	@ unaligned
 339:C:/Users/lenovo/Desktop/liteos/Project2/BearPi_LiteOS/components/connectivity/agent_tiny/atiny_lwm2m\atiny_rpt.c ****         atiny_list_insert_tail(&rpt_list->rpt_list, &data_node->list);
 1426              		.loc 1 339 0
 1427 0100 2968     		ldr	r1, [r5]	@ unaligned
 1428 0102 D5F804C0 		ldr	ip, [r5, #4]	@ unaligned
 1429 0106 AF68     		ldr	r7, [r5, #8]	@ unaligned
 1430 0108 E868     		ldr	r0, [r5, #12]	@ unaligned
 1431              	.LVL191:
 1432 010a 9960     		str	r1, [r3, #8]	@ unaligned
 1433 010c C3F80CC0 		str	ip, [r3, #12]	@ unaligned
 1434 0110 1F61     		str	r7, [r3, #16]	@ unaligned
 1435 0112 5861     		str	r0, [r3, #20]	@ unaligned
 1436 0114 2969     		ldr	r1, [r5, #16]	@ unaligned
 1437 0116 9961     		str	r1, [r3, #24]	@ unaligned
 1438              	.LVL192:
 1439              	.LBB55:
 1440              	.LBB56:
  85:C:/Users/lenovo/Desktop/liteos/Project2/BearPi_LiteOS/components/connectivity/agent_tiny/atiny_lwm2m\agent_list.h **** }
 1441              		.loc 2 85 0
 1442 0118 3269     		ldr	r2, [r6, #16]
 1443              	.LVL193:
 1444              	.LBB57:
 1445              	.LBB58:
  77:C:/Users/lenovo/Desktop/liteos/Project2/BearPi_LiteOS/components/connectivity/agent_tiny/atiny_lwm2m\agent_list.h ****     node->prev = list;
 1446              		.loc 2 77 0
 1447 011a 5168     		ldr	r1, [r2, #4]
 1448 011c 5960     		str	r1, [r3, #4]
  78:C:/Users/lenovo/Desktop/liteos/Project2/BearPi_LiteOS/components/connectivity/agent_tiny/atiny_lwm2m\agent_list.h ****     list->next->prev = node;
 1449              		.loc 2 78 0
 1450 011e 1A60     		str	r2, [r3]
  79:C:/Users/lenovo/Desktop/liteos/Project2/BearPi_LiteOS/components/connectivity/agent_tiny/atiny_lwm2m\agent_list.h ****     list->next = node;
 1451              		.loc 2 79 0
 1452 0120 5168     		ldr	r1, [r2, #4]
 1453 0122 0B60     		str	r3, [r1]
  80:C:/Users/lenovo/Desktop/liteos/Project2/BearPi_LiteOS/components/connectivity/agent_tiny/atiny_lwm2m\agent_list.h **** }
 1454              		.loc 2 80 0
 1455 0124 5360     		str	r3, [r2, #4]
 1456              	.LVL194:
 1457              	.LBE58:
 1458              	.LBE57:
 1459              	.LBE56:
 1460              	.LBE55:
 341:C:/Users/lenovo/Desktop/liteos/Project2/BearPi_LiteOS/components/connectivity/agent_tiny/atiny_lwm2m\atiny_rpt.c **** 
 1461              		.loc 1 341 0
 1462 0126 B369     		ldr	r3, [r6, #24]
 1463              	.LVL195:
 1464 0128 0133     		adds	r3, r3, #1
 1465 012a B361     		str	r3, [r6, #24]
 1466              	.LVL196:
 1467 012c 81E7     		b	.L111
 1468              	.LVL197:
 1469              	.L123:
ARM GAS  c:\Users\lenovo\AppData\Local\Temp\ccE9ZvNF.s 			page 36


 334:C:/Users/lenovo/Desktop/liteos/Project2/BearPi_LiteOS/components/connectivity/agent_tiny/atiny_lwm2m\atiny_rpt.c ****             break;
 1470              		.loc 1 334 0
 1471 012e FFF7FEFF 		bl	atiny_get_log_level
 1472              	.LVL198:
 1473 0132 0328     		cmp	r0, #3
 1474 0134 02D9     		bls	.L124
 1475              	.LBE59:
 298:C:/Users/lenovo/Desktop/liteos/Project2/BearPi_LiteOS/components/connectivity/agent_tiny/atiny_lwm2m\atiny_rpt.c **** 
 1476              		.loc 1 298 0
 1477 0136 6FF00304 		mvn	r4, #3
 1478              	.LVL199:
 1479 013a 7AE7     		b	.L111
 1480              	.LVL200:
 1481              	.L124:
 1482              	.LBB60:
 334:C:/Users/lenovo/Desktop/liteos/Project2/BearPi_LiteOS/components/connectivity/agent_tiny/atiny_lwm2m\atiny_rpt.c ****             break;
 1483              		.loc 1 334 0 discriminator 1
 1484 013c 0320     		movs	r0, #3
 1485 013e FFF7FEFF 		bl	atiny_get_log_level_name
 1486              	.LVL201:
 1487 0142 0546     		mov	r5, r0
 1488              	.LVL202:
 1489 0144 FFF7FEFF 		bl	atiny_gettime_ms
 1490              	.LVL203:
 1491 0148 2378     		ldrb	r3, [r4]	@ zero_extendqisi2
 1492 014a 6288     		ldrh	r2, [r4, #2]
 1493 014c A188     		ldrh	r1, [r4, #4]
 1494 014e E488     		ldrh	r4, [r4, #6]
 1495              	.LVL204:
 1496 0150 0494     		str	r4, [sp, #16]
 1497 0152 0391     		str	r1, [sp, #12]
 1498 0154 0292     		str	r2, [sp, #8]
 1499 0156 0193     		str	r3, [sp, #4]
 1500 0158 4FF4A773 		mov	r3, #334
 1501 015c 0093     		str	r3, [sp]
 1502 015e 054B     		ldr	r3, .L125+4
 1503 0160 0246     		mov	r2, r0
 1504 0162 2946     		mov	r1, r5
 1505 0164 0748     		ldr	r0, .L125+20
 1506 0166 FFF7FEFF 		bl	atiny_printf
 1507              	.LVL205:
 1508              	.LBE60:
 298:C:/Users/lenovo/Desktop/liteos/Project2/BearPi_LiteOS/components/connectivity/agent_tiny/atiny_lwm2m\atiny_rpt.c **** 
 1509              		.loc 1 298 0 discriminator 1
 1510 016a 6FF00304 		mvn	r4, #3
 1511 016e 60E7     		b	.L111
 1512              	.L126:
 1513              		.align	2
 1514              	.L125:
 1515 0170 00000000 		.word	.LANCHOR2
 1516 0174 00000000 		.word	.LANCHOR7
 1517 0178 00000000 		.word	.LC2
 1518 017c 00000000 		.word	.LC7
 1519 0180 58000000 		.word	.LC8
 1520 0184 C0000000 		.word	.LC9
 1521              		.cfi_endproc
 1522              	.LFE154:
ARM GAS  c:\Users\lenovo\AppData\Local\Temp\ccE9ZvNF.s 			page 37


 1524              		.section	.text.atiny_clear_rpt_data,"ax",%progbits
 1525              		.align	1
 1526              		.global	atiny_clear_rpt_data
 1527              		.syntax unified
 1528              		.thumb
 1529              		.thumb_func
 1530              		.fpu fpv4-sp-d16
 1532              	atiny_clear_rpt_data:
 1533              	.LFB155:
 353:C:/Users/lenovo/Desktop/liteos/Project2/BearPi_LiteOS/components/connectivity/agent_tiny/atiny_lwm2m\atiny_rpt.c **** 
 354:C:/Users/lenovo/Desktop/liteos/Project2/BearPi_LiteOS/components/connectivity/agent_tiny/atiny_lwm2m\atiny_rpt.c **** int atiny_clear_rpt_data(const lwm2m_uri_t *uri, int result)
 355:C:/Users/lenovo/Desktop/liteos/Project2/BearPi_LiteOS/components/connectivity/agent_tiny/atiny_lwm2m\atiny_rpt.c **** {
 1534              		.loc 1 355 0
 1535              		.cfi_startproc
 1536              		@ args = 0, pretend = 0, frame = 0
 1537              		@ frame_needed = 0, uses_anonymous_args = 0
 1538              	.LVL206:
 1539 0000 70B5     		push	{r4, r5, r6, lr}
 1540              	.LCFI30:
 1541              		.cfi_def_cfa_offset 16
 1542              		.cfi_offset 4, -16
 1543              		.cfi_offset 5, -12
 1544              		.cfi_offset 6, -8
 1545              		.cfi_offset 14, -4
 1546 0002 86B0     		sub	sp, sp, #24
 1547              	.LCFI31:
 1548              		.cfi_def_cfa_offset 40
 1549              	.LVL207:
 356:C:/Users/lenovo/Desktop/liteos/Project2/BearPi_LiteOS/components/connectivity/agent_tiny/atiny_lwm2m\atiny_rpt.c ****     int ret = ATINY_RESOURCE_NOT_FOUND;
 357:C:/Users/lenovo/Desktop/liteos/Project2/BearPi_LiteOS/components/connectivity/agent_tiny/atiny_lwm2m\atiny_rpt.c **** 
 358:C:/Users/lenovo/Desktop/liteos/Project2/BearPi_LiteOS/components/connectivity/agent_tiny/atiny_lwm2m\atiny_rpt.c ****     if (NULL == uri)
 1550              		.loc 1 358 0
 1551 0004 C0B1     		cbz	r0, .L135
 1552 0006 0E46     		mov	r6, r1
 1553 0008 0446     		mov	r4, r0
 359:C:/Users/lenovo/Desktop/liteos/Project2/BearPi_LiteOS/components/connectivity/agent_tiny/atiny_lwm2m\atiny_rpt.c ****     {
 360:C:/Users/lenovo/Desktop/liteos/Project2/BearPi_LiteOS/components/connectivity/agent_tiny/atiny_lwm2m\atiny_rpt.c ****         ATINY_LOG(LOG_ERR, "null point");
 361:C:/Users/lenovo/Desktop/liteos/Project2/BearPi_LiteOS/components/connectivity/agent_tiny/atiny_lwm2m\atiny_rpt.c ****         return ATINY_ARG_INVALID;
 362:C:/Users/lenovo/Desktop/liteos/Project2/BearPi_LiteOS/components/connectivity/agent_tiny/atiny_lwm2m\atiny_rpt.c ****     }
 363:C:/Users/lenovo/Desktop/liteos/Project2/BearPi_LiteOS/components/connectivity/agent_tiny/atiny_lwm2m\atiny_rpt.c **** 
 364:C:/Users/lenovo/Desktop/liteos/Project2/BearPi_LiteOS/components/connectivity/agent_tiny/atiny_lwm2m\atiny_rpt.c ****     atiny_mutex_lock(g_mutex);
 1554              		.loc 1 364 0
 1555 000a 284B     		ldr	r3, .L139
 1556 000c 1868     		ldr	r0, [r3]
 1557              	.LVL208:
 1558 000e FFF7FEFF 		bl	atiny_mutex_lock
 1559              	.LVL209:
 1560              	.LBB61:
 365:C:/Users/lenovo/Desktop/liteos/Project2/BearPi_LiteOS/components/connectivity/agent_tiny/atiny_lwm2m\atiny_rpt.c **** 
 366:C:/Users/lenovo/Desktop/liteos/Project2/BearPi_LiteOS/components/connectivity/agent_tiny/atiny_lwm2m\atiny_rpt.c ****     do
 367:C:/Users/lenovo/Desktop/liteos/Project2/BearPi_LiteOS/components/connectivity/agent_tiny/atiny_lwm2m\atiny_rpt.c ****     {
 368:C:/Users/lenovo/Desktop/liteos/Project2/BearPi_LiteOS/components/connectivity/agent_tiny/atiny_lwm2m\atiny_rpt.c ****         atiny_rpt_list_t *rpt_list;
 369:C:/Users/lenovo/Desktop/liteos/Project2/BearPi_LiteOS/components/connectivity/agent_tiny/atiny_lwm2m\atiny_rpt.c **** 
 370:C:/Users/lenovo/Desktop/liteos/Project2/BearPi_LiteOS/components/connectivity/agent_tiny/atiny_lwm2m\atiny_rpt.c ****         rpt_list = atiny_find_rpt_list(uri);
 1561              		.loc 1 370 0
 1562 0012 2046     		mov	r0, r4
 1563 0014 FFF7FEFF 		bl	atiny_find_rpt_list
ARM GAS  c:\Users\lenovo\AppData\Local\Temp\ccE9ZvNF.s 			page 38


 1564              	.LVL210:
 371:C:/Users/lenovo/Desktop/liteos/Project2/BearPi_LiteOS/components/connectivity/agent_tiny/atiny_lwm2m\atiny_rpt.c **** 
 372:C:/Users/lenovo/Desktop/liteos/Project2/BearPi_LiteOS/components/connectivity/agent_tiny/atiny_lwm2m\atiny_rpt.c ****         if (NULL == rpt_list)
 1565              		.loc 1 372 0
 1566 0018 0546     		mov	r5, r0
 1567 001a 30B3     		cbz	r0, .L136
 373:C:/Users/lenovo/Desktop/liteos/Project2/BearPi_LiteOS/components/connectivity/agent_tiny/atiny_lwm2m\atiny_rpt.c ****         {
 374:C:/Users/lenovo/Desktop/liteos/Project2/BearPi_LiteOS/components/connectivity/agent_tiny/atiny_lwm2m\atiny_rpt.c ****             ATINY_LOG(LOG_ERR, "uri rpt list not exit," URI_FORMAT, URI_LOG_PARAM(uri));
 375:C:/Users/lenovo/Desktop/liteos/Project2/BearPi_LiteOS/components/connectivity/agent_tiny/atiny_lwm2m\atiny_rpt.c ****             break;
 376:C:/Users/lenovo/Desktop/liteos/Project2/BearPi_LiteOS/components/connectivity/agent_tiny/atiny_lwm2m\atiny_rpt.c ****         }
 377:C:/Users/lenovo/Desktop/liteos/Project2/BearPi_LiteOS/components/connectivity/agent_tiny/atiny_lwm2m\atiny_rpt.c **** 
 378:C:/Users/lenovo/Desktop/liteos/Project2/BearPi_LiteOS/components/connectivity/agent_tiny/atiny_lwm2m\atiny_rpt.c ****         atiny_free_list(&rpt_list->rpt_list, atiny_clear_rpt_list_node_data, (void *)result);
 1568              		.loc 1 378 0
 1569 001c 3246     		mov	r2, r6
 1570 001e 2449     		ldr	r1, .L139+4
 1571 0020 1030     		adds	r0, r0, #16
 1572              	.LVL211:
 1573 0022 FFF7FEFF 		bl	atiny_free_list
 1574              	.LVL212:
 379:C:/Users/lenovo/Desktop/liteos/Project2/BearPi_LiteOS/components/connectivity/agent_tiny/atiny_lwm2m\atiny_rpt.c ****         rpt_list->rpt_node_cnt = 0;
 1575              		.loc 1 379 0
 1576 0026 0024     		movs	r4, #0
 1577              	.LVL213:
 1578 0028 AC61     		str	r4, [r5, #24]
 1579              	.LVL214:
 1580              	.L131:
 1581              	.LBE61:
 380:C:/Users/lenovo/Desktop/liteos/Project2/BearPi_LiteOS/components/connectivity/agent_tiny/atiny_lwm2m\atiny_rpt.c **** 
 381:C:/Users/lenovo/Desktop/liteos/Project2/BearPi_LiteOS/components/connectivity/agent_tiny/atiny_lwm2m\atiny_rpt.c ****         ret = ATINY_OK;
 382:C:/Users/lenovo/Desktop/liteos/Project2/BearPi_LiteOS/components/connectivity/agent_tiny/atiny_lwm2m\atiny_rpt.c ****     }
 383:C:/Users/lenovo/Desktop/liteos/Project2/BearPi_LiteOS/components/connectivity/agent_tiny/atiny_lwm2m\atiny_rpt.c ****     while (0);
 384:C:/Users/lenovo/Desktop/liteos/Project2/BearPi_LiteOS/components/connectivity/agent_tiny/atiny_lwm2m\atiny_rpt.c **** 
 385:C:/Users/lenovo/Desktop/liteos/Project2/BearPi_LiteOS/components/connectivity/agent_tiny/atiny_lwm2m\atiny_rpt.c ****     atiny_mutex_unlock(g_mutex);
 1582              		.loc 1 385 0
 1583 002a 204B     		ldr	r3, .L139
 1584 002c 1868     		ldr	r0, [r3]
 1585 002e FFF7FEFF 		bl	atiny_mutex_unlock
 1586              	.LVL215:
 1587              	.L127:
 386:C:/Users/lenovo/Desktop/liteos/Project2/BearPi_LiteOS/components/connectivity/agent_tiny/atiny_lwm2m\atiny_rpt.c **** 
 387:C:/Users/lenovo/Desktop/liteos/Project2/BearPi_LiteOS/components/connectivity/agent_tiny/atiny_lwm2m\atiny_rpt.c ****     return ret;
 388:C:/Users/lenovo/Desktop/liteos/Project2/BearPi_LiteOS/components/connectivity/agent_tiny/atiny_lwm2m\atiny_rpt.c **** }
 1588              		.loc 1 388 0
 1589 0032 2046     		mov	r0, r4
 1590 0034 06B0     		add	sp, sp, #24
 1591              	.LCFI32:
 1592              		.cfi_remember_state
 1593              		.cfi_def_cfa_offset 16
 1594              		@ sp needed
 1595 0036 70BD     		pop	{r4, r5, r6, pc}
 1596              	.LVL216:
 1597              	.L135:
 1598              	.LCFI33:
 1599              		.cfi_restore_state
 360:C:/Users/lenovo/Desktop/liteos/Project2/BearPi_LiteOS/components/connectivity/agent_tiny/atiny_lwm2m\atiny_rpt.c ****         return ATINY_ARG_INVALID;
 1600              		.loc 1 360 0
 1601 0038 FFF7FEFF 		bl	atiny_get_log_level
ARM GAS  c:\Users\lenovo\AppData\Local\Temp\ccE9ZvNF.s 			page 39


 1602              	.LVL217:
 1603 003c 0328     		cmp	r0, #3
 1604 003e 02D9     		bls	.L137
 361:C:/Users/lenovo/Desktop/liteos/Project2/BearPi_LiteOS/components/connectivity/agent_tiny/atiny_lwm2m\atiny_rpt.c ****     }
 1605              		.loc 1 361 0
 1606 0040 4FF0FF34 		mov	r4, #-1
 1607 0044 F5E7     		b	.L127
 1608              	.L137:
 360:C:/Users/lenovo/Desktop/liteos/Project2/BearPi_LiteOS/components/connectivity/agent_tiny/atiny_lwm2m\atiny_rpt.c ****         return ATINY_ARG_INVALID;
 1609              		.loc 1 360 0 discriminator 1
 1610 0046 0320     		movs	r0, #3
 1611 0048 FFF7FEFF 		bl	atiny_get_log_level_name
 1612              	.LVL218:
 1613 004c 0446     		mov	r4, r0
 1614 004e FFF7FEFF 		bl	atiny_gettime_ms
 1615              	.LVL219:
 1616 0052 4FF4B473 		mov	r3, #360
 1617 0056 0093     		str	r3, [sp]
 1618 0058 164B     		ldr	r3, .L139+8
 1619 005a 0246     		mov	r2, r0
 1620 005c 2146     		mov	r1, r4
 1621 005e 1648     		ldr	r0, .L139+12
 1622 0060 FFF7FEFF 		bl	atiny_printf
 1623              	.LVL220:
 361:C:/Users/lenovo/Desktop/liteos/Project2/BearPi_LiteOS/components/connectivity/agent_tiny/atiny_lwm2m\atiny_rpt.c ****     }
 1624              		.loc 1 361 0 discriminator 1
 1625 0064 4FF0FF34 		mov	r4, #-1
 1626 0068 E3E7     		b	.L127
 1627              	.LVL221:
 1628              	.L136:
 1629              	.LBB62:
 374:C:/Users/lenovo/Desktop/liteos/Project2/BearPi_LiteOS/components/connectivity/agent_tiny/atiny_lwm2m\atiny_rpt.c ****             break;
 1630              		.loc 1 374 0
 1631 006a FFF7FEFF 		bl	atiny_get_log_level
 1632              	.LVL222:
 1633 006e 0328     		cmp	r0, #3
 1634 0070 02D9     		bls	.L138
 1635              	.LBE62:
 356:C:/Users/lenovo/Desktop/liteos/Project2/BearPi_LiteOS/components/connectivity/agent_tiny/atiny_lwm2m\atiny_rpt.c **** 
 1636              		.loc 1 356 0
 1637 0072 6FF00404 		mvn	r4, #4
 1638              	.LVL223:
 1639 0076 D8E7     		b	.L131
 1640              	.LVL224:
 1641              	.L138:
 1642              	.LBB63:
 374:C:/Users/lenovo/Desktop/liteos/Project2/BearPi_LiteOS/components/connectivity/agent_tiny/atiny_lwm2m\atiny_rpt.c ****             break;
 1643              		.loc 1 374 0 discriminator 1
 1644 0078 0320     		movs	r0, #3
 1645 007a FFF7FEFF 		bl	atiny_get_log_level_name
 1646              	.LVL225:
 1647 007e 0546     		mov	r5, r0
 1648              	.LVL226:
 1649 0080 FFF7FEFF 		bl	atiny_gettime_ms
 1650              	.LVL227:
 1651 0084 2378     		ldrb	r3, [r4]	@ zero_extendqisi2
 1652 0086 6288     		ldrh	r2, [r4, #2]
ARM GAS  c:\Users\lenovo\AppData\Local\Temp\ccE9ZvNF.s 			page 40


 1653 0088 A188     		ldrh	r1, [r4, #4]
 1654 008a E488     		ldrh	r4, [r4, #6]
 1655              	.LVL228:
 1656 008c 0494     		str	r4, [sp, #16]
 1657 008e 0391     		str	r1, [sp, #12]
 1658 0090 0292     		str	r2, [sp, #8]
 1659 0092 0193     		str	r3, [sp, #4]
 1660 0094 4FF4BB73 		mov	r3, #374
 1661 0098 0093     		str	r3, [sp]
 1662 009a 064B     		ldr	r3, .L139+8
 1663 009c 0246     		mov	r2, r0
 1664 009e 2946     		mov	r1, r5
 1665 00a0 0648     		ldr	r0, .L139+16
 1666 00a2 FFF7FEFF 		bl	atiny_printf
 1667              	.LVL229:
 1668              	.LBE63:
 356:C:/Users/lenovo/Desktop/liteos/Project2/BearPi_LiteOS/components/connectivity/agent_tiny/atiny_lwm2m\atiny_rpt.c **** 
 1669              		.loc 1 356 0 discriminator 1
 1670 00a6 6FF00404 		mvn	r4, #4
 1671 00aa BEE7     		b	.L131
 1672              	.L140:
 1673              		.align	2
 1674              	.L139:
 1675 00ac 00000000 		.word	.LANCHOR2
 1676 00b0 00000000 		.word	atiny_clear_rpt_list_node_data
 1677 00b4 00000000 		.word	.LANCHOR8
 1678 00b8 00000000 		.word	.LC2
 1679 00bc 00000000 		.word	.LC7
 1680              		.cfi_endproc
 1681              	.LFE155:
 1683              		.section	.text.atiny_step_rpt,"ax",%progbits
 1684              		.align	1
 1685              		.global	atiny_step_rpt
 1686              		.syntax unified
 1687              		.thumb
 1688              		.thumb_func
 1689              		.fpu fpv4-sp-d16
 1691              	atiny_step_rpt:
 1692              	.LFB156:
 389:C:/Users/lenovo/Desktop/liteos/Project2/BearPi_LiteOS/components/connectivity/agent_tiny/atiny_lwm2m\atiny_rpt.c **** 
 390:C:/Users/lenovo/Desktop/liteos/Project2/BearPi_LiteOS/components/connectivity/agent_tiny/atiny_lwm2m\atiny_rpt.c **** int atiny_step_rpt(lwm2m_context_t *context)
 391:C:/Users/lenovo/Desktop/liteos/Project2/BearPi_LiteOS/components/connectivity/agent_tiny/atiny_lwm2m\atiny_rpt.c **** {
 1693              		.loc 1 391 0
 1694              		.cfi_startproc
 1695              		@ args = 0, pretend = 0, frame = 0
 1696              		@ frame_needed = 0, uses_anonymous_args = 0
 1697              	.LVL230:
 1698 0000 38B5     		push	{r3, r4, r5, lr}
 1699              	.LCFI34:
 1700              		.cfi_def_cfa_offset 16
 1701              		.cfi_offset 3, -16
 1702              		.cfi_offset 4, -12
 1703              		.cfi_offset 5, -8
 1704              		.cfi_offset 14, -4
 1705 0002 0546     		mov	r5, r0
 392:C:/Users/lenovo/Desktop/liteos/Project2/BearPi_LiteOS/components/connectivity/agent_tiny/atiny_lwm2m\atiny_rpt.c ****     atiny_mutex_lock(g_mutex);
 1706              		.loc 1 392 0
ARM GAS  c:\Users\lenovo\AppData\Local\Temp\ccE9ZvNF.s 			page 41


 1707 0004 064C     		ldr	r4, .L143
 1708 0006 2068     		ldr	r0, [r4]
 1709              	.LVL231:
 1710 0008 FFF7FEFF 		bl	atiny_mutex_lock
 1711              	.LVL232:
 393:C:/Users/lenovo/Desktop/liteos/Project2/BearPi_LiteOS/components/connectivity/agent_tiny/atiny_lwm2m\atiny_rpt.c ****     atiny_visit_list(&g_atiny_rpt_table, atiny_notify_stack_rpt_data_change, context);
 1712              		.loc 1 393 0
 1713 000c 2A46     		mov	r2, r5
 1714 000e 0549     		ldr	r1, .L143+4
 1715 0010 0548     		ldr	r0, .L143+8
 1716 0012 FFF7FEFF 		bl	atiny_visit_list
 1717              	.LVL233:
 394:C:/Users/lenovo/Desktop/liteos/Project2/BearPi_LiteOS/components/connectivity/agent_tiny/atiny_lwm2m\atiny_rpt.c ****     atiny_mutex_unlock(g_mutex);
 1718              		.loc 1 394 0
 1719 0016 2068     		ldr	r0, [r4]
 1720 0018 FFF7FEFF 		bl	atiny_mutex_unlock
 1721              	.LVL234:
 395:C:/Users/lenovo/Desktop/liteos/Project2/BearPi_LiteOS/components/connectivity/agent_tiny/atiny_lwm2m\atiny_rpt.c ****     return ATINY_OK;
 396:C:/Users/lenovo/Desktop/liteos/Project2/BearPi_LiteOS/components/connectivity/agent_tiny/atiny_lwm2m\atiny_rpt.c **** }
 1722              		.loc 1 396 0
 1723 001c 0020     		movs	r0, #0
 1724 001e 38BD     		pop	{r3, r4, r5, pc}
 1725              	.LVL235:
 1726              	.L144:
 1727              		.align	2
 1728              	.L143:
 1729 0020 00000000 		.word	.LANCHOR2
 1730 0024 00000000 		.word	atiny_notify_stack_rpt_data_change
 1731 0028 00000000 		.word	.LANCHOR0
 1732              		.cfi_endproc
 1733              	.LFE156:
 1735              		.section	.text.atiny_destroy_rpt,"ax",%progbits
 1736              		.align	1
 1737              		.global	atiny_destroy_rpt
 1738              		.syntax unified
 1739              		.thumb
 1740              		.thumb_func
 1741              		.fpu fpv4-sp-d16
 1743              	atiny_destroy_rpt:
 1744              	.LFB157:
 397:C:/Users/lenovo/Desktop/liteos/Project2/BearPi_LiteOS/components/connectivity/agent_tiny/atiny_lwm2m\atiny_rpt.c **** 
 398:C:/Users/lenovo/Desktop/liteos/Project2/BearPi_LiteOS/components/connectivity/agent_tiny/atiny_lwm2m\atiny_rpt.c **** void atiny_destroy_rpt(void)
 399:C:/Users/lenovo/Desktop/liteos/Project2/BearPi_LiteOS/components/connectivity/agent_tiny/atiny_lwm2m\atiny_rpt.c **** {
 1745              		.loc 1 399 0
 1746              		.cfi_startproc
 1747              		@ args = 0, pretend = 0, frame = 0
 1748              		@ frame_needed = 0, uses_anonymous_args = 0
 1749 0000 10B5     		push	{r4, lr}
 1750              	.LCFI35:
 1751              		.cfi_def_cfa_offset 8
 1752              		.cfi_offset 4, -8
 1753              		.cfi_offset 14, -4
 400:C:/Users/lenovo/Desktop/liteos/Project2/BearPi_LiteOS/components/connectivity/agent_tiny/atiny_lwm2m\atiny_rpt.c ****     atiny_free_list(&g_atiny_rpt_table, atiny_clear_rpt_list, (void *)NOT_SENT);
 1754              		.loc 1 400 0
 1755 0002 0022     		movs	r2, #0
 1756 0004 0549     		ldr	r1, .L147
 1757 0006 0648     		ldr	r0, .L147+4
ARM GAS  c:\Users\lenovo\AppData\Local\Temp\ccE9ZvNF.s 			page 42


 1758 0008 FFF7FEFF 		bl	atiny_free_list
 1759              	.LVL236:
 401:C:/Users/lenovo/Desktop/liteos/Project2/BearPi_LiteOS/components/connectivity/agent_tiny/atiny_lwm2m\atiny_rpt.c ****     atiny_mutex_destroy(g_mutex);
 1760              		.loc 1 401 0
 1761 000c 054C     		ldr	r4, .L147+8
 1762 000e 2068     		ldr	r0, [r4]
 1763 0010 FFF7FEFF 		bl	atiny_mutex_destroy
 1764              	.LVL237:
 402:C:/Users/lenovo/Desktop/liteos/Project2/BearPi_LiteOS/components/connectivity/agent_tiny/atiny_lwm2m\atiny_rpt.c ****     g_mutex = NULL;
 1765              		.loc 1 402 0
 1766 0014 0023     		movs	r3, #0
 1767 0016 2360     		str	r3, [r4]
 403:C:/Users/lenovo/Desktop/liteos/Project2/BearPi_LiteOS/components/connectivity/agent_tiny/atiny_lwm2m\atiny_rpt.c **** }
 1768              		.loc 1 403 0
 1769 0018 10BD     		pop	{r4, pc}
 1770              	.L148:
 1771 001a 00BF     		.align	2
 1772              	.L147:
 1773 001c 00000000 		.word	atiny_clear_rpt_list
 1774 0020 00000000 		.word	.LANCHOR0
 1775 0024 00000000 		.word	.LANCHOR2
 1776              		.cfi_endproc
 1777              	.LFE157:
 1779              		.section	.text.atiny_set_max_rpt_cnt,"ax",%progbits
 1780              		.align	1
 1781              		.global	atiny_set_max_rpt_cnt
 1782              		.syntax unified
 1783              		.thumb
 1784              		.thumb_func
 1785              		.fpu fpv4-sp-d16
 1787              	atiny_set_max_rpt_cnt:
 1788              	.LFB158:
 404:C:/Users/lenovo/Desktop/liteos/Project2/BearPi_LiteOS/components/connectivity/agent_tiny/atiny_lwm2m\atiny_rpt.c **** 
 405:C:/Users/lenovo/Desktop/liteos/Project2/BearPi_LiteOS/components/connectivity/agent_tiny/atiny_lwm2m\atiny_rpt.c **** int atiny_set_max_rpt_cnt(const lwm2m_uri_t *uri, uint32_t max_rpt_cnt)
 406:C:/Users/lenovo/Desktop/liteos/Project2/BearPi_LiteOS/components/connectivity/agent_tiny/atiny_lwm2m\atiny_rpt.c **** {
 1789              		.loc 1 406 0
 1790              		.cfi_startproc
 1791              		@ args = 0, pretend = 0, frame = 0
 1792              		@ frame_needed = 0, uses_anonymous_args = 0
 1793              	.LVL238:
 1794 0000 30B5     		push	{r4, r5, lr}
 1795              	.LCFI36:
 1796              		.cfi_def_cfa_offset 12
 1797              		.cfi_offset 4, -12
 1798              		.cfi_offset 5, -8
 1799              		.cfi_offset 14, -4
 1800 0002 87B0     		sub	sp, sp, #28
 1801              	.LCFI37:
 1802              		.cfi_def_cfa_offset 40
 1803 0004 0446     		mov	r4, r0
 1804 0006 0D46     		mov	r5, r1
 1805              	.LVL239:
 407:C:/Users/lenovo/Desktop/liteos/Project2/BearPi_LiteOS/components/connectivity/agent_tiny/atiny_lwm2m\atiny_rpt.c ****     int ret = ATINY_RESOURCE_NOT_FOUND;
 408:C:/Users/lenovo/Desktop/liteos/Project2/BearPi_LiteOS/components/connectivity/agent_tiny/atiny_lwm2m\atiny_rpt.c **** 
 409:C:/Users/lenovo/Desktop/liteos/Project2/BearPi_LiteOS/components/connectivity/agent_tiny/atiny_lwm2m\atiny_rpt.c ****     atiny_mutex_lock(g_mutex);
 1806              		.loc 1 409 0
 1807 0008 184B     		ldr	r3, .L156
ARM GAS  c:\Users\lenovo\AppData\Local\Temp\ccE9ZvNF.s 			page 43


 1808 000a 1868     		ldr	r0, [r3]
 1809              	.LVL240:
 1810 000c FFF7FEFF 		bl	atiny_mutex_lock
 1811              	.LVL241:
 1812              	.LBB64:
 410:C:/Users/lenovo/Desktop/liteos/Project2/BearPi_LiteOS/components/connectivity/agent_tiny/atiny_lwm2m\atiny_rpt.c **** 
 411:C:/Users/lenovo/Desktop/liteos/Project2/BearPi_LiteOS/components/connectivity/agent_tiny/atiny_lwm2m\atiny_rpt.c ****     do
 412:C:/Users/lenovo/Desktop/liteos/Project2/BearPi_LiteOS/components/connectivity/agent_tiny/atiny_lwm2m\atiny_rpt.c ****     {
 413:C:/Users/lenovo/Desktop/liteos/Project2/BearPi_LiteOS/components/connectivity/agent_tiny/atiny_lwm2m\atiny_rpt.c ****         atiny_rpt_list_t *rpt_list;
 414:C:/Users/lenovo/Desktop/liteos/Project2/BearPi_LiteOS/components/connectivity/agent_tiny/atiny_lwm2m\atiny_rpt.c **** 
 415:C:/Users/lenovo/Desktop/liteos/Project2/BearPi_LiteOS/components/connectivity/agent_tiny/atiny_lwm2m\atiny_rpt.c ****         rpt_list = atiny_find_rpt_list(uri);
 1813              		.loc 1 415 0
 1814 0010 2046     		mov	r0, r4
 1815 0012 FFF7FEFF 		bl	atiny_find_rpt_list
 1816              	.LVL242:
 416:C:/Users/lenovo/Desktop/liteos/Project2/BearPi_LiteOS/components/connectivity/agent_tiny/atiny_lwm2m\atiny_rpt.c **** 
 417:C:/Users/lenovo/Desktop/liteos/Project2/BearPi_LiteOS/components/connectivity/agent_tiny/atiny_lwm2m\atiny_rpt.c ****         if (NULL == rpt_list)
 1817              		.loc 1 417 0
 1818 0016 40B1     		cbz	r0, .L154
 418:C:/Users/lenovo/Desktop/liteos/Project2/BearPi_LiteOS/components/connectivity/agent_tiny/atiny_lwm2m\atiny_rpt.c ****         {
 419:C:/Users/lenovo/Desktop/liteos/Project2/BearPi_LiteOS/components/connectivity/agent_tiny/atiny_lwm2m\atiny_rpt.c ****             ATINY_LOG(LOG_ERR, "uri rpt list not exit," URI_FORMAT, URI_LOG_PARAM(uri));
 420:C:/Users/lenovo/Desktop/liteos/Project2/BearPi_LiteOS/components/connectivity/agent_tiny/atiny_lwm2m\atiny_rpt.c ****             break;
 421:C:/Users/lenovo/Desktop/liteos/Project2/BearPi_LiteOS/components/connectivity/agent_tiny/atiny_lwm2m\atiny_rpt.c ****         }
 422:C:/Users/lenovo/Desktop/liteos/Project2/BearPi_LiteOS/components/connectivity/agent_tiny/atiny_lwm2m\atiny_rpt.c **** 
 423:C:/Users/lenovo/Desktop/liteos/Project2/BearPi_LiteOS/components/connectivity/agent_tiny/atiny_lwm2m\atiny_rpt.c ****         rpt_list->max_cnt = max_rpt_cnt;
 1819              		.loc 1 423 0
 1820 0018 C561     		str	r5, [r0, #28]
 1821              	.LVL243:
 424:C:/Users/lenovo/Desktop/liteos/Project2/BearPi_LiteOS/components/connectivity/agent_tiny/atiny_lwm2m\atiny_rpt.c ****         ret = ATINY_OK;
 1822              		.loc 1 424 0
 1823 001a 0024     		movs	r4, #0
 1824              	.LVL244:
 1825              	.L151:
 1826              	.LBE64:
 425:C:/Users/lenovo/Desktop/liteos/Project2/BearPi_LiteOS/components/connectivity/agent_tiny/atiny_lwm2m\atiny_rpt.c ****     }
 426:C:/Users/lenovo/Desktop/liteos/Project2/BearPi_LiteOS/components/connectivity/agent_tiny/atiny_lwm2m\atiny_rpt.c ****     while (0);
 427:C:/Users/lenovo/Desktop/liteos/Project2/BearPi_LiteOS/components/connectivity/agent_tiny/atiny_lwm2m\atiny_rpt.c **** 
 428:C:/Users/lenovo/Desktop/liteos/Project2/BearPi_LiteOS/components/connectivity/agent_tiny/atiny_lwm2m\atiny_rpt.c ****     atiny_mutex_unlock(g_mutex);
 1827              		.loc 1 428 0
 1828 001c 134B     		ldr	r3, .L156
 1829 001e 1868     		ldr	r0, [r3]
 1830 0020 FFF7FEFF 		bl	atiny_mutex_unlock
 1831              	.LVL245:
 429:C:/Users/lenovo/Desktop/liteos/Project2/BearPi_LiteOS/components/connectivity/agent_tiny/atiny_lwm2m\atiny_rpt.c **** 
 430:C:/Users/lenovo/Desktop/liteos/Project2/BearPi_LiteOS/components/connectivity/agent_tiny/atiny_lwm2m\atiny_rpt.c ****     return ret;
 431:C:/Users/lenovo/Desktop/liteos/Project2/BearPi_LiteOS/components/connectivity/agent_tiny/atiny_lwm2m\atiny_rpt.c **** }
 1832              		.loc 1 431 0
 1833 0024 2046     		mov	r0, r4
 1834 0026 07B0     		add	sp, sp, #28
 1835              	.LCFI38:
 1836              		.cfi_remember_state
 1837              		.cfi_def_cfa_offset 12
 1838              		@ sp needed
 1839 0028 30BD     		pop	{r4, r5, pc}
 1840              	.LVL246:
 1841              	.L154:
 1842              	.LCFI39:
ARM GAS  c:\Users\lenovo\AppData\Local\Temp\ccE9ZvNF.s 			page 44


 1843              		.cfi_restore_state
 1844              	.LBB65:
 419:C:/Users/lenovo/Desktop/liteos/Project2/BearPi_LiteOS/components/connectivity/agent_tiny/atiny_lwm2m\atiny_rpt.c ****             break;
 1845              		.loc 1 419 0
 1846 002a FFF7FEFF 		bl	atiny_get_log_level
 1847              	.LVL247:
 1848 002e 0328     		cmp	r0, #3
 1849 0030 02D9     		bls	.L155
 1850              	.LBE65:
 407:C:/Users/lenovo/Desktop/liteos/Project2/BearPi_LiteOS/components/connectivity/agent_tiny/atiny_lwm2m\atiny_rpt.c **** 
 1851              		.loc 1 407 0
 1852 0032 6FF00404 		mvn	r4, #4
 1853              	.LVL248:
 1854 0036 F1E7     		b	.L151
 1855              	.LVL249:
 1856              	.L155:
 1857              	.LBB66:
 419:C:/Users/lenovo/Desktop/liteos/Project2/BearPi_LiteOS/components/connectivity/agent_tiny/atiny_lwm2m\atiny_rpt.c ****             break;
 1858              		.loc 1 419 0 discriminator 1
 1859 0038 0320     		movs	r0, #3
 1860 003a FFF7FEFF 		bl	atiny_get_log_level_name
 1861              	.LVL250:
 1862 003e 0546     		mov	r5, r0
 1863              	.LVL251:
 1864 0040 FFF7FEFF 		bl	atiny_gettime_ms
 1865              	.LVL252:
 1866 0044 2378     		ldrb	r3, [r4]	@ zero_extendqisi2
 1867 0046 6288     		ldrh	r2, [r4, #2]
 1868 0048 A188     		ldrh	r1, [r4, #4]
 1869 004a E488     		ldrh	r4, [r4, #6]
 1870              	.LVL253:
 1871 004c 0494     		str	r4, [sp, #16]
 1872 004e 0391     		str	r1, [sp, #12]
 1873 0050 0292     		str	r2, [sp, #8]
 1874 0052 0193     		str	r3, [sp, #4]
 1875 0054 40F2A313 		movw	r3, #419
 1876 0058 0093     		str	r3, [sp]
 1877 005a 054B     		ldr	r3, .L156+4
 1878 005c 0246     		mov	r2, r0
 1879 005e 2946     		mov	r1, r5
 1880 0060 0448     		ldr	r0, .L156+8
 1881 0062 FFF7FEFF 		bl	atiny_printf
 1882              	.LVL254:
 1883              	.LBE66:
 407:C:/Users/lenovo/Desktop/liteos/Project2/BearPi_LiteOS/components/connectivity/agent_tiny/atiny_lwm2m\atiny_rpt.c **** 
 1884              		.loc 1 407 0 discriminator 1
 1885 0066 6FF00404 		mvn	r4, #4
 1886 006a D7E7     		b	.L151
 1887              	.L157:
 1888              		.align	2
 1889              	.L156:
 1890 006c 00000000 		.word	.LANCHOR2
 1891 0070 00000000 		.word	.LANCHOR9
 1892 0074 00000000 		.word	.LC7
 1893              		.cfi_endproc
 1894              	.LFE158:
 1896              		.section	.bss.g_atiny_rpt_table,"aw",%nobits
ARM GAS  c:\Users\lenovo\AppData\Local\Temp\ccE9ZvNF.s 			page 45


 1897              		.align	2
 1898              		.set	.LANCHOR0,. + 0
 1901              	g_atiny_rpt_table:
 1902 0000 00000000 		.space	8
 1902      00000000 
 1903              		.section	.bss.g_mutex,"aw",%nobits
 1904              		.align	2
 1905              		.set	.LANCHOR2,. + 0
 1908              	g_mutex:
 1909 0000 00000000 		.space	4
 1910              		.section	.rodata.__FUNCTION__.11007,"a",%progbits
 1911              		.align	2
 1912              		.set	.LANCHOR1,. + 0
 1915              	__FUNCTION__.11007:
 1916 0000 6174696E 		.ascii	"atiny_notify_stack_rpt_data_change\000"
 1916      795F6E6F 
 1916      74696679 
 1916      5F737461 
 1916      636B5F72 
 1917              		.section	.rodata.__FUNCTION__.11011,"a",%progbits
 1918              		.align	2
 1919              		.set	.LANCHOR3,. + 0
 1922              	__FUNCTION__.11011:
 1923 0000 6174696E 		.ascii	"atiny_init_rpt\000"
 1923      795F696E 
 1923      69745F72 
 1923      707400
 1924              		.section	.rodata.__FUNCTION__.11018,"a",%progbits
 1925              		.align	2
 1926              		.set	.LANCHOR4,. + 0
 1929              	__FUNCTION__.11018:
 1930 0000 6174696E 		.ascii	"atiny_add_rpt_uri\000"
 1930      795F6164 
 1930      645F7270 
 1930      745F7572 
 1930      6900
 1931              		.section	.rodata.__FUNCTION__.11024,"a",%progbits
 1932              		.align	2
 1933              		.set	.LANCHOR5,. + 0
 1936              	__FUNCTION__.11024:
 1937 0000 6174696E 		.ascii	"atiny_rm_rpt_uri\000"
 1937      795F726D 
 1937      5F727074 
 1937      5F757269 
 1937      00
 1938              		.section	.rodata.__FUNCTION__.11032,"a",%progbits
 1939              		.align	2
 1940              		.set	.LANCHOR6,. + 0
 1943              	__FUNCTION__.11032:
 1944 0000 6174696E 		.ascii	"atiny_dequeue_rpt_data\000"
 1944      795F6465 
 1944      71756575 
 1944      655F7270 
 1944      745F6461 
 1945              		.section	.rodata.__FUNCTION__.11040,"a",%progbits
 1946              		.align	2
 1947              		.set	.LANCHOR7,. + 0
ARM GAS  c:\Users\lenovo\AppData\Local\Temp\ccE9ZvNF.s 			page 46


 1950              	__FUNCTION__.11040:
 1951 0000 6174696E 		.ascii	"atiny_queue_rpt_data\000"
 1951      795F7175 
 1951      6575655F 
 1951      7270745F 
 1951      64617461 
 1952              		.section	.rodata.__FUNCTION__.11049,"a",%progbits
 1953              		.align	2
 1954              		.set	.LANCHOR8,. + 0
 1957              	__FUNCTION__.11049:
 1958 0000 6174696E 		.ascii	"atiny_clear_rpt_data\000"
 1958      795F636C 
 1958      6561725F 
 1958      7270745F 
 1958      64617461 
 1959              		.section	.rodata.__FUNCTION__.11064,"a",%progbits
 1960              		.align	2
 1961              		.set	.LANCHOR9,. + 0
 1964              	__FUNCTION__.11064:
 1965 0000 6174696E 		.ascii	"atiny_set_max_rpt_cnt\000"
 1965      795F7365 
 1965      745F6D61 
 1965      785F7270 
 1965      745F636E 
 1966              		.section	.rodata.atiny_add_rpt_uri.str1.4,"aMS",%progbits,1
 1967              		.align	2
 1968              	.LC2:
 1969 0000 5B25735D 		.ascii	"[%s][%u][%s:%d] null point\015\012\000"
 1969      5B25755D 
 1969      5B25733A 
 1969      25645D20 
 1969      6E756C6C 
 1970 001d 000000   		.space	3
 1971              	.LC3:
 1972 0020 5B25735D 		.ascii	"[%s][%u][%s:%d] uri exist,uri(flag:0x%x, objId:%d, "
 1972      5B25755D 
 1972      5B25733A 
 1972      25645D20 
 1972      75726920 
 1973 0053 696E7374 		.ascii	"instId:%d, resId:%d)\015\012\000"
 1973      49643A25 
 1973      642C2072 
 1973      65734964 
 1973      3A256429 
 1974 006a 0000     		.space	2
 1975              	.LC4:
 1976 006c 5B25735D 		.ascii	"[%s][%u][%s:%d] lwm2m_malloc fail,uri(flag:0x%x, ob"
 1976      5B25755D 
 1976      5B25733A 
 1976      25645D20 
 1976      6C776D32 
 1977 009f 6A49643A 		.ascii	"jId:%d, instId:%d, resId:%d)\015\012\000"
 1977      25642C20 
 1977      696E7374 
 1977      49643A25 
 1977      642C2072 
 1978              		.section	.rodata.atiny_dequeue_rpt_data.str1.4,"aMS",%progbits,1
ARM GAS  c:\Users\lenovo\AppData\Local\Temp\ccE9ZvNF.s 			page 47


 1979              		.align	2
 1980              	.LC6:
 1981 0000 5B25735D 		.ascii	"[%s][%u][%s:%d] dequeue empty rpt list\015\012\000"
 1981      5B25755D 
 1981      5B25733A 
 1981      25645D20 
 1981      64657175 
 1982              		.section	.rodata.atiny_init_rpt.str1.4,"aMS",%progbits,1
 1983              		.align	2
 1984              	.LC1:
 1985 0000 5B25735D 		.ascii	"[%s][%u][%s:%d] atiny_mutex_create fail\015\012\000"
 1985      5B25755D 
 1985      5B25733A 
 1985      25645D20 
 1985      6174696E 
 1986              		.section	.rodata.atiny_notify_stack_rpt_data_change.str1.4,"aMS",%progbits,1
 1987              		.align	2
 1988              	.LC0:
 1989 0000 5B25735D 		.ascii	"[%s][%u][%s:%d] data change cnt %d uri(flag:0x%x, o"
 1989      5B25755D 
 1989      5B25733A 
 1989      25645D20 
 1989      64617461 
 1990 0033 626A4964 		.ascii	"bjId:%d, instId:%d, resId:%d)\015\012\000"
 1990      3A25642C 
 1990      20696E73 
 1990      7449643A 
 1990      25642C20 
 1991              		.section	.rodata.atiny_queue_rpt_data.str1.4,"aMS",%progbits,1
 1992              		.align	2
 1993              	.LC7:
 1994 0000 5B25735D 		.ascii	"[%s][%u][%s:%d] uri rpt list not exit,uri(flag:0x%x"
 1994      5B25755D 
 1994      5B25733A 
 1994      25645D20 
 1994      75726920 
 1995 0033 2C206F62 		.ascii	", objId:%d, instId:%d, resId:%d)\015\012\000"
 1995      6A49643A 
 1995      25642C20 
 1995      696E7374 
 1995      49643A25 
 1996 0056 0000     		.space	2
 1997              	.LC8:
 1998 0058 5B25735D 		.ascii	"[%s][%u][%s:%d] uri rpt exceed rpt cnt %d max cnt %"
 1998      5B25755D 
 1998      5B25733A 
 1998      25645D20 
 1998      75726920 
 1999 008b 642C7572 		.ascii	"d,uri(flag:0x%x, objId:%d, instId:%d, resId:%d)\015"
 1999      6928666C 
 1999      61673A30 
 1999      7825782C 
 1999      206F626A 
 2000 00bb 0A00     		.ascii	"\012\000"
 2001 00bd 000000   		.space	3
 2002              	.LC9:
 2003 00c0 5B25735D 		.ascii	"[%s][%u][%s:%d] malloc fail,uri(flag:0x%x, objId:%d"
ARM GAS  c:\Users\lenovo\AppData\Local\Temp\ccE9ZvNF.s 			page 48


 2003      5B25755D 
 2003      5B25733A 
 2003      25645D20 
 2003      6D616C6C 
 2004 00f3 2C20696E 		.ascii	", instId:%d, resId:%d)\015\012\000"
 2004      73744964 
 2004      3A25642C 
 2004      20726573 
 2004      49643A25 
 2005              		.section	.rodata.atiny_rm_rpt_uri.str1.4,"aMS",%progbits,1
 2006              		.align	2
 2007              	.LC5:
 2008 0000 5B25735D 		.ascii	"[%s][%u][%s:%d] uri not exit,uri(flag:0x%x, objId:%"
 2008      5B25755D 
 2008      5B25733A 
 2008      25645D20 
 2008      75726920 
 2009 0033 642C2069 		.ascii	"d, instId:%d, resId:%d)\015\012\000"
 2009      6E737449 
 2009      643A2564 
 2009      2C207265 
 2009      7349643A 
 2010              		.text
 2011              	.Letext0:
 2012              		.file 3 "c:\\program files (x86)\\liteos studio\\resources\\arm-none-eabi\\arm-none-eabi\\include\
 2013              		.file 4 "c:\\program files (x86)\\liteos studio\\resources\\arm-none-eabi\\arm-none-eabi\\include\
 2014              		.file 5 "C:/Users/lenovo/Desktop/liteos/Project2/BearPi_LiteOS/components/connectivity/lwm2m/core/
 2015              		.file 6 "c:\\program files (x86)\\liteos studio\\resources\\arm-none-eabi\\lib\\gcc\\arm-none-eabi
 2016              		.file 7 "c:\\program files (x86)\\liteos studio\\resources\\arm-none-eabi\\arm-none-eabi\\include\
 2017              		.file 8 "c:\\program files (x86)\\liteos studio\\resources\\arm-none-eabi\\arm-none-eabi\\include\
 2018              		.file 9 "c:\\program files (x86)\\liteos studio\\resources\\arm-none-eabi\\arm-none-eabi\\include\
 2019              		.file 10 "c:\\program files (x86)\\liteos studio\\resources\\arm-none-eabi\\arm-none-eabi\\include
 2020              		.file 11 "c:\\program files (x86)\\liteos studio\\resources\\arm-none-eabi\\arm-none-eabi\\include
 2021              		.file 12 "C:/Users/lenovo/Desktop/liteos/Project2/BearPi_LiteOS/components/connectivity/lwm2m/core
 2022              		.file 13 "C:/Users/lenovo/Desktop/liteos/Project2/BearPi_LiteOS/kernel/include/los_typedef.h"
 2023              		.file 14 "C:/Users/lenovo/Desktop/liteos/Project2/BearPi_LiteOS/arch/arm/common/cmsis/core_cm4.h"
 2024              		.file 15 "C:/Users/lenovo/Desktop/liteos/Project2/BearPi_LiteOS/targets/STM32L431_BearPi/Inc/syste
 2025              		.file 16 "C:/Users/lenovo/Desktop/liteos/Project2/BearPi_LiteOS/kernel/include/los_list.h"
 2026              		.file 17 "C:/Users/lenovo/Desktop/liteos/Project2/BearPi_LiteOS/kernel/include/los_err.h"
 2027              		.file 18 "C:/Users/lenovo/Desktop/liteos/Project2/BearPi_LiteOS/arch/arm/arm-m/include/los_hwi.h"
 2028              		.file 19 "C:/Users/lenovo/Desktop/liteos/Project2/BearPi_LiteOS/kernel/include/los_tick.h"
 2029              		.file 20 "C:/Users/lenovo/Desktop/liteos/Project2/BearPi_LiteOS/kernel/include/los_event.h"
 2030              		.file 21 "C:/Users/lenovo/Desktop/liteos/Project2/BearPi_LiteOS/kernel/include/los_task.h"
 2031              		.file 22 "C:/Users/lenovo/Desktop/liteos/Project2/BearPi_LiteOS/kernel/base/include/los_task.ph"
 2032              		.file 23 "C:/Users/lenovo/Desktop/liteos/Project2/BearPi_LiteOS/targets/STM32L431_BearPi/Inc/main.
 2033              		.file 24 "C:/Users/lenovo/Desktop/liteos/Project2/BearPi_LiteOS/targets/STM32L431_BearPi/OS_CONFIG
 2034              		.file 25 "C:/Users/lenovo/Desktop/liteos/Project2/BearPi_LiteOS/kernel/include/los_config.h"
 2035              		.file 26 "C:/Users/lenovo/Desktop/liteos/Project2/BearPi_LiteOS/components/connectivity/lwm2m/core
 2036              		.file 27 "C:/Users/lenovo/Desktop/liteos/Project2/BearPi_LiteOS/include/atiny_error.h"
 2037              		.file 28 "C:/Users/lenovo/Desktop/liteos/Project2/BearPi_LiteOS/include/log/atiny_log.h"
 2038              		.file 29 "C:/Users/lenovo/Desktop/liteos/Project2/BearPi_LiteOS/include/atiny_lwm2m/agenttiny.h"
 2039              		.file 30 "C:/Users/lenovo/Desktop/liteos/Project2/BearPi_LiteOS/components/connectivity/agent_tiny
 2040              		.file 31 "C:/Users/lenovo/Desktop/liteos/Project2/BearPi_LiteOS/include/osdepends/atiny_osdep.h"
 2041              		.file 32 "<built-in>"
ARM GAS  c:\Users\lenovo\AppData\Local\Temp\ccE9ZvNF.s 			page 49

