ARM GAS  c:\Users\lenovo\AppData\Local\Temp\ccJs0CHk.s 			page 1


   1              		.cpu cortex-m4
   2              		.eabi_attribute 27, 1
   3              		.eabi_attribute 28, 1
   4              		.eabi_attribute 20, 1
   5              		.eabi_attribute 21, 1
   6              		.eabi_attribute 23, 3
   7              		.eabi_attribute 24, 1
   8              		.eabi_attribute 25, 1
   9              		.eabi_attribute 26, 1
  10              		.eabi_attribute 30, 1
  11              		.eabi_attribute 34, 1
  12              		.eabi_attribute 18, 4
  13              		.file	"bc95.c"
  14              		.text
  15              	.Ltext0:
  16              		.cfi_sections	.debug_frame
  17              		.section	.text.nb_sock_to_idx,"ax",%progbits
  18              		.align	1
  19              		.syntax unified
  20              		.thumb
  21              		.thumb_func
  22              		.fpu fpv4-sp-d16
  24              	nb_sock_to_idx:
  25              	.LFB134:
  26              		.file 1 "C:/Users/lenovo/Desktop/liteos/Project2/BearPi_LiteOS/components/net/at_device/nb_bc95/bc
   1:C:/Users/lenovo/Desktop/liteos/Project2/BearPi_LiteOS/components/net/at_device/nb_bc95\bc95.c **** /*----------------------------------------------------------------------------
   2:C:/Users/lenovo/Desktop/liteos/Project2/BearPi_LiteOS/components/net/at_device/nb_bc95\bc95.c ****  * Copyright (c) <2016-2018>, <Huawei Technologies Co., Ltd>
   3:C:/Users/lenovo/Desktop/liteos/Project2/BearPi_LiteOS/components/net/at_device/nb_bc95\bc95.c ****  * All rights reserved.
   4:C:/Users/lenovo/Desktop/liteos/Project2/BearPi_LiteOS/components/net/at_device/nb_bc95\bc95.c ****  * Redistribution and use in source and binary forms, with or without modification,
   5:C:/Users/lenovo/Desktop/liteos/Project2/BearPi_LiteOS/components/net/at_device/nb_bc95\bc95.c ****  * are permitted provided that the following conditions are met:
   6:C:/Users/lenovo/Desktop/liteos/Project2/BearPi_LiteOS/components/net/at_device/nb_bc95\bc95.c ****  * 1. Redistributions of source code must retain the above copyright notice, this list of
   7:C:/Users/lenovo/Desktop/liteos/Project2/BearPi_LiteOS/components/net/at_device/nb_bc95\bc95.c ****  * conditions and the following disclaimer.
   8:C:/Users/lenovo/Desktop/liteos/Project2/BearPi_LiteOS/components/net/at_device/nb_bc95\bc95.c ****  * 2. Redistributions in binary form must reproduce the above copyright notice, this list
   9:C:/Users/lenovo/Desktop/liteos/Project2/BearPi_LiteOS/components/net/at_device/nb_bc95\bc95.c ****  * of conditions and the following disclaimer in the documentation and/or other materials
  10:C:/Users/lenovo/Desktop/liteos/Project2/BearPi_LiteOS/components/net/at_device/nb_bc95\bc95.c ****  * provided with the distribution.
  11:C:/Users/lenovo/Desktop/liteos/Project2/BearPi_LiteOS/components/net/at_device/nb_bc95\bc95.c ****  * 3. Neither the name of the copyright holder nor the names of its contributors may be used
  12:C:/Users/lenovo/Desktop/liteos/Project2/BearPi_LiteOS/components/net/at_device/nb_bc95\bc95.c ****  * to endorse or promote products derived from this software without specific prior written
  13:C:/Users/lenovo/Desktop/liteos/Project2/BearPi_LiteOS/components/net/at_device/nb_bc95\bc95.c ****  * permission.
  14:C:/Users/lenovo/Desktop/liteos/Project2/BearPi_LiteOS/components/net/at_device/nb_bc95\bc95.c ****  * THIS SOFTWARE IS PROVIDED BY THE COPYRIGHT HOLDERS AND CONTRIBUTORS
  15:C:/Users/lenovo/Desktop/liteos/Project2/BearPi_LiteOS/components/net/at_device/nb_bc95\bc95.c ****  * "AS IS" AND ANY EXPRESS OR IMPLIED WARRANTIES, INCLUDING, BUT NOT LIMITED TO,
  16:C:/Users/lenovo/Desktop/liteos/Project2/BearPi_LiteOS/components/net/at_device/nb_bc95\bc95.c ****  * THE IMPLIED WARRANTIES OF MERCHANTABILITY AND FITNESS FOR A PARTICULAR
  17:C:/Users/lenovo/Desktop/liteos/Project2/BearPi_LiteOS/components/net/at_device/nb_bc95\bc95.c ****  * PURPOSE ARE DISCLAIMED. IN NO EVENT SHALL THE COPYRIGHT HOLDER OR
  18:C:/Users/lenovo/Desktop/liteos/Project2/BearPi_LiteOS/components/net/at_device/nb_bc95\bc95.c ****  * CONTRIBUTORS BE LIABLE FOR ANY DIRECT, INDIRECT, INCIDENTAL, SPECIAL,
  19:C:/Users/lenovo/Desktop/liteos/Project2/BearPi_LiteOS/components/net/at_device/nb_bc95\bc95.c ****  * EXEMPLARY, OR CONSEQUENTIAL DAMAGES (INCLUDING, BUT NOT LIMITED TO,
  20:C:/Users/lenovo/Desktop/liteos/Project2/BearPi_LiteOS/components/net/at_device/nb_bc95\bc95.c ****  * PROCUREMENT OF SUBSTITUTE GOODS OR SERVICES; LOSS OF USE, DATA, OR PROFITS;
  21:C:/Users/lenovo/Desktop/liteos/Project2/BearPi_LiteOS/components/net/at_device/nb_bc95\bc95.c ****  * OR BUSINESS INTERRUPTION) HOWEVER CAUSED AND ON ANY THEORY OF LIABILITY,
  22:C:/Users/lenovo/Desktop/liteos/Project2/BearPi_LiteOS/components/net/at_device/nb_bc95\bc95.c ****  * WHETHER IN CONTRACT, STRICT LIABILITY, OR TORT (INCLUDING NEGLIGENCE OR
  23:C:/Users/lenovo/Desktop/liteos/Project2/BearPi_LiteOS/components/net/at_device/nb_bc95\bc95.c ****  * OTHERWISE) ARISING IN ANY WAY OUT OF THE USE OF THIS SOFTWARE, EVEN IF
  24:C:/Users/lenovo/Desktop/liteos/Project2/BearPi_LiteOS/components/net/at_device/nb_bc95\bc95.c ****  * ADVISED OF THE POSSIBILITY OF SUCH DAMAGE.
  25:C:/Users/lenovo/Desktop/liteos/Project2/BearPi_LiteOS/components/net/at_device/nb_bc95\bc95.c ****  *---------------------------------------------------------------------------*/
  26:C:/Users/lenovo/Desktop/liteos/Project2/BearPi_LiteOS/components/net/at_device/nb_bc95\bc95.c **** /*----------------------------------------------------------------------------
  27:C:/Users/lenovo/Desktop/liteos/Project2/BearPi_LiteOS/components/net/at_device/nb_bc95\bc95.c ****  * Notice of Export Control Law
  28:C:/Users/lenovo/Desktop/liteos/Project2/BearPi_LiteOS/components/net/at_device/nb_bc95\bc95.c ****  * ===============================================
  29:C:/Users/lenovo/Desktop/liteos/Project2/BearPi_LiteOS/components/net/at_device/nb_bc95\bc95.c ****  * Huawei LiteOS may be subject to applicable export control laws and regulations, which might
  30:C:/Users/lenovo/Desktop/liteos/Project2/BearPi_LiteOS/components/net/at_device/nb_bc95\bc95.c ****  * include those applicable to Huawei LiteOS of U.S. and the country in which you are located.
  31:C:/Users/lenovo/Desktop/liteos/Project2/BearPi_LiteOS/components/net/at_device/nb_bc95\bc95.c ****  * Import, export and usage of Huawei LiteOS in any manner by you shall be in compliance with such
  32:C:/Users/lenovo/Desktop/liteos/Project2/BearPi_LiteOS/components/net/at_device/nb_bc95\bc95.c ****  * applicable export control laws and regulations.
ARM GAS  c:\Users\lenovo\AppData\Local\Temp\ccJs0CHk.s 			page 2


  33:C:/Users/lenovo/Desktop/liteos/Project2/BearPi_LiteOS/components/net/at_device/nb_bc95\bc95.c ****  *---------------------------------------------------------------------------*/
  34:C:/Users/lenovo/Desktop/liteos/Project2/BearPi_LiteOS/components/net/at_device/nb_bc95\bc95.c **** #include <string.h>
  35:C:/Users/lenovo/Desktop/liteos/Project2/BearPi_LiteOS/components/net/at_device/nb_bc95\bc95.c **** #include <ctype.h>
  36:C:/Users/lenovo/Desktop/liteos/Project2/BearPi_LiteOS/components/net/at_device/nb_bc95\bc95.c **** #if defined(WITH_AT_FRAMEWORK)
  37:C:/Users/lenovo/Desktop/liteos/Project2/BearPi_LiteOS/components/net/at_device/nb_bc95\bc95.c **** #include "at_device/bc95.h"
  38:C:/Users/lenovo/Desktop/liteos/Project2/BearPi_LiteOS/components/net/at_device/nb_bc95\bc95.c **** #include "at_hal.h"
  39:C:/Users/lenovo/Desktop/liteos/Project2/BearPi_LiteOS/components/net/at_device/nb_bc95\bc95.c **** 
  40:C:/Users/lenovo/Desktop/liteos/Project2/BearPi_LiteOS/components/net/at_device/nb_bc95\bc95.c **** //#include "bc95_test.h"
  41:C:/Users/lenovo/Desktop/liteos/Project2/BearPi_LiteOS/components/net/at_device/nb_bc95\bc95.c **** 
  42:C:/Users/lenovo/Desktop/liteos/Project2/BearPi_LiteOS/components/net/at_device/nb_bc95\bc95.c **** 
  43:C:/Users/lenovo/Desktop/liteos/Project2/BearPi_LiteOS/components/net/at_device/nb_bc95\bc95.c **** 
  44:C:/Users/lenovo/Desktop/liteos/Project2/BearPi_LiteOS/components/net/at_device/nb_bc95\bc95.c **** 
  45:C:/Users/lenovo/Desktop/liteos/Project2/BearPi_LiteOS/components/net/at_device/nb_bc95\bc95.c **** extern at_task at;
  46:C:/Users/lenovo/Desktop/liteos/Project2/BearPi_LiteOS/components/net/at_device/nb_bc95\bc95.c **** at_adaptor_api bc95_interface;
  47:C:/Users/lenovo/Desktop/liteos/Project2/BearPi_LiteOS/components/net/at_device/nb_bc95\bc95.c **** extern char rbuf[AT_DATA_LEN];
  48:C:/Users/lenovo/Desktop/liteos/Project2/BearPi_LiteOS/components/net/at_device/nb_bc95\bc95.c **** extern char wbuf[AT_DATA_LEN];
  49:C:/Users/lenovo/Desktop/liteos/Project2/BearPi_LiteOS/components/net/at_device/nb_bc95\bc95.c **** 
  50:C:/Users/lenovo/Desktop/liteos/Project2/BearPi_LiteOS/components/net/at_device/nb_bc95\bc95.c **** 
  51:C:/Users/lenovo/Desktop/liteos/Project2/BearPi_LiteOS/components/net/at_device/nb_bc95\bc95.c **** typedef struct
  52:C:/Users/lenovo/Desktop/liteos/Project2/BearPi_LiteOS/components/net/at_device/nb_bc95\bc95.c **** {
  53:C:/Users/lenovo/Desktop/liteos/Project2/BearPi_LiteOS/components/net/at_device/nb_bc95\bc95.c ****     uint32_t data_len;
  54:C:/Users/lenovo/Desktop/liteos/Project2/BearPi_LiteOS/components/net/at_device/nb_bc95\bc95.c ****     int link_idx;
  55:C:/Users/lenovo/Desktop/liteos/Project2/BearPi_LiteOS/components/net/at_device/nb_bc95\bc95.c ****     bool valid_flag;
  56:C:/Users/lenovo/Desktop/liteos/Project2/BearPi_LiteOS/components/net/at_device/nb_bc95\bc95.c **** }nb_data_ind_info_s;
  57:C:/Users/lenovo/Desktop/liteos/Project2/BearPi_LiteOS/components/net/at_device/nb_bc95\bc95.c **** 
  58:C:/Users/lenovo/Desktop/liteos/Project2/BearPi_LiteOS/components/net/at_device/nb_bc95\bc95.c **** char tmpbuf[AT_DATA_LEN]={0}; //transform to hex
  59:C:/Users/lenovo/Desktop/liteos/Project2/BearPi_LiteOS/components/net/at_device/nb_bc95\bc95.c **** 
  60:C:/Users/lenovo/Desktop/liteos/Project2/BearPi_LiteOS/components/net/at_device/nb_bc95\bc95.c **** socket_info sockinfo[MAX_SOCK_NUM];
  61:C:/Users/lenovo/Desktop/liteos/Project2/BearPi_LiteOS/components/net/at_device/nb_bc95\bc95.c **** static nb_data_ind_info_s g_data_ind_info;
  62:C:/Users/lenovo/Desktop/liteos/Project2/BearPi_LiteOS/components/net/at_device/nb_bc95\bc95.c **** 
  63:C:/Users/lenovo/Desktop/liteos/Project2/BearPi_LiteOS/components/net/at_device/nb_bc95\bc95.c **** #if defined ( __CC_ARM ) || defined ( __ICCARM__ )
  64:C:/Users/lenovo/Desktop/liteos/Project2/BearPi_LiteOS/components/net/at_device/nb_bc95\bc95.c **** static char *strnstr(const char *s1, const char *s2, size_t len)
  65:C:/Users/lenovo/Desktop/liteos/Project2/BearPi_LiteOS/components/net/at_device/nb_bc95\bc95.c **** {
  66:C:/Users/lenovo/Desktop/liteos/Project2/BearPi_LiteOS/components/net/at_device/nb_bc95\bc95.c ****     size_t l2;
  67:C:/Users/lenovo/Desktop/liteos/Project2/BearPi_LiteOS/components/net/at_device/nb_bc95\bc95.c **** 
  68:C:/Users/lenovo/Desktop/liteos/Project2/BearPi_LiteOS/components/net/at_device/nb_bc95\bc95.c ****     l2 = strlen(s2);
  69:C:/Users/lenovo/Desktop/liteos/Project2/BearPi_LiteOS/components/net/at_device/nb_bc95\bc95.c ****     if (!l2)
  70:C:/Users/lenovo/Desktop/liteos/Project2/BearPi_LiteOS/components/net/at_device/nb_bc95\bc95.c ****         return (char *)s1;
  71:C:/Users/lenovo/Desktop/liteos/Project2/BearPi_LiteOS/components/net/at_device/nb_bc95\bc95.c ****     while (len >= l2) {
  72:C:/Users/lenovo/Desktop/liteos/Project2/BearPi_LiteOS/components/net/at_device/nb_bc95\bc95.c ****         len--;
  73:C:/Users/lenovo/Desktop/liteos/Project2/BearPi_LiteOS/components/net/at_device/nb_bc95\bc95.c ****         if (!memcmp(s1, s2, l2))
  74:C:/Users/lenovo/Desktop/liteos/Project2/BearPi_LiteOS/components/net/at_device/nb_bc95\bc95.c ****             return (char *)s1;
  75:C:/Users/lenovo/Desktop/liteos/Project2/BearPi_LiteOS/components/net/at_device/nb_bc95\bc95.c ****         s1++;
  76:C:/Users/lenovo/Desktop/liteos/Project2/BearPi_LiteOS/components/net/at_device/nb_bc95\bc95.c ****     }
  77:C:/Users/lenovo/Desktop/liteos/Project2/BearPi_LiteOS/components/net/at_device/nb_bc95\bc95.c ****     return NULL;
  78:C:/Users/lenovo/Desktop/liteos/Project2/BearPi_LiteOS/components/net/at_device/nb_bc95\bc95.c **** }
  79:C:/Users/lenovo/Desktop/liteos/Project2/BearPi_LiteOS/components/net/at_device/nb_bc95\bc95.c **** #endif
  80:C:/Users/lenovo/Desktop/liteos/Project2/BearPi_LiteOS/components/net/at_device/nb_bc95\bc95.c **** 
  81:C:/Users/lenovo/Desktop/liteos/Project2/BearPi_LiteOS/components/net/at_device/nb_bc95\bc95.c **** static int nb_alloc_sock(int socket)
  82:C:/Users/lenovo/Desktop/liteos/Project2/BearPi_LiteOS/components/net/at_device/nb_bc95\bc95.c **** {
  83:C:/Users/lenovo/Desktop/liteos/Project2/BearPi_LiteOS/components/net/at_device/nb_bc95\bc95.c ****     int idx;
  84:C:/Users/lenovo/Desktop/liteos/Project2/BearPi_LiteOS/components/net/at_device/nb_bc95\bc95.c **** 
  85:C:/Users/lenovo/Desktop/liteos/Project2/BearPi_LiteOS/components/net/at_device/nb_bc95\bc95.c ****     for (uint32_t i = 0; i < MAX_SOCK_NUM; ++i)
  86:C:/Users/lenovo/Desktop/liteos/Project2/BearPi_LiteOS/components/net/at_device/nb_bc95\bc95.c ****     {
  87:C:/Users/lenovo/Desktop/liteos/Project2/BearPi_LiteOS/components/net/at_device/nb_bc95\bc95.c ****         if (sockinfo[i].used_flag  && (sockinfo[i].socket == socket))
  88:C:/Users/lenovo/Desktop/liteos/Project2/BearPi_LiteOS/components/net/at_device/nb_bc95\bc95.c ****         {
  89:C:/Users/lenovo/Desktop/liteos/Project2/BearPi_LiteOS/components/net/at_device/nb_bc95\bc95.c ****             return i;
ARM GAS  c:\Users\lenovo\AppData\Local\Temp\ccJs0CHk.s 			page 3


  90:C:/Users/lenovo/Desktop/liteos/Project2/BearPi_LiteOS/components/net/at_device/nb_bc95\bc95.c ****         }
  91:C:/Users/lenovo/Desktop/liteos/Project2/BearPi_LiteOS/components/net/at_device/nb_bc95\bc95.c ****     }
  92:C:/Users/lenovo/Desktop/liteos/Project2/BearPi_LiteOS/components/net/at_device/nb_bc95\bc95.c **** 
  93:C:/Users/lenovo/Desktop/liteos/Project2/BearPi_LiteOS/components/net/at_device/nb_bc95\bc95.c ****     idx  = (socket % MAX_SOCK_NUM);
  94:C:/Users/lenovo/Desktop/liteos/Project2/BearPi_LiteOS/components/net/at_device/nb_bc95\bc95.c ****     if (!sockinfo[idx].used_flag)
  95:C:/Users/lenovo/Desktop/liteos/Project2/BearPi_LiteOS/components/net/at_device/nb_bc95\bc95.c ****     {
  96:C:/Users/lenovo/Desktop/liteos/Project2/BearPi_LiteOS/components/net/at_device/nb_bc95\bc95.c ****         return idx;
  97:C:/Users/lenovo/Desktop/liteos/Project2/BearPi_LiteOS/components/net/at_device/nb_bc95\bc95.c ****     }
  98:C:/Users/lenovo/Desktop/liteos/Project2/BearPi_LiteOS/components/net/at_device/nb_bc95\bc95.c **** 
  99:C:/Users/lenovo/Desktop/liteos/Project2/BearPi_LiteOS/components/net/at_device/nb_bc95\bc95.c ****     for (uint32_t i = 0; i < MAX_SOCK_NUM; ++i)
 100:C:/Users/lenovo/Desktop/liteos/Project2/BearPi_LiteOS/components/net/at_device/nb_bc95\bc95.c ****     {
 101:C:/Users/lenovo/Desktop/liteos/Project2/BearPi_LiteOS/components/net/at_device/nb_bc95\bc95.c ****         if (!sockinfo[i].used_flag)
 102:C:/Users/lenovo/Desktop/liteos/Project2/BearPi_LiteOS/components/net/at_device/nb_bc95\bc95.c ****         {
 103:C:/Users/lenovo/Desktop/liteos/Project2/BearPi_LiteOS/components/net/at_device/nb_bc95\bc95.c ****             return i;
 104:C:/Users/lenovo/Desktop/liteos/Project2/BearPi_LiteOS/components/net/at_device/nb_bc95\bc95.c ****         }
 105:C:/Users/lenovo/Desktop/liteos/Project2/BearPi_LiteOS/components/net/at_device/nb_bc95\bc95.c ****     }
 106:C:/Users/lenovo/Desktop/liteos/Project2/BearPi_LiteOS/components/net/at_device/nb_bc95\bc95.c ****     AT_LOG("save socket fail %d", socket);
 107:C:/Users/lenovo/Desktop/liteos/Project2/BearPi_LiteOS/components/net/at_device/nb_bc95\bc95.c ****     return MAX_SOCK_NUM;
 108:C:/Users/lenovo/Desktop/liteos/Project2/BearPi_LiteOS/components/net/at_device/nb_bc95\bc95.c **** }
 109:C:/Users/lenovo/Desktop/liteos/Project2/BearPi_LiteOS/components/net/at_device/nb_bc95\bc95.c **** 
 110:C:/Users/lenovo/Desktop/liteos/Project2/BearPi_LiteOS/components/net/at_device/nb_bc95\bc95.c **** static int nb_sock_to_idx(int socket)
 111:C:/Users/lenovo/Desktop/liteos/Project2/BearPi_LiteOS/components/net/at_device/nb_bc95\bc95.c **** {
  27              		.loc 1 111 0
  28              		.cfi_startproc
  29              		@ args = 0, pretend = 0, frame = 0
  30              		@ frame_needed = 0, uses_anonymous_args = 0
  31              		@ link register save eliminated.
  32              	.LVL0:
 112:C:/Users/lenovo/Desktop/liteos/Project2/BearPi_LiteOS/components/net/at_device/nb_bc95\bc95.c ****     int idx;
 113:C:/Users/lenovo/Desktop/liteos/Project2/BearPi_LiteOS/components/net/at_device/nb_bc95\bc95.c **** 
 114:C:/Users/lenovo/Desktop/liteos/Project2/BearPi_LiteOS/components/net/at_device/nb_bc95\bc95.c ****     idx  = (socket % MAX_SOCK_NUM);
  33              		.loc 1 114 0
  34 0000 174A     		ldr	r2, .L9
  35 0002 82FB0032 		smull	r3, r2, r2, r0
  36 0006 C317     		asrs	r3, r0, #31
  37 0008 C3EB6203 		rsb	r3, r3, r2, asr #1
  38 000c 03EB8303 		add	r3, r3, r3, lsl #2
  39 0010 C31A     		subs	r3, r0, r3
  40              	.LVL1:
 115:C:/Users/lenovo/Desktop/liteos/Project2/BearPi_LiteOS/components/net/at_device/nb_bc95\bc95.c **** 
 116:C:/Users/lenovo/Desktop/liteos/Project2/BearPi_LiteOS/components/net/at_device/nb_bc95\bc95.c ****     if (sockinfo[idx].used_flag && (socket == sockinfo[idx].socket))
  41              		.loc 1 116 0
  42 0012 1449     		ldr	r1, .L9+4
  43 0014 2C22     		movs	r2, #44
  44 0016 02FB0312 		mla	r2, r2, r3, r1
  45 001a 92F82820 		ldrb	r2, [r2, #40]	@ zero_extendqisi2
  46 001e 0AB9     		cbnz	r2, .L2
  47 0020 0023     		movs	r3, #0
  48              	.LVL2:
  49 0022 09E0     		b	.L3
  50              	.LVL3:
  51              	.L2:
  52              		.loc 1 116 0 is_stmt 0 discriminator 1
  53 0024 2C22     		movs	r2, #44
  54 0026 02FB03F2 		mul	r2, r2, r3
  55 002a 0E49     		ldr	r1, .L9+4
  56 002c 8A58     		ldr	r2, [r1, r2]
ARM GAS  c:\Users\lenovo\AppData\Local\Temp\ccJs0CHk.s 			page 4


  57 002e 8242     		cmp	r2, r0
  58 0030 14D0     		beq	.L1
  59 0032 0023     		movs	r3, #0
  60              	.LVL4:
  61 0034 00E0     		b	.L3
  62              	.LVL5:
  63              	.L6:
  64              	.LBB2:
 117:C:/Users/lenovo/Desktop/liteos/Project2/BearPi_LiteOS/components/net/at_device/nb_bc95\bc95.c ****     {
 118:C:/Users/lenovo/Desktop/liteos/Project2/BearPi_LiteOS/components/net/at_device/nb_bc95\bc95.c ****         return idx;
 119:C:/Users/lenovo/Desktop/liteos/Project2/BearPi_LiteOS/components/net/at_device/nb_bc95\bc95.c ****     }
 120:C:/Users/lenovo/Desktop/liteos/Project2/BearPi_LiteOS/components/net/at_device/nb_bc95\bc95.c **** 
 121:C:/Users/lenovo/Desktop/liteos/Project2/BearPi_LiteOS/components/net/at_device/nb_bc95\bc95.c ****     for (uint32_t i = 0; i < MAX_SOCK_NUM; ++i)
  65              		.loc 1 121 0 is_stmt 1 discriminator 2
  66 0036 0133     		adds	r3, r3, #1
  67              	.LVL6:
  68              	.L3:
  69              		.loc 1 121 0 is_stmt 0 discriminator 1
  70 0038 042B     		cmp	r3, #4
  71 003a 0ED8     		bhi	.L8
 122:C:/Users/lenovo/Desktop/liteos/Project2/BearPi_LiteOS/components/net/at_device/nb_bc95\bc95.c ****     {
 123:C:/Users/lenovo/Desktop/liteos/Project2/BearPi_LiteOS/components/net/at_device/nb_bc95\bc95.c ****         if (sockinfo[i].used_flag && (socket == sockinfo[i].socket))
  72              		.loc 1 123 0 is_stmt 1
  73 003c 0949     		ldr	r1, .L9+4
  74 003e 2C22     		movs	r2, #44
  75 0040 02FB0312 		mla	r2, r2, r3, r1
  76 0044 92F82820 		ldrb	r2, [r2, #40]	@ zero_extendqisi2
  77 0048 002A     		cmp	r2, #0
  78 004a F4D0     		beq	.L6
  79              		.loc 1 123 0 is_stmt 0 discriminator 1
  80 004c 2C22     		movs	r2, #44
  81 004e 02FB03F2 		mul	r2, r2, r3
  82 0052 8A58     		ldr	r2, [r1, r2]
  83 0054 8242     		cmp	r2, r0
  84 0056 EED1     		bne	.L6
  85 0058 00E0     		b	.L1
  86              	.L8:
  87              	.LBE2:
 124:C:/Users/lenovo/Desktop/liteos/Project2/BearPi_LiteOS/components/net/at_device/nb_bc95\bc95.c ****         {
 125:C:/Users/lenovo/Desktop/liteos/Project2/BearPi_LiteOS/components/net/at_device/nb_bc95\bc95.c ****             return i;
 126:C:/Users/lenovo/Desktop/liteos/Project2/BearPi_LiteOS/components/net/at_device/nb_bc95\bc95.c ****         }
 127:C:/Users/lenovo/Desktop/liteos/Project2/BearPi_LiteOS/components/net/at_device/nb_bc95\bc95.c ****     }
 128:C:/Users/lenovo/Desktop/liteos/Project2/BearPi_LiteOS/components/net/at_device/nb_bc95\bc95.c **** 
 129:C:/Users/lenovo/Desktop/liteos/Project2/BearPi_LiteOS/components/net/at_device/nb_bc95\bc95.c ****     return MAX_SOCK_NUM;
  88              		.loc 1 129 0 is_stmt 1
  89 005a 0523     		movs	r3, #5
  90              	.LVL7:
  91              	.L1:
 130:C:/Users/lenovo/Desktop/liteos/Project2/BearPi_LiteOS/components/net/at_device/nb_bc95\bc95.c **** }
  92              		.loc 1 130 0
  93 005c 1846     		mov	r0, r3
  94              	.LVL8:
  95 005e 7047     		bx	lr
  96              	.L10:
  97              		.align	2
  98              	.L9:
  99 0060 67666666 		.word	1717986919
ARM GAS  c:\Users\lenovo\AppData\Local\Temp\ccJs0CHk.s 			page 5


 100 0064 00000000 		.word	sockinfo
 101              		.cfi_endproc
 102              	.LFE134:
 104              		.section	.text.nb_recv_cb,"ax",%progbits
 105              		.align	1
 106              		.global	nb_recv_cb
 107              		.syntax unified
 108              		.thumb
 109              		.thumb_func
 110              		.fpu fpv4-sp-d16
 112              	nb_recv_cb:
 113              	.LFB162:
 131:C:/Users/lenovo/Desktop/liteos/Project2/BearPi_LiteOS/components/net/at_device/nb_bc95\bc95.c **** 
 132:C:/Users/lenovo/Desktop/liteos/Project2/BearPi_LiteOS/components/net/at_device/nb_bc95\bc95.c **** int str_to_hex(const char *bufin, int len, char *bufout)
 133:C:/Users/lenovo/Desktop/liteos/Project2/BearPi_LiteOS/components/net/at_device/nb_bc95\bc95.c **** {
 134:C:/Users/lenovo/Desktop/liteos/Project2/BearPi_LiteOS/components/net/at_device/nb_bc95\bc95.c ****     int i = 0;
 135:C:/Users/lenovo/Desktop/liteos/Project2/BearPi_LiteOS/components/net/at_device/nb_bc95\bc95.c ****     if (NULL == bufin || len <= 0 || NULL == bufout)
 136:C:/Users/lenovo/Desktop/liteos/Project2/BearPi_LiteOS/components/net/at_device/nb_bc95\bc95.c ****     {
 137:C:/Users/lenovo/Desktop/liteos/Project2/BearPi_LiteOS/components/net/at_device/nb_bc95\bc95.c ****         return -1;
 138:C:/Users/lenovo/Desktop/liteos/Project2/BearPi_LiteOS/components/net/at_device/nb_bc95\bc95.c ****     }
 139:C:/Users/lenovo/Desktop/liteos/Project2/BearPi_LiteOS/components/net/at_device/nb_bc95\bc95.c ****     for(i = 0; i < len; i++)
 140:C:/Users/lenovo/Desktop/liteos/Project2/BearPi_LiteOS/components/net/at_device/nb_bc95\bc95.c ****     {
 141:C:/Users/lenovo/Desktop/liteos/Project2/BearPi_LiteOS/components/net/at_device/nb_bc95\bc95.c ****         sprintf(bufout+i*2, "%02X", bufin[i]);
 142:C:/Users/lenovo/Desktop/liteos/Project2/BearPi_LiteOS/components/net/at_device/nb_bc95\bc95.c ****     }
 143:C:/Users/lenovo/Desktop/liteos/Project2/BearPi_LiteOS/components/net/at_device/nb_bc95\bc95.c ****     return 0;
 144:C:/Users/lenovo/Desktop/liteos/Project2/BearPi_LiteOS/components/net/at_device/nb_bc95\bc95.c **** }
 145:C:/Users/lenovo/Desktop/liteos/Project2/BearPi_LiteOS/components/net/at_device/nb_bc95\bc95.c **** 
 146:C:/Users/lenovo/Desktop/liteos/Project2/BearPi_LiteOS/components/net/at_device/nb_bc95\bc95.c **** void HexStrToStr(const unsigned char *source, unsigned char *dest, int sourceLen)
 147:C:/Users/lenovo/Desktop/liteos/Project2/BearPi_LiteOS/components/net/at_device/nb_bc95\bc95.c **** {
 148:C:/Users/lenovo/Desktop/liteos/Project2/BearPi_LiteOS/components/net/at_device/nb_bc95\bc95.c ****     short i;
 149:C:/Users/lenovo/Desktop/liteos/Project2/BearPi_LiteOS/components/net/at_device/nb_bc95\bc95.c ****     unsigned char highByte, lowByte;
 150:C:/Users/lenovo/Desktop/liteos/Project2/BearPi_LiteOS/components/net/at_device/nb_bc95\bc95.c ****     for (i = 0; i < sourceLen; i += 2)
 151:C:/Users/lenovo/Desktop/liteos/Project2/BearPi_LiteOS/components/net/at_device/nb_bc95\bc95.c ****     {
 152:C:/Users/lenovo/Desktop/liteos/Project2/BearPi_LiteOS/components/net/at_device/nb_bc95\bc95.c ****         highByte = toupper(source[i]);
 153:C:/Users/lenovo/Desktop/liteos/Project2/BearPi_LiteOS/components/net/at_device/nb_bc95\bc95.c ****         lowByte  = toupper(source[i + 1]);
 154:C:/Users/lenovo/Desktop/liteos/Project2/BearPi_LiteOS/components/net/at_device/nb_bc95\bc95.c ****         if (highByte > 0x39)
 155:C:/Users/lenovo/Desktop/liteos/Project2/BearPi_LiteOS/components/net/at_device/nb_bc95\bc95.c ****             highByte -= 0x37;
 156:C:/Users/lenovo/Desktop/liteos/Project2/BearPi_LiteOS/components/net/at_device/nb_bc95\bc95.c ****         else
 157:C:/Users/lenovo/Desktop/liteos/Project2/BearPi_LiteOS/components/net/at_device/nb_bc95\bc95.c ****             highByte -= 0x30;
 158:C:/Users/lenovo/Desktop/liteos/Project2/BearPi_LiteOS/components/net/at_device/nb_bc95\bc95.c ****         if (lowByte > 0x39)
 159:C:/Users/lenovo/Desktop/liteos/Project2/BearPi_LiteOS/components/net/at_device/nb_bc95\bc95.c ****             lowByte -= 0x37;
 160:C:/Users/lenovo/Desktop/liteos/Project2/BearPi_LiteOS/components/net/at_device/nb_bc95\bc95.c ****         else
 161:C:/Users/lenovo/Desktop/liteos/Project2/BearPi_LiteOS/components/net/at_device/nb_bc95\bc95.c ****             lowByte -= 0x30;
 162:C:/Users/lenovo/Desktop/liteos/Project2/BearPi_LiteOS/components/net/at_device/nb_bc95\bc95.c ****         dest[i / 2] = (highByte << 4) | lowByte;
 163:C:/Users/lenovo/Desktop/liteos/Project2/BearPi_LiteOS/components/net/at_device/nb_bc95\bc95.c ****     }
 164:C:/Users/lenovo/Desktop/liteos/Project2/BearPi_LiteOS/components/net/at_device/nb_bc95\bc95.c ****     return ;
 165:C:/Users/lenovo/Desktop/liteos/Project2/BearPi_LiteOS/components/net/at_device/nb_bc95\bc95.c **** }
 166:C:/Users/lenovo/Desktop/liteos/Project2/BearPi_LiteOS/components/net/at_device/nb_bc95\bc95.c **** 
 167:C:/Users/lenovo/Desktop/liteos/Project2/BearPi_LiteOS/components/net/at_device/nb_bc95\bc95.c **** int32_t nb_reboot(void)
 168:C:/Users/lenovo/Desktop/liteos/Project2/BearPi_LiteOS/components/net/at_device/nb_bc95\bc95.c **** {
 169:C:/Users/lenovo/Desktop/liteos/Project2/BearPi_LiteOS/components/net/at_device/nb_bc95\bc95.c ****    // memset(sockinfo, 0, MAX_SOCK_NUM * sizeof(struct _socket_info_t));
 170:C:/Users/lenovo/Desktop/liteos/Project2/BearPi_LiteOS/components/net/at_device/nb_bc95\bc95.c ****     return at.cmd((int8_t*)AT_NB_reboot, strlen(AT_NB_reboot), "OK", NULL,NULL);
 171:C:/Users/lenovo/Desktop/liteos/Project2/BearPi_LiteOS/components/net/at_device/nb_bc95\bc95.c **** }
 172:C:/Users/lenovo/Desktop/liteos/Project2/BearPi_LiteOS/components/net/at_device/nb_bc95\bc95.c **** 
 173:C:/Users/lenovo/Desktop/liteos/Project2/BearPi_LiteOS/components/net/at_device/nb_bc95\bc95.c **** int32_t nb_hw_detect(void)//"AT+CFUN?\r"
 174:C:/Users/lenovo/Desktop/liteos/Project2/BearPi_LiteOS/components/net/at_device/nb_bc95\bc95.c **** {
 175:C:/Users/lenovo/Desktop/liteos/Project2/BearPi_LiteOS/components/net/at_device/nb_bc95\bc95.c ****     return at.cmd((int8_t*)AT_NB_hw_detect, strlen(AT_NB_hw_detect), "+CFUN:1", NULL,NULL);
ARM GAS  c:\Users\lenovo\AppData\Local\Temp\ccJs0CHk.s 			page 6


 176:C:/Users/lenovo/Desktop/liteos/Project2/BearPi_LiteOS/components/net/at_device/nb_bc95\bc95.c **** }
 177:C:/Users/lenovo/Desktop/liteos/Project2/BearPi_LiteOS/components/net/at_device/nb_bc95\bc95.c **** 
 178:C:/Users/lenovo/Desktop/liteos/Project2/BearPi_LiteOS/components/net/at_device/nb_bc95\bc95.c **** int32_t nb_check_csq(void)
 179:C:/Users/lenovo/Desktop/liteos/Project2/BearPi_LiteOS/components/net/at_device/nb_bc95\bc95.c **** {
 180:C:/Users/lenovo/Desktop/liteos/Project2/BearPi_LiteOS/components/net/at_device/nb_bc95\bc95.c ****     char *cmd = "AT+CSQ\r";
 181:C:/Users/lenovo/Desktop/liteos/Project2/BearPi_LiteOS/components/net/at_device/nb_bc95\bc95.c ****     return at.cmd((int8_t*)cmd, strlen(cmd), "+CSQ:", NULL,NULL);
 182:C:/Users/lenovo/Desktop/liteos/Project2/BearPi_LiteOS/components/net/at_device/nb_bc95\bc95.c **** }
 183:C:/Users/lenovo/Desktop/liteos/Project2/BearPi_LiteOS/components/net/at_device/nb_bc95\bc95.c **** 
 184:C:/Users/lenovo/Desktop/liteos/Project2/BearPi_LiteOS/components/net/at_device/nb_bc95\bc95.c **** int32_t nb_set_cdpserver(char* host, char* port)
 185:C:/Users/lenovo/Desktop/liteos/Project2/BearPi_LiteOS/components/net/at_device/nb_bc95\bc95.c **** {
 186:C:/Users/lenovo/Desktop/liteos/Project2/BearPi_LiteOS/components/net/at_device/nb_bc95\bc95.c ****     char *cmd = "AT+NCDP=";
 187:C:/Users/lenovo/Desktop/liteos/Project2/BearPi_LiteOS/components/net/at_device/nb_bc95\bc95.c ****     char *cmd2 = "AT+NCDP?";
 188:C:/Users/lenovo/Desktop/liteos/Project2/BearPi_LiteOS/components/net/at_device/nb_bc95\bc95.c **** 	char *cmdNNMI = "AT+NNMI=1\r";
 189:C:/Users/lenovo/Desktop/liteos/Project2/BearPi_LiteOS/components/net/at_device/nb_bc95\bc95.c ****     char *cmdCMEE = "AT+CMEE=1\r";
 190:C:/Users/lenovo/Desktop/liteos/Project2/BearPi_LiteOS/components/net/at_device/nb_bc95\bc95.c **** 	//char *cmdCGP = "AT+CGPADDR";
 191:C:/Users/lenovo/Desktop/liteos/Project2/BearPi_LiteOS/components/net/at_device/nb_bc95\bc95.c **** 	char tmpbuf[128] = {0};
 192:C:/Users/lenovo/Desktop/liteos/Project2/BearPi_LiteOS/components/net/at_device/nb_bc95\bc95.c **** 	int ret = -1;
 193:C:/Users/lenovo/Desktop/liteos/Project2/BearPi_LiteOS/components/net/at_device/nb_bc95\bc95.c ****     char ipaddr[100] = {0};
 194:C:/Users/lenovo/Desktop/liteos/Project2/BearPi_LiteOS/components/net/at_device/nb_bc95\bc95.c ****     if(strlen(host) > 70 || strlen(port) > 20 || host==NULL || port == NULL)
 195:C:/Users/lenovo/Desktop/liteos/Project2/BearPi_LiteOS/components/net/at_device/nb_bc95\bc95.c ****     {
 196:C:/Users/lenovo/Desktop/liteos/Project2/BearPi_LiteOS/components/net/at_device/nb_bc95\bc95.c ****         ret = at.cmd((int8_t*)cmdNNMI, strlen(cmdNNMI), "OK", NULL,NULL);
 197:C:/Users/lenovo/Desktop/liteos/Project2/BearPi_LiteOS/components/net/at_device/nb_bc95\bc95.c ****         ret = at.cmd((int8_t*)cmdCMEE, strlen(cmdCMEE), "OK", NULL,NULL);
 198:C:/Users/lenovo/Desktop/liteos/Project2/BearPi_LiteOS/components/net/at_device/nb_bc95\bc95.c ****         return ret;
 199:C:/Users/lenovo/Desktop/liteos/Project2/BearPi_LiteOS/components/net/at_device/nb_bc95\bc95.c ****     }
 200:C:/Users/lenovo/Desktop/liteos/Project2/BearPi_LiteOS/components/net/at_device/nb_bc95\bc95.c **** 
 201:C:/Users/lenovo/Desktop/liteos/Project2/BearPi_LiteOS/components/net/at_device/nb_bc95\bc95.c ****     snprintf(ipaddr, sizeof(ipaddr) - 1, "%s,%s\r", host, port);
 202:C:/Users/lenovo/Desktop/liteos/Project2/BearPi_LiteOS/components/net/at_device/nb_bc95\bc95.c **** 	snprintf(tmpbuf, sizeof(tmpbuf) - 1, "%s%s%c", cmd, ipaddr, '\r');
 203:C:/Users/lenovo/Desktop/liteos/Project2/BearPi_LiteOS/components/net/at_device/nb_bc95\bc95.c **** 
 204:C:/Users/lenovo/Desktop/liteos/Project2/BearPi_LiteOS/components/net/at_device/nb_bc95\bc95.c ****     ret = at.cmd((int8_t*)tmpbuf, strlen(tmpbuf), "OK", NULL,NULL);
 205:C:/Users/lenovo/Desktop/liteos/Project2/BearPi_LiteOS/components/net/at_device/nb_bc95\bc95.c **** 	if(ret < 0)
 206:C:/Users/lenovo/Desktop/liteos/Project2/BearPi_LiteOS/components/net/at_device/nb_bc95\bc95.c **** 	{
 207:C:/Users/lenovo/Desktop/liteos/Project2/BearPi_LiteOS/components/net/at_device/nb_bc95\bc95.c **** 		return ret;
 208:C:/Users/lenovo/Desktop/liteos/Project2/BearPi_LiteOS/components/net/at_device/nb_bc95\bc95.c **** 	}
 209:C:/Users/lenovo/Desktop/liteos/Project2/BearPi_LiteOS/components/net/at_device/nb_bc95\bc95.c **** 	ret = at.cmd((int8_t*)cmd2, strlen(cmd2), ipaddr, NULL,NULL);
 210:C:/Users/lenovo/Desktop/liteos/Project2/BearPi_LiteOS/components/net/at_device/nb_bc95\bc95.c **** 	//LOS_TaskDelay(1000);
 211:C:/Users/lenovo/Desktop/liteos/Project2/BearPi_LiteOS/components/net/at_device/nb_bc95\bc95.c **** 	ret = at.cmd((int8_t*)cmdNNMI, strlen(cmdNNMI), "OK", NULL,NULL);
 212:C:/Users/lenovo/Desktop/liteos/Project2/BearPi_LiteOS/components/net/at_device/nb_bc95\bc95.c **** 	//at.cmd((int8_t*)cmdCMEE, strlen(cmdCMEE), "OK", NULL, NULL);
 213:C:/Users/lenovo/Desktop/liteos/Project2/BearPi_LiteOS/components/net/at_device/nb_bc95\bc95.c ****     //ret = at.cmd((int8_t*)cmdCGP, strlen(cmdCGP), NULL, NULL);
 214:C:/Users/lenovo/Desktop/liteos/Project2/BearPi_LiteOS/components/net/at_device/nb_bc95\bc95.c **** 	return ret;
 215:C:/Users/lenovo/Desktop/liteos/Project2/BearPi_LiteOS/components/net/at_device/nb_bc95\bc95.c **** }
 216:C:/Users/lenovo/Desktop/liteos/Project2/BearPi_LiteOS/components/net/at_device/nb_bc95\bc95.c **** 
 217:C:/Users/lenovo/Desktop/liteos/Project2/BearPi_LiteOS/components/net/at_device/nb_bc95\bc95.c **** int32_t nb_send_psk(char* pskid, char* psk)
 218:C:/Users/lenovo/Desktop/liteos/Project2/BearPi_LiteOS/components/net/at_device/nb_bc95\bc95.c **** {
 219:C:/Users/lenovo/Desktop/liteos/Project2/BearPi_LiteOS/components/net/at_device/nb_bc95\bc95.c ****     char* cmds = "AT+QSECSWT";//AT+QSECSWT=1,100    OK
 220:C:/Users/lenovo/Desktop/liteos/Project2/BearPi_LiteOS/components/net/at_device/nb_bc95\bc95.c ****     char* cmdp = "AT+QSETPSK";//AT+QSETPSK=86775942,E6F4C799   OK
 221:C:/Users/lenovo/Desktop/liteos/Project2/BearPi_LiteOS/components/net/at_device/nb_bc95\bc95.c ****     sprintf(wbuf, "%s=%d,%d\r", cmds, 1, 100);//min
 222:C:/Users/lenovo/Desktop/liteos/Project2/BearPi_LiteOS/components/net/at_device/nb_bc95\bc95.c ****     at.cmd((int8_t*)wbuf, strlen(wbuf), "OK", NULL,NULL);
 223:C:/Users/lenovo/Desktop/liteos/Project2/BearPi_LiteOS/components/net/at_device/nb_bc95\bc95.c ****     snprintf(wbuf, AT_DATA_LEN, "%s=%s,%s\r", cmdp, pskid, psk);
 224:C:/Users/lenovo/Desktop/liteos/Project2/BearPi_LiteOS/components/net/at_device/nb_bc95\bc95.c ****     return at.cmd((int8_t*)wbuf, strlen(wbuf), "OK", NULL,NULL);
 225:C:/Users/lenovo/Desktop/liteos/Project2/BearPi_LiteOS/components/net/at_device/nb_bc95\bc95.c **** }
 226:C:/Users/lenovo/Desktop/liteos/Project2/BearPi_LiteOS/components/net/at_device/nb_bc95\bc95.c **** 
 227:C:/Users/lenovo/Desktop/liteos/Project2/BearPi_LiteOS/components/net/at_device/nb_bc95\bc95.c **** int32_t nb_set_no_encrypt(void)
 228:C:/Users/lenovo/Desktop/liteos/Project2/BearPi_LiteOS/components/net/at_device/nb_bc95\bc95.c **** {
 229:C:/Users/lenovo/Desktop/liteos/Project2/BearPi_LiteOS/components/net/at_device/nb_bc95\bc95.c ****     char* cmd = "AT+QSECSWT=0\r";
 230:C:/Users/lenovo/Desktop/liteos/Project2/BearPi_LiteOS/components/net/at_device/nb_bc95\bc95.c ****     return at.cmd((int8_t*)cmd, strlen(cmd), "OK", NULL,NULL);
 231:C:/Users/lenovo/Desktop/liteos/Project2/BearPi_LiteOS/components/net/at_device/nb_bc95\bc95.c **** }
 232:C:/Users/lenovo/Desktop/liteos/Project2/BearPi_LiteOS/components/net/at_device/nb_bc95\bc95.c **** 
ARM GAS  c:\Users\lenovo\AppData\Local\Temp\ccJs0CHk.s 			page 7


 233:C:/Users/lenovo/Desktop/liteos/Project2/BearPi_LiteOS/components/net/at_device/nb_bc95\bc95.c **** #ifdef WITH_SOTA
 234:C:/Users/lenovo/Desktop/liteos/Project2/BearPi_LiteOS/components/net/at_device/nb_bc95\bc95.c **** int sota_cmd(int8_t *cmd, int32_t len, const char *suffix, char *resp_buf, int* resp_len)
 235:C:/Users/lenovo/Desktop/liteos/Project2/BearPi_LiteOS/components/net/at_device/nb_bc95\bc95.c **** {
 236:C:/Users/lenovo/Desktop/liteos/Project2/BearPi_LiteOS/components/net/at_device/nb_bc95\bc95.c ****     AT_LOG("sota_cmd:%s", cmd);
 237:C:/Users/lenovo/Desktop/liteos/Project2/BearPi_LiteOS/components/net/at_device/nb_bc95\bc95.c ****     LOS_MuxPend(at.cmd_mux, LOS_WAIT_FOREVER);
 238:C:/Users/lenovo/Desktop/liteos/Project2/BearPi_LiteOS/components/net/at_device/nb_bc95\bc95.c ****     at_transmit((uint8_t *)cmd, len, 1);
 239:C:/Users/lenovo/Desktop/liteos/Project2/BearPi_LiteOS/components/net/at_device/nb_bc95\bc95.c ****     LOS_MuxPost(at.cmd_mux);
 240:C:/Users/lenovo/Desktop/liteos/Project2/BearPi_LiteOS/components/net/at_device/nb_bc95\bc95.c **** 
 241:C:/Users/lenovo/Desktop/liteos/Project2/BearPi_LiteOS/components/net/at_device/nb_bc95\bc95.c ****     return AT_OK;
 242:C:/Users/lenovo/Desktop/liteos/Project2/BearPi_LiteOS/components/net/at_device/nb_bc95\bc95.c **** 
 243:C:/Users/lenovo/Desktop/liteos/Project2/BearPi_LiteOS/components/net/at_device/nb_bc95\bc95.c **** }
 244:C:/Users/lenovo/Desktop/liteos/Project2/BearPi_LiteOS/components/net/at_device/nb_bc95\bc95.c **** 
 245:C:/Users/lenovo/Desktop/liteos/Project2/BearPi_LiteOS/components/net/at_device/nb_bc95\bc95.c **** int nb_send_str(const char* buf, int len)
 246:C:/Users/lenovo/Desktop/liteos/Project2/BearPi_LiteOS/components/net/at_device/nb_bc95\bc95.c **** {
 247:C:/Users/lenovo/Desktop/liteos/Project2/BearPi_LiteOS/components/net/at_device/nb_bc95\bc95.c ****     char *cmd1 = "AT+NMGS=";
 248:C:/Users/lenovo/Desktop/liteos/Project2/BearPi_LiteOS/components/net/at_device/nb_bc95\bc95.c ****     memset(wbuf, 0, AT_DATA_LEN);
 249:C:/Users/lenovo/Desktop/liteos/Project2/BearPi_LiteOS/components/net/at_device/nb_bc95\bc95.c ****     memset(rbuf, 0, AT_DATA_LEN);
 250:C:/Users/lenovo/Desktop/liteos/Project2/BearPi_LiteOS/components/net/at_device/nb_bc95\bc95.c ****     snprintf(wbuf, AT_DATA_LEN, "%s%d,%s%c",cmd1,(int)len/2,buf,'\r');
 251:C:/Users/lenovo/Desktop/liteos/Project2/BearPi_LiteOS/components/net/at_device/nb_bc95\bc95.c ****     return sota_cmd((int8_t*)wbuf, strlen(wbuf), "OK", NULL,NULL);
 252:C:/Users/lenovo/Desktop/liteos/Project2/BearPi_LiteOS/components/net/at_device/nb_bc95\bc95.c **** 
 253:C:/Users/lenovo/Desktop/liteos/Project2/BearPi_LiteOS/components/net/at_device/nb_bc95\bc95.c **** }
 254:C:/Users/lenovo/Desktop/liteos/Project2/BearPi_LiteOS/components/net/at_device/nb_bc95\bc95.c **** #endif
 255:C:/Users/lenovo/Desktop/liteos/Project2/BearPi_LiteOS/components/net/at_device/nb_bc95\bc95.c **** int32_t nb_send_payload(const char* buf, int len)
 256:C:/Users/lenovo/Desktop/liteos/Project2/BearPi_LiteOS/components/net/at_device/nb_bc95\bc95.c **** {
 257:C:/Users/lenovo/Desktop/liteos/Project2/BearPi_LiteOS/components/net/at_device/nb_bc95\bc95.c ****     char *cmd1 = "AT+NMGS=";
 258:C:/Users/lenovo/Desktop/liteos/Project2/BearPi_LiteOS/components/net/at_device/nb_bc95\bc95.c ****     char *cmd2 = "AT+NQMGS\r";
 259:C:/Users/lenovo/Desktop/liteos/Project2/BearPi_LiteOS/components/net/at_device/nb_bc95\bc95.c ****     int ret;
 260:C:/Users/lenovo/Desktop/liteos/Project2/BearPi_LiteOS/components/net/at_device/nb_bc95\bc95.c ****     char* str = NULL;
 261:C:/Users/lenovo/Desktop/liteos/Project2/BearPi_LiteOS/components/net/at_device/nb_bc95\bc95.c ****     int curcnt = 0;
 262:C:/Users/lenovo/Desktop/liteos/Project2/BearPi_LiteOS/components/net/at_device/nb_bc95\bc95.c ****     int rbuflen;
 263:C:/Users/lenovo/Desktop/liteos/Project2/BearPi_LiteOS/components/net/at_device/nb_bc95\bc95.c ****     static int sndcnt = 0;
 264:C:/Users/lenovo/Desktop/liteos/Project2/BearPi_LiteOS/components/net/at_device/nb_bc95\bc95.c ****     if(buf == NULL || len > AT_MAX_PAYLOADLEN)
 265:C:/Users/lenovo/Desktop/liteos/Project2/BearPi_LiteOS/components/net/at_device/nb_bc95\bc95.c ****     {
 266:C:/Users/lenovo/Desktop/liteos/Project2/BearPi_LiteOS/components/net/at_device/nb_bc95\bc95.c ****         AT_LOG("payload too long");
 267:C:/Users/lenovo/Desktop/liteos/Project2/BearPi_LiteOS/components/net/at_device/nb_bc95\bc95.c ****         return -1;
 268:C:/Users/lenovo/Desktop/liteos/Project2/BearPi_LiteOS/components/net/at_device/nb_bc95\bc95.c ****     }
 269:C:/Users/lenovo/Desktop/liteos/Project2/BearPi_LiteOS/components/net/at_device/nb_bc95\bc95.c ****     //memset(tmpbuf, 0, AT_DATA_LEN);
 270:C:/Users/lenovo/Desktop/liteos/Project2/BearPi_LiteOS/components/net/at_device/nb_bc95\bc95.c ****     memset(wbuf, 0, AT_DATA_LEN);
 271:C:/Users/lenovo/Desktop/liteos/Project2/BearPi_LiteOS/components/net/at_device/nb_bc95\bc95.c ****     //str_to_hex(buf, len, tmpbuf);
 272:C:/Users/lenovo/Desktop/liteos/Project2/BearPi_LiteOS/components/net/at_device/nb_bc95\bc95.c ****     memset(rbuf, 0, AT_DATA_LEN);
 273:C:/Users/lenovo/Desktop/liteos/Project2/BearPi_LiteOS/components/net/at_device/nb_bc95\bc95.c ****     snprintf(wbuf, AT_DATA_LEN,"%s%d,%s%c",cmd1,(int)len,buf,'\r');
 274:C:/Users/lenovo/Desktop/liteos/Project2/BearPi_LiteOS/components/net/at_device/nb_bc95\bc95.c ****     ret = at.cmd((int8_t*)wbuf, strlen(wbuf), "OK", NULL,NULL);
 275:C:/Users/lenovo/Desktop/liteos/Project2/BearPi_LiteOS/components/net/at_device/nb_bc95\bc95.c ****     if(ret < 0)
 276:C:/Users/lenovo/Desktop/liteos/Project2/BearPi_LiteOS/components/net/at_device/nb_bc95\bc95.c ****         return -1;
 277:C:/Users/lenovo/Desktop/liteos/Project2/BearPi_LiteOS/components/net/at_device/nb_bc95\bc95.c ****     ret = at.cmd((int8_t*)cmd2, strlen(cmd2), "SENT=", rbuf,&rbuflen);
 278:C:/Users/lenovo/Desktop/liteos/Project2/BearPi_LiteOS/components/net/at_device/nb_bc95\bc95.c ****     if(ret < 0)
 279:C:/Users/lenovo/Desktop/liteos/Project2/BearPi_LiteOS/components/net/at_device/nb_bc95\bc95.c ****         return -1;
 280:C:/Users/lenovo/Desktop/liteos/Project2/BearPi_LiteOS/components/net/at_device/nb_bc95\bc95.c ****     str = strstr(rbuf,"SENT=");
 281:C:/Users/lenovo/Desktop/liteos/Project2/BearPi_LiteOS/components/net/at_device/nb_bc95\bc95.c ****     if(str == NULL)
 282:C:/Users/lenovo/Desktop/liteos/Project2/BearPi_LiteOS/components/net/at_device/nb_bc95\bc95.c ****         return -1;
 283:C:/Users/lenovo/Desktop/liteos/Project2/BearPi_LiteOS/components/net/at_device/nb_bc95\bc95.c ****     sscanf(str,"SENT=%d,%s",&curcnt,wbuf);
 284:C:/Users/lenovo/Desktop/liteos/Project2/BearPi_LiteOS/components/net/at_device/nb_bc95\bc95.c ****     if(curcnt == sndcnt)
 285:C:/Users/lenovo/Desktop/liteos/Project2/BearPi_LiteOS/components/net/at_device/nb_bc95\bc95.c ****         return -1;
 286:C:/Users/lenovo/Desktop/liteos/Project2/BearPi_LiteOS/components/net/at_device/nb_bc95\bc95.c ****     sndcnt = curcnt;
 287:C:/Users/lenovo/Desktop/liteos/Project2/BearPi_LiteOS/components/net/at_device/nb_bc95\bc95.c ****     return ret;
 288:C:/Users/lenovo/Desktop/liteos/Project2/BearPi_LiteOS/components/net/at_device/nb_bc95\bc95.c **** }
 289:C:/Users/lenovo/Desktop/liteos/Project2/BearPi_LiteOS/components/net/at_device/nb_bc95\bc95.c **** 
ARM GAS  c:\Users\lenovo\AppData\Local\Temp\ccJs0CHk.s 			page 8


 290:C:/Users/lenovo/Desktop/liteos/Project2/BearPi_LiteOS/components/net/at_device/nb_bc95\bc95.c **** int nb_query_ip(void)
 291:C:/Users/lenovo/Desktop/liteos/Project2/BearPi_LiteOS/components/net/at_device/nb_bc95\bc95.c **** {
 292:C:/Users/lenovo/Desktop/liteos/Project2/BearPi_LiteOS/components/net/at_device/nb_bc95\bc95.c **** 	char *cmd = "AT+CGPADDR\r";
 293:C:/Users/lenovo/Desktop/liteos/Project2/BearPi_LiteOS/components/net/at_device/nb_bc95\bc95.c ****     return at.cmd((int8_t*)cmd, strlen(cmd), "+CGPADDR:0,", NULL,NULL);
 294:C:/Users/lenovo/Desktop/liteos/Project2/BearPi_LiteOS/components/net/at_device/nb_bc95\bc95.c **** }
 295:C:/Users/lenovo/Desktop/liteos/Project2/BearPi_LiteOS/components/net/at_device/nb_bc95\bc95.c **** 
 296:C:/Users/lenovo/Desktop/liteos/Project2/BearPi_LiteOS/components/net/at_device/nb_bc95\bc95.c **** int32_t nb_get_netstat(void)
 297:C:/Users/lenovo/Desktop/liteos/Project2/BearPi_LiteOS/components/net/at_device/nb_bc95\bc95.c **** {
 298:C:/Users/lenovo/Desktop/liteos/Project2/BearPi_LiteOS/components/net/at_device/nb_bc95\bc95.c **** 	char *cmd = "AT+CGATT?\r";
 299:C:/Users/lenovo/Desktop/liteos/Project2/BearPi_LiteOS/components/net/at_device/nb_bc95\bc95.c ****     return at.cmd((int8_t*)cmd, strlen(cmd), "CGATT:1", NULL,NULL);
 300:C:/Users/lenovo/Desktop/liteos/Project2/BearPi_LiteOS/components/net/at_device/nb_bc95\bc95.c **** }
 301:C:/Users/lenovo/Desktop/liteos/Project2/BearPi_LiteOS/components/net/at_device/nb_bc95\bc95.c **** 
 302:C:/Users/lenovo/Desktop/liteos/Project2/BearPi_LiteOS/components/net/at_device/nb_bc95\bc95.c **** static int32_t nb_cmd_with_2_suffix(const int8_t *cmd, int  len,
 303:C:/Users/lenovo/Desktop/liteos/Project2/BearPi_LiteOS/components/net/at_device/nb_bc95\bc95.c ****                         const char* suffix_ok, const char* suffix_err,  char *resp_buf, uint32_t* r
 304:C:/Users/lenovo/Desktop/liteos/Project2/BearPi_LiteOS/components/net/at_device/nb_bc95\bc95.c **** {
 305:C:/Users/lenovo/Desktop/liteos/Project2/BearPi_LiteOS/components/net/at_device/nb_bc95\bc95.c **** 
 306:C:/Users/lenovo/Desktop/liteos/Project2/BearPi_LiteOS/components/net/at_device/nb_bc95\bc95.c ****     const char *suffix[2] = {0};
 307:C:/Users/lenovo/Desktop/liteos/Project2/BearPi_LiteOS/components/net/at_device/nb_bc95\bc95.c ****     at_cmd_info_s cmd_info = {0};
 308:C:/Users/lenovo/Desktop/liteos/Project2/BearPi_LiteOS/components/net/at_device/nb_bc95\bc95.c **** 
 309:C:/Users/lenovo/Desktop/liteos/Project2/BearPi_LiteOS/components/net/at_device/nb_bc95\bc95.c ****     suffix[0] = suffix_ok;
 310:C:/Users/lenovo/Desktop/liteos/Project2/BearPi_LiteOS/components/net/at_device/nb_bc95\bc95.c ****     suffix[1] = suffix_err;
 311:C:/Users/lenovo/Desktop/liteos/Project2/BearPi_LiteOS/components/net/at_device/nb_bc95\bc95.c **** 
 312:C:/Users/lenovo/Desktop/liteos/Project2/BearPi_LiteOS/components/net/at_device/nb_bc95\bc95.c ****     cmd_info.suffix = suffix;
 313:C:/Users/lenovo/Desktop/liteos/Project2/BearPi_LiteOS/components/net/at_device/nb_bc95\bc95.c ****     cmd_info.suffix_num = array_size(suffix);
 314:C:/Users/lenovo/Desktop/liteos/Project2/BearPi_LiteOS/components/net/at_device/nb_bc95\bc95.c **** 
 315:C:/Users/lenovo/Desktop/liteos/Project2/BearPi_LiteOS/components/net/at_device/nb_bc95\bc95.c ****     cmd_info.resp_buf = resp_buf;
 316:C:/Users/lenovo/Desktop/liteos/Project2/BearPi_LiteOS/components/net/at_device/nb_bc95\bc95.c ****     cmd_info.resp_len = resp_len;
 317:C:/Users/lenovo/Desktop/liteos/Project2/BearPi_LiteOS/components/net/at_device/nb_bc95\bc95.c **** 
 318:C:/Users/lenovo/Desktop/liteos/Project2/BearPi_LiteOS/components/net/at_device/nb_bc95\bc95.c **** 	if (at.cmd_multi_suffix(cmd, len, &cmd_info) != AT_OK)
 319:C:/Users/lenovo/Desktop/liteos/Project2/BearPi_LiteOS/components/net/at_device/nb_bc95\bc95.c ****     {
 320:C:/Users/lenovo/Desktop/liteos/Project2/BearPi_LiteOS/components/net/at_device/nb_bc95\bc95.c ****         return AT_FAILED;
 321:C:/Users/lenovo/Desktop/liteos/Project2/BearPi_LiteOS/components/net/at_device/nb_bc95\bc95.c ****     }
 322:C:/Users/lenovo/Desktop/liteos/Project2/BearPi_LiteOS/components/net/at_device/nb_bc95\bc95.c **** 
 323:C:/Users/lenovo/Desktop/liteos/Project2/BearPi_LiteOS/components/net/at_device/nb_bc95\bc95.c ****     if (cmd_info.match_idx != 0)
 324:C:/Users/lenovo/Desktop/liteos/Project2/BearPi_LiteOS/components/net/at_device/nb_bc95\bc95.c ****     {
 325:C:/Users/lenovo/Desktop/liteos/Project2/BearPi_LiteOS/components/net/at_device/nb_bc95\bc95.c ****         AT_LOG("cmd_info.match_idx %d", cmd_info.match_idx);
 326:C:/Users/lenovo/Desktop/liteos/Project2/BearPi_LiteOS/components/net/at_device/nb_bc95\bc95.c ****         return AT_FAILED;
 327:C:/Users/lenovo/Desktop/liteos/Project2/BearPi_LiteOS/components/net/at_device/nb_bc95\bc95.c ****     }
 328:C:/Users/lenovo/Desktop/liteos/Project2/BearPi_LiteOS/components/net/at_device/nb_bc95\bc95.c **** 
 329:C:/Users/lenovo/Desktop/liteos/Project2/BearPi_LiteOS/components/net/at_device/nb_bc95\bc95.c ****     return AT_OK;
 330:C:/Users/lenovo/Desktop/liteos/Project2/BearPi_LiteOS/components/net/at_device/nb_bc95\bc95.c **** }
 331:C:/Users/lenovo/Desktop/liteos/Project2/BearPi_LiteOS/components/net/at_device/nb_bc95\bc95.c **** 
 332:C:/Users/lenovo/Desktop/liteos/Project2/BearPi_LiteOS/components/net/at_device/nb_bc95\bc95.c **** 
 333:C:/Users/lenovo/Desktop/liteos/Project2/BearPi_LiteOS/components/net/at_device/nb_bc95\bc95.c **** int32_t nb_create_sock(int port,int proto)
 334:C:/Users/lenovo/Desktop/liteos/Project2/BearPi_LiteOS/components/net/at_device/nb_bc95\bc95.c **** {
 335:C:/Users/lenovo/Desktop/liteos/Project2/BearPi_LiteOS/components/net/at_device/nb_bc95\bc95.c **** 	int socket;
 336:C:/Users/lenovo/Desktop/liteos/Project2/BearPi_LiteOS/components/net/at_device/nb_bc95\bc95.c ****     int rbuflen = AT_DATA_LEN;
 337:C:/Users/lenovo/Desktop/liteos/Project2/BearPi_LiteOS/components/net/at_device/nb_bc95\bc95.c **** 	const char *cmdudp = "AT+NSOCR=DGRAM,17,";//udp
 338:C:/Users/lenovo/Desktop/liteos/Project2/BearPi_LiteOS/components/net/at_device/nb_bc95\bc95.c **** 	const char *cmdtcp = "AT+NSOCR=STREAM,6,";//tcp
 339:C:/Users/lenovo/Desktop/liteos/Project2/BearPi_LiteOS/components/net/at_device/nb_bc95\bc95.c **** 	int ret;
 340:C:/Users/lenovo/Desktop/liteos/Project2/BearPi_LiteOS/components/net/at_device/nb_bc95\bc95.c ****     char buf[64];
 341:C:/Users/lenovo/Desktop/liteos/Project2/BearPi_LiteOS/components/net/at_device/nb_bc95\bc95.c ****     int cmd_len;
 342:C:/Users/lenovo/Desktop/liteos/Project2/BearPi_LiteOS/components/net/at_device/nb_bc95\bc95.c **** 
 343:C:/Users/lenovo/Desktop/liteos/Project2/BearPi_LiteOS/components/net/at_device/nb_bc95\bc95.c **** 	if(proto!=17 && proto!=6)
 344:C:/Users/lenovo/Desktop/liteos/Project2/BearPi_LiteOS/components/net/at_device/nb_bc95\bc95.c ****     {
 345:C:/Users/lenovo/Desktop/liteos/Project2/BearPi_LiteOS/components/net/at_device/nb_bc95\bc95.c ****         AT_LOG("proto invalid!");
 346:C:/Users/lenovo/Desktop/liteos/Project2/BearPi_LiteOS/components/net/at_device/nb_bc95\bc95.c ****         return -1;
ARM GAS  c:\Users\lenovo\AppData\Local\Temp\ccJs0CHk.s 			page 9


 347:C:/Users/lenovo/Desktop/liteos/Project2/BearPi_LiteOS/components/net/at_device/nb_bc95\bc95.c ****     }
 348:C:/Users/lenovo/Desktop/liteos/Project2/BearPi_LiteOS/components/net/at_device/nb_bc95\bc95.c ****     memset(rbuf, 0, AT_DATA_LEN);
 349:C:/Users/lenovo/Desktop/liteos/Project2/BearPi_LiteOS/components/net/at_device/nb_bc95\bc95.c **** 
 350:C:/Users/lenovo/Desktop/liteos/Project2/BearPi_LiteOS/components/net/at_device/nb_bc95\bc95.c ****     if (proto == 17)
 351:C:/Users/lenovo/Desktop/liteos/Project2/BearPi_LiteOS/components/net/at_device/nb_bc95\bc95.c ****     {
 352:C:/Users/lenovo/Desktop/liteos/Project2/BearPi_LiteOS/components/net/at_device/nb_bc95\bc95.c ****         cmd_len = snprintf(buf, sizeof(buf), "%s%d,1\r", cmdudp, port);//udp
 353:C:/Users/lenovo/Desktop/liteos/Project2/BearPi_LiteOS/components/net/at_device/nb_bc95\bc95.c ****     }
 354:C:/Users/lenovo/Desktop/liteos/Project2/BearPi_LiteOS/components/net/at_device/nb_bc95\bc95.c ****     else
 355:C:/Users/lenovo/Desktop/liteos/Project2/BearPi_LiteOS/components/net/at_device/nb_bc95\bc95.c ****     {
 356:C:/Users/lenovo/Desktop/liteos/Project2/BearPi_LiteOS/components/net/at_device/nb_bc95\bc95.c ****         cmd_len = snprintf(buf, sizeof(buf), "%s%d,1\r", cmdtcp, port);
 357:C:/Users/lenovo/Desktop/liteos/Project2/BearPi_LiteOS/components/net/at_device/nb_bc95\bc95.c ****     }
 358:C:/Users/lenovo/Desktop/liteos/Project2/BearPi_LiteOS/components/net/at_device/nb_bc95\bc95.c **** 
 359:C:/Users/lenovo/Desktop/liteos/Project2/BearPi_LiteOS/components/net/at_device/nb_bc95\bc95.c **** 	nb_cmd_with_2_suffix((int8_t*)buf, cmd_len, "OK", "ERROR", rbuf, (uint32_t *)&rbuflen);
 360:C:/Users/lenovo/Desktop/liteos/Project2/BearPi_LiteOS/components/net/at_device/nb_bc95\bc95.c **** 	ret = sscanf(rbuf, "%d\r%s",&socket, tmpbuf);
 361:C:/Users/lenovo/Desktop/liteos/Project2/BearPi_LiteOS/components/net/at_device/nb_bc95\bc95.c ****     if ((2 == ret) && (socket >= 0)
 362:C:/Users/lenovo/Desktop/liteos/Project2/BearPi_LiteOS/components/net/at_device/nb_bc95\bc95.c ****         && (strnstr(tmpbuf, "OK", sizeof(tmpbuf))))
 363:C:/Users/lenovo/Desktop/liteos/Project2/BearPi_LiteOS/components/net/at_device/nb_bc95\bc95.c ****     {
 364:C:/Users/lenovo/Desktop/liteos/Project2/BearPi_LiteOS/components/net/at_device/nb_bc95\bc95.c ****         return socket;
 365:C:/Users/lenovo/Desktop/liteos/Project2/BearPi_LiteOS/components/net/at_device/nb_bc95\bc95.c ****     }
 366:C:/Users/lenovo/Desktop/liteos/Project2/BearPi_LiteOS/components/net/at_device/nb_bc95\bc95.c **** 
 367:C:/Users/lenovo/Desktop/liteos/Project2/BearPi_LiteOS/components/net/at_device/nb_bc95\bc95.c ****     AT_LOG("sscanf fail,ret=%d,socket=%d", ret, socket);
 368:C:/Users/lenovo/Desktop/liteos/Project2/BearPi_LiteOS/components/net/at_device/nb_bc95\bc95.c ****     return -1;
 369:C:/Users/lenovo/Desktop/liteos/Project2/BearPi_LiteOS/components/net/at_device/nb_bc95\bc95.c **** }
 370:C:/Users/lenovo/Desktop/liteos/Project2/BearPi_LiteOS/components/net/at_device/nb_bc95\bc95.c **** 
 371:C:/Users/lenovo/Desktop/liteos/Project2/BearPi_LiteOS/components/net/at_device/nb_bc95\bc95.c **** static bool nb_is_addr_valid(const char *addr)
 372:C:/Users/lenovo/Desktop/liteos/Project2/BearPi_LiteOS/components/net/at_device/nb_bc95\bc95.c **** {
 373:C:/Users/lenovo/Desktop/liteos/Project2/BearPi_LiteOS/components/net/at_device/nb_bc95\bc95.c ****     const int size = 4;
 374:C:/Users/lenovo/Desktop/liteos/Project2/BearPi_LiteOS/components/net/at_device/nb_bc95\bc95.c ****     int tmp[4];
 375:C:/Users/lenovo/Desktop/liteos/Project2/BearPi_LiteOS/components/net/at_device/nb_bc95\bc95.c ****     int ret;
 376:C:/Users/lenovo/Desktop/liteos/Project2/BearPi_LiteOS/components/net/at_device/nb_bc95\bc95.c **** 
 377:C:/Users/lenovo/Desktop/liteos/Project2/BearPi_LiteOS/components/net/at_device/nb_bc95\bc95.c ****     ret = sscanf(addr, "%d.%d.%d.%d", &tmp[0], &tmp[1], &tmp[2], &tmp[3]);
 378:C:/Users/lenovo/Desktop/liteos/Project2/BearPi_LiteOS/components/net/at_device/nb_bc95\bc95.c ****     return  (size == ret);
 379:C:/Users/lenovo/Desktop/liteos/Project2/BearPi_LiteOS/components/net/at_device/nb_bc95\bc95.c **** }
 380:C:/Users/lenovo/Desktop/liteos/Project2/BearPi_LiteOS/components/net/at_device/nb_bc95\bc95.c **** 
 381:C:/Users/lenovo/Desktop/liteos/Project2/BearPi_LiteOS/components/net/at_device/nb_bc95\bc95.c **** int nb_decompose_str(const char* str, int *readleft, int *out_sockid)
 382:C:/Users/lenovo/Desktop/liteos/Project2/BearPi_LiteOS/components/net/at_device/nb_bc95\bc95.c **** {
 383:C:/Users/lenovo/Desktop/liteos/Project2/BearPi_LiteOS/components/net/at_device/nb_bc95\bc95.c ****     const char *tmp,*trans;
 384:C:/Users/lenovo/Desktop/liteos/Project2/BearPi_LiteOS/components/net/at_device/nb_bc95\bc95.c ****     int sockid;
 385:C:/Users/lenovo/Desktop/liteos/Project2/BearPi_LiteOS/components/net/at_device/nb_bc95\bc95.c ****     QUEUE_BUFF qbuf;
 386:C:/Users/lenovo/Desktop/liteos/Project2/BearPi_LiteOS/components/net/at_device/nb_bc95\bc95.c ****     int ret = AT_FAILED;
 387:C:/Users/lenovo/Desktop/liteos/Project2/BearPi_LiteOS/components/net/at_device/nb_bc95\bc95.c ****     int rlen;
 388:C:/Users/lenovo/Desktop/liteos/Project2/BearPi_LiteOS/components/net/at_device/nb_bc95\bc95.c ****     int link_id;
 389:C:/Users/lenovo/Desktop/liteos/Project2/BearPi_LiteOS/components/net/at_device/nb_bc95\bc95.c **** 
 390:C:/Users/lenovo/Desktop/liteos/Project2/BearPi_LiteOS/components/net/at_device/nb_bc95\bc95.c **** 
 391:C:/Users/lenovo/Desktop/liteos/Project2/BearPi_LiteOS/components/net/at_device/nb_bc95\bc95.c ****     tmp = strstr(str,",");
 392:C:/Users/lenovo/Desktop/liteos/Project2/BearPi_LiteOS/components/net/at_device/nb_bc95\bc95.c ****     if(tmp == NULL)
 393:C:/Users/lenovo/Desktop/liteos/Project2/BearPi_LiteOS/components/net/at_device/nb_bc95\bc95.c ****     {
 394:C:/Users/lenovo/Desktop/liteos/Project2/BearPi_LiteOS/components/net/at_device/nb_bc95\bc95.c ****         return AT_FAILED;
 395:C:/Users/lenovo/Desktop/liteos/Project2/BearPi_LiteOS/components/net/at_device/nb_bc95\bc95.c ****     }
 396:C:/Users/lenovo/Desktop/liteos/Project2/BearPi_LiteOS/components/net/at_device/nb_bc95\bc95.c **** 
 397:C:/Users/lenovo/Desktop/liteos/Project2/BearPi_LiteOS/components/net/at_device/nb_bc95\bc95.c ****     sockid = chartoint(str);
 398:C:/Users/lenovo/Desktop/liteos/Project2/BearPi_LiteOS/components/net/at_device/nb_bc95\bc95.c ****     trans = strstr(tmp+1,",");
 399:C:/Users/lenovo/Desktop/liteos/Project2/BearPi_LiteOS/components/net/at_device/nb_bc95\bc95.c ****     if(trans == NULL)
 400:C:/Users/lenovo/Desktop/liteos/Project2/BearPi_LiteOS/components/net/at_device/nb_bc95\bc95.c ****     {
 401:C:/Users/lenovo/Desktop/liteos/Project2/BearPi_LiteOS/components/net/at_device/nb_bc95\bc95.c ****         return AT_FAILED;
 402:C:/Users/lenovo/Desktop/liteos/Project2/BearPi_LiteOS/components/net/at_device/nb_bc95\bc95.c ****     }
 403:C:/Users/lenovo/Desktop/liteos/Project2/BearPi_LiteOS/components/net/at_device/nb_bc95\bc95.c ****     strncpy(qbuf.ipaddr,tmp+1,MIN((trans-tmp),AT_DATA_LEN/2));
ARM GAS  c:\Users\lenovo\AppData\Local\Temp\ccJs0CHk.s 			page 10


 404:C:/Users/lenovo/Desktop/liteos/Project2/BearPi_LiteOS/components/net/at_device/nb_bc95\bc95.c ****     qbuf.ipaddr[trans-tmp-1] = '\0';
 405:C:/Users/lenovo/Desktop/liteos/Project2/BearPi_LiteOS/components/net/at_device/nb_bc95\bc95.c ****     if (!nb_is_addr_valid(qbuf.ipaddr))
 406:C:/Users/lenovo/Desktop/liteos/Project2/BearPi_LiteOS/components/net/at_device/nb_bc95\bc95.c ****     {
 407:C:/Users/lenovo/Desktop/liteos/Project2/BearPi_LiteOS/components/net/at_device/nb_bc95\bc95.c ****         return AT_FAILED;
 408:C:/Users/lenovo/Desktop/liteos/Project2/BearPi_LiteOS/components/net/at_device/nb_bc95\bc95.c ****     }
 409:C:/Users/lenovo/Desktop/liteos/Project2/BearPi_LiteOS/components/net/at_device/nb_bc95\bc95.c **** 
 410:C:/Users/lenovo/Desktop/liteos/Project2/BearPi_LiteOS/components/net/at_device/nb_bc95\bc95.c ****     qbuf.port = chartoint((char*)(trans+1));
 411:C:/Users/lenovo/Desktop/liteos/Project2/BearPi_LiteOS/components/net/at_device/nb_bc95\bc95.c ****     tmp = strstr(trans+1,",");
 412:C:/Users/lenovo/Desktop/liteos/Project2/BearPi_LiteOS/components/net/at_device/nb_bc95\bc95.c ****     if(tmp == NULL)
 413:C:/Users/lenovo/Desktop/liteos/Project2/BearPi_LiteOS/components/net/at_device/nb_bc95\bc95.c ****     {
 414:C:/Users/lenovo/Desktop/liteos/Project2/BearPi_LiteOS/components/net/at_device/nb_bc95\bc95.c ****         return AT_FAILED;
 415:C:/Users/lenovo/Desktop/liteos/Project2/BearPi_LiteOS/components/net/at_device/nb_bc95\bc95.c ****     }
 416:C:/Users/lenovo/Desktop/liteos/Project2/BearPi_LiteOS/components/net/at_device/nb_bc95\bc95.c ****     rlen = chartoint((char*)(tmp+1));
 417:C:/Users/lenovo/Desktop/liteos/Project2/BearPi_LiteOS/components/net/at_device/nb_bc95\bc95.c ****     if(rlen >= AT_DATA_LEN/2 || rlen < 0)
 418:C:/Users/lenovo/Desktop/liteos/Project2/BearPi_LiteOS/components/net/at_device/nb_bc95\bc95.c ****     {
 419:C:/Users/lenovo/Desktop/liteos/Project2/BearPi_LiteOS/components/net/at_device/nb_bc95\bc95.c ****         AT_LOG("rlen %d", rlen);
 420:C:/Users/lenovo/Desktop/liteos/Project2/BearPi_LiteOS/components/net/at_device/nb_bc95\bc95.c ****         return AT_FAILED;
 421:C:/Users/lenovo/Desktop/liteos/Project2/BearPi_LiteOS/components/net/at_device/nb_bc95\bc95.c ****     }
 422:C:/Users/lenovo/Desktop/liteos/Project2/BearPi_LiteOS/components/net/at_device/nb_bc95\bc95.c **** 
 423:C:/Users/lenovo/Desktop/liteos/Project2/BearPi_LiteOS/components/net/at_device/nb_bc95\bc95.c ****     trans = strstr(tmp+1,",");
 424:C:/Users/lenovo/Desktop/liteos/Project2/BearPi_LiteOS/components/net/at_device/nb_bc95\bc95.c ****     if(trans == NULL)
 425:C:/Users/lenovo/Desktop/liteos/Project2/BearPi_LiteOS/components/net/at_device/nb_bc95\bc95.c ****     {
 426:C:/Users/lenovo/Desktop/liteos/Project2/BearPi_LiteOS/components/net/at_device/nb_bc95\bc95.c ****         return AT_FAILED;
 427:C:/Users/lenovo/Desktop/liteos/Project2/BearPi_LiteOS/components/net/at_device/nb_bc95\bc95.c ****     }
 428:C:/Users/lenovo/Desktop/liteos/Project2/BearPi_LiteOS/components/net/at_device/nb_bc95\bc95.c **** 
 429:C:/Users/lenovo/Desktop/liteos/Project2/BearPi_LiteOS/components/net/at_device/nb_bc95\bc95.c ****     tmp = strstr(trans+1,",");
 430:C:/Users/lenovo/Desktop/liteos/Project2/BearPi_LiteOS/components/net/at_device/nb_bc95\bc95.c ****     if (tmp == NULL)
 431:C:/Users/lenovo/Desktop/liteos/Project2/BearPi_LiteOS/components/net/at_device/nb_bc95\bc95.c ****     {
 432:C:/Users/lenovo/Desktop/liteos/Project2/BearPi_LiteOS/components/net/at_device/nb_bc95\bc95.c ****         return AT_FAILED;
 433:C:/Users/lenovo/Desktop/liteos/Project2/BearPi_LiteOS/components/net/at_device/nb_bc95\bc95.c ****     }
 434:C:/Users/lenovo/Desktop/liteos/Project2/BearPi_LiteOS/components/net/at_device/nb_bc95\bc95.c **** 
 435:C:/Users/lenovo/Desktop/liteos/Project2/BearPi_LiteOS/components/net/at_device/nb_bc95\bc95.c ****     *readleft = chartoint((char*)(tmp+1));
 436:C:/Users/lenovo/Desktop/liteos/Project2/BearPi_LiteOS/components/net/at_device/nb_bc95\bc95.c **** 
 437:C:/Users/lenovo/Desktop/liteos/Project2/BearPi_LiteOS/components/net/at_device/nb_bc95\bc95.c ****     *out_sockid = sockid;
 438:C:/Users/lenovo/Desktop/liteos/Project2/BearPi_LiteOS/components/net/at_device/nb_bc95\bc95.c **** 
 439:C:/Users/lenovo/Desktop/liteos/Project2/BearPi_LiteOS/components/net/at_device/nb_bc95\bc95.c ****     link_id = nb_sock_to_idx(sockid);
 440:C:/Users/lenovo/Desktop/liteos/Project2/BearPi_LiteOS/components/net/at_device/nb_bc95\bc95.c ****     if (link_id >= MAX_SOCK_NUM)
 441:C:/Users/lenovo/Desktop/liteos/Project2/BearPi_LiteOS/components/net/at_device/nb_bc95\bc95.c ****     {
 442:C:/Users/lenovo/Desktop/liteos/Project2/BearPi_LiteOS/components/net/at_device/nb_bc95\bc95.c ****         AT_LOG("sockid invalid %d", sockid);
 443:C:/Users/lenovo/Desktop/liteos/Project2/BearPi_LiteOS/components/net/at_device/nb_bc95\bc95.c ****         return AT_OK;
 444:C:/Users/lenovo/Desktop/liteos/Project2/BearPi_LiteOS/components/net/at_device/nb_bc95\bc95.c ****     }
 445:C:/Users/lenovo/Desktop/liteos/Project2/BearPi_LiteOS/components/net/at_device/nb_bc95\bc95.c **** 
 446:C:/Users/lenovo/Desktop/liteos/Project2/BearPi_LiteOS/components/net/at_device/nb_bc95\bc95.c ****     qbuf.addr = at_malloc(rlen);
 447:C:/Users/lenovo/Desktop/liteos/Project2/BearPi_LiteOS/components/net/at_device/nb_bc95\bc95.c ****     if (qbuf.addr == NULL)
 448:C:/Users/lenovo/Desktop/liteos/Project2/BearPi_LiteOS/components/net/at_device/nb_bc95\bc95.c ****     {
 449:C:/Users/lenovo/Desktop/liteos/Project2/BearPi_LiteOS/components/net/at_device/nb_bc95\bc95.c ****         AT_LOG("at_malloc null");
 450:C:/Users/lenovo/Desktop/liteos/Project2/BearPi_LiteOS/components/net/at_device/nb_bc95\bc95.c ****         return AT_OK;
 451:C:/Users/lenovo/Desktop/liteos/Project2/BearPi_LiteOS/components/net/at_device/nb_bc95\bc95.c ****     }
 452:C:/Users/lenovo/Desktop/liteos/Project2/BearPi_LiteOS/components/net/at_device/nb_bc95\bc95.c **** 
 453:C:/Users/lenovo/Desktop/liteos/Project2/BearPi_LiteOS/components/net/at_device/nb_bc95\bc95.c ****     HexStrToStr((const unsigned char*)(trans+1), qbuf.addr, (rlen)*2);
 454:C:/Users/lenovo/Desktop/liteos/Project2/BearPi_LiteOS/components/net/at_device/nb_bc95\bc95.c ****     qbuf.len = rlen;
 455:C:/Users/lenovo/Desktop/liteos/Project2/BearPi_LiteOS/components/net/at_device/nb_bc95\bc95.c **** 
 456:C:/Users/lenovo/Desktop/liteos/Project2/BearPi_LiteOS/components/net/at_device/nb_bc95\bc95.c ****     ret = LOS_QueueWriteCopy(at.linkid[link_id].qid, &qbuf, sizeof(qbuf), 0);
 457:C:/Users/lenovo/Desktop/liteos/Project2/BearPi_LiteOS/components/net/at_device/nb_bc95\bc95.c ****     if (LOS_OK != ret)
 458:C:/Users/lenovo/Desktop/liteos/Project2/BearPi_LiteOS/components/net/at_device/nb_bc95\bc95.c ****     {
 459:C:/Users/lenovo/Desktop/liteos/Project2/BearPi_LiteOS/components/net/at_device/nb_bc95\bc95.c ****         AT_LOG("LOS_QueueWriteCopy  failed! ret %d", ret);
 460:C:/Users/lenovo/Desktop/liteos/Project2/BearPi_LiteOS/components/net/at_device/nb_bc95\bc95.c ****         at_free(qbuf.addr);
ARM GAS  c:\Users\lenovo\AppData\Local\Temp\ccJs0CHk.s 			page 11


 461:C:/Users/lenovo/Desktop/liteos/Project2/BearPi_LiteOS/components/net/at_device/nb_bc95\bc95.c ****     }
 462:C:/Users/lenovo/Desktop/liteos/Project2/BearPi_LiteOS/components/net/at_device/nb_bc95\bc95.c **** 
 463:C:/Users/lenovo/Desktop/liteos/Project2/BearPi_LiteOS/components/net/at_device/nb_bc95\bc95.c ****     //AT_LOG("wwww write data,qid %d, len %ld, ret %d", at.linkid[link_id].qid, qbuf.len, ret);
 464:C:/Users/lenovo/Desktop/liteos/Project2/BearPi_LiteOS/components/net/at_device/nb_bc95\bc95.c **** 
 465:C:/Users/lenovo/Desktop/liteos/Project2/BearPi_LiteOS/components/net/at_device/nb_bc95\bc95.c **** 
 466:C:/Users/lenovo/Desktop/liteos/Project2/BearPi_LiteOS/components/net/at_device/nb_bc95\bc95.c ****     return AT_OK;
 467:C:/Users/lenovo/Desktop/liteos/Project2/BearPi_LiteOS/components/net/at_device/nb_bc95\bc95.c **** }
 468:C:/Users/lenovo/Desktop/liteos/Project2/BearPi_LiteOS/components/net/at_device/nb_bc95\bc95.c **** 
 469:C:/Users/lenovo/Desktop/liteos/Project2/BearPi_LiteOS/components/net/at_device/nb_bc95\bc95.c **** static void nb_close_sock(int sock)
 470:C:/Users/lenovo/Desktop/liteos/Project2/BearPi_LiteOS/components/net/at_device/nb_bc95\bc95.c **** {
 471:C:/Users/lenovo/Desktop/liteos/Project2/BearPi_LiteOS/components/net/at_device/nb_bc95\bc95.c ****     const char *cmd = "AT+NSOCL=";
 472:C:/Users/lenovo/Desktop/liteos/Project2/BearPi_LiteOS/components/net/at_device/nb_bc95\bc95.c ****     char buf[64];
 473:C:/Users/lenovo/Desktop/liteos/Project2/BearPi_LiteOS/components/net/at_device/nb_bc95\bc95.c ****     int cmd_len;
 474:C:/Users/lenovo/Desktop/liteos/Project2/BearPi_LiteOS/components/net/at_device/nb_bc95\bc95.c **** 
 475:C:/Users/lenovo/Desktop/liteos/Project2/BearPi_LiteOS/components/net/at_device/nb_bc95\bc95.c **** 	cmd_len = snprintf(buf, sizeof(buf), "%s%d\r", cmd, sock);
 476:C:/Users/lenovo/Desktop/liteos/Project2/BearPi_LiteOS/components/net/at_device/nb_bc95\bc95.c **** 	nb_cmd_with_2_suffix((int8_t*)buf, cmd_len, "OK", "ERROR", NULL,NULL);
 477:C:/Users/lenovo/Desktop/liteos/Project2/BearPi_LiteOS/components/net/at_device/nb_bc95\bc95.c **** }
 478:C:/Users/lenovo/Desktop/liteos/Project2/BearPi_LiteOS/components/net/at_device/nb_bc95\bc95.c **** 
 479:C:/Users/lenovo/Desktop/liteos/Project2/BearPi_LiteOS/components/net/at_device/nb_bc95\bc95.c **** 
 480:C:/Users/lenovo/Desktop/liteos/Project2/BearPi_LiteOS/components/net/at_device/nb_bc95\bc95.c **** static int nb_create_sock_link(int portnum, int *link_id)
 481:C:/Users/lenovo/Desktop/liteos/Project2/BearPi_LiteOS/components/net/at_device/nb_bc95\bc95.c **** {
 482:C:/Users/lenovo/Desktop/liteos/Project2/BearPi_LiteOS/components/net/at_device/nb_bc95\bc95.c ****     int ret = 0;
 483:C:/Users/lenovo/Desktop/liteos/Project2/BearPi_LiteOS/components/net/at_device/nb_bc95\bc95.c ****     int sock;
 484:C:/Users/lenovo/Desktop/liteos/Project2/BearPi_LiteOS/components/net/at_device/nb_bc95\bc95.c **** 
 485:C:/Users/lenovo/Desktop/liteos/Project2/BearPi_LiteOS/components/net/at_device/nb_bc95\bc95.c ****     sock = nb_create_sock(portnum, UDP_PROTO);
 486:C:/Users/lenovo/Desktop/liteos/Project2/BearPi_LiteOS/components/net/at_device/nb_bc95\bc95.c **** 	if(sock < 0)
 487:C:/Users/lenovo/Desktop/liteos/Project2/BearPi_LiteOS/components/net/at_device/nb_bc95\bc95.c **** 	{
 488:C:/Users/lenovo/Desktop/liteos/Project2/BearPi_LiteOS/components/net/at_device/nb_bc95\bc95.c **** 		AT_LOG("sock num exceeded,ret is %d", sock);
 489:C:/Users/lenovo/Desktop/liteos/Project2/BearPi_LiteOS/components/net/at_device/nb_bc95\bc95.c **** 		return AT_FAILED;
 490:C:/Users/lenovo/Desktop/liteos/Project2/BearPi_LiteOS/components/net/at_device/nb_bc95\bc95.c **** 	}
 491:C:/Users/lenovo/Desktop/liteos/Project2/BearPi_LiteOS/components/net/at_device/nb_bc95\bc95.c **** 
 492:C:/Users/lenovo/Desktop/liteos/Project2/BearPi_LiteOS/components/net/at_device/nb_bc95\bc95.c ****     ret = nb_alloc_sock(sock);
 493:C:/Users/lenovo/Desktop/liteos/Project2/BearPi_LiteOS/components/net/at_device/nb_bc95\bc95.c ****     if (ret >= MAX_SOCK_NUM)
 494:C:/Users/lenovo/Desktop/liteos/Project2/BearPi_LiteOS/components/net/at_device/nb_bc95\bc95.c **** 	{
 495:C:/Users/lenovo/Desktop/liteos/Project2/BearPi_LiteOS/components/net/at_device/nb_bc95\bc95.c **** 
 496:C:/Users/lenovo/Desktop/liteos/Project2/BearPi_LiteOS/components/net/at_device/nb_bc95\bc95.c ****         AT_LOG("sock num exceeded,socket is %d", sock);
 497:C:/Users/lenovo/Desktop/liteos/Project2/BearPi_LiteOS/components/net/at_device/nb_bc95\bc95.c ****         goto CLOSE_SOCk;
 498:C:/Users/lenovo/Desktop/liteos/Project2/BearPi_LiteOS/components/net/at_device/nb_bc95\bc95.c ****     }
 499:C:/Users/lenovo/Desktop/liteos/Project2/BearPi_LiteOS/components/net/at_device/nb_bc95\bc95.c **** 
 500:C:/Users/lenovo/Desktop/liteos/Project2/BearPi_LiteOS/components/net/at_device/nb_bc95\bc95.c ****     if (LOS_QueueCreate("dataQueue", 16, &at.linkid[ret].qid, 0, sizeof(QUEUE_BUFF)) != LOS_OK)
 501:C:/Users/lenovo/Desktop/liteos/Project2/BearPi_LiteOS/components/net/at_device/nb_bc95\bc95.c ****     {
 502:C:/Users/lenovo/Desktop/liteos/Project2/BearPi_LiteOS/components/net/at_device/nb_bc95\bc95.c ****         AT_LOG("init dataQueue failed, ret is %d!",ret);
 503:C:/Users/lenovo/Desktop/liteos/Project2/BearPi_LiteOS/components/net/at_device/nb_bc95\bc95.c ****         goto CLOSE_SOCk;
 504:C:/Users/lenovo/Desktop/liteos/Project2/BearPi_LiteOS/components/net/at_device/nb_bc95\bc95.c ****     }
 505:C:/Users/lenovo/Desktop/liteos/Project2/BearPi_LiteOS/components/net/at_device/nb_bc95\bc95.c **** 
 506:C:/Users/lenovo/Desktop/liteos/Project2/BearPi_LiteOS/components/net/at_device/nb_bc95\bc95.c ****     *link_id = ret;
 507:C:/Users/lenovo/Desktop/liteos/Project2/BearPi_LiteOS/components/net/at_device/nb_bc95\bc95.c ****     sockinfo[ret].socket = sock;
 508:C:/Users/lenovo/Desktop/liteos/Project2/BearPi_LiteOS/components/net/at_device/nb_bc95\bc95.c ****     sockinfo[ret].used_flag = true;
 509:C:/Users/lenovo/Desktop/liteos/Project2/BearPi_LiteOS/components/net/at_device/nb_bc95\bc95.c ****     return AT_OK;
 510:C:/Users/lenovo/Desktop/liteos/Project2/BearPi_LiteOS/components/net/at_device/nb_bc95\bc95.c **** 
 511:C:/Users/lenovo/Desktop/liteos/Project2/BearPi_LiteOS/components/net/at_device/nb_bc95\bc95.c **** CLOSE_SOCk:
 512:C:/Users/lenovo/Desktop/liteos/Project2/BearPi_LiteOS/components/net/at_device/nb_bc95\bc95.c ****     nb_close_sock(sock);
 513:C:/Users/lenovo/Desktop/liteos/Project2/BearPi_LiteOS/components/net/at_device/nb_bc95\bc95.c **** 
 514:C:/Users/lenovo/Desktop/liteos/Project2/BearPi_LiteOS/components/net/at_device/nb_bc95\bc95.c ****     return AT_FAILED;
 515:C:/Users/lenovo/Desktop/liteos/Project2/BearPi_LiteOS/components/net/at_device/nb_bc95\bc95.c **** 
 516:C:/Users/lenovo/Desktop/liteos/Project2/BearPi_LiteOS/components/net/at_device/nb_bc95\bc95.c **** }
 517:C:/Users/lenovo/Desktop/liteos/Project2/BearPi_LiteOS/components/net/at_device/nb_bc95\bc95.c **** 
ARM GAS  c:\Users\lenovo\AppData\Local\Temp\ccJs0CHk.s 			page 12


 518:C:/Users/lenovo/Desktop/liteos/Project2/BearPi_LiteOS/components/net/at_device/nb_bc95\bc95.c **** int32_t nb_bind(const int8_t * host, const int8_t *port, int32_t proto)
 519:C:/Users/lenovo/Desktop/liteos/Project2/BearPi_LiteOS/components/net/at_device/nb_bc95\bc95.c **** {
 520:C:/Users/lenovo/Desktop/liteos/Project2/BearPi_LiteOS/components/net/at_device/nb_bc95\bc95.c **** 	int ret = 0;
 521:C:/Users/lenovo/Desktop/liteos/Project2/BearPi_LiteOS/components/net/at_device/nb_bc95\bc95.c **** 	int portnum;
 522:C:/Users/lenovo/Desktop/liteos/Project2/BearPi_LiteOS/components/net/at_device/nb_bc95\bc95.c **** 
 523:C:/Users/lenovo/Desktop/liteos/Project2/BearPi_LiteOS/components/net/at_device/nb_bc95\bc95.c ****     (void)host;
 524:C:/Users/lenovo/Desktop/liteos/Project2/BearPi_LiteOS/components/net/at_device/nb_bc95\bc95.c ****     (void)proto;
 525:C:/Users/lenovo/Desktop/liteos/Project2/BearPi_LiteOS/components/net/at_device/nb_bc95\bc95.c **** 	portnum = chartoint((char*)port);
 526:C:/Users/lenovo/Desktop/liteos/Project2/BearPi_LiteOS/components/net/at_device/nb_bc95\bc95.c **** 
 527:C:/Users/lenovo/Desktop/liteos/Project2/BearPi_LiteOS/components/net/at_device/nb_bc95\bc95.c ****     if (nb_create_sock_link(portnum, &ret) != AT_OK)
 528:C:/Users/lenovo/Desktop/liteos/Project2/BearPi_LiteOS/components/net/at_device/nb_bc95\bc95.c ****     {
 529:C:/Users/lenovo/Desktop/liteos/Project2/BearPi_LiteOS/components/net/at_device/nb_bc95\bc95.c ****         return AT_FAILED;
 530:C:/Users/lenovo/Desktop/liteos/Project2/BearPi_LiteOS/components/net/at_device/nb_bc95\bc95.c ****     }
 531:C:/Users/lenovo/Desktop/liteos/Project2/BearPi_LiteOS/components/net/at_device/nb_bc95\bc95.c **** 
 532:C:/Users/lenovo/Desktop/liteos/Project2/BearPi_LiteOS/components/net/at_device/nb_bc95\bc95.c ****     sockinfo[ret].localport = *(unsigned short*)portnum;
 533:C:/Users/lenovo/Desktop/liteos/Project2/BearPi_LiteOS/components/net/at_device/nb_bc95\bc95.c **** 
 534:C:/Users/lenovo/Desktop/liteos/Project2/BearPi_LiteOS/components/net/at_device/nb_bc95\bc95.c ****     return AT_OK;
 535:C:/Users/lenovo/Desktop/liteos/Project2/BearPi_LiteOS/components/net/at_device/nb_bc95\bc95.c **** }
 536:C:/Users/lenovo/Desktop/liteos/Project2/BearPi_LiteOS/components/net/at_device/nb_bc95\bc95.c **** 
 537:C:/Users/lenovo/Desktop/liteos/Project2/BearPi_LiteOS/components/net/at_device/nb_bc95\bc95.c **** int32_t nb_connect(const int8_t * host, const int8_t *port, int32_t proto)
 538:C:/Users/lenovo/Desktop/liteos/Project2/BearPi_LiteOS/components/net/at_device/nb_bc95\bc95.c **** {
 539:C:/Users/lenovo/Desktop/liteos/Project2/BearPi_LiteOS/components/net/at_device/nb_bc95\bc95.c **** 	int ret = 0;
 540:C:/Users/lenovo/Desktop/liteos/Project2/BearPi_LiteOS/components/net/at_device/nb_bc95\bc95.c **** 	static uint16_t localport = NB_STAT_LOCALPORT;
 541:C:/Users/lenovo/Desktop/liteos/Project2/BearPi_LiteOS/components/net/at_device/nb_bc95\bc95.c ****     const int COAP_SEVER_PORT = 5683;
 542:C:/Users/lenovo/Desktop/liteos/Project2/BearPi_LiteOS/components/net/at_device/nb_bc95\bc95.c **** 
 543:C:/Users/lenovo/Desktop/liteos/Project2/BearPi_LiteOS/components/net/at_device/nb_bc95\bc95.c ****     if (nb_create_sock_link(localport, &ret) != AT_OK)
 544:C:/Users/lenovo/Desktop/liteos/Project2/BearPi_LiteOS/components/net/at_device/nb_bc95\bc95.c ****     {
 545:C:/Users/lenovo/Desktop/liteos/Project2/BearPi_LiteOS/components/net/at_device/nb_bc95\bc95.c ****         return AT_FAILED;
 546:C:/Users/lenovo/Desktop/liteos/Project2/BearPi_LiteOS/components/net/at_device/nb_bc95\bc95.c ****     }
 547:C:/Users/lenovo/Desktop/liteos/Project2/BearPi_LiteOS/components/net/at_device/nb_bc95\bc95.c **** 
 548:C:/Users/lenovo/Desktop/liteos/Project2/BearPi_LiteOS/components/net/at_device/nb_bc95\bc95.c **** 	localport++;
 549:C:/Users/lenovo/Desktop/liteos/Project2/BearPi_LiteOS/components/net/at_device/nb_bc95\bc95.c ****     if (localport == COAP_SEVER_PORT || localport == (COAP_SEVER_PORT + 1))
 550:C:/Users/lenovo/Desktop/liteos/Project2/BearPi_LiteOS/components/net/at_device/nb_bc95\bc95.c ****     {
 551:C:/Users/lenovo/Desktop/liteos/Project2/BearPi_LiteOS/components/net/at_device/nb_bc95\bc95.c ****         localport = 5685;
 552:C:/Users/lenovo/Desktop/liteos/Project2/BearPi_LiteOS/components/net/at_device/nb_bc95\bc95.c ****     }
 553:C:/Users/lenovo/Desktop/liteos/Project2/BearPi_LiteOS/components/net/at_device/nb_bc95\bc95.c **** 
 554:C:/Users/lenovo/Desktop/liteos/Project2/BearPi_LiteOS/components/net/at_device/nb_bc95\bc95.c **** 	strncpy(sockinfo[ret].remoteip, (const char *)host, sizeof(sockinfo[ret].remoteip));
 555:C:/Users/lenovo/Desktop/liteos/Project2/BearPi_LiteOS/components/net/at_device/nb_bc95\bc95.c ****     sockinfo[ret].remoteip[sizeof(sockinfo[ret].remoteip) - 1] = '\0';
 556:C:/Users/lenovo/Desktop/liteos/Project2/BearPi_LiteOS/components/net/at_device/nb_bc95\bc95.c **** 	sockinfo[ret].remoteport = chartoint((char*)port);
 557:C:/Users/lenovo/Desktop/liteos/Project2/BearPi_LiteOS/components/net/at_device/nb_bc95\bc95.c **** 
 558:C:/Users/lenovo/Desktop/liteos/Project2/BearPi_LiteOS/components/net/at_device/nb_bc95\bc95.c ****     AT_LOG("ret:%d remoteip:%s port:%d",ret,sockinfo[ret].remoteip,sockinfo[ret].remoteport);
 559:C:/Users/lenovo/Desktop/liteos/Project2/BearPi_LiteOS/components/net/at_device/nb_bc95\bc95.c **** 
 560:C:/Users/lenovo/Desktop/liteos/Project2/BearPi_LiteOS/components/net/at_device/nb_bc95\bc95.c ****     return ret;
 561:C:/Users/lenovo/Desktop/liteos/Project2/BearPi_LiteOS/components/net/at_device/nb_bc95\bc95.c **** 
 562:C:/Users/lenovo/Desktop/liteos/Project2/BearPi_LiteOS/components/net/at_device/nb_bc95\bc95.c **** }
 563:C:/Users/lenovo/Desktop/liteos/Project2/BearPi_LiteOS/components/net/at_device/nb_bc95\bc95.c **** 
 564:C:/Users/lenovo/Desktop/liteos/Project2/BearPi_LiteOS/components/net/at_device/nb_bc95\bc95.c **** 
 565:C:/Users/lenovo/Desktop/liteos/Project2/BearPi_LiteOS/components/net/at_device/nb_bc95\bc95.c **** int32_t nb_sendto(int32_t id , const uint8_t  *buf, uint32_t len, char* ipaddr, int port)
 566:C:/Users/lenovo/Desktop/liteos/Project2/BearPi_LiteOS/components/net/at_device/nb_bc95\bc95.c **** {
 567:C:/Users/lenovo/Desktop/liteos/Project2/BearPi_LiteOS/components/net/at_device/nb_bc95\bc95.c **** 	char *cmd = "AT+NSOST=";
 568:C:/Users/lenovo/Desktop/liteos/Project2/BearPi_LiteOS/components/net/at_device/nb_bc95\bc95.c **** 	int data_len = len/2;
 569:C:/Users/lenovo/Desktop/liteos/Project2/BearPi_LiteOS/components/net/at_device/nb_bc95\bc95.c ****     int cmd_len;
 570:C:/Users/lenovo/Desktop/liteos/Project2/BearPi_LiteOS/components/net/at_device/nb_bc95\bc95.c **** 
 571:C:/Users/lenovo/Desktop/liteos/Project2/BearPi_LiteOS/components/net/at_device/nb_bc95\bc95.c ****     if(buf == NULL || data_len > AT_MAX_PAYLOADLEN || id >= MAX_SOCK_NUM)
 572:C:/Users/lenovo/Desktop/liteos/Project2/BearPi_LiteOS/components/net/at_device/nb_bc95\bc95.c ****     {
 573:C:/Users/lenovo/Desktop/liteos/Project2/BearPi_LiteOS/components/net/at_device/nb_bc95\bc95.c ****         AT_LOG("invalid args");
 574:C:/Users/lenovo/Desktop/liteos/Project2/BearPi_LiteOS/components/net/at_device/nb_bc95\bc95.c ****         return -1;
ARM GAS  c:\Users\lenovo\AppData\Local\Temp\ccJs0CHk.s 			page 13


 575:C:/Users/lenovo/Desktop/liteos/Project2/BearPi_LiteOS/components/net/at_device/nb_bc95\bc95.c ****     }
 576:C:/Users/lenovo/Desktop/liteos/Project2/BearPi_LiteOS/components/net/at_device/nb_bc95\bc95.c **** 
 577:C:/Users/lenovo/Desktop/liteos/Project2/BearPi_LiteOS/components/net/at_device/nb_bc95\bc95.c ****     AT_LOG("id:%d remoteip:%s port:%d",(int)sockinfo[id].socket, ipaddr, port);
 578:C:/Users/lenovo/Desktop/liteos/Project2/BearPi_LiteOS/components/net/at_device/nb_bc95\bc95.c **** 	memset(wbuf, 0, AT_DATA_LEN);
 579:C:/Users/lenovo/Desktop/liteos/Project2/BearPi_LiteOS/components/net/at_device/nb_bc95\bc95.c **** 	memset(tmpbuf, 0, AT_DATA_LEN);
 580:C:/Users/lenovo/Desktop/liteos/Project2/BearPi_LiteOS/components/net/at_device/nb_bc95\bc95.c **** 	str_to_hex((const char *)buf, len, tmpbuf);
 581:C:/Users/lenovo/Desktop/liteos/Project2/BearPi_LiteOS/components/net/at_device/nb_bc95\bc95.c **** 
 582:C:/Users/lenovo/Desktop/liteos/Project2/BearPi_LiteOS/components/net/at_device/nb_bc95\bc95.c **** 	cmd_len = snprintf(wbuf, AT_DATA_LEN, "%s%d,%s,%d,%d,%s\r",cmd,(int)sockinfo[id].socket,
 583:C:/Users/lenovo/Desktop/liteos/Project2/BearPi_LiteOS/components/net/at_device/nb_bc95\bc95.c ****         ipaddr, port, (int)len, tmpbuf);
 584:C:/Users/lenovo/Desktop/liteos/Project2/BearPi_LiteOS/components/net/at_device/nb_bc95\bc95.c **** 
 585:C:/Users/lenovo/Desktop/liteos/Project2/BearPi_LiteOS/components/net/at_device/nb_bc95\bc95.c **** 
 586:C:/Users/lenovo/Desktop/liteos/Project2/BearPi_LiteOS/components/net/at_device/nb_bc95\bc95.c **** 	if (nb_cmd_with_2_suffix((int8_t*)wbuf, cmd_len, "OK", "ERROR",
 587:C:/Users/lenovo/Desktop/liteos/Project2/BearPi_LiteOS/components/net/at_device/nb_bc95\bc95.c ****                 NULL, NULL) != AT_OK)
 588:C:/Users/lenovo/Desktop/liteos/Project2/BearPi_LiteOS/components/net/at_device/nb_bc95\bc95.c ****     {
 589:C:/Users/lenovo/Desktop/liteos/Project2/BearPi_LiteOS/components/net/at_device/nb_bc95\bc95.c ****         return AT_FAILED;
 590:C:/Users/lenovo/Desktop/liteos/Project2/BearPi_LiteOS/components/net/at_device/nb_bc95\bc95.c ****     }
 591:C:/Users/lenovo/Desktop/liteos/Project2/BearPi_LiteOS/components/net/at_device/nb_bc95\bc95.c **** 
 592:C:/Users/lenovo/Desktop/liteos/Project2/BearPi_LiteOS/components/net/at_device/nb_bc95\bc95.c ****     return len;
 593:C:/Users/lenovo/Desktop/liteos/Project2/BearPi_LiteOS/components/net/at_device/nb_bc95\bc95.c **** }
 594:C:/Users/lenovo/Desktop/liteos/Project2/BearPi_LiteOS/components/net/at_device/nb_bc95\bc95.c **** 
 595:C:/Users/lenovo/Desktop/liteos/Project2/BearPi_LiteOS/components/net/at_device/nb_bc95\bc95.c **** 
 596:C:/Users/lenovo/Desktop/liteos/Project2/BearPi_LiteOS/components/net/at_device/nb_bc95\bc95.c **** int32_t nb_send(int32_t id , const uint8_t *buf, uint32_t len)
 597:C:/Users/lenovo/Desktop/liteos/Project2/BearPi_LiteOS/components/net/at_device/nb_bc95\bc95.c **** {
 598:C:/Users/lenovo/Desktop/liteos/Project2/BearPi_LiteOS/components/net/at_device/nb_bc95\bc95.c **** 	if (id >= MAX_SOCK_NUM)
 599:C:/Users/lenovo/Desktop/liteos/Project2/BearPi_LiteOS/components/net/at_device/nb_bc95\bc95.c ****     {
 600:C:/Users/lenovo/Desktop/liteos/Project2/BearPi_LiteOS/components/net/at_device/nb_bc95\bc95.c ****         AT_LOG("invalid args");
 601:C:/Users/lenovo/Desktop/liteos/Project2/BearPi_LiteOS/components/net/at_device/nb_bc95\bc95.c ****         return AT_FAILED;
 602:C:/Users/lenovo/Desktop/liteos/Project2/BearPi_LiteOS/components/net/at_device/nb_bc95\bc95.c ****     }
 603:C:/Users/lenovo/Desktop/liteos/Project2/BearPi_LiteOS/components/net/at_device/nb_bc95\bc95.c ****     return nb_sendto(id , buf, len, sockinfo[id].remoteip,(int)sockinfo[id].remoteport);
 604:C:/Users/lenovo/Desktop/liteos/Project2/BearPi_LiteOS/components/net/at_device/nb_bc95\bc95.c **** }
 605:C:/Users/lenovo/Desktop/liteos/Project2/BearPi_LiteOS/components/net/at_device/nb_bc95\bc95.c **** 
 606:C:/Users/lenovo/Desktop/liteos/Project2/BearPi_LiteOS/components/net/at_device/nb_bc95\bc95.c **** int32_t nb_recv(int32_t id , uint8_t  *buf, uint32_t len)
 607:C:/Users/lenovo/Desktop/liteos/Project2/BearPi_LiteOS/components/net/at_device/nb_bc95\bc95.c **** {
 608:C:/Users/lenovo/Desktop/liteos/Project2/BearPi_LiteOS/components/net/at_device/nb_bc95\bc95.c ****     return nb_recv_timeout(id, buf, len,NULL,NULL, LOS_WAIT_FOREVER);
 609:C:/Users/lenovo/Desktop/liteos/Project2/BearPi_LiteOS/components/net/at_device/nb_bc95\bc95.c **** }
 610:C:/Users/lenovo/Desktop/liteos/Project2/BearPi_LiteOS/components/net/at_device/nb_bc95\bc95.c **** 
 611:C:/Users/lenovo/Desktop/liteos/Project2/BearPi_LiteOS/components/net/at_device/nb_bc95\bc95.c **** int32_t nb_recvfrom(int32_t id , uint8_t  *buf, uint32_t len,char* ipaddr,int* port)
 612:C:/Users/lenovo/Desktop/liteos/Project2/BearPi_LiteOS/components/net/at_device/nb_bc95\bc95.c **** {
 613:C:/Users/lenovo/Desktop/liteos/Project2/BearPi_LiteOS/components/net/at_device/nb_bc95\bc95.c ****     return nb_recv_timeout(id, buf, len, ipaddr,port,LOS_WAIT_FOREVER);
 614:C:/Users/lenovo/Desktop/liteos/Project2/BearPi_LiteOS/components/net/at_device/nb_bc95\bc95.c **** }
 615:C:/Users/lenovo/Desktop/liteos/Project2/BearPi_LiteOS/components/net/at_device/nb_bc95\bc95.c **** 
 616:C:/Users/lenovo/Desktop/liteos/Project2/BearPi_LiteOS/components/net/at_device/nb_bc95\bc95.c **** int32_t nb_recv_timeout(int32_t id , uint8_t  *buf, uint32_t len,char* ipaddr,int* port, int32_t ti
 617:C:/Users/lenovo/Desktop/liteos/Project2/BearPi_LiteOS/components/net/at_device/nb_bc95\bc95.c **** {
 618:C:/Users/lenovo/Desktop/liteos/Project2/BearPi_LiteOS/components/net/at_device/nb_bc95\bc95.c ****     int rlen = 0;
 619:C:/Users/lenovo/Desktop/liteos/Project2/BearPi_LiteOS/components/net/at_device/nb_bc95\bc95.c ****     int ret;
 620:C:/Users/lenovo/Desktop/liteos/Project2/BearPi_LiteOS/components/net/at_device/nb_bc95\bc95.c ****     QUEUE_BUFF	qbuf;
 621:C:/Users/lenovo/Desktop/liteos/Project2/BearPi_LiteOS/components/net/at_device/nb_bc95\bc95.c ****     UINT32 qlen = sizeof(QUEUE_BUFF);
 622:C:/Users/lenovo/Desktop/liteos/Project2/BearPi_LiteOS/components/net/at_device/nb_bc95\bc95.c **** 
 623:C:/Users/lenovo/Desktop/liteos/Project2/BearPi_LiteOS/components/net/at_device/nb_bc95\bc95.c ****     if (id  >= MAX_SOCK_NUM)
 624:C:/Users/lenovo/Desktop/liteos/Project2/BearPi_LiteOS/components/net/at_device/nb_bc95\bc95.c ****     {
 625:C:/Users/lenovo/Desktop/liteos/Project2/BearPi_LiteOS/components/net/at_device/nb_bc95\bc95.c ****         AT_LOG("link id %ld invalid", id);
 626:C:/Users/lenovo/Desktop/liteos/Project2/BearPi_LiteOS/components/net/at_device/nb_bc95\bc95.c ****         return AT_FAILED;
 627:C:/Users/lenovo/Desktop/liteos/Project2/BearPi_LiteOS/components/net/at_device/nb_bc95\bc95.c ****     }
 628:C:/Users/lenovo/Desktop/liteos/Project2/BearPi_LiteOS/components/net/at_device/nb_bc95\bc95.c **** 
 629:C:/Users/lenovo/Desktop/liteos/Project2/BearPi_LiteOS/components/net/at_device/nb_bc95\bc95.c **** 
 630:C:/Users/lenovo/Desktop/liteos/Project2/BearPi_LiteOS/components/net/at_device/nb_bc95\bc95.c ****     ret = LOS_QueueReadCopy(at.linkid[id].qid, &qbuf, &qlen, timeout);
 631:C:/Users/lenovo/Desktop/liteos/Project2/BearPi_LiteOS/components/net/at_device/nb_bc95\bc95.c ****     //AT_LOG("wwww LOS_QueueReadCopy data,qid %d, len %ld, ret %d", at.linkid[id].qid, qbuf.len, re
ARM GAS  c:\Users\lenovo\AppData\Local\Temp\ccJs0CHk.s 			page 14


 632:C:/Users/lenovo/Desktop/liteos/Project2/BearPi_LiteOS/components/net/at_device/nb_bc95\bc95.c ****     if (ret != LOS_OK)
 633:C:/Users/lenovo/Desktop/liteos/Project2/BearPi_LiteOS/components/net/at_device/nb_bc95\bc95.c ****     {
 634:C:/Users/lenovo/Desktop/liteos/Project2/BearPi_LiteOS/components/net/at_device/nb_bc95\bc95.c ****         return AT_TIMEOUT;
 635:C:/Users/lenovo/Desktop/liteos/Project2/BearPi_LiteOS/components/net/at_device/nb_bc95\bc95.c ****     }
 636:C:/Users/lenovo/Desktop/liteos/Project2/BearPi_LiteOS/components/net/at_device/nb_bc95\bc95.c **** 
 637:C:/Users/lenovo/Desktop/liteos/Project2/BearPi_LiteOS/components/net/at_device/nb_bc95\bc95.c **** 
 638:C:/Users/lenovo/Desktop/liteos/Project2/BearPi_LiteOS/components/net/at_device/nb_bc95\bc95.c ****     if (('\0' == sockinfo[id].remoteip[0])
 639:C:/Users/lenovo/Desktop/liteos/Project2/BearPi_LiteOS/components/net/at_device/nb_bc95\bc95.c ****         || (0 == sockinfo[id].remoteport))
 640:C:/Users/lenovo/Desktop/liteos/Project2/BearPi_LiteOS/components/net/at_device/nb_bc95\bc95.c ****     {
 641:C:/Users/lenovo/Desktop/liteos/Project2/BearPi_LiteOS/components/net/at_device/nb_bc95\bc95.c ****         AT_LOG("update ip and port for link %ld", id);
 642:C:/Users/lenovo/Desktop/liteos/Project2/BearPi_LiteOS/components/net/at_device/nb_bc95\bc95.c ****         strncpy(sockinfo[id].remoteip, qbuf.ipaddr, sizeof(sockinfo[id].remoteip));
 643:C:/Users/lenovo/Desktop/liteos/Project2/BearPi_LiteOS/components/net/at_device/nb_bc95\bc95.c ****         sockinfo[id].remoteip[sizeof(sockinfo[id].remoteip) - 1] = '\0';
 644:C:/Users/lenovo/Desktop/liteos/Project2/BearPi_LiteOS/components/net/at_device/nb_bc95\bc95.c ****         sockinfo[id].remoteport = qbuf.port;
 645:C:/Users/lenovo/Desktop/liteos/Project2/BearPi_LiteOS/components/net/at_device/nb_bc95\bc95.c ****     }
 646:C:/Users/lenovo/Desktop/liteos/Project2/BearPi_LiteOS/components/net/at_device/nb_bc95\bc95.c **** 
 647:C:/Users/lenovo/Desktop/liteos/Project2/BearPi_LiteOS/components/net/at_device/nb_bc95\bc95.c **** 	if(ipaddr != NULL)
 648:C:/Users/lenovo/Desktop/liteos/Project2/BearPi_LiteOS/components/net/at_device/nb_bc95\bc95.c **** 	{
 649:C:/Users/lenovo/Desktop/liteos/Project2/BearPi_LiteOS/components/net/at_device/nb_bc95\bc95.c **** 	    memcpy(ipaddr,qbuf.ipaddr,strlen(qbuf.ipaddr));
 650:C:/Users/lenovo/Desktop/liteos/Project2/BearPi_LiteOS/components/net/at_device/nb_bc95\bc95.c ****         *port = qbuf.port;
 651:C:/Users/lenovo/Desktop/liteos/Project2/BearPi_LiteOS/components/net/at_device/nb_bc95\bc95.c **** 	}
 652:C:/Users/lenovo/Desktop/liteos/Project2/BearPi_LiteOS/components/net/at_device/nb_bc95\bc95.c **** 
 653:C:/Users/lenovo/Desktop/liteos/Project2/BearPi_LiteOS/components/net/at_device/nb_bc95\bc95.c ****     rlen = MIN(qbuf.len, len);
 654:C:/Users/lenovo/Desktop/liteos/Project2/BearPi_LiteOS/components/net/at_device/nb_bc95\bc95.c **** 
 655:C:/Users/lenovo/Desktop/liteos/Project2/BearPi_LiteOS/components/net/at_device/nb_bc95\bc95.c ****     //AT_LOG("recv data, %d", rlen);
 656:C:/Users/lenovo/Desktop/liteos/Project2/BearPi_LiteOS/components/net/at_device/nb_bc95\bc95.c **** 
 657:C:/Users/lenovo/Desktop/liteos/Project2/BearPi_LiteOS/components/net/at_device/nb_bc95\bc95.c ****     if (rlen){
 658:C:/Users/lenovo/Desktop/liteos/Project2/BearPi_LiteOS/components/net/at_device/nb_bc95\bc95.c ****         memcpy(buf, qbuf.addr, rlen);
 659:C:/Users/lenovo/Desktop/liteos/Project2/BearPi_LiteOS/components/net/at_device/nb_bc95\bc95.c ****         at_free(qbuf.addr);
 660:C:/Users/lenovo/Desktop/liteos/Project2/BearPi_LiteOS/components/net/at_device/nb_bc95\bc95.c ****     }
 661:C:/Users/lenovo/Desktop/liteos/Project2/BearPi_LiteOS/components/net/at_device/nb_bc95\bc95.c ****     return rlen;
 662:C:/Users/lenovo/Desktop/liteos/Project2/BearPi_LiteOS/components/net/at_device/nb_bc95\bc95.c **** 
 663:C:/Users/lenovo/Desktop/liteos/Project2/BearPi_LiteOS/components/net/at_device/nb_bc95\bc95.c **** }
 664:C:/Users/lenovo/Desktop/liteos/Project2/BearPi_LiteOS/components/net/at_device/nb_bc95\bc95.c **** 
 665:C:/Users/lenovo/Desktop/liteos/Project2/BearPi_LiteOS/components/net/at_device/nb_bc95\bc95.c **** 
 666:C:/Users/lenovo/Desktop/liteos/Project2/BearPi_LiteOS/components/net/at_device/nb_bc95\bc95.c **** int32_t nb_close(int32_t id)
 667:C:/Users/lenovo/Desktop/liteos/Project2/BearPi_LiteOS/components/net/at_device/nb_bc95\bc95.c **** {
 668:C:/Users/lenovo/Desktop/liteos/Project2/BearPi_LiteOS/components/net/at_device/nb_bc95\bc95.c ****     int ret;
 669:C:/Users/lenovo/Desktop/liteos/Project2/BearPi_LiteOS/components/net/at_device/nb_bc95\bc95.c **** 
 670:C:/Users/lenovo/Desktop/liteos/Project2/BearPi_LiteOS/components/net/at_device/nb_bc95\bc95.c ****     if ((id  >= MAX_SOCK_NUM)
 671:C:/Users/lenovo/Desktop/liteos/Project2/BearPi_LiteOS/components/net/at_device/nb_bc95\bc95.c ****         || (!sockinfo[id].used_flag))
 672:C:/Users/lenovo/Desktop/liteos/Project2/BearPi_LiteOS/components/net/at_device/nb_bc95\bc95.c ****     {
 673:C:/Users/lenovo/Desktop/liteos/Project2/BearPi_LiteOS/components/net/at_device/nb_bc95\bc95.c ****         AT_LOG("link id %ld invalid", id);
 674:C:/Users/lenovo/Desktop/liteos/Project2/BearPi_LiteOS/components/net/at_device/nb_bc95\bc95.c ****         return AT_FAILED;
 675:C:/Users/lenovo/Desktop/liteos/Project2/BearPi_LiteOS/components/net/at_device/nb_bc95\bc95.c ****     }
 676:C:/Users/lenovo/Desktop/liteos/Project2/BearPi_LiteOS/components/net/at_device/nb_bc95\bc95.c **** 
 677:C:/Users/lenovo/Desktop/liteos/Project2/BearPi_LiteOS/components/net/at_device/nb_bc95\bc95.c ****     nb_close_sock(sockinfo[id].socket);
 678:C:/Users/lenovo/Desktop/liteos/Project2/BearPi_LiteOS/components/net/at_device/nb_bc95\bc95.c **** 
 679:C:/Users/lenovo/Desktop/liteos/Project2/BearPi_LiteOS/components/net/at_device/nb_bc95\bc95.c ****     do
 680:C:/Users/lenovo/Desktop/liteos/Project2/BearPi_LiteOS/components/net/at_device/nb_bc95\bc95.c ****     {
 681:C:/Users/lenovo/Desktop/liteos/Project2/BearPi_LiteOS/components/net/at_device/nb_bc95\bc95.c ****         QUEUE_BUFF	qbuf = {0};
 682:C:/Users/lenovo/Desktop/liteos/Project2/BearPi_LiteOS/components/net/at_device/nb_bc95\bc95.c ****         UINT32 qlen = sizeof(QUEUE_BUFF);
 683:C:/Users/lenovo/Desktop/liteos/Project2/BearPi_LiteOS/components/net/at_device/nb_bc95\bc95.c ****         ret = LOS_QueueReadCopy(at.linkid[id].qid, &qbuf, &qlen, 0);
 684:C:/Users/lenovo/Desktop/liteos/Project2/BearPi_LiteOS/components/net/at_device/nb_bc95\bc95.c ****         if (ret == LOS_OK && qbuf.addr != NULL)
 685:C:/Users/lenovo/Desktop/liteos/Project2/BearPi_LiteOS/components/net/at_device/nb_bc95\bc95.c ****         {
 686:C:/Users/lenovo/Desktop/liteos/Project2/BearPi_LiteOS/components/net/at_device/nb_bc95\bc95.c ****             at_free(qbuf.addr);
 687:C:/Users/lenovo/Desktop/liteos/Project2/BearPi_LiteOS/components/net/at_device/nb_bc95\bc95.c ****         }
 688:C:/Users/lenovo/Desktop/liteos/Project2/BearPi_LiteOS/components/net/at_device/nb_bc95\bc95.c ****     }while(ret == LOS_OK);
ARM GAS  c:\Users\lenovo\AppData\Local\Temp\ccJs0CHk.s 			page 15


 689:C:/Users/lenovo/Desktop/liteos/Project2/BearPi_LiteOS/components/net/at_device/nb_bc95\bc95.c ****     ret = LOS_QueueDelete(at.linkid[id].qid);
 690:C:/Users/lenovo/Desktop/liteos/Project2/BearPi_LiteOS/components/net/at_device/nb_bc95\bc95.c ****     if (ret != LOS_OK)
 691:C:/Users/lenovo/Desktop/liteos/Project2/BearPi_LiteOS/components/net/at_device/nb_bc95\bc95.c ****     {
 692:C:/Users/lenovo/Desktop/liteos/Project2/BearPi_LiteOS/components/net/at_device/nb_bc95\bc95.c ****         AT_LOG("LOS_QueueDelete failed, ret is %d!,qid %d", ret, at.linkid[id].qid);
 693:C:/Users/lenovo/Desktop/liteos/Project2/BearPi_LiteOS/components/net/at_device/nb_bc95\bc95.c ****     }
 694:C:/Users/lenovo/Desktop/liteos/Project2/BearPi_LiteOS/components/net/at_device/nb_bc95\bc95.c ****     (void)memset(&sockinfo[id], 0, sizeof(sockinfo[id]));
 695:C:/Users/lenovo/Desktop/liteos/Project2/BearPi_LiteOS/components/net/at_device/nb_bc95\bc95.c **** 
 696:C:/Users/lenovo/Desktop/liteos/Project2/BearPi_LiteOS/components/net/at_device/nb_bc95\bc95.c ****     return AT_OK;
 697:C:/Users/lenovo/Desktop/liteos/Project2/BearPi_LiteOS/components/net/at_device/nb_bc95\bc95.c **** }
 698:C:/Users/lenovo/Desktop/liteos/Project2/BearPi_LiteOS/components/net/at_device/nb_bc95\bc95.c **** 
 699:C:/Users/lenovo/Desktop/liteos/Project2/BearPi_LiteOS/components/net/at_device/nb_bc95\bc95.c **** int32_t nb_recv_cb(int32_t id)
 700:C:/Users/lenovo/Desktop/liteos/Project2/BearPi_LiteOS/components/net/at_device/nb_bc95\bc95.c **** {
 114              		.loc 1 700 0
 115              		.cfi_startproc
 116              		@ args = 0, pretend = 0, frame = 0
 117              		@ frame_needed = 0, uses_anonymous_args = 0
 118              		@ link register save eliminated.
 119              	.LVL9:
 701:C:/Users/lenovo/Desktop/liteos/Project2/BearPi_LiteOS/components/net/at_device/nb_bc95\bc95.c ****     return AT_FAILED;
 702:C:/Users/lenovo/Desktop/liteos/Project2/BearPi_LiteOS/components/net/at_device/nb_bc95\bc95.c **** }
 120              		.loc 1 702 0
 121 0000 4FF0FF30 		mov	r0, #-1
 122              	.LVL10:
 123 0004 7047     		bx	lr
 124              		.cfi_endproc
 125              	.LFE162:
 127              		.section	.text.nb_init,"ax",%progbits
 128              		.align	1
 129              		.syntax unified
 130              		.thumb
 131              		.thumb_func
 132              		.fpu fpv4-sp-d16
 134              	nb_init:
 135              	.LFB163:
 703:C:/Users/lenovo/Desktop/liteos/Project2/BearPi_LiteOS/components/net/at_device/nb_bc95\bc95.c **** 
 704:C:/Users/lenovo/Desktop/liteos/Project2/BearPi_LiteOS/components/net/at_device/nb_bc95\bc95.c **** static int32_t nb_init(void)
 705:C:/Users/lenovo/Desktop/liteos/Project2/BearPi_LiteOS/components/net/at_device/nb_bc95\bc95.c **** {
 136              		.loc 1 705 0
 137              		.cfi_startproc
 138              		@ args = 0, pretend = 0, frame = 40
 139              		@ frame_needed = 0, uses_anonymous_args = 0
 140 0000 30B5     		push	{r4, r5, lr}
 141              	.LCFI0:
 142              		.cfi_def_cfa_offset 12
 143              		.cfi_offset 4, -12
 144              		.cfi_offset 5, -8
 145              		.cfi_offset 14, -4
 146 0002 8BB0     		sub	sp, sp, #44
 147              	.LCFI1:
 148              		.cfi_def_cfa_offset 56
 706:C:/Users/lenovo/Desktop/liteos/Project2/BearPi_LiteOS/components/net/at_device/nb_bc95\bc95.c ****     at_config at_user_conf = {
 149              		.loc 1 706 0
 150 0004 01AC     		add	r4, sp, #4
 151 0006 0D4D     		ldr	r5, .L14
 152 0008 0FCD     		ldmia	r5!, {r0, r1, r2, r3}
 153 000a 0FC4     		stmia	r4!, {r0, r1, r2, r3}
 154 000c 0FCD     		ldmia	r5!, {r0, r1, r2, r3}
ARM GAS  c:\Users\lenovo\AppData\Local\Temp\ccJs0CHk.s 			page 16


 155 000e 0FC4     		stmia	r4!, {r0, r1, r2, r3}
 156 0010 2B68     		ldr	r3, [r5]
 157 0012 2360     		str	r3, [r4]
 707:C:/Users/lenovo/Desktop/liteos/Project2/BearPi_LiteOS/components/net/at_device/nb_bc95\bc95.c ****         .name = AT_MODU_NAME,
 708:C:/Users/lenovo/Desktop/liteos/Project2/BearPi_LiteOS/components/net/at_device/nb_bc95\bc95.c ****         .usart_port = AT_USART_PORT,
 709:C:/Users/lenovo/Desktop/liteos/Project2/BearPi_LiteOS/components/net/at_device/nb_bc95\bc95.c ****         .buardrate = AT_BUARDRATE,
 710:C:/Users/lenovo/Desktop/liteos/Project2/BearPi_LiteOS/components/net/at_device/nb_bc95\bc95.c ****         .linkid_num = AT_MAX_LINK_NUM,
 711:C:/Users/lenovo/Desktop/liteos/Project2/BearPi_LiteOS/components/net/at_device/nb_bc95\bc95.c ****         .user_buf_len = MAX_AT_USERDATA_LEN,
 712:C:/Users/lenovo/Desktop/liteos/Project2/BearPi_LiteOS/components/net/at_device/nb_bc95\bc95.c ****         .cmd_begin = AT_CMD_BEGIN,
 713:C:/Users/lenovo/Desktop/liteos/Project2/BearPi_LiteOS/components/net/at_device/nb_bc95\bc95.c ****         .line_end = AT_LINE_END,
 714:C:/Users/lenovo/Desktop/liteos/Project2/BearPi_LiteOS/components/net/at_device/nb_bc95\bc95.c ****         .mux_mode = 1, //support multi connection mode
 715:C:/Users/lenovo/Desktop/liteos/Project2/BearPi_LiteOS/components/net/at_device/nb_bc95\bc95.c ****         .timeout = AT_CMD_TIMEOUT,   //  ms
 716:C:/Users/lenovo/Desktop/liteos/Project2/BearPi_LiteOS/components/net/at_device/nb_bc95\bc95.c ****     };
 717:C:/Users/lenovo/Desktop/liteos/Project2/BearPi_LiteOS/components/net/at_device/nb_bc95\bc95.c ****     
 718:C:/Users/lenovo/Desktop/liteos/Project2/BearPi_LiteOS/components/net/at_device/nb_bc95\bc95.c ****     at_set_config(&at_user_conf);
 158              		.loc 1 718 0
 159 0014 01A8     		add	r0, sp, #4
 160 0016 FFF7FEFF 		bl	at_set_config
 161              	.LVL11:
 719:C:/Users/lenovo/Desktop/liteos/Project2/BearPi_LiteOS/components/net/at_device/nb_bc95\bc95.c ****     memset(&sockinfo, 0, sizeof(sockinfo));
 162              		.loc 1 719 0
 163 001a DC22     		movs	r2, #220
 164 001c 0021     		movs	r1, #0
 165 001e 0848     		ldr	r0, .L14+4
 166 0020 FFF7FEFF 		bl	memset
 167              	.LVL12:
 720:C:/Users/lenovo/Desktop/liteos/Project2/BearPi_LiteOS/components/net/at_device/nb_bc95\bc95.c ****     memset(&g_data_ind_info, 0, sizeof(g_data_ind_info));
 168              		.loc 1 720 0
 169 0024 074B     		ldr	r3, .L14+8
 170 0026 0024     		movs	r4, #0
 171 0028 1C60     		str	r4, [r3]
 172 002a 5C60     		str	r4, [r3, #4]
 173 002c 9C60     		str	r4, [r3, #8]
 721:C:/Users/lenovo/Desktop/liteos/Project2/BearPi_LiteOS/components/net/at_device/nb_bc95\bc95.c ****     at_reg_step_callback(&at, nb_step);
 174              		.loc 1 721 0
 175 002e 0649     		ldr	r1, .L14+12
 176 0030 0648     		ldr	r0, .L14+16
 177 0032 FFF7FEFF 		bl	at_reg_step_callback
 178              	.LVL13:
 722:C:/Users/lenovo/Desktop/liteos/Project2/BearPi_LiteOS/components/net/at_device/nb_bc95\bc95.c **** 
 723:C:/Users/lenovo/Desktop/liteos/Project2/BearPi_LiteOS/components/net/at_device/nb_bc95\bc95.c ****     return AT_OK;
 724:C:/Users/lenovo/Desktop/liteos/Project2/BearPi_LiteOS/components/net/at_device/nb_bc95\bc95.c **** }
 179              		.loc 1 724 0
 180 0036 2046     		mov	r0, r4
 181 0038 0BB0     		add	sp, sp, #44
 182              	.LCFI2:
 183              		.cfi_def_cfa_offset 12
 184              		@ sp needed
 185 003a 30BD     		pop	{r4, r5, pc}
 186              	.L15:
 187              		.align	2
 188              	.L14:
 189 003c 00000000 		.word	.LANCHOR0
 190 0040 00000000 		.word	sockinfo
 191 0044 00000000 		.word	.LANCHOR1
 192 0048 00000000 		.word	nb_step
 193 004c 00000000 		.word	at
ARM GAS  c:\Users\lenovo\AppData\Local\Temp\ccJs0CHk.s 			page 17


 194              		.cfi_endproc
 195              	.LFE163:
 197              		.section	.text.nb_cmd_with_2_suffix,"ax",%progbits
 198              		.align	1
 199              		.syntax unified
 200              		.thumb
 201              		.thumb_func
 202              		.fpu fpv4-sp-d16
 204              	nb_cmd_with_2_suffix:
 205              	.LFB148:
 304:C:/Users/lenovo/Desktop/liteos/Project2/BearPi_LiteOS/components/net/at_device/nb_bc95\bc95.c **** 
 206              		.loc 1 304 0
 207              		.cfi_startproc
 208              		@ args = 8, pretend = 0, frame = 32
 209              		@ frame_needed = 0, uses_anonymous_args = 0
 210              	.LVL14:
 211 0000 10B5     		push	{r4, lr}
 212              	.LCFI3:
 213              		.cfi_def_cfa_offset 8
 214              		.cfi_offset 4, -8
 215              		.cfi_offset 14, -4
 216 0002 8AB0     		sub	sp, sp, #40
 217              	.LCFI4:
 218              		.cfi_def_cfa_offset 48
 307:C:/Users/lenovo/Desktop/liteos/Project2/BearPi_LiteOS/components/net/at_device/nb_bc95\bc95.c **** 
 219              		.loc 1 307 0
 220 0004 0024     		movs	r4, #0
 221 0006 0594     		str	r4, [sp, #20]
 309:C:/Users/lenovo/Desktop/liteos/Project2/BearPi_LiteOS/components/net/at_device/nb_bc95\bc95.c ****     suffix[1] = suffix_err;
 222              		.loc 1 309 0
 223 0008 0892     		str	r2, [sp, #32]
 310:C:/Users/lenovo/Desktop/liteos/Project2/BearPi_LiteOS/components/net/at_device/nb_bc95\bc95.c **** 
 224              		.loc 1 310 0
 225 000a 0993     		str	r3, [sp, #36]
 312:C:/Users/lenovo/Desktop/liteos/Project2/BearPi_LiteOS/components/net/at_device/nb_bc95\bc95.c ****     cmd_info.suffix_num = array_size(suffix);
 226              		.loc 1 312 0
 227 000c 08AB     		add	r3, sp, #32
 228              	.LVL15:
 229 000e 0393     		str	r3, [sp, #12]
 313:C:/Users/lenovo/Desktop/liteos/Project2/BearPi_LiteOS/components/net/at_device/nb_bc95\bc95.c **** 
 230              		.loc 1 313 0
 231 0010 0223     		movs	r3, #2
 232 0012 0493     		str	r3, [sp, #16]
 315:C:/Users/lenovo/Desktop/liteos/Project2/BearPi_LiteOS/components/net/at_device/nb_bc95\bc95.c ****     cmd_info.resp_len = resp_len;
 233              		.loc 1 315 0
 234 0014 0C9B     		ldr	r3, [sp, #48]
 235 0016 0693     		str	r3, [sp, #24]
 316:C:/Users/lenovo/Desktop/liteos/Project2/BearPi_LiteOS/components/net/at_device/nb_bc95\bc95.c **** 
 236              		.loc 1 316 0
 237 0018 0D9B     		ldr	r3, [sp, #52]
 238 001a 0793     		str	r3, [sp, #28]
 318:C:/Users/lenovo/Desktop/liteos/Project2/BearPi_LiteOS/components/net/at_device/nb_bc95\bc95.c ****     {
 239              		.loc 1 318 0
 240 001c 0D4B     		ldr	r3, .L21
 241 001e DB6D     		ldr	r3, [r3, #92]
 242 0020 03AA     		add	r2, sp, #12
 243              	.LVL16:
ARM GAS  c:\Users\lenovo\AppData\Local\Temp\ccJs0CHk.s 			page 18


 244 0022 9847     		blx	r3
 245              	.LVL17:
 246 0024 98B9     		cbnz	r0, .L18
 247 0026 0346     		mov	r3, r0
 323:C:/Users/lenovo/Desktop/liteos/Project2/BearPi_LiteOS/components/net/at_device/nb_bc95\bc95.c ****     {
 248              		.loc 1 323 0
 249 0028 059A     		ldr	r2, [sp, #20]
 250 002a 12B9     		cbnz	r2, .L20
 251              	.L16:
 330:C:/Users/lenovo/Desktop/liteos/Project2/BearPi_LiteOS/components/net/at_device/nb_bc95\bc95.c **** 
 252              		.loc 1 330 0
 253 002c 1846     		mov	r0, r3
 254 002e 0AB0     		add	sp, sp, #40
 255              	.LCFI5:
 256              		.cfi_remember_state
 257              		.cfi_def_cfa_offset 8
 258              		@ sp needed
 259 0030 10BD     		pop	{r4, pc}
 260              	.LVL18:
 261              	.L20:
 262              	.LCFI6:
 263              		.cfi_restore_state
 325:C:/Users/lenovo/Desktop/liteos/Project2/BearPi_LiteOS/components/net/at_device/nb_bc95\bc95.c ****         return AT_FAILED;
 264              		.loc 1 325 0
 265 0032 FFF7FEFF 		bl	at_get_time
 266              	.LVL19:
 267 0036 059B     		ldr	r3, [sp, #20]
 268 0038 0093     		str	r3, [sp]
 269 003a 40F24513 		movw	r3, #325
 270 003e 064A     		ldr	r2, .L21+4
 271 0040 0146     		mov	r1, r0
 272 0042 0648     		ldr	r0, .L21+8
 273 0044 FFF7FEFF 		bl	printf
 274              	.LVL20:
 326:C:/Users/lenovo/Desktop/liteos/Project2/BearPi_LiteOS/components/net/at_device/nb_bc95\bc95.c ****     }
 275              		.loc 1 326 0
 276 0048 4FF0FF33 		mov	r3, #-1
 277 004c EEE7     		b	.L16
 278              	.L18:
 320:C:/Users/lenovo/Desktop/liteos/Project2/BearPi_LiteOS/components/net/at_device/nb_bc95\bc95.c ****     }
 279              		.loc 1 320 0
 280 004e 4FF0FF33 		mov	r3, #-1
 281 0052 EBE7     		b	.L16
 282              	.L22:
 283              		.align	2
 284              	.L21:
 285 0054 00000000 		.word	at
 286 0058 00000000 		.word	.LANCHOR2
 287 005c 00000000 		.word	.LC4
 288              		.cfi_endproc
 289              	.LFE148:
 291              		.section	.text.nb_close_sock,"ax",%progbits
 292              		.align	1
 293              		.syntax unified
 294              		.thumb
 295              		.thumb_func
 296              		.fpu fpv4-sp-d16
ARM GAS  c:\Users\lenovo\AppData\Local\Temp\ccJs0CHk.s 			page 19


 298              	nb_close_sock:
 299              	.LFB152:
 470:C:/Users/lenovo/Desktop/liteos/Project2/BearPi_LiteOS/components/net/at_device/nb_bc95\bc95.c ****     const char *cmd = "AT+NSOCL=";
 300              		.loc 1 470 0
 301              		.cfi_startproc
 302              		@ args = 0, pretend = 0, frame = 64
 303              		@ frame_needed = 0, uses_anonymous_args = 0
 304              	.LVL21:
 305 0000 00B5     		push	{lr}
 306              	.LCFI7:
 307              		.cfi_def_cfa_offset 4
 308              		.cfi_offset 14, -4
 309 0002 93B0     		sub	sp, sp, #76
 310              	.LCFI8:
 311              		.cfi_def_cfa_offset 80
 312              	.LVL22:
 475:C:/Users/lenovo/Desktop/liteos/Project2/BearPi_LiteOS/components/net/at_device/nb_bc95\bc95.c **** 	nb_cmd_with_2_suffix((int8_t*)buf, cmd_len, "OK", "ERROR", NULL,NULL);
 313              		.loc 1 475 0
 314 0004 0090     		str	r0, [sp]
 315 0006 094B     		ldr	r3, .L25
 316 0008 094A     		ldr	r2, .L25+4
 317 000a 4021     		movs	r1, #64
 318 000c 02A8     		add	r0, sp, #8
 319              	.LVL23:
 320 000e FFF7FEFF 		bl	snprintf
 321              	.LVL24:
 476:C:/Users/lenovo/Desktop/liteos/Project2/BearPi_LiteOS/components/net/at_device/nb_bc95\bc95.c **** }
 322              		.loc 1 476 0
 323 0012 0023     		movs	r3, #0
 324 0014 0193     		str	r3, [sp, #4]
 325 0016 0093     		str	r3, [sp]
 326 0018 064B     		ldr	r3, .L25+8
 327 001a 074A     		ldr	r2, .L25+12
 328 001c 0146     		mov	r1, r0
 329 001e 02A8     		add	r0, sp, #8
 330              	.LVL25:
 331 0020 FFF7FEFF 		bl	nb_cmd_with_2_suffix
 332              	.LVL26:
 477:C:/Users/lenovo/Desktop/liteos/Project2/BearPi_LiteOS/components/net/at_device/nb_bc95\bc95.c **** 
 333              		.loc 1 477 0
 334 0024 13B0     		add	sp, sp, #76
 335              	.LCFI9:
 336              		.cfi_def_cfa_offset 4
 337              		@ sp needed
 338 0026 5DF804FB 		ldr	pc, [sp], #4
 339              	.L26:
 340 002a 00BF     		.align	2
 341              	.L25:
 342 002c 00000000 		.word	.LC5
 343 0030 0C000000 		.word	.LC6
 344 0034 14000000 		.word	.LC7
 345 0038 1C000000 		.word	.LC8
 346              		.cfi_endproc
 347              	.LFE152:
 349              		.section	.text.nb_alloc_sock,"ax",%progbits
 350              		.align	1
 351              		.syntax unified
ARM GAS  c:\Users\lenovo\AppData\Local\Temp\ccJs0CHk.s 			page 20


 352              		.thumb
 353              		.thumb_func
 354              		.fpu fpv4-sp-d16
 356              	nb_alloc_sock:
 357              	.LFB133:
  82:C:/Users/lenovo/Desktop/liteos/Project2/BearPi_LiteOS/components/net/at_device/nb_bc95\bc95.c ****     int idx;
 358              		.loc 1 82 0
 359              		.cfi_startproc
 360              		@ args = 0, pretend = 0, frame = 0
 361              		@ frame_needed = 0, uses_anonymous_args = 0
 362              	.LVL27:
 363              	.LBB3:
  85:C:/Users/lenovo/Desktop/liteos/Project2/BearPi_LiteOS/components/net/at_device/nb_bc95\bc95.c ****     {
 364              		.loc 1 85 0
 365 0000 0023     		movs	r3, #0
 366 0002 00E0     		b	.L28
 367              	.LVL28:
 368              	.L29:
  85:C:/Users/lenovo/Desktop/liteos/Project2/BearPi_LiteOS/components/net/at_device/nb_bc95\bc95.c ****     {
 369              		.loc 1 85 0 is_stmt 0 discriminator 2
 370 0004 0133     		adds	r3, r3, #1
 371              	.LVL29:
 372              	.L28:
  85:C:/Users/lenovo/Desktop/liteos/Project2/BearPi_LiteOS/components/net/at_device/nb_bc95\bc95.c ****     {
 373              		.loc 1 85 0 discriminator 1
 374 0006 042B     		cmp	r3, #4
 375 0008 0FD8     		bhi	.L40
  87:C:/Users/lenovo/Desktop/liteos/Project2/BearPi_LiteOS/components/net/at_device/nb_bc95\bc95.c ****         {
 376              		.loc 1 87 0 is_stmt 1
 377 000a 1F49     		ldr	r1, .L42
 378 000c 2C22     		movs	r2, #44
 379 000e 02FB0312 		mla	r2, r2, r3, r1
 380 0012 92F82820 		ldrb	r2, [r2, #40]	@ zero_extendqisi2
 381 0016 002A     		cmp	r2, #0
 382 0018 F4D0     		beq	.L29
  87:C:/Users/lenovo/Desktop/liteos/Project2/BearPi_LiteOS/components/net/at_device/nb_bc95\bc95.c ****         {
 383              		.loc 1 87 0 is_stmt 0 discriminator 1
 384 001a 2C22     		movs	r2, #44
 385 001c 02FB03F2 		mul	r2, r2, r3
 386 0020 8A58     		ldr	r2, [r1, r2]
 387 0022 8242     		cmp	r2, r0
 388 0024 EED1     		bne	.L29
 389              	.LVL30:
 390              	.L37:
 391              	.LBE3:
 108:C:/Users/lenovo/Desktop/liteos/Project2/BearPi_LiteOS/components/net/at_device/nb_bc95\bc95.c **** 
 392              		.loc 1 108 0 is_stmt 1
 393 0026 1846     		mov	r0, r3
 394              	.LVL31:
 395 0028 7047     		bx	lr
 396              	.LVL32:
 397              	.L40:
  93:C:/Users/lenovo/Desktop/liteos/Project2/BearPi_LiteOS/components/net/at_device/nb_bc95\bc95.c ****     if (!sockinfo[idx].used_flag)
 398              		.loc 1 93 0
 399 002a 184A     		ldr	r2, .L42+4
 400 002c 82FB0032 		smull	r3, r2, r2, r0
 401              	.LVL33:
ARM GAS  c:\Users\lenovo\AppData\Local\Temp\ccJs0CHk.s 			page 21


 402 0030 C317     		asrs	r3, r0, #31
 403 0032 C3EB6203 		rsb	r3, r3, r2, asr #1
 404 0036 03EB8303 		add	r3, r3, r3, lsl #2
 405 003a C31A     		subs	r3, r0, r3
 406              	.LVL34:
  94:C:/Users/lenovo/Desktop/liteos/Project2/BearPi_LiteOS/components/net/at_device/nb_bc95\bc95.c ****     {
 407              		.loc 1 94 0
 408 003c 1249     		ldr	r1, .L42
 409 003e 2C22     		movs	r2, #44
 410 0040 02FB0312 		mla	r2, r2, r3, r1
 411 0044 92F82820 		ldrb	r2, [r2, #40]	@ zero_extendqisi2
 412 0048 002A     		cmp	r2, #0
 413 004a ECD0     		beq	.L37
 414              	.LBB4:
  99:C:/Users/lenovo/Desktop/liteos/Project2/BearPi_LiteOS/components/net/at_device/nb_bc95\bc95.c ****     {
 415              		.loc 1 99 0
 416 004c 0023     		movs	r3, #0
 417              	.LVL35:
 418              	.L32:
  99:C:/Users/lenovo/Desktop/liteos/Project2/BearPi_LiteOS/components/net/at_device/nb_bc95\bc95.c ****     {
 419              		.loc 1 99 0 is_stmt 0 discriminator 1
 420 004e 042B     		cmp	r3, #4
 421 0050 09D8     		bhi	.L41
 101:C:/Users/lenovo/Desktop/liteos/Project2/BearPi_LiteOS/components/net/at_device/nb_bc95\bc95.c ****         {
 422              		.loc 1 101 0 is_stmt 1
 423 0052 0D49     		ldr	r1, .L42
 424 0054 2C22     		movs	r2, #44
 425 0056 02FB0312 		mla	r2, r2, r3, r1
 426 005a 92F82820 		ldrb	r2, [r2, #40]	@ zero_extendqisi2
 427 005e 002A     		cmp	r2, #0
 428 0060 E1D0     		beq	.L37
  99:C:/Users/lenovo/Desktop/liteos/Project2/BearPi_LiteOS/components/net/at_device/nb_bc95\bc95.c ****     {
 429              		.loc 1 99 0 discriminator 2
 430 0062 0133     		adds	r3, r3, #1
 431              	.LVL36:
 432 0064 F3E7     		b	.L32
 433              	.L41:
 434              	.LBE4:
  82:C:/Users/lenovo/Desktop/liteos/Project2/BearPi_LiteOS/components/net/at_device/nb_bc95\bc95.c ****     int idx;
 435              		.loc 1 82 0
 436 0066 10B5     		push	{r4, lr}
 437              	.LCFI10:
 438              		.cfi_def_cfa_offset 8
 439              		.cfi_offset 4, -8
 440              		.cfi_offset 14, -4
 441 0068 82B0     		sub	sp, sp, #8
 442              	.LCFI11:
 443              		.cfi_def_cfa_offset 16
 444 006a 0446     		mov	r4, r0
 106:C:/Users/lenovo/Desktop/liteos/Project2/BearPi_LiteOS/components/net/at_device/nb_bc95\bc95.c ****     return MAX_SOCK_NUM;
 445              		.loc 1 106 0
 446 006c FFF7FEFF 		bl	at_get_time
 447              	.LVL37:
 448 0070 0094     		str	r4, [sp]
 449 0072 6A23     		movs	r3, #106
 450 0074 064A     		ldr	r2, .L42+8
 451 0076 0146     		mov	r1, r0
ARM GAS  c:\Users\lenovo\AppData\Local\Temp\ccJs0CHk.s 			page 22


 452 0078 0648     		ldr	r0, .L42+12
 453 007a FFF7FEFF 		bl	printf
 454              	.LVL38:
 107:C:/Users/lenovo/Desktop/liteos/Project2/BearPi_LiteOS/components/net/at_device/nb_bc95\bc95.c **** }
 455              		.loc 1 107 0
 456 007e 0523     		movs	r3, #5
 108:C:/Users/lenovo/Desktop/liteos/Project2/BearPi_LiteOS/components/net/at_device/nb_bc95\bc95.c **** 
 457              		.loc 1 108 0
 458 0080 1846     		mov	r0, r3
 459 0082 02B0     		add	sp, sp, #8
 460              	.LCFI12:
 461              		.cfi_def_cfa_offset 8
 462              		@ sp needed
 463 0084 10BD     		pop	{r4, pc}
 464              	.LVL39:
 465              	.L43:
 466 0086 00BF     		.align	2
 467              	.L42:
 468 0088 00000000 		.word	sockinfo
 469 008c 67666666 		.word	1717986919
 470 0090 00000000 		.word	.LANCHOR3
 471 0094 00000000 		.word	.LC9
 472              		.cfi_endproc
 473              	.LFE133:
 475              		.section	.text.nb_is_addr_valid,"ax",%progbits
 476              		.align	1
 477              		.syntax unified
 478              		.thumb
 479              		.thumb_func
 480              		.fpu fpv4-sp-d16
 482              	nb_is_addr_valid:
 483              	.LFB150:
 372:C:/Users/lenovo/Desktop/liteos/Project2/BearPi_LiteOS/components/net/at_device/nb_bc95\bc95.c ****     const int size = 4;
 484              		.loc 1 372 0
 485              		.cfi_startproc
 486              		@ args = 0, pretend = 0, frame = 16
 487              		@ frame_needed = 0, uses_anonymous_args = 0
 488              	.LVL40:
 489 0000 00B5     		push	{lr}
 490              	.LCFI13:
 491              		.cfi_def_cfa_offset 4
 492              		.cfi_offset 14, -4
 493 0002 87B0     		sub	sp, sp, #28
 494              	.LCFI14:
 495              		.cfi_def_cfa_offset 32
 496              	.LVL41:
 377:C:/Users/lenovo/Desktop/liteos/Project2/BearPi_LiteOS/components/net/at_device/nb_bc95\bc95.c ****     return  (size == ret);
 497              		.loc 1 377 0
 498 0004 05AB     		add	r3, sp, #20
 499 0006 0193     		str	r3, [sp, #4]
 500 0008 04AB     		add	r3, sp, #16
 501 000a 0093     		str	r3, [sp]
 502 000c 03AB     		add	r3, sp, #12
 503 000e 02AA     		add	r2, sp, #8
 504 0010 0449     		ldr	r1, .L46
 505 0012 FFF7FEFF 		bl	sscanf
 506              	.LVL42:
ARM GAS  c:\Users\lenovo\AppData\Local\Temp\ccJs0CHk.s 			page 23


 379:C:/Users/lenovo/Desktop/liteos/Project2/BearPi_LiteOS/components/net/at_device/nb_bc95\bc95.c **** 
 507              		.loc 1 379 0
 508 0016 0428     		cmp	r0, #4
 509 0018 14BF     		ite	ne
 510 001a 0020     		movne	r0, #0
 511              	.LVL43:
 512 001c 0120     		moveq	r0, #1
 513 001e 07B0     		add	sp, sp, #28
 514              	.LCFI15:
 515              		.cfi_def_cfa_offset 4
 516              		@ sp needed
 517 0020 5DF804FB 		ldr	pc, [sp], #4
 518              	.L47:
 519              		.align	2
 520              	.L46:
 521 0024 00000000 		.word	.LC10
 522              		.cfi_endproc
 523              	.LFE150:
 525              		.section	.text.nb_recv_timeout,"ax",%progbits
 526              		.align	1
 527              		.global	nb_recv_timeout
 528              		.syntax unified
 529              		.thumb
 530              		.thumb_func
 531              		.fpu fpv4-sp-d16
 533              	nb_recv_timeout:
 534              	.LFB160:
 617:C:/Users/lenovo/Desktop/liteos/Project2/BearPi_LiteOS/components/net/at_device/nb_bc95\bc95.c ****     int rlen = 0;
 535              		.loc 1 617 0
 536              		.cfi_startproc
 537              		@ args = 8, pretend = 0, frame = 56
 538              		@ frame_needed = 0, uses_anonymous_args = 0
 539              	.LVL44:
 540 0000 2DE9F041 		push	{r4, r5, r6, r7, r8, lr}
 541              	.LCFI16:
 542              		.cfi_def_cfa_offset 24
 543              		.cfi_offset 4, -24
 544              		.cfi_offset 5, -20
 545              		.cfi_offset 6, -16
 546              		.cfi_offset 7, -12
 547              		.cfi_offset 8, -8
 548              		.cfi_offset 14, -4
 549 0004 90B0     		sub	sp, sp, #64
 550              	.LCFI17:
 551              		.cfi_def_cfa_offset 88
 552 0006 0446     		mov	r4, r0
 553 0008 1F46     		mov	r7, r3
 554              	.LVL45:
 621:C:/Users/lenovo/Desktop/liteos/Project2/BearPi_LiteOS/components/net/at_device/nb_bc95\bc95.c **** 
 555              		.loc 1 621 0
 556 000a 3423     		movs	r3, #52
 557              	.LVL46:
 558 000c 0293     		str	r3, [sp, #8]
 623:C:/Users/lenovo/Desktop/liteos/Project2/BearPi_LiteOS/components/net/at_device/nb_bc95\bc95.c ****     {
 559              		.loc 1 623 0
 560 000e 0428     		cmp	r0, #4
 561 0010 4BDC     		bgt	.L56
ARM GAS  c:\Users\lenovo\AppData\Local\Temp\ccJs0CHk.s 			page 24


 562 0012 0D46     		mov	r5, r1
 563 0014 1646     		mov	r6, r2
 630:C:/Users/lenovo/Desktop/liteos/Project2/BearPi_LiteOS/components/net/at_device/nb_bc95\bc95.c ****     //AT_LOG("wwww LOS_QueueReadCopy data,qid %d, len %ld, ret %d", at.linkid[id].qid, qbuf.len, re
 564              		.loc 1 630 0
 565 0016 314B     		ldr	r3, .L58
 566 0018 586B     		ldr	r0, [r3, #52]
 567              	.LVL47:
 568 001a 00EB4410 		add	r0, r0, r4, lsl #5
 569 001e 179B     		ldr	r3, [sp, #92]
 570 0020 02AA     		add	r2, sp, #8
 571              	.LVL48:
 572 0022 03A9     		add	r1, sp, #12
 573              	.LVL49:
 574 0024 4068     		ldr	r0, [r0, #4]
 575 0026 FFF7FEFF 		bl	LOS_QueueReadCopy
 576              	.LVL50:
 632:C:/Users/lenovo/Desktop/liteos/Project2/BearPi_LiteOS/components/net/at_device/nb_bc95\bc95.c ****     {
 577              		.loc 1 632 0
 578 002a 0028     		cmp	r0, #0
 579 002c 52D1     		bne	.L54
 638:C:/Users/lenovo/Desktop/liteos/Project2/BearPi_LiteOS/components/net/at_device/nb_bc95\bc95.c ****         || (0 == sockinfo[id].remoteport))
 580              		.loc 1 638 0
 581 002e 2C4A     		ldr	r2, .L58+4
 582 0030 2C23     		movs	r3, #44
 583 0032 03FB0423 		mla	r3, r3, r4, r2
 584 0036 1B7E     		ldrb	r3, [r3, #24]	@ zero_extendqisi2
 585 0038 2BB1     		cbz	r3, .L51
 639:C:/Users/lenovo/Desktop/liteos/Project2/BearPi_LiteOS/components/net/at_device/nb_bc95\bc95.c ****     {
 586              		.loc 1 639 0
 587 003a 2C23     		movs	r3, #44
 588 003c 03FB0423 		mla	r3, r3, r4, r2
 589 0040 B3F91630 		ldrsh	r3, [r3, #22]
 590 0044 DBB9     		cbnz	r3, .L52
 591              	.L51:
 641:C:/Users/lenovo/Desktop/liteos/Project2/BearPi_LiteOS/components/net/at_device/nb_bc95\bc95.c ****         strncpy(sockinfo[id].remoteip, qbuf.ipaddr, sizeof(sockinfo[id].remoteip));
 592              		.loc 1 641 0
 593 0046 FFF7FEFF 		bl	at_get_time
 594              	.LVL51:
 595 004a 0094     		str	r4, [sp]
 596 004c 40F28123 		movw	r3, #641
 597 0050 244A     		ldr	r2, .L58+8
 598 0052 0146     		mov	r1, r0
 599 0054 2448     		ldr	r0, .L58+12
 600 0056 FFF7FEFF 		bl	printf
 601              	.LVL52:
 642:C:/Users/lenovo/Desktop/liteos/Project2/BearPi_LiteOS/components/net/at_device/nb_bc95\bc95.c ****         sockinfo[id].remoteip[sizeof(sockinfo[id].remoteip) - 1] = '\0';
 602              		.loc 1 642 0
 603 005a 4FF02C08 		mov	r8, #44
 604 005e 08FB04F8 		mul	r8, r8, r4
 605 0062 08F11800 		add	r0, r8, #24
 606 0066 1E4C     		ldr	r4, .L58+4
 607              	.LVL53:
 608 0068 1022     		movs	r2, #16
 609 006a 05A9     		add	r1, sp, #20
 610 006c 2044     		add	r0, r0, r4
 611 006e FFF7FEFF 		bl	strncpy
 612              	.LVL54:
ARM GAS  c:\Users\lenovo\AppData\Local\Temp\ccJs0CHk.s 			page 25


 643:C:/Users/lenovo/Desktop/liteos/Project2/BearPi_LiteOS/components/net/at_device/nb_bc95\bc95.c ****         sockinfo[id].remoteport = qbuf.port;
 613              		.loc 1 643 0
 614 0072 4444     		add	r4, r4, r8
 615 0074 0023     		movs	r3, #0
 616 0076 84F82730 		strb	r3, [r4, #39]
 644:C:/Users/lenovo/Desktop/liteos/Project2/BearPi_LiteOS/components/net/at_device/nb_bc95\bc95.c ****     }
 617              		.loc 1 644 0
 618 007a 0F9B     		ldr	r3, [sp, #60]
 619 007c E382     		strh	r3, [r4, #22]	@ movhi
 620              	.L52:
 647:C:/Users/lenovo/Desktop/liteos/Project2/BearPi_LiteOS/components/net/at_device/nb_bc95\bc95.c **** 	{
 621              		.loc 1 647 0
 622 007e 57B1     		cbz	r7, .L53
 649:C:/Users/lenovo/Desktop/liteos/Project2/BearPi_LiteOS/components/net/at_device/nb_bc95\bc95.c ****         *port = qbuf.port;
 623              		.loc 1 649 0
 624 0080 05A8     		add	r0, sp, #20
 625 0082 FFF7FEFF 		bl	strlen
 626              	.LVL55:
 627 0086 0246     		mov	r2, r0
 628 0088 05A9     		add	r1, sp, #20
 629 008a 3846     		mov	r0, r7
 630 008c FFF7FEFF 		bl	memcpy
 631              	.LVL56:
 650:C:/Users/lenovo/Desktop/liteos/Project2/BearPi_LiteOS/components/net/at_device/nb_bc95\bc95.c **** 	}
 632              		.loc 1 650 0
 633 0090 0F9A     		ldr	r2, [sp, #60]
 634 0092 169B     		ldr	r3, [sp, #88]
 635 0094 1A60     		str	r2, [r3]
 636              	.L53:
 653:C:/Users/lenovo/Desktop/liteos/Project2/BearPi_LiteOS/components/net/at_device/nb_bc95\bc95.c **** 
 637              		.loc 1 653 0
 638 0096 039A     		ldr	r2, [sp, #12]
 639 0098 B242     		cmp	r2, r6
 640 009a 28BF     		it	cs
 641 009c 3246     		movcs	r2, r6
 642 009e 1446     		mov	r4, r2
 643              	.LVL57:
 657:C:/Users/lenovo/Desktop/liteos/Project2/BearPi_LiteOS/components/net/at_device/nb_bc95\bc95.c ****         memcpy(buf, qbuf.addr, rlen);
 644              		.loc 1 657 0
 645 00a0 82B9     		cbnz	r2, .L57
 646              	.LVL58:
 647              	.L48:
 663:C:/Users/lenovo/Desktop/liteos/Project2/BearPi_LiteOS/components/net/at_device/nb_bc95\bc95.c **** 
 648              		.loc 1 663 0
 649 00a2 2046     		mov	r0, r4
 650 00a4 10B0     		add	sp, sp, #64
 651              	.LCFI18:
 652              		.cfi_remember_state
 653              		.cfi_def_cfa_offset 24
 654              		@ sp needed
 655 00a6 BDE8F081 		pop	{r4, r5, r6, r7, r8, pc}
 656              	.LVL59:
 657              	.L56:
 658              	.LCFI19:
 659              		.cfi_restore_state
 625:C:/Users/lenovo/Desktop/liteos/Project2/BearPi_LiteOS/components/net/at_device/nb_bc95\bc95.c ****         return AT_FAILED;
 660              		.loc 1 625 0
ARM GAS  c:\Users\lenovo\AppData\Local\Temp\ccJs0CHk.s 			page 26


 661 00aa FFF7FEFF 		bl	at_get_time
 662              	.LVL60:
 663 00ae 0094     		str	r4, [sp]
 664 00b0 40F27123 		movw	r3, #625
 665 00b4 0B4A     		ldr	r2, .L58+8
 666 00b6 0146     		mov	r1, r0
 667 00b8 0C48     		ldr	r0, .L58+16
 668 00ba FFF7FEFF 		bl	printf
 669              	.LVL61:
 626:C:/Users/lenovo/Desktop/liteos/Project2/BearPi_LiteOS/components/net/at_device/nb_bc95\bc95.c ****     }
 670              		.loc 1 626 0
 671 00be 4FF0FF34 		mov	r4, #-1
 672              	.LVL62:
 673 00c2 EEE7     		b	.L48
 674              	.LVL63:
 675              	.L57:
 658:C:/Users/lenovo/Desktop/liteos/Project2/BearPi_LiteOS/components/net/at_device/nb_bc95\bc95.c ****         at_free(qbuf.addr);
 676              		.loc 1 658 0
 677 00c4 0499     		ldr	r1, [sp, #16]
 678 00c6 2846     		mov	r0, r5
 679 00c8 FFF7FEFF 		bl	memcpy
 680              	.LVL64:
 659:C:/Users/lenovo/Desktop/liteos/Project2/BearPi_LiteOS/components/net/at_device/nb_bc95\bc95.c ****     }
 681              		.loc 1 659 0
 682 00cc 0498     		ldr	r0, [sp, #16]
 683 00ce FFF7FEFF 		bl	at_free
 684              	.LVL65:
 685 00d2 E6E7     		b	.L48
 686              	.LVL66:
 687              	.L54:
 634:C:/Users/lenovo/Desktop/liteos/Project2/BearPi_LiteOS/components/net/at_device/nb_bc95\bc95.c ****     }
 688              		.loc 1 634 0
 689 00d4 6FF00104 		mvn	r4, #1
 690              	.LVL67:
 691 00d8 E3E7     		b	.L48
 692              	.L59:
 693 00da 00BF     		.align	2
 694              	.L58:
 695 00dc 00000000 		.word	at
 696 00e0 00000000 		.word	sockinfo
 697 00e4 00000000 		.word	.LANCHOR4
 698 00e8 24000000 		.word	.LC12
 699 00ec 00000000 		.word	.LC11
 700              		.cfi_endproc
 701              	.LFE160:
 703              		.section	.text.nb_recv,"ax",%progbits
 704              		.align	1
 705              		.global	nb_recv
 706              		.syntax unified
 707              		.thumb
 708              		.thumb_func
 709              		.fpu fpv4-sp-d16
 711              	nb_recv:
 712              	.LFB158:
 607:C:/Users/lenovo/Desktop/liteos/Project2/BearPi_LiteOS/components/net/at_device/nb_bc95\bc95.c ****     return nb_recv_timeout(id, buf, len,NULL,NULL, LOS_WAIT_FOREVER);
 713              		.loc 1 607 0
 714              		.cfi_startproc
ARM GAS  c:\Users\lenovo\AppData\Local\Temp\ccJs0CHk.s 			page 27


 715              		@ args = 0, pretend = 0, frame = 0
 716              		@ frame_needed = 0, uses_anonymous_args = 0
 717              	.LVL68:
 718 0000 00B5     		push	{lr}
 719              	.LCFI20:
 720              		.cfi_def_cfa_offset 4
 721              		.cfi_offset 14, -4
 722 0002 83B0     		sub	sp, sp, #12
 723              	.LCFI21:
 724              		.cfi_def_cfa_offset 16
 608:C:/Users/lenovo/Desktop/liteos/Project2/BearPi_LiteOS/components/net/at_device/nb_bc95\bc95.c **** }
 725              		.loc 1 608 0
 726 0004 4FF0FF33 		mov	r3, #-1
 727 0008 0193     		str	r3, [sp, #4]
 728 000a 0023     		movs	r3, #0
 729 000c 0093     		str	r3, [sp]
 730 000e FFF7FEFF 		bl	nb_recv_timeout
 731              	.LVL69:
 609:C:/Users/lenovo/Desktop/liteos/Project2/BearPi_LiteOS/components/net/at_device/nb_bc95\bc95.c **** 
 732              		.loc 1 609 0
 733 0012 03B0     		add	sp, sp, #12
 734              	.LCFI22:
 735              		.cfi_def_cfa_offset 4
 736              		@ sp needed
 737 0014 5DF804FB 		ldr	pc, [sp], #4
 738              		.cfi_endproc
 739              	.LFE158:
 741              		.section	.text.nb_recvfrom,"ax",%progbits
 742              		.align	1
 743              		.global	nb_recvfrom
 744              		.syntax unified
 745              		.thumb
 746              		.thumb_func
 747              		.fpu fpv4-sp-d16
 749              	nb_recvfrom:
 750              	.LFB159:
 612:C:/Users/lenovo/Desktop/liteos/Project2/BearPi_LiteOS/components/net/at_device/nb_bc95\bc95.c ****     return nb_recv_timeout(id, buf, len, ipaddr,port,LOS_WAIT_FOREVER);
 751              		.loc 1 612 0
 752              		.cfi_startproc
 753              		@ args = 4, pretend = 0, frame = 0
 754              		@ frame_needed = 0, uses_anonymous_args = 0
 755              	.LVL70:
 756 0000 10B5     		push	{r4, lr}
 757              	.LCFI23:
 758              		.cfi_def_cfa_offset 8
 759              		.cfi_offset 4, -8
 760              		.cfi_offset 14, -4
 761 0002 82B0     		sub	sp, sp, #8
 762              	.LCFI24:
 763              		.cfi_def_cfa_offset 16
 613:C:/Users/lenovo/Desktop/liteos/Project2/BearPi_LiteOS/components/net/at_device/nb_bc95\bc95.c **** }
 764              		.loc 1 613 0
 765 0004 4FF0FF34 		mov	r4, #-1
 766 0008 0194     		str	r4, [sp, #4]
 767 000a 049C     		ldr	r4, [sp, #16]
 768 000c 0094     		str	r4, [sp]
 769 000e FFF7FEFF 		bl	nb_recv_timeout
ARM GAS  c:\Users\lenovo\AppData\Local\Temp\ccJs0CHk.s 			page 28


 770              	.LVL71:
 614:C:/Users/lenovo/Desktop/liteos/Project2/BearPi_LiteOS/components/net/at_device/nb_bc95\bc95.c **** 
 771              		.loc 1 614 0
 772 0012 02B0     		add	sp, sp, #8
 773              	.LCFI25:
 774              		.cfi_def_cfa_offset 8
 775              		@ sp needed
 776 0014 10BD     		pop	{r4, pc}
 777              		.cfi_endproc
 778              	.LFE159:
 780              		.section	.text.nb_close,"ax",%progbits
 781              		.align	1
 782              		.global	nb_close
 783              		.syntax unified
 784              		.thumb
 785              		.thumb_func
 786              		.fpu fpv4-sp-d16
 788              	nb_close:
 789              	.LFB161:
 667:C:/Users/lenovo/Desktop/liteos/Project2/BearPi_LiteOS/components/net/at_device/nb_bc95\bc95.c ****     int ret;
 790              		.loc 1 667 0
 791              		.cfi_startproc
 792              		@ args = 0, pretend = 0, frame = 56
 793              		@ frame_needed = 0, uses_anonymous_args = 0
 794              	.LVL72:
 795 0000 70B5     		push	{r4, r5, r6, lr}
 796              	.LCFI26:
 797              		.cfi_def_cfa_offset 16
 798              		.cfi_offset 4, -16
 799              		.cfi_offset 5, -12
 800              		.cfi_offset 6, -8
 801              		.cfi_offset 14, -4
 802 0002 90B0     		sub	sp, sp, #64
 803              	.LCFI27:
 804              		.cfi_def_cfa_offset 80
 805 0004 0646     		mov	r6, r0
 670:C:/Users/lenovo/Desktop/liteos/Project2/BearPi_LiteOS/components/net/at_device/nb_bc95\bc95.c ****         || (!sockinfo[id].used_flag))
 806              		.loc 1 670 0
 807 0006 0428     		cmp	r0, #4
 808 0008 0EDC     		bgt	.L65
 671:C:/Users/lenovo/Desktop/liteos/Project2/BearPi_LiteOS/components/net/at_device/nb_bc95\bc95.c ****     {
 809              		.loc 1 671 0
 810 000a 2D4A     		ldr	r2, .L74
 811 000c 2C23     		movs	r3, #44
 812 000e 03FB0023 		mla	r3, r3, r0, r2
 813 0012 93F82830 		ldrb	r3, [r3, #40]	@ zero_extendqisi2
 814 0016 3BB1     		cbz	r3, .L65
 677:C:/Users/lenovo/Desktop/liteos/Project2/BearPi_LiteOS/components/net/at_device/nb_bc95\bc95.c **** 
 815              		.loc 1 677 0
 816 0018 2C23     		movs	r3, #44
 817 001a 03FB00F3 		mul	r3, r3, r0
 818 001e 284A     		ldr	r2, .L74
 819 0020 D058     		ldr	r0, [r2, r3]
 820              	.LVL73:
 821 0022 FFF7FEFF 		bl	nb_close_sock
 822              	.LVL74:
 823 0026 0DE0     		b	.L69
ARM GAS  c:\Users\lenovo\AppData\Local\Temp\ccJs0CHk.s 			page 29


 824              	.LVL75:
 825              	.L65:
 673:C:/Users/lenovo/Desktop/liteos/Project2/BearPi_LiteOS/components/net/at_device/nb_bc95\bc95.c ****         return AT_FAILED;
 826              		.loc 1 673 0
 827 0028 FFF7FEFF 		bl	at_get_time
 828              	.LVL76:
 829 002c 0096     		str	r6, [sp]
 830 002e 40F2A123 		movw	r3, #673
 831 0032 244A     		ldr	r2, .L74+4
 832 0034 0146     		mov	r1, r0
 833 0036 2448     		ldr	r0, .L74+8
 834 0038 FFF7FEFF 		bl	printf
 835              	.LVL77:
 674:C:/Users/lenovo/Desktop/liteos/Project2/BearPi_LiteOS/components/net/at_device/nb_bc95\bc95.c ****     }
 836              		.loc 1 674 0
 837 003c 4FF0FF30 		mov	r0, #-1
 838 0040 2CE0     		b	.L64
 839              	.LVL78:
 840              	.L68:
 688:C:/Users/lenovo/Desktop/liteos/Project2/BearPi_LiteOS/components/net/at_device/nb_bc95\bc95.c ****     ret = LOS_QueueDelete(at.linkid[id].qid);
 841              		.loc 1 688 0
 842 0042 D5B9     		cbnz	r5, .L72
 843              	.LVL79:
 844              	.L69:
 845              	.LBB5:
 681:C:/Users/lenovo/Desktop/liteos/Project2/BearPi_LiteOS/components/net/at_device/nb_bc95\bc95.c ****         UINT32 qlen = sizeof(QUEUE_BUFF);
 846              		.loc 1 681 0
 847 0044 3424     		movs	r4, #52
 848 0046 2246     		mov	r2, r4
 849 0048 0021     		movs	r1, #0
 850 004a 03A8     		add	r0, sp, #12
 851 004c FFF7FEFF 		bl	memset
 852              	.LVL80:
 682:C:/Users/lenovo/Desktop/liteos/Project2/BearPi_LiteOS/components/net/at_device/nb_bc95\bc95.c ****         ret = LOS_QueueReadCopy(at.linkid[id].qid, &qbuf, &qlen, 0);
 853              		.loc 1 682 0
 854 0050 10AA     		add	r2, sp, #64
 855 0052 42F8384D 		str	r4, [r2, #-56]!
 683:C:/Users/lenovo/Desktop/liteos/Project2/BearPi_LiteOS/components/net/at_device/nb_bc95\bc95.c ****         if (ret == LOS_OK && qbuf.addr != NULL)
 856              		.loc 1 683 0
 857 0056 1D4B     		ldr	r3, .L74+12
 858 0058 586B     		ldr	r0, [r3, #52]
 859 005a 7401     		lsls	r4, r6, #5
 860 005c 2044     		add	r0, r0, r4
 861 005e 0023     		movs	r3, #0
 862 0060 03A9     		add	r1, sp, #12
 863 0062 4068     		ldr	r0, [r0, #4]
 864 0064 FFF7FEFF 		bl	LOS_QueueReadCopy
 865              	.LVL81:
 684:C:/Users/lenovo/Desktop/liteos/Project2/BearPi_LiteOS/components/net/at_device/nb_bc95\bc95.c ****         {
 866              		.loc 1 684 0
 867 0068 0546     		mov	r5, r0
 868 006a 0028     		cmp	r0, #0
 869 006c E9D1     		bne	.L68
 684:C:/Users/lenovo/Desktop/liteos/Project2/BearPi_LiteOS/components/net/at_device/nb_bc95\bc95.c ****         {
 870              		.loc 1 684 0 is_stmt 0 discriminator 1
 871 006e 0498     		ldr	r0, [sp, #16]
 872              	.LVL82:
ARM GAS  c:\Users\lenovo\AppData\Local\Temp\ccJs0CHk.s 			page 30


 873 0070 0028     		cmp	r0, #0
 874 0072 E6D0     		beq	.L68
 686:C:/Users/lenovo/Desktop/liteos/Project2/BearPi_LiteOS/components/net/at_device/nb_bc95\bc95.c ****         }
 875              		.loc 1 686 0 is_stmt 1
 876 0074 FFF7FEFF 		bl	at_free
 877              	.LVL83:
 878 0078 E3E7     		b	.L68
 879              	.L72:
 880              	.LBE5:
 689:C:/Users/lenovo/Desktop/liteos/Project2/BearPi_LiteOS/components/net/at_device/nb_bc95\bc95.c ****     if (ret != LOS_OK)
 881              		.loc 1 689 0
 882 007a 144B     		ldr	r3, .L74+12
 883 007c 5B6B     		ldr	r3, [r3, #52]
 884 007e 2344     		add	r3, r3, r4
 885 0080 5868     		ldr	r0, [r3, #4]
 886 0082 FFF7FEFF 		bl	LOS_QueueDelete
 887              	.LVL84:
 690:C:/Users/lenovo/Desktop/liteos/Project2/BearPi_LiteOS/components/net/at_device/nb_bc95\bc95.c ****     {
 888              		.loc 1 690 0
 889 0086 0546     		mov	r5, r0
 890 0088 50B9     		cbnz	r0, .L73
 891              	.LVL85:
 892              	.L70:
 694:C:/Users/lenovo/Desktop/liteos/Project2/BearPi_LiteOS/components/net/at_device/nb_bc95\bc95.c **** 
 893              		.loc 1 694 0
 894 008a 2C23     		movs	r3, #44
 895 008c 1A46     		mov	r2, r3
 896 008e 0021     		movs	r1, #0
 897 0090 0B48     		ldr	r0, .L74
 898 0092 03FB0600 		mla	r0, r3, r6, r0
 899 0096 FFF7FEFF 		bl	memset
 900              	.LVL86:
 696:C:/Users/lenovo/Desktop/liteos/Project2/BearPi_LiteOS/components/net/at_device/nb_bc95\bc95.c **** }
 901              		.loc 1 696 0
 902 009a 0020     		movs	r0, #0
 903              	.LVL87:
 904              	.L64:
 697:C:/Users/lenovo/Desktop/liteos/Project2/BearPi_LiteOS/components/net/at_device/nb_bc95\bc95.c **** 
 905              		.loc 1 697 0
 906 009c 10B0     		add	sp, sp, #64
 907              	.LCFI28:
 908              		.cfi_remember_state
 909              		.cfi_def_cfa_offset 16
 910              		@ sp needed
 911 009e 70BD     		pop	{r4, r5, r6, pc}
 912              	.LVL88:
 913              	.L73:
 914              	.LCFI29:
 915              		.cfi_restore_state
 692:C:/Users/lenovo/Desktop/liteos/Project2/BearPi_LiteOS/components/net/at_device/nb_bc95\bc95.c ****     }
 916              		.loc 1 692 0
 917 00a0 FFF7FEFF 		bl	at_get_time
 918              	.LVL89:
 919 00a4 094B     		ldr	r3, .L74+12
 920 00a6 5B6B     		ldr	r3, [r3, #52]
 921 00a8 1C44     		add	r4, r4, r3
 922 00aa 6368     		ldr	r3, [r4, #4]
ARM GAS  c:\Users\lenovo\AppData\Local\Temp\ccJs0CHk.s 			page 31


 923 00ac 0193     		str	r3, [sp, #4]
 924 00ae 0095     		str	r5, [sp]
 925 00b0 4FF42D73 		mov	r3, #692
 926 00b4 034A     		ldr	r2, .L74+4
 927 00b6 0146     		mov	r1, r0
 928 00b8 0548     		ldr	r0, .L74+16
 929 00ba FFF7FEFF 		bl	printf
 930              	.LVL90:
 931 00be E4E7     		b	.L70
 932              	.L75:
 933              		.align	2
 934              	.L74:
 935 00c0 00000000 		.word	sockinfo
 936 00c4 00000000 		.word	.LANCHOR5
 937 00c8 00000000 		.word	.LC11
 938 00cc 00000000 		.word	at
 939 00d0 00000000 		.word	.LC13
 940              		.cfi_endproc
 941              	.LFE161:
 943              		.section	.text.nb_cmd_rcv_data,"ax",%progbits
 944              		.align	1
 945              		.syntax unified
 946              		.thumb
 947              		.thumb_func
 948              		.fpu fpv4-sp-d16
 950              	nb_cmd_rcv_data:
 951              	.LFB167:
 725:C:/Users/lenovo/Desktop/liteos/Project2/BearPi_LiteOS/components/net/at_device/nb_bc95\bc95.c **** 
 726:C:/Users/lenovo/Desktop/liteos/Project2/BearPi_LiteOS/components/net/at_device/nb_bc95\bc95.c **** int32_t nb_deinit(void)
 727:C:/Users/lenovo/Desktop/liteos/Project2/BearPi_LiteOS/components/net/at_device/nb_bc95\bc95.c **** {
 728:C:/Users/lenovo/Desktop/liteos/Project2/BearPi_LiteOS/components/net/at_device/nb_bc95\bc95.c **** 
 729:C:/Users/lenovo/Desktop/liteos/Project2/BearPi_LiteOS/components/net/at_device/nb_bc95\bc95.c ****     for (int i = 0; i < MAX_SOCK_NUM; ++i)
 730:C:/Users/lenovo/Desktop/liteos/Project2/BearPi_LiteOS/components/net/at_device/nb_bc95\bc95.c ****     {
 731:C:/Users/lenovo/Desktop/liteos/Project2/BearPi_LiteOS/components/net/at_device/nb_bc95\bc95.c ****         if (sockinfo[i].used_flag)
 732:C:/Users/lenovo/Desktop/liteos/Project2/BearPi_LiteOS/components/net/at_device/nb_bc95\bc95.c ****         {
 733:C:/Users/lenovo/Desktop/liteos/Project2/BearPi_LiteOS/components/net/at_device/nb_bc95\bc95.c ****             nb_close(i);
 734:C:/Users/lenovo/Desktop/liteos/Project2/BearPi_LiteOS/components/net/at_device/nb_bc95\bc95.c ****         }
 735:C:/Users/lenovo/Desktop/liteos/Project2/BearPi_LiteOS/components/net/at_device/nb_bc95\bc95.c ****     }
 736:C:/Users/lenovo/Desktop/liteos/Project2/BearPi_LiteOS/components/net/at_device/nb_bc95\bc95.c ****     return nb_reboot();
 737:C:/Users/lenovo/Desktop/liteos/Project2/BearPi_LiteOS/components/net/at_device/nb_bc95\bc95.c **** }
 738:C:/Users/lenovo/Desktop/liteos/Project2/BearPi_LiteOS/components/net/at_device/nb_bc95\bc95.c **** 
 739:C:/Users/lenovo/Desktop/liteos/Project2/BearPi_LiteOS/components/net/at_device/nb_bc95\bc95.c **** at_adaptor_api bc95_interface =
 740:C:/Users/lenovo/Desktop/liteos/Project2/BearPi_LiteOS/components/net/at_device/nb_bc95\bc95.c **** {
 741:C:/Users/lenovo/Desktop/liteos/Project2/BearPi_LiteOS/components/net/at_device/nb_bc95\bc95.c ****     .init = nb_init,
 742:C:/Users/lenovo/Desktop/liteos/Project2/BearPi_LiteOS/components/net/at_device/nb_bc95\bc95.c **** 
 743:C:/Users/lenovo/Desktop/liteos/Project2/BearPi_LiteOS/components/net/at_device/nb_bc95\bc95.c ****     .bind = nb_bind,
 744:C:/Users/lenovo/Desktop/liteos/Project2/BearPi_LiteOS/components/net/at_device/nb_bc95\bc95.c **** 
 745:C:/Users/lenovo/Desktop/liteos/Project2/BearPi_LiteOS/components/net/at_device/nb_bc95\bc95.c ****     .connect = nb_connect,
 746:C:/Users/lenovo/Desktop/liteos/Project2/BearPi_LiteOS/components/net/at_device/nb_bc95\bc95.c ****     .send = nb_send,
 747:C:/Users/lenovo/Desktop/liteos/Project2/BearPi_LiteOS/components/net/at_device/nb_bc95\bc95.c ****     .sendto = nb_sendto,
 748:C:/Users/lenovo/Desktop/liteos/Project2/BearPi_LiteOS/components/net/at_device/nb_bc95\bc95.c **** 
 749:C:/Users/lenovo/Desktop/liteos/Project2/BearPi_LiteOS/components/net/at_device/nb_bc95\bc95.c ****     .recv_timeout = nb_recv_timeout,
 750:C:/Users/lenovo/Desktop/liteos/Project2/BearPi_LiteOS/components/net/at_device/nb_bc95\bc95.c ****     .recv = nb_recv,
 751:C:/Users/lenovo/Desktop/liteos/Project2/BearPi_LiteOS/components/net/at_device/nb_bc95\bc95.c ****     .recvfrom = nb_recvfrom,
 752:C:/Users/lenovo/Desktop/liteos/Project2/BearPi_LiteOS/components/net/at_device/nb_bc95\bc95.c **** 
 753:C:/Users/lenovo/Desktop/liteos/Project2/BearPi_LiteOS/components/net/at_device/nb_bc95\bc95.c ****     .close = nb_close,
 754:C:/Users/lenovo/Desktop/liteos/Project2/BearPi_LiteOS/components/net/at_device/nb_bc95\bc95.c ****     .recv_cb = nb_recv_cb,
ARM GAS  c:\Users\lenovo\AppData\Local\Temp\ccJs0CHk.s 			page 32


 755:C:/Users/lenovo/Desktop/liteos/Project2/BearPi_LiteOS/components/net/at_device/nb_bc95\bc95.c **** 
 756:C:/Users/lenovo/Desktop/liteos/Project2/BearPi_LiteOS/components/net/at_device/nb_bc95\bc95.c ****     .deinit = nb_deinit,
 757:C:/Users/lenovo/Desktop/liteos/Project2/BearPi_LiteOS/components/net/at_device/nb_bc95\bc95.c **** };
 758:C:/Users/lenovo/Desktop/liteos/Project2/BearPi_LiteOS/components/net/at_device/nb_bc95\bc95.c **** 
 759:C:/Users/lenovo/Desktop/liteos/Project2/BearPi_LiteOS/components/net/at_device/nb_bc95\bc95.c **** void nb_reattach(void)
 760:C:/Users/lenovo/Desktop/liteos/Project2/BearPi_LiteOS/components/net/at_device/nb_bc95\bc95.c **** {
 761:C:/Users/lenovo/Desktop/liteos/Project2/BearPi_LiteOS/components/net/at_device/nb_bc95\bc95.c ****     (void)nb_cmd_with_2_suffix((int8_t*)CGATT, strlen(CGATT), "OK", "ERROR", NULL, NULL);
 762:C:/Users/lenovo/Desktop/liteos/Project2/BearPi_LiteOS/components/net/at_device/nb_bc95\bc95.c ****      (void)nb_cmd_with_2_suffix((int8_t*)CGATT_DEATTACH, strlen(CGATT_DEATTACH), "OK", "ERROR", NUL
 763:C:/Users/lenovo/Desktop/liteos/Project2/BearPi_LiteOS/components/net/at_device/nb_bc95\bc95.c ****      LOS_TaskDelay(1000);
 764:C:/Users/lenovo/Desktop/liteos/Project2/BearPi_LiteOS/components/net/at_device/nb_bc95\bc95.c ****      (void)nb_cmd_with_2_suffix((int8_t*)CGATT_ATTACH, strlen(CGATT_ATTACH), "OK", "ERROR", NULL, N
 765:C:/Users/lenovo/Desktop/liteos/Project2/BearPi_LiteOS/components/net/at_device/nb_bc95\bc95.c **** }
 766:C:/Users/lenovo/Desktop/liteos/Project2/BearPi_LiteOS/components/net/at_device/nb_bc95\bc95.c **** 
 767:C:/Users/lenovo/Desktop/liteos/Project2/BearPi_LiteOS/components/net/at_device/nb_bc95\bc95.c **** static int nb_cmd_rcv_data(int sockid, int readleft);
 768:C:/Users/lenovo/Desktop/liteos/Project2/BearPi_LiteOS/components/net/at_device/nb_bc95\bc95.c **** 
 769:C:/Users/lenovo/Desktop/liteos/Project2/BearPi_LiteOS/components/net/at_device/nb_bc95\bc95.c **** 
 770:C:/Users/lenovo/Desktop/liteos/Project2/BearPi_LiteOS/components/net/at_device/nb_bc95\bc95.c **** static int32_t nb_handle_sock_data(const int8_t *data, uint32_t len)
 771:C:/Users/lenovo/Desktop/liteos/Project2/BearPi_LiteOS/components/net/at_device/nb_bc95\bc95.c **** {
 772:C:/Users/lenovo/Desktop/liteos/Project2/BearPi_LiteOS/components/net/at_device/nb_bc95\bc95.c ****     (void) len;
 773:C:/Users/lenovo/Desktop/liteos/Project2/BearPi_LiteOS/components/net/at_device/nb_bc95\bc95.c ****     char *curr = (char *)data;
 774:C:/Users/lenovo/Desktop/liteos/Project2/BearPi_LiteOS/components/net/at_device/nb_bc95\bc95.c **** 
 775:C:/Users/lenovo/Desktop/liteos/Project2/BearPi_LiteOS/components/net/at_device/nb_bc95\bc95.c ****     if (strstr((char *) data, "ERROR") != NULL)
 776:C:/Users/lenovo/Desktop/liteos/Project2/BearPi_LiteOS/components/net/at_device/nb_bc95\bc95.c ****     {
 777:C:/Users/lenovo/Desktop/liteos/Project2/BearPi_LiteOS/components/net/at_device/nb_bc95\bc95.c ****         return AT_OK;
 778:C:/Users/lenovo/Desktop/liteos/Project2/BearPi_LiteOS/components/net/at_device/nb_bc95\bc95.c ****     }
 779:C:/Users/lenovo/Desktop/liteos/Project2/BearPi_LiteOS/components/net/at_device/nb_bc95\bc95.c **** 
 780:C:/Users/lenovo/Desktop/liteos/Project2/BearPi_LiteOS/components/net/at_device/nb_bc95\bc95.c ****     do
 781:C:/Users/lenovo/Desktop/liteos/Project2/BearPi_LiteOS/components/net/at_device/nb_bc95\bc95.c ****     {
 782:C:/Users/lenovo/Desktop/liteos/Project2/BearPi_LiteOS/components/net/at_device/nb_bc95\bc95.c **** 
 783:C:/Users/lenovo/Desktop/liteos/Project2/BearPi_LiteOS/components/net/at_device/nb_bc95\bc95.c ****         int readleft;
 784:C:/Users/lenovo/Desktop/liteos/Project2/BearPi_LiteOS/components/net/at_device/nb_bc95\bc95.c ****         int sockid;
 785:C:/Users/lenovo/Desktop/liteos/Project2/BearPi_LiteOS/components/net/at_device/nb_bc95\bc95.c **** 
 786:C:/Users/lenovo/Desktop/liteos/Project2/BearPi_LiteOS/components/net/at_device/nb_bc95\bc95.c ****         char *next = strstr(curr, "\r\n");
 787:C:/Users/lenovo/Desktop/liteos/Project2/BearPi_LiteOS/components/net/at_device/nb_bc95\bc95.c **** 
 788:C:/Users/lenovo/Desktop/liteos/Project2/BearPi_LiteOS/components/net/at_device/nb_bc95\bc95.c ****         if (next == curr)
 789:C:/Users/lenovo/Desktop/liteos/Project2/BearPi_LiteOS/components/net/at_device/nb_bc95\bc95.c ****         {
 790:C:/Users/lenovo/Desktop/liteos/Project2/BearPi_LiteOS/components/net/at_device/nb_bc95\bc95.c ****             curr += 2;
 791:C:/Users/lenovo/Desktop/liteos/Project2/BearPi_LiteOS/components/net/at_device/nb_bc95\bc95.c ****         }
 792:C:/Users/lenovo/Desktop/liteos/Project2/BearPi_LiteOS/components/net/at_device/nb_bc95\bc95.c **** 
 793:C:/Users/lenovo/Desktop/liteos/Project2/BearPi_LiteOS/components/net/at_device/nb_bc95\bc95.c ****         if (next != NULL)
 794:C:/Users/lenovo/Desktop/liteos/Project2/BearPi_LiteOS/components/net/at_device/nb_bc95\bc95.c ****         {
 795:C:/Users/lenovo/Desktop/liteos/Project2/BearPi_LiteOS/components/net/at_device/nb_bc95\bc95.c ****             next += 2;
 796:C:/Users/lenovo/Desktop/liteos/Project2/BearPi_LiteOS/components/net/at_device/nb_bc95\bc95.c ****         }
 797:C:/Users/lenovo/Desktop/liteos/Project2/BearPi_LiteOS/components/net/at_device/nb_bc95\bc95.c **** 
 798:C:/Users/lenovo/Desktop/liteos/Project2/BearPi_LiteOS/components/net/at_device/nb_bc95\bc95.c ****         if (nb_decompose_str(curr, &readleft, &sockid) == AT_OK)
 799:C:/Users/lenovo/Desktop/liteos/Project2/BearPi_LiteOS/components/net/at_device/nb_bc95\bc95.c ****         {
 800:C:/Users/lenovo/Desktop/liteos/Project2/BearPi_LiteOS/components/net/at_device/nb_bc95\bc95.c ****         /*
 801:C:/Users/lenovo/Desktop/liteos/Project2/BearPi_LiteOS/components/net/at_device/nb_bc95\bc95.c ****             if (readleft != 0)
 802:C:/Users/lenovo/Desktop/liteos/Project2/BearPi_LiteOS/components/net/at_device/nb_bc95\bc95.c ****             {
 803:C:/Users/lenovo/Desktop/liteos/Project2/BearPi_LiteOS/components/net/at_device/nb_bc95\bc95.c ****                 nb_cmd_rcv_data(sockid, readleft);
 804:C:/Users/lenovo/Desktop/liteos/Project2/BearPi_LiteOS/components/net/at_device/nb_bc95\bc95.c ****             }*/
 805:C:/Users/lenovo/Desktop/liteos/Project2/BearPi_LiteOS/components/net/at_device/nb_bc95\bc95.c ****             return AT_OK;
 806:C:/Users/lenovo/Desktop/liteos/Project2/BearPi_LiteOS/components/net/at_device/nb_bc95\bc95.c ****         }
 807:C:/Users/lenovo/Desktop/liteos/Project2/BearPi_LiteOS/components/net/at_device/nb_bc95\bc95.c ****         curr = next;
 808:C:/Users/lenovo/Desktop/liteos/Project2/BearPi_LiteOS/components/net/at_device/nb_bc95\bc95.c ****     }while(curr);
 809:C:/Users/lenovo/Desktop/liteos/Project2/BearPi_LiteOS/components/net/at_device/nb_bc95\bc95.c **** 
 810:C:/Users/lenovo/Desktop/liteos/Project2/BearPi_LiteOS/components/net/at_device/nb_bc95\bc95.c ****     return AT_FAILED;
 811:C:/Users/lenovo/Desktop/liteos/Project2/BearPi_LiteOS/components/net/at_device/nb_bc95\bc95.c **** }
ARM GAS  c:\Users\lenovo\AppData\Local\Temp\ccJs0CHk.s 			page 33


 812:C:/Users/lenovo/Desktop/liteos/Project2/BearPi_LiteOS/components/net/at_device/nb_bc95\bc95.c **** 
 813:C:/Users/lenovo/Desktop/liteos/Project2/BearPi_LiteOS/components/net/at_device/nb_bc95\bc95.c **** 
 814:C:/Users/lenovo/Desktop/liteos/Project2/BearPi_LiteOS/components/net/at_device/nb_bc95\bc95.c **** static int nb_cmd_rcv_data(int sockid, int readleft)
 815:C:/Users/lenovo/Desktop/liteos/Project2/BearPi_LiteOS/components/net/at_device/nb_bc95\bc95.c **** {
 952              		.loc 1 815 0
 953              		.cfi_startproc
 954              		@ args = 0, pretend = 0, frame = 40
 955              		@ frame_needed = 0, uses_anonymous_args = 0
 956              	.LVL91:
 957 0000 00B5     		push	{lr}
 958              	.LCFI30:
 959              		.cfi_def_cfa_offset 4
 960              		.cfi_offset 14, -4
 961 0002 8DB0     		sub	sp, sp, #52
 962              	.LCFI31:
 963              		.cfi_def_cfa_offset 56
 964              	.LVL92:
 816:C:/Users/lenovo/Desktop/liteos/Project2/BearPi_LiteOS/components/net/at_device/nb_bc95\bc95.c ****     int cmdlen;
 817:C:/Users/lenovo/Desktop/liteos/Project2/BearPi_LiteOS/components/net/at_device/nb_bc95\bc95.c ****     char cmdbuf[40];
 818:C:/Users/lenovo/Desktop/liteos/Project2/BearPi_LiteOS/components/net/at_device/nb_bc95\bc95.c ****     const char* cmd = "AT+NSORF=";
 819:C:/Users/lenovo/Desktop/liteos/Project2/BearPi_LiteOS/components/net/at_device/nb_bc95\bc95.c ****     const uint32_t timeout = 10;
 820:C:/Users/lenovo/Desktop/liteos/Project2/BearPi_LiteOS/components/net/at_device/nb_bc95\bc95.c **** 
 821:C:/Users/lenovo/Desktop/liteos/Project2/BearPi_LiteOS/components/net/at_device/nb_bc95\bc95.c ****     cmdlen = snprintf(cmdbuf, sizeof(cmdbuf), "%s%d,%d\r", cmd, sockid, readleft);
 965              		.loc 1 821 0
 966 0004 0191     		str	r1, [sp, #4]
 967 0006 0090     		str	r0, [sp]
 968 0008 074B     		ldr	r3, .L78
 969 000a 084A     		ldr	r2, .L78+4
 970 000c 2821     		movs	r1, #40
 971              	.LVL93:
 972 000e 02A8     		add	r0, sp, #8
 973              	.LVL94:
 974 0010 FFF7FEFF 		bl	snprintf
 975              	.LVL95:
 822:C:/Users/lenovo/Desktop/liteos/Project2/BearPi_LiteOS/components/net/at_device/nb_bc95\bc95.c ****     return at_cmd_in_callback((int8_t*)cmdbuf, cmdlen, nb_handle_sock_data, timeout);
 976              		.loc 1 822 0
 977 0014 0A23     		movs	r3, #10
 978 0016 064A     		ldr	r2, .L78+8
 979 0018 0146     		mov	r1, r0
 980 001a 02A8     		add	r0, sp, #8
 981              	.LVL96:
 982 001c FFF7FEFF 		bl	at_cmd_in_callback
 983              	.LVL97:
 823:C:/Users/lenovo/Desktop/liteos/Project2/BearPi_LiteOS/components/net/at_device/nb_bc95\bc95.c **** }
 984              		.loc 1 823 0
 985 0020 0DB0     		add	sp, sp, #52
 986              	.LCFI32:
 987              		.cfi_def_cfa_offset 4
 988              		@ sp needed
 989 0022 5DF804FB 		ldr	pc, [sp], #4
 990              	.L79:
 991 0026 00BF     		.align	2
 992              	.L78:
 993 0028 00000000 		.word	.LC14
 994 002c 0C000000 		.word	.LC15
 995 0030 00000000 		.word	nb_handle_sock_data
 996              		.cfi_endproc
ARM GAS  c:\Users\lenovo\AppData\Local\Temp\ccJs0CHk.s 			page 34


 997              	.LFE167:
 999              		.section	.text.nb_handle_data_ind,"ax",%progbits
 1000              		.align	1
 1001              		.syntax unified
 1002              		.thumb
 1003              		.thumb_func
 1004              		.fpu fpv4-sp-d16
 1006              	nb_handle_data_ind:
 1007              	.LFB168:
 824:C:/Users/lenovo/Desktop/liteos/Project2/BearPi_LiteOS/components/net/at_device/nb_bc95\bc95.c **** 
 825:C:/Users/lenovo/Desktop/liteos/Project2/BearPi_LiteOS/components/net/at_device/nb_bc95\bc95.c **** static int32_t nb_handle_data_ind(const char *buf)
 826:C:/Users/lenovo/Desktop/liteos/Project2/BearPi_LiteOS/components/net/at_device/nb_bc95\bc95.c **** {
 1008              		.loc 1 826 0
 1009              		.cfi_startproc
 1010              		@ args = 0, pretend = 0, frame = 0
 1011              		@ frame_needed = 0, uses_anonymous_args = 0
 1012              	.LVL98:
 1013 0000 70B5     		push	{r4, r5, r6, lr}
 1014              	.LCFI33:
 1015              		.cfi_def_cfa_offset 16
 1016              		.cfi_offset 4, -16
 1017              		.cfi_offset 5, -12
 1018              		.cfi_offset 6, -8
 1019              		.cfi_offset 14, -4
 1020 0002 82B0     		sub	sp, sp, #8
 1021              	.LCFI34:
 1022              		.cfi_def_cfa_offset 24
 827:C:/Users/lenovo/Desktop/liteos/Project2/BearPi_LiteOS/components/net/at_device/nb_bc95\bc95.c ****     int32_t sockid;
 828:C:/Users/lenovo/Desktop/liteos/Project2/BearPi_LiteOS/components/net/at_device/nb_bc95\bc95.c ****     int32_t data_len;
 829:C:/Users/lenovo/Desktop/liteos/Project2/BearPi_LiteOS/components/net/at_device/nb_bc95\bc95.c ****     const char *p1, *p2;
 830:C:/Users/lenovo/Desktop/liteos/Project2/BearPi_LiteOS/components/net/at_device/nb_bc95\bc95.c ****     int link_idx;
 831:C:/Users/lenovo/Desktop/liteos/Project2/BearPi_LiteOS/components/net/at_device/nb_bc95\bc95.c **** 
 832:C:/Users/lenovo/Desktop/liteos/Project2/BearPi_LiteOS/components/net/at_device/nb_bc95\bc95.c ****     p2 = strstr(buf, AT_DATAF_PREFIX);
 1023              		.loc 1 832 0
 1024 0004 1E49     		ldr	r1, .L89
 1025 0006 FFF7FEFF 		bl	strstr
 1026              	.LVL99:
 833:C:/Users/lenovo/Desktop/liteos/Project2/BearPi_LiteOS/components/net/at_device/nb_bc95\bc95.c ****     if (NULL == p2)
 1027              		.loc 1 833 0
 1028 000a 90B3     		cbz	r0, .L84
 1029 000c 0446     		mov	r4, r0
 834:C:/Users/lenovo/Desktop/liteos/Project2/BearPi_LiteOS/components/net/at_device/nb_bc95\bc95.c ****     {
 835:C:/Users/lenovo/Desktop/liteos/Project2/BearPi_LiteOS/components/net/at_device/nb_bc95\bc95.c ****         return AT_FAILED;
 836:C:/Users/lenovo/Desktop/liteos/Project2/BearPi_LiteOS/components/net/at_device/nb_bc95\bc95.c ****     }
 837:C:/Users/lenovo/Desktop/liteos/Project2/BearPi_LiteOS/components/net/at_device/nb_bc95\bc95.c ****     p2+=strlen(AT_DATAF_PREFIX);
 1030              		.loc 1 837 0
 1031 000e 0834     		adds	r4, r4, #8
 1032              	.LVL100:
 838:C:/Users/lenovo/Desktop/liteos/Project2/BearPi_LiteOS/components/net/at_device/nb_bc95\bc95.c **** 
 839:C:/Users/lenovo/Desktop/liteos/Project2/BearPi_LiteOS/components/net/at_device/nb_bc95\bc95.c ****     p1 = strstr(p2, ",");
 1033              		.loc 1 839 0
 1034 0010 2C21     		movs	r1, #44
 1035 0012 2046     		mov	r0, r4
 1036 0014 FFF7FEFF 		bl	strchr
 1037              	.LVL101:
 840:C:/Users/lenovo/Desktop/liteos/Project2/BearPi_LiteOS/components/net/at_device/nb_bc95\bc95.c ****     if (p1 == NULL)
 1038              		.loc 1 840 0
ARM GAS  c:\Users\lenovo\AppData\Local\Temp\ccJs0CHk.s 			page 35


 1039 0018 0546     		mov	r5, r0
 1040 001a 68B3     		cbz	r0, .L85
 841:C:/Users/lenovo/Desktop/liteos/Project2/BearPi_LiteOS/components/net/at_device/nb_bc95\bc95.c ****     {
 842:C:/Users/lenovo/Desktop/liteos/Project2/BearPi_LiteOS/components/net/at_device/nb_bc95\bc95.c ****         return AT_FAILED;
 843:C:/Users/lenovo/Desktop/liteos/Project2/BearPi_LiteOS/components/net/at_device/nb_bc95\bc95.c ****     }
 844:C:/Users/lenovo/Desktop/liteos/Project2/BearPi_LiteOS/components/net/at_device/nb_bc95\bc95.c ****     sockid = chartoint(p2);
 1041              		.loc 1 844 0
 1042 001c 2046     		mov	r0, r4
 1043              	.LVL102:
 1044 001e FFF7FEFF 		bl	chartoint
 1045              	.LVL103:
 1046 0022 0446     		mov	r4, r0
 1047              	.LVL104:
 845:C:/Users/lenovo/Desktop/liteos/Project2/BearPi_LiteOS/components/net/at_device/nb_bc95\bc95.c ****     data_len = chartoint(p1 + 1);
 1048              		.loc 1 845 0
 1049 0024 681C     		adds	r0, r5, #1
 1050              	.LVL105:
 1051 0026 FFF7FEFF 		bl	chartoint
 1052              	.LVL106:
 1053 002a 0646     		mov	r6, r0
 1054              	.LVL107:
 846:C:/Users/lenovo/Desktop/liteos/Project2/BearPi_LiteOS/components/net/at_device/nb_bc95\bc95.c ****     link_idx = nb_sock_to_idx(sockid);
 1055              		.loc 1 846 0
 1056 002c 2046     		mov	r0, r4
 1057              	.LVL108:
 1058 002e FFF7FEFF 		bl	nb_sock_to_idx
 1059              	.LVL109:
 1060 0032 0546     		mov	r5, r0
 1061              	.LVL110:
 847:C:/Users/lenovo/Desktop/liteos/Project2/BearPi_LiteOS/components/net/at_device/nb_bc95\bc95.c ****     if (link_idx >= MAX_SOCK_NUM)
 1062              		.loc 1 847 0
 1063 0034 0428     		cmp	r0, #4
 1064 0036 08DC     		bgt	.L87
 848:C:/Users/lenovo/Desktop/liteos/Project2/BearPi_LiteOS/components/net/at_device/nb_bc95\bc95.c ****     {
 849:C:/Users/lenovo/Desktop/liteos/Project2/BearPi_LiteOS/components/net/at_device/nb_bc95\bc95.c ****         AT_LOG("invalid sock id %ld", sockid);
 850:C:/Users/lenovo/Desktop/liteos/Project2/BearPi_LiteOS/components/net/at_device/nb_bc95\bc95.c **** 
 851:C:/Users/lenovo/Desktop/liteos/Project2/BearPi_LiteOS/components/net/at_device/nb_bc95\bc95.c **** 
 852:C:/Users/lenovo/Desktop/liteos/Project2/BearPi_LiteOS/components/net/at_device/nb_bc95\bc95.c ****         return AT_OK;
 853:C:/Users/lenovo/Desktop/liteos/Project2/BearPi_LiteOS/components/net/at_device/nb_bc95\bc95.c ****     }
 854:C:/Users/lenovo/Desktop/liteos/Project2/BearPi_LiteOS/components/net/at_device/nb_bc95\bc95.c **** 
 855:C:/Users/lenovo/Desktop/liteos/Project2/BearPi_LiteOS/components/net/at_device/nb_bc95\bc95.c ****     if (nb_cmd_rcv_data(sockid, data_len) != AT_OK)
 1065              		.loc 1 855 0
 1066 0038 3146     		mov	r1, r6
 1067 003a 2046     		mov	r0, r4
 1068              	.LVL111:
 1069 003c FFF7FEFF 		bl	nb_cmd_rcv_data
 1070              	.LVL112:
 1071 0040 80B9     		cbnz	r0, .L88
 856:C:/Users/lenovo/Desktop/liteos/Project2/BearPi_LiteOS/components/net/at_device/nb_bc95\bc95.c ****     {
 857:C:/Users/lenovo/Desktop/liteos/Project2/BearPi_LiteOS/components/net/at_device/nb_bc95\bc95.c ****         g_data_ind_info.data_len = (uint32_t)data_len;
 858:C:/Users/lenovo/Desktop/liteos/Project2/BearPi_LiteOS/components/net/at_device/nb_bc95\bc95.c ****         g_data_ind_info.link_idx = link_idx;
 859:C:/Users/lenovo/Desktop/liteos/Project2/BearPi_LiteOS/components/net/at_device/nb_bc95\bc95.c ****         g_data_ind_info.valid_flag = true;
 860:C:/Users/lenovo/Desktop/liteos/Project2/BearPi_LiteOS/components/net/at_device/nb_bc95\bc95.c ****     }
 861:C:/Users/lenovo/Desktop/liteos/Project2/BearPi_LiteOS/components/net/at_device/nb_bc95\bc95.c ****     else
 862:C:/Users/lenovo/Desktop/liteos/Project2/BearPi_LiteOS/components/net/at_device/nb_bc95\bc95.c ****     {
 863:C:/Users/lenovo/Desktop/liteos/Project2/BearPi_LiteOS/components/net/at_device/nb_bc95\bc95.c ****         g_data_ind_info.valid_flag = false;
 1072              		.loc 1 863 0
ARM GAS  c:\Users\lenovo\AppData\Local\Temp\ccJs0CHk.s 			page 36


 1073 0042 0020     		movs	r0, #0
 1074 0044 0F4B     		ldr	r3, .L89+4
 1075 0046 1872     		strb	r0, [r3, #8]
 1076 0048 0AE0     		b	.L80
 1077              	.LVL113:
 1078              	.L87:
 849:C:/Users/lenovo/Desktop/liteos/Project2/BearPi_LiteOS/components/net/at_device/nb_bc95\bc95.c **** 
 1079              		.loc 1 849 0
 1080 004a FFF7FEFF 		bl	at_get_time
 1081              	.LVL114:
 1082 004e 0094     		str	r4, [sp]
 1083 0050 40F25133 		movw	r3, #849
 1084 0054 0C4A     		ldr	r2, .L89+8
 1085 0056 0146     		mov	r1, r0
 1086 0058 0C48     		ldr	r0, .L89+12
 1087 005a FFF7FEFF 		bl	printf
 1088              	.LVL115:
 852:C:/Users/lenovo/Desktop/liteos/Project2/BearPi_LiteOS/components/net/at_device/nb_bc95\bc95.c ****     }
 1089              		.loc 1 852 0
 1090 005e 0020     		movs	r0, #0
 1091              	.LVL116:
 1092              	.L80:
 864:C:/Users/lenovo/Desktop/liteos/Project2/BearPi_LiteOS/components/net/at_device/nb_bc95\bc95.c ****     }
 865:C:/Users/lenovo/Desktop/liteos/Project2/BearPi_LiteOS/components/net/at_device/nb_bc95\bc95.c **** 
 866:C:/Users/lenovo/Desktop/liteos/Project2/BearPi_LiteOS/components/net/at_device/nb_bc95\bc95.c ****     return AT_OK;
 867:C:/Users/lenovo/Desktop/liteos/Project2/BearPi_LiteOS/components/net/at_device/nb_bc95\bc95.c **** 
 868:C:/Users/lenovo/Desktop/liteos/Project2/BearPi_LiteOS/components/net/at_device/nb_bc95\bc95.c **** }
 1093              		.loc 1 868 0
 1094 0060 02B0     		add	sp, sp, #8
 1095              	.LCFI35:
 1096              		.cfi_remember_state
 1097              		.cfi_def_cfa_offset 16
 1098              		@ sp needed
 1099 0062 70BD     		pop	{r4, r5, r6, pc}
 1100              	.LVL117:
 1101              	.L88:
 1102              	.LCFI36:
 1103              		.cfi_restore_state
 857:C:/Users/lenovo/Desktop/liteos/Project2/BearPi_LiteOS/components/net/at_device/nb_bc95\bc95.c ****         g_data_ind_info.link_idx = link_idx;
 1104              		.loc 1 857 0
 1105 0064 074B     		ldr	r3, .L89+4
 1106 0066 1E60     		str	r6, [r3]
 858:C:/Users/lenovo/Desktop/liteos/Project2/BearPi_LiteOS/components/net/at_device/nb_bc95\bc95.c ****         g_data_ind_info.valid_flag = true;
 1107              		.loc 1 858 0
 1108 0068 5D60     		str	r5, [r3, #4]
 859:C:/Users/lenovo/Desktop/liteos/Project2/BearPi_LiteOS/components/net/at_device/nb_bc95\bc95.c ****     }
 1109              		.loc 1 859 0
 1110 006a 0122     		movs	r2, #1
 1111 006c 1A72     		strb	r2, [r3, #8]
 866:C:/Users/lenovo/Desktop/liteos/Project2/BearPi_LiteOS/components/net/at_device/nb_bc95\bc95.c **** 
 1112              		.loc 1 866 0
 1113 006e 0020     		movs	r0, #0
 1114 0070 F6E7     		b	.L80
 1115              	.LVL118:
 1116              	.L84:
 835:C:/Users/lenovo/Desktop/liteos/Project2/BearPi_LiteOS/components/net/at_device/nb_bc95\bc95.c ****     }
 1117              		.loc 1 835 0
ARM GAS  c:\Users\lenovo\AppData\Local\Temp\ccJs0CHk.s 			page 37


 1118 0072 4FF0FF30 		mov	r0, #-1
 1119              	.LVL119:
 1120 0076 F3E7     		b	.L80
 1121              	.LVL120:
 1122              	.L85:
 842:C:/Users/lenovo/Desktop/liteos/Project2/BearPi_LiteOS/components/net/at_device/nb_bc95\bc95.c ****     }
 1123              		.loc 1 842 0
 1124 0078 4FF0FF30 		mov	r0, #-1
 1125              	.LVL121:
 1126 007c F0E7     		b	.L80
 1127              	.L90:
 1128 007e 00BF     		.align	2
 1129              	.L89:
 1130 0080 00000000 		.word	.LC16
 1131 0084 00000000 		.word	.LANCHOR1
 1132 0088 00000000 		.word	.LANCHOR6
 1133 008c 0C000000 		.word	.LC17
 1134              		.cfi_endproc
 1135              	.LFE168:
 1137              		.section	.text.nb_step,"ax",%progbits
 1138              		.align	1
 1139              		.global	nb_step
 1140              		.syntax unified
 1141              		.thumb
 1142              		.thumb_func
 1143              		.fpu fpv4-sp-d16
 1145              	nb_step:
 1146              	.LFB170:
 869:C:/Users/lenovo/Desktop/liteos/Project2/BearPi_LiteOS/components/net/at_device/nb_bc95\bc95.c **** 
 870:C:/Users/lenovo/Desktop/liteos/Project2/BearPi_LiteOS/components/net/at_device/nb_bc95\bc95.c **** 
 871:C:/Users/lenovo/Desktop/liteos/Project2/BearPi_LiteOS/components/net/at_device/nb_bc95\bc95.c **** int32_t nb_cmd_match(const char *buf, char* featurestr,int len)
 872:C:/Users/lenovo/Desktop/liteos/Project2/BearPi_LiteOS/components/net/at_device/nb_bc95\bc95.c **** {
 873:C:/Users/lenovo/Desktop/liteos/Project2/BearPi_LiteOS/components/net/at_device/nb_bc95\bc95.c ****     if (buf == NULL)
 874:C:/Users/lenovo/Desktop/liteos/Project2/BearPi_LiteOS/components/net/at_device/nb_bc95\bc95.c ****     {
 875:C:/Users/lenovo/Desktop/liteos/Project2/BearPi_LiteOS/components/net/at_device/nb_bc95\bc95.c ****         return AT_FAILED;
 876:C:/Users/lenovo/Desktop/liteos/Project2/BearPi_LiteOS/components/net/at_device/nb_bc95\bc95.c ****     }
 877:C:/Users/lenovo/Desktop/liteos/Project2/BearPi_LiteOS/components/net/at_device/nb_bc95\bc95.c **** 
 878:C:/Users/lenovo/Desktop/liteos/Project2/BearPi_LiteOS/components/net/at_device/nb_bc95\bc95.c ****     nb_handle_data_ind(buf);
 879:C:/Users/lenovo/Desktop/liteos/Project2/BearPi_LiteOS/components/net/at_device/nb_bc95\bc95.c **** 
 880:C:/Users/lenovo/Desktop/liteos/Project2/BearPi_LiteOS/components/net/at_device/nb_bc95\bc95.c ****     return AT_FAILED;
 881:C:/Users/lenovo/Desktop/liteos/Project2/BearPi_LiteOS/components/net/at_device/nb_bc95\bc95.c **** }
 882:C:/Users/lenovo/Desktop/liteos/Project2/BearPi_LiteOS/components/net/at_device/nb_bc95\bc95.c **** 
 883:C:/Users/lenovo/Desktop/liteos/Project2/BearPi_LiteOS/components/net/at_device/nb_bc95\bc95.c **** void nb_step(void)
 884:C:/Users/lenovo/Desktop/liteos/Project2/BearPi_LiteOS/components/net/at_device/nb_bc95\bc95.c **** {
 1147              		.loc 1 884 0
 1148              		.cfi_startproc
 1149              		@ args = 0, pretend = 0, frame = 0
 1150              		@ frame_needed = 0, uses_anonymous_args = 0
 1151 0000 08B5     		push	{r3, lr}
 1152              	.LCFI37:
 1153              		.cfi_def_cfa_offset 8
 1154              		.cfi_offset 3, -8
 1155              		.cfi_offset 14, -4
 885:C:/Users/lenovo/Desktop/liteos/Project2/BearPi_LiteOS/components/net/at_device/nb_bc95\bc95.c ****     if ((!g_data_ind_info.valid_flag)
 1156              		.loc 1 885 0
 1157 0002 0E4B     		ldr	r3, .L95
 1158 0004 1B7A     		ldrb	r3, [r3, #8]	@ zero_extendqisi2
ARM GAS  c:\Users\lenovo\AppData\Local\Temp\ccJs0CHk.s 			page 38


 1159 0006 43B1     		cbz	r3, .L91
 886:C:/Users/lenovo/Desktop/liteos/Project2/BearPi_LiteOS/components/net/at_device/nb_bc95\bc95.c ****         || (!sockinfo[g_data_ind_info.link_idx].used_flag))
 1160              		.loc 1 886 0
 1161 0008 0C4B     		ldr	r3, .L95
 1162 000a 5A68     		ldr	r2, [r3, #4]
 1163 000c 0C49     		ldr	r1, .L95+4
 1164 000e 2C23     		movs	r3, #44
 1165 0010 03FB0213 		mla	r3, r3, r2, r1
 1166 0014 93F82830 		ldrb	r3, [r3, #40]	@ zero_extendqisi2
 1167 0018 03B9     		cbnz	r3, .L94
 1168              	.L91:
 887:C:/Users/lenovo/Desktop/liteos/Project2/BearPi_LiteOS/components/net/at_device/nb_bc95\bc95.c ****     {
 888:C:/Users/lenovo/Desktop/liteos/Project2/BearPi_LiteOS/components/net/at_device/nb_bc95\bc95.c ****         return;
 889:C:/Users/lenovo/Desktop/liteos/Project2/BearPi_LiteOS/components/net/at_device/nb_bc95\bc95.c ****     }
 890:C:/Users/lenovo/Desktop/liteos/Project2/BearPi_LiteOS/components/net/at_device/nb_bc95\bc95.c ****     if (nb_cmd_rcv_data(sockinfo[g_data_ind_info.link_idx].socket, g_data_ind_info.data_len) == AT_
 891:C:/Users/lenovo/Desktop/liteos/Project2/BearPi_LiteOS/components/net/at_device/nb_bc95\bc95.c ****     {
 892:C:/Users/lenovo/Desktop/liteos/Project2/BearPi_LiteOS/components/net/at_device/nb_bc95\bc95.c ****         g_data_ind_info.valid_flag = false;
 893:C:/Users/lenovo/Desktop/liteos/Project2/BearPi_LiteOS/components/net/at_device/nb_bc95\bc95.c ****     }
 894:C:/Users/lenovo/Desktop/liteos/Project2/BearPi_LiteOS/components/net/at_device/nb_bc95\bc95.c **** }
 1169              		.loc 1 894 0
 1170 001a 08BD     		pop	{r3, pc}
 1171              	.L94:
 890:C:/Users/lenovo/Desktop/liteos/Project2/BearPi_LiteOS/components/net/at_device/nb_bc95\bc95.c ****     {
 1172              		.loc 1 890 0
 1173 001c 2C23     		movs	r3, #44
 1174 001e 03FB02F2 		mul	r2, r3, r2
 1175 0022 064B     		ldr	r3, .L95
 1176 0024 1968     		ldr	r1, [r3]
 1177 0026 064B     		ldr	r3, .L95+4
 1178 0028 9858     		ldr	r0, [r3, r2]
 1179 002a FFF7FEFF 		bl	nb_cmd_rcv_data
 1180              	.LVL122:
 1181 002e 0028     		cmp	r0, #0
 1182 0030 F3D1     		bne	.L91
 892:C:/Users/lenovo/Desktop/liteos/Project2/BearPi_LiteOS/components/net/at_device/nb_bc95\bc95.c ****     }
 1183              		.loc 1 892 0
 1184 0032 024B     		ldr	r3, .L95
 1185 0034 0022     		movs	r2, #0
 1186 0036 1A72     		strb	r2, [r3, #8]
 1187 0038 EFE7     		b	.L91
 1188              	.L96:
 1189 003a 00BF     		.align	2
 1190              	.L95:
 1191 003c 00000000 		.word	.LANCHOR1
 1192 0040 00000000 		.word	sockinfo
 1193              		.cfi_endproc
 1194              	.LFE170:
 1196              		.section	.text.str_to_hex,"ax",%progbits
 1197              		.align	1
 1198              		.global	str_to_hex
 1199              		.syntax unified
 1200              		.thumb
 1201              		.thumb_func
 1202              		.fpu fpv4-sp-d16
 1204              	str_to_hex:
 1205              	.LFB135:
 133:C:/Users/lenovo/Desktop/liteos/Project2/BearPi_LiteOS/components/net/at_device/nb_bc95\bc95.c ****     int i = 0;
ARM GAS  c:\Users\lenovo\AppData\Local\Temp\ccJs0CHk.s 			page 39


 1206              		.loc 1 133 0
 1207              		.cfi_startproc
 1208              		@ args = 0, pretend = 0, frame = 0
 1209              		@ frame_needed = 0, uses_anonymous_args = 0
 1210              	.LVL123:
 135:C:/Users/lenovo/Desktop/liteos/Project2/BearPi_LiteOS/components/net/at_device/nb_bc95\bc95.c ****     {
 1211              		.loc 1 135 0
 1212 0000 98B1     		cbz	r0, .L101
 133:C:/Users/lenovo/Desktop/liteos/Project2/BearPi_LiteOS/components/net/at_device/nb_bc95\bc95.c ****     int i = 0;
 1213              		.loc 1 133 0 discriminator 1
 1214 0002 F8B5     		push	{r3, r4, r5, r6, r7, lr}
 1215              	.LCFI38:
 1216              		.cfi_def_cfa_offset 24
 1217              		.cfi_offset 3, -24
 1218              		.cfi_offset 4, -20
 1219              		.cfi_offset 5, -16
 1220              		.cfi_offset 6, -12
 1221              		.cfi_offset 7, -8
 1222              		.cfi_offset 14, -4
 1223 0004 0746     		mov	r7, r0
 135:C:/Users/lenovo/Desktop/liteos/Project2/BearPi_LiteOS/components/net/at_device/nb_bc95\bc95.c ****     {
 1224              		.loc 1 135 0 discriminator 1
 1225 0006 0029     		cmp	r1, #0
 1226 0008 12DD     		ble	.L102
 135:C:/Users/lenovo/Desktop/liteos/Project2/BearPi_LiteOS/components/net/at_device/nb_bc95\bc95.c ****     {
 1227              		.loc 1 135 0 is_stmt 0 discriminator 2
 1228 000a A2B1     		cbz	r2, .L103
 1229 000c 1646     		mov	r6, r2
 1230 000e 0D46     		mov	r5, r1
 139:C:/Users/lenovo/Desktop/liteos/Project2/BearPi_LiteOS/components/net/at_device/nb_bc95\bc95.c ****     {
 1231              		.loc 1 139 0 is_stmt 1
 1232 0010 0024     		movs	r4, #0
 1233 0012 06E0     		b	.L99
 1234              	.LVL124:
 1235              	.L100:
 141:C:/Users/lenovo/Desktop/liteos/Project2/BearPi_LiteOS/components/net/at_device/nb_bc95\bc95.c ****     }
 1236              		.loc 1 141 0 discriminator 3
 1237 0014 3A5D     		ldrb	r2, [r7, r4]	@ zero_extendqisi2
 1238 0016 0949     		ldr	r1, .L108
 1239 0018 06EB4400 		add	r0, r6, r4, lsl #1
 1240 001c FFF7FEFF 		bl	sprintf
 1241              	.LVL125:
 139:C:/Users/lenovo/Desktop/liteos/Project2/BearPi_LiteOS/components/net/at_device/nb_bc95\bc95.c ****     {
 1242              		.loc 1 139 0 discriminator 3
 1243 0020 0134     		adds	r4, r4, #1
 1244              	.LVL126:
 1245              	.L99:
 139:C:/Users/lenovo/Desktop/liteos/Project2/BearPi_LiteOS/components/net/at_device/nb_bc95\bc95.c ****     {
 1246              		.loc 1 139 0 is_stmt 0 discriminator 1
 1247 0022 AC42     		cmp	r4, r5
 1248 0024 F6DB     		blt	.L100
 143:C:/Users/lenovo/Desktop/liteos/Project2/BearPi_LiteOS/components/net/at_device/nb_bc95\bc95.c **** }
 1249              		.loc 1 143 0 is_stmt 1
 1250 0026 0020     		movs	r0, #0
 1251              	.LVL127:
 1252              	.L97:
 144:C:/Users/lenovo/Desktop/liteos/Project2/BearPi_LiteOS/components/net/at_device/nb_bc95\bc95.c **** 
ARM GAS  c:\Users\lenovo\AppData\Local\Temp\ccJs0CHk.s 			page 40


 1253              		.loc 1 144 0
 1254 0028 F8BD     		pop	{r3, r4, r5, r6, r7, pc}
 1255              	.LVL128:
 1256              	.L101:
 1257              	.LCFI39:
 1258              		.cfi_def_cfa_offset 0
 1259              		.cfi_restore 3
 1260              		.cfi_restore 4
 1261              		.cfi_restore 5
 1262              		.cfi_restore 6
 1263              		.cfi_restore 7
 1264              		.cfi_restore 14
 137:C:/Users/lenovo/Desktop/liteos/Project2/BearPi_LiteOS/components/net/at_device/nb_bc95\bc95.c ****     }
 1265              		.loc 1 137 0
 1266 002a 4FF0FF30 		mov	r0, #-1
 1267              	.LVL129:
 144:C:/Users/lenovo/Desktop/liteos/Project2/BearPi_LiteOS/components/net/at_device/nb_bc95\bc95.c **** 
 1268              		.loc 1 144 0
 1269 002e 7047     		bx	lr
 1270              	.LVL130:
 1271              	.L102:
 1272              	.LCFI40:
 1273              		.cfi_def_cfa_offset 24
 1274              		.cfi_offset 3, -24
 1275              		.cfi_offset 4, -20
 1276              		.cfi_offset 5, -16
 1277              		.cfi_offset 6, -12
 1278              		.cfi_offset 7, -8
 1279              		.cfi_offset 14, -4
 137:C:/Users/lenovo/Desktop/liteos/Project2/BearPi_LiteOS/components/net/at_device/nb_bc95\bc95.c ****     }
 1280              		.loc 1 137 0
 1281 0030 4FF0FF30 		mov	r0, #-1
 1282              	.LVL131:
 1283 0034 F8E7     		b	.L97
 1284              	.LVL132:
 1285              	.L103:
 1286 0036 4FF0FF30 		mov	r0, #-1
 1287              	.LVL133:
 1288 003a F5E7     		b	.L97
 1289              	.L109:
 1290              		.align	2
 1291              	.L108:
 1292 003c 00000000 		.word	.LC18
 1293              		.cfi_endproc
 1294              	.LFE135:
 1296              		.section	.text.nb_sendto,"ax",%progbits
 1297              		.align	1
 1298              		.global	nb_sendto
 1299              		.syntax unified
 1300              		.thumb
 1301              		.thumb_func
 1302              		.fpu fpv4-sp-d16
 1304              	nb_sendto:
 1305              	.LFB156:
 566:C:/Users/lenovo/Desktop/liteos/Project2/BearPi_LiteOS/components/net/at_device/nb_bc95\bc95.c **** 	char *cmd = "AT+NSOST=";
 1306              		.loc 1 566 0
 1307              		.cfi_startproc
ARM GAS  c:\Users\lenovo\AppData\Local\Temp\ccJs0CHk.s 			page 41


 1308              		@ args = 4, pretend = 0, frame = 8
 1309              		@ frame_needed = 0, uses_anonymous_args = 0
 1310              	.LVL134:
 1311 0000 2DE9F04F 		push	{r4, r5, r6, r7, r8, r9, r10, fp, lr}
 1312              	.LCFI41:
 1313              		.cfi_def_cfa_offset 36
 1314              		.cfi_offset 4, -36
 1315              		.cfi_offset 5, -32
 1316              		.cfi_offset 6, -28
 1317              		.cfi_offset 7, -24
 1318              		.cfi_offset 8, -20
 1319              		.cfi_offset 9, -16
 1320              		.cfi_offset 10, -12
 1321              		.cfi_offset 11, -8
 1322              		.cfi_offset 14, -4
 1323 0004 89B0     		sub	sp, sp, #36
 1324              	.LCFI42:
 1325              		.cfi_def_cfa_offset 72
 1326 0006 DDF848A0 		ldr	r10, [sp, #72]
 1327              	.LVL135:
 571:C:/Users/lenovo/Desktop/liteos/Project2/BearPi_LiteOS/components/net/at_device/nb_bc95\bc95.c ****     {
 1328              		.loc 1 571 0
 1329 000a 0791     		str	r1, [sp, #28]
 1330 000c 0029     		cmp	r1, #0
 1331 000e 50D0     		beq	.L111
 1332 0010 0546     		mov	r5, r0
 1333 0012 1446     		mov	r4, r2
 1334 0014 9946     		mov	r9, r3
 1335 0016 5308     		lsrs	r3, r2, #1
 1336              	.LVL136:
 571:C:/Users/lenovo/Desktop/liteos/Project2/BearPi_LiteOS/components/net/at_device/nb_bc95\bc95.c ****     {
 1337              		.loc 1 571 0 is_stmt 0 discriminator 1
 1338 0018 B3F5007F 		cmp	r3, #512
 1339 001c 49DC     		bgt	.L111
 571:C:/Users/lenovo/Desktop/liteos/Project2/BearPi_LiteOS/components/net/at_device/nb_bc95\bc95.c ****     {
 1340              		.loc 1 571 0 discriminator 2
 1341 001e 0428     		cmp	r0, #4
 1342 0020 47DC     		bgt	.L111
 577:C:/Users/lenovo/Desktop/liteos/Project2/BearPi_LiteOS/components/net/at_device/nb_bc95\bc95.c **** 	memset(wbuf, 0, AT_DATA_LEN);
 1343              		.loc 1 577 0 is_stmt 1
 1344 0022 FFF7FEFF 		bl	at_get_time
 1345              	.LVL137:
 1346 0026 CDF808A0 		str	r10, [sp, #8]
 1347 002a CDF80490 		str	r9, [sp, #4]
 1348 002e DFF8C4B0 		ldr	fp, .L116+32
 1349 0032 2C23     		movs	r3, #44
 1350 0034 03FB05F5 		mul	r5, r3, r5
 1351              	.LVL138:
 1352 0038 5BF80530 		ldr	r3, [fp, r5]
 1353 003c 0093     		str	r3, [sp]
 1354 003e 40F24123 		movw	r3, #577
 1355 0042 244A     		ldr	r2, .L116
 1356 0044 0146     		mov	r1, r0
 1357 0046 2448     		ldr	r0, .L116+4
 1358 0048 FFF7FEFF 		bl	printf
 1359              	.LVL139:
 578:C:/Users/lenovo/Desktop/liteos/Project2/BearPi_LiteOS/components/net/at_device/nb_bc95\bc95.c **** 	memset(tmpbuf, 0, AT_DATA_LEN);
ARM GAS  c:\Users\lenovo\AppData\Local\Temp\ccJs0CHk.s 			page 42


 1360              		.loc 1 578 0
 1361 004c 234E     		ldr	r6, .L116+8
 1362 004e 4FF48067 		mov	r7, #1024
 1363 0052 3A46     		mov	r2, r7
 1364 0054 0021     		movs	r1, #0
 1365 0056 3046     		mov	r0, r6
 1366 0058 FFF7FEFF 		bl	memset
 1367              	.LVL140:
 579:C:/Users/lenovo/Desktop/liteos/Project2/BearPi_LiteOS/components/net/at_device/nb_bc95\bc95.c **** 	str_to_hex((const char *)buf, len, tmpbuf);
 1368              		.loc 1 579 0
 1369 005c DFF89880 		ldr	r8, .L116+36
 1370 0060 3A46     		mov	r2, r7
 1371 0062 0021     		movs	r1, #0
 1372 0064 4046     		mov	r0, r8
 1373 0066 FFF7FEFF 		bl	memset
 1374              	.LVL141:
 580:C:/Users/lenovo/Desktop/liteos/Project2/BearPi_LiteOS/components/net/at_device/nb_bc95\bc95.c **** 
 1375              		.loc 1 580 0
 1376 006a 0694     		str	r4, [sp, #24]
 1377 006c 4246     		mov	r2, r8
 1378 006e 2146     		mov	r1, r4
 1379 0070 0798     		ldr	r0, [sp, #28]
 1380 0072 FFF7FEFF 		bl	str_to_hex
 1381              	.LVL142:
 582:C:/Users/lenovo/Desktop/liteos/Project2/BearPi_LiteOS/components/net/at_device/nb_bc95\bc95.c ****         ipaddr, port, (int)len, tmpbuf);
 1382              		.loc 1 582 0
 1383 0076 5BF80530 		ldr	r3, [fp, r5]
 1384 007a CDF81080 		str	r8, [sp, #16]
 1385 007e 0394     		str	r4, [sp, #12]
 1386 0080 CDF808A0 		str	r10, [sp, #8]
 1387 0084 CDF80490 		str	r9, [sp, #4]
 1388 0088 0093     		str	r3, [sp]
 1389 008a 154B     		ldr	r3, .L116+12
 1390 008c 154A     		ldr	r2, .L116+16
 1391 008e 3946     		mov	r1, r7
 1392 0090 3046     		mov	r0, r6
 1393 0092 FFF7FEFF 		bl	snprintf
 1394              	.LVL143:
 586:C:/Users/lenovo/Desktop/liteos/Project2/BearPi_LiteOS/components/net/at_device/nb_bc95\bc95.c ****                 NULL, NULL) != AT_OK)
 1395              		.loc 1 586 0
 1396 0096 0023     		movs	r3, #0
 1397 0098 0193     		str	r3, [sp, #4]
 1398 009a 0093     		str	r3, [sp]
 1399 009c 124B     		ldr	r3, .L116+20
 1400 009e 134A     		ldr	r2, .L116+24
 1401 00a0 0146     		mov	r1, r0
 1402 00a2 3046     		mov	r0, r6
 1403              	.LVL144:
 1404 00a4 FFF7FEFF 		bl	nb_cmd_with_2_suffix
 1405              	.LVL145:
 1406 00a8 80B9     		cbnz	r0, .L115
 1407              	.LVL146:
 1408              	.L110:
 593:C:/Users/lenovo/Desktop/liteos/Project2/BearPi_LiteOS/components/net/at_device/nb_bc95\bc95.c **** 
 1409              		.loc 1 593 0
 1410 00aa 0698     		ldr	r0, [sp, #24]
 1411 00ac 09B0     		add	sp, sp, #36
ARM GAS  c:\Users\lenovo\AppData\Local\Temp\ccJs0CHk.s 			page 43


 1412              	.LCFI43:
 1413              		.cfi_remember_state
 1414              		.cfi_def_cfa_offset 36
 1415              		@ sp needed
 1416 00ae BDE8F08F 		pop	{r4, r5, r6, r7, r8, r9, r10, fp, pc}
 1417              	.LVL147:
 1418              	.L111:
 1419              	.LCFI44:
 1420              		.cfi_restore_state
 573:C:/Users/lenovo/Desktop/liteos/Project2/BearPi_LiteOS/components/net/at_device/nb_bc95\bc95.c ****         return -1;
 1421              		.loc 1 573 0
 1422 00b2 FFF7FEFF 		bl	at_get_time
 1423              	.LVL148:
 1424 00b6 40F23D23 		movw	r3, #573
 1425 00ba 064A     		ldr	r2, .L116
 1426 00bc 0146     		mov	r1, r0
 1427 00be 0C48     		ldr	r0, .L116+28
 1428 00c0 FFF7FEFF 		bl	printf
 1429              	.LVL149:
 574:C:/Users/lenovo/Desktop/liteos/Project2/BearPi_LiteOS/components/net/at_device/nb_bc95\bc95.c ****     }
 1430              		.loc 1 574 0
 1431 00c4 4FF0FF33 		mov	r3, #-1
 1432 00c8 0693     		str	r3, [sp, #24]
 1433 00ca EEE7     		b	.L110
 1434              	.LVL150:
 1435              	.L115:
 589:C:/Users/lenovo/Desktop/liteos/Project2/BearPi_LiteOS/components/net/at_device/nb_bc95\bc95.c ****     }
 1436              		.loc 1 589 0
 1437 00cc 4FF0FF33 		mov	r3, #-1
 1438 00d0 0693     		str	r3, [sp, #24]
 1439 00d2 EAE7     		b	.L110
 1440              	.L117:
 1441              		.align	2
 1442              	.L116:
 1443 00d4 00000000 		.word	.LANCHOR7
 1444 00d8 20000000 		.word	.LC20
 1445 00dc 00000000 		.word	wbuf
 1446 00e0 4C000000 		.word	.LC21
 1447 00e4 58000000 		.word	.LC22
 1448 00e8 14000000 		.word	.LC7
 1449 00ec 1C000000 		.word	.LC8
 1450 00f0 00000000 		.word	.LC19
 1451 00f4 00000000 		.word	sockinfo
 1452 00f8 00000000 		.word	.LANCHOR8
 1453              		.cfi_endproc
 1454              	.LFE156:
 1456              		.section	.text.nb_send,"ax",%progbits
 1457              		.align	1
 1458              		.global	nb_send
 1459              		.syntax unified
 1460              		.thumb
 1461              		.thumb_func
 1462              		.fpu fpv4-sp-d16
 1464              	nb_send:
 1465              	.LFB157:
 597:C:/Users/lenovo/Desktop/liteos/Project2/BearPi_LiteOS/components/net/at_device/nb_bc95\bc95.c **** 	if (id >= MAX_SOCK_NUM)
 1466              		.loc 1 597 0
ARM GAS  c:\Users\lenovo\AppData\Local\Temp\ccJs0CHk.s 			page 44


 1467              		.cfi_startproc
 1468              		@ args = 0, pretend = 0, frame = 0
 1469              		@ frame_needed = 0, uses_anonymous_args = 0
 1470              	.LVL151:
 1471 0000 30B5     		push	{r4, r5, lr}
 1472              	.LCFI45:
 1473              		.cfi_def_cfa_offset 12
 1474              		.cfi_offset 4, -12
 1475              		.cfi_offset 5, -8
 1476              		.cfi_offset 14, -4
 1477 0002 83B0     		sub	sp, sp, #12
 1478              	.LCFI46:
 1479              		.cfi_def_cfa_offset 24
 598:C:/Users/lenovo/Desktop/liteos/Project2/BearPi_LiteOS/components/net/at_device/nb_bc95\bc95.c ****     {
 1480              		.loc 1 598 0
 1481 0004 0428     		cmp	r0, #4
 1482 0006 0EDC     		bgt	.L122
 603:C:/Users/lenovo/Desktop/liteos/Project2/BearPi_LiteOS/components/net/at_device/nb_bc95\bc95.c **** }
 1483              		.loc 1 603 0
 1484 0008 2C24     		movs	r4, #44
 1485 000a 04FB00F4 		mul	r4, r4, r0
 1486 000e 04F11805 		add	r5, r4, #24
 1487 0012 0B4B     		ldr	r3, .L123
 1488 0014 1C44     		add	r4, r4, r3
 1489 0016 B4F91640 		ldrsh	r4, [r4, #22]
 1490 001a 0094     		str	r4, [sp]
 1491 001c 2B44     		add	r3, r3, r5
 1492 001e FFF7FEFF 		bl	nb_sendto
 1493              	.LVL152:
 1494              	.L118:
 604:C:/Users/lenovo/Desktop/liteos/Project2/BearPi_LiteOS/components/net/at_device/nb_bc95\bc95.c **** 
 1495              		.loc 1 604 0
 1496 0022 03B0     		add	sp, sp, #12
 1497              	.LCFI47:
 1498              		.cfi_remember_state
 1499              		.cfi_def_cfa_offset 12
 1500              		@ sp needed
 1501 0024 30BD     		pop	{r4, r5, pc}
 1502              	.LVL153:
 1503              	.L122:
 1504              	.LCFI48:
 1505              		.cfi_restore_state
 600:C:/Users/lenovo/Desktop/liteos/Project2/BearPi_LiteOS/components/net/at_device/nb_bc95\bc95.c ****         return AT_FAILED;
 1506              		.loc 1 600 0
 1507 0026 FFF7FEFF 		bl	at_get_time
 1508              	.LVL154:
 1509 002a 4FF41673 		mov	r3, #600
 1510 002e 054A     		ldr	r2, .L123+4
 1511 0030 0146     		mov	r1, r0
 1512 0032 0548     		ldr	r0, .L123+8
 1513 0034 FFF7FEFF 		bl	printf
 1514              	.LVL155:
 601:C:/Users/lenovo/Desktop/liteos/Project2/BearPi_LiteOS/components/net/at_device/nb_bc95\bc95.c ****     }
 1515              		.loc 1 601 0
 1516 0038 4FF0FF30 		mov	r0, #-1
 1517 003c F1E7     		b	.L118
 1518              	.L124:
ARM GAS  c:\Users\lenovo\AppData\Local\Temp\ccJs0CHk.s 			page 45


 1519 003e 00BF     		.align	2
 1520              	.L123:
 1521 0040 00000000 		.word	sockinfo
 1522 0044 00000000 		.word	.LANCHOR9
 1523 0048 00000000 		.word	.LC19
 1524              		.cfi_endproc
 1525              	.LFE157:
 1527              		.section	.text.HexStrToStr,"ax",%progbits
 1528              		.align	1
 1529              		.global	HexStrToStr
 1530              		.syntax unified
 1531              		.thumb
 1532              		.thumb_func
 1533              		.fpu fpv4-sp-d16
 1535              	HexStrToStr:
 1536              	.LFB136:
 147:C:/Users/lenovo/Desktop/liteos/Project2/BearPi_LiteOS/components/net/at_device/nb_bc95\bc95.c ****     short i;
 1537              		.loc 1 147 0
 1538              		.cfi_startproc
 1539              		@ args = 0, pretend = 0, frame = 0
 1540              		@ frame_needed = 0, uses_anonymous_args = 0
 1541              	.LVL156:
 1542 0000 2DE9F843 		push	{r3, r4, r5, r6, r7, r8, r9, lr}
 1543              	.LCFI49:
 1544              		.cfi_def_cfa_offset 32
 1545              		.cfi_offset 3, -32
 1546              		.cfi_offset 4, -28
 1547              		.cfi_offset 5, -24
 1548              		.cfi_offset 6, -20
 1549              		.cfi_offset 7, -16
 1550              		.cfi_offset 8, -12
 1551              		.cfi_offset 9, -8
 1552              		.cfi_offset 14, -4
 1553 0004 0646     		mov	r6, r0
 1554 0006 8846     		mov	r8, r1
 1555 0008 1746     		mov	r7, r2
 1556              	.LVL157:
 150:C:/Users/lenovo/Desktop/liteos/Project2/BearPi_LiteOS/components/net/at_device/nb_bc95\bc95.c ****     {
 1557              		.loc 1 150 0
 1558 000a 0025     		movs	r5, #0
 1559 000c 14E0     		b	.L126
 1560              	.LVL158:
 1561              	.L138:
 1562              	.LBB6:
 152:C:/Users/lenovo/Desktop/liteos/Project2/BearPi_LiteOS/components/net/at_device/nb_bc95\bc95.c ****         lowByte  = toupper(source[i + 1]);
 1563              		.loc 1 152 0 discriminator 1
 1564 000e A9F12009 		sub	r9, r9, #32
 1565              	.LVL159:
 1566 0012 1EE0     		b	.L128
 1567              	.LVL160:
 1568              	.L139:
 1569              	.LBE6:
 1570              	.LBB7:
 153:C:/Users/lenovo/Desktop/liteos/Project2/BearPi_LiteOS/components/net/at_device/nb_bc95\bc95.c ****         if (highByte > 0x39)
 1571              		.loc 1 153 0 discriminator 1
 1572 0014 203C     		subs	r4, r4, #32
 1573              	.LVL161:
ARM GAS  c:\Users\lenovo\AppData\Local\Temp\ccJs0CHk.s 			page 46


 1574 0016 28E0     		b	.L130
 1575              	.LVL162:
 1576              	.L131:
 1577              	.LBE7:
 157:C:/Users/lenovo/Desktop/liteos/Project2/BearPi_LiteOS/components/net/at_device/nb_bc95\bc95.c ****         if (lowByte > 0x39)
 1578              		.loc 1 157 0
 1579 0018 A9F13009 		sub	r9, r9, #48
 1580              	.LVL163:
 1581 001c 5FFA89F9 		uxtb	r9, r9
 1582              	.LVL164:
 1583 0020 2BE0     		b	.L132
 1584              	.L133:
 161:C:/Users/lenovo/Desktop/liteos/Project2/BearPi_LiteOS/components/net/at_device/nb_bc95\bc95.c ****         dest[i / 2] = (highByte << 4) | lowByte;
 1585              		.loc 1 161 0
 1586 0022 303C     		subs	r4, r4, #48
 1587              	.LVL165:
 1588 0024 E4B2     		uxtb	r4, r4
 1589              	.LVL166:
 1590              	.L134:
 162:C:/Users/lenovo/Desktop/liteos/Project2/BearPi_LiteOS/components/net/at_device/nb_bc95\bc95.c ****     }
 1591              		.loc 1 162 0 discriminator 2
 1592 0026 05EBD573 		add	r3, r5, r5, lsr #31
 1593 002a 5B10     		asrs	r3, r3, #1
 1594 002c 44EA0914 		orr	r4, r4, r9, lsl #4
 1595              	.LVL167:
 1596 0030 08F80340 		strb	r4, [r8, r3]
 150:C:/Users/lenovo/Desktop/liteos/Project2/BearPi_LiteOS/components/net/at_device/nb_bc95\bc95.c ****     {
 1597              		.loc 1 150 0 discriminator 2
 1598 0034 0235     		adds	r5, r5, #2
 1599              	.LVL168:
 1600 0036 2DB2     		sxth	r5, r5
 1601              	.LVL169:
 1602              	.L126:
 150:C:/Users/lenovo/Desktop/liteos/Project2/BearPi_LiteOS/components/net/at_device/nb_bc95\bc95.c ****     {
 1603              		.loc 1 150 0 is_stmt 0 discriminator 1
 1604 0038 BD42     		cmp	r5, r7
 1605 003a 23DA     		bge	.L137
 1606              	.LBB8:
 152:C:/Users/lenovo/Desktop/liteos/Project2/BearPi_LiteOS/components/net/at_device/nb_bc95\bc95.c ****         lowByte  = toupper(source[i + 1]);
 1607              		.loc 1 152 0 is_stmt 1
 1608 003c 2C46     		mov	r4, r5
 1609 003e 16F80590 		ldrb	r9, [r6, r5]	@ zero_extendqisi2
 1610              	.LVL170:
 1611 0042 FFF7FEFF 		bl	__locale_ctype_ptr
 1612              	.LVL171:
 1613 0046 4844     		add	r0, r0, r9
 1614 0048 4378     		ldrb	r3, [r0, #1]	@ zero_extendqisi2
 1615 004a 03F00303 		and	r3, r3, #3
 1616 004e 022B     		cmp	r3, #2
 1617 0050 DDD0     		beq	.L138
 1618              	.LVL172:
 1619              	.L128:
 1620              	.LBE8:
 152:C:/Users/lenovo/Desktop/liteos/Project2/BearPi_LiteOS/components/net/at_device/nb_bc95\bc95.c ****         lowByte  = toupper(source[i + 1]);
 1621              		.loc 1 152 0 is_stmt 0 discriminator 4
 1622 0052 5FFA89F9 		uxtb	r9, r9
 1623              	.LVL173:
ARM GAS  c:\Users\lenovo\AppData\Local\Temp\ccJs0CHk.s 			page 47


 1624              	.LBB9:
 153:C:/Users/lenovo/Desktop/liteos/Project2/BearPi_LiteOS/components/net/at_device/nb_bc95\bc95.c ****         if (highByte > 0x39)
 1625              		.loc 1 153 0 is_stmt 1 discriminator 4
 1626 0056 0134     		adds	r4, r4, #1
 1627 0058 345D     		ldrb	r4, [r6, r4]	@ zero_extendqisi2
 1628              	.LVL174:
 1629 005a FFF7FEFF 		bl	__locale_ctype_ptr
 1630              	.LVL175:
 1631 005e 2044     		add	r0, r0, r4
 1632 0060 4378     		ldrb	r3, [r0, #1]	@ zero_extendqisi2
 1633 0062 03F00303 		and	r3, r3, #3
 1634 0066 022B     		cmp	r3, #2
 1635 0068 D4D0     		beq	.L139
 1636              	.LVL176:
 1637              	.L130:
 1638              	.LBE9:
 1639 006a E4B2     		uxtb	r4, r4
 1640              	.LVL177:
 154:C:/Users/lenovo/Desktop/liteos/Project2/BearPi_LiteOS/components/net/at_device/nb_bc95\bc95.c ****             highByte -= 0x37;
 1641              		.loc 1 154 0 discriminator 4
 1642 006c B9F1390F 		cmp	r9, #57
 1643 0070 D2D9     		bls	.L131
 155:C:/Users/lenovo/Desktop/liteos/Project2/BearPi_LiteOS/components/net/at_device/nb_bc95\bc95.c ****         else
 1644              		.loc 1 155 0
 1645 0072 A9F13709 		sub	r9, r9, #55
 1646              	.LVL178:
 1647 0076 5FFA89F9 		uxtb	r9, r9
 1648              	.LVL179:
 1649              	.L132:
 158:C:/Users/lenovo/Desktop/liteos/Project2/BearPi_LiteOS/components/net/at_device/nb_bc95\bc95.c ****             lowByte -= 0x37;
 1650              		.loc 1 158 0
 1651 007a 392C     		cmp	r4, #57
 1652 007c D1D9     		bls	.L133
 159:C:/Users/lenovo/Desktop/liteos/Project2/BearPi_LiteOS/components/net/at_device/nb_bc95\bc95.c ****         else
 1653              		.loc 1 159 0
 1654 007e 373C     		subs	r4, r4, #55
 1655              	.LVL180:
 1656 0080 E4B2     		uxtb	r4, r4
 1657              	.LVL181:
 1658 0082 D0E7     		b	.L134
 1659              	.LVL182:
 1660              	.L137:
 165:C:/Users/lenovo/Desktop/liteos/Project2/BearPi_LiteOS/components/net/at_device/nb_bc95\bc95.c **** 
 1661              		.loc 1 165 0
 1662 0084 BDE8F883 		pop	{r3, r4, r5, r6, r7, r8, r9, pc}
 1663              		.cfi_endproc
 1664              	.LFE136:
 1666              		.section	.text.nb_reboot,"ax",%progbits
 1667              		.align	1
 1668              		.global	nb_reboot
 1669              		.syntax unified
 1670              		.thumb
 1671              		.thumb_func
 1672              		.fpu fpv4-sp-d16
 1674              	nb_reboot:
 1675              	.LFB137:
 168:C:/Users/lenovo/Desktop/liteos/Project2/BearPi_LiteOS/components/net/at_device/nb_bc95\bc95.c ****    // memset(sockinfo, 0, MAX_SOCK_NUM * sizeof(struct _socket_info_t));
ARM GAS  c:\Users\lenovo\AppData\Local\Temp\ccJs0CHk.s 			page 48


 1676              		.loc 1 168 0
 1677              		.cfi_startproc
 1678              		@ args = 0, pretend = 0, frame = 0
 1679              		@ frame_needed = 0, uses_anonymous_args = 0
 1680 0000 10B5     		push	{r4, lr}
 1681              	.LCFI50:
 1682              		.cfi_def_cfa_offset 8
 1683              		.cfi_offset 4, -8
 1684              		.cfi_offset 14, -4
 1685 0002 82B0     		sub	sp, sp, #8
 1686              	.LCFI51:
 1687              		.cfi_def_cfa_offset 16
 170:C:/Users/lenovo/Desktop/liteos/Project2/BearPi_LiteOS/components/net/at_device/nb_bc95\bc95.c **** }
 1688              		.loc 1 170 0
 1689 0004 044B     		ldr	r3, .L142
 1690 0006 9C6C     		ldr	r4, [r3, #72]
 1691 0008 0023     		movs	r3, #0
 1692 000a 0093     		str	r3, [sp]
 1693 000c 034A     		ldr	r2, .L142+4
 1694 000e 0721     		movs	r1, #7
 1695 0010 0348     		ldr	r0, .L142+8
 1696 0012 A047     		blx	r4
 1697              	.LVL183:
 171:C:/Users/lenovo/Desktop/liteos/Project2/BearPi_LiteOS/components/net/at_device/nb_bc95\bc95.c **** 
 1698              		.loc 1 171 0
 1699 0014 02B0     		add	sp, sp, #8
 1700              	.LCFI52:
 1701              		.cfi_def_cfa_offset 8
 1702              		@ sp needed
 1703 0016 10BD     		pop	{r4, pc}
 1704              	.L143:
 1705              		.align	2
 1706              	.L142:
 1707 0018 00000000 		.word	at
 1708 001c 1C000000 		.word	.LC8
 1709 0020 00000000 		.word	.LC23
 1710              		.cfi_endproc
 1711              	.LFE137:
 1713              		.section	.text.nb_deinit,"ax",%progbits
 1714              		.align	1
 1715              		.global	nb_deinit
 1716              		.syntax unified
 1717              		.thumb
 1718              		.thumb_func
 1719              		.fpu fpv4-sp-d16
 1721              	nb_deinit:
 1722              	.LFB164:
 727:C:/Users/lenovo/Desktop/liteos/Project2/BearPi_LiteOS/components/net/at_device/nb_bc95\bc95.c **** 
 1723              		.loc 1 727 0
 1724              		.cfi_startproc
 1725              		@ args = 0, pretend = 0, frame = 0
 1726              		@ frame_needed = 0, uses_anonymous_args = 0
 1727 0000 10B5     		push	{r4, lr}
 1728              	.LCFI53:
 1729              		.cfi_def_cfa_offset 8
 1730              		.cfi_offset 4, -8
 1731              		.cfi_offset 14, -4
ARM GAS  c:\Users\lenovo\AppData\Local\Temp\ccJs0CHk.s 			page 49


 1732              	.LVL184:
 1733              	.LBB10:
 729:C:/Users/lenovo/Desktop/liteos/Project2/BearPi_LiteOS/components/net/at_device/nb_bc95\bc95.c ****     {
 1734              		.loc 1 729 0
 1735 0002 0024     		movs	r4, #0
 1736 0004 00E0     		b	.L145
 1737              	.LVL185:
 1738              	.L146:
 729:C:/Users/lenovo/Desktop/liteos/Project2/BearPi_LiteOS/components/net/at_device/nb_bc95\bc95.c ****     {
 1739              		.loc 1 729 0 is_stmt 0 discriminator 2
 1740 0006 0134     		adds	r4, r4, #1
 1741              	.LVL186:
 1742              	.L145:
 729:C:/Users/lenovo/Desktop/liteos/Project2/BearPi_LiteOS/components/net/at_device/nb_bc95\bc95.c ****     {
 1743              		.loc 1 729 0 discriminator 1
 1744 0008 042C     		cmp	r4, #4
 1745 000a 0BDC     		bgt	.L149
 731:C:/Users/lenovo/Desktop/liteos/Project2/BearPi_LiteOS/components/net/at_device/nb_bc95\bc95.c ****         {
 1746              		.loc 1 731 0 is_stmt 1
 1747 000c 074A     		ldr	r2, .L150
 1748 000e 2C23     		movs	r3, #44
 1749 0010 03FB0423 		mla	r3, r3, r4, r2
 1750 0014 93F82830 		ldrb	r3, [r3, #40]	@ zero_extendqisi2
 1751 0018 002B     		cmp	r3, #0
 1752 001a F4D0     		beq	.L146
 733:C:/Users/lenovo/Desktop/liteos/Project2/BearPi_LiteOS/components/net/at_device/nb_bc95\bc95.c ****         }
 1753              		.loc 1 733 0
 1754 001c 2046     		mov	r0, r4
 1755 001e FFF7FEFF 		bl	nb_close
 1756              	.LVL187:
 1757 0022 F0E7     		b	.L146
 1758              	.L149:
 1759              	.LBE10:
 736:C:/Users/lenovo/Desktop/liteos/Project2/BearPi_LiteOS/components/net/at_device/nb_bc95\bc95.c **** }
 1760              		.loc 1 736 0
 1761 0024 FFF7FEFF 		bl	nb_reboot
 1762              	.LVL188:
 737:C:/Users/lenovo/Desktop/liteos/Project2/BearPi_LiteOS/components/net/at_device/nb_bc95\bc95.c **** 
 1763              		.loc 1 737 0
 1764 0028 10BD     		pop	{r4, pc}
 1765              	.LVL189:
 1766              	.L151:
 1767 002a 00BF     		.align	2
 1768              	.L150:
 1769 002c 00000000 		.word	sockinfo
 1770              		.cfi_endproc
 1771              	.LFE164:
 1773              		.section	.text.nb_hw_detect,"ax",%progbits
 1774              		.align	1
 1775              		.global	nb_hw_detect
 1776              		.syntax unified
 1777              		.thumb
 1778              		.thumb_func
 1779              		.fpu fpv4-sp-d16
 1781              	nb_hw_detect:
 1782              	.LFB138:
 174:C:/Users/lenovo/Desktop/liteos/Project2/BearPi_LiteOS/components/net/at_device/nb_bc95\bc95.c ****     return at.cmd((int8_t*)AT_NB_hw_detect, strlen(AT_NB_hw_detect), "+CFUN:1", NULL,NULL);
ARM GAS  c:\Users\lenovo\AppData\Local\Temp\ccJs0CHk.s 			page 50


 1783              		.loc 1 174 0
 1784              		.cfi_startproc
 1785              		@ args = 0, pretend = 0, frame = 0
 1786              		@ frame_needed = 0, uses_anonymous_args = 0
 1787 0000 10B5     		push	{r4, lr}
 1788              	.LCFI54:
 1789              		.cfi_def_cfa_offset 8
 1790              		.cfi_offset 4, -8
 1791              		.cfi_offset 14, -4
 1792 0002 82B0     		sub	sp, sp, #8
 1793              	.LCFI55:
 1794              		.cfi_def_cfa_offset 16
 175:C:/Users/lenovo/Desktop/liteos/Project2/BearPi_LiteOS/components/net/at_device/nb_bc95\bc95.c **** }
 1795              		.loc 1 175 0
 1796 0004 044B     		ldr	r3, .L154
 1797 0006 9C6C     		ldr	r4, [r3, #72]
 1798 0008 0023     		movs	r3, #0
 1799 000a 0093     		str	r3, [sp]
 1800 000c 034A     		ldr	r2, .L154+4
 1801 000e 0921     		movs	r1, #9
 1802 0010 0348     		ldr	r0, .L154+8
 1803 0012 A047     		blx	r4
 1804              	.LVL190:
 176:C:/Users/lenovo/Desktop/liteos/Project2/BearPi_LiteOS/components/net/at_device/nb_bc95\bc95.c **** 
 1805              		.loc 1 176 0
 1806 0014 02B0     		add	sp, sp, #8
 1807              	.LCFI56:
 1808              		.cfi_def_cfa_offset 8
 1809              		@ sp needed
 1810 0016 10BD     		pop	{r4, pc}
 1811              	.L155:
 1812              		.align	2
 1813              	.L154:
 1814 0018 00000000 		.word	at
 1815 001c 00000000 		.word	.LC24
 1816 0020 08000000 		.word	.LC25
 1817              		.cfi_endproc
 1818              	.LFE138:
 1820              		.section	.text.nb_check_csq,"ax",%progbits
 1821              		.align	1
 1822              		.global	nb_check_csq
 1823              		.syntax unified
 1824              		.thumb
 1825              		.thumb_func
 1826              		.fpu fpv4-sp-d16
 1828              	nb_check_csq:
 1829              	.LFB139:
 179:C:/Users/lenovo/Desktop/liteos/Project2/BearPi_LiteOS/components/net/at_device/nb_bc95\bc95.c ****     char *cmd = "AT+CSQ\r";
 1830              		.loc 1 179 0
 1831              		.cfi_startproc
 1832              		@ args = 0, pretend = 0, frame = 0
 1833              		@ frame_needed = 0, uses_anonymous_args = 0
 1834 0000 10B5     		push	{r4, lr}
 1835              	.LCFI57:
 1836              		.cfi_def_cfa_offset 8
 1837              		.cfi_offset 4, -8
 1838              		.cfi_offset 14, -4
ARM GAS  c:\Users\lenovo\AppData\Local\Temp\ccJs0CHk.s 			page 51


 1839 0002 82B0     		sub	sp, sp, #8
 1840              	.LCFI58:
 1841              		.cfi_def_cfa_offset 16
 1842              	.LVL191:
 181:C:/Users/lenovo/Desktop/liteos/Project2/BearPi_LiteOS/components/net/at_device/nb_bc95\bc95.c **** }
 1843              		.loc 1 181 0
 1844 0004 044B     		ldr	r3, .L158
 1845 0006 9C6C     		ldr	r4, [r3, #72]
 1846 0008 0023     		movs	r3, #0
 1847 000a 0093     		str	r3, [sp]
 1848 000c 034A     		ldr	r2, .L158+4
 1849 000e 0721     		movs	r1, #7
 1850 0010 0348     		ldr	r0, .L158+8
 1851 0012 A047     		blx	r4
 1852              	.LVL192:
 182:C:/Users/lenovo/Desktop/liteos/Project2/BearPi_LiteOS/components/net/at_device/nb_bc95\bc95.c **** 
 1853              		.loc 1 182 0
 1854 0014 02B0     		add	sp, sp, #8
 1855              	.LCFI59:
 1856              		.cfi_def_cfa_offset 8
 1857              		@ sp needed
 1858 0016 10BD     		pop	{r4, pc}
 1859              	.L159:
 1860              		.align	2
 1861              	.L158:
 1862 0018 00000000 		.word	at
 1863 001c 00000000 		.word	.LC26
 1864 0020 08000000 		.word	.LC27
 1865              		.cfi_endproc
 1866              	.LFE139:
 1868              		.section	.text.nb_set_cdpserver,"ax",%progbits
 1869              		.align	1
 1870              		.global	nb_set_cdpserver
 1871              		.syntax unified
 1872              		.thumb
 1873              		.thumb_func
 1874              		.fpu fpv4-sp-d16
 1876              	nb_set_cdpserver:
 1877              	.LFB140:
 185:C:/Users/lenovo/Desktop/liteos/Project2/BearPi_LiteOS/components/net/at_device/nb_bc95\bc95.c ****     char *cmd = "AT+NCDP=";
 1878              		.loc 1 185 0
 1879              		.cfi_startproc
 1880              		@ args = 0, pretend = 0, frame = 232
 1881              		@ frame_needed = 0, uses_anonymous_args = 0
 1882              	.LVL193:
 1883 0000 F0B5     		push	{r4, r5, r6, r7, lr}
 1884              	.LCFI60:
 1885              		.cfi_def_cfa_offset 20
 1886              		.cfi_offset 4, -20
 1887              		.cfi_offset 5, -16
 1888              		.cfi_offset 6, -12
 1889              		.cfi_offset 7, -8
 1890              		.cfi_offset 14, -4
 1891 0002 BDB0     		sub	sp, sp, #244
 1892              	.LCFI61:
 1893              		.cfi_def_cfa_offset 264
 1894 0004 0446     		mov	r4, r0
ARM GAS  c:\Users\lenovo\AppData\Local\Temp\ccJs0CHk.s 			page 52


 1895 0006 0D46     		mov	r5, r1
 1896              	.LVL194:
 191:C:/Users/lenovo/Desktop/liteos/Project2/BearPi_LiteOS/components/net/at_device/nb_bc95\bc95.c **** 	int ret = -1;
 1897              		.loc 1 191 0
 1898 0008 8022     		movs	r2, #128
 1899 000a 0021     		movs	r1, #0
 1900              	.LVL195:
 1901 000c 1CA8     		add	r0, sp, #112
 1902              	.LVL196:
 1903 000e FFF7FEFF 		bl	memset
 1904              	.LVL197:
 193:C:/Users/lenovo/Desktop/liteos/Project2/BearPi_LiteOS/components/net/at_device/nb_bc95\bc95.c ****     if(strlen(host) > 70 || strlen(port) > 20 || host==NULL || port == NULL)
 1905              		.loc 1 193 0
 1906 0012 6422     		movs	r2, #100
 1907 0014 0021     		movs	r1, #0
 1908 0016 03A8     		add	r0, sp, #12
 1909 0018 FFF7FEFF 		bl	memset
 1910              	.LVL198:
 194:C:/Users/lenovo/Desktop/liteos/Project2/BearPi_LiteOS/components/net/at_device/nb_bc95\bc95.c ****     {
 1911              		.loc 1 194 0
 1912 001c 2046     		mov	r0, r4
 1913 001e FFF7FEFF 		bl	strlen
 1914              	.LVL199:
 1915 0022 4628     		cmp	r0, #70
 1916 0024 12D9     		bls	.L165
 1917              	.L161:
 196:C:/Users/lenovo/Desktop/liteos/Project2/BearPi_LiteOS/components/net/at_device/nb_bc95\bc95.c ****         ret = at.cmd((int8_t*)cmdCMEE, strlen(cmdCMEE), "OK", NULL,NULL);
 1918              		.loc 1 196 0
 1919 0026 254E     		ldr	r6, .L166
 1920 0028 B76C     		ldr	r7, [r6, #72]
 1921 002a 254D     		ldr	r5, .L166+4
 1922              	.LVL200:
 1923 002c 0024     		movs	r4, #0
 1924              	.LVL201:
 1925 002e 0094     		str	r4, [sp]
 1926 0030 2346     		mov	r3, r4
 1927 0032 2A46     		mov	r2, r5
 1928 0034 0A21     		movs	r1, #10
 1929 0036 2348     		ldr	r0, .L166+8
 1930 0038 B847     		blx	r7
 1931              	.LVL202:
 197:C:/Users/lenovo/Desktop/liteos/Project2/BearPi_LiteOS/components/net/at_device/nb_bc95\bc95.c ****         return ret;
 1932              		.loc 1 197 0
 1933 003a B66C     		ldr	r6, [r6, #72]
 1934 003c 0094     		str	r4, [sp]
 1935 003e 2346     		mov	r3, r4
 1936 0040 2A46     		mov	r2, r5
 1937 0042 0A21     		movs	r1, #10
 1938 0044 2048     		ldr	r0, .L166+12
 1939 0046 B047     		blx	r6
 1940              	.LVL203:
 1941              	.L160:
 215:C:/Users/lenovo/Desktop/liteos/Project2/BearPi_LiteOS/components/net/at_device/nb_bc95\bc95.c **** 
 1942              		.loc 1 215 0
 1943 0048 3DB0     		add	sp, sp, #244
 1944              	.LCFI62:
 1945              		.cfi_remember_state
ARM GAS  c:\Users\lenovo\AppData\Local\Temp\ccJs0CHk.s 			page 53


 1946              		.cfi_def_cfa_offset 20
 1947              		@ sp needed
 1948 004a F0BD     		pop	{r4, r5, r6, r7, pc}
 1949              	.LVL204:
 1950              	.L165:
 1951              	.LCFI63:
 1952              		.cfi_restore_state
 194:C:/Users/lenovo/Desktop/liteos/Project2/BearPi_LiteOS/components/net/at_device/nb_bc95\bc95.c ****     {
 1953              		.loc 1 194 0 discriminator 1
 1954 004c 2846     		mov	r0, r5
 1955 004e FFF7FEFF 		bl	strlen
 1956              	.LVL205:
 1957 0052 1428     		cmp	r0, #20
 1958 0054 E7D8     		bhi	.L161
 194:C:/Users/lenovo/Desktop/liteos/Project2/BearPi_LiteOS/components/net/at_device/nb_bc95\bc95.c ****     {
 1959              		.loc 1 194 0 is_stmt 0 discriminator 2
 1960 0056 002C     		cmp	r4, #0
 1961 0058 E5D0     		beq	.L161
 194:C:/Users/lenovo/Desktop/liteos/Project2/BearPi_LiteOS/components/net/at_device/nb_bc95\bc95.c ****     {
 1962              		.loc 1 194 0 discriminator 3
 1963 005a 002D     		cmp	r5, #0
 1964 005c E3D0     		beq	.L161
 201:C:/Users/lenovo/Desktop/liteos/Project2/BearPi_LiteOS/components/net/at_device/nb_bc95\bc95.c **** 	snprintf(tmpbuf, sizeof(tmpbuf) - 1, "%s%s%c", cmd, ipaddr, '\r');
 1965              		.loc 1 201 0 is_stmt 1
 1966 005e 03AE     		add	r6, sp, #12
 1967 0060 0095     		str	r5, [sp]
 1968 0062 2346     		mov	r3, r4
 1969 0064 194A     		ldr	r2, .L166+16
 1970 0066 6321     		movs	r1, #99
 1971 0068 3046     		mov	r0, r6
 1972 006a FFF7FEFF 		bl	snprintf
 1973              	.LVL206:
 202:C:/Users/lenovo/Desktop/liteos/Project2/BearPi_LiteOS/components/net/at_device/nb_bc95\bc95.c **** 
 1974              		.loc 1 202 0
 1975 006e 0D23     		movs	r3, #13
 1976 0070 0193     		str	r3, [sp, #4]
 1977 0072 0096     		str	r6, [sp]
 1978 0074 164B     		ldr	r3, .L166+20
 1979 0076 174A     		ldr	r2, .L166+24
 1980 0078 7F21     		movs	r1, #127
 1981 007a 1CA8     		add	r0, sp, #112
 1982 007c FFF7FEFF 		bl	snprintf
 1983              	.LVL207:
 204:C:/Users/lenovo/Desktop/liteos/Project2/BearPi_LiteOS/components/net/at_device/nb_bc95\bc95.c **** 	if(ret < 0)
 1984              		.loc 1 204 0
 1985 0080 0E4B     		ldr	r3, .L166
 1986 0082 9C6C     		ldr	r4, [r3, #72]
 1987              	.LVL208:
 1988 0084 1CA8     		add	r0, sp, #112
 1989 0086 FFF7FEFF 		bl	strlen
 1990              	.LVL209:
 1991 008a 0023     		movs	r3, #0
 1992 008c 0093     		str	r3, [sp]
 1993 008e 0C4A     		ldr	r2, .L166+4
 1994 0090 0146     		mov	r1, r0
 1995 0092 1CA8     		add	r0, sp, #112
 1996 0094 A047     		blx	r4
ARM GAS  c:\Users\lenovo\AppData\Local\Temp\ccJs0CHk.s 			page 54


 1997              	.LVL210:
 205:C:/Users/lenovo/Desktop/liteos/Project2/BearPi_LiteOS/components/net/at_device/nb_bc95\bc95.c **** 	{
 1998              		.loc 1 205 0
 1999 0096 0028     		cmp	r0, #0
 2000 0098 D6DB     		blt	.L160
 209:C:/Users/lenovo/Desktop/liteos/Project2/BearPi_LiteOS/components/net/at_device/nb_bc95\bc95.c **** 	//LOS_TaskDelay(1000);
 2001              		.loc 1 209 0
 2002 009a 084D     		ldr	r5, .L166
 2003              	.LVL211:
 2004 009c AE6C     		ldr	r6, [r5, #72]
 2005 009e 0024     		movs	r4, #0
 2006 00a0 0094     		str	r4, [sp]
 2007 00a2 2346     		mov	r3, r4
 2008 00a4 03AA     		add	r2, sp, #12
 2009 00a6 0821     		movs	r1, #8
 2010 00a8 0B48     		ldr	r0, .L166+28
 2011              	.LVL212:
 2012 00aa B047     		blx	r6
 2013              	.LVL213:
 211:C:/Users/lenovo/Desktop/liteos/Project2/BearPi_LiteOS/components/net/at_device/nb_bc95\bc95.c **** 	//at.cmd((int8_t*)cmdCMEE, strlen(cmdCMEE), "OK", NULL, NULL);
 2014              		.loc 1 211 0
 2015 00ac AD6C     		ldr	r5, [r5, #72]
 2016 00ae 0094     		str	r4, [sp]
 2017 00b0 2346     		mov	r3, r4
 2018 00b2 034A     		ldr	r2, .L166+4
 2019 00b4 0A21     		movs	r1, #10
 2020 00b6 0348     		ldr	r0, .L166+8
 2021 00b8 A847     		blx	r5
 2022              	.LVL214:
 214:C:/Users/lenovo/Desktop/liteos/Project2/BearPi_LiteOS/components/net/at_device/nb_bc95\bc95.c **** }
 2023              		.loc 1 214 0
 2024 00ba C5E7     		b	.L160
 2025              	.L167:
 2026              		.align	2
 2027              	.L166:
 2028 00bc 00000000 		.word	at
 2029 00c0 1C000000 		.word	.LC8
 2030 00c4 00000000 		.word	.LC28
 2031 00c8 0C000000 		.word	.LC29
 2032 00cc 18000000 		.word	.LC30
 2033 00d0 20000000 		.word	.LC31
 2034 00d4 2C000000 		.word	.LC32
 2035 00d8 34000000 		.word	.LC33
 2036              		.cfi_endproc
 2037              	.LFE140:
 2039              		.section	.text.nb_send_psk,"ax",%progbits
 2040              		.align	1
 2041              		.global	nb_send_psk
 2042              		.syntax unified
 2043              		.thumb
 2044              		.thumb_func
 2045              		.fpu fpv4-sp-d16
 2047              	nb_send_psk:
 2048              	.LFB141:
 218:C:/Users/lenovo/Desktop/liteos/Project2/BearPi_LiteOS/components/net/at_device/nb_bc95\bc95.c ****     char* cmds = "AT+QSECSWT";//AT+QSECSWT=1,100    OK
 2049              		.loc 1 218 0
 2050              		.cfi_startproc
ARM GAS  c:\Users\lenovo\AppData\Local\Temp\ccJs0CHk.s 			page 55


 2051              		@ args = 0, pretend = 0, frame = 0
 2052              		@ frame_needed = 0, uses_anonymous_args = 0
 2053              	.LVL215:
 2054 0000 2DE9F047 		push	{r4, r5, r6, r7, r8, r9, r10, lr}
 2055              	.LCFI64:
 2056              		.cfi_def_cfa_offset 32
 2057              		.cfi_offset 4, -32
 2058              		.cfi_offset 5, -28
 2059              		.cfi_offset 6, -24
 2060              		.cfi_offset 7, -20
 2061              		.cfi_offset 8, -16
 2062              		.cfi_offset 9, -12
 2063              		.cfi_offset 10, -8
 2064              		.cfi_offset 14, -4
 2065 0004 82B0     		sub	sp, sp, #8
 2066              	.LCFI65:
 2067              		.cfi_def_cfa_offset 40
 2068 0006 8046     		mov	r8, r0
 2069 0008 8946     		mov	r9, r1
 2070              	.LVL216:
 221:C:/Users/lenovo/Desktop/liteos/Project2/BearPi_LiteOS/components/net/at_device/nb_bc95\bc95.c ****     at.cmd((int8_t*)wbuf, strlen(wbuf), "OK", NULL,NULL);
 2071              		.loc 1 221 0
 2072 000a 174C     		ldr	r4, .L170
 2073 000c 6423     		movs	r3, #100
 2074 000e 0093     		str	r3, [sp]
 2075 0010 0123     		movs	r3, #1
 2076 0012 164A     		ldr	r2, .L170+4
 2077 0014 1649     		ldr	r1, .L170+8
 2078              	.LVL217:
 2079 0016 2046     		mov	r0, r4
 2080              	.LVL218:
 2081 0018 FFF7FEFF 		bl	sprintf
 2082              	.LVL219:
 222:C:/Users/lenovo/Desktop/liteos/Project2/BearPi_LiteOS/components/net/at_device/nb_bc95\bc95.c ****     snprintf(wbuf, AT_DATA_LEN, "%s=%s,%s\r", cmdp, pskid, psk);
 2083              		.loc 1 222 0
 2084 001c 154F     		ldr	r7, .L170+12
 2085 001e D7F848A0 		ldr	r10, [r7, #72]
 2086 0022 2046     		mov	r0, r4
 2087 0024 FFF7FEFF 		bl	strlen
 2088              	.LVL220:
 2089 0028 134E     		ldr	r6, .L170+16
 2090 002a 0025     		movs	r5, #0
 2091 002c 0095     		str	r5, [sp]
 2092 002e 2B46     		mov	r3, r5
 2093 0030 3246     		mov	r2, r6
 2094 0032 0146     		mov	r1, r0
 2095 0034 2046     		mov	r0, r4
 2096 0036 D047     		blx	r10
 2097              	.LVL221:
 223:C:/Users/lenovo/Desktop/liteos/Project2/BearPi_LiteOS/components/net/at_device/nb_bc95\bc95.c ****     return at.cmd((int8_t*)wbuf, strlen(wbuf), "OK", NULL,NULL);
 2098              		.loc 1 223 0
 2099 0038 CDF80490 		str	r9, [sp, #4]
 2100 003c CDF80080 		str	r8, [sp]
 2101 0040 0E4B     		ldr	r3, .L170+20
 2102 0042 0F4A     		ldr	r2, .L170+24
 2103 0044 4FF48061 		mov	r1, #1024
 2104 0048 2046     		mov	r0, r4
ARM GAS  c:\Users\lenovo\AppData\Local\Temp\ccJs0CHk.s 			page 56


 2105 004a FFF7FEFF 		bl	snprintf
 2106              	.LVL222:
 224:C:/Users/lenovo/Desktop/liteos/Project2/BearPi_LiteOS/components/net/at_device/nb_bc95\bc95.c **** }
 2107              		.loc 1 224 0
 2108 004e BF6C     		ldr	r7, [r7, #72]
 2109 0050 2046     		mov	r0, r4
 2110 0052 FFF7FEFF 		bl	strlen
 2111              	.LVL223:
 2112 0056 0095     		str	r5, [sp]
 2113 0058 2B46     		mov	r3, r5
 2114 005a 3246     		mov	r2, r6
 2115 005c 0146     		mov	r1, r0
 2116 005e 2046     		mov	r0, r4
 2117 0060 B847     		blx	r7
 2118              	.LVL224:
 225:C:/Users/lenovo/Desktop/liteos/Project2/BearPi_LiteOS/components/net/at_device/nb_bc95\bc95.c **** 
 2119              		.loc 1 225 0
 2120 0062 02B0     		add	sp, sp, #8
 2121              	.LCFI66:
 2122              		.cfi_def_cfa_offset 32
 2123              		@ sp needed
 2124 0064 BDE8F087 		pop	{r4, r5, r6, r7, r8, r9, r10, pc}
 2125              	.LVL225:
 2126              	.L171:
 2127              		.align	2
 2128              	.L170:
 2129 0068 00000000 		.word	wbuf
 2130 006c 00000000 		.word	.LC34
 2131 0070 0C000000 		.word	.LC35
 2132 0074 00000000 		.word	at
 2133 0078 1C000000 		.word	.LC8
 2134 007c 18000000 		.word	.LC36
 2135 0080 24000000 		.word	.LC37
 2136              		.cfi_endproc
 2137              	.LFE141:
 2139              		.section	.text.nb_set_no_encrypt,"ax",%progbits
 2140              		.align	1
 2141              		.global	nb_set_no_encrypt
 2142              		.syntax unified
 2143              		.thumb
 2144              		.thumb_func
 2145              		.fpu fpv4-sp-d16
 2147              	nb_set_no_encrypt:
 2148              	.LFB142:
 228:C:/Users/lenovo/Desktop/liteos/Project2/BearPi_LiteOS/components/net/at_device/nb_bc95\bc95.c ****     char* cmd = "AT+QSECSWT=0\r";
 2149              		.loc 1 228 0
 2150              		.cfi_startproc
 2151              		@ args = 0, pretend = 0, frame = 0
 2152              		@ frame_needed = 0, uses_anonymous_args = 0
 2153 0000 10B5     		push	{r4, lr}
 2154              	.LCFI67:
 2155              		.cfi_def_cfa_offset 8
 2156              		.cfi_offset 4, -8
 2157              		.cfi_offset 14, -4
 2158 0002 82B0     		sub	sp, sp, #8
 2159              	.LCFI68:
 2160              		.cfi_def_cfa_offset 16
ARM GAS  c:\Users\lenovo\AppData\Local\Temp\ccJs0CHk.s 			page 57


 2161              	.LVL226:
 230:C:/Users/lenovo/Desktop/liteos/Project2/BearPi_LiteOS/components/net/at_device/nb_bc95\bc95.c **** }
 2162              		.loc 1 230 0
 2163 0004 044B     		ldr	r3, .L174
 2164 0006 9C6C     		ldr	r4, [r3, #72]
 2165 0008 0023     		movs	r3, #0
 2166 000a 0093     		str	r3, [sp]
 2167 000c 034A     		ldr	r2, .L174+4
 2168 000e 0D21     		movs	r1, #13
 2169 0010 0348     		ldr	r0, .L174+8
 2170 0012 A047     		blx	r4
 2171              	.LVL227:
 231:C:/Users/lenovo/Desktop/liteos/Project2/BearPi_LiteOS/components/net/at_device/nb_bc95\bc95.c **** 
 2172              		.loc 1 231 0
 2173 0014 02B0     		add	sp, sp, #8
 2174              	.LCFI69:
 2175              		.cfi_def_cfa_offset 8
 2176              		@ sp needed
 2177 0016 10BD     		pop	{r4, pc}
 2178              	.L175:
 2179              		.align	2
 2180              	.L174:
 2181 0018 00000000 		.word	at
 2182 001c 1C000000 		.word	.LC8
 2183 0020 00000000 		.word	.LC38
 2184              		.cfi_endproc
 2185              	.LFE142:
 2187              		.section	.text.sota_cmd,"ax",%progbits
 2188              		.align	1
 2189              		.global	sota_cmd
 2190              		.syntax unified
 2191              		.thumb
 2192              		.thumb_func
 2193              		.fpu fpv4-sp-d16
 2195              	sota_cmd:
 2196              	.LFB143:
 235:C:/Users/lenovo/Desktop/liteos/Project2/BearPi_LiteOS/components/net/at_device/nb_bc95\bc95.c ****     AT_LOG("sota_cmd:%s", cmd);
 2197              		.loc 1 235 0
 2198              		.cfi_startproc
 2199              		@ args = 4, pretend = 0, frame = 0
 2200              		@ frame_needed = 0, uses_anonymous_args = 0
 2201              	.LVL228:
 2202 0000 70B5     		push	{r4, r5, r6, lr}
 2203              	.LCFI70:
 2204              		.cfi_def_cfa_offset 16
 2205              		.cfi_offset 4, -16
 2206              		.cfi_offset 5, -12
 2207              		.cfi_offset 6, -8
 2208              		.cfi_offset 14, -4
 2209 0002 82B0     		sub	sp, sp, #8
 2210              	.LCFI71:
 2211              		.cfi_def_cfa_offset 24
 2212 0004 0546     		mov	r5, r0
 2213 0006 0E46     		mov	r6, r1
 236:C:/Users/lenovo/Desktop/liteos/Project2/BearPi_LiteOS/components/net/at_device/nb_bc95\bc95.c ****     LOS_MuxPend(at.cmd_mux, LOS_WAIT_FOREVER);
 2214              		.loc 1 236 0
 2215 0008 FFF7FEFF 		bl	at_get_time
ARM GAS  c:\Users\lenovo\AppData\Local\Temp\ccJs0CHk.s 			page 58


 2216              	.LVL229:
 2217 000c 0095     		str	r5, [sp]
 2218 000e EC23     		movs	r3, #236
 2219 0010 0A4A     		ldr	r2, .L178
 2220 0012 0146     		mov	r1, r0
 2221 0014 0A48     		ldr	r0, .L178+4
 2222 0016 FFF7FEFF 		bl	printf
 2223              	.LVL230:
 237:C:/Users/lenovo/Desktop/liteos/Project2/BearPi_LiteOS/components/net/at_device/nb_bc95\bc95.c ****     at_transmit((uint8_t *)cmd, len, 1);
 2224              		.loc 1 237 0
 2225 001a 0A4C     		ldr	r4, .L178+8
 2226 001c 4FF0FF31 		mov	r1, #-1
 2227 0020 6069     		ldr	r0, [r4, #20]
 2228 0022 FFF7FEFF 		bl	LOS_MuxPend
 2229              	.LVL231:
 238:C:/Users/lenovo/Desktop/liteos/Project2/BearPi_LiteOS/components/net/at_device/nb_bc95\bc95.c ****     LOS_MuxPost(at.cmd_mux);
 2230              		.loc 1 238 0
 2231 0026 0122     		movs	r2, #1
 2232 0028 3146     		mov	r1, r6
 2233 002a 2846     		mov	r0, r5
 2234 002c FFF7FEFF 		bl	at_transmit
 2235              	.LVL232:
 239:C:/Users/lenovo/Desktop/liteos/Project2/BearPi_LiteOS/components/net/at_device/nb_bc95\bc95.c **** 
 2236              		.loc 1 239 0
 2237 0030 6069     		ldr	r0, [r4, #20]
 2238 0032 FFF7FEFF 		bl	LOS_MuxPost
 2239              	.LVL233:
 243:C:/Users/lenovo/Desktop/liteos/Project2/BearPi_LiteOS/components/net/at_device/nb_bc95\bc95.c **** 
 2240              		.loc 1 243 0
 2241 0036 0020     		movs	r0, #0
 2242 0038 02B0     		add	sp, sp, #8
 2243              	.LCFI72:
 2244              		.cfi_def_cfa_offset 16
 2245              		@ sp needed
 2246 003a 70BD     		pop	{r4, r5, r6, pc}
 2247              	.LVL234:
 2248              	.L179:
 2249              		.align	2
 2250              	.L178:
 2251 003c 00000000 		.word	.LANCHOR10
 2252 0040 00000000 		.word	.LC39
 2253 0044 00000000 		.word	at
 2254              		.cfi_endproc
 2255              	.LFE143:
 2257              		.section	.text.nb_send_str,"ax",%progbits
 2258              		.align	1
 2259              		.global	nb_send_str
 2260              		.syntax unified
 2261              		.thumb
 2262              		.thumb_func
 2263              		.fpu fpv4-sp-d16
 2265              	nb_send_str:
 2266              	.LFB144:
 246:C:/Users/lenovo/Desktop/liteos/Project2/BearPi_LiteOS/components/net/at_device/nb_bc95\bc95.c ****     char *cmd1 = "AT+NMGS=";
 2267              		.loc 1 246 0
 2268              		.cfi_startproc
 2269              		@ args = 0, pretend = 0, frame = 0
ARM GAS  c:\Users\lenovo\AppData\Local\Temp\ccJs0CHk.s 			page 59


 2270              		@ frame_needed = 0, uses_anonymous_args = 0
 2271              	.LVL235:
 2272 0000 F0B5     		push	{r4, r5, r6, r7, lr}
 2273              	.LCFI73:
 2274              		.cfi_def_cfa_offset 20
 2275              		.cfi_offset 4, -20
 2276              		.cfi_offset 5, -16
 2277              		.cfi_offset 6, -12
 2278              		.cfi_offset 7, -8
 2279              		.cfi_offset 14, -4
 2280 0002 85B0     		sub	sp, sp, #20
 2281              	.LCFI74:
 2282              		.cfi_def_cfa_offset 40
 2283 0004 0746     		mov	r7, r0
 2284 0006 0C46     		mov	r4, r1
 2285              	.LVL236:
 248:C:/Users/lenovo/Desktop/liteos/Project2/BearPi_LiteOS/components/net/at_device/nb_bc95\bc95.c ****     memset(rbuf, 0, AT_DATA_LEN);
 2286              		.loc 1 248 0
 2287 0008 124D     		ldr	r5, .L182
 2288 000a 4FF48066 		mov	r6, #1024
 2289 000e 3246     		mov	r2, r6
 2290 0010 0021     		movs	r1, #0
 2291              	.LVL237:
 2292 0012 2846     		mov	r0, r5
 2293              	.LVL238:
 2294 0014 FFF7FEFF 		bl	memset
 2295              	.LVL239:
 249:C:/Users/lenovo/Desktop/liteos/Project2/BearPi_LiteOS/components/net/at_device/nb_bc95\bc95.c ****     snprintf(wbuf, AT_DATA_LEN, "%s%d,%s%c",cmd1,(int)len/2,buf,'\r');
 2296              		.loc 1 249 0
 2297 0018 3246     		mov	r2, r6
 2298 001a 0021     		movs	r1, #0
 2299 001c 0E48     		ldr	r0, .L182+4
 2300 001e FFF7FEFF 		bl	memset
 2301              	.LVL240:
 250:C:/Users/lenovo/Desktop/liteos/Project2/BearPi_LiteOS/components/net/at_device/nb_bc95\bc95.c ****     return sota_cmd((int8_t*)wbuf, strlen(wbuf), "OK", NULL,NULL);
 2302              		.loc 1 250 0
 2303 0022 0D23     		movs	r3, #13
 2304 0024 0293     		str	r3, [sp, #8]
 2305 0026 0197     		str	r7, [sp, #4]
 2306 0028 04EBD474 		add	r4, r4, r4, lsr #31
 2307              	.LVL241:
 2308 002c 6410     		asrs	r4, r4, #1
 2309 002e 0094     		str	r4, [sp]
 2310 0030 0A4B     		ldr	r3, .L182+8
 2311 0032 0B4A     		ldr	r2, .L182+12
 2312 0034 3146     		mov	r1, r6
 2313 0036 2846     		mov	r0, r5
 2314 0038 FFF7FEFF 		bl	snprintf
 2315              	.LVL242:
 251:C:/Users/lenovo/Desktop/liteos/Project2/BearPi_LiteOS/components/net/at_device/nb_bc95\bc95.c **** 
 2316              		.loc 1 251 0
 2317 003c 2846     		mov	r0, r5
 2318 003e FFF7FEFF 		bl	strlen
 2319              	.LVL243:
 2320 0042 0023     		movs	r3, #0
 2321 0044 0093     		str	r3, [sp]
 2322 0046 074A     		ldr	r2, .L182+16
ARM GAS  c:\Users\lenovo\AppData\Local\Temp\ccJs0CHk.s 			page 60


 2323 0048 0146     		mov	r1, r0
 2324 004a 2846     		mov	r0, r5
 2325 004c FFF7FEFF 		bl	sota_cmd
 2326              	.LVL244:
 253:C:/Users/lenovo/Desktop/liteos/Project2/BearPi_LiteOS/components/net/at_device/nb_bc95\bc95.c **** #endif
 2327              		.loc 1 253 0
 2328 0050 05B0     		add	sp, sp, #20
 2329              	.LCFI75:
 2330              		.cfi_def_cfa_offset 20
 2331              		@ sp needed
 2332 0052 F0BD     		pop	{r4, r5, r6, r7, pc}
 2333              	.LVL245:
 2334              	.L183:
 2335              		.align	2
 2336              	.L182:
 2337 0054 00000000 		.word	wbuf
 2338 0058 00000000 		.word	rbuf
 2339 005c 00000000 		.word	.LC40
 2340 0060 0C000000 		.word	.LC41
 2341 0064 1C000000 		.word	.LC8
 2342              		.cfi_endproc
 2343              	.LFE144:
 2345              		.section	.text.nb_send_payload,"ax",%progbits
 2346              		.align	1
 2347              		.global	nb_send_payload
 2348              		.syntax unified
 2349              		.thumb
 2350              		.thumb_func
 2351              		.fpu fpv4-sp-d16
 2353              	nb_send_payload:
 2354              	.LFB145:
 256:C:/Users/lenovo/Desktop/liteos/Project2/BearPi_LiteOS/components/net/at_device/nb_bc95\bc95.c ****     char *cmd1 = "AT+NMGS=";
 2355              		.loc 1 256 0
 2356              		.cfi_startproc
 2357              		@ args = 0, pretend = 0, frame = 8
 2358              		@ frame_needed = 0, uses_anonymous_args = 0
 2359              	.LVL246:
 2360 0000 F0B5     		push	{r4, r5, r6, r7, lr}
 2361              	.LCFI76:
 2362              		.cfi_def_cfa_offset 20
 2363              		.cfi_offset 4, -20
 2364              		.cfi_offset 5, -16
 2365              		.cfi_offset 6, -12
 2366              		.cfi_offset 7, -8
 2367              		.cfi_offset 14, -4
 2368 0002 87B0     		sub	sp, sp, #28
 2369              	.LCFI77:
 2370              		.cfi_def_cfa_offset 48
 2371              	.LVL247:
 261:C:/Users/lenovo/Desktop/liteos/Project2/BearPi_LiteOS/components/net/at_device/nb_bc95\bc95.c ****     int rbuflen;
 2372              		.loc 1 261 0
 2373 0004 0023     		movs	r3, #0
 2374 0006 0593     		str	r3, [sp, #20]
 264:C:/Users/lenovo/Desktop/liteos/Project2/BearPi_LiteOS/components/net/at_device/nb_bc95\bc95.c ****     {
 2375              		.loc 1 264 0
 2376 0008 0028     		cmp	r0, #0
 2377 000a 47D0     		beq	.L185
ARM GAS  c:\Users\lenovo\AppData\Local\Temp\ccJs0CHk.s 			page 61


 2378 000c 0E46     		mov	r6, r1
 2379 000e 0746     		mov	r7, r0
 264:C:/Users/lenovo/Desktop/liteos/Project2/BearPi_LiteOS/components/net/at_device/nb_bc95\bc95.c ****     {
 2380              		.loc 1 264 0 is_stmt 0 discriminator 1
 2381 0010 B1F5007F 		cmp	r1, #512
 2382 0014 42DC     		bgt	.L185
 270:C:/Users/lenovo/Desktop/liteos/Project2/BearPi_LiteOS/components/net/at_device/nb_bc95\bc95.c ****     //str_to_hex(buf, len, tmpbuf);
 2383              		.loc 1 270 0 is_stmt 1
 2384 0016 2D4C     		ldr	r4, .L193
 2385 0018 4FF48065 		mov	r5, #1024
 2386 001c 2A46     		mov	r2, r5
 2387 001e 0021     		movs	r1, #0
 2388              	.LVL248:
 2389 0020 2046     		mov	r0, r4
 2390              	.LVL249:
 2391 0022 FFF7FEFF 		bl	memset
 2392              	.LVL250:
 272:C:/Users/lenovo/Desktop/liteos/Project2/BearPi_LiteOS/components/net/at_device/nb_bc95\bc95.c ****     snprintf(wbuf, AT_DATA_LEN,"%s%d,%s%c",cmd1,(int)len,buf,'\r');
 2393              		.loc 1 272 0
 2394 0026 2A46     		mov	r2, r5
 2395 0028 0021     		movs	r1, #0
 2396 002a 2948     		ldr	r0, .L193+4
 2397 002c FFF7FEFF 		bl	memset
 2398              	.LVL251:
 273:C:/Users/lenovo/Desktop/liteos/Project2/BearPi_LiteOS/components/net/at_device/nb_bc95\bc95.c ****     ret = at.cmd((int8_t*)wbuf, strlen(wbuf), "OK", NULL,NULL);
 2399              		.loc 1 273 0
 2400 0030 0D23     		movs	r3, #13
 2401 0032 0293     		str	r3, [sp, #8]
 2402 0034 0197     		str	r7, [sp, #4]
 2403 0036 0096     		str	r6, [sp]
 2404 0038 264B     		ldr	r3, .L193+8
 2405 003a 274A     		ldr	r2, .L193+12
 2406 003c 2946     		mov	r1, r5
 2407 003e 2046     		mov	r0, r4
 2408 0040 FFF7FEFF 		bl	snprintf
 2409              	.LVL252:
 274:C:/Users/lenovo/Desktop/liteos/Project2/BearPi_LiteOS/components/net/at_device/nb_bc95\bc95.c ****     if(ret < 0)
 2410              		.loc 1 274 0
 2411 0044 254B     		ldr	r3, .L193+16
 2412 0046 9D6C     		ldr	r5, [r3, #72]
 2413 0048 2046     		mov	r0, r4
 2414 004a FFF7FEFF 		bl	strlen
 2415              	.LVL253:
 2416 004e 0023     		movs	r3, #0
 2417 0050 0093     		str	r3, [sp]
 2418 0052 234A     		ldr	r2, .L193+20
 2419 0054 0146     		mov	r1, r0
 2420 0056 2046     		mov	r0, r4
 2421 0058 A847     		blx	r5
 2422              	.LVL254:
 275:C:/Users/lenovo/Desktop/liteos/Project2/BearPi_LiteOS/components/net/at_device/nb_bc95\bc95.c ****         return -1;
 2423              		.loc 1 275 0
 2424 005a 0028     		cmp	r0, #0
 2425 005c 2ADB     		blt	.L188
 277:C:/Users/lenovo/Desktop/liteos/Project2/BearPi_LiteOS/components/net/at_device/nb_bc95\bc95.c ****     if(ret < 0)
 2426              		.loc 1 277 0
 2427 005e 1F4B     		ldr	r3, .L193+16
ARM GAS  c:\Users\lenovo\AppData\Local\Temp\ccJs0CHk.s 			page 62


 2428 0060 9C6C     		ldr	r4, [r3, #72]
 2429 0062 04AB     		add	r3, sp, #16
 2430 0064 0093     		str	r3, [sp]
 2431 0066 1A4B     		ldr	r3, .L193+4
 2432 0068 1E4A     		ldr	r2, .L193+24
 2433 006a 0921     		movs	r1, #9
 2434 006c 1E48     		ldr	r0, .L193+28
 2435              	.LVL255:
 2436 006e A047     		blx	r4
 2437              	.LVL256:
 278:C:/Users/lenovo/Desktop/liteos/Project2/BearPi_LiteOS/components/net/at_device/nb_bc95\bc95.c ****         return -1;
 2438              		.loc 1 278 0
 2439 0070 041E     		subs	r4, r0, #0
 2440 0072 22DB     		blt	.L189
 280:C:/Users/lenovo/Desktop/liteos/Project2/BearPi_LiteOS/components/net/at_device/nb_bc95\bc95.c ****     if(str == NULL)
 2441              		.loc 1 280 0
 2442 0074 1B49     		ldr	r1, .L193+24
 2443 0076 1648     		ldr	r0, .L193+4
 2444              	.LVL257:
 2445 0078 FFF7FEFF 		bl	strstr
 2446              	.LVL258:
 281:C:/Users/lenovo/Desktop/liteos/Project2/BearPi_LiteOS/components/net/at_device/nb_bc95\bc95.c ****         return -1;
 2447              		.loc 1 281 0
 2448 007c 00B3     		cbz	r0, .L190
 283:C:/Users/lenovo/Desktop/liteos/Project2/BearPi_LiteOS/components/net/at_device/nb_bc95\bc95.c ****     if(curcnt == sndcnt)
 2449              		.loc 1 283 0
 2450 007e 134B     		ldr	r3, .L193
 2451 0080 05AA     		add	r2, sp, #20
 2452 0082 1A49     		ldr	r1, .L193+32
 2453 0084 FFF7FEFF 		bl	sscanf
 2454              	.LVL259:
 284:C:/Users/lenovo/Desktop/liteos/Project2/BearPi_LiteOS/components/net/at_device/nb_bc95\bc95.c ****         return -1;
 2455              		.loc 1 284 0
 2456 0088 059B     		ldr	r3, [sp, #20]
 2457 008a 194A     		ldr	r2, .L193+36
 2458 008c 1268     		ldr	r2, [r2]
 2459 008e 9342     		cmp	r3, r2
 2460 0090 19D0     		beq	.L191
 286:C:/Users/lenovo/Desktop/liteos/Project2/BearPi_LiteOS/components/net/at_device/nb_bc95\bc95.c ****     return ret;
 2461              		.loc 1 286 0
 2462 0092 174A     		ldr	r2, .L193+36
 2463 0094 1360     		str	r3, [r2]
 2464              	.LVL260:
 2465              	.L184:
 288:C:/Users/lenovo/Desktop/liteos/Project2/BearPi_LiteOS/components/net/at_device/nb_bc95\bc95.c **** 
 2466              		.loc 1 288 0
 2467 0096 2046     		mov	r0, r4
 2468 0098 07B0     		add	sp, sp, #28
 2469              	.LCFI78:
 2470              		.cfi_remember_state
 2471              		.cfi_def_cfa_offset 20
 2472              		@ sp needed
 2473 009a F0BD     		pop	{r4, r5, r6, r7, pc}
 2474              	.LVL261:
 2475              	.L185:
 2476              	.LCFI79:
 2477              		.cfi_restore_state
ARM GAS  c:\Users\lenovo\AppData\Local\Temp\ccJs0CHk.s 			page 63


 266:C:/Users/lenovo/Desktop/liteos/Project2/BearPi_LiteOS/components/net/at_device/nb_bc95\bc95.c ****         return -1;
 2478              		.loc 1 266 0
 2479 009c FFF7FEFF 		bl	at_get_time
 2480              	.LVL262:
 2481 00a0 4FF48573 		mov	r3, #266
 2482 00a4 134A     		ldr	r2, .L193+40
 2483 00a6 0146     		mov	r1, r0
 2484 00a8 1348     		ldr	r0, .L193+44
 2485 00aa FFF7FEFF 		bl	printf
 2486              	.LVL263:
 267:C:/Users/lenovo/Desktop/liteos/Project2/BearPi_LiteOS/components/net/at_device/nb_bc95\bc95.c ****     }
 2487              		.loc 1 267 0
 2488 00ae 4FF0FF34 		mov	r4, #-1
 2489 00b2 F0E7     		b	.L184
 2490              	.LVL264:
 2491              	.L188:
 276:C:/Users/lenovo/Desktop/liteos/Project2/BearPi_LiteOS/components/net/at_device/nb_bc95\bc95.c ****     ret = at.cmd((int8_t*)cmd2, strlen(cmd2), "SENT=", rbuf,&rbuflen);
 2492              		.loc 1 276 0
 2493 00b4 4FF0FF34 		mov	r4, #-1
 2494 00b8 EDE7     		b	.L184
 2495              	.L189:
 279:C:/Users/lenovo/Desktop/liteos/Project2/BearPi_LiteOS/components/net/at_device/nb_bc95\bc95.c ****     str = strstr(rbuf,"SENT=");
 2496              		.loc 1 279 0
 2497 00ba 4FF0FF34 		mov	r4, #-1
 2498 00be EAE7     		b	.L184
 2499              	.LVL265:
 2500              	.L190:
 282:C:/Users/lenovo/Desktop/liteos/Project2/BearPi_LiteOS/components/net/at_device/nb_bc95\bc95.c ****     sscanf(str,"SENT=%d,%s",&curcnt,wbuf);
 2501              		.loc 1 282 0
 2502 00c0 4FF0FF34 		mov	r4, #-1
 2503              	.LVL266:
 2504 00c4 E7E7     		b	.L184
 2505              	.LVL267:
 2506              	.L191:
 285:C:/Users/lenovo/Desktop/liteos/Project2/BearPi_LiteOS/components/net/at_device/nb_bc95\bc95.c ****     sndcnt = curcnt;
 2507              		.loc 1 285 0
 2508 00c6 4FF0FF34 		mov	r4, #-1
 2509              	.LVL268:
 2510 00ca E4E7     		b	.L184
 2511              	.L194:
 2512              		.align	2
 2513              	.L193:
 2514 00cc 00000000 		.word	wbuf
 2515 00d0 00000000 		.word	rbuf
 2516 00d4 00000000 		.word	.LC40
 2517 00d8 0C000000 		.word	.LC41
 2518 00dc 00000000 		.word	at
 2519 00e0 1C000000 		.word	.LC8
 2520 00e4 24000000 		.word	.LC43
 2521 00e8 2C000000 		.word	.LC44
 2522 00ec 38000000 		.word	.LC45
 2523 00f0 00000000 		.word	.LANCHOR12
 2524 00f4 00000000 		.word	.LANCHOR11
 2525 00f8 00000000 		.word	.LC42
 2526              		.cfi_endproc
 2527              	.LFE145:
 2529              		.section	.text.nb_query_ip,"ax",%progbits
ARM GAS  c:\Users\lenovo\AppData\Local\Temp\ccJs0CHk.s 			page 64


 2530              		.align	1
 2531              		.global	nb_query_ip
 2532              		.syntax unified
 2533              		.thumb
 2534              		.thumb_func
 2535              		.fpu fpv4-sp-d16
 2537              	nb_query_ip:
 2538              	.LFB146:
 291:C:/Users/lenovo/Desktop/liteos/Project2/BearPi_LiteOS/components/net/at_device/nb_bc95\bc95.c **** 	char *cmd = "AT+CGPADDR\r";
 2539              		.loc 1 291 0
 2540              		.cfi_startproc
 2541              		@ args = 0, pretend = 0, frame = 0
 2542              		@ frame_needed = 0, uses_anonymous_args = 0
 2543 0000 10B5     		push	{r4, lr}
 2544              	.LCFI80:
 2545              		.cfi_def_cfa_offset 8
 2546              		.cfi_offset 4, -8
 2547              		.cfi_offset 14, -4
 2548 0002 82B0     		sub	sp, sp, #8
 2549              	.LCFI81:
 2550              		.cfi_def_cfa_offset 16
 2551              	.LVL269:
 293:C:/Users/lenovo/Desktop/liteos/Project2/BearPi_LiteOS/components/net/at_device/nb_bc95\bc95.c **** }
 2552              		.loc 1 293 0
 2553 0004 044B     		ldr	r3, .L197
 2554 0006 9C6C     		ldr	r4, [r3, #72]
 2555 0008 0023     		movs	r3, #0
 2556 000a 0093     		str	r3, [sp]
 2557 000c 034A     		ldr	r2, .L197+4
 2558 000e 0B21     		movs	r1, #11
 2559 0010 0348     		ldr	r0, .L197+8
 2560 0012 A047     		blx	r4
 2561              	.LVL270:
 294:C:/Users/lenovo/Desktop/liteos/Project2/BearPi_LiteOS/components/net/at_device/nb_bc95\bc95.c **** 
 2562              		.loc 1 294 0
 2563 0014 02B0     		add	sp, sp, #8
 2564              	.LCFI82:
 2565              		.cfi_def_cfa_offset 8
 2566              		@ sp needed
 2567 0016 10BD     		pop	{r4, pc}
 2568              	.L198:
 2569              		.align	2
 2570              	.L197:
 2571 0018 00000000 		.word	at
 2572 001c 00000000 		.word	.LC46
 2573 0020 0C000000 		.word	.LC47
 2574              		.cfi_endproc
 2575              	.LFE146:
 2577              		.section	.text.nb_get_netstat,"ax",%progbits
 2578              		.align	1
 2579              		.global	nb_get_netstat
 2580              		.syntax unified
 2581              		.thumb
 2582              		.thumb_func
 2583              		.fpu fpv4-sp-d16
 2585              	nb_get_netstat:
 2586              	.LFB147:
ARM GAS  c:\Users\lenovo\AppData\Local\Temp\ccJs0CHk.s 			page 65


 297:C:/Users/lenovo/Desktop/liteos/Project2/BearPi_LiteOS/components/net/at_device/nb_bc95\bc95.c **** 	char *cmd = "AT+CGATT?\r";
 2587              		.loc 1 297 0
 2588              		.cfi_startproc
 2589              		@ args = 0, pretend = 0, frame = 0
 2590              		@ frame_needed = 0, uses_anonymous_args = 0
 2591 0000 10B5     		push	{r4, lr}
 2592              	.LCFI83:
 2593              		.cfi_def_cfa_offset 8
 2594              		.cfi_offset 4, -8
 2595              		.cfi_offset 14, -4
 2596 0002 82B0     		sub	sp, sp, #8
 2597              	.LCFI84:
 2598              		.cfi_def_cfa_offset 16
 2599              	.LVL271:
 299:C:/Users/lenovo/Desktop/liteos/Project2/BearPi_LiteOS/components/net/at_device/nb_bc95\bc95.c **** }
 2600              		.loc 1 299 0
 2601 0004 044B     		ldr	r3, .L201
 2602 0006 9C6C     		ldr	r4, [r3, #72]
 2603 0008 0023     		movs	r3, #0
 2604 000a 0093     		str	r3, [sp]
 2605 000c 034A     		ldr	r2, .L201+4
 2606 000e 0A21     		movs	r1, #10
 2607 0010 0348     		ldr	r0, .L201+8
 2608 0012 A047     		blx	r4
 2609              	.LVL272:
 300:C:/Users/lenovo/Desktop/liteos/Project2/BearPi_LiteOS/components/net/at_device/nb_bc95\bc95.c **** 
 2610              		.loc 1 300 0
 2611 0014 02B0     		add	sp, sp, #8
 2612              	.LCFI85:
 2613              		.cfi_def_cfa_offset 8
 2614              		@ sp needed
 2615 0016 10BD     		pop	{r4, pc}
 2616              	.L202:
 2617              		.align	2
 2618              	.L201:
 2619 0018 00000000 		.word	at
 2620 001c 00000000 		.word	.LC48
 2621 0020 08000000 		.word	.LC49
 2622              		.cfi_endproc
 2623              	.LFE147:
 2625              		.section	.text.nb_create_sock,"ax",%progbits
 2626              		.align	1
 2627              		.global	nb_create_sock
 2628              		.syntax unified
 2629              		.thumb
 2630              		.thumb_func
 2631              		.fpu fpv4-sp-d16
 2633              	nb_create_sock:
 2634              	.LFB149:
 334:C:/Users/lenovo/Desktop/liteos/Project2/BearPi_LiteOS/components/net/at_device/nb_bc95\bc95.c **** 	int socket;
 2635              		.loc 1 334 0
 2636              		.cfi_startproc
 2637              		@ args = 0, pretend = 0, frame = 72
 2638              		@ frame_needed = 0, uses_anonymous_args = 0
 2639              	.LVL273:
 2640 0000 30B5     		push	{r4, r5, lr}
 2641              	.LCFI86:
ARM GAS  c:\Users\lenovo\AppData\Local\Temp\ccJs0CHk.s 			page 66


 2642              		.cfi_def_cfa_offset 12
 2643              		.cfi_offset 4, -12
 2644              		.cfi_offset 5, -8
 2645              		.cfi_offset 14, -4
 2646 0002 95B0     		sub	sp, sp, #84
 2647              	.LCFI87:
 2648              		.cfi_def_cfa_offset 96
 2649 0004 0546     		mov	r5, r0
 2650 0006 0C46     		mov	r4, r1
 336:C:/Users/lenovo/Desktop/liteos/Project2/BearPi_LiteOS/components/net/at_device/nb_bc95\bc95.c **** 	const char *cmdudp = "AT+NSOCR=DGRAM,17,";//udp
 2651              		.loc 1 336 0
 2652 0008 4FF48063 		mov	r3, #1024
 2653 000c 1293     		str	r3, [sp, #72]
 2654              	.LVL274:
 343:C:/Users/lenovo/Desktop/liteos/Project2/BearPi_LiteOS/components/net/at_device/nb_bc95\bc95.c ****     {
 2655              		.loc 1 343 0
 2656 000e 1129     		cmp	r1, #17
 2657 0010 01D0     		beq	.L204
 343:C:/Users/lenovo/Desktop/liteos/Project2/BearPi_LiteOS/components/net/at_device/nb_bc95\bc95.c ****     {
 2658              		.loc 1 343 0 is_stmt 0 discriminator 1
 2659 0012 0629     		cmp	r1, #6
 2660 0014 2ED1     		bne	.L210
 2661              	.L204:
 348:C:/Users/lenovo/Desktop/liteos/Project2/BearPi_LiteOS/components/net/at_device/nb_bc95\bc95.c **** 
 2662              		.loc 1 348 0 is_stmt 1
 2663 0016 4FF48062 		mov	r2, #1024
 2664 001a 0021     		movs	r1, #0
 2665              	.LVL275:
 2666 001c 2748     		ldr	r0, .L212
 2667              	.LVL276:
 2668 001e FFF7FEFF 		bl	memset
 2669              	.LVL277:
 350:C:/Users/lenovo/Desktop/liteos/Project2/BearPi_LiteOS/components/net/at_device/nb_bc95\bc95.c ****     {
 2670              		.loc 1 350 0
 2671 0022 112C     		cmp	r4, #17
 2672 0024 32D0     		beq	.L211
 356:C:/Users/lenovo/Desktop/liteos/Project2/BearPi_LiteOS/components/net/at_device/nb_bc95\bc95.c ****     }
 2673              		.loc 1 356 0
 2674 0026 0095     		str	r5, [sp]
 2675 0028 254B     		ldr	r3, .L212+4
 2676 002a 264A     		ldr	r2, .L212+8
 2677 002c 4021     		movs	r1, #64
 2678 002e 02A8     		add	r0, sp, #8
 2679 0030 FFF7FEFF 		bl	snprintf
 2680              	.LVL278:
 2681 0034 0146     		mov	r1, r0
 2682              	.LVL279:
 2683              	.L207:
 359:C:/Users/lenovo/Desktop/liteos/Project2/BearPi_LiteOS/components/net/at_device/nb_bc95\bc95.c **** 	ret = sscanf(rbuf, "%d\r%s",&socket, tmpbuf);
 2684              		.loc 1 359 0
 2685 0036 12AB     		add	r3, sp, #72
 2686 0038 0193     		str	r3, [sp, #4]
 2687 003a 204C     		ldr	r4, .L212
 2688              	.LVL280:
 2689 003c 0094     		str	r4, [sp]
 2690 003e 224B     		ldr	r3, .L212+12
 2691 0040 224A     		ldr	r2, .L212+16
ARM GAS  c:\Users\lenovo\AppData\Local\Temp\ccJs0CHk.s 			page 67


 2692 0042 02A8     		add	r0, sp, #8
 2693              	.LVL281:
 2694 0044 FFF7FEFF 		bl	nb_cmd_with_2_suffix
 2695              	.LVL282:
 360:C:/Users/lenovo/Desktop/liteos/Project2/BearPi_LiteOS/components/net/at_device/nb_bc95\bc95.c ****     if ((2 == ret) && (socket >= 0)
 2696              		.loc 1 360 0
 2697 0048 214B     		ldr	r3, .L212+20
 2698 004a 13AA     		add	r2, sp, #76
 2699 004c 2149     		ldr	r1, .L212+24
 2700 004e 2046     		mov	r0, r4
 2701 0050 FFF7FEFF 		bl	sscanf
 2702              	.LVL283:
 2703 0054 0546     		mov	r5, r0
 2704              	.LVL284:
 361:C:/Users/lenovo/Desktop/liteos/Project2/BearPi_LiteOS/components/net/at_device/nb_bc95\bc95.c ****         && (strnstr(tmpbuf, "OK", sizeof(tmpbuf))))
 2705              		.loc 1 361 0
 2706 0056 0228     		cmp	r0, #2
 2707 0058 21D1     		bne	.L208
 361:C:/Users/lenovo/Desktop/liteos/Project2/BearPi_LiteOS/components/net/at_device/nb_bc95\bc95.c ****         && (strnstr(tmpbuf, "OK", sizeof(tmpbuf))))
 2708              		.loc 1 361 0 is_stmt 0 discriminator 1
 2709 005a 139C     		ldr	r4, [sp, #76]
 2710 005c 002C     		cmp	r4, #0
 2711 005e 1EDB     		blt	.L208
 362:C:/Users/lenovo/Desktop/liteos/Project2/BearPi_LiteOS/components/net/at_device/nb_bc95\bc95.c ****     {
 2712              		.loc 1 362 0 is_stmt 1
 2713 0060 4FF48062 		mov	r2, #1024
 2714 0064 1949     		ldr	r1, .L212+16
 2715 0066 1A48     		ldr	r0, .L212+20
 2716              	.LVL285:
 2717 0068 FFF7FEFF 		bl	strnstr
 2718              	.LVL286:
 2719 006c B8B1     		cbz	r0, .L208
 2720              	.LVL287:
 2721              	.L203:
 369:C:/Users/lenovo/Desktop/liteos/Project2/BearPi_LiteOS/components/net/at_device/nb_bc95\bc95.c **** 
 2722              		.loc 1 369 0
 2723 006e 2046     		mov	r0, r4
 2724 0070 15B0     		add	sp, sp, #84
 2725              	.LCFI88:
 2726              		.cfi_remember_state
 2727              		.cfi_def_cfa_offset 12
 2728              		@ sp needed
 2729 0072 30BD     		pop	{r4, r5, pc}
 2730              	.LVL288:
 2731              	.L210:
 2732              	.LCFI89:
 2733              		.cfi_restore_state
 345:C:/Users/lenovo/Desktop/liteos/Project2/BearPi_LiteOS/components/net/at_device/nb_bc95\bc95.c ****         return -1;
 2734              		.loc 1 345 0
 2735 0074 FFF7FEFF 		bl	at_get_time
 2736              	.LVL289:
 2737 0078 40F25913 		movw	r3, #345
 2738 007c 164A     		ldr	r2, .L212+28
 2739 007e 0146     		mov	r1, r0
 2740 0080 1648     		ldr	r0, .L212+32
 2741 0082 FFF7FEFF 		bl	printf
 2742              	.LVL290:
ARM GAS  c:\Users\lenovo\AppData\Local\Temp\ccJs0CHk.s 			page 68


 346:C:/Users/lenovo/Desktop/liteos/Project2/BearPi_LiteOS/components/net/at_device/nb_bc95\bc95.c ****     }
 2743              		.loc 1 346 0
 2744 0086 4FF0FF34 		mov	r4, #-1
 2745              	.LVL291:
 2746 008a F0E7     		b	.L203
 2747              	.LVL292:
 2748              	.L211:
 352:C:/Users/lenovo/Desktop/liteos/Project2/BearPi_LiteOS/components/net/at_device/nb_bc95\bc95.c ****     }
 2749              		.loc 1 352 0
 2750 008c 0095     		str	r5, [sp]
 2751 008e 144B     		ldr	r3, .L212+36
 2752 0090 0C4A     		ldr	r2, .L212+8
 2753 0092 4021     		movs	r1, #64
 2754 0094 02A8     		add	r0, sp, #8
 2755 0096 FFF7FEFF 		bl	snprintf
 2756              	.LVL293:
 2757 009a 0146     		mov	r1, r0
 2758              	.LVL294:
 2759 009c CBE7     		b	.L207
 2760              	.LVL295:
 2761              	.L208:
 367:C:/Users/lenovo/Desktop/liteos/Project2/BearPi_LiteOS/components/net/at_device/nb_bc95\bc95.c ****     return -1;
 2762              		.loc 1 367 0
 2763 009e FFF7FEFF 		bl	at_get_time
 2764              	.LVL296:
 2765 00a2 139B     		ldr	r3, [sp, #76]
 2766 00a4 0193     		str	r3, [sp, #4]
 2767 00a6 0095     		str	r5, [sp]
 2768 00a8 40F26F13 		movw	r3, #367
 2769 00ac 0A4A     		ldr	r2, .L212+28
 2770 00ae 0146     		mov	r1, r0
 2771 00b0 0C48     		ldr	r0, .L212+40
 2772 00b2 FFF7FEFF 		bl	printf
 2773              	.LVL297:
 368:C:/Users/lenovo/Desktop/liteos/Project2/BearPi_LiteOS/components/net/at_device/nb_bc95\bc95.c **** }
 2774              		.loc 1 368 0
 2775 00b6 4FF0FF34 		mov	r4, #-1
 2776 00ba D8E7     		b	.L203
 2777              	.L213:
 2778              		.align	2
 2779              	.L212:
 2780 00bc 00000000 		.word	rbuf
 2781 00c0 3C000000 		.word	.LC53
 2782 00c4 34000000 		.word	.LC52
 2783 00c8 14000000 		.word	.LC7
 2784 00cc 1C000000 		.word	.LC8
 2785 00d0 00000000 		.word	.LANCHOR8
 2786 00d4 50000000 		.word	.LC54
 2787 00d8 00000000 		.word	.LANCHOR13
 2788 00dc 00000000 		.word	.LC50
 2789 00e0 20000000 		.word	.LC51
 2790 00e4 58000000 		.word	.LC55
 2791              		.cfi_endproc
 2792              	.LFE149:
 2794              		.section	.text.nb_create_sock_link,"ax",%progbits
 2795              		.align	1
 2796              		.syntax unified
ARM GAS  c:\Users\lenovo\AppData\Local\Temp\ccJs0CHk.s 			page 69


 2797              		.thumb
 2798              		.thumb_func
 2799              		.fpu fpv4-sp-d16
 2801              	nb_create_sock_link:
 2802              	.LFB153:
 481:C:/Users/lenovo/Desktop/liteos/Project2/BearPi_LiteOS/components/net/at_device/nb_bc95\bc95.c ****     int ret = 0;
 2803              		.loc 1 481 0
 2804              		.cfi_startproc
 2805              		@ args = 0, pretend = 0, frame = 0
 2806              		@ frame_needed = 0, uses_anonymous_args = 0
 2807              	.LVL298:
 2808 0000 70B5     		push	{r4, r5, r6, lr}
 2809              	.LCFI90:
 2810              		.cfi_def_cfa_offset 16
 2811              		.cfi_offset 4, -16
 2812              		.cfi_offset 5, -12
 2813              		.cfi_offset 6, -8
 2814              		.cfi_offset 14, -4
 2815 0002 82B0     		sub	sp, sp, #8
 2816              	.LCFI91:
 2817              		.cfi_def_cfa_offset 24
 2818 0004 0E46     		mov	r6, r1
 2819              	.LVL299:
 485:C:/Users/lenovo/Desktop/liteos/Project2/BearPi_LiteOS/components/net/at_device/nb_bc95\bc95.c **** 	if(sock < 0)
 2820              		.loc 1 485 0
 2821 0006 1121     		movs	r1, #17
 2822              	.LVL300:
 2823 0008 FFF7FEFF 		bl	nb_create_sock
 2824              	.LVL301:
 486:C:/Users/lenovo/Desktop/liteos/Project2/BearPi_LiteOS/components/net/at_device/nb_bc95\bc95.c **** 	{
 2825              		.loc 1 486 0
 2826 000c 051E     		subs	r5, r0, #0
 2827 000e 1FDB     		blt	.L221
 492:C:/Users/lenovo/Desktop/liteos/Project2/BearPi_LiteOS/components/net/at_device/nb_bc95\bc95.c ****     if (ret >= MAX_SOCK_NUM)
 2828              		.loc 1 492 0
 2829 0010 2846     		mov	r0, r5
 2830 0012 FFF7FEFF 		bl	nb_alloc_sock
 2831              	.LVL302:
 2832 0016 0446     		mov	r4, r0
 2833              	.LVL303:
 493:C:/Users/lenovo/Desktop/liteos/Project2/BearPi_LiteOS/components/net/at_device/nb_bc95\bc95.c **** 	{
 2834              		.loc 1 493 0
 2835 0018 0428     		cmp	r0, #4
 2836 001a 26DC     		bgt	.L222
 500:C:/Users/lenovo/Desktop/liteos/Project2/BearPi_LiteOS/components/net/at_device/nb_bc95\bc95.c ****     {
 2837              		.loc 1 500 0
 2838 001c 204B     		ldr	r3, .L224
 2839 001e 5A6B     		ldr	r2, [r3, #52]
 2840 0020 02EB4012 		add	r2, r2, r0, lsl #5
 2841 0024 3423     		movs	r3, #52
 2842 0026 0093     		str	r3, [sp]
 2843 0028 0023     		movs	r3, #0
 2844 002a 0432     		adds	r2, r2, #4
 2845 002c 1021     		movs	r1, #16
 2846 002e 1D48     		ldr	r0, .L224+4
 2847              	.LVL304:
 2848 0030 FFF7FEFF 		bl	LOS_QueueCreate
ARM GAS  c:\Users\lenovo\AppData\Local\Temp\ccJs0CHk.s 			page 70


 2849              	.LVL305:
 2850 0034 48BB     		cbnz	r0, .L223
 506:C:/Users/lenovo/Desktop/liteos/Project2/BearPi_LiteOS/components/net/at_device/nb_bc95\bc95.c ****     sockinfo[ret].socket = sock;
 2851              		.loc 1 506 0
 2852 0036 3460     		str	r4, [r6]
 507:C:/Users/lenovo/Desktop/liteos/Project2/BearPi_LiteOS/components/net/at_device/nb_bc95\bc95.c ****     sockinfo[ret].used_flag = true;
 2853              		.loc 1 507 0
 2854 0038 1B4A     		ldr	r2, .L224+8
 2855 003a 2C23     		movs	r3, #44
 2856 003c 03FB04F4 		mul	r4, r3, r4
 2857              	.LVL306:
 2858 0040 1319     		adds	r3, r2, r4
 2859 0042 1551     		str	r5, [r2, r4]
 2860              	.LVL307:
 508:C:/Users/lenovo/Desktop/liteos/Project2/BearPi_LiteOS/components/net/at_device/nb_bc95\bc95.c ****     return AT_OK;
 2861              		.loc 1 508 0
 2862 0044 0122     		movs	r2, #1
 2863 0046 83F82820 		strb	r2, [r3, #40]
 509:C:/Users/lenovo/Desktop/liteos/Project2/BearPi_LiteOS/components/net/at_device/nb_bc95\bc95.c **** 
 2864              		.loc 1 509 0
 2865 004a 0020     		movs	r0, #0
 2866              	.L214:
 516:C:/Users/lenovo/Desktop/liteos/Project2/BearPi_LiteOS/components/net/at_device/nb_bc95\bc95.c **** 
 2867              		.loc 1 516 0
