ARM GAS  c:\Users\lenovo\AppData\Local\Temp\ccjcyTZ0.s 			page 1


   1              		.cpu cortex-m4
   2              		.eabi_attribute 27, 1
   3              		.eabi_attribute 28, 1
   4              		.eabi_attribute 20, 1
   5              		.eabi_attribute 21, 1
   6              		.eabi_attribute 23, 3
   7              		.eabi_attribute 24, 1
   8              		.eabi_attribute 25, 1
   9              		.eabi_attribute 26, 1
  10              		.eabi_attribute 30, 1
  11              		.eabi_attribute 34, 1
  12              		.eabi_attribute 18, 4
  13              		.file	"bignum.c"
  14              		.text
  15              	.Ltext0:
  16              		.cfi_sections	.debug_frame
  17              		.section	.text.mbedtls_mpi_zeroize,"ax",%progbits
  18              		.align	1
  19              		.syntax unified
  20              		.thumb
  21              		.thumb_func
  22              		.fpu fpv4-sp-d16
  24              	mbedtls_mpi_zeroize:
  25              	.LFB3:
  26              		.file 1 "C:/Users/lenovo/Desktop/liteos/Project2/BearPi_LiteOS/components/security/mbedtls/mbedtls
   1:C:/Users/lenovo/Desktop/liteos/Project2/BearPi_LiteOS/components/security/mbedtls/mbedtls-2.6.0/library\bignum.c **** /*
   2:C:/Users/lenovo/Desktop/liteos/Project2/BearPi_LiteOS/components/security/mbedtls/mbedtls-2.6.0/library\bignum.c ****  *  Multi-precision integer library
   3:C:/Users/lenovo/Desktop/liteos/Project2/BearPi_LiteOS/components/security/mbedtls/mbedtls-2.6.0/library\bignum.c ****  *
   4:C:/Users/lenovo/Desktop/liteos/Project2/BearPi_LiteOS/components/security/mbedtls/mbedtls-2.6.0/library\bignum.c ****  *  Copyright (C) 2006-2015, ARM Limited, All Rights Reserved
   5:C:/Users/lenovo/Desktop/liteos/Project2/BearPi_LiteOS/components/security/mbedtls/mbedtls-2.6.0/library\bignum.c ****  *  SPDX-License-Identifier: Apache-2.0
   6:C:/Users/lenovo/Desktop/liteos/Project2/BearPi_LiteOS/components/security/mbedtls/mbedtls-2.6.0/library\bignum.c ****  *
   7:C:/Users/lenovo/Desktop/liteos/Project2/BearPi_LiteOS/components/security/mbedtls/mbedtls-2.6.0/library\bignum.c ****  *  Licensed under the Apache License, Version 2.0 (the "License"); you may
   8:C:/Users/lenovo/Desktop/liteos/Project2/BearPi_LiteOS/components/security/mbedtls/mbedtls-2.6.0/library\bignum.c ****  *  not use this file except in compliance with the License.
   9:C:/Users/lenovo/Desktop/liteos/Project2/BearPi_LiteOS/components/security/mbedtls/mbedtls-2.6.0/library\bignum.c ****  *  You may obtain a copy of the License at
  10:C:/Users/lenovo/Desktop/liteos/Project2/BearPi_LiteOS/components/security/mbedtls/mbedtls-2.6.0/library\bignum.c ****  *
  11:C:/Users/lenovo/Desktop/liteos/Project2/BearPi_LiteOS/components/security/mbedtls/mbedtls-2.6.0/library\bignum.c ****  *  http://www.apache.org/licenses/LICENSE-2.0
  12:C:/Users/lenovo/Desktop/liteos/Project2/BearPi_LiteOS/components/security/mbedtls/mbedtls-2.6.0/library\bignum.c ****  *
  13:C:/Users/lenovo/Desktop/liteos/Project2/BearPi_LiteOS/components/security/mbedtls/mbedtls-2.6.0/library\bignum.c ****  *  Unless required by applicable law or agreed to in writing, software
  14:C:/Users/lenovo/Desktop/liteos/Project2/BearPi_LiteOS/components/security/mbedtls/mbedtls-2.6.0/library\bignum.c ****  *  distributed under the License is distributed on an "AS IS" BASIS, WITHOUT
  15:C:/Users/lenovo/Desktop/liteos/Project2/BearPi_LiteOS/components/security/mbedtls/mbedtls-2.6.0/library\bignum.c ****  *  WARRANTIES OR CONDITIONS OF ANY KIND, either express or implied.
  16:C:/Users/lenovo/Desktop/liteos/Project2/BearPi_LiteOS/components/security/mbedtls/mbedtls-2.6.0/library\bignum.c ****  *  See the License for the specific language governing permissions and
  17:C:/Users/lenovo/Desktop/liteos/Project2/BearPi_LiteOS/components/security/mbedtls/mbedtls-2.6.0/library\bignum.c ****  *  limitations under the License.
  18:C:/Users/lenovo/Desktop/liteos/Project2/BearPi_LiteOS/components/security/mbedtls/mbedtls-2.6.0/library\bignum.c ****  *
  19:C:/Users/lenovo/Desktop/liteos/Project2/BearPi_LiteOS/components/security/mbedtls/mbedtls-2.6.0/library\bignum.c ****  *  This file is part of mbed TLS (https://tls.mbed.org)
  20:C:/Users/lenovo/Desktop/liteos/Project2/BearPi_LiteOS/components/security/mbedtls/mbedtls-2.6.0/library\bignum.c ****  */
  21:C:/Users/lenovo/Desktop/liteos/Project2/BearPi_LiteOS/components/security/mbedtls/mbedtls-2.6.0/library\bignum.c **** 
  22:C:/Users/lenovo/Desktop/liteos/Project2/BearPi_LiteOS/components/security/mbedtls/mbedtls-2.6.0/library\bignum.c **** /*
  23:C:/Users/lenovo/Desktop/liteos/Project2/BearPi_LiteOS/components/security/mbedtls/mbedtls-2.6.0/library\bignum.c ****  *  The following sources were referenced in the design of this Multi-precision
  24:C:/Users/lenovo/Desktop/liteos/Project2/BearPi_LiteOS/components/security/mbedtls/mbedtls-2.6.0/library\bignum.c ****  *  Integer library:
  25:C:/Users/lenovo/Desktop/liteos/Project2/BearPi_LiteOS/components/security/mbedtls/mbedtls-2.6.0/library\bignum.c ****  *
  26:C:/Users/lenovo/Desktop/liteos/Project2/BearPi_LiteOS/components/security/mbedtls/mbedtls-2.6.0/library\bignum.c ****  *  [1] Handbook of Applied Cryptography - 1997
  27:C:/Users/lenovo/Desktop/liteos/Project2/BearPi_LiteOS/components/security/mbedtls/mbedtls-2.6.0/library\bignum.c ****  *      Menezes, van Oorschot and Vanstone
  28:C:/Users/lenovo/Desktop/liteos/Project2/BearPi_LiteOS/components/security/mbedtls/mbedtls-2.6.0/library\bignum.c ****  *
  29:C:/Users/lenovo/Desktop/liteos/Project2/BearPi_LiteOS/components/security/mbedtls/mbedtls-2.6.0/library\bignum.c ****  *  [2] Multi-Precision Math
  30:C:/Users/lenovo/Desktop/liteos/Project2/BearPi_LiteOS/components/security/mbedtls/mbedtls-2.6.0/library\bignum.c ****  *      Tom St Denis
  31:C:/Users/lenovo/Desktop/liteos/Project2/BearPi_LiteOS/components/security/mbedtls/mbedtls-2.6.0/library\bignum.c ****  *      https://github.com/libtom/libtommath/blob/develop/tommath.pdf
  32:C:/Users/lenovo/Desktop/liteos/Project2/BearPi_LiteOS/components/security/mbedtls/mbedtls-2.6.0/library\bignum.c ****  *
ARM GAS  c:\Users\lenovo\AppData\Local\Temp\ccjcyTZ0.s 			page 2


  33:C:/Users/lenovo/Desktop/liteos/Project2/BearPi_LiteOS/components/security/mbedtls/mbedtls-2.6.0/library\bignum.c ****  *  [3] GNU Multi-Precision Arithmetic Library
  34:C:/Users/lenovo/Desktop/liteos/Project2/BearPi_LiteOS/components/security/mbedtls/mbedtls-2.6.0/library\bignum.c ****  *      https://gmplib.org/manual/index.html
  35:C:/Users/lenovo/Desktop/liteos/Project2/BearPi_LiteOS/components/security/mbedtls/mbedtls-2.6.0/library\bignum.c ****  *
  36:C:/Users/lenovo/Desktop/liteos/Project2/BearPi_LiteOS/components/security/mbedtls/mbedtls-2.6.0/library\bignum.c ****  */
  37:C:/Users/lenovo/Desktop/liteos/Project2/BearPi_LiteOS/components/security/mbedtls/mbedtls-2.6.0/library\bignum.c **** 
  38:C:/Users/lenovo/Desktop/liteos/Project2/BearPi_LiteOS/components/security/mbedtls/mbedtls-2.6.0/library\bignum.c **** #if !defined(MBEDTLS_CONFIG_FILE)
  39:C:/Users/lenovo/Desktop/liteos/Project2/BearPi_LiteOS/components/security/mbedtls/mbedtls-2.6.0/library\bignum.c **** #include "mbedtls/config.h"
  40:C:/Users/lenovo/Desktop/liteos/Project2/BearPi_LiteOS/components/security/mbedtls/mbedtls-2.6.0/library\bignum.c **** #else
  41:C:/Users/lenovo/Desktop/liteos/Project2/BearPi_LiteOS/components/security/mbedtls/mbedtls-2.6.0/library\bignum.c **** #include MBEDTLS_CONFIG_FILE
  42:C:/Users/lenovo/Desktop/liteos/Project2/BearPi_LiteOS/components/security/mbedtls/mbedtls-2.6.0/library\bignum.c **** #endif
  43:C:/Users/lenovo/Desktop/liteos/Project2/BearPi_LiteOS/components/security/mbedtls/mbedtls-2.6.0/library\bignum.c **** 
  44:C:/Users/lenovo/Desktop/liteos/Project2/BearPi_LiteOS/components/security/mbedtls/mbedtls-2.6.0/library\bignum.c **** #if defined(MBEDTLS_BIGNUM_C)
  45:C:/Users/lenovo/Desktop/liteos/Project2/BearPi_LiteOS/components/security/mbedtls/mbedtls-2.6.0/library\bignum.c **** 
  46:C:/Users/lenovo/Desktop/liteos/Project2/BearPi_LiteOS/components/security/mbedtls/mbedtls-2.6.0/library\bignum.c **** #include "mbedtls/bignum.h"
  47:C:/Users/lenovo/Desktop/liteos/Project2/BearPi_LiteOS/components/security/mbedtls/mbedtls-2.6.0/library\bignum.c **** #include "mbedtls/bn_mul.h"
  48:C:/Users/lenovo/Desktop/liteos/Project2/BearPi_LiteOS/components/security/mbedtls/mbedtls-2.6.0/library\bignum.c **** 
  49:C:/Users/lenovo/Desktop/liteos/Project2/BearPi_LiteOS/components/security/mbedtls/mbedtls-2.6.0/library\bignum.c **** #include <string.h>
  50:C:/Users/lenovo/Desktop/liteos/Project2/BearPi_LiteOS/components/security/mbedtls/mbedtls-2.6.0/library\bignum.c **** 
  51:C:/Users/lenovo/Desktop/liteos/Project2/BearPi_LiteOS/components/security/mbedtls/mbedtls-2.6.0/library\bignum.c **** #if defined(MBEDTLS_PLATFORM_C)
  52:C:/Users/lenovo/Desktop/liteos/Project2/BearPi_LiteOS/components/security/mbedtls/mbedtls-2.6.0/library\bignum.c **** #include "mbedtls/platform.h"
  53:C:/Users/lenovo/Desktop/liteos/Project2/BearPi_LiteOS/components/security/mbedtls/mbedtls-2.6.0/library\bignum.c **** #else
  54:C:/Users/lenovo/Desktop/liteos/Project2/BearPi_LiteOS/components/security/mbedtls/mbedtls-2.6.0/library\bignum.c **** #include <stdio.h>
  55:C:/Users/lenovo/Desktop/liteos/Project2/BearPi_LiteOS/components/security/mbedtls/mbedtls-2.6.0/library\bignum.c **** #include <stdlib.h>
  56:C:/Users/lenovo/Desktop/liteos/Project2/BearPi_LiteOS/components/security/mbedtls/mbedtls-2.6.0/library\bignum.c **** #define mbedtls_printf     printf
  57:C:/Users/lenovo/Desktop/liteos/Project2/BearPi_LiteOS/components/security/mbedtls/mbedtls-2.6.0/library\bignum.c **** #define mbedtls_calloc    calloc
  58:C:/Users/lenovo/Desktop/liteos/Project2/BearPi_LiteOS/components/security/mbedtls/mbedtls-2.6.0/library\bignum.c **** #define mbedtls_free       free
  59:C:/Users/lenovo/Desktop/liteos/Project2/BearPi_LiteOS/components/security/mbedtls/mbedtls-2.6.0/library\bignum.c **** #endif
  60:C:/Users/lenovo/Desktop/liteos/Project2/BearPi_LiteOS/components/security/mbedtls/mbedtls-2.6.0/library\bignum.c **** 
  61:C:/Users/lenovo/Desktop/liteos/Project2/BearPi_LiteOS/components/security/mbedtls/mbedtls-2.6.0/library\bignum.c **** /* Implementation that should never be optimized out by the compiler */
  62:C:/Users/lenovo/Desktop/liteos/Project2/BearPi_LiteOS/components/security/mbedtls/mbedtls-2.6.0/library\bignum.c **** static void mbedtls_mpi_zeroize( mbedtls_mpi_uint *v, size_t n ) {
  27              		.loc 1 62 0
  28              		.cfi_startproc
  29              		@ args = 0, pretend = 0, frame = 0
  30              		@ frame_needed = 0, uses_anonymous_args = 0
  31              		@ link register save eliminated.
  32              	.LVL0:
  63:C:/Users/lenovo/Desktop/liteos/Project2/BearPi_LiteOS/components/security/mbedtls/mbedtls-2.6.0/library\bignum.c ****     volatile mbedtls_mpi_uint *p = v; while( n-- ) *p++ = 0;
  33              		.loc 1 63 0
  34 0000 03E0     		b	.L2
  35              	.LVL1:
  36              	.L3:
  37              		.loc 1 63 0 is_stmt 0 discriminator 3
  38 0002 0022     		movs	r2, #0
  39 0004 0260     		str	r2, [r0]
  40 0006 0430     		adds	r0, r0, #4
  41              	.LVL2:
  42 0008 1946     		mov	r1, r3
  43              	.LVL3:
  44              	.L2:
  45              		.loc 1 63 0 discriminator 1
  46 000a 4B1E     		subs	r3, r1, #1
  47              	.LVL4:
  48 000c 0029     		cmp	r1, #0
  49 000e F8D1     		bne	.L3
  64:C:/Users/lenovo/Desktop/liteos/Project2/BearPi_LiteOS/components/security/mbedtls/mbedtls-2.6.0/library\bignum.c **** }
  50              		.loc 1 64 0 is_stmt 1
  51 0010 7047     		bx	lr
ARM GAS  c:\Users\lenovo\AppData\Local\Temp\ccjcyTZ0.s 			page 3


  52              		.cfi_endproc
  53              	.LFE3:
  55              		.section	.text.mbedtls_clz,"ax",%progbits
  56              		.align	1
  57              		.syntax unified
  58              		.thumb
  59              		.thumb_func
  60              		.fpu fpv4-sp-d16
  62              	mbedtls_clz:
  63              	.LFB16:
  65:C:/Users/lenovo/Desktop/liteos/Project2/BearPi_LiteOS/components/security/mbedtls/mbedtls-2.6.0/library\bignum.c **** 
  66:C:/Users/lenovo/Desktop/liteos/Project2/BearPi_LiteOS/components/security/mbedtls/mbedtls-2.6.0/library\bignum.c **** #define ciL    (sizeof(mbedtls_mpi_uint))         /* chars in limb  */
  67:C:/Users/lenovo/Desktop/liteos/Project2/BearPi_LiteOS/components/security/mbedtls/mbedtls-2.6.0/library\bignum.c **** #define biL    (ciL << 3)               /* bits  in limb  */
  68:C:/Users/lenovo/Desktop/liteos/Project2/BearPi_LiteOS/components/security/mbedtls/mbedtls-2.6.0/library\bignum.c **** #define biH    (ciL << 2)               /* half limb size */
  69:C:/Users/lenovo/Desktop/liteos/Project2/BearPi_LiteOS/components/security/mbedtls/mbedtls-2.6.0/library\bignum.c **** 
  70:C:/Users/lenovo/Desktop/liteos/Project2/BearPi_LiteOS/components/security/mbedtls/mbedtls-2.6.0/library\bignum.c **** #define MPI_SIZE_T_MAX  ( (size_t) -1 ) /* SIZE_T_MAX is not standard */
  71:C:/Users/lenovo/Desktop/liteos/Project2/BearPi_LiteOS/components/security/mbedtls/mbedtls-2.6.0/library\bignum.c **** 
  72:C:/Users/lenovo/Desktop/liteos/Project2/BearPi_LiteOS/components/security/mbedtls/mbedtls-2.6.0/library\bignum.c **** /*
  73:C:/Users/lenovo/Desktop/liteos/Project2/BearPi_LiteOS/components/security/mbedtls/mbedtls-2.6.0/library\bignum.c ****  * Convert between bits/chars and number of limbs
  74:C:/Users/lenovo/Desktop/liteos/Project2/BearPi_LiteOS/components/security/mbedtls/mbedtls-2.6.0/library\bignum.c ****  * Divide first in order to avoid potential overflows
  75:C:/Users/lenovo/Desktop/liteos/Project2/BearPi_LiteOS/components/security/mbedtls/mbedtls-2.6.0/library\bignum.c ****  */
  76:C:/Users/lenovo/Desktop/liteos/Project2/BearPi_LiteOS/components/security/mbedtls/mbedtls-2.6.0/library\bignum.c **** #define BITS_TO_LIMBS(i)  ( (i) / biL + ( (i) % biL != 0 ) )
  77:C:/Users/lenovo/Desktop/liteos/Project2/BearPi_LiteOS/components/security/mbedtls/mbedtls-2.6.0/library\bignum.c **** #define CHARS_TO_LIMBS(i) ( (i) / ciL + ( (i) % ciL != 0 ) )
  78:C:/Users/lenovo/Desktop/liteos/Project2/BearPi_LiteOS/components/security/mbedtls/mbedtls-2.6.0/library\bignum.c **** 
  79:C:/Users/lenovo/Desktop/liteos/Project2/BearPi_LiteOS/components/security/mbedtls/mbedtls-2.6.0/library\bignum.c **** /*
  80:C:/Users/lenovo/Desktop/liteos/Project2/BearPi_LiteOS/components/security/mbedtls/mbedtls-2.6.0/library\bignum.c ****  * Initialize one MPI
  81:C:/Users/lenovo/Desktop/liteos/Project2/BearPi_LiteOS/components/security/mbedtls/mbedtls-2.6.0/library\bignum.c ****  */
  82:C:/Users/lenovo/Desktop/liteos/Project2/BearPi_LiteOS/components/security/mbedtls/mbedtls-2.6.0/library\bignum.c **** void mbedtls_mpi_init( mbedtls_mpi *X )
  83:C:/Users/lenovo/Desktop/liteos/Project2/BearPi_LiteOS/components/security/mbedtls/mbedtls-2.6.0/library\bignum.c **** {
  84:C:/Users/lenovo/Desktop/liteos/Project2/BearPi_LiteOS/components/security/mbedtls/mbedtls-2.6.0/library\bignum.c ****     if( X == NULL )
  85:C:/Users/lenovo/Desktop/liteos/Project2/BearPi_LiteOS/components/security/mbedtls/mbedtls-2.6.0/library\bignum.c ****         return;
  86:C:/Users/lenovo/Desktop/liteos/Project2/BearPi_LiteOS/components/security/mbedtls/mbedtls-2.6.0/library\bignum.c **** 
  87:C:/Users/lenovo/Desktop/liteos/Project2/BearPi_LiteOS/components/security/mbedtls/mbedtls-2.6.0/library\bignum.c ****     X->s = 1;
  88:C:/Users/lenovo/Desktop/liteos/Project2/BearPi_LiteOS/components/security/mbedtls/mbedtls-2.6.0/library\bignum.c ****     X->n = 0;
  89:C:/Users/lenovo/Desktop/liteos/Project2/BearPi_LiteOS/components/security/mbedtls/mbedtls-2.6.0/library\bignum.c ****     X->p = NULL;
  90:C:/Users/lenovo/Desktop/liteos/Project2/BearPi_LiteOS/components/security/mbedtls/mbedtls-2.6.0/library\bignum.c **** }
  91:C:/Users/lenovo/Desktop/liteos/Project2/BearPi_LiteOS/components/security/mbedtls/mbedtls-2.6.0/library\bignum.c **** 
  92:C:/Users/lenovo/Desktop/liteos/Project2/BearPi_LiteOS/components/security/mbedtls/mbedtls-2.6.0/library\bignum.c **** /*
  93:C:/Users/lenovo/Desktop/liteos/Project2/BearPi_LiteOS/components/security/mbedtls/mbedtls-2.6.0/library\bignum.c ****  * Unallocate one MPI
  94:C:/Users/lenovo/Desktop/liteos/Project2/BearPi_LiteOS/components/security/mbedtls/mbedtls-2.6.0/library\bignum.c ****  */
  95:C:/Users/lenovo/Desktop/liteos/Project2/BearPi_LiteOS/components/security/mbedtls/mbedtls-2.6.0/library\bignum.c **** void mbedtls_mpi_free( mbedtls_mpi *X )
  96:C:/Users/lenovo/Desktop/liteos/Project2/BearPi_LiteOS/components/security/mbedtls/mbedtls-2.6.0/library\bignum.c **** {
  97:C:/Users/lenovo/Desktop/liteos/Project2/BearPi_LiteOS/components/security/mbedtls/mbedtls-2.6.0/library\bignum.c ****     if( X == NULL )
  98:C:/Users/lenovo/Desktop/liteos/Project2/BearPi_LiteOS/components/security/mbedtls/mbedtls-2.6.0/library\bignum.c ****         return;
  99:C:/Users/lenovo/Desktop/liteos/Project2/BearPi_LiteOS/components/security/mbedtls/mbedtls-2.6.0/library\bignum.c **** 
 100:C:/Users/lenovo/Desktop/liteos/Project2/BearPi_LiteOS/components/security/mbedtls/mbedtls-2.6.0/library\bignum.c ****     if( X->p != NULL )
 101:C:/Users/lenovo/Desktop/liteos/Project2/BearPi_LiteOS/components/security/mbedtls/mbedtls-2.6.0/library\bignum.c ****     {
 102:C:/Users/lenovo/Desktop/liteos/Project2/BearPi_LiteOS/components/security/mbedtls/mbedtls-2.6.0/library\bignum.c ****         mbedtls_mpi_zeroize( X->p, X->n );
 103:C:/Users/lenovo/Desktop/liteos/Project2/BearPi_LiteOS/components/security/mbedtls/mbedtls-2.6.0/library\bignum.c ****         mbedtls_free( X->p );
 104:C:/Users/lenovo/Desktop/liteos/Project2/BearPi_LiteOS/components/security/mbedtls/mbedtls-2.6.0/library\bignum.c ****     }
 105:C:/Users/lenovo/Desktop/liteos/Project2/BearPi_LiteOS/components/security/mbedtls/mbedtls-2.6.0/library\bignum.c **** 
 106:C:/Users/lenovo/Desktop/liteos/Project2/BearPi_LiteOS/components/security/mbedtls/mbedtls-2.6.0/library\bignum.c ****     X->s = 1;
 107:C:/Users/lenovo/Desktop/liteos/Project2/BearPi_LiteOS/components/security/mbedtls/mbedtls-2.6.0/library\bignum.c ****     X->n = 0;
 108:C:/Users/lenovo/Desktop/liteos/Project2/BearPi_LiteOS/components/security/mbedtls/mbedtls-2.6.0/library\bignum.c ****     X->p = NULL;
 109:C:/Users/lenovo/Desktop/liteos/Project2/BearPi_LiteOS/components/security/mbedtls/mbedtls-2.6.0/library\bignum.c **** }
 110:C:/Users/lenovo/Desktop/liteos/Project2/BearPi_LiteOS/components/security/mbedtls/mbedtls-2.6.0/library\bignum.c **** 
 111:C:/Users/lenovo/Desktop/liteos/Project2/BearPi_LiteOS/components/security/mbedtls/mbedtls-2.6.0/library\bignum.c **** /*
ARM GAS  c:\Users\lenovo\AppData\Local\Temp\ccjcyTZ0.s 			page 4


 112:C:/Users/lenovo/Desktop/liteos/Project2/BearPi_LiteOS/components/security/mbedtls/mbedtls-2.6.0/library\bignum.c ****  * Enlarge to the specified number of limbs
 113:C:/Users/lenovo/Desktop/liteos/Project2/BearPi_LiteOS/components/security/mbedtls/mbedtls-2.6.0/library\bignum.c ****  */
 114:C:/Users/lenovo/Desktop/liteos/Project2/BearPi_LiteOS/components/security/mbedtls/mbedtls-2.6.0/library\bignum.c **** int mbedtls_mpi_grow( mbedtls_mpi *X, size_t nblimbs )
 115:C:/Users/lenovo/Desktop/liteos/Project2/BearPi_LiteOS/components/security/mbedtls/mbedtls-2.6.0/library\bignum.c **** {
 116:C:/Users/lenovo/Desktop/liteos/Project2/BearPi_LiteOS/components/security/mbedtls/mbedtls-2.6.0/library\bignum.c ****     mbedtls_mpi_uint *p;
 117:C:/Users/lenovo/Desktop/liteos/Project2/BearPi_LiteOS/components/security/mbedtls/mbedtls-2.6.0/library\bignum.c **** 
 118:C:/Users/lenovo/Desktop/liteos/Project2/BearPi_LiteOS/components/security/mbedtls/mbedtls-2.6.0/library\bignum.c ****     if( nblimbs > MBEDTLS_MPI_MAX_LIMBS )
 119:C:/Users/lenovo/Desktop/liteos/Project2/BearPi_LiteOS/components/security/mbedtls/mbedtls-2.6.0/library\bignum.c ****         return( MBEDTLS_ERR_MPI_ALLOC_FAILED );
 120:C:/Users/lenovo/Desktop/liteos/Project2/BearPi_LiteOS/components/security/mbedtls/mbedtls-2.6.0/library\bignum.c **** 
 121:C:/Users/lenovo/Desktop/liteos/Project2/BearPi_LiteOS/components/security/mbedtls/mbedtls-2.6.0/library\bignum.c ****     if( X->n < nblimbs )
 122:C:/Users/lenovo/Desktop/liteos/Project2/BearPi_LiteOS/components/security/mbedtls/mbedtls-2.6.0/library\bignum.c ****     {
 123:C:/Users/lenovo/Desktop/liteos/Project2/BearPi_LiteOS/components/security/mbedtls/mbedtls-2.6.0/library\bignum.c ****         if( ( p = (mbedtls_mpi_uint*)mbedtls_calloc( nblimbs, ciL ) ) == NULL )
 124:C:/Users/lenovo/Desktop/liteos/Project2/BearPi_LiteOS/components/security/mbedtls/mbedtls-2.6.0/library\bignum.c ****             return( MBEDTLS_ERR_MPI_ALLOC_FAILED );
 125:C:/Users/lenovo/Desktop/liteos/Project2/BearPi_LiteOS/components/security/mbedtls/mbedtls-2.6.0/library\bignum.c **** 
 126:C:/Users/lenovo/Desktop/liteos/Project2/BearPi_LiteOS/components/security/mbedtls/mbedtls-2.6.0/library\bignum.c ****         if( X->p != NULL )
 127:C:/Users/lenovo/Desktop/liteos/Project2/BearPi_LiteOS/components/security/mbedtls/mbedtls-2.6.0/library\bignum.c ****         {
 128:C:/Users/lenovo/Desktop/liteos/Project2/BearPi_LiteOS/components/security/mbedtls/mbedtls-2.6.0/library\bignum.c ****             memcpy( p, X->p, X->n * ciL );
 129:C:/Users/lenovo/Desktop/liteos/Project2/BearPi_LiteOS/components/security/mbedtls/mbedtls-2.6.0/library\bignum.c ****             mbedtls_mpi_zeroize( X->p, X->n );
 130:C:/Users/lenovo/Desktop/liteos/Project2/BearPi_LiteOS/components/security/mbedtls/mbedtls-2.6.0/library\bignum.c ****             mbedtls_free( X->p );
 131:C:/Users/lenovo/Desktop/liteos/Project2/BearPi_LiteOS/components/security/mbedtls/mbedtls-2.6.0/library\bignum.c ****         }
 132:C:/Users/lenovo/Desktop/liteos/Project2/BearPi_LiteOS/components/security/mbedtls/mbedtls-2.6.0/library\bignum.c **** 
 133:C:/Users/lenovo/Desktop/liteos/Project2/BearPi_LiteOS/components/security/mbedtls/mbedtls-2.6.0/library\bignum.c ****         X->n = nblimbs;
 134:C:/Users/lenovo/Desktop/liteos/Project2/BearPi_LiteOS/components/security/mbedtls/mbedtls-2.6.0/library\bignum.c ****         X->p = p;
 135:C:/Users/lenovo/Desktop/liteos/Project2/BearPi_LiteOS/components/security/mbedtls/mbedtls-2.6.0/library\bignum.c ****     }
 136:C:/Users/lenovo/Desktop/liteos/Project2/BearPi_LiteOS/components/security/mbedtls/mbedtls-2.6.0/library\bignum.c **** 
 137:C:/Users/lenovo/Desktop/liteos/Project2/BearPi_LiteOS/components/security/mbedtls/mbedtls-2.6.0/library\bignum.c ****     return( 0 );
 138:C:/Users/lenovo/Desktop/liteos/Project2/BearPi_LiteOS/components/security/mbedtls/mbedtls-2.6.0/library\bignum.c **** }
 139:C:/Users/lenovo/Desktop/liteos/Project2/BearPi_LiteOS/components/security/mbedtls/mbedtls-2.6.0/library\bignum.c **** 
 140:C:/Users/lenovo/Desktop/liteos/Project2/BearPi_LiteOS/components/security/mbedtls/mbedtls-2.6.0/library\bignum.c **** /*
 141:C:/Users/lenovo/Desktop/liteos/Project2/BearPi_LiteOS/components/security/mbedtls/mbedtls-2.6.0/library\bignum.c ****  * Resize down as much as possible,
 142:C:/Users/lenovo/Desktop/liteos/Project2/BearPi_LiteOS/components/security/mbedtls/mbedtls-2.6.0/library\bignum.c ****  * while keeping at least the specified number of limbs
 143:C:/Users/lenovo/Desktop/liteos/Project2/BearPi_LiteOS/components/security/mbedtls/mbedtls-2.6.0/library\bignum.c ****  */
 144:C:/Users/lenovo/Desktop/liteos/Project2/BearPi_LiteOS/components/security/mbedtls/mbedtls-2.6.0/library\bignum.c **** int mbedtls_mpi_shrink( mbedtls_mpi *X, size_t nblimbs )
 145:C:/Users/lenovo/Desktop/liteos/Project2/BearPi_LiteOS/components/security/mbedtls/mbedtls-2.6.0/library\bignum.c **** {
 146:C:/Users/lenovo/Desktop/liteos/Project2/BearPi_LiteOS/components/security/mbedtls/mbedtls-2.6.0/library\bignum.c ****     mbedtls_mpi_uint *p;
 147:C:/Users/lenovo/Desktop/liteos/Project2/BearPi_LiteOS/components/security/mbedtls/mbedtls-2.6.0/library\bignum.c ****     size_t i;
 148:C:/Users/lenovo/Desktop/liteos/Project2/BearPi_LiteOS/components/security/mbedtls/mbedtls-2.6.0/library\bignum.c **** 
 149:C:/Users/lenovo/Desktop/liteos/Project2/BearPi_LiteOS/components/security/mbedtls/mbedtls-2.6.0/library\bignum.c ****     /* Actually resize up in this case */
 150:C:/Users/lenovo/Desktop/liteos/Project2/BearPi_LiteOS/components/security/mbedtls/mbedtls-2.6.0/library\bignum.c ****     if( X->n <= nblimbs )
 151:C:/Users/lenovo/Desktop/liteos/Project2/BearPi_LiteOS/components/security/mbedtls/mbedtls-2.6.0/library\bignum.c ****         return( mbedtls_mpi_grow( X, nblimbs ) );
 152:C:/Users/lenovo/Desktop/liteos/Project2/BearPi_LiteOS/components/security/mbedtls/mbedtls-2.6.0/library\bignum.c **** 
 153:C:/Users/lenovo/Desktop/liteos/Project2/BearPi_LiteOS/components/security/mbedtls/mbedtls-2.6.0/library\bignum.c ****     for( i = X->n - 1; i > 0; i-- )
 154:C:/Users/lenovo/Desktop/liteos/Project2/BearPi_LiteOS/components/security/mbedtls/mbedtls-2.6.0/library\bignum.c ****         if( X->p[i] != 0 )
 155:C:/Users/lenovo/Desktop/liteos/Project2/BearPi_LiteOS/components/security/mbedtls/mbedtls-2.6.0/library\bignum.c ****             break;
 156:C:/Users/lenovo/Desktop/liteos/Project2/BearPi_LiteOS/components/security/mbedtls/mbedtls-2.6.0/library\bignum.c ****     i++;
 157:C:/Users/lenovo/Desktop/liteos/Project2/BearPi_LiteOS/components/security/mbedtls/mbedtls-2.6.0/library\bignum.c **** 
 158:C:/Users/lenovo/Desktop/liteos/Project2/BearPi_LiteOS/components/security/mbedtls/mbedtls-2.6.0/library\bignum.c ****     if( i < nblimbs )
 159:C:/Users/lenovo/Desktop/liteos/Project2/BearPi_LiteOS/components/security/mbedtls/mbedtls-2.6.0/library\bignum.c ****         i = nblimbs;
 160:C:/Users/lenovo/Desktop/liteos/Project2/BearPi_LiteOS/components/security/mbedtls/mbedtls-2.6.0/library\bignum.c **** 
 161:C:/Users/lenovo/Desktop/liteos/Project2/BearPi_LiteOS/components/security/mbedtls/mbedtls-2.6.0/library\bignum.c ****     if( ( p = (mbedtls_mpi_uint*)mbedtls_calloc( i, ciL ) ) == NULL )
 162:C:/Users/lenovo/Desktop/liteos/Project2/BearPi_LiteOS/components/security/mbedtls/mbedtls-2.6.0/library\bignum.c ****         return( MBEDTLS_ERR_MPI_ALLOC_FAILED );
 163:C:/Users/lenovo/Desktop/liteos/Project2/BearPi_LiteOS/components/security/mbedtls/mbedtls-2.6.0/library\bignum.c **** 
 164:C:/Users/lenovo/Desktop/liteos/Project2/BearPi_LiteOS/components/security/mbedtls/mbedtls-2.6.0/library\bignum.c ****     if( X->p != NULL )
 165:C:/Users/lenovo/Desktop/liteos/Project2/BearPi_LiteOS/components/security/mbedtls/mbedtls-2.6.0/library\bignum.c ****     {
 166:C:/Users/lenovo/Desktop/liteos/Project2/BearPi_LiteOS/components/security/mbedtls/mbedtls-2.6.0/library\bignum.c ****         memcpy( p, X->p, i * ciL );
 167:C:/Users/lenovo/Desktop/liteos/Project2/BearPi_LiteOS/components/security/mbedtls/mbedtls-2.6.0/library\bignum.c ****         mbedtls_mpi_zeroize( X->p, X->n );
 168:C:/Users/lenovo/Desktop/liteos/Project2/BearPi_LiteOS/components/security/mbedtls/mbedtls-2.6.0/library\bignum.c ****         mbedtls_free( X->p );
ARM GAS  c:\Users\lenovo\AppData\Local\Temp\ccjcyTZ0.s 			page 5


 169:C:/Users/lenovo/Desktop/liteos/Project2/BearPi_LiteOS/components/security/mbedtls/mbedtls-2.6.0/library\bignum.c ****     }
 170:C:/Users/lenovo/Desktop/liteos/Project2/BearPi_LiteOS/components/security/mbedtls/mbedtls-2.6.0/library\bignum.c **** 
 171:C:/Users/lenovo/Desktop/liteos/Project2/BearPi_LiteOS/components/security/mbedtls/mbedtls-2.6.0/library\bignum.c ****     X->n = i;
 172:C:/Users/lenovo/Desktop/liteos/Project2/BearPi_LiteOS/components/security/mbedtls/mbedtls-2.6.0/library\bignum.c ****     X->p = p;
 173:C:/Users/lenovo/Desktop/liteos/Project2/BearPi_LiteOS/components/security/mbedtls/mbedtls-2.6.0/library\bignum.c **** 
 174:C:/Users/lenovo/Desktop/liteos/Project2/BearPi_LiteOS/components/security/mbedtls/mbedtls-2.6.0/library\bignum.c ****     return( 0 );
 175:C:/Users/lenovo/Desktop/liteos/Project2/BearPi_LiteOS/components/security/mbedtls/mbedtls-2.6.0/library\bignum.c **** }
 176:C:/Users/lenovo/Desktop/liteos/Project2/BearPi_LiteOS/components/security/mbedtls/mbedtls-2.6.0/library\bignum.c **** 
 177:C:/Users/lenovo/Desktop/liteos/Project2/BearPi_LiteOS/components/security/mbedtls/mbedtls-2.6.0/library\bignum.c **** /*
 178:C:/Users/lenovo/Desktop/liteos/Project2/BearPi_LiteOS/components/security/mbedtls/mbedtls-2.6.0/library\bignum.c ****  * Copy the contents of Y into X
 179:C:/Users/lenovo/Desktop/liteos/Project2/BearPi_LiteOS/components/security/mbedtls/mbedtls-2.6.0/library\bignum.c ****  */
 180:C:/Users/lenovo/Desktop/liteos/Project2/BearPi_LiteOS/components/security/mbedtls/mbedtls-2.6.0/library\bignum.c **** int mbedtls_mpi_copy( mbedtls_mpi *X, const mbedtls_mpi *Y )
 181:C:/Users/lenovo/Desktop/liteos/Project2/BearPi_LiteOS/components/security/mbedtls/mbedtls-2.6.0/library\bignum.c **** {
 182:C:/Users/lenovo/Desktop/liteos/Project2/BearPi_LiteOS/components/security/mbedtls/mbedtls-2.6.0/library\bignum.c ****     int ret;
 183:C:/Users/lenovo/Desktop/liteos/Project2/BearPi_LiteOS/components/security/mbedtls/mbedtls-2.6.0/library\bignum.c ****     size_t i;
 184:C:/Users/lenovo/Desktop/liteos/Project2/BearPi_LiteOS/components/security/mbedtls/mbedtls-2.6.0/library\bignum.c **** 
 185:C:/Users/lenovo/Desktop/liteos/Project2/BearPi_LiteOS/components/security/mbedtls/mbedtls-2.6.0/library\bignum.c ****     if( X == Y )
 186:C:/Users/lenovo/Desktop/liteos/Project2/BearPi_LiteOS/components/security/mbedtls/mbedtls-2.6.0/library\bignum.c ****         return( 0 );
 187:C:/Users/lenovo/Desktop/liteos/Project2/BearPi_LiteOS/components/security/mbedtls/mbedtls-2.6.0/library\bignum.c **** 
 188:C:/Users/lenovo/Desktop/liteos/Project2/BearPi_LiteOS/components/security/mbedtls/mbedtls-2.6.0/library\bignum.c ****     if( Y->p == NULL )
 189:C:/Users/lenovo/Desktop/liteos/Project2/BearPi_LiteOS/components/security/mbedtls/mbedtls-2.6.0/library\bignum.c ****     {
 190:C:/Users/lenovo/Desktop/liteos/Project2/BearPi_LiteOS/components/security/mbedtls/mbedtls-2.6.0/library\bignum.c ****         mbedtls_mpi_free( X );
 191:C:/Users/lenovo/Desktop/liteos/Project2/BearPi_LiteOS/components/security/mbedtls/mbedtls-2.6.0/library\bignum.c ****         return( 0 );
 192:C:/Users/lenovo/Desktop/liteos/Project2/BearPi_LiteOS/components/security/mbedtls/mbedtls-2.6.0/library\bignum.c ****     }
 193:C:/Users/lenovo/Desktop/liteos/Project2/BearPi_LiteOS/components/security/mbedtls/mbedtls-2.6.0/library\bignum.c **** 
 194:C:/Users/lenovo/Desktop/liteos/Project2/BearPi_LiteOS/components/security/mbedtls/mbedtls-2.6.0/library\bignum.c ****     for( i = Y->n - 1; i > 0; i-- )
 195:C:/Users/lenovo/Desktop/liteos/Project2/BearPi_LiteOS/components/security/mbedtls/mbedtls-2.6.0/library\bignum.c ****         if( Y->p[i] != 0 )
 196:C:/Users/lenovo/Desktop/liteos/Project2/BearPi_LiteOS/components/security/mbedtls/mbedtls-2.6.0/library\bignum.c ****             break;
 197:C:/Users/lenovo/Desktop/liteos/Project2/BearPi_LiteOS/components/security/mbedtls/mbedtls-2.6.0/library\bignum.c ****     i++;
 198:C:/Users/lenovo/Desktop/liteos/Project2/BearPi_LiteOS/components/security/mbedtls/mbedtls-2.6.0/library\bignum.c **** 
 199:C:/Users/lenovo/Desktop/liteos/Project2/BearPi_LiteOS/components/security/mbedtls/mbedtls-2.6.0/library\bignum.c ****     X->s = Y->s;
 200:C:/Users/lenovo/Desktop/liteos/Project2/BearPi_LiteOS/components/security/mbedtls/mbedtls-2.6.0/library\bignum.c **** 
 201:C:/Users/lenovo/Desktop/liteos/Project2/BearPi_LiteOS/components/security/mbedtls/mbedtls-2.6.0/library\bignum.c ****     MBEDTLS_MPI_CHK( mbedtls_mpi_grow( X, i ) );
 202:C:/Users/lenovo/Desktop/liteos/Project2/BearPi_LiteOS/components/security/mbedtls/mbedtls-2.6.0/library\bignum.c **** 
 203:C:/Users/lenovo/Desktop/liteos/Project2/BearPi_LiteOS/components/security/mbedtls/mbedtls-2.6.0/library\bignum.c ****     memset( X->p, 0, X->n * ciL );
 204:C:/Users/lenovo/Desktop/liteos/Project2/BearPi_LiteOS/components/security/mbedtls/mbedtls-2.6.0/library\bignum.c ****     memcpy( X->p, Y->p, i * ciL );
 205:C:/Users/lenovo/Desktop/liteos/Project2/BearPi_LiteOS/components/security/mbedtls/mbedtls-2.6.0/library\bignum.c **** 
 206:C:/Users/lenovo/Desktop/liteos/Project2/BearPi_LiteOS/components/security/mbedtls/mbedtls-2.6.0/library\bignum.c **** cleanup:
 207:C:/Users/lenovo/Desktop/liteos/Project2/BearPi_LiteOS/components/security/mbedtls/mbedtls-2.6.0/library\bignum.c **** 
 208:C:/Users/lenovo/Desktop/liteos/Project2/BearPi_LiteOS/components/security/mbedtls/mbedtls-2.6.0/library\bignum.c ****     return( ret );
 209:C:/Users/lenovo/Desktop/liteos/Project2/BearPi_LiteOS/components/security/mbedtls/mbedtls-2.6.0/library\bignum.c **** }
 210:C:/Users/lenovo/Desktop/liteos/Project2/BearPi_LiteOS/components/security/mbedtls/mbedtls-2.6.0/library\bignum.c **** 
 211:C:/Users/lenovo/Desktop/liteos/Project2/BearPi_LiteOS/components/security/mbedtls/mbedtls-2.6.0/library\bignum.c **** /*
 212:C:/Users/lenovo/Desktop/liteos/Project2/BearPi_LiteOS/components/security/mbedtls/mbedtls-2.6.0/library\bignum.c ****  * Swap the contents of X and Y
 213:C:/Users/lenovo/Desktop/liteos/Project2/BearPi_LiteOS/components/security/mbedtls/mbedtls-2.6.0/library\bignum.c ****  */
 214:C:/Users/lenovo/Desktop/liteos/Project2/BearPi_LiteOS/components/security/mbedtls/mbedtls-2.6.0/library\bignum.c **** void mbedtls_mpi_swap( mbedtls_mpi *X, mbedtls_mpi *Y )
 215:C:/Users/lenovo/Desktop/liteos/Project2/BearPi_LiteOS/components/security/mbedtls/mbedtls-2.6.0/library\bignum.c **** {
 216:C:/Users/lenovo/Desktop/liteos/Project2/BearPi_LiteOS/components/security/mbedtls/mbedtls-2.6.0/library\bignum.c ****     mbedtls_mpi T;
 217:C:/Users/lenovo/Desktop/liteos/Project2/BearPi_LiteOS/components/security/mbedtls/mbedtls-2.6.0/library\bignum.c **** 
 218:C:/Users/lenovo/Desktop/liteos/Project2/BearPi_LiteOS/components/security/mbedtls/mbedtls-2.6.0/library\bignum.c ****     memcpy( &T,  X, sizeof( mbedtls_mpi ) );
 219:C:/Users/lenovo/Desktop/liteos/Project2/BearPi_LiteOS/components/security/mbedtls/mbedtls-2.6.0/library\bignum.c ****     memcpy(  X,  Y, sizeof( mbedtls_mpi ) );
 220:C:/Users/lenovo/Desktop/liteos/Project2/BearPi_LiteOS/components/security/mbedtls/mbedtls-2.6.0/library\bignum.c ****     memcpy(  Y, &T, sizeof( mbedtls_mpi ) );
 221:C:/Users/lenovo/Desktop/liteos/Project2/BearPi_LiteOS/components/security/mbedtls/mbedtls-2.6.0/library\bignum.c **** }
 222:C:/Users/lenovo/Desktop/liteos/Project2/BearPi_LiteOS/components/security/mbedtls/mbedtls-2.6.0/library\bignum.c **** 
 223:C:/Users/lenovo/Desktop/liteos/Project2/BearPi_LiteOS/components/security/mbedtls/mbedtls-2.6.0/library\bignum.c **** /*
 224:C:/Users/lenovo/Desktop/liteos/Project2/BearPi_LiteOS/components/security/mbedtls/mbedtls-2.6.0/library\bignum.c ****  * Conditionally assign X = Y, without leaking information
 225:C:/Users/lenovo/Desktop/liteos/Project2/BearPi_LiteOS/components/security/mbedtls/mbedtls-2.6.0/library\bignum.c ****  * about whether the assignment was made or not.
ARM GAS  c:\Users\lenovo\AppData\Local\Temp\ccjcyTZ0.s 			page 6


 226:C:/Users/lenovo/Desktop/liteos/Project2/BearPi_LiteOS/components/security/mbedtls/mbedtls-2.6.0/library\bignum.c ****  * (Leaking information about the respective sizes of X and Y is ok however.)
 227:C:/Users/lenovo/Desktop/liteos/Project2/BearPi_LiteOS/components/security/mbedtls/mbedtls-2.6.0/library\bignum.c ****  */
 228:C:/Users/lenovo/Desktop/liteos/Project2/BearPi_LiteOS/components/security/mbedtls/mbedtls-2.6.0/library\bignum.c **** int mbedtls_mpi_safe_cond_assign( mbedtls_mpi *X, const mbedtls_mpi *Y, unsigned char assign )
 229:C:/Users/lenovo/Desktop/liteos/Project2/BearPi_LiteOS/components/security/mbedtls/mbedtls-2.6.0/library\bignum.c **** {
 230:C:/Users/lenovo/Desktop/liteos/Project2/BearPi_LiteOS/components/security/mbedtls/mbedtls-2.6.0/library\bignum.c ****     int ret = 0;
 231:C:/Users/lenovo/Desktop/liteos/Project2/BearPi_LiteOS/components/security/mbedtls/mbedtls-2.6.0/library\bignum.c ****     size_t i;
 232:C:/Users/lenovo/Desktop/liteos/Project2/BearPi_LiteOS/components/security/mbedtls/mbedtls-2.6.0/library\bignum.c **** 
 233:C:/Users/lenovo/Desktop/liteos/Project2/BearPi_LiteOS/components/security/mbedtls/mbedtls-2.6.0/library\bignum.c ****     /* make sure assign is 0 or 1 in a time-constant manner */
 234:C:/Users/lenovo/Desktop/liteos/Project2/BearPi_LiteOS/components/security/mbedtls/mbedtls-2.6.0/library\bignum.c ****     assign = (assign | (unsigned char)-assign) >> 7;
 235:C:/Users/lenovo/Desktop/liteos/Project2/BearPi_LiteOS/components/security/mbedtls/mbedtls-2.6.0/library\bignum.c **** 
 236:C:/Users/lenovo/Desktop/liteos/Project2/BearPi_LiteOS/components/security/mbedtls/mbedtls-2.6.0/library\bignum.c ****     MBEDTLS_MPI_CHK( mbedtls_mpi_grow( X, Y->n ) );
 237:C:/Users/lenovo/Desktop/liteos/Project2/BearPi_LiteOS/components/security/mbedtls/mbedtls-2.6.0/library\bignum.c **** 
 238:C:/Users/lenovo/Desktop/liteos/Project2/BearPi_LiteOS/components/security/mbedtls/mbedtls-2.6.0/library\bignum.c ****     X->s = X->s * ( 1 - assign ) + Y->s * assign;
 239:C:/Users/lenovo/Desktop/liteos/Project2/BearPi_LiteOS/components/security/mbedtls/mbedtls-2.6.0/library\bignum.c **** 
 240:C:/Users/lenovo/Desktop/liteos/Project2/BearPi_LiteOS/components/security/mbedtls/mbedtls-2.6.0/library\bignum.c ****     for( i = 0; i < Y->n; i++ )
 241:C:/Users/lenovo/Desktop/liteos/Project2/BearPi_LiteOS/components/security/mbedtls/mbedtls-2.6.0/library\bignum.c ****         X->p[i] = X->p[i] * ( 1 - assign ) + Y->p[i] * assign;
 242:C:/Users/lenovo/Desktop/liteos/Project2/BearPi_LiteOS/components/security/mbedtls/mbedtls-2.6.0/library\bignum.c **** 
 243:C:/Users/lenovo/Desktop/liteos/Project2/BearPi_LiteOS/components/security/mbedtls/mbedtls-2.6.0/library\bignum.c ****     for( ; i < X->n; i++ )
 244:C:/Users/lenovo/Desktop/liteos/Project2/BearPi_LiteOS/components/security/mbedtls/mbedtls-2.6.0/library\bignum.c ****         X->p[i] *= ( 1 - assign );
 245:C:/Users/lenovo/Desktop/liteos/Project2/BearPi_LiteOS/components/security/mbedtls/mbedtls-2.6.0/library\bignum.c **** 
 246:C:/Users/lenovo/Desktop/liteos/Project2/BearPi_LiteOS/components/security/mbedtls/mbedtls-2.6.0/library\bignum.c **** cleanup:
 247:C:/Users/lenovo/Desktop/liteos/Project2/BearPi_LiteOS/components/security/mbedtls/mbedtls-2.6.0/library\bignum.c ****     return( ret );
 248:C:/Users/lenovo/Desktop/liteos/Project2/BearPi_LiteOS/components/security/mbedtls/mbedtls-2.6.0/library\bignum.c **** }
 249:C:/Users/lenovo/Desktop/liteos/Project2/BearPi_LiteOS/components/security/mbedtls/mbedtls-2.6.0/library\bignum.c **** 
 250:C:/Users/lenovo/Desktop/liteos/Project2/BearPi_LiteOS/components/security/mbedtls/mbedtls-2.6.0/library\bignum.c **** /*
 251:C:/Users/lenovo/Desktop/liteos/Project2/BearPi_LiteOS/components/security/mbedtls/mbedtls-2.6.0/library\bignum.c ****  * Conditionally swap X and Y, without leaking information
 252:C:/Users/lenovo/Desktop/liteos/Project2/BearPi_LiteOS/components/security/mbedtls/mbedtls-2.6.0/library\bignum.c ****  * about whether the swap was made or not.
 253:C:/Users/lenovo/Desktop/liteos/Project2/BearPi_LiteOS/components/security/mbedtls/mbedtls-2.6.0/library\bignum.c ****  * Here it is not ok to simply swap the pointers, which whould lead to
 254:C:/Users/lenovo/Desktop/liteos/Project2/BearPi_LiteOS/components/security/mbedtls/mbedtls-2.6.0/library\bignum.c ****  * different memory access patterns when X and Y are used afterwards.
 255:C:/Users/lenovo/Desktop/liteos/Project2/BearPi_LiteOS/components/security/mbedtls/mbedtls-2.6.0/library\bignum.c ****  */
 256:C:/Users/lenovo/Desktop/liteos/Project2/BearPi_LiteOS/components/security/mbedtls/mbedtls-2.6.0/library\bignum.c **** int mbedtls_mpi_safe_cond_swap( mbedtls_mpi *X, mbedtls_mpi *Y, unsigned char swap )
 257:C:/Users/lenovo/Desktop/liteos/Project2/BearPi_LiteOS/components/security/mbedtls/mbedtls-2.6.0/library\bignum.c **** {
 258:C:/Users/lenovo/Desktop/liteos/Project2/BearPi_LiteOS/components/security/mbedtls/mbedtls-2.6.0/library\bignum.c ****     int ret, s;
 259:C:/Users/lenovo/Desktop/liteos/Project2/BearPi_LiteOS/components/security/mbedtls/mbedtls-2.6.0/library\bignum.c ****     size_t i;
 260:C:/Users/lenovo/Desktop/liteos/Project2/BearPi_LiteOS/components/security/mbedtls/mbedtls-2.6.0/library\bignum.c ****     mbedtls_mpi_uint tmp;
 261:C:/Users/lenovo/Desktop/liteos/Project2/BearPi_LiteOS/components/security/mbedtls/mbedtls-2.6.0/library\bignum.c **** 
 262:C:/Users/lenovo/Desktop/liteos/Project2/BearPi_LiteOS/components/security/mbedtls/mbedtls-2.6.0/library\bignum.c ****     if( X == Y )
 263:C:/Users/lenovo/Desktop/liteos/Project2/BearPi_LiteOS/components/security/mbedtls/mbedtls-2.6.0/library\bignum.c ****         return( 0 );
 264:C:/Users/lenovo/Desktop/liteos/Project2/BearPi_LiteOS/components/security/mbedtls/mbedtls-2.6.0/library\bignum.c **** 
 265:C:/Users/lenovo/Desktop/liteos/Project2/BearPi_LiteOS/components/security/mbedtls/mbedtls-2.6.0/library\bignum.c ****     /* make sure swap is 0 or 1 in a time-constant manner */
 266:C:/Users/lenovo/Desktop/liteos/Project2/BearPi_LiteOS/components/security/mbedtls/mbedtls-2.6.0/library\bignum.c ****     swap = (swap | (unsigned char)-swap) >> 7;
 267:C:/Users/lenovo/Desktop/liteos/Project2/BearPi_LiteOS/components/security/mbedtls/mbedtls-2.6.0/library\bignum.c **** 
 268:C:/Users/lenovo/Desktop/liteos/Project2/BearPi_LiteOS/components/security/mbedtls/mbedtls-2.6.0/library\bignum.c ****     MBEDTLS_MPI_CHK( mbedtls_mpi_grow( X, Y->n ) );
 269:C:/Users/lenovo/Desktop/liteos/Project2/BearPi_LiteOS/components/security/mbedtls/mbedtls-2.6.0/library\bignum.c ****     MBEDTLS_MPI_CHK( mbedtls_mpi_grow( Y, X->n ) );
 270:C:/Users/lenovo/Desktop/liteos/Project2/BearPi_LiteOS/components/security/mbedtls/mbedtls-2.6.0/library\bignum.c **** 
 271:C:/Users/lenovo/Desktop/liteos/Project2/BearPi_LiteOS/components/security/mbedtls/mbedtls-2.6.0/library\bignum.c ****     s = X->s;
 272:C:/Users/lenovo/Desktop/liteos/Project2/BearPi_LiteOS/components/security/mbedtls/mbedtls-2.6.0/library\bignum.c ****     X->s = X->s * ( 1 - swap ) + Y->s * swap;
 273:C:/Users/lenovo/Desktop/liteos/Project2/BearPi_LiteOS/components/security/mbedtls/mbedtls-2.6.0/library\bignum.c ****     Y->s = Y->s * ( 1 - swap ) +    s * swap;
 274:C:/Users/lenovo/Desktop/liteos/Project2/BearPi_LiteOS/components/security/mbedtls/mbedtls-2.6.0/library\bignum.c **** 
 275:C:/Users/lenovo/Desktop/liteos/Project2/BearPi_LiteOS/components/security/mbedtls/mbedtls-2.6.0/library\bignum.c **** 
 276:C:/Users/lenovo/Desktop/liteos/Project2/BearPi_LiteOS/components/security/mbedtls/mbedtls-2.6.0/library\bignum.c ****     for( i = 0; i < X->n; i++ )
 277:C:/Users/lenovo/Desktop/liteos/Project2/BearPi_LiteOS/components/security/mbedtls/mbedtls-2.6.0/library\bignum.c ****     {
 278:C:/Users/lenovo/Desktop/liteos/Project2/BearPi_LiteOS/components/security/mbedtls/mbedtls-2.6.0/library\bignum.c ****         tmp = X->p[i];
 279:C:/Users/lenovo/Desktop/liteos/Project2/BearPi_LiteOS/components/security/mbedtls/mbedtls-2.6.0/library\bignum.c ****         X->p[i] = X->p[i] * ( 1 - swap ) + Y->p[i] * swap;
 280:C:/Users/lenovo/Desktop/liteos/Project2/BearPi_LiteOS/components/security/mbedtls/mbedtls-2.6.0/library\bignum.c ****         Y->p[i] = Y->p[i] * ( 1 - swap ) +     tmp * swap;
 281:C:/Users/lenovo/Desktop/liteos/Project2/BearPi_LiteOS/components/security/mbedtls/mbedtls-2.6.0/library\bignum.c ****     }
 282:C:/Users/lenovo/Desktop/liteos/Project2/BearPi_LiteOS/components/security/mbedtls/mbedtls-2.6.0/library\bignum.c **** 
ARM GAS  c:\Users\lenovo\AppData\Local\Temp\ccjcyTZ0.s 			page 7


 283:C:/Users/lenovo/Desktop/liteos/Project2/BearPi_LiteOS/components/security/mbedtls/mbedtls-2.6.0/library\bignum.c **** cleanup:
 284:C:/Users/lenovo/Desktop/liteos/Project2/BearPi_LiteOS/components/security/mbedtls/mbedtls-2.6.0/library\bignum.c ****     return( ret );
 285:C:/Users/lenovo/Desktop/liteos/Project2/BearPi_LiteOS/components/security/mbedtls/mbedtls-2.6.0/library\bignum.c **** }
 286:C:/Users/lenovo/Desktop/liteos/Project2/BearPi_LiteOS/components/security/mbedtls/mbedtls-2.6.0/library\bignum.c **** 
 287:C:/Users/lenovo/Desktop/liteos/Project2/BearPi_LiteOS/components/security/mbedtls/mbedtls-2.6.0/library\bignum.c **** /*
 288:C:/Users/lenovo/Desktop/liteos/Project2/BearPi_LiteOS/components/security/mbedtls/mbedtls-2.6.0/library\bignum.c ****  * Set value from integer
 289:C:/Users/lenovo/Desktop/liteos/Project2/BearPi_LiteOS/components/security/mbedtls/mbedtls-2.6.0/library\bignum.c ****  */
 290:C:/Users/lenovo/Desktop/liteos/Project2/BearPi_LiteOS/components/security/mbedtls/mbedtls-2.6.0/library\bignum.c **** int mbedtls_mpi_lset( mbedtls_mpi *X, mbedtls_mpi_sint z )
 291:C:/Users/lenovo/Desktop/liteos/Project2/BearPi_LiteOS/components/security/mbedtls/mbedtls-2.6.0/library\bignum.c **** {
 292:C:/Users/lenovo/Desktop/liteos/Project2/BearPi_LiteOS/components/security/mbedtls/mbedtls-2.6.0/library\bignum.c ****     int ret;
 293:C:/Users/lenovo/Desktop/liteos/Project2/BearPi_LiteOS/components/security/mbedtls/mbedtls-2.6.0/library\bignum.c **** 
 294:C:/Users/lenovo/Desktop/liteos/Project2/BearPi_LiteOS/components/security/mbedtls/mbedtls-2.6.0/library\bignum.c ****     MBEDTLS_MPI_CHK( mbedtls_mpi_grow( X, 1 ) );
 295:C:/Users/lenovo/Desktop/liteos/Project2/BearPi_LiteOS/components/security/mbedtls/mbedtls-2.6.0/library\bignum.c ****     memset( X->p, 0, X->n * ciL );
 296:C:/Users/lenovo/Desktop/liteos/Project2/BearPi_LiteOS/components/security/mbedtls/mbedtls-2.6.0/library\bignum.c **** 
 297:C:/Users/lenovo/Desktop/liteos/Project2/BearPi_LiteOS/components/security/mbedtls/mbedtls-2.6.0/library\bignum.c ****     X->p[0] = ( z < 0 ) ? -z : z;
 298:C:/Users/lenovo/Desktop/liteos/Project2/BearPi_LiteOS/components/security/mbedtls/mbedtls-2.6.0/library\bignum.c ****     X->s    = ( z < 0 ) ? -1 : 1;
 299:C:/Users/lenovo/Desktop/liteos/Project2/BearPi_LiteOS/components/security/mbedtls/mbedtls-2.6.0/library\bignum.c **** 
 300:C:/Users/lenovo/Desktop/liteos/Project2/BearPi_LiteOS/components/security/mbedtls/mbedtls-2.6.0/library\bignum.c **** cleanup:
 301:C:/Users/lenovo/Desktop/liteos/Project2/BearPi_LiteOS/components/security/mbedtls/mbedtls-2.6.0/library\bignum.c **** 
 302:C:/Users/lenovo/Desktop/liteos/Project2/BearPi_LiteOS/components/security/mbedtls/mbedtls-2.6.0/library\bignum.c ****     return( ret );
 303:C:/Users/lenovo/Desktop/liteos/Project2/BearPi_LiteOS/components/security/mbedtls/mbedtls-2.6.0/library\bignum.c **** }
 304:C:/Users/lenovo/Desktop/liteos/Project2/BearPi_LiteOS/components/security/mbedtls/mbedtls-2.6.0/library\bignum.c **** 
 305:C:/Users/lenovo/Desktop/liteos/Project2/BearPi_LiteOS/components/security/mbedtls/mbedtls-2.6.0/library\bignum.c **** /*
 306:C:/Users/lenovo/Desktop/liteos/Project2/BearPi_LiteOS/components/security/mbedtls/mbedtls-2.6.0/library\bignum.c ****  * Get a specific bit
 307:C:/Users/lenovo/Desktop/liteos/Project2/BearPi_LiteOS/components/security/mbedtls/mbedtls-2.6.0/library\bignum.c ****  */
 308:C:/Users/lenovo/Desktop/liteos/Project2/BearPi_LiteOS/components/security/mbedtls/mbedtls-2.6.0/library\bignum.c **** int mbedtls_mpi_get_bit( const mbedtls_mpi *X, size_t pos )
 309:C:/Users/lenovo/Desktop/liteos/Project2/BearPi_LiteOS/components/security/mbedtls/mbedtls-2.6.0/library\bignum.c **** {
 310:C:/Users/lenovo/Desktop/liteos/Project2/BearPi_LiteOS/components/security/mbedtls/mbedtls-2.6.0/library\bignum.c ****     if( X->n * biL <= pos )
 311:C:/Users/lenovo/Desktop/liteos/Project2/BearPi_LiteOS/components/security/mbedtls/mbedtls-2.6.0/library\bignum.c ****         return( 0 );
 312:C:/Users/lenovo/Desktop/liteos/Project2/BearPi_LiteOS/components/security/mbedtls/mbedtls-2.6.0/library\bignum.c **** 
 313:C:/Users/lenovo/Desktop/liteos/Project2/BearPi_LiteOS/components/security/mbedtls/mbedtls-2.6.0/library\bignum.c ****     return( ( X->p[pos / biL] >> ( pos % biL ) ) & 0x01 );
 314:C:/Users/lenovo/Desktop/liteos/Project2/BearPi_LiteOS/components/security/mbedtls/mbedtls-2.6.0/library\bignum.c **** }
 315:C:/Users/lenovo/Desktop/liteos/Project2/BearPi_LiteOS/components/security/mbedtls/mbedtls-2.6.0/library\bignum.c **** 
 316:C:/Users/lenovo/Desktop/liteos/Project2/BearPi_LiteOS/components/security/mbedtls/mbedtls-2.6.0/library\bignum.c **** /*
 317:C:/Users/lenovo/Desktop/liteos/Project2/BearPi_LiteOS/components/security/mbedtls/mbedtls-2.6.0/library\bignum.c ****  * Set a bit to a specific value of 0 or 1
 318:C:/Users/lenovo/Desktop/liteos/Project2/BearPi_LiteOS/components/security/mbedtls/mbedtls-2.6.0/library\bignum.c ****  */
 319:C:/Users/lenovo/Desktop/liteos/Project2/BearPi_LiteOS/components/security/mbedtls/mbedtls-2.6.0/library\bignum.c **** int mbedtls_mpi_set_bit( mbedtls_mpi *X, size_t pos, unsigned char val )
 320:C:/Users/lenovo/Desktop/liteos/Project2/BearPi_LiteOS/components/security/mbedtls/mbedtls-2.6.0/library\bignum.c **** {
 321:C:/Users/lenovo/Desktop/liteos/Project2/BearPi_LiteOS/components/security/mbedtls/mbedtls-2.6.0/library\bignum.c ****     int ret = 0;
 322:C:/Users/lenovo/Desktop/liteos/Project2/BearPi_LiteOS/components/security/mbedtls/mbedtls-2.6.0/library\bignum.c ****     size_t off = pos / biL;
 323:C:/Users/lenovo/Desktop/liteos/Project2/BearPi_LiteOS/components/security/mbedtls/mbedtls-2.6.0/library\bignum.c ****     size_t idx = pos % biL;
 324:C:/Users/lenovo/Desktop/liteos/Project2/BearPi_LiteOS/components/security/mbedtls/mbedtls-2.6.0/library\bignum.c **** 
 325:C:/Users/lenovo/Desktop/liteos/Project2/BearPi_LiteOS/components/security/mbedtls/mbedtls-2.6.0/library\bignum.c ****     if( val != 0 && val != 1 )
 326:C:/Users/lenovo/Desktop/liteos/Project2/BearPi_LiteOS/components/security/mbedtls/mbedtls-2.6.0/library\bignum.c ****         return( MBEDTLS_ERR_MPI_BAD_INPUT_DATA );
 327:C:/Users/lenovo/Desktop/liteos/Project2/BearPi_LiteOS/components/security/mbedtls/mbedtls-2.6.0/library\bignum.c **** 
 328:C:/Users/lenovo/Desktop/liteos/Project2/BearPi_LiteOS/components/security/mbedtls/mbedtls-2.6.0/library\bignum.c ****     if( X->n * biL <= pos )
 329:C:/Users/lenovo/Desktop/liteos/Project2/BearPi_LiteOS/components/security/mbedtls/mbedtls-2.6.0/library\bignum.c ****     {
 330:C:/Users/lenovo/Desktop/liteos/Project2/BearPi_LiteOS/components/security/mbedtls/mbedtls-2.6.0/library\bignum.c ****         if( val == 0 )
 331:C:/Users/lenovo/Desktop/liteos/Project2/BearPi_LiteOS/components/security/mbedtls/mbedtls-2.6.0/library\bignum.c ****             return( 0 );
 332:C:/Users/lenovo/Desktop/liteos/Project2/BearPi_LiteOS/components/security/mbedtls/mbedtls-2.6.0/library\bignum.c **** 
 333:C:/Users/lenovo/Desktop/liteos/Project2/BearPi_LiteOS/components/security/mbedtls/mbedtls-2.6.0/library\bignum.c ****         MBEDTLS_MPI_CHK( mbedtls_mpi_grow( X, off + 1 ) );
 334:C:/Users/lenovo/Desktop/liteos/Project2/BearPi_LiteOS/components/security/mbedtls/mbedtls-2.6.0/library\bignum.c ****     }
 335:C:/Users/lenovo/Desktop/liteos/Project2/BearPi_LiteOS/components/security/mbedtls/mbedtls-2.6.0/library\bignum.c **** 
 336:C:/Users/lenovo/Desktop/liteos/Project2/BearPi_LiteOS/components/security/mbedtls/mbedtls-2.6.0/library\bignum.c ****     X->p[off] &= ~( (mbedtls_mpi_uint) 0x01 << idx );
 337:C:/Users/lenovo/Desktop/liteos/Project2/BearPi_LiteOS/components/security/mbedtls/mbedtls-2.6.0/library\bignum.c ****     X->p[off] |= (mbedtls_mpi_uint) val << idx;
 338:C:/Users/lenovo/Desktop/liteos/Project2/BearPi_LiteOS/components/security/mbedtls/mbedtls-2.6.0/library\bignum.c **** 
 339:C:/Users/lenovo/Desktop/liteos/Project2/BearPi_LiteOS/components/security/mbedtls/mbedtls-2.6.0/library\bignum.c **** cleanup:
ARM GAS  c:\Users\lenovo\AppData\Local\Temp\ccjcyTZ0.s 			page 8


 340:C:/Users/lenovo/Desktop/liteos/Project2/BearPi_LiteOS/components/security/mbedtls/mbedtls-2.6.0/library\bignum.c **** 
 341:C:/Users/lenovo/Desktop/liteos/Project2/BearPi_LiteOS/components/security/mbedtls/mbedtls-2.6.0/library\bignum.c ****     return( ret );
 342:C:/Users/lenovo/Desktop/liteos/Project2/BearPi_LiteOS/components/security/mbedtls/mbedtls-2.6.0/library\bignum.c **** }
 343:C:/Users/lenovo/Desktop/liteos/Project2/BearPi_LiteOS/components/security/mbedtls/mbedtls-2.6.0/library\bignum.c **** 
 344:C:/Users/lenovo/Desktop/liteos/Project2/BearPi_LiteOS/components/security/mbedtls/mbedtls-2.6.0/library\bignum.c **** /*
 345:C:/Users/lenovo/Desktop/liteos/Project2/BearPi_LiteOS/components/security/mbedtls/mbedtls-2.6.0/library\bignum.c ****  * Return the number of less significant zero-bits
 346:C:/Users/lenovo/Desktop/liteos/Project2/BearPi_LiteOS/components/security/mbedtls/mbedtls-2.6.0/library\bignum.c ****  */
 347:C:/Users/lenovo/Desktop/liteos/Project2/BearPi_LiteOS/components/security/mbedtls/mbedtls-2.6.0/library\bignum.c **** size_t mbedtls_mpi_lsb( const mbedtls_mpi *X )
 348:C:/Users/lenovo/Desktop/liteos/Project2/BearPi_LiteOS/components/security/mbedtls/mbedtls-2.6.0/library\bignum.c **** {
 349:C:/Users/lenovo/Desktop/liteos/Project2/BearPi_LiteOS/components/security/mbedtls/mbedtls-2.6.0/library\bignum.c ****     size_t i, j, count = 0;
 350:C:/Users/lenovo/Desktop/liteos/Project2/BearPi_LiteOS/components/security/mbedtls/mbedtls-2.6.0/library\bignum.c **** 
 351:C:/Users/lenovo/Desktop/liteos/Project2/BearPi_LiteOS/components/security/mbedtls/mbedtls-2.6.0/library\bignum.c ****     for( i = 0; i < X->n; i++ )
 352:C:/Users/lenovo/Desktop/liteos/Project2/BearPi_LiteOS/components/security/mbedtls/mbedtls-2.6.0/library\bignum.c ****         for( j = 0; j < biL; j++, count++ )
 353:C:/Users/lenovo/Desktop/liteos/Project2/BearPi_LiteOS/components/security/mbedtls/mbedtls-2.6.0/library\bignum.c ****             if( ( ( X->p[i] >> j ) & 1 ) != 0 )
 354:C:/Users/lenovo/Desktop/liteos/Project2/BearPi_LiteOS/components/security/mbedtls/mbedtls-2.6.0/library\bignum.c ****                 return( count );
 355:C:/Users/lenovo/Desktop/liteos/Project2/BearPi_LiteOS/components/security/mbedtls/mbedtls-2.6.0/library\bignum.c **** 
 356:C:/Users/lenovo/Desktop/liteos/Project2/BearPi_LiteOS/components/security/mbedtls/mbedtls-2.6.0/library\bignum.c ****     return( 0 );
 357:C:/Users/lenovo/Desktop/liteos/Project2/BearPi_LiteOS/components/security/mbedtls/mbedtls-2.6.0/library\bignum.c **** }
 358:C:/Users/lenovo/Desktop/liteos/Project2/BearPi_LiteOS/components/security/mbedtls/mbedtls-2.6.0/library\bignum.c **** 
 359:C:/Users/lenovo/Desktop/liteos/Project2/BearPi_LiteOS/components/security/mbedtls/mbedtls-2.6.0/library\bignum.c **** /*
 360:C:/Users/lenovo/Desktop/liteos/Project2/BearPi_LiteOS/components/security/mbedtls/mbedtls-2.6.0/library\bignum.c ****  * Count leading zero bits in a given integer
 361:C:/Users/lenovo/Desktop/liteos/Project2/BearPi_LiteOS/components/security/mbedtls/mbedtls-2.6.0/library\bignum.c ****  */
 362:C:/Users/lenovo/Desktop/liteos/Project2/BearPi_LiteOS/components/security/mbedtls/mbedtls-2.6.0/library\bignum.c **** static size_t mbedtls_clz( const mbedtls_mpi_uint x )
 363:C:/Users/lenovo/Desktop/liteos/Project2/BearPi_LiteOS/components/security/mbedtls/mbedtls-2.6.0/library\bignum.c **** {
  64              		.loc 1 363 0
  65              		.cfi_startproc
  66              		@ args = 0, pretend = 0, frame = 0
  67              		@ frame_needed = 0, uses_anonymous_args = 0
  68              		@ link register save eliminated.
  69              	.LVL5:
 364:C:/Users/lenovo/Desktop/liteos/Project2/BearPi_LiteOS/components/security/mbedtls/mbedtls-2.6.0/library\bignum.c ****     size_t j;
 365:C:/Users/lenovo/Desktop/liteos/Project2/BearPi_LiteOS/components/security/mbedtls/mbedtls-2.6.0/library\bignum.c ****     mbedtls_mpi_uint mask = (mbedtls_mpi_uint) 1 << (biL - 1);
  70              		.loc 1 365 0
  71 0000 4FF00042 		mov	r2, #-2147483648
 366:C:/Users/lenovo/Desktop/liteos/Project2/BearPi_LiteOS/components/security/mbedtls/mbedtls-2.6.0/library\bignum.c **** 
 367:C:/Users/lenovo/Desktop/liteos/Project2/BearPi_LiteOS/components/security/mbedtls/mbedtls-2.6.0/library\bignum.c ****     for( j = 0; j < biL; j++ )
  72              		.loc 1 367 0
  73 0004 0023     		movs	r3, #0
  74              	.LVL6:
  75              	.L5:
  76              		.loc 1 367 0 is_stmt 0 discriminator 1
  77 0006 1F2B     		cmp	r3, #31
  78 0008 04D8     		bhi	.L4
 368:C:/Users/lenovo/Desktop/liteos/Project2/BearPi_LiteOS/components/security/mbedtls/mbedtls-2.6.0/library\bignum.c ****     {
 369:C:/Users/lenovo/Desktop/liteos/Project2/BearPi_LiteOS/components/security/mbedtls/mbedtls-2.6.0/library\bignum.c ****         if( x & mask ) break;
  79              		.loc 1 369 0 is_stmt 1
  80 000a 0242     		tst	r2, r0
  81 000c 02D1     		bne	.L4
 370:C:/Users/lenovo/Desktop/liteos/Project2/BearPi_LiteOS/components/security/mbedtls/mbedtls-2.6.0/library\bignum.c **** 
 371:C:/Users/lenovo/Desktop/liteos/Project2/BearPi_LiteOS/components/security/mbedtls/mbedtls-2.6.0/library\bignum.c ****         mask >>= 1;
  82              		.loc 1 371 0 discriminator 2
  83 000e 5208     		lsrs	r2, r2, #1
  84              	.LVL7:
 367:C:/Users/lenovo/Desktop/liteos/Project2/BearPi_LiteOS/components/security/mbedtls/mbedtls-2.6.0/library\bignum.c ****     {
  85              		.loc 1 367 0 discriminator 2
  86 0010 0133     		adds	r3, r3, #1
  87              	.LVL8:
ARM GAS  c:\Users\lenovo\AppData\Local\Temp\ccjcyTZ0.s 			page 9


  88 0012 F8E7     		b	.L5
  89              	.L4:
 372:C:/Users/lenovo/Desktop/liteos/Project2/BearPi_LiteOS/components/security/mbedtls/mbedtls-2.6.0/library\bignum.c ****     }
 373:C:/Users/lenovo/Desktop/liteos/Project2/BearPi_LiteOS/components/security/mbedtls/mbedtls-2.6.0/library\bignum.c **** 
 374:C:/Users/lenovo/Desktop/liteos/Project2/BearPi_LiteOS/components/security/mbedtls/mbedtls-2.6.0/library\bignum.c ****     return j;
 375:C:/Users/lenovo/Desktop/liteos/Project2/BearPi_LiteOS/components/security/mbedtls/mbedtls-2.6.0/library\bignum.c **** }
  90              		.loc 1 375 0
  91 0014 1846     		mov	r0, r3
  92              	.LVL9:
  93 0016 7047     		bx	lr
  94              		.cfi_endproc
  95              	.LFE16:
  97              		.section	.text.mpi_get_digit,"ax",%progbits
  98              		.align	1
  99              		.syntax unified
 100              		.thumb
 101              		.thumb_func
 102              		.fpu fpv4-sp-d16
 104              	mpi_get_digit:
 105              	.LFB19:
 376:C:/Users/lenovo/Desktop/liteos/Project2/BearPi_LiteOS/components/security/mbedtls/mbedtls-2.6.0/library\bignum.c **** 
 377:C:/Users/lenovo/Desktop/liteos/Project2/BearPi_LiteOS/components/security/mbedtls/mbedtls-2.6.0/library\bignum.c **** /*
 378:C:/Users/lenovo/Desktop/liteos/Project2/BearPi_LiteOS/components/security/mbedtls/mbedtls-2.6.0/library\bignum.c ****  * Return the number of bits
 379:C:/Users/lenovo/Desktop/liteos/Project2/BearPi_LiteOS/components/security/mbedtls/mbedtls-2.6.0/library\bignum.c ****  */
 380:C:/Users/lenovo/Desktop/liteos/Project2/BearPi_LiteOS/components/security/mbedtls/mbedtls-2.6.0/library\bignum.c **** size_t mbedtls_mpi_bitlen( const mbedtls_mpi *X )
 381:C:/Users/lenovo/Desktop/liteos/Project2/BearPi_LiteOS/components/security/mbedtls/mbedtls-2.6.0/library\bignum.c **** {
 382:C:/Users/lenovo/Desktop/liteos/Project2/BearPi_LiteOS/components/security/mbedtls/mbedtls-2.6.0/library\bignum.c ****     size_t i, j;
 383:C:/Users/lenovo/Desktop/liteos/Project2/BearPi_LiteOS/components/security/mbedtls/mbedtls-2.6.0/library\bignum.c **** 
 384:C:/Users/lenovo/Desktop/liteos/Project2/BearPi_LiteOS/components/security/mbedtls/mbedtls-2.6.0/library\bignum.c ****     if( X->n == 0 )
 385:C:/Users/lenovo/Desktop/liteos/Project2/BearPi_LiteOS/components/security/mbedtls/mbedtls-2.6.0/library\bignum.c ****         return( 0 );
 386:C:/Users/lenovo/Desktop/liteos/Project2/BearPi_LiteOS/components/security/mbedtls/mbedtls-2.6.0/library\bignum.c **** 
 387:C:/Users/lenovo/Desktop/liteos/Project2/BearPi_LiteOS/components/security/mbedtls/mbedtls-2.6.0/library\bignum.c ****     for( i = X->n - 1; i > 0; i-- )
 388:C:/Users/lenovo/Desktop/liteos/Project2/BearPi_LiteOS/components/security/mbedtls/mbedtls-2.6.0/library\bignum.c ****         if( X->p[i] != 0 )
 389:C:/Users/lenovo/Desktop/liteos/Project2/BearPi_LiteOS/components/security/mbedtls/mbedtls-2.6.0/library\bignum.c ****             break;
 390:C:/Users/lenovo/Desktop/liteos/Project2/BearPi_LiteOS/components/security/mbedtls/mbedtls-2.6.0/library\bignum.c **** 
 391:C:/Users/lenovo/Desktop/liteos/Project2/BearPi_LiteOS/components/security/mbedtls/mbedtls-2.6.0/library\bignum.c ****     j = biL - mbedtls_clz( X->p[i] );
 392:C:/Users/lenovo/Desktop/liteos/Project2/BearPi_LiteOS/components/security/mbedtls/mbedtls-2.6.0/library\bignum.c **** 
 393:C:/Users/lenovo/Desktop/liteos/Project2/BearPi_LiteOS/components/security/mbedtls/mbedtls-2.6.0/library\bignum.c ****     return( ( i * biL ) + j );
 394:C:/Users/lenovo/Desktop/liteos/Project2/BearPi_LiteOS/components/security/mbedtls/mbedtls-2.6.0/library\bignum.c **** }
 395:C:/Users/lenovo/Desktop/liteos/Project2/BearPi_LiteOS/components/security/mbedtls/mbedtls-2.6.0/library\bignum.c **** 
 396:C:/Users/lenovo/Desktop/liteos/Project2/BearPi_LiteOS/components/security/mbedtls/mbedtls-2.6.0/library\bignum.c **** /*
 397:C:/Users/lenovo/Desktop/liteos/Project2/BearPi_LiteOS/components/security/mbedtls/mbedtls-2.6.0/library\bignum.c ****  * Return the total size in bytes
 398:C:/Users/lenovo/Desktop/liteos/Project2/BearPi_LiteOS/components/security/mbedtls/mbedtls-2.6.0/library\bignum.c ****  */
 399:C:/Users/lenovo/Desktop/liteos/Project2/BearPi_LiteOS/components/security/mbedtls/mbedtls-2.6.0/library\bignum.c **** size_t mbedtls_mpi_size( const mbedtls_mpi *X )
 400:C:/Users/lenovo/Desktop/liteos/Project2/BearPi_LiteOS/components/security/mbedtls/mbedtls-2.6.0/library\bignum.c **** {
 401:C:/Users/lenovo/Desktop/liteos/Project2/BearPi_LiteOS/components/security/mbedtls/mbedtls-2.6.0/library\bignum.c ****     return( ( mbedtls_mpi_bitlen( X ) + 7 ) >> 3 );
 402:C:/Users/lenovo/Desktop/liteos/Project2/BearPi_LiteOS/components/security/mbedtls/mbedtls-2.6.0/library\bignum.c **** }
 403:C:/Users/lenovo/Desktop/liteos/Project2/BearPi_LiteOS/components/security/mbedtls/mbedtls-2.6.0/library\bignum.c **** 
 404:C:/Users/lenovo/Desktop/liteos/Project2/BearPi_LiteOS/components/security/mbedtls/mbedtls-2.6.0/library\bignum.c **** /*
 405:C:/Users/lenovo/Desktop/liteos/Project2/BearPi_LiteOS/components/security/mbedtls/mbedtls-2.6.0/library\bignum.c ****  * Convert an ASCII character to digit value
 406:C:/Users/lenovo/Desktop/liteos/Project2/BearPi_LiteOS/components/security/mbedtls/mbedtls-2.6.0/library\bignum.c ****  */
 407:C:/Users/lenovo/Desktop/liteos/Project2/BearPi_LiteOS/components/security/mbedtls/mbedtls-2.6.0/library\bignum.c **** static int mpi_get_digit( mbedtls_mpi_uint *d, int radix, char c )
 408:C:/Users/lenovo/Desktop/liteos/Project2/BearPi_LiteOS/components/security/mbedtls/mbedtls-2.6.0/library\bignum.c **** {
 106              		.loc 1 408 0
 107              		.cfi_startproc
 108              		@ args = 0, pretend = 0, frame = 0
 109              		@ frame_needed = 0, uses_anonymous_args = 0
ARM GAS  c:\Users\lenovo\AppData\Local\Temp\ccjcyTZ0.s 			page 10


 110              		@ link register save eliminated.
 111              	.LVL10:
 409:C:/Users/lenovo/Desktop/liteos/Project2/BearPi_LiteOS/components/security/mbedtls/mbedtls-2.6.0/library\bignum.c ****     *d = 255;
 112              		.loc 1 409 0
 113 0000 FF23     		movs	r3, #255
 114 0002 0360     		str	r3, [r0]
 410:C:/Users/lenovo/Desktop/liteos/Project2/BearPi_LiteOS/components/security/mbedtls/mbedtls-2.6.0/library\bignum.c **** 
 411:C:/Users/lenovo/Desktop/liteos/Project2/BearPi_LiteOS/components/security/mbedtls/mbedtls-2.6.0/library\bignum.c ****     if( c >= 0x30 && c <= 0x39 ) *d = c - 0x30;
 115              		.loc 1 411 0
 116 0004 A2F13003 		sub	r3, r2, #48
 117 0008 DBB2     		uxtb	r3, r3
 118 000a 092B     		cmp	r3, #9
 119 000c 02D8     		bhi	.L9
 120              		.loc 1 411 0 is_stmt 0 discriminator 1
 121 000e A2F13003 		sub	r3, r2, #48
 122 0012 0360     		str	r3, [r0]
 123              	.L9:
 412:C:/Users/lenovo/Desktop/liteos/Project2/BearPi_LiteOS/components/security/mbedtls/mbedtls-2.6.0/library\bignum.c ****     if( c >= 0x41 && c <= 0x46 ) *d = c - 0x37;
 124              		.loc 1 412 0 is_stmt 1
 125 0014 A2F14103 		sub	r3, r2, #65
 126 0018 DBB2     		uxtb	r3, r3
 127 001a 052B     		cmp	r3, #5
 128 001c 02D8     		bhi	.L10
 129              		.loc 1 412 0 is_stmt 0 discriminator 1
 130 001e A2F13703 		sub	r3, r2, #55
 131 0022 0360     		str	r3, [r0]
 132              	.L10:
 413:C:/Users/lenovo/Desktop/liteos/Project2/BearPi_LiteOS/components/security/mbedtls/mbedtls-2.6.0/library\bignum.c ****     if( c >= 0x61 && c <= 0x66 ) *d = c - 0x57;
 133              		.loc 1 413 0 is_stmt 1
 134 0024 A2F16103 		sub	r3, r2, #97
 135 0028 DBB2     		uxtb	r3, r3
 136 002a 052B     		cmp	r3, #5
 137 002c 01D8     		bhi	.L11
 138              		.loc 1 413 0 is_stmt 0 discriminator 1
 139 002e 573A     		subs	r2, r2, #87
 140              	.LVL11:
 141 0030 0260     		str	r2, [r0]
 142              	.L11:
 414:C:/Users/lenovo/Desktop/liteos/Project2/BearPi_LiteOS/components/security/mbedtls/mbedtls-2.6.0/library\bignum.c **** 
 415:C:/Users/lenovo/Desktop/liteos/Project2/BearPi_LiteOS/components/security/mbedtls/mbedtls-2.6.0/library\bignum.c ****     if( *d >= (mbedtls_mpi_uint) radix )
 143              		.loc 1 415 0 is_stmt 1
 144 0032 0368     		ldr	r3, [r0]
 145 0034 8B42     		cmp	r3, r1
 146 0036 01D2     		bcs	.L14
 416:C:/Users/lenovo/Desktop/liteos/Project2/BearPi_LiteOS/components/security/mbedtls/mbedtls-2.6.0/library\bignum.c ****         return( MBEDTLS_ERR_MPI_INVALID_CHARACTER );
 417:C:/Users/lenovo/Desktop/liteos/Project2/BearPi_LiteOS/components/security/mbedtls/mbedtls-2.6.0/library\bignum.c **** 
 418:C:/Users/lenovo/Desktop/liteos/Project2/BearPi_LiteOS/components/security/mbedtls/mbedtls-2.6.0/library\bignum.c ****     return( 0 );
 147              		.loc 1 418 0
 148 0038 0020     		movs	r0, #0
 149              	.LVL12:
 419:C:/Users/lenovo/Desktop/liteos/Project2/BearPi_LiteOS/components/security/mbedtls/mbedtls-2.6.0/library\bignum.c **** }
 150              		.loc 1 419 0
 151 003a 7047     		bx	lr
 152              	.LVL13:
 153              	.L14:
 416:C:/Users/lenovo/Desktop/liteos/Project2/BearPi_LiteOS/components/security/mbedtls/mbedtls-2.6.0/library\bignum.c ****         return( MBEDTLS_ERR_MPI_INVALID_CHARACTER );
 154              		.loc 1 416 0
ARM GAS  c:\Users\lenovo\AppData\Local\Temp\ccjcyTZ0.s 			page 11


 155 003c 6FF00500 		mvn	r0, #5
 156              	.LVL14:
 157 0040 7047     		bx	lr
 158              		.cfi_endproc
 159              	.LFE19:
 161              		.section	.text.mpi_sub_hlp,"ax",%progbits
 162              		.align	1
 163              		.syntax unified
 164              		.thumb
 165              		.thumb_func
 166              		.fpu fpv4-sp-d16
 168              	mpi_sub_hlp:
 169              	.LFB31:
 420:C:/Users/lenovo/Desktop/liteos/Project2/BearPi_LiteOS/components/security/mbedtls/mbedtls-2.6.0/library\bignum.c **** 
 421:C:/Users/lenovo/Desktop/liteos/Project2/BearPi_LiteOS/components/security/mbedtls/mbedtls-2.6.0/library\bignum.c **** /*
 422:C:/Users/lenovo/Desktop/liteos/Project2/BearPi_LiteOS/components/security/mbedtls/mbedtls-2.6.0/library\bignum.c ****  * Import from an ASCII string
 423:C:/Users/lenovo/Desktop/liteos/Project2/BearPi_LiteOS/components/security/mbedtls/mbedtls-2.6.0/library\bignum.c ****  */
 424:C:/Users/lenovo/Desktop/liteos/Project2/BearPi_LiteOS/components/security/mbedtls/mbedtls-2.6.0/library\bignum.c **** int mbedtls_mpi_read_string( mbedtls_mpi *X, int radix, const char *s )
 425:C:/Users/lenovo/Desktop/liteos/Project2/BearPi_LiteOS/components/security/mbedtls/mbedtls-2.6.0/library\bignum.c **** {
 426:C:/Users/lenovo/Desktop/liteos/Project2/BearPi_LiteOS/components/security/mbedtls/mbedtls-2.6.0/library\bignum.c ****     int ret;
 427:C:/Users/lenovo/Desktop/liteos/Project2/BearPi_LiteOS/components/security/mbedtls/mbedtls-2.6.0/library\bignum.c ****     size_t i, j, slen, n;
 428:C:/Users/lenovo/Desktop/liteos/Project2/BearPi_LiteOS/components/security/mbedtls/mbedtls-2.6.0/library\bignum.c ****     mbedtls_mpi_uint d;
 429:C:/Users/lenovo/Desktop/liteos/Project2/BearPi_LiteOS/components/security/mbedtls/mbedtls-2.6.0/library\bignum.c ****     mbedtls_mpi T;
 430:C:/Users/lenovo/Desktop/liteos/Project2/BearPi_LiteOS/components/security/mbedtls/mbedtls-2.6.0/library\bignum.c **** 
 431:C:/Users/lenovo/Desktop/liteos/Project2/BearPi_LiteOS/components/security/mbedtls/mbedtls-2.6.0/library\bignum.c ****     if( radix < 2 || radix > 16 )
 432:C:/Users/lenovo/Desktop/liteos/Project2/BearPi_LiteOS/components/security/mbedtls/mbedtls-2.6.0/library\bignum.c ****         return( MBEDTLS_ERR_MPI_BAD_INPUT_DATA );
 433:C:/Users/lenovo/Desktop/liteos/Project2/BearPi_LiteOS/components/security/mbedtls/mbedtls-2.6.0/library\bignum.c **** 
 434:C:/Users/lenovo/Desktop/liteos/Project2/BearPi_LiteOS/components/security/mbedtls/mbedtls-2.6.0/library\bignum.c ****     mbedtls_mpi_init( &T );
 435:C:/Users/lenovo/Desktop/liteos/Project2/BearPi_LiteOS/components/security/mbedtls/mbedtls-2.6.0/library\bignum.c **** 
 436:C:/Users/lenovo/Desktop/liteos/Project2/BearPi_LiteOS/components/security/mbedtls/mbedtls-2.6.0/library\bignum.c ****     slen = strlen( s );
 437:C:/Users/lenovo/Desktop/liteos/Project2/BearPi_LiteOS/components/security/mbedtls/mbedtls-2.6.0/library\bignum.c **** 
 438:C:/Users/lenovo/Desktop/liteos/Project2/BearPi_LiteOS/components/security/mbedtls/mbedtls-2.6.0/library\bignum.c ****     if( radix == 16 )
 439:C:/Users/lenovo/Desktop/liteos/Project2/BearPi_LiteOS/components/security/mbedtls/mbedtls-2.6.0/library\bignum.c ****     {
 440:C:/Users/lenovo/Desktop/liteos/Project2/BearPi_LiteOS/components/security/mbedtls/mbedtls-2.6.0/library\bignum.c ****         if( slen > MPI_SIZE_T_MAX >> 2 )
 441:C:/Users/lenovo/Desktop/liteos/Project2/BearPi_LiteOS/components/security/mbedtls/mbedtls-2.6.0/library\bignum.c ****             return( MBEDTLS_ERR_MPI_BAD_INPUT_DATA );
 442:C:/Users/lenovo/Desktop/liteos/Project2/BearPi_LiteOS/components/security/mbedtls/mbedtls-2.6.0/library\bignum.c **** 
 443:C:/Users/lenovo/Desktop/liteos/Project2/BearPi_LiteOS/components/security/mbedtls/mbedtls-2.6.0/library\bignum.c ****         n = BITS_TO_LIMBS( slen << 2 );
 444:C:/Users/lenovo/Desktop/liteos/Project2/BearPi_LiteOS/components/security/mbedtls/mbedtls-2.6.0/library\bignum.c **** 
 445:C:/Users/lenovo/Desktop/liteos/Project2/BearPi_LiteOS/components/security/mbedtls/mbedtls-2.6.0/library\bignum.c ****         MBEDTLS_MPI_CHK( mbedtls_mpi_grow( X, n ) );
 446:C:/Users/lenovo/Desktop/liteos/Project2/BearPi_LiteOS/components/security/mbedtls/mbedtls-2.6.0/library\bignum.c ****         MBEDTLS_MPI_CHK( mbedtls_mpi_lset( X, 0 ) );
 447:C:/Users/lenovo/Desktop/liteos/Project2/BearPi_LiteOS/components/security/mbedtls/mbedtls-2.6.0/library\bignum.c **** 
 448:C:/Users/lenovo/Desktop/liteos/Project2/BearPi_LiteOS/components/security/mbedtls/mbedtls-2.6.0/library\bignum.c ****         for( i = slen, j = 0; i > 0; i--, j++ )
 449:C:/Users/lenovo/Desktop/liteos/Project2/BearPi_LiteOS/components/security/mbedtls/mbedtls-2.6.0/library\bignum.c ****         {
 450:C:/Users/lenovo/Desktop/liteos/Project2/BearPi_LiteOS/components/security/mbedtls/mbedtls-2.6.0/library\bignum.c ****             if( i == 1 && s[i - 1] == '-' )
 451:C:/Users/lenovo/Desktop/liteos/Project2/BearPi_LiteOS/components/security/mbedtls/mbedtls-2.6.0/library\bignum.c ****             {
 452:C:/Users/lenovo/Desktop/liteos/Project2/BearPi_LiteOS/components/security/mbedtls/mbedtls-2.6.0/library\bignum.c ****                 X->s = -1;
 453:C:/Users/lenovo/Desktop/liteos/Project2/BearPi_LiteOS/components/security/mbedtls/mbedtls-2.6.0/library\bignum.c ****                 break;
 454:C:/Users/lenovo/Desktop/liteos/Project2/BearPi_LiteOS/components/security/mbedtls/mbedtls-2.6.0/library\bignum.c ****             }
 455:C:/Users/lenovo/Desktop/liteos/Project2/BearPi_LiteOS/components/security/mbedtls/mbedtls-2.6.0/library\bignum.c **** 
 456:C:/Users/lenovo/Desktop/liteos/Project2/BearPi_LiteOS/components/security/mbedtls/mbedtls-2.6.0/library\bignum.c ****             MBEDTLS_MPI_CHK( mpi_get_digit( &d, radix, s[i - 1] ) );
 457:C:/Users/lenovo/Desktop/liteos/Project2/BearPi_LiteOS/components/security/mbedtls/mbedtls-2.6.0/library\bignum.c ****             X->p[j / ( 2 * ciL )] |= d << ( ( j % ( 2 * ciL ) ) << 2 );
 458:C:/Users/lenovo/Desktop/liteos/Project2/BearPi_LiteOS/components/security/mbedtls/mbedtls-2.6.0/library\bignum.c ****         }
 459:C:/Users/lenovo/Desktop/liteos/Project2/BearPi_LiteOS/components/security/mbedtls/mbedtls-2.6.0/library\bignum.c ****     }
 460:C:/Users/lenovo/Desktop/liteos/Project2/BearPi_LiteOS/components/security/mbedtls/mbedtls-2.6.0/library\bignum.c ****     else
 461:C:/Users/lenovo/Desktop/liteos/Project2/BearPi_LiteOS/components/security/mbedtls/mbedtls-2.6.0/library\bignum.c ****     {
 462:C:/Users/lenovo/Desktop/liteos/Project2/BearPi_LiteOS/components/security/mbedtls/mbedtls-2.6.0/library\bignum.c ****         MBEDTLS_MPI_CHK( mbedtls_mpi_lset( X, 0 ) );
 463:C:/Users/lenovo/Desktop/liteos/Project2/BearPi_LiteOS/components/security/mbedtls/mbedtls-2.6.0/library\bignum.c **** 
ARM GAS  c:\Users\lenovo\AppData\Local\Temp\ccjcyTZ0.s 			page 12


 464:C:/Users/lenovo/Desktop/liteos/Project2/BearPi_LiteOS/components/security/mbedtls/mbedtls-2.6.0/library\bignum.c ****         for( i = 0; i < slen; i++ )
 465:C:/Users/lenovo/Desktop/liteos/Project2/BearPi_LiteOS/components/security/mbedtls/mbedtls-2.6.0/library\bignum.c ****         {
 466:C:/Users/lenovo/Desktop/liteos/Project2/BearPi_LiteOS/components/security/mbedtls/mbedtls-2.6.0/library\bignum.c ****             if( i == 0 && s[i] == '-' )
 467:C:/Users/lenovo/Desktop/liteos/Project2/BearPi_LiteOS/components/security/mbedtls/mbedtls-2.6.0/library\bignum.c ****             {
 468:C:/Users/lenovo/Desktop/liteos/Project2/BearPi_LiteOS/components/security/mbedtls/mbedtls-2.6.0/library\bignum.c ****                 X->s = -1;
 469:C:/Users/lenovo/Desktop/liteos/Project2/BearPi_LiteOS/components/security/mbedtls/mbedtls-2.6.0/library\bignum.c ****                 continue;
 470:C:/Users/lenovo/Desktop/liteos/Project2/BearPi_LiteOS/components/security/mbedtls/mbedtls-2.6.0/library\bignum.c ****             }
 471:C:/Users/lenovo/Desktop/liteos/Project2/BearPi_LiteOS/components/security/mbedtls/mbedtls-2.6.0/library\bignum.c **** 
 472:C:/Users/lenovo/Desktop/liteos/Project2/BearPi_LiteOS/components/security/mbedtls/mbedtls-2.6.0/library\bignum.c ****             MBEDTLS_MPI_CHK( mpi_get_digit( &d, radix, s[i] ) );
 473:C:/Users/lenovo/Desktop/liteos/Project2/BearPi_LiteOS/components/security/mbedtls/mbedtls-2.6.0/library\bignum.c ****             MBEDTLS_MPI_CHK( mbedtls_mpi_mul_int( &T, X, radix ) );
 474:C:/Users/lenovo/Desktop/liteos/Project2/BearPi_LiteOS/components/security/mbedtls/mbedtls-2.6.0/library\bignum.c **** 
 475:C:/Users/lenovo/Desktop/liteos/Project2/BearPi_LiteOS/components/security/mbedtls/mbedtls-2.6.0/library\bignum.c ****             if( X->s == 1 )
 476:C:/Users/lenovo/Desktop/liteos/Project2/BearPi_LiteOS/components/security/mbedtls/mbedtls-2.6.0/library\bignum.c ****             {
 477:C:/Users/lenovo/Desktop/liteos/Project2/BearPi_LiteOS/components/security/mbedtls/mbedtls-2.6.0/library\bignum.c ****                 MBEDTLS_MPI_CHK( mbedtls_mpi_add_int( X, &T, d ) );
 478:C:/Users/lenovo/Desktop/liteos/Project2/BearPi_LiteOS/components/security/mbedtls/mbedtls-2.6.0/library\bignum.c ****             }
 479:C:/Users/lenovo/Desktop/liteos/Project2/BearPi_LiteOS/components/security/mbedtls/mbedtls-2.6.0/library\bignum.c ****             else
 480:C:/Users/lenovo/Desktop/liteos/Project2/BearPi_LiteOS/components/security/mbedtls/mbedtls-2.6.0/library\bignum.c ****             {
 481:C:/Users/lenovo/Desktop/liteos/Project2/BearPi_LiteOS/components/security/mbedtls/mbedtls-2.6.0/library\bignum.c ****                 MBEDTLS_MPI_CHK( mbedtls_mpi_sub_int( X, &T, d ) );
 482:C:/Users/lenovo/Desktop/liteos/Project2/BearPi_LiteOS/components/security/mbedtls/mbedtls-2.6.0/library\bignum.c ****             }
 483:C:/Users/lenovo/Desktop/liteos/Project2/BearPi_LiteOS/components/security/mbedtls/mbedtls-2.6.0/library\bignum.c ****         }
 484:C:/Users/lenovo/Desktop/liteos/Project2/BearPi_LiteOS/components/security/mbedtls/mbedtls-2.6.0/library\bignum.c ****     }
 485:C:/Users/lenovo/Desktop/liteos/Project2/BearPi_LiteOS/components/security/mbedtls/mbedtls-2.6.0/library\bignum.c **** 
 486:C:/Users/lenovo/Desktop/liteos/Project2/BearPi_LiteOS/components/security/mbedtls/mbedtls-2.6.0/library\bignum.c **** cleanup:
 487:C:/Users/lenovo/Desktop/liteos/Project2/BearPi_LiteOS/components/security/mbedtls/mbedtls-2.6.0/library\bignum.c **** 
 488:C:/Users/lenovo/Desktop/liteos/Project2/BearPi_LiteOS/components/security/mbedtls/mbedtls-2.6.0/library\bignum.c ****     mbedtls_mpi_free( &T );
 489:C:/Users/lenovo/Desktop/liteos/Project2/BearPi_LiteOS/components/security/mbedtls/mbedtls-2.6.0/library\bignum.c **** 
 490:C:/Users/lenovo/Desktop/liteos/Project2/BearPi_LiteOS/components/security/mbedtls/mbedtls-2.6.0/library\bignum.c ****     return( ret );
 491:C:/Users/lenovo/Desktop/liteos/Project2/BearPi_LiteOS/components/security/mbedtls/mbedtls-2.6.0/library\bignum.c **** }
 492:C:/Users/lenovo/Desktop/liteos/Project2/BearPi_LiteOS/components/security/mbedtls/mbedtls-2.6.0/library\bignum.c **** 
 493:C:/Users/lenovo/Desktop/liteos/Project2/BearPi_LiteOS/components/security/mbedtls/mbedtls-2.6.0/library\bignum.c **** /*
 494:C:/Users/lenovo/Desktop/liteos/Project2/BearPi_LiteOS/components/security/mbedtls/mbedtls-2.6.0/library\bignum.c ****  * Helper to write the digits high-order first
 495:C:/Users/lenovo/Desktop/liteos/Project2/BearPi_LiteOS/components/security/mbedtls/mbedtls-2.6.0/library\bignum.c ****  */
 496:C:/Users/lenovo/Desktop/liteos/Project2/BearPi_LiteOS/components/security/mbedtls/mbedtls-2.6.0/library\bignum.c **** static int mpi_write_hlp( mbedtls_mpi *X, int radix, char **p )
 497:C:/Users/lenovo/Desktop/liteos/Project2/BearPi_LiteOS/components/security/mbedtls/mbedtls-2.6.0/library\bignum.c **** {
 498:C:/Users/lenovo/Desktop/liteos/Project2/BearPi_LiteOS/components/security/mbedtls/mbedtls-2.6.0/library\bignum.c ****     int ret;
 499:C:/Users/lenovo/Desktop/liteos/Project2/BearPi_LiteOS/components/security/mbedtls/mbedtls-2.6.0/library\bignum.c ****     mbedtls_mpi_uint r;
 500:C:/Users/lenovo/Desktop/liteos/Project2/BearPi_LiteOS/components/security/mbedtls/mbedtls-2.6.0/library\bignum.c **** 
 501:C:/Users/lenovo/Desktop/liteos/Project2/BearPi_LiteOS/components/security/mbedtls/mbedtls-2.6.0/library\bignum.c ****     if( radix < 2 || radix > 16 )
 502:C:/Users/lenovo/Desktop/liteos/Project2/BearPi_LiteOS/components/security/mbedtls/mbedtls-2.6.0/library\bignum.c ****         return( MBEDTLS_ERR_MPI_BAD_INPUT_DATA );
 503:C:/Users/lenovo/Desktop/liteos/Project2/BearPi_LiteOS/components/security/mbedtls/mbedtls-2.6.0/library\bignum.c **** 
 504:C:/Users/lenovo/Desktop/liteos/Project2/BearPi_LiteOS/components/security/mbedtls/mbedtls-2.6.0/library\bignum.c ****     MBEDTLS_MPI_CHK( mbedtls_mpi_mod_int( &r, X, radix ) );
 505:C:/Users/lenovo/Desktop/liteos/Project2/BearPi_LiteOS/components/security/mbedtls/mbedtls-2.6.0/library\bignum.c ****     MBEDTLS_MPI_CHK( mbedtls_mpi_div_int( X, NULL, X, radix ) );
 506:C:/Users/lenovo/Desktop/liteos/Project2/BearPi_LiteOS/components/security/mbedtls/mbedtls-2.6.0/library\bignum.c **** 
 507:C:/Users/lenovo/Desktop/liteos/Project2/BearPi_LiteOS/components/security/mbedtls/mbedtls-2.6.0/library\bignum.c ****     if( mbedtls_mpi_cmp_int( X, 0 ) != 0 )
 508:C:/Users/lenovo/Desktop/liteos/Project2/BearPi_LiteOS/components/security/mbedtls/mbedtls-2.6.0/library\bignum.c ****         MBEDTLS_MPI_CHK( mpi_write_hlp( X, radix, p ) );
 509:C:/Users/lenovo/Desktop/liteos/Project2/BearPi_LiteOS/components/security/mbedtls/mbedtls-2.6.0/library\bignum.c **** 
 510:C:/Users/lenovo/Desktop/liteos/Project2/BearPi_LiteOS/components/security/mbedtls/mbedtls-2.6.0/library\bignum.c ****     if( r < 10 )
 511:C:/Users/lenovo/Desktop/liteos/Project2/BearPi_LiteOS/components/security/mbedtls/mbedtls-2.6.0/library\bignum.c ****         *(*p)++ = (char)( r + 0x30 );
 512:C:/Users/lenovo/Desktop/liteos/Project2/BearPi_LiteOS/components/security/mbedtls/mbedtls-2.6.0/library\bignum.c ****     else
 513:C:/Users/lenovo/Desktop/liteos/Project2/BearPi_LiteOS/components/security/mbedtls/mbedtls-2.6.0/library\bignum.c ****         *(*p)++ = (char)( r + 0x37 );
 514:C:/Users/lenovo/Desktop/liteos/Project2/BearPi_LiteOS/components/security/mbedtls/mbedtls-2.6.0/library\bignum.c **** 
 515:C:/Users/lenovo/Desktop/liteos/Project2/BearPi_LiteOS/components/security/mbedtls/mbedtls-2.6.0/library\bignum.c **** cleanup:
 516:C:/Users/lenovo/Desktop/liteos/Project2/BearPi_LiteOS/components/security/mbedtls/mbedtls-2.6.0/library\bignum.c **** 
 517:C:/Users/lenovo/Desktop/liteos/Project2/BearPi_LiteOS/components/security/mbedtls/mbedtls-2.6.0/library\bignum.c ****     return( ret );
 518:C:/Users/lenovo/Desktop/liteos/Project2/BearPi_LiteOS/components/security/mbedtls/mbedtls-2.6.0/library\bignum.c **** }
 519:C:/Users/lenovo/Desktop/liteos/Project2/BearPi_LiteOS/components/security/mbedtls/mbedtls-2.6.0/library\bignum.c **** 
 520:C:/Users/lenovo/Desktop/liteos/Project2/BearPi_LiteOS/components/security/mbedtls/mbedtls-2.6.0/library\bignum.c **** /*
ARM GAS  c:\Users\lenovo\AppData\Local\Temp\ccjcyTZ0.s 			page 13


 521:C:/Users/lenovo/Desktop/liteos/Project2/BearPi_LiteOS/components/security/mbedtls/mbedtls-2.6.0/library\bignum.c ****  * Export into an ASCII string
 522:C:/Users/lenovo/Desktop/liteos/Project2/BearPi_LiteOS/components/security/mbedtls/mbedtls-2.6.0/library\bignum.c ****  */
 523:C:/Users/lenovo/Desktop/liteos/Project2/BearPi_LiteOS/components/security/mbedtls/mbedtls-2.6.0/library\bignum.c **** int mbedtls_mpi_write_string( const mbedtls_mpi *X, int radix,
 524:C:/Users/lenovo/Desktop/liteos/Project2/BearPi_LiteOS/components/security/mbedtls/mbedtls-2.6.0/library\bignum.c ****                               char *buf, size_t buflen, size_t *olen )
 525:C:/Users/lenovo/Desktop/liteos/Project2/BearPi_LiteOS/components/security/mbedtls/mbedtls-2.6.0/library\bignum.c **** {
 526:C:/Users/lenovo/Desktop/liteos/Project2/BearPi_LiteOS/components/security/mbedtls/mbedtls-2.6.0/library\bignum.c ****     int ret = 0;
 527:C:/Users/lenovo/Desktop/liteos/Project2/BearPi_LiteOS/components/security/mbedtls/mbedtls-2.6.0/library\bignum.c ****     size_t n;
 528:C:/Users/lenovo/Desktop/liteos/Project2/BearPi_LiteOS/components/security/mbedtls/mbedtls-2.6.0/library\bignum.c ****     char *p;
 529:C:/Users/lenovo/Desktop/liteos/Project2/BearPi_LiteOS/components/security/mbedtls/mbedtls-2.6.0/library\bignum.c ****     mbedtls_mpi T;
 530:C:/Users/lenovo/Desktop/liteos/Project2/BearPi_LiteOS/components/security/mbedtls/mbedtls-2.6.0/library\bignum.c **** 
 531:C:/Users/lenovo/Desktop/liteos/Project2/BearPi_LiteOS/components/security/mbedtls/mbedtls-2.6.0/library\bignum.c ****     if( radix < 2 || radix > 16 )
 532:C:/Users/lenovo/Desktop/liteos/Project2/BearPi_LiteOS/components/security/mbedtls/mbedtls-2.6.0/library\bignum.c ****         return( MBEDTLS_ERR_MPI_BAD_INPUT_DATA );
 533:C:/Users/lenovo/Desktop/liteos/Project2/BearPi_LiteOS/components/security/mbedtls/mbedtls-2.6.0/library\bignum.c **** 
 534:C:/Users/lenovo/Desktop/liteos/Project2/BearPi_LiteOS/components/security/mbedtls/mbedtls-2.6.0/library\bignum.c ****     n = mbedtls_mpi_bitlen( X );
 535:C:/Users/lenovo/Desktop/liteos/Project2/BearPi_LiteOS/components/security/mbedtls/mbedtls-2.6.0/library\bignum.c ****     if( radix >=  4 ) n >>= 1;
 536:C:/Users/lenovo/Desktop/liteos/Project2/BearPi_LiteOS/components/security/mbedtls/mbedtls-2.6.0/library\bignum.c ****     if( radix >= 16 ) n >>= 1;
 537:C:/Users/lenovo/Desktop/liteos/Project2/BearPi_LiteOS/components/security/mbedtls/mbedtls-2.6.0/library\bignum.c ****     /*
 538:C:/Users/lenovo/Desktop/liteos/Project2/BearPi_LiteOS/components/security/mbedtls/mbedtls-2.6.0/library\bignum.c ****      * Round up the buffer length to an even value to ensure that there is
 539:C:/Users/lenovo/Desktop/liteos/Project2/BearPi_LiteOS/components/security/mbedtls/mbedtls-2.6.0/library\bignum.c ****      * enough room for hexadecimal values that can be represented in an odd
 540:C:/Users/lenovo/Desktop/liteos/Project2/BearPi_LiteOS/components/security/mbedtls/mbedtls-2.6.0/library\bignum.c ****      * number of digits.
 541:C:/Users/lenovo/Desktop/liteos/Project2/BearPi_LiteOS/components/security/mbedtls/mbedtls-2.6.0/library\bignum.c ****      */
 542:C:/Users/lenovo/Desktop/liteos/Project2/BearPi_LiteOS/components/security/mbedtls/mbedtls-2.6.0/library\bignum.c ****     n += 3 + ( ( n + 1 ) & 1 );
 543:C:/Users/lenovo/Desktop/liteos/Project2/BearPi_LiteOS/components/security/mbedtls/mbedtls-2.6.0/library\bignum.c **** 
 544:C:/Users/lenovo/Desktop/liteos/Project2/BearPi_LiteOS/components/security/mbedtls/mbedtls-2.6.0/library\bignum.c ****     if( buflen < n )
 545:C:/Users/lenovo/Desktop/liteos/Project2/BearPi_LiteOS/components/security/mbedtls/mbedtls-2.6.0/library\bignum.c ****     {
 546:C:/Users/lenovo/Desktop/liteos/Project2/BearPi_LiteOS/components/security/mbedtls/mbedtls-2.6.0/library\bignum.c ****         *olen = n;
 547:C:/Users/lenovo/Desktop/liteos/Project2/BearPi_LiteOS/components/security/mbedtls/mbedtls-2.6.0/library\bignum.c ****         return( MBEDTLS_ERR_MPI_BUFFER_TOO_SMALL );
 548:C:/Users/lenovo/Desktop/liteos/Project2/BearPi_LiteOS/components/security/mbedtls/mbedtls-2.6.0/library\bignum.c ****     }
 549:C:/Users/lenovo/Desktop/liteos/Project2/BearPi_LiteOS/components/security/mbedtls/mbedtls-2.6.0/library\bignum.c **** 
 550:C:/Users/lenovo/Desktop/liteos/Project2/BearPi_LiteOS/components/security/mbedtls/mbedtls-2.6.0/library\bignum.c ****     p = buf;
 551:C:/Users/lenovo/Desktop/liteos/Project2/BearPi_LiteOS/components/security/mbedtls/mbedtls-2.6.0/library\bignum.c ****     mbedtls_mpi_init( &T );
 552:C:/Users/lenovo/Desktop/liteos/Project2/BearPi_LiteOS/components/security/mbedtls/mbedtls-2.6.0/library\bignum.c **** 
 553:C:/Users/lenovo/Desktop/liteos/Project2/BearPi_LiteOS/components/security/mbedtls/mbedtls-2.6.0/library\bignum.c ****     if( X->s == -1 )
 554:C:/Users/lenovo/Desktop/liteos/Project2/BearPi_LiteOS/components/security/mbedtls/mbedtls-2.6.0/library\bignum.c ****         *p++ = '-';
 555:C:/Users/lenovo/Desktop/liteos/Project2/BearPi_LiteOS/components/security/mbedtls/mbedtls-2.6.0/library\bignum.c **** 
 556:C:/Users/lenovo/Desktop/liteos/Project2/BearPi_LiteOS/components/security/mbedtls/mbedtls-2.6.0/library\bignum.c ****     if( radix == 16 )
 557:C:/Users/lenovo/Desktop/liteos/Project2/BearPi_LiteOS/components/security/mbedtls/mbedtls-2.6.0/library\bignum.c ****     {
 558:C:/Users/lenovo/Desktop/liteos/Project2/BearPi_LiteOS/components/security/mbedtls/mbedtls-2.6.0/library\bignum.c ****         int c;
 559:C:/Users/lenovo/Desktop/liteos/Project2/BearPi_LiteOS/components/security/mbedtls/mbedtls-2.6.0/library\bignum.c ****         size_t i, j, k;
 560:C:/Users/lenovo/Desktop/liteos/Project2/BearPi_LiteOS/components/security/mbedtls/mbedtls-2.6.0/library\bignum.c **** 
 561:C:/Users/lenovo/Desktop/liteos/Project2/BearPi_LiteOS/components/security/mbedtls/mbedtls-2.6.0/library\bignum.c ****         for( i = X->n, k = 0; i > 0; i-- )
 562:C:/Users/lenovo/Desktop/liteos/Project2/BearPi_LiteOS/components/security/mbedtls/mbedtls-2.6.0/library\bignum.c ****         {
 563:C:/Users/lenovo/Desktop/liteos/Project2/BearPi_LiteOS/components/security/mbedtls/mbedtls-2.6.0/library\bignum.c ****             for( j = ciL; j > 0; j-- )
 564:C:/Users/lenovo/Desktop/liteos/Project2/BearPi_LiteOS/components/security/mbedtls/mbedtls-2.6.0/library\bignum.c ****             {
 565:C:/Users/lenovo/Desktop/liteos/Project2/BearPi_LiteOS/components/security/mbedtls/mbedtls-2.6.0/library\bignum.c ****                 c = ( X->p[i - 1] >> ( ( j - 1 ) << 3) ) & 0xFF;
 566:C:/Users/lenovo/Desktop/liteos/Project2/BearPi_LiteOS/components/security/mbedtls/mbedtls-2.6.0/library\bignum.c **** 
 567:C:/Users/lenovo/Desktop/liteos/Project2/BearPi_LiteOS/components/security/mbedtls/mbedtls-2.6.0/library\bignum.c ****                 if( c == 0 && k == 0 && ( i + j ) != 2 )
 568:C:/Users/lenovo/Desktop/liteos/Project2/BearPi_LiteOS/components/security/mbedtls/mbedtls-2.6.0/library\bignum.c ****                     continue;
 569:C:/Users/lenovo/Desktop/liteos/Project2/BearPi_LiteOS/components/security/mbedtls/mbedtls-2.6.0/library\bignum.c **** 
 570:C:/Users/lenovo/Desktop/liteos/Project2/BearPi_LiteOS/components/security/mbedtls/mbedtls-2.6.0/library\bignum.c ****                 *(p++) = "0123456789ABCDEF" [c / 16];
 571:C:/Users/lenovo/Desktop/liteos/Project2/BearPi_LiteOS/components/security/mbedtls/mbedtls-2.6.0/library\bignum.c ****                 *(p++) = "0123456789ABCDEF" [c % 16];
 572:C:/Users/lenovo/Desktop/liteos/Project2/BearPi_LiteOS/components/security/mbedtls/mbedtls-2.6.0/library\bignum.c ****                 k = 1;
 573:C:/Users/lenovo/Desktop/liteos/Project2/BearPi_LiteOS/components/security/mbedtls/mbedtls-2.6.0/library\bignum.c ****             }
 574:C:/Users/lenovo/Desktop/liteos/Project2/BearPi_LiteOS/components/security/mbedtls/mbedtls-2.6.0/library\bignum.c ****         }
 575:C:/Users/lenovo/Desktop/liteos/Project2/BearPi_LiteOS/components/security/mbedtls/mbedtls-2.6.0/library\bignum.c ****     }
 576:C:/Users/lenovo/Desktop/liteos/Project2/BearPi_LiteOS/components/security/mbedtls/mbedtls-2.6.0/library\bignum.c ****     else
 577:C:/Users/lenovo/Desktop/liteos/Project2/BearPi_LiteOS/components/security/mbedtls/mbedtls-2.6.0/library\bignum.c ****     {
ARM GAS  c:\Users\lenovo\AppData\Local\Temp\ccjcyTZ0.s 			page 14


 578:C:/Users/lenovo/Desktop/liteos/Project2/BearPi_LiteOS/components/security/mbedtls/mbedtls-2.6.0/library\bignum.c ****         MBEDTLS_MPI_CHK( mbedtls_mpi_copy( &T, X ) );
 579:C:/Users/lenovo/Desktop/liteos/Project2/BearPi_LiteOS/components/security/mbedtls/mbedtls-2.6.0/library\bignum.c **** 
 580:C:/Users/lenovo/Desktop/liteos/Project2/BearPi_LiteOS/components/security/mbedtls/mbedtls-2.6.0/library\bignum.c ****         if( T.s == -1 )
 581:C:/Users/lenovo/Desktop/liteos/Project2/BearPi_LiteOS/components/security/mbedtls/mbedtls-2.6.0/library\bignum.c ****             T.s = 1;
 582:C:/Users/lenovo/Desktop/liteos/Project2/BearPi_LiteOS/components/security/mbedtls/mbedtls-2.6.0/library\bignum.c **** 
 583:C:/Users/lenovo/Desktop/liteos/Project2/BearPi_LiteOS/components/security/mbedtls/mbedtls-2.6.0/library\bignum.c ****         MBEDTLS_MPI_CHK( mpi_write_hlp( &T, radix, &p ) );
 584:C:/Users/lenovo/Desktop/liteos/Project2/BearPi_LiteOS/components/security/mbedtls/mbedtls-2.6.0/library\bignum.c ****     }
 585:C:/Users/lenovo/Desktop/liteos/Project2/BearPi_LiteOS/components/security/mbedtls/mbedtls-2.6.0/library\bignum.c **** 
 586:C:/Users/lenovo/Desktop/liteos/Project2/BearPi_LiteOS/components/security/mbedtls/mbedtls-2.6.0/library\bignum.c ****     *p++ = '\0';
 587:C:/Users/lenovo/Desktop/liteos/Project2/BearPi_LiteOS/components/security/mbedtls/mbedtls-2.6.0/library\bignum.c ****     *olen = p - buf;
 588:C:/Users/lenovo/Desktop/liteos/Project2/BearPi_LiteOS/components/security/mbedtls/mbedtls-2.6.0/library\bignum.c **** 
 589:C:/Users/lenovo/Desktop/liteos/Project2/BearPi_LiteOS/components/security/mbedtls/mbedtls-2.6.0/library\bignum.c **** cleanup:
 590:C:/Users/lenovo/Desktop/liteos/Project2/BearPi_LiteOS/components/security/mbedtls/mbedtls-2.6.0/library\bignum.c **** 
 591:C:/Users/lenovo/Desktop/liteos/Project2/BearPi_LiteOS/components/security/mbedtls/mbedtls-2.6.0/library\bignum.c ****     mbedtls_mpi_free( &T );
 592:C:/Users/lenovo/Desktop/liteos/Project2/BearPi_LiteOS/components/security/mbedtls/mbedtls-2.6.0/library\bignum.c **** 
 593:C:/Users/lenovo/Desktop/liteos/Project2/BearPi_LiteOS/components/security/mbedtls/mbedtls-2.6.0/library\bignum.c ****     return( ret );
 594:C:/Users/lenovo/Desktop/liteos/Project2/BearPi_LiteOS/components/security/mbedtls/mbedtls-2.6.0/library\bignum.c **** }
 595:C:/Users/lenovo/Desktop/liteos/Project2/BearPi_LiteOS/components/security/mbedtls/mbedtls-2.6.0/library\bignum.c **** 
 596:C:/Users/lenovo/Desktop/liteos/Project2/BearPi_LiteOS/components/security/mbedtls/mbedtls-2.6.0/library\bignum.c **** #if defined(MBEDTLS_FS_IO)
 597:C:/Users/lenovo/Desktop/liteos/Project2/BearPi_LiteOS/components/security/mbedtls/mbedtls-2.6.0/library\bignum.c **** /*
 598:C:/Users/lenovo/Desktop/liteos/Project2/BearPi_LiteOS/components/security/mbedtls/mbedtls-2.6.0/library\bignum.c ****  * Read X from an opened file
 599:C:/Users/lenovo/Desktop/liteos/Project2/BearPi_LiteOS/components/security/mbedtls/mbedtls-2.6.0/library\bignum.c ****  */
 600:C:/Users/lenovo/Desktop/liteos/Project2/BearPi_LiteOS/components/security/mbedtls/mbedtls-2.6.0/library\bignum.c **** int mbedtls_mpi_read_file( mbedtls_mpi *X, int radix, FILE *fin )
 601:C:/Users/lenovo/Desktop/liteos/Project2/BearPi_LiteOS/components/security/mbedtls/mbedtls-2.6.0/library\bignum.c **** {
 602:C:/Users/lenovo/Desktop/liteos/Project2/BearPi_LiteOS/components/security/mbedtls/mbedtls-2.6.0/library\bignum.c ****     mbedtls_mpi_uint d;
 603:C:/Users/lenovo/Desktop/liteos/Project2/BearPi_LiteOS/components/security/mbedtls/mbedtls-2.6.0/library\bignum.c ****     size_t slen;
 604:C:/Users/lenovo/Desktop/liteos/Project2/BearPi_LiteOS/components/security/mbedtls/mbedtls-2.6.0/library\bignum.c ****     char *p;
 605:C:/Users/lenovo/Desktop/liteos/Project2/BearPi_LiteOS/components/security/mbedtls/mbedtls-2.6.0/library\bignum.c ****     /*
 606:C:/Users/lenovo/Desktop/liteos/Project2/BearPi_LiteOS/components/security/mbedtls/mbedtls-2.6.0/library\bignum.c ****      * Buffer should have space for (short) label and decimal formatted MPI,
 607:C:/Users/lenovo/Desktop/liteos/Project2/BearPi_LiteOS/components/security/mbedtls/mbedtls-2.6.0/library\bignum.c ****      * newline characters and '\0'
 608:C:/Users/lenovo/Desktop/liteos/Project2/BearPi_LiteOS/components/security/mbedtls/mbedtls-2.6.0/library\bignum.c ****      */
 609:C:/Users/lenovo/Desktop/liteos/Project2/BearPi_LiteOS/components/security/mbedtls/mbedtls-2.6.0/library\bignum.c ****     char s[ MBEDTLS_MPI_RW_BUFFER_SIZE ];
 610:C:/Users/lenovo/Desktop/liteos/Project2/BearPi_LiteOS/components/security/mbedtls/mbedtls-2.6.0/library\bignum.c **** 
 611:C:/Users/lenovo/Desktop/liteos/Project2/BearPi_LiteOS/components/security/mbedtls/mbedtls-2.6.0/library\bignum.c ****     memset( s, 0, sizeof( s ) );
 612:C:/Users/lenovo/Desktop/liteos/Project2/BearPi_LiteOS/components/security/mbedtls/mbedtls-2.6.0/library\bignum.c ****     if( fgets( s, sizeof( s ) - 1, fin ) == NULL )
 613:C:/Users/lenovo/Desktop/liteos/Project2/BearPi_LiteOS/components/security/mbedtls/mbedtls-2.6.0/library\bignum.c ****         return( MBEDTLS_ERR_MPI_FILE_IO_ERROR );
 614:C:/Users/lenovo/Desktop/liteos/Project2/BearPi_LiteOS/components/security/mbedtls/mbedtls-2.6.0/library\bignum.c **** 
 615:C:/Users/lenovo/Desktop/liteos/Project2/BearPi_LiteOS/components/security/mbedtls/mbedtls-2.6.0/library\bignum.c ****     slen = strlen( s );
 616:C:/Users/lenovo/Desktop/liteos/Project2/BearPi_LiteOS/components/security/mbedtls/mbedtls-2.6.0/library\bignum.c ****     if( slen == sizeof( s ) - 2 )
 617:C:/Users/lenovo/Desktop/liteos/Project2/BearPi_LiteOS/components/security/mbedtls/mbedtls-2.6.0/library\bignum.c ****         return( MBEDTLS_ERR_MPI_BUFFER_TOO_SMALL );
 618:C:/Users/lenovo/Desktop/liteos/Project2/BearPi_LiteOS/components/security/mbedtls/mbedtls-2.6.0/library\bignum.c **** 
 619:C:/Users/lenovo/Desktop/liteos/Project2/BearPi_LiteOS/components/security/mbedtls/mbedtls-2.6.0/library\bignum.c ****     if( slen > 0 && s[slen - 1] == '\n' ) { slen--; s[slen] = '\0'; }
 620:C:/Users/lenovo/Desktop/liteos/Project2/BearPi_LiteOS/components/security/mbedtls/mbedtls-2.6.0/library\bignum.c ****     if( slen > 0 && s[slen - 1] == '\r' ) { slen--; s[slen] = '\0'; }
 621:C:/Users/lenovo/Desktop/liteos/Project2/BearPi_LiteOS/components/security/mbedtls/mbedtls-2.6.0/library\bignum.c **** 
 622:C:/Users/lenovo/Desktop/liteos/Project2/BearPi_LiteOS/components/security/mbedtls/mbedtls-2.6.0/library\bignum.c ****     p = s + slen;
 623:C:/Users/lenovo/Desktop/liteos/Project2/BearPi_LiteOS/components/security/mbedtls/mbedtls-2.6.0/library\bignum.c ****     while( p-- > s )
 624:C:/Users/lenovo/Desktop/liteos/Project2/BearPi_LiteOS/components/security/mbedtls/mbedtls-2.6.0/library\bignum.c ****         if( mpi_get_digit( &d, radix, *p ) != 0 )
 625:C:/Users/lenovo/Desktop/liteos/Project2/BearPi_LiteOS/components/security/mbedtls/mbedtls-2.6.0/library\bignum.c ****             break;
 626:C:/Users/lenovo/Desktop/liteos/Project2/BearPi_LiteOS/components/security/mbedtls/mbedtls-2.6.0/library\bignum.c **** 
 627:C:/Users/lenovo/Desktop/liteos/Project2/BearPi_LiteOS/components/security/mbedtls/mbedtls-2.6.0/library\bignum.c ****     return( mbedtls_mpi_read_string( X, radix, p + 1 ) );
 628:C:/Users/lenovo/Desktop/liteos/Project2/BearPi_LiteOS/components/security/mbedtls/mbedtls-2.6.0/library\bignum.c **** }
 629:C:/Users/lenovo/Desktop/liteos/Project2/BearPi_LiteOS/components/security/mbedtls/mbedtls-2.6.0/library\bignum.c **** 
 630:C:/Users/lenovo/Desktop/liteos/Project2/BearPi_LiteOS/components/security/mbedtls/mbedtls-2.6.0/library\bignum.c **** /*
 631:C:/Users/lenovo/Desktop/liteos/Project2/BearPi_LiteOS/components/security/mbedtls/mbedtls-2.6.0/library\bignum.c ****  * Write X into an opened file (or stdout if fout == NULL)
 632:C:/Users/lenovo/Desktop/liteos/Project2/BearPi_LiteOS/components/security/mbedtls/mbedtls-2.6.0/library\bignum.c ****  */
 633:C:/Users/lenovo/Desktop/liteos/Project2/BearPi_LiteOS/components/security/mbedtls/mbedtls-2.6.0/library\bignum.c **** int mbedtls_mpi_write_file( const char *p, const mbedtls_mpi *X, int radix, FILE *fout )
 634:C:/Users/lenovo/Desktop/liteos/Project2/BearPi_LiteOS/components/security/mbedtls/mbedtls-2.6.0/library\bignum.c **** {
ARM GAS  c:\Users\lenovo\AppData\Local\Temp\ccjcyTZ0.s 			page 15


 635:C:/Users/lenovo/Desktop/liteos/Project2/BearPi_LiteOS/components/security/mbedtls/mbedtls-2.6.0/library\bignum.c ****     int ret;
 636:C:/Users/lenovo/Desktop/liteos/Project2/BearPi_LiteOS/components/security/mbedtls/mbedtls-2.6.0/library\bignum.c ****     size_t n, slen, plen;
 637:C:/Users/lenovo/Desktop/liteos/Project2/BearPi_LiteOS/components/security/mbedtls/mbedtls-2.6.0/library\bignum.c ****     /*
 638:C:/Users/lenovo/Desktop/liteos/Project2/BearPi_LiteOS/components/security/mbedtls/mbedtls-2.6.0/library\bignum.c ****      * Buffer should have space for (short) label and decimal formatted MPI,
 639:C:/Users/lenovo/Desktop/liteos/Project2/BearPi_LiteOS/components/security/mbedtls/mbedtls-2.6.0/library\bignum.c ****      * newline characters and '\0'
 640:C:/Users/lenovo/Desktop/liteos/Project2/BearPi_LiteOS/components/security/mbedtls/mbedtls-2.6.0/library\bignum.c ****      */
 641:C:/Users/lenovo/Desktop/liteos/Project2/BearPi_LiteOS/components/security/mbedtls/mbedtls-2.6.0/library\bignum.c ****     char s[ MBEDTLS_MPI_RW_BUFFER_SIZE ];
 642:C:/Users/lenovo/Desktop/liteos/Project2/BearPi_LiteOS/components/security/mbedtls/mbedtls-2.6.0/library\bignum.c **** 
 643:C:/Users/lenovo/Desktop/liteos/Project2/BearPi_LiteOS/components/security/mbedtls/mbedtls-2.6.0/library\bignum.c ****     memset( s, 0, sizeof( s ) );
 644:C:/Users/lenovo/Desktop/liteos/Project2/BearPi_LiteOS/components/security/mbedtls/mbedtls-2.6.0/library\bignum.c **** 
 645:C:/Users/lenovo/Desktop/liteos/Project2/BearPi_LiteOS/components/security/mbedtls/mbedtls-2.6.0/library\bignum.c ****     MBEDTLS_MPI_CHK( mbedtls_mpi_write_string( X, radix, s, sizeof( s ) - 2, &n ) );
 646:C:/Users/lenovo/Desktop/liteos/Project2/BearPi_LiteOS/components/security/mbedtls/mbedtls-2.6.0/library\bignum.c **** 
 647:C:/Users/lenovo/Desktop/liteos/Project2/BearPi_LiteOS/components/security/mbedtls/mbedtls-2.6.0/library\bignum.c ****     if( p == NULL ) p = "";
 648:C:/Users/lenovo/Desktop/liteos/Project2/BearPi_LiteOS/components/security/mbedtls/mbedtls-2.6.0/library\bignum.c **** 
 649:C:/Users/lenovo/Desktop/liteos/Project2/BearPi_LiteOS/components/security/mbedtls/mbedtls-2.6.0/library\bignum.c ****     plen = strlen( p );
 650:C:/Users/lenovo/Desktop/liteos/Project2/BearPi_LiteOS/components/security/mbedtls/mbedtls-2.6.0/library\bignum.c ****     slen = strlen( s );
 651:C:/Users/lenovo/Desktop/liteos/Project2/BearPi_LiteOS/components/security/mbedtls/mbedtls-2.6.0/library\bignum.c ****     s[slen++] = '\r';
 652:C:/Users/lenovo/Desktop/liteos/Project2/BearPi_LiteOS/components/security/mbedtls/mbedtls-2.6.0/library\bignum.c ****     s[slen++] = '\n';
 653:C:/Users/lenovo/Desktop/liteos/Project2/BearPi_LiteOS/components/security/mbedtls/mbedtls-2.6.0/library\bignum.c **** 
 654:C:/Users/lenovo/Desktop/liteos/Project2/BearPi_LiteOS/components/security/mbedtls/mbedtls-2.6.0/library\bignum.c ****     if( fout != NULL )
 655:C:/Users/lenovo/Desktop/liteos/Project2/BearPi_LiteOS/components/security/mbedtls/mbedtls-2.6.0/library\bignum.c ****     {
 656:C:/Users/lenovo/Desktop/liteos/Project2/BearPi_LiteOS/components/security/mbedtls/mbedtls-2.6.0/library\bignum.c ****         if( fwrite( p, 1, plen, fout ) != plen ||
 657:C:/Users/lenovo/Desktop/liteos/Project2/BearPi_LiteOS/components/security/mbedtls/mbedtls-2.6.0/library\bignum.c ****             fwrite( s, 1, slen, fout ) != slen )
 658:C:/Users/lenovo/Desktop/liteos/Project2/BearPi_LiteOS/components/security/mbedtls/mbedtls-2.6.0/library\bignum.c ****             return( MBEDTLS_ERR_MPI_FILE_IO_ERROR );
 659:C:/Users/lenovo/Desktop/liteos/Project2/BearPi_LiteOS/components/security/mbedtls/mbedtls-2.6.0/library\bignum.c ****     }
 660:C:/Users/lenovo/Desktop/liteos/Project2/BearPi_LiteOS/components/security/mbedtls/mbedtls-2.6.0/library\bignum.c ****     else
 661:C:/Users/lenovo/Desktop/liteos/Project2/BearPi_LiteOS/components/security/mbedtls/mbedtls-2.6.0/library\bignum.c ****         mbedtls_printf( "%s%s", p, s );
 662:C:/Users/lenovo/Desktop/liteos/Project2/BearPi_LiteOS/components/security/mbedtls/mbedtls-2.6.0/library\bignum.c **** 
 663:C:/Users/lenovo/Desktop/liteos/Project2/BearPi_LiteOS/components/security/mbedtls/mbedtls-2.6.0/library\bignum.c **** cleanup:
 664:C:/Users/lenovo/Desktop/liteos/Project2/BearPi_LiteOS/components/security/mbedtls/mbedtls-2.6.0/library\bignum.c **** 
 665:C:/Users/lenovo/Desktop/liteos/Project2/BearPi_LiteOS/components/security/mbedtls/mbedtls-2.6.0/library\bignum.c ****     return( ret );
 666:C:/Users/lenovo/Desktop/liteos/Project2/BearPi_LiteOS/components/security/mbedtls/mbedtls-2.6.0/library\bignum.c **** }
 667:C:/Users/lenovo/Desktop/liteos/Project2/BearPi_LiteOS/components/security/mbedtls/mbedtls-2.6.0/library\bignum.c **** #endif /* MBEDTLS_FS_IO */
 668:C:/Users/lenovo/Desktop/liteos/Project2/BearPi_LiteOS/components/security/mbedtls/mbedtls-2.6.0/library\bignum.c **** 
 669:C:/Users/lenovo/Desktop/liteos/Project2/BearPi_LiteOS/components/security/mbedtls/mbedtls-2.6.0/library\bignum.c **** /*
 670:C:/Users/lenovo/Desktop/liteos/Project2/BearPi_LiteOS/components/security/mbedtls/mbedtls-2.6.0/library\bignum.c ****  * Import X from unsigned binary data, big endian
 671:C:/Users/lenovo/Desktop/liteos/Project2/BearPi_LiteOS/components/security/mbedtls/mbedtls-2.6.0/library\bignum.c ****  */
 672:C:/Users/lenovo/Desktop/liteos/Project2/BearPi_LiteOS/components/security/mbedtls/mbedtls-2.6.0/library\bignum.c **** int mbedtls_mpi_read_binary( mbedtls_mpi *X, const unsigned char *buf, size_t buflen )
 673:C:/Users/lenovo/Desktop/liteos/Project2/BearPi_LiteOS/components/security/mbedtls/mbedtls-2.6.0/library\bignum.c **** {
 674:C:/Users/lenovo/Desktop/liteos/Project2/BearPi_LiteOS/components/security/mbedtls/mbedtls-2.6.0/library\bignum.c ****     int ret;
 675:C:/Users/lenovo/Desktop/liteos/Project2/BearPi_LiteOS/components/security/mbedtls/mbedtls-2.6.0/library\bignum.c ****     size_t i, j, n;
 676:C:/Users/lenovo/Desktop/liteos/Project2/BearPi_LiteOS/components/security/mbedtls/mbedtls-2.6.0/library\bignum.c **** 
 677:C:/Users/lenovo/Desktop/liteos/Project2/BearPi_LiteOS/components/security/mbedtls/mbedtls-2.6.0/library\bignum.c ****     for( n = 0; n < buflen; n++ )
 678:C:/Users/lenovo/Desktop/liteos/Project2/BearPi_LiteOS/components/security/mbedtls/mbedtls-2.6.0/library\bignum.c ****         if( buf[n] != 0 )
 679:C:/Users/lenovo/Desktop/liteos/Project2/BearPi_LiteOS/components/security/mbedtls/mbedtls-2.6.0/library\bignum.c ****             break;
 680:C:/Users/lenovo/Desktop/liteos/Project2/BearPi_LiteOS/components/security/mbedtls/mbedtls-2.6.0/library\bignum.c **** 
 681:C:/Users/lenovo/Desktop/liteos/Project2/BearPi_LiteOS/components/security/mbedtls/mbedtls-2.6.0/library\bignum.c ****     MBEDTLS_MPI_CHK( mbedtls_mpi_grow( X, CHARS_TO_LIMBS( buflen - n ) ) );
 682:C:/Users/lenovo/Desktop/liteos/Project2/BearPi_LiteOS/components/security/mbedtls/mbedtls-2.6.0/library\bignum.c ****     MBEDTLS_MPI_CHK( mbedtls_mpi_lset( X, 0 ) );
 683:C:/Users/lenovo/Desktop/liteos/Project2/BearPi_LiteOS/components/security/mbedtls/mbedtls-2.6.0/library\bignum.c **** 
 684:C:/Users/lenovo/Desktop/liteos/Project2/BearPi_LiteOS/components/security/mbedtls/mbedtls-2.6.0/library\bignum.c ****     for( i = buflen, j = 0; i > n; i--, j++ )
 685:C:/Users/lenovo/Desktop/liteos/Project2/BearPi_LiteOS/components/security/mbedtls/mbedtls-2.6.0/library\bignum.c ****         X->p[j / ciL] |= ((mbedtls_mpi_uint) buf[i - 1]) << ((j % ciL) << 3);
 686:C:/Users/lenovo/Desktop/liteos/Project2/BearPi_LiteOS/components/security/mbedtls/mbedtls-2.6.0/library\bignum.c **** 
 687:C:/Users/lenovo/Desktop/liteos/Project2/BearPi_LiteOS/components/security/mbedtls/mbedtls-2.6.0/library\bignum.c **** cleanup:
 688:C:/Users/lenovo/Desktop/liteos/Project2/BearPi_LiteOS/components/security/mbedtls/mbedtls-2.6.0/library\bignum.c **** 
 689:C:/Users/lenovo/Desktop/liteos/Project2/BearPi_LiteOS/components/security/mbedtls/mbedtls-2.6.0/library\bignum.c ****     return( ret );
 690:C:/Users/lenovo/Desktop/liteos/Project2/BearPi_LiteOS/components/security/mbedtls/mbedtls-2.6.0/library\bignum.c **** }
 691:C:/Users/lenovo/Desktop/liteos/Project2/BearPi_LiteOS/components/security/mbedtls/mbedtls-2.6.0/library\bignum.c **** 
ARM GAS  c:\Users\lenovo\AppData\Local\Temp\ccjcyTZ0.s 			page 16


 692:C:/Users/lenovo/Desktop/liteos/Project2/BearPi_LiteOS/components/security/mbedtls/mbedtls-2.6.0/library\bignum.c **** /*
 693:C:/Users/lenovo/Desktop/liteos/Project2/BearPi_LiteOS/components/security/mbedtls/mbedtls-2.6.0/library\bignum.c ****  * Export X into unsigned binary data, big endian
 694:C:/Users/lenovo/Desktop/liteos/Project2/BearPi_LiteOS/components/security/mbedtls/mbedtls-2.6.0/library\bignum.c ****  */
 695:C:/Users/lenovo/Desktop/liteos/Project2/BearPi_LiteOS/components/security/mbedtls/mbedtls-2.6.0/library\bignum.c **** int mbedtls_mpi_write_binary( const mbedtls_mpi *X, unsigned char *buf, size_t buflen )
 696:C:/Users/lenovo/Desktop/liteos/Project2/BearPi_LiteOS/components/security/mbedtls/mbedtls-2.6.0/library\bignum.c **** {
 697:C:/Users/lenovo/Desktop/liteos/Project2/BearPi_LiteOS/components/security/mbedtls/mbedtls-2.6.0/library\bignum.c ****     size_t i, j, n;
 698:C:/Users/lenovo/Desktop/liteos/Project2/BearPi_LiteOS/components/security/mbedtls/mbedtls-2.6.0/library\bignum.c **** 
 699:C:/Users/lenovo/Desktop/liteos/Project2/BearPi_LiteOS/components/security/mbedtls/mbedtls-2.6.0/library\bignum.c ****     n = mbedtls_mpi_size( X );
 700:C:/Users/lenovo/Desktop/liteos/Project2/BearPi_LiteOS/components/security/mbedtls/mbedtls-2.6.0/library\bignum.c **** 
 701:C:/Users/lenovo/Desktop/liteos/Project2/BearPi_LiteOS/components/security/mbedtls/mbedtls-2.6.0/library\bignum.c ****     if( buflen < n )
 702:C:/Users/lenovo/Desktop/liteos/Project2/BearPi_LiteOS/components/security/mbedtls/mbedtls-2.6.0/library\bignum.c ****         return( MBEDTLS_ERR_MPI_BUFFER_TOO_SMALL );
 703:C:/Users/lenovo/Desktop/liteos/Project2/BearPi_LiteOS/components/security/mbedtls/mbedtls-2.6.0/library\bignum.c **** 
 704:C:/Users/lenovo/Desktop/liteos/Project2/BearPi_LiteOS/components/security/mbedtls/mbedtls-2.6.0/library\bignum.c ****     memset( buf, 0, buflen );
 705:C:/Users/lenovo/Desktop/liteos/Project2/BearPi_LiteOS/components/security/mbedtls/mbedtls-2.6.0/library\bignum.c **** 
 706:C:/Users/lenovo/Desktop/liteos/Project2/BearPi_LiteOS/components/security/mbedtls/mbedtls-2.6.0/library\bignum.c ****     for( i = buflen - 1, j = 0; n > 0; i--, j++, n-- )
 707:C:/Users/lenovo/Desktop/liteos/Project2/BearPi_LiteOS/components/security/mbedtls/mbedtls-2.6.0/library\bignum.c ****         buf[i] = (unsigned char)( X->p[j / ciL] >> ((j % ciL) << 3) );
 708:C:/Users/lenovo/Desktop/liteos/Project2/BearPi_LiteOS/components/security/mbedtls/mbedtls-2.6.0/library\bignum.c **** 
 709:C:/Users/lenovo/Desktop/liteos/Project2/BearPi_LiteOS/components/security/mbedtls/mbedtls-2.6.0/library\bignum.c ****     return( 0 );
 710:C:/Users/lenovo/Desktop/liteos/Project2/BearPi_LiteOS/components/security/mbedtls/mbedtls-2.6.0/library\bignum.c **** }
 711:C:/Users/lenovo/Desktop/liteos/Project2/BearPi_LiteOS/components/security/mbedtls/mbedtls-2.6.0/library\bignum.c **** 
 712:C:/Users/lenovo/Desktop/liteos/Project2/BearPi_LiteOS/components/security/mbedtls/mbedtls-2.6.0/library\bignum.c **** /*
 713:C:/Users/lenovo/Desktop/liteos/Project2/BearPi_LiteOS/components/security/mbedtls/mbedtls-2.6.0/library\bignum.c ****  * Left-shift: X <<= count
 714:C:/Users/lenovo/Desktop/liteos/Project2/BearPi_LiteOS/components/security/mbedtls/mbedtls-2.6.0/library\bignum.c ****  */
 715:C:/Users/lenovo/Desktop/liteos/Project2/BearPi_LiteOS/components/security/mbedtls/mbedtls-2.6.0/library\bignum.c **** int mbedtls_mpi_shift_l( mbedtls_mpi *X, size_t count )
 716:C:/Users/lenovo/Desktop/liteos/Project2/BearPi_LiteOS/components/security/mbedtls/mbedtls-2.6.0/library\bignum.c **** {
 717:C:/Users/lenovo/Desktop/liteos/Project2/BearPi_LiteOS/components/security/mbedtls/mbedtls-2.6.0/library\bignum.c ****     int ret;
 718:C:/Users/lenovo/Desktop/liteos/Project2/BearPi_LiteOS/components/security/mbedtls/mbedtls-2.6.0/library\bignum.c ****     size_t i, v0, t1;
 719:C:/Users/lenovo/Desktop/liteos/Project2/BearPi_LiteOS/components/security/mbedtls/mbedtls-2.6.0/library\bignum.c ****     mbedtls_mpi_uint r0 = 0, r1;
 720:C:/Users/lenovo/Desktop/liteos/Project2/BearPi_LiteOS/components/security/mbedtls/mbedtls-2.6.0/library\bignum.c **** 
 721:C:/Users/lenovo/Desktop/liteos/Project2/BearPi_LiteOS/components/security/mbedtls/mbedtls-2.6.0/library\bignum.c ****     v0 = count / (biL    );
 722:C:/Users/lenovo/Desktop/liteos/Project2/BearPi_LiteOS/components/security/mbedtls/mbedtls-2.6.0/library\bignum.c ****     t1 = count & (biL - 1);
 723:C:/Users/lenovo/Desktop/liteos/Project2/BearPi_LiteOS/components/security/mbedtls/mbedtls-2.6.0/library\bignum.c **** 
 724:C:/Users/lenovo/Desktop/liteos/Project2/BearPi_LiteOS/components/security/mbedtls/mbedtls-2.6.0/library\bignum.c ****     i = mbedtls_mpi_bitlen( X ) + count;
 725:C:/Users/lenovo/Desktop/liteos/Project2/BearPi_LiteOS/components/security/mbedtls/mbedtls-2.6.0/library\bignum.c **** 
 726:C:/Users/lenovo/Desktop/liteos/Project2/BearPi_LiteOS/components/security/mbedtls/mbedtls-2.6.0/library\bignum.c ****     if( X->n * biL < i )
 727:C:/Users/lenovo/Desktop/liteos/Project2/BearPi_LiteOS/components/security/mbedtls/mbedtls-2.6.0/library\bignum.c ****         MBEDTLS_MPI_CHK( mbedtls_mpi_grow( X, BITS_TO_LIMBS( i ) ) );
 728:C:/Users/lenovo/Desktop/liteos/Project2/BearPi_LiteOS/components/security/mbedtls/mbedtls-2.6.0/library\bignum.c **** 
 729:C:/Users/lenovo/Desktop/liteos/Project2/BearPi_LiteOS/components/security/mbedtls/mbedtls-2.6.0/library\bignum.c ****     ret = 0;
 730:C:/Users/lenovo/Desktop/liteos/Project2/BearPi_LiteOS/components/security/mbedtls/mbedtls-2.6.0/library\bignum.c **** 
 731:C:/Users/lenovo/Desktop/liteos/Project2/BearPi_LiteOS/components/security/mbedtls/mbedtls-2.6.0/library\bignum.c ****     /*
 732:C:/Users/lenovo/Desktop/liteos/Project2/BearPi_LiteOS/components/security/mbedtls/mbedtls-2.6.0/library\bignum.c ****      * shift by count / limb_size
 733:C:/Users/lenovo/Desktop/liteos/Project2/BearPi_LiteOS/components/security/mbedtls/mbedtls-2.6.0/library\bignum.c ****      */
 734:C:/Users/lenovo/Desktop/liteos/Project2/BearPi_LiteOS/components/security/mbedtls/mbedtls-2.6.0/library\bignum.c ****     if( v0 > 0 )
 735:C:/Users/lenovo/Desktop/liteos/Project2/BearPi_LiteOS/components/security/mbedtls/mbedtls-2.6.0/library\bignum.c ****     {
 736:C:/Users/lenovo/Desktop/liteos/Project2/BearPi_LiteOS/components/security/mbedtls/mbedtls-2.6.0/library\bignum.c ****         for( i = X->n; i > v0; i-- )
 737:C:/Users/lenovo/Desktop/liteos/Project2/BearPi_LiteOS/components/security/mbedtls/mbedtls-2.6.0/library\bignum.c ****             X->p[i - 1] = X->p[i - v0 - 1];
 738:C:/Users/lenovo/Desktop/liteos/Project2/BearPi_LiteOS/components/security/mbedtls/mbedtls-2.6.0/library\bignum.c **** 
 739:C:/Users/lenovo/Desktop/liteos/Project2/BearPi_LiteOS/components/security/mbedtls/mbedtls-2.6.0/library\bignum.c ****         for( ; i > 0; i-- )
 740:C:/Users/lenovo/Desktop/liteos/Project2/BearPi_LiteOS/components/security/mbedtls/mbedtls-2.6.0/library\bignum.c ****             X->p[i - 1] = 0;
 741:C:/Users/lenovo/Desktop/liteos/Project2/BearPi_LiteOS/components/security/mbedtls/mbedtls-2.6.0/library\bignum.c ****     }
 742:C:/Users/lenovo/Desktop/liteos/Project2/BearPi_LiteOS/components/security/mbedtls/mbedtls-2.6.0/library\bignum.c **** 
 743:C:/Users/lenovo/Desktop/liteos/Project2/BearPi_LiteOS/components/security/mbedtls/mbedtls-2.6.0/library\bignum.c ****     /*
 744:C:/Users/lenovo/Desktop/liteos/Project2/BearPi_LiteOS/components/security/mbedtls/mbedtls-2.6.0/library\bignum.c ****      * shift by count % limb_size
 745:C:/Users/lenovo/Desktop/liteos/Project2/BearPi_LiteOS/components/security/mbedtls/mbedtls-2.6.0/library\bignum.c ****      */
 746:C:/Users/lenovo/Desktop/liteos/Project2/BearPi_LiteOS/components/security/mbedtls/mbedtls-2.6.0/library\bignum.c ****     if( t1 > 0 )
 747:C:/Users/lenovo/Desktop/liteos/Project2/BearPi_LiteOS/components/security/mbedtls/mbedtls-2.6.0/library\bignum.c ****     {
 748:C:/Users/lenovo/Desktop/liteos/Project2/BearPi_LiteOS/components/security/mbedtls/mbedtls-2.6.0/library\bignum.c ****         for( i = v0; i < X->n; i++ )
ARM GAS  c:\Users\lenovo\AppData\Local\Temp\ccjcyTZ0.s 			page 17


 749:C:/Users/lenovo/Desktop/liteos/Project2/BearPi_LiteOS/components/security/mbedtls/mbedtls-2.6.0/library\bignum.c ****         {
 750:C:/Users/lenovo/Desktop/liteos/Project2/BearPi_LiteOS/components/security/mbedtls/mbedtls-2.6.0/library\bignum.c ****             r1 = X->p[i] >> (biL - t1);
 751:C:/Users/lenovo/Desktop/liteos/Project2/BearPi_LiteOS/components/security/mbedtls/mbedtls-2.6.0/library\bignum.c ****             X->p[i] <<= t1;
 752:C:/Users/lenovo/Desktop/liteos/Project2/BearPi_LiteOS/components/security/mbedtls/mbedtls-2.6.0/library\bignum.c ****             X->p[i] |= r0;
 753:C:/Users/lenovo/Desktop/liteos/Project2/BearPi_LiteOS/components/security/mbedtls/mbedtls-2.6.0/library\bignum.c ****             r0 = r1;
 754:C:/Users/lenovo/Desktop/liteos/Project2/BearPi_LiteOS/components/security/mbedtls/mbedtls-2.6.0/library\bignum.c ****         }
 755:C:/Users/lenovo/Desktop/liteos/Project2/BearPi_LiteOS/components/security/mbedtls/mbedtls-2.6.0/library\bignum.c ****     }
 756:C:/Users/lenovo/Desktop/liteos/Project2/BearPi_LiteOS/components/security/mbedtls/mbedtls-2.6.0/library\bignum.c **** 
 757:C:/Users/lenovo/Desktop/liteos/Project2/BearPi_LiteOS/components/security/mbedtls/mbedtls-2.6.0/library\bignum.c **** cleanup:
 758:C:/Users/lenovo/Desktop/liteos/Project2/BearPi_LiteOS/components/security/mbedtls/mbedtls-2.6.0/library\bignum.c **** 
 759:C:/Users/lenovo/Desktop/liteos/Project2/BearPi_LiteOS/components/security/mbedtls/mbedtls-2.6.0/library\bignum.c ****     return( ret );
 760:C:/Users/lenovo/Desktop/liteos/Project2/BearPi_LiteOS/components/security/mbedtls/mbedtls-2.6.0/library\bignum.c **** }
 761:C:/Users/lenovo/Desktop/liteos/Project2/BearPi_LiteOS/components/security/mbedtls/mbedtls-2.6.0/library\bignum.c **** 
 762:C:/Users/lenovo/Desktop/liteos/Project2/BearPi_LiteOS/components/security/mbedtls/mbedtls-2.6.0/library\bignum.c **** /*
 763:C:/Users/lenovo/Desktop/liteos/Project2/BearPi_LiteOS/components/security/mbedtls/mbedtls-2.6.0/library\bignum.c ****  * Right-shift: X >>= count
 764:C:/Users/lenovo/Desktop/liteos/Project2/BearPi_LiteOS/components/security/mbedtls/mbedtls-2.6.0/library\bignum.c ****  */
 765:C:/Users/lenovo/Desktop/liteos/Project2/BearPi_LiteOS/components/security/mbedtls/mbedtls-2.6.0/library\bignum.c **** int mbedtls_mpi_shift_r( mbedtls_mpi *X, size_t count )
 766:C:/Users/lenovo/Desktop/liteos/Project2/BearPi_LiteOS/components/security/mbedtls/mbedtls-2.6.0/library\bignum.c **** {
 767:C:/Users/lenovo/Desktop/liteos/Project2/BearPi_LiteOS/components/security/mbedtls/mbedtls-2.6.0/library\bignum.c ****     size_t i, v0, v1;
 768:C:/Users/lenovo/Desktop/liteos/Project2/BearPi_LiteOS/components/security/mbedtls/mbedtls-2.6.0/library\bignum.c ****     mbedtls_mpi_uint r0 = 0, r1;
 769:C:/Users/lenovo/Desktop/liteos/Project2/BearPi_LiteOS/components/security/mbedtls/mbedtls-2.6.0/library\bignum.c **** 
 770:C:/Users/lenovo/Desktop/liteos/Project2/BearPi_LiteOS/components/security/mbedtls/mbedtls-2.6.0/library\bignum.c ****     v0 = count /  biL;
 771:C:/Users/lenovo/Desktop/liteos/Project2/BearPi_LiteOS/components/security/mbedtls/mbedtls-2.6.0/library\bignum.c ****     v1 = count & (biL - 1);
 772:C:/Users/lenovo/Desktop/liteos/Project2/BearPi_LiteOS/components/security/mbedtls/mbedtls-2.6.0/library\bignum.c **** 
 773:C:/Users/lenovo/Desktop/liteos/Project2/BearPi_LiteOS/components/security/mbedtls/mbedtls-2.6.0/library\bignum.c ****     if( v0 > X->n || ( v0 == X->n && v1 > 0 ) )
 774:C:/Users/lenovo/Desktop/liteos/Project2/BearPi_LiteOS/components/security/mbedtls/mbedtls-2.6.0/library\bignum.c ****         return mbedtls_mpi_lset( X, 0 );
 775:C:/Users/lenovo/Desktop/liteos/Project2/BearPi_LiteOS/components/security/mbedtls/mbedtls-2.6.0/library\bignum.c **** 
 776:C:/Users/lenovo/Desktop/liteos/Project2/BearPi_LiteOS/components/security/mbedtls/mbedtls-2.6.0/library\bignum.c ****     /*
 777:C:/Users/lenovo/Desktop/liteos/Project2/BearPi_LiteOS/components/security/mbedtls/mbedtls-2.6.0/library\bignum.c ****      * shift by count / limb_size
 778:C:/Users/lenovo/Desktop/liteos/Project2/BearPi_LiteOS/components/security/mbedtls/mbedtls-2.6.0/library\bignum.c ****      */
 779:C:/Users/lenovo/Desktop/liteos/Project2/BearPi_LiteOS/components/security/mbedtls/mbedtls-2.6.0/library\bignum.c ****     if( v0 > 0 )
 780:C:/Users/lenovo/Desktop/liteos/Project2/BearPi_LiteOS/components/security/mbedtls/mbedtls-2.6.0/library\bignum.c ****     {
 781:C:/Users/lenovo/Desktop/liteos/Project2/BearPi_LiteOS/components/security/mbedtls/mbedtls-2.6.0/library\bignum.c ****         for( i = 0; i < X->n - v0; i++ )
 782:C:/Users/lenovo/Desktop/liteos/Project2/BearPi_LiteOS/components/security/mbedtls/mbedtls-2.6.0/library\bignum.c ****             X->p[i] = X->p[i + v0];
 783:C:/Users/lenovo/Desktop/liteos/Project2/BearPi_LiteOS/components/security/mbedtls/mbedtls-2.6.0/library\bignum.c **** 
 784:C:/Users/lenovo/Desktop/liteos/Project2/BearPi_LiteOS/components/security/mbedtls/mbedtls-2.6.0/library\bignum.c ****         for( ; i < X->n; i++ )
 785:C:/Users/lenovo/Desktop/liteos/Project2/BearPi_LiteOS/components/security/mbedtls/mbedtls-2.6.0/library\bignum.c ****             X->p[i] = 0;
 786:C:/Users/lenovo/Desktop/liteos/Project2/BearPi_LiteOS/components/security/mbedtls/mbedtls-2.6.0/library\bignum.c ****     }
 787:C:/Users/lenovo/Desktop/liteos/Project2/BearPi_LiteOS/components/security/mbedtls/mbedtls-2.6.0/library\bignum.c **** 
 788:C:/Users/lenovo/Desktop/liteos/Project2/BearPi_LiteOS/components/security/mbedtls/mbedtls-2.6.0/library\bignum.c ****     /*
 789:C:/Users/lenovo/Desktop/liteos/Project2/BearPi_LiteOS/components/security/mbedtls/mbedtls-2.6.0/library\bignum.c ****      * shift by count % limb_size
 790:C:/Users/lenovo/Desktop/liteos/Project2/BearPi_LiteOS/components/security/mbedtls/mbedtls-2.6.0/library\bignum.c ****      */
 791:C:/Users/lenovo/Desktop/liteos/Project2/BearPi_LiteOS/components/security/mbedtls/mbedtls-2.6.0/library\bignum.c ****     if( v1 > 0 )
 792:C:/Users/lenovo/Desktop/liteos/Project2/BearPi_LiteOS/components/security/mbedtls/mbedtls-2.6.0/library\bignum.c ****     {
 793:C:/Users/lenovo/Desktop/liteos/Project2/BearPi_LiteOS/components/security/mbedtls/mbedtls-2.6.0/library\bignum.c ****         for( i = X->n; i > 0; i-- )
 794:C:/Users/lenovo/Desktop/liteos/Project2/BearPi_LiteOS/components/security/mbedtls/mbedtls-2.6.0/library\bignum.c ****         {
 795:C:/Users/lenovo/Desktop/liteos/Project2/BearPi_LiteOS/components/security/mbedtls/mbedtls-2.6.0/library\bignum.c ****             r1 = X->p[i - 1] << (biL - v1);
 796:C:/Users/lenovo/Desktop/liteos/Project2/BearPi_LiteOS/components/security/mbedtls/mbedtls-2.6.0/library\bignum.c ****             X->p[i - 1] >>= v1;
 797:C:/Users/lenovo/Desktop/liteos/Project2/BearPi_LiteOS/components/security/mbedtls/mbedtls-2.6.0/library\bignum.c ****             X->p[i - 1] |= r0;
 798:C:/Users/lenovo/Desktop/liteos/Project2/BearPi_LiteOS/components/security/mbedtls/mbedtls-2.6.0/library\bignum.c ****             r0 = r1;
 799:C:/Users/lenovo/Desktop/liteos/Project2/BearPi_LiteOS/components/security/mbedtls/mbedtls-2.6.0/library\bignum.c ****         }
 800:C:/Users/lenovo/Desktop/liteos/Project2/BearPi_LiteOS/components/security/mbedtls/mbedtls-2.6.0/library\bignum.c ****     }
 801:C:/Users/lenovo/Desktop/liteos/Project2/BearPi_LiteOS/components/security/mbedtls/mbedtls-2.6.0/library\bignum.c **** 
 802:C:/Users/lenovo/Desktop/liteos/Project2/BearPi_LiteOS/components/security/mbedtls/mbedtls-2.6.0/library\bignum.c ****     return( 0 );
 803:C:/Users/lenovo/Desktop/liteos/Project2/BearPi_LiteOS/components/security/mbedtls/mbedtls-2.6.0/library\bignum.c **** }
 804:C:/Users/lenovo/Desktop/liteos/Project2/BearPi_LiteOS/components/security/mbedtls/mbedtls-2.6.0/library\bignum.c **** 
 805:C:/Users/lenovo/Desktop/liteos/Project2/BearPi_LiteOS/components/security/mbedtls/mbedtls-2.6.0/library\bignum.c **** /*
ARM GAS  c:\Users\lenovo\AppData\Local\Temp\ccjcyTZ0.s 			page 18


 806:C:/Users/lenovo/Desktop/liteos/Project2/BearPi_LiteOS/components/security/mbedtls/mbedtls-2.6.0/library\bignum.c ****  * Compare unsigned values
 807:C:/Users/lenovo/Desktop/liteos/Project2/BearPi_LiteOS/components/security/mbedtls/mbedtls-2.6.0/library\bignum.c ****  */
 808:C:/Users/lenovo/Desktop/liteos/Project2/BearPi_LiteOS/components/security/mbedtls/mbedtls-2.6.0/library\bignum.c **** int mbedtls_mpi_cmp_abs( const mbedtls_mpi *X, const mbedtls_mpi *Y )
 809:C:/Users/lenovo/Desktop/liteos/Project2/BearPi_LiteOS/components/security/mbedtls/mbedtls-2.6.0/library\bignum.c **** {
 810:C:/Users/lenovo/Desktop/liteos/Project2/BearPi_LiteOS/components/security/mbedtls/mbedtls-2.6.0/library\bignum.c ****     size_t i, j;
 811:C:/Users/lenovo/Desktop/liteos/Project2/BearPi_LiteOS/components/security/mbedtls/mbedtls-2.6.0/library\bignum.c **** 
 812:C:/Users/lenovo/Desktop/liteos/Project2/BearPi_LiteOS/components/security/mbedtls/mbedtls-2.6.0/library\bignum.c ****     for( i = X->n; i > 0; i-- )
 813:C:/Users/lenovo/Desktop/liteos/Project2/BearPi_LiteOS/components/security/mbedtls/mbedtls-2.6.0/library\bignum.c ****         if( X->p[i - 1] != 0 )
 814:C:/Users/lenovo/Desktop/liteos/Project2/BearPi_LiteOS/components/security/mbedtls/mbedtls-2.6.0/library\bignum.c ****             break;
 815:C:/Users/lenovo/Desktop/liteos/Project2/BearPi_LiteOS/components/security/mbedtls/mbedtls-2.6.0/library\bignum.c **** 
 816:C:/Users/lenovo/Desktop/liteos/Project2/BearPi_LiteOS/components/security/mbedtls/mbedtls-2.6.0/library\bignum.c ****     for( j = Y->n; j > 0; j-- )
 817:C:/Users/lenovo/Desktop/liteos/Project2/BearPi_LiteOS/components/security/mbedtls/mbedtls-2.6.0/library\bignum.c ****         if( Y->p[j - 1] != 0 )
 818:C:/Users/lenovo/Desktop/liteos/Project2/BearPi_LiteOS/components/security/mbedtls/mbedtls-2.6.0/library\bignum.c ****             break;
 819:C:/Users/lenovo/Desktop/liteos/Project2/BearPi_LiteOS/components/security/mbedtls/mbedtls-2.6.0/library\bignum.c **** 
 820:C:/Users/lenovo/Desktop/liteos/Project2/BearPi_LiteOS/components/security/mbedtls/mbedtls-2.6.0/library\bignum.c ****     if( i == 0 && j == 0 )
 821:C:/Users/lenovo/Desktop/liteos/Project2/BearPi_LiteOS/components/security/mbedtls/mbedtls-2.6.0/library\bignum.c ****         return( 0 );
 822:C:/Users/lenovo/Desktop/liteos/Project2/BearPi_LiteOS/components/security/mbedtls/mbedtls-2.6.0/library\bignum.c **** 
 823:C:/Users/lenovo/Desktop/liteos/Project2/BearPi_LiteOS/components/security/mbedtls/mbedtls-2.6.0/library\bignum.c ****     if( i > j ) return(  1 );
 824:C:/Users/lenovo/Desktop/liteos/Project2/BearPi_LiteOS/components/security/mbedtls/mbedtls-2.6.0/library\bignum.c ****     if( j > i ) return( -1 );
 825:C:/Users/lenovo/Desktop/liteos/Project2/BearPi_LiteOS/components/security/mbedtls/mbedtls-2.6.0/library\bignum.c **** 
 826:C:/Users/lenovo/Desktop/liteos/Project2/BearPi_LiteOS/components/security/mbedtls/mbedtls-2.6.0/library\bignum.c ****     for( ; i > 0; i-- )
 827:C:/Users/lenovo/Desktop/liteos/Project2/BearPi_LiteOS/components/security/mbedtls/mbedtls-2.6.0/library\bignum.c ****     {
 828:C:/Users/lenovo/Desktop/liteos/Project2/BearPi_LiteOS/components/security/mbedtls/mbedtls-2.6.0/library\bignum.c ****         if( X->p[i - 1] > Y->p[i - 1] ) return(  1 );
 829:C:/Users/lenovo/Desktop/liteos/Project2/BearPi_LiteOS/components/security/mbedtls/mbedtls-2.6.0/library\bignum.c ****         if( X->p[i - 1] < Y->p[i - 1] ) return( -1 );
 830:C:/Users/lenovo/Desktop/liteos/Project2/BearPi_LiteOS/components/security/mbedtls/mbedtls-2.6.0/library\bignum.c ****     }
 831:C:/Users/lenovo/Desktop/liteos/Project2/BearPi_LiteOS/components/security/mbedtls/mbedtls-2.6.0/library\bignum.c **** 
 832:C:/Users/lenovo/Desktop/liteos/Project2/BearPi_LiteOS/components/security/mbedtls/mbedtls-2.6.0/library\bignum.c ****     return( 0 );
 833:C:/Users/lenovo/Desktop/liteos/Project2/BearPi_LiteOS/components/security/mbedtls/mbedtls-2.6.0/library\bignum.c **** }
 834:C:/Users/lenovo/Desktop/liteos/Project2/BearPi_LiteOS/components/security/mbedtls/mbedtls-2.6.0/library\bignum.c **** 
 835:C:/Users/lenovo/Desktop/liteos/Project2/BearPi_LiteOS/components/security/mbedtls/mbedtls-2.6.0/library\bignum.c **** /*
 836:C:/Users/lenovo/Desktop/liteos/Project2/BearPi_LiteOS/components/security/mbedtls/mbedtls-2.6.0/library\bignum.c ****  * Compare signed values
 837:C:/Users/lenovo/Desktop/liteos/Project2/BearPi_LiteOS/components/security/mbedtls/mbedtls-2.6.0/library\bignum.c ****  */
 838:C:/Users/lenovo/Desktop/liteos/Project2/BearPi_LiteOS/components/security/mbedtls/mbedtls-2.6.0/library\bignum.c **** int mbedtls_mpi_cmp_mpi( const mbedtls_mpi *X, const mbedtls_mpi *Y )
 839:C:/Users/lenovo/Desktop/liteos/Project2/BearPi_LiteOS/components/security/mbedtls/mbedtls-2.6.0/library\bignum.c **** {
 840:C:/Users/lenovo/Desktop/liteos/Project2/BearPi_LiteOS/components/security/mbedtls/mbedtls-2.6.0/library\bignum.c ****     size_t i, j;
 841:C:/Users/lenovo/Desktop/liteos/Project2/BearPi_LiteOS/components/security/mbedtls/mbedtls-2.6.0/library\bignum.c **** 
 842:C:/Users/lenovo/Desktop/liteos/Project2/BearPi_LiteOS/components/security/mbedtls/mbedtls-2.6.0/library\bignum.c ****     for( i = X->n; i > 0; i-- )
 843:C:/Users/lenovo/Desktop/liteos/Project2/BearPi_LiteOS/components/security/mbedtls/mbedtls-2.6.0/library\bignum.c ****         if( X->p[i - 1] != 0 )
 844:C:/Users/lenovo/Desktop/liteos/Project2/BearPi_LiteOS/components/security/mbedtls/mbedtls-2.6.0/library\bignum.c ****             break;
 845:C:/Users/lenovo/Desktop/liteos/Project2/BearPi_LiteOS/components/security/mbedtls/mbedtls-2.6.0/library\bignum.c **** 
 846:C:/Users/lenovo/Desktop/liteos/Project2/BearPi_LiteOS/components/security/mbedtls/mbedtls-2.6.0/library\bignum.c ****     for( j = Y->n; j > 0; j-- )
 847:C:/Users/lenovo/Desktop/liteos/Project2/BearPi_LiteOS/components/security/mbedtls/mbedtls-2.6.0/library\bignum.c ****         if( Y->p[j - 1] != 0 )
 848:C:/Users/lenovo/Desktop/liteos/Project2/BearPi_LiteOS/components/security/mbedtls/mbedtls-2.6.0/library\bignum.c ****             break;
 849:C:/Users/lenovo/Desktop/liteos/Project2/BearPi_LiteOS/components/security/mbedtls/mbedtls-2.6.0/library\bignum.c **** 
 850:C:/Users/lenovo/Desktop/liteos/Project2/BearPi_LiteOS/components/security/mbedtls/mbedtls-2.6.0/library\bignum.c ****     if( i == 0 && j == 0 )
 851:C:/Users/lenovo/Desktop/liteos/Project2/BearPi_LiteOS/components/security/mbedtls/mbedtls-2.6.0/library\bignum.c ****         return( 0 );
 852:C:/Users/lenovo/Desktop/liteos/Project2/BearPi_LiteOS/components/security/mbedtls/mbedtls-2.6.0/library\bignum.c **** 
 853:C:/Users/lenovo/Desktop/liteos/Project2/BearPi_LiteOS/components/security/mbedtls/mbedtls-2.6.0/library\bignum.c ****     if( i > j ) return(  X->s );
 854:C:/Users/lenovo/Desktop/liteos/Project2/BearPi_LiteOS/components/security/mbedtls/mbedtls-2.6.0/library\bignum.c ****     if( j > i ) return( -Y->s );
 855:C:/Users/lenovo/Desktop/liteos/Project2/BearPi_LiteOS/components/security/mbedtls/mbedtls-2.6.0/library\bignum.c **** 
 856:C:/Users/lenovo/Desktop/liteos/Project2/BearPi_LiteOS/components/security/mbedtls/mbedtls-2.6.0/library\bignum.c ****     if( X->s > 0 && Y->s < 0 ) return(  1 );
 857:C:/Users/lenovo/Desktop/liteos/Project2/BearPi_LiteOS/components/security/mbedtls/mbedtls-2.6.0/library\bignum.c ****     if( Y->s > 0 && X->s < 0 ) return( -1 );
 858:C:/Users/lenovo/Desktop/liteos/Project2/BearPi_LiteOS/components/security/mbedtls/mbedtls-2.6.0/library\bignum.c **** 
 859:C:/Users/lenovo/Desktop/liteos/Project2/BearPi_LiteOS/components/security/mbedtls/mbedtls-2.6.0/library\bignum.c ****     for( ; i > 0; i-- )
 860:C:/Users/lenovo/Desktop/liteos/Project2/BearPi_LiteOS/components/security/mbedtls/mbedtls-2.6.0/library\bignum.c ****     {
 861:C:/Users/lenovo/Desktop/liteos/Project2/BearPi_LiteOS/components/security/mbedtls/mbedtls-2.6.0/library\bignum.c ****         if( X->p[i - 1] > Y->p[i - 1] ) return(  X->s );
 862:C:/Users/lenovo/Desktop/liteos/Project2/BearPi_LiteOS/components/security/mbedtls/mbedtls-2.6.0/library\bignum.c ****         if( X->p[i - 1] < Y->p[i - 1] ) return( -X->s );
ARM GAS  c:\Users\lenovo\AppData\Local\Temp\ccjcyTZ0.s 			page 19


 863:C:/Users/lenovo/Desktop/liteos/Project2/BearPi_LiteOS/components/security/mbedtls/mbedtls-2.6.0/library\bignum.c ****     }
 864:C:/Users/lenovo/Desktop/liteos/Project2/BearPi_LiteOS/components/security/mbedtls/mbedtls-2.6.0/library\bignum.c **** 
 865:C:/Users/lenovo/Desktop/liteos/Project2/BearPi_LiteOS/components/security/mbedtls/mbedtls-2.6.0/library\bignum.c ****     return( 0 );
 866:C:/Users/lenovo/Desktop/liteos/Project2/BearPi_LiteOS/components/security/mbedtls/mbedtls-2.6.0/library\bignum.c **** }
 867:C:/Users/lenovo/Desktop/liteos/Project2/BearPi_LiteOS/components/security/mbedtls/mbedtls-2.6.0/library\bignum.c **** 
 868:C:/Users/lenovo/Desktop/liteos/Project2/BearPi_LiteOS/components/security/mbedtls/mbedtls-2.6.0/library\bignum.c **** /*
 869:C:/Users/lenovo/Desktop/liteos/Project2/BearPi_LiteOS/components/security/mbedtls/mbedtls-2.6.0/library\bignum.c ****  * Compare signed values
 870:C:/Users/lenovo/Desktop/liteos/Project2/BearPi_LiteOS/components/security/mbedtls/mbedtls-2.6.0/library\bignum.c ****  */
 871:C:/Users/lenovo/Desktop/liteos/Project2/BearPi_LiteOS/components/security/mbedtls/mbedtls-2.6.0/library\bignum.c **** int mbedtls_mpi_cmp_int( const mbedtls_mpi *X, mbedtls_mpi_sint z )
 872:C:/Users/lenovo/Desktop/liteos/Project2/BearPi_LiteOS/components/security/mbedtls/mbedtls-2.6.0/library\bignum.c **** {
 873:C:/Users/lenovo/Desktop/liteos/Project2/BearPi_LiteOS/components/security/mbedtls/mbedtls-2.6.0/library\bignum.c ****     mbedtls_mpi Y;
 874:C:/Users/lenovo/Desktop/liteos/Project2/BearPi_LiteOS/components/security/mbedtls/mbedtls-2.6.0/library\bignum.c ****     mbedtls_mpi_uint p[1];
 875:C:/Users/lenovo/Desktop/liteos/Project2/BearPi_LiteOS/components/security/mbedtls/mbedtls-2.6.0/library\bignum.c **** 
 876:C:/Users/lenovo/Desktop/liteos/Project2/BearPi_LiteOS/components/security/mbedtls/mbedtls-2.6.0/library\bignum.c ****     *p  = ( z < 0 ) ? -z : z;
 877:C:/Users/lenovo/Desktop/liteos/Project2/BearPi_LiteOS/components/security/mbedtls/mbedtls-2.6.0/library\bignum.c ****     Y.s = ( z < 0 ) ? -1 : 1;
 878:C:/Users/lenovo/Desktop/liteos/Project2/BearPi_LiteOS/components/security/mbedtls/mbedtls-2.6.0/library\bignum.c ****     Y.n = 1;
 879:C:/Users/lenovo/Desktop/liteos/Project2/BearPi_LiteOS/components/security/mbedtls/mbedtls-2.6.0/library\bignum.c ****     Y.p = p;
 880:C:/Users/lenovo/Desktop/liteos/Project2/BearPi_LiteOS/components/security/mbedtls/mbedtls-2.6.0/library\bignum.c **** 
 881:C:/Users/lenovo/Desktop/liteos/Project2/BearPi_LiteOS/components/security/mbedtls/mbedtls-2.6.0/library\bignum.c ****     return( mbedtls_mpi_cmp_mpi( X, &Y ) );
 882:C:/Users/lenovo/Desktop/liteos/Project2/BearPi_LiteOS/components/security/mbedtls/mbedtls-2.6.0/library\bignum.c **** }
 883:C:/Users/lenovo/Desktop/liteos/Project2/BearPi_LiteOS/components/security/mbedtls/mbedtls-2.6.0/library\bignum.c **** 
 884:C:/Users/lenovo/Desktop/liteos/Project2/BearPi_LiteOS/components/security/mbedtls/mbedtls-2.6.0/library\bignum.c **** /*
 885:C:/Users/lenovo/Desktop/liteos/Project2/BearPi_LiteOS/components/security/mbedtls/mbedtls-2.6.0/library\bignum.c ****  * Unsigned addition: X = |A| + |B|  (HAC 14.7)
 886:C:/Users/lenovo/Desktop/liteos/Project2/BearPi_LiteOS/components/security/mbedtls/mbedtls-2.6.0/library\bignum.c ****  */
 887:C:/Users/lenovo/Desktop/liteos/Project2/BearPi_LiteOS/components/security/mbedtls/mbedtls-2.6.0/library\bignum.c **** int mbedtls_mpi_add_abs( mbedtls_mpi *X, const mbedtls_mpi *A, const mbedtls_mpi *B )
 888:C:/Users/lenovo/Desktop/liteos/Project2/BearPi_LiteOS/components/security/mbedtls/mbedtls-2.6.0/library\bignum.c **** {
 889:C:/Users/lenovo/Desktop/liteos/Project2/BearPi_LiteOS/components/security/mbedtls/mbedtls-2.6.0/library\bignum.c ****     int ret;
 890:C:/Users/lenovo/Desktop/liteos/Project2/BearPi_LiteOS/components/security/mbedtls/mbedtls-2.6.0/library\bignum.c ****     size_t i, j;
 891:C:/Users/lenovo/Desktop/liteos/Project2/BearPi_LiteOS/components/security/mbedtls/mbedtls-2.6.0/library\bignum.c ****     mbedtls_mpi_uint *o, *p, c, tmp;
 892:C:/Users/lenovo/Desktop/liteos/Project2/BearPi_LiteOS/components/security/mbedtls/mbedtls-2.6.0/library\bignum.c **** 
 893:C:/Users/lenovo/Desktop/liteos/Project2/BearPi_LiteOS/components/security/mbedtls/mbedtls-2.6.0/library\bignum.c ****     if( X == B )
 894:C:/Users/lenovo/Desktop/liteos/Project2/BearPi_LiteOS/components/security/mbedtls/mbedtls-2.6.0/library\bignum.c ****     {
 895:C:/Users/lenovo/Desktop/liteos/Project2/BearPi_LiteOS/components/security/mbedtls/mbedtls-2.6.0/library\bignum.c ****         const mbedtls_mpi *T = A; A = X; B = T;
 896:C:/Users/lenovo/Desktop/liteos/Project2/BearPi_LiteOS/components/security/mbedtls/mbedtls-2.6.0/library\bignum.c ****     }
 897:C:/Users/lenovo/Desktop/liteos/Project2/BearPi_LiteOS/components/security/mbedtls/mbedtls-2.6.0/library\bignum.c **** 
 898:C:/Users/lenovo/Desktop/liteos/Project2/BearPi_LiteOS/components/security/mbedtls/mbedtls-2.6.0/library\bignum.c ****     if( X != A )
 899:C:/Users/lenovo/Desktop/liteos/Project2/BearPi_LiteOS/components/security/mbedtls/mbedtls-2.6.0/library\bignum.c ****         MBEDTLS_MPI_CHK( mbedtls_mpi_copy( X, A ) );
 900:C:/Users/lenovo/Desktop/liteos/Project2/BearPi_LiteOS/components/security/mbedtls/mbedtls-2.6.0/library\bignum.c **** 
 901:C:/Users/lenovo/Desktop/liteos/Project2/BearPi_LiteOS/components/security/mbedtls/mbedtls-2.6.0/library\bignum.c ****     /*
 902:C:/Users/lenovo/Desktop/liteos/Project2/BearPi_LiteOS/components/security/mbedtls/mbedtls-2.6.0/library\bignum.c ****      * X should always be positive as a result of unsigned additions.
 903:C:/Users/lenovo/Desktop/liteos/Project2/BearPi_LiteOS/components/security/mbedtls/mbedtls-2.6.0/library\bignum.c ****      */
 904:C:/Users/lenovo/Desktop/liteos/Project2/BearPi_LiteOS/components/security/mbedtls/mbedtls-2.6.0/library\bignum.c ****     X->s = 1;
 905:C:/Users/lenovo/Desktop/liteos/Project2/BearPi_LiteOS/components/security/mbedtls/mbedtls-2.6.0/library\bignum.c **** 
 906:C:/Users/lenovo/Desktop/liteos/Project2/BearPi_LiteOS/components/security/mbedtls/mbedtls-2.6.0/library\bignum.c ****     for( j = B->n; j > 0; j-- )
 907:C:/Users/lenovo/Desktop/liteos/Project2/BearPi_LiteOS/components/security/mbedtls/mbedtls-2.6.0/library\bignum.c ****         if( B->p[j - 1] != 0 )
 908:C:/Users/lenovo/Desktop/liteos/Project2/BearPi_LiteOS/components/security/mbedtls/mbedtls-2.6.0/library\bignum.c ****             break;
 909:C:/Users/lenovo/Desktop/liteos/Project2/BearPi_LiteOS/components/security/mbedtls/mbedtls-2.6.0/library\bignum.c **** 
 910:C:/Users/lenovo/Desktop/liteos/Project2/BearPi_LiteOS/components/security/mbedtls/mbedtls-2.6.0/library\bignum.c ****     MBEDTLS_MPI_CHK( mbedtls_mpi_grow( X, j ) );
 911:C:/Users/lenovo/Desktop/liteos/Project2/BearPi_LiteOS/components/security/mbedtls/mbedtls-2.6.0/library\bignum.c **** 
 912:C:/Users/lenovo/Desktop/liteos/Project2/BearPi_LiteOS/components/security/mbedtls/mbedtls-2.6.0/library\bignum.c ****     o = B->p; p = X->p; c = 0;
 913:C:/Users/lenovo/Desktop/liteos/Project2/BearPi_LiteOS/components/security/mbedtls/mbedtls-2.6.0/library\bignum.c **** 
 914:C:/Users/lenovo/Desktop/liteos/Project2/BearPi_LiteOS/components/security/mbedtls/mbedtls-2.6.0/library\bignum.c ****     /*
 915:C:/Users/lenovo/Desktop/liteos/Project2/BearPi_LiteOS/components/security/mbedtls/mbedtls-2.6.0/library\bignum.c ****      * tmp is used because it might happen that p == o
 916:C:/Users/lenovo/Desktop/liteos/Project2/BearPi_LiteOS/components/security/mbedtls/mbedtls-2.6.0/library\bignum.c ****      */
 917:C:/Users/lenovo/Desktop/liteos/Project2/BearPi_LiteOS/components/security/mbedtls/mbedtls-2.6.0/library\bignum.c ****     for( i = 0; i < j; i++, o++, p++ )
 918:C:/Users/lenovo/Desktop/liteos/Project2/BearPi_LiteOS/components/security/mbedtls/mbedtls-2.6.0/library\bignum.c ****     {
 919:C:/Users/lenovo/Desktop/liteos/Project2/BearPi_LiteOS/components/security/mbedtls/mbedtls-2.6.0/library\bignum.c ****         tmp= *o;
ARM GAS  c:\Users\lenovo\AppData\Local\Temp\ccjcyTZ0.s 			page 20


 920:C:/Users/lenovo/Desktop/liteos/Project2/BearPi_LiteOS/components/security/mbedtls/mbedtls-2.6.0/library\bignum.c ****         *p +=  c; c  = ( *p <  c );
 921:C:/Users/lenovo/Desktop/liteos/Project2/BearPi_LiteOS/components/security/mbedtls/mbedtls-2.6.0/library\bignum.c ****         *p += tmp; c += ( *p < tmp );
 922:C:/Users/lenovo/Desktop/liteos/Project2/BearPi_LiteOS/components/security/mbedtls/mbedtls-2.6.0/library\bignum.c ****     }
 923:C:/Users/lenovo/Desktop/liteos/Project2/BearPi_LiteOS/components/security/mbedtls/mbedtls-2.6.0/library\bignum.c **** 
 924:C:/Users/lenovo/Desktop/liteos/Project2/BearPi_LiteOS/components/security/mbedtls/mbedtls-2.6.0/library\bignum.c ****     while( c != 0 )
 925:C:/Users/lenovo/Desktop/liteos/Project2/BearPi_LiteOS/components/security/mbedtls/mbedtls-2.6.0/library\bignum.c ****     {
 926:C:/Users/lenovo/Desktop/liteos/Project2/BearPi_LiteOS/components/security/mbedtls/mbedtls-2.6.0/library\bignum.c ****         if( i >= X->n )
 927:C:/Users/lenovo/Desktop/liteos/Project2/BearPi_LiteOS/components/security/mbedtls/mbedtls-2.6.0/library\bignum.c ****         {
 928:C:/Users/lenovo/Desktop/liteos/Project2/BearPi_LiteOS/components/security/mbedtls/mbedtls-2.6.0/library\bignum.c ****             MBEDTLS_MPI_CHK( mbedtls_mpi_grow( X, i + 1 ) );
 929:C:/Users/lenovo/Desktop/liteos/Project2/BearPi_LiteOS/components/security/mbedtls/mbedtls-2.6.0/library\bignum.c ****             p = X->p + i;
 930:C:/Users/lenovo/Desktop/liteos/Project2/BearPi_LiteOS/components/security/mbedtls/mbedtls-2.6.0/library\bignum.c ****         }
 931:C:/Users/lenovo/Desktop/liteos/Project2/BearPi_LiteOS/components/security/mbedtls/mbedtls-2.6.0/library\bignum.c **** 
 932:C:/Users/lenovo/Desktop/liteos/Project2/BearPi_LiteOS/components/security/mbedtls/mbedtls-2.6.0/library\bignum.c ****         *p += c; c = ( *p < c ); i++; p++;
 933:C:/Users/lenovo/Desktop/liteos/Project2/BearPi_LiteOS/components/security/mbedtls/mbedtls-2.6.0/library\bignum.c ****     }
 934:C:/Users/lenovo/Desktop/liteos/Project2/BearPi_LiteOS/components/security/mbedtls/mbedtls-2.6.0/library\bignum.c **** 
 935:C:/Users/lenovo/Desktop/liteos/Project2/BearPi_LiteOS/components/security/mbedtls/mbedtls-2.6.0/library\bignum.c **** cleanup:
 936:C:/Users/lenovo/Desktop/liteos/Project2/BearPi_LiteOS/components/security/mbedtls/mbedtls-2.6.0/library\bignum.c **** 
 937:C:/Users/lenovo/Desktop/liteos/Project2/BearPi_LiteOS/components/security/mbedtls/mbedtls-2.6.0/library\bignum.c ****     return( ret );
 938:C:/Users/lenovo/Desktop/liteos/Project2/BearPi_LiteOS/components/security/mbedtls/mbedtls-2.6.0/library\bignum.c **** }
 939:C:/Users/lenovo/Desktop/liteos/Project2/BearPi_LiteOS/components/security/mbedtls/mbedtls-2.6.0/library\bignum.c **** 
 940:C:/Users/lenovo/Desktop/liteos/Project2/BearPi_LiteOS/components/security/mbedtls/mbedtls-2.6.0/library\bignum.c **** /*
 941:C:/Users/lenovo/Desktop/liteos/Project2/BearPi_LiteOS/components/security/mbedtls/mbedtls-2.6.0/library\bignum.c ****  * Helper for mbedtls_mpi subtraction
 942:C:/Users/lenovo/Desktop/liteos/Project2/BearPi_LiteOS/components/security/mbedtls/mbedtls-2.6.0/library\bignum.c ****  */
 943:C:/Users/lenovo/Desktop/liteos/Project2/BearPi_LiteOS/components/security/mbedtls/mbedtls-2.6.0/library\bignum.c **** static void mpi_sub_hlp( size_t n, mbedtls_mpi_uint *s, mbedtls_mpi_uint *d )
 944:C:/Users/lenovo/Desktop/liteos/Project2/BearPi_LiteOS/components/security/mbedtls/mbedtls-2.6.0/library\bignum.c **** {
 170              		.loc 1 944 0
 171              		.cfi_startproc
 172              		@ args = 0, pretend = 0, frame = 0
 173              		@ frame_needed = 0, uses_anonymous_args = 0
 174              		@ link register save eliminated.
 175              	.LVL15:
 176 0000 F0B4     		push	{r4, r5, r6, r7}
 177              	.LCFI0:
 178              		.cfi_def_cfa_offset 16
 179              		.cfi_offset 4, -16
 180              		.cfi_offset 5, -12
 181              		.cfi_offset 6, -8
 182              		.cfi_offset 7, -4
 183              	.LVL16:
 945:C:/Users/lenovo/Desktop/liteos/Project2/BearPi_LiteOS/components/security/mbedtls/mbedtls-2.6.0/library\bignum.c ****     size_t i;
 946:C:/Users/lenovo/Desktop/liteos/Project2/BearPi_LiteOS/components/security/mbedtls/mbedtls-2.6.0/library\bignum.c ****     mbedtls_mpi_uint c, z;
 947:C:/Users/lenovo/Desktop/liteos/Project2/BearPi_LiteOS/components/security/mbedtls/mbedtls-2.6.0/library\bignum.c **** 
 948:C:/Users/lenovo/Desktop/liteos/Project2/BearPi_LiteOS/components/security/mbedtls/mbedtls-2.6.0/library\bignum.c ****     for( i = c = 0; i < n; i++, s++, d++ )
 184              		.loc 1 948 0
 185 0002 0023     		movs	r3, #0
 186 0004 1D46     		mov	r5, r3
 187 0006 13E0     		b	.L16
 188              	.LVL17:
 189              	.L17:
 949:C:/Users/lenovo/Desktop/liteos/Project2/BearPi_LiteOS/components/security/mbedtls/mbedtls-2.6.0/library\bignum.c ****     {
 950:C:/Users/lenovo/Desktop/liteos/Project2/BearPi_LiteOS/components/security/mbedtls/mbedtls-2.6.0/library\bignum.c ****         z = ( *d <  c );     *d -=  c;
 190              		.loc 1 950 0 discriminator 3
 191 0008 1768     		ldr	r7, [r2]
 192              	.LVL18:
 193 000a FC1A     		subs	r4, r7, r3
 194 000c 1460     		str	r4, [r2]
 951:C:/Users/lenovo/Desktop/liteos/Project2/BearPi_LiteOS/components/security/mbedtls/mbedtls-2.6.0/library\bignum.c ****         c = ( *d < *s ) + z; *d -= *s;
ARM GAS  c:\Users\lenovo\AppData\Local\Temp\ccjcyTZ0.s 			page 21


 195              		.loc 1 951 0 discriminator 3
 196 000e 51F8046B 		ldr	r6, [r1], #4
 197              	.LVL19:
 198 0012 B442     		cmp	r4, r6
 199 0014 2CBF     		ite	cs
 200 0016 4FF0000C 		movcs	ip, #0
 201 001a 4FF0010C 		movcc	ip, #1
 202 001e 9F42     		cmp	r7, r3
 203 0020 2CBF     		ite	cs
 204 0022 6346     		movcs	r3, ip
 205 0024 0CF10103 		addcc	r3, ip, #1
 206              	.LVL20:
 207 0028 A41B     		subs	r4, r4, r6
 208 002a 42F8044B 		str	r4, [r2], #4
 209              	.LVL21:
 948:C:/Users/lenovo/Desktop/liteos/Project2/BearPi_LiteOS/components/security/mbedtls/mbedtls-2.6.0/library\bignum.c ****     {
 210              		.loc 1 948 0 discriminator 3
 211 002e 0135     		adds	r5, r5, #1
 212              	.LVL22:
 213              	.L16:
 948:C:/Users/lenovo/Desktop/liteos/Project2/BearPi_LiteOS/components/security/mbedtls/mbedtls-2.6.0/library\bignum.c ****     {
 214              		.loc 1 948 0 is_stmt 0 discriminator 1
 215 0030 8542     		cmp	r5, r0
 216 0032 E9D3     		bcc	.L17
 217 0034 07E0     		b	.L18
 218              	.LVL23:
 219              	.L19:
 952:C:/Users/lenovo/Desktop/liteos/Project2/BearPi_LiteOS/components/security/mbedtls/mbedtls-2.6.0/library\bignum.c ****     }
 953:C:/Users/lenovo/Desktop/liteos/Project2/BearPi_LiteOS/components/security/mbedtls/mbedtls-2.6.0/library\bignum.c **** 
 954:C:/Users/lenovo/Desktop/liteos/Project2/BearPi_LiteOS/components/security/mbedtls/mbedtls-2.6.0/library\bignum.c ****     while( c != 0 )
 955:C:/Users/lenovo/Desktop/liteos/Project2/BearPi_LiteOS/components/security/mbedtls/mbedtls-2.6.0/library\bignum.c ****     {
 956:C:/Users/lenovo/Desktop/liteos/Project2/BearPi_LiteOS/components/security/mbedtls/mbedtls-2.6.0/library\bignum.c ****         z = ( *d < c ); *d -= c;
 220              		.loc 1 956 0 is_stmt 1
 221 0036 1168     		ldr	r1, [r2]
 222              	.LVL24:
 223 0038 C81A     		subs	r0, r1, r3
 224 003a 42F8040B 		str	r0, [r2], #4
 225              	.LVL25:
 957:C:/Users/lenovo/Desktop/liteos/Project2/BearPi_LiteOS/components/security/mbedtls/mbedtls-2.6.0/library\bignum.c ****         c = z; i++; d++;
 226              		.loc 1 957 0
 227 003e 9942     		cmp	r1, r3
 228 0040 2CBF     		ite	cs
 229 0042 0023     		movcs	r3, #0
 230              	.LVL26:
 231 0044 0123     		movcc	r3, #1
 232              	.L18:
 233              	.LVL27:
 954:C:/Users/lenovo/Desktop/liteos/Project2/BearPi_LiteOS/components/security/mbedtls/mbedtls-2.6.0/library\bignum.c ****     {
 234              		.loc 1 954 0
 235 0046 002B     		cmp	r3, #0
 236 0048 F5D1     		bne	.L19
 958:C:/Users/lenovo/Desktop/liteos/Project2/BearPi_LiteOS/components/security/mbedtls/mbedtls-2.6.0/library\bignum.c ****     }
 959:C:/Users/lenovo/Desktop/liteos/Project2/BearPi_LiteOS/components/security/mbedtls/mbedtls-2.6.0/library\bignum.c **** }
 237              		.loc 1 959 0
 238 004a F0BC     		pop	{r4, r5, r6, r7}
 239              	.LCFI1:
 240              		.cfi_restore 7
ARM GAS  c:\Users\lenovo\AppData\Local\Temp\ccjcyTZ0.s 			page 22


 241              		.cfi_restore 6
 242              		.cfi_restore 5
 243              		.cfi_restore 4
 244              		.cfi_def_cfa_offset 0
 245 004c 7047     		bx	lr
 246              		.cfi_endproc
 247              	.LFE31:
 249              		.section	.text.mpi_mul_hlp,"ax",%progbits
 250              		.align	1
 251              		.syntax unified
 252              		.thumb
 253              		.thumb_func
 254              		.fpu fpv4-sp-d16
 256              	mpi_mul_hlp:
 257              	.LFB37:
 960:C:/Users/lenovo/Desktop/liteos/Project2/BearPi_LiteOS/components/security/mbedtls/mbedtls-2.6.0/library\bignum.c **** 
 961:C:/Users/lenovo/Desktop/liteos/Project2/BearPi_LiteOS/components/security/mbedtls/mbedtls-2.6.0/library\bignum.c **** /*
 962:C:/Users/lenovo/Desktop/liteos/Project2/BearPi_LiteOS/components/security/mbedtls/mbedtls-2.6.0/library\bignum.c ****  * Unsigned subtraction: X = |A| - |B|  (HAC 14.9)
 963:C:/Users/lenovo/Desktop/liteos/Project2/BearPi_LiteOS/components/security/mbedtls/mbedtls-2.6.0/library\bignum.c ****  */
 964:C:/Users/lenovo/Desktop/liteos/Project2/BearPi_LiteOS/components/security/mbedtls/mbedtls-2.6.0/library\bignum.c **** int mbedtls_mpi_sub_abs( mbedtls_mpi *X, const mbedtls_mpi *A, const mbedtls_mpi *B )
 965:C:/Users/lenovo/Desktop/liteos/Project2/BearPi_LiteOS/components/security/mbedtls/mbedtls-2.6.0/library\bignum.c **** {
 966:C:/Users/lenovo/Desktop/liteos/Project2/BearPi_LiteOS/components/security/mbedtls/mbedtls-2.6.0/library\bignum.c ****     mbedtls_mpi TB;
 967:C:/Users/lenovo/Desktop/liteos/Project2/BearPi_LiteOS/components/security/mbedtls/mbedtls-2.6.0/library\bignum.c ****     int ret;
 968:C:/Users/lenovo/Desktop/liteos/Project2/BearPi_LiteOS/components/security/mbedtls/mbedtls-2.6.0/library\bignum.c ****     size_t n;
 969:C:/Users/lenovo/Desktop/liteos/Project2/BearPi_LiteOS/components/security/mbedtls/mbedtls-2.6.0/library\bignum.c **** 
 970:C:/Users/lenovo/Desktop/liteos/Project2/BearPi_LiteOS/components/security/mbedtls/mbedtls-2.6.0/library\bignum.c ****     if( mbedtls_mpi_cmp_abs( A, B ) < 0 )
 971:C:/Users/lenovo/Desktop/liteos/Project2/BearPi_LiteOS/components/security/mbedtls/mbedtls-2.6.0/library\bignum.c ****         return( MBEDTLS_ERR_MPI_NEGATIVE_VALUE );
 972:C:/Users/lenovo/Desktop/liteos/Project2/BearPi_LiteOS/components/security/mbedtls/mbedtls-2.6.0/library\bignum.c **** 
 973:C:/Users/lenovo/Desktop/liteos/Project2/BearPi_LiteOS/components/security/mbedtls/mbedtls-2.6.0/library\bignum.c ****     mbedtls_mpi_init( &TB );
 974:C:/Users/lenovo/Desktop/liteos/Project2/BearPi_LiteOS/components/security/mbedtls/mbedtls-2.6.0/library\bignum.c **** 
 975:C:/Users/lenovo/Desktop/liteos/Project2/BearPi_LiteOS/components/security/mbedtls/mbedtls-2.6.0/library\bignum.c ****     if( X == B )
 976:C:/Users/lenovo/Desktop/liteos/Project2/BearPi_LiteOS/components/security/mbedtls/mbedtls-2.6.0/library\bignum.c ****     {
 977:C:/Users/lenovo/Desktop/liteos/Project2/BearPi_LiteOS/components/security/mbedtls/mbedtls-2.6.0/library\bignum.c ****         MBEDTLS_MPI_CHK( mbedtls_mpi_copy( &TB, B ) );
 978:C:/Users/lenovo/Desktop/liteos/Project2/BearPi_LiteOS/components/security/mbedtls/mbedtls-2.6.0/library\bignum.c ****         B = &TB;
 979:C:/Users/lenovo/Desktop/liteos/Project2/BearPi_LiteOS/components/security/mbedtls/mbedtls-2.6.0/library\bignum.c ****     }
 980:C:/Users/lenovo/Desktop/liteos/Project2/BearPi_LiteOS/components/security/mbedtls/mbedtls-2.6.0/library\bignum.c **** 
 981:C:/Users/lenovo/Desktop/liteos/Project2/BearPi_LiteOS/components/security/mbedtls/mbedtls-2.6.0/library\bignum.c ****     if( X != A )
 982:C:/Users/lenovo/Desktop/liteos/Project2/BearPi_LiteOS/components/security/mbedtls/mbedtls-2.6.0/library\bignum.c ****         MBEDTLS_MPI_CHK( mbedtls_mpi_copy( X, A ) );
 983:C:/Users/lenovo/Desktop/liteos/Project2/BearPi_LiteOS/components/security/mbedtls/mbedtls-2.6.0/library\bignum.c **** 
 984:C:/Users/lenovo/Desktop/liteos/Project2/BearPi_LiteOS/components/security/mbedtls/mbedtls-2.6.0/library\bignum.c ****     /*
 985:C:/Users/lenovo/Desktop/liteos/Project2/BearPi_LiteOS/components/security/mbedtls/mbedtls-2.6.0/library\bignum.c ****      * X should always be positive as a result of unsigned subtractions.
 986:C:/Users/lenovo/Desktop/liteos/Project2/BearPi_LiteOS/components/security/mbedtls/mbedtls-2.6.0/library\bignum.c ****      */
 987:C:/Users/lenovo/Desktop/liteos/Project2/BearPi_LiteOS/components/security/mbedtls/mbedtls-2.6.0/library\bignum.c ****     X->s = 1;
 988:C:/Users/lenovo/Desktop/liteos/Project2/BearPi_LiteOS/components/security/mbedtls/mbedtls-2.6.0/library\bignum.c **** 
 989:C:/Users/lenovo/Desktop/liteos/Project2/BearPi_LiteOS/components/security/mbedtls/mbedtls-2.6.0/library\bignum.c ****     ret = 0;
 990:C:/Users/lenovo/Desktop/liteos/Project2/BearPi_LiteOS/components/security/mbedtls/mbedtls-2.6.0/library\bignum.c **** 
 991:C:/Users/lenovo/Desktop/liteos/Project2/BearPi_LiteOS/components/security/mbedtls/mbedtls-2.6.0/library\bignum.c ****     for( n = B->n; n > 0; n-- )
 992:C:/Users/lenovo/Desktop/liteos/Project2/BearPi_LiteOS/components/security/mbedtls/mbedtls-2.6.0/library\bignum.c ****         if( B->p[n - 1] != 0 )
 993:C:/Users/lenovo/Desktop/liteos/Project2/BearPi_LiteOS/components/security/mbedtls/mbedtls-2.6.0/library\bignum.c ****             break;
 994:C:/Users/lenovo/Desktop/liteos/Project2/BearPi_LiteOS/components/security/mbedtls/mbedtls-2.6.0/library\bignum.c **** 
 995:C:/Users/lenovo/Desktop/liteos/Project2/BearPi_LiteOS/components/security/mbedtls/mbedtls-2.6.0/library\bignum.c ****     mpi_sub_hlp( n, B->p, X->p );
 996:C:/Users/lenovo/Desktop/liteos/Project2/BearPi_LiteOS/components/security/mbedtls/mbedtls-2.6.0/library\bignum.c **** 
 997:C:/Users/lenovo/Desktop/liteos/Project2/BearPi_LiteOS/components/security/mbedtls/mbedtls-2.6.0/library\bignum.c **** cleanup:
 998:C:/Users/lenovo/Desktop/liteos/Project2/BearPi_LiteOS/components/security/mbedtls/mbedtls-2.6.0/library\bignum.c **** 
 999:C:/Users/lenovo/Desktop/liteos/Project2/BearPi_LiteOS/components/security/mbedtls/mbedtls-2.6.0/library\bignum.c ****     mbedtls_mpi_free( &TB );
1000:C:/Users/lenovo/Desktop/liteos/Project2/BearPi_LiteOS/components/security/mbedtls/mbedtls-2.6.0/library\bignum.c **** 
1001:C:/Users/lenovo/Desktop/liteos/Project2/BearPi_LiteOS/components/security/mbedtls/mbedtls-2.6.0/library\bignum.c ****     return( ret );
ARM GAS  c:\Users\lenovo\AppData\Local\Temp\ccjcyTZ0.s 			page 23


1002:C:/Users/lenovo/Desktop/liteos/Project2/BearPi_LiteOS/components/security/mbedtls/mbedtls-2.6.0/library\bignum.c **** }
1003:C:/Users/lenovo/Desktop/liteos/Project2/BearPi_LiteOS/components/security/mbedtls/mbedtls-2.6.0/library\bignum.c **** 
1004:C:/Users/lenovo/Desktop/liteos/Project2/BearPi_LiteOS/components/security/mbedtls/mbedtls-2.6.0/library\bignum.c **** /*
1005:C:/Users/lenovo/Desktop/liteos/Project2/BearPi_LiteOS/components/security/mbedtls/mbedtls-2.6.0/library\bignum.c ****  * Signed addition: X = A + B
1006:C:/Users/lenovo/Desktop/liteos/Project2/BearPi_LiteOS/components/security/mbedtls/mbedtls-2.6.0/library\bignum.c ****  */
1007:C:/Users/lenovo/Desktop/liteos/Project2/BearPi_LiteOS/components/security/mbedtls/mbedtls-2.6.0/library\bignum.c **** int mbedtls_mpi_add_mpi( mbedtls_mpi *X, const mbedtls_mpi *A, const mbedtls_mpi *B )
1008:C:/Users/lenovo/Desktop/liteos/Project2/BearPi_LiteOS/components/security/mbedtls/mbedtls-2.6.0/library\bignum.c **** {
1009:C:/Users/lenovo/Desktop/liteos/Project2/BearPi_LiteOS/components/security/mbedtls/mbedtls-2.6.0/library\bignum.c ****     int ret, s = A->s;
1010:C:/Users/lenovo/Desktop/liteos/Project2/BearPi_LiteOS/components/security/mbedtls/mbedtls-2.6.0/library\bignum.c **** 
1011:C:/Users/lenovo/Desktop/liteos/Project2/BearPi_LiteOS/components/security/mbedtls/mbedtls-2.6.0/library\bignum.c ****     if( A->s * B->s < 0 )
1012:C:/Users/lenovo/Desktop/liteos/Project2/BearPi_LiteOS/components/security/mbedtls/mbedtls-2.6.0/library\bignum.c ****     {
1013:C:/Users/lenovo/Desktop/liteos/Project2/BearPi_LiteOS/components/security/mbedtls/mbedtls-2.6.0/library\bignum.c ****         if( mbedtls_mpi_cmp_abs( A, B ) >= 0 )
1014:C:/Users/lenovo/Desktop/liteos/Project2/BearPi_LiteOS/components/security/mbedtls/mbedtls-2.6.0/library\bignum.c ****         {
1015:C:/Users/lenovo/Desktop/liteos/Project2/BearPi_LiteOS/components/security/mbedtls/mbedtls-2.6.0/library\bignum.c ****             MBEDTLS_MPI_CHK( mbedtls_mpi_sub_abs( X, A, B ) );
1016:C:/Users/lenovo/Desktop/liteos/Project2/BearPi_LiteOS/components/security/mbedtls/mbedtls-2.6.0/library\bignum.c ****             X->s =  s;
1017:C:/Users/lenovo/Desktop/liteos/Project2/BearPi_LiteOS/components/security/mbedtls/mbedtls-2.6.0/library\bignum.c ****         }
1018:C:/Users/lenovo/Desktop/liteos/Project2/BearPi_LiteOS/components/security/mbedtls/mbedtls-2.6.0/library\bignum.c ****         else
1019:C:/Users/lenovo/Desktop/liteos/Project2/BearPi_LiteOS/components/security/mbedtls/mbedtls-2.6.0/library\bignum.c ****         {
1020:C:/Users/lenovo/Desktop/liteos/Project2/BearPi_LiteOS/components/security/mbedtls/mbedtls-2.6.0/library\bignum.c ****             MBEDTLS_MPI_CHK( mbedtls_mpi_sub_abs( X, B, A ) );
1021:C:/Users/lenovo/Desktop/liteos/Project2/BearPi_LiteOS/components/security/mbedtls/mbedtls-2.6.0/library\bignum.c ****             X->s = -s;
1022:C:/Users/lenovo/Desktop/liteos/Project2/BearPi_LiteOS/components/security/mbedtls/mbedtls-2.6.0/library\bignum.c ****         }
1023:C:/Users/lenovo/Desktop/liteos/Project2/BearPi_LiteOS/components/security/mbedtls/mbedtls-2.6.0/library\bignum.c ****     }
1024:C:/Users/lenovo/Desktop/liteos/Project2/BearPi_LiteOS/components/security/mbedtls/mbedtls-2.6.0/library\bignum.c ****     else
1025:C:/Users/lenovo/Desktop/liteos/Project2/BearPi_LiteOS/components/security/mbedtls/mbedtls-2.6.0/library\bignum.c ****     {
1026:C:/Users/lenovo/Desktop/liteos/Project2/BearPi_LiteOS/components/security/mbedtls/mbedtls-2.6.0/library\bignum.c ****         MBEDTLS_MPI_CHK( mbedtls_mpi_add_abs( X, A, B ) );
1027:C:/Users/lenovo/Desktop/liteos/Project2/BearPi_LiteOS/components/security/mbedtls/mbedtls-2.6.0/library\bignum.c ****         X->s = s;
1028:C:/Users/lenovo/Desktop/liteos/Project2/BearPi_LiteOS/components/security/mbedtls/mbedtls-2.6.0/library\bignum.c ****     }
1029:C:/Users/lenovo/Desktop/liteos/Project2/BearPi_LiteOS/components/security/mbedtls/mbedtls-2.6.0/library\bignum.c **** 
1030:C:/Users/lenovo/Desktop/liteos/Project2/BearPi_LiteOS/components/security/mbedtls/mbedtls-2.6.0/library\bignum.c **** cleanup:
1031:C:/Users/lenovo/Desktop/liteos/Project2/BearPi_LiteOS/components/security/mbedtls/mbedtls-2.6.0/library\bignum.c **** 
1032:C:/Users/lenovo/Desktop/liteos/Project2/BearPi_LiteOS/components/security/mbedtls/mbedtls-2.6.0/library\bignum.c ****     return( ret );
1033:C:/Users/lenovo/Desktop/liteos/Project2/BearPi_LiteOS/components/security/mbedtls/mbedtls-2.6.0/library\bignum.c **** }
1034:C:/Users/lenovo/Desktop/liteos/Project2/BearPi_LiteOS/components/security/mbedtls/mbedtls-2.6.0/library\bignum.c **** 
1035:C:/Users/lenovo/Desktop/liteos/Project2/BearPi_LiteOS/components/security/mbedtls/mbedtls-2.6.0/library\bignum.c **** /*
1036:C:/Users/lenovo/Desktop/liteos/Project2/BearPi_LiteOS/components/security/mbedtls/mbedtls-2.6.0/library\bignum.c ****  * Signed subtraction: X = A - B
1037:C:/Users/lenovo/Desktop/liteos/Project2/BearPi_LiteOS/components/security/mbedtls/mbedtls-2.6.0/library\bignum.c ****  */
1038:C:/Users/lenovo/Desktop/liteos/Project2/BearPi_LiteOS/components/security/mbedtls/mbedtls-2.6.0/library\bignum.c **** int mbedtls_mpi_sub_mpi( mbedtls_mpi *X, const mbedtls_mpi *A, const mbedtls_mpi *B )
1039:C:/Users/lenovo/Desktop/liteos/Project2/BearPi_LiteOS/components/security/mbedtls/mbedtls-2.6.0/library\bignum.c **** {
1040:C:/Users/lenovo/Desktop/liteos/Project2/BearPi_LiteOS/components/security/mbedtls/mbedtls-2.6.0/library\bignum.c ****     int ret, s = A->s;
1041:C:/Users/lenovo/Desktop/liteos/Project2/BearPi_LiteOS/components/security/mbedtls/mbedtls-2.6.0/library\bignum.c **** 
1042:C:/Users/lenovo/Desktop/liteos/Project2/BearPi_LiteOS/components/security/mbedtls/mbedtls-2.6.0/library\bignum.c ****     if( A->s * B->s > 0 )
1043:C:/Users/lenovo/Desktop/liteos/Project2/BearPi_LiteOS/components/security/mbedtls/mbedtls-2.6.0/library\bignum.c ****     {
1044:C:/Users/lenovo/Desktop/liteos/Project2/BearPi_LiteOS/components/security/mbedtls/mbedtls-2.6.0/library\bignum.c ****         if( mbedtls_mpi_cmp_abs( A, B ) >= 0 )
1045:C:/Users/lenovo/Desktop/liteos/Project2/BearPi_LiteOS/components/security/mbedtls/mbedtls-2.6.0/library\bignum.c ****         {
1046:C:/Users/lenovo/Desktop/liteos/Project2/BearPi_LiteOS/components/security/mbedtls/mbedtls-2.6.0/library\bignum.c ****             MBEDTLS_MPI_CHK( mbedtls_mpi_sub_abs( X, A, B ) );
1047:C:/Users/lenovo/Desktop/liteos/Project2/BearPi_LiteOS/components/security/mbedtls/mbedtls-2.6.0/library\bignum.c ****             X->s =  s;
1048:C:/Users/lenovo/Desktop/liteos/Project2/BearPi_LiteOS/components/security/mbedtls/mbedtls-2.6.0/library\bignum.c ****         }
1049:C:/Users/lenovo/Desktop/liteos/Project2/BearPi_LiteOS/components/security/mbedtls/mbedtls-2.6.0/library\bignum.c ****         else
1050:C:/Users/lenovo/Desktop/liteos/Project2/BearPi_LiteOS/components/security/mbedtls/mbedtls-2.6.0/library\bignum.c ****         {
1051:C:/Users/lenovo/Desktop/liteos/Project2/BearPi_LiteOS/components/security/mbedtls/mbedtls-2.6.0/library\bignum.c ****             MBEDTLS_MPI_CHK( mbedtls_mpi_sub_abs( X, B, A ) );
1052:C:/Users/lenovo/Desktop/liteos/Project2/BearPi_LiteOS/components/security/mbedtls/mbedtls-2.6.0/library\bignum.c ****             X->s = -s;
1053:C:/Users/lenovo/Desktop/liteos/Project2/BearPi_LiteOS/components/security/mbedtls/mbedtls-2.6.0/library\bignum.c ****         }
1054:C:/Users/lenovo/Desktop/liteos/Project2/BearPi_LiteOS/components/security/mbedtls/mbedtls-2.6.0/library\bignum.c ****     }
1055:C:/Users/lenovo/Desktop/liteos/Project2/BearPi_LiteOS/components/security/mbedtls/mbedtls-2.6.0/library\bignum.c ****     else
1056:C:/Users/lenovo/Desktop/liteos/Project2/BearPi_LiteOS/components/security/mbedtls/mbedtls-2.6.0/library\bignum.c ****     {
1057:C:/Users/lenovo/Desktop/liteos/Project2/BearPi_LiteOS/components/security/mbedtls/mbedtls-2.6.0/library\bignum.c ****         MBEDTLS_MPI_CHK( mbedtls_mpi_add_abs( X, A, B ) );
1058:C:/Users/lenovo/Desktop/liteos/Project2/BearPi_LiteOS/components/security/mbedtls/mbedtls-2.6.0/library\bignum.c ****         X->s = s;
ARM GAS  c:\Users\lenovo\AppData\Local\Temp\ccjcyTZ0.s 			page 24


1059:C:/Users/lenovo/Desktop/liteos/Project2/BearPi_LiteOS/components/security/mbedtls/mbedtls-2.6.0/library\bignum.c ****     }
1060:C:/Users/lenovo/Desktop/liteos/Project2/BearPi_LiteOS/components/security/mbedtls/mbedtls-2.6.0/library\bignum.c **** 
1061:C:/Users/lenovo/Desktop/liteos/Project2/BearPi_LiteOS/components/security/mbedtls/mbedtls-2.6.0/library\bignum.c **** cleanup:
1062:C:/Users/lenovo/Desktop/liteos/Project2/BearPi_LiteOS/components/security/mbedtls/mbedtls-2.6.0/library\bignum.c **** 
1063:C:/Users/lenovo/Desktop/liteos/Project2/BearPi_LiteOS/components/security/mbedtls/mbedtls-2.6.0/library\bignum.c ****     return( ret );
1064:C:/Users/lenovo/Desktop/liteos/Project2/BearPi_LiteOS/components/security/mbedtls/mbedtls-2.6.0/library\bignum.c **** }
1065:C:/Users/lenovo/Desktop/liteos/Project2/BearPi_LiteOS/components/security/mbedtls/mbedtls-2.6.0/library\bignum.c **** 
1066:C:/Users/lenovo/Desktop/liteos/Project2/BearPi_LiteOS/components/security/mbedtls/mbedtls-2.6.0/library\bignum.c **** /*
1067:C:/Users/lenovo/Desktop/liteos/Project2/BearPi_LiteOS/components/security/mbedtls/mbedtls-2.6.0/library\bignum.c ****  * Signed addition: X = A + b
1068:C:/Users/lenovo/Desktop/liteos/Project2/BearPi_LiteOS/components/security/mbedtls/mbedtls-2.6.0/library\bignum.c ****  */
1069:C:/Users/lenovo/Desktop/liteos/Project2/BearPi_LiteOS/components/security/mbedtls/mbedtls-2.6.0/library\bignum.c **** int mbedtls_mpi_add_int( mbedtls_mpi *X, const mbedtls_mpi *A, mbedtls_mpi_sint b )
1070:C:/Users/lenovo/Desktop/liteos/Project2/BearPi_LiteOS/components/security/mbedtls/mbedtls-2.6.0/library\bignum.c **** {
1071:C:/Users/lenovo/Desktop/liteos/Project2/BearPi_LiteOS/components/security/mbedtls/mbedtls-2.6.0/library\bignum.c ****     mbedtls_mpi _B;
1072:C:/Users/lenovo/Desktop/liteos/Project2/BearPi_LiteOS/components/security/mbedtls/mbedtls-2.6.0/library\bignum.c ****     mbedtls_mpi_uint p[1];
1073:C:/Users/lenovo/Desktop/liteos/Project2/BearPi_LiteOS/components/security/mbedtls/mbedtls-2.6.0/library\bignum.c **** 
1074:C:/Users/lenovo/Desktop/liteos/Project2/BearPi_LiteOS/components/security/mbedtls/mbedtls-2.6.0/library\bignum.c ****     p[0] = ( b < 0 ) ? -b : b;
1075:C:/Users/lenovo/Desktop/liteos/Project2/BearPi_LiteOS/components/security/mbedtls/mbedtls-2.6.0/library\bignum.c ****     _B.s = ( b < 0 ) ? -1 : 1;
1076:C:/Users/lenovo/Desktop/liteos/Project2/BearPi_LiteOS/components/security/mbedtls/mbedtls-2.6.0/library\bignum.c ****     _B.n = 1;
1077:C:/Users/lenovo/Desktop/liteos/Project2/BearPi_LiteOS/components/security/mbedtls/mbedtls-2.6.0/library\bignum.c ****     _B.p = p;
1078:C:/Users/lenovo/Desktop/liteos/Project2/BearPi_LiteOS/components/security/mbedtls/mbedtls-2.6.0/library\bignum.c **** 
1079:C:/Users/lenovo/Desktop/liteos/Project2/BearPi_LiteOS/components/security/mbedtls/mbedtls-2.6.0/library\bignum.c ****     return( mbedtls_mpi_add_mpi( X, A, &_B ) );
1080:C:/Users/lenovo/Desktop/liteos/Project2/BearPi_LiteOS/components/security/mbedtls/mbedtls-2.6.0/library\bignum.c **** }
1081:C:/Users/lenovo/Desktop/liteos/Project2/BearPi_LiteOS/components/security/mbedtls/mbedtls-2.6.0/library\bignum.c **** 
1082:C:/Users/lenovo/Desktop/liteos/Project2/BearPi_LiteOS/components/security/mbedtls/mbedtls-2.6.0/library\bignum.c **** /*
1083:C:/Users/lenovo/Desktop/liteos/Project2/BearPi_LiteOS/components/security/mbedtls/mbedtls-2.6.0/library\bignum.c ****  * Signed subtraction: X = A - b
1084:C:/Users/lenovo/Desktop/liteos/Project2/BearPi_LiteOS/components/security/mbedtls/mbedtls-2.6.0/library\bignum.c ****  */
1085:C:/Users/lenovo/Desktop/liteos/Project2/BearPi_LiteOS/components/security/mbedtls/mbedtls-2.6.0/library\bignum.c **** int mbedtls_mpi_sub_int( mbedtls_mpi *X, const mbedtls_mpi *A, mbedtls_mpi_sint b )
1086:C:/Users/lenovo/Desktop/liteos/Project2/BearPi_LiteOS/components/security/mbedtls/mbedtls-2.6.0/library\bignum.c **** {
1087:C:/Users/lenovo/Desktop/liteos/Project2/BearPi_LiteOS/components/security/mbedtls/mbedtls-2.6.0/library\bignum.c ****     mbedtls_mpi _B;
1088:C:/Users/lenovo/Desktop/liteos/Project2/BearPi_LiteOS/components/security/mbedtls/mbedtls-2.6.0/library\bignum.c ****     mbedtls_mpi_uint p[1];
1089:C:/Users/lenovo/Desktop/liteos/Project2/BearPi_LiteOS/components/security/mbedtls/mbedtls-2.6.0/library\bignum.c **** 
1090:C:/Users/lenovo/Desktop/liteos/Project2/BearPi_LiteOS/components/security/mbedtls/mbedtls-2.6.0/library\bignum.c ****     p[0] = ( b < 0 ) ? -b : b;
1091:C:/Users/lenovo/Desktop/liteos/Project2/BearPi_LiteOS/components/security/mbedtls/mbedtls-2.6.0/library\bignum.c ****     _B.s = ( b < 0 ) ? -1 : 1;
1092:C:/Users/lenovo/Desktop/liteos/Project2/BearPi_LiteOS/components/security/mbedtls/mbedtls-2.6.0/library\bignum.c ****     _B.n = 1;
1093:C:/Users/lenovo/Desktop/liteos/Project2/BearPi_LiteOS/components/security/mbedtls/mbedtls-2.6.0/library\bignum.c ****     _B.p = p;
1094:C:/Users/lenovo/Desktop/liteos/Project2/BearPi_LiteOS/components/security/mbedtls/mbedtls-2.6.0/library\bignum.c **** 
1095:C:/Users/lenovo/Desktop/liteos/Project2/BearPi_LiteOS/components/security/mbedtls/mbedtls-2.6.0/library\bignum.c ****     return( mbedtls_mpi_sub_mpi( X, A, &_B ) );
1096:C:/Users/lenovo/Desktop/liteos/Project2/BearPi_LiteOS/components/security/mbedtls/mbedtls-2.6.0/library\bignum.c **** }
1097:C:/Users/lenovo/Desktop/liteos/Project2/BearPi_LiteOS/components/security/mbedtls/mbedtls-2.6.0/library\bignum.c **** 
1098:C:/Users/lenovo/Desktop/liteos/Project2/BearPi_LiteOS/components/security/mbedtls/mbedtls-2.6.0/library\bignum.c **** /*
1099:C:/Users/lenovo/Desktop/liteos/Project2/BearPi_LiteOS/components/security/mbedtls/mbedtls-2.6.0/library\bignum.c ****  * Helper for mbedtls_mpi multiplication
1100:C:/Users/lenovo/Desktop/liteos/Project2/BearPi_LiteOS/components/security/mbedtls/mbedtls-2.6.0/library\bignum.c ****  */
1101:C:/Users/lenovo/Desktop/liteos/Project2/BearPi_LiteOS/components/security/mbedtls/mbedtls-2.6.0/library\bignum.c **** static
1102:C:/Users/lenovo/Desktop/liteos/Project2/BearPi_LiteOS/components/security/mbedtls/mbedtls-2.6.0/library\bignum.c **** #if defined(__APPLE__) && defined(__arm__)
1103:C:/Users/lenovo/Desktop/liteos/Project2/BearPi_LiteOS/components/security/mbedtls/mbedtls-2.6.0/library\bignum.c **** /*
1104:C:/Users/lenovo/Desktop/liteos/Project2/BearPi_LiteOS/components/security/mbedtls/mbedtls-2.6.0/library\bignum.c ****  * Apple LLVM version 4.2 (clang-425.0.24) (based on LLVM 3.2svn)
1105:C:/Users/lenovo/Desktop/liteos/Project2/BearPi_LiteOS/components/security/mbedtls/mbedtls-2.6.0/library\bignum.c ****  * appears to need this to prevent bad ARM code generation at -O3.
1106:C:/Users/lenovo/Desktop/liteos/Project2/BearPi_LiteOS/components/security/mbedtls/mbedtls-2.6.0/library\bignum.c ****  */
1107:C:/Users/lenovo/Desktop/liteos/Project2/BearPi_LiteOS/components/security/mbedtls/mbedtls-2.6.0/library\bignum.c **** __attribute__ ((noinline))
1108:C:/Users/lenovo/Desktop/liteos/Project2/BearPi_LiteOS/components/security/mbedtls/mbedtls-2.6.0/library\bignum.c **** #endif
1109:C:/Users/lenovo/Desktop/liteos/Project2/BearPi_LiteOS/components/security/mbedtls/mbedtls-2.6.0/library\bignum.c **** void mpi_mul_hlp( size_t i, mbedtls_mpi_uint *s, mbedtls_mpi_uint *d, mbedtls_mpi_uint b )
1110:C:/Users/lenovo/Desktop/liteos/Project2/BearPi_LiteOS/components/security/mbedtls/mbedtls-2.6.0/library\bignum.c **** {
 258              		.loc 1 1110 0
 259              		.cfi_startproc
 260              		@ args = 0, pretend = 0, frame = 0
 261              		@ frame_needed = 0, uses_anonymous_args = 0
 262              		@ link register save eliminated.
ARM GAS  c:\Users\lenovo\AppData\Local\Temp\ccjcyTZ0.s 			page 25


 263              	.LVL28:
 264 0000 2DE9F003 		push	{r4, r5, r6, r7, r8, r9}
 265              	.LCFI2:
 266              		.cfi_def_cfa_offset 24
 267              		.cfi_offset 4, -24
 268              		.cfi_offset 5, -20
 269              		.cfi_offset 6, -16
 270              		.cfi_offset 7, -12
 271              		.cfi_offset 8, -8
 272              		.cfi_offset 9, -4
 273              	.LVL29:
1111:C:/Users/lenovo/Desktop/liteos/Project2/BearPi_LiteOS/components/security/mbedtls/mbedtls-2.6.0/library\bignum.c ****     mbedtls_mpi_uint c = 0, t = 0;
 274              		.loc 1 1111 0
 275 0004 0024     		movs	r4, #0
1112:C:/Users/lenovo/Desktop/liteos/Project2/BearPi_LiteOS/components/security/mbedtls/mbedtls-2.6.0/library\bignum.c **** 
1113:C:/Users/lenovo/Desktop/liteos/Project2/BearPi_LiteOS/components/security/mbedtls/mbedtls-2.6.0/library\bignum.c **** #if defined(MULADDC_HUIT)
1114:C:/Users/lenovo/Desktop/liteos/Project2/BearPi_LiteOS/components/security/mbedtls/mbedtls-2.6.0/library\bignum.c ****     for( ; i >= 8; i -= 8 )
1115:C:/Users/lenovo/Desktop/liteos/Project2/BearPi_LiteOS/components/security/mbedtls/mbedtls-2.6.0/library\bignum.c ****     {
1116:C:/Users/lenovo/Desktop/liteos/Project2/BearPi_LiteOS/components/security/mbedtls/mbedtls-2.6.0/library\bignum.c ****         MULADDC_INIT
1117:C:/Users/lenovo/Desktop/liteos/Project2/BearPi_LiteOS/components/security/mbedtls/mbedtls-2.6.0/library\bignum.c ****         MULADDC_HUIT
1118:C:/Users/lenovo/Desktop/liteos/Project2/BearPi_LiteOS/components/security/mbedtls/mbedtls-2.6.0/library\bignum.c ****         MULADDC_STOP
1119:C:/Users/lenovo/Desktop/liteos/Project2/BearPi_LiteOS/components/security/mbedtls/mbedtls-2.6.0/library\bignum.c ****     }
1120:C:/Users/lenovo/Desktop/liteos/Project2/BearPi_LiteOS/components/security/mbedtls/mbedtls-2.6.0/library\bignum.c **** 
1121:C:/Users/lenovo/Desktop/liteos/Project2/BearPi_LiteOS/components/security/mbedtls/mbedtls-2.6.0/library\bignum.c ****     for( ; i > 0; i-- )
1122:C:/Users/lenovo/Desktop/liteos/Project2/BearPi_LiteOS/components/security/mbedtls/mbedtls-2.6.0/library\bignum.c ****     {
1123:C:/Users/lenovo/Desktop/liteos/Project2/BearPi_LiteOS/components/security/mbedtls/mbedtls-2.6.0/library\bignum.c ****         MULADDC_INIT
1124:C:/Users/lenovo/Desktop/liteos/Project2/BearPi_LiteOS/components/security/mbedtls/mbedtls-2.6.0/library\bignum.c ****         MULADDC_CORE
1125:C:/Users/lenovo/Desktop/liteos/Project2/BearPi_LiteOS/components/security/mbedtls/mbedtls-2.6.0/library\bignum.c ****         MULADDC_STOP
1126:C:/Users/lenovo/Desktop/liteos/Project2/BearPi_LiteOS/components/security/mbedtls/mbedtls-2.6.0/library\bignum.c ****     }
1127:C:/Users/lenovo/Desktop/liteos/Project2/BearPi_LiteOS/components/security/mbedtls/mbedtls-2.6.0/library\bignum.c **** #else /* MULADDC_HUIT */
1128:C:/Users/lenovo/Desktop/liteos/Project2/BearPi_LiteOS/components/security/mbedtls/mbedtls-2.6.0/library\bignum.c ****     for( ; i >= 16; i -= 16 )
 276              		.loc 1 1128 0
 277 0006 F4E0     		b	.L22
 278              	.LVL30:
 279              	.L23:
 280              	.LBB2:
1129:C:/Users/lenovo/Desktop/liteos/Project2/BearPi_LiteOS/components/security/mbedtls/mbedtls-2.6.0/library\bignum.c ****     {
1130:C:/Users/lenovo/Desktop/liteos/Project2/BearPi_LiteOS/components/security/mbedtls/mbedtls-2.6.0/library\bignum.c ****         MULADDC_INIT
1131:C:/Users/lenovo/Desktop/liteos/Project2/BearPi_LiteOS/components/security/mbedtls/mbedtls-2.6.0/library\bignum.c ****         MULADDC_CORE   MULADDC_CORE
 281              		.loc 1 1131 0 discriminator 2
 282 0008 0D68     		ldr	r5, [r1]
 283 000a A5FB0389 		umull	r8, r9, r5, r3
 284              	.LVL31:
 285 000e 14EB0804 		adds	r4, r4, r8
 286              	.LVL32:
 287 0012 2CBF     		ite	cs
 288 0014 0125     		movcs	r5, #1
 289 0016 0025     		movcc	r5, #0
 290 0018 05EB0907 		add	r7, r5, r9
 291              	.LVL33:
 292 001c 1668     		ldr	r6, [r2]
 293              	.LVL34:
 294 001e 3619     		adds	r6, r6, r4
 295              	.LVL35:
 296 0020 2CBF     		ite	cs
 297 0022 0125     		movcs	r5, #1
 298 0024 0025     		movcc	r5, #0
ARM GAS  c:\Users\lenovo\AppData\Local\Temp\ccjcyTZ0.s 			page 26


 299 0026 3D44     		add	r5, r5, r7
 300              	.LVL36:
 301 0028 1660     		str	r6, [r2]
 302              	.LVL37:
 303 002a 4E68     		ldr	r6, [r1, #4]
 304              	.LVL38:
 305 002c A3FB0667 		umull	r6, r7, r3, r6
 306              	.LVL39:
 307 0030 AD19     		adds	r5, r5, r6
 308              	.LVL40:
 309 0032 2CBF     		ite	cs
 310 0034 0124     		movcs	r4, #1
 311 0036 0024     		movcc	r4, #0
 312 0038 2744     		add	r7, r7, r4
 313              	.LVL41:
 314 003a 5668     		ldr	r6, [r2, #4]
 315              	.LVL42:
 316 003c 7519     		adds	r5, r6, r5
 317              	.LVL43:
 318 003e 2CBF     		ite	cs
 319 0040 0124     		movcs	r4, #1
 320 0042 0024     		movcc	r4, #0
 321 0044 3C44     		add	r4, r4, r7
 322              	.LVL44:
 323 0046 5560     		str	r5, [r2, #4]
 324              	.LVL45:
1132:C:/Users/lenovo/Desktop/liteos/Project2/BearPi_LiteOS/components/security/mbedtls/mbedtls-2.6.0/library\bignum.c ****         MULADDC_CORE   MULADDC_CORE
 325              		.loc 1 1132 0 discriminator 2
 326 0048 8E68     		ldr	r6, [r1, #8]
 327 004a A3FB0678 		umull	r7, r8, r3, r6
 328              	.LVL46:
 329 004e E419     		adds	r4, r4, r7
 330              	.LVL47:
 331 0050 2CBF     		ite	cs
 332 0052 0126     		movcs	r6, #1
 333 0054 0026     		movcc	r6, #0
 334 0056 4644     		add	r6, r6, r8
 335              	.LVL48:
 336 0058 9568     		ldr	r5, [r2, #8]
 337              	.LVL49:
 338 005a 2D19     		adds	r5, r5, r4
 339              	.LVL50:
 340 005c 2CBF     		ite	cs
 341 005e 0124     		movcs	r4, #1
 342 0060 0024     		movcc	r4, #0
 343 0062 3444     		add	r4, r4, r6
 344              	.LVL51:
 345 0064 9560     		str	r5, [r2, #8]
 346              	.LVL52:
 347 0066 CE68     		ldr	r6, [r1, #12]
 348 0068 A3FB0678 		umull	r7, r8, r3, r6
 349              	.LVL53:
 350 006c E419     		adds	r4, r4, r7
 351              	.LVL54:
 352 006e 2CBF     		ite	cs
 353 0070 0126     		movcs	r6, #1
 354 0072 0026     		movcc	r6, #0
ARM GAS  c:\Users\lenovo\AppData\Local\Temp\ccjcyTZ0.s 			page 27


 355 0074 4644     		add	r6, r6, r8
 356              	.LVL55:
 357 0076 D568     		ldr	r5, [r2, #12]
 358              	.LVL56:
 359 0078 2D19     		adds	r5, r5, r4
 360              	.LVL57:
 361 007a 2CBF     		ite	cs
 362 007c 0124     		movcs	r4, #1
 363 007e 0024     		movcc	r4, #0
 364 0080 3444     		add	r4, r4, r6
 365              	.LVL58:
 366 0082 D560     		str	r5, [r2, #12]
 367              	.LVL59:
1133:C:/Users/lenovo/Desktop/liteos/Project2/BearPi_LiteOS/components/security/mbedtls/mbedtls-2.6.0/library\bignum.c ****         MULADDC_CORE   MULADDC_CORE
 368              		.loc 1 1133 0 discriminator 2
 369 0084 0E69     		ldr	r6, [r1, #16]
 370 0086 A3FB0678 		umull	r7, r8, r3, r6
 371              	.LVL60:
 372 008a E419     		adds	r4, r4, r7
 373              	.LVL61:
 374 008c 2CBF     		ite	cs
 375 008e 0126     		movcs	r6, #1
 376 0090 0026     		movcc	r6, #0
 377 0092 4644     		add	r6, r6, r8
 378              	.LVL62:
 379 0094 1569     		ldr	r5, [r2, #16]
 380              	.LVL63:
 381 0096 2D19     		adds	r5, r5, r4
 382              	.LVL64:
 383 0098 2CBF     		ite	cs
 384 009a 0124     		movcs	r4, #1
 385 009c 0024     		movcc	r4, #0
 386 009e 3444     		add	r4, r4, r6
 387              	.LVL65:
 388 00a0 1561     		str	r5, [r2, #16]
 389              	.LVL66:
 390 00a2 4E69     		ldr	r6, [r1, #20]
 391 00a4 A3FB0678 		umull	r7, r8, r3, r6
 392              	.LVL67:
 393 00a8 E419     		adds	r4, r4, r7
 394              	.LVL68:
 395 00aa 2CBF     		ite	cs
 396 00ac 0126     		movcs	r6, #1
 397 00ae 0026     		movcc	r6, #0
 398 00b0 4644     		add	r6, r6, r8
 399              	.LVL69:
 400 00b2 5569     		ldr	r5, [r2, #20]
 401              	.LVL70:
 402 00b4 2D19     		adds	r5, r5, r4
 403              	.LVL71:
 404 00b6 2CBF     		ite	cs
 405 00b8 0124     		movcs	r4, #1
 406 00ba 0024     		movcc	r4, #0
 407 00bc 3444     		add	r4, r4, r6
 408              	.LVL72:
 409 00be 5561     		str	r5, [r2, #20]
 410              	.LVL73:
ARM GAS  c:\Users\lenovo\AppData\Local\Temp\ccjcyTZ0.s 			page 28


1134:C:/Users/lenovo/Desktop/liteos/Project2/BearPi_LiteOS/components/security/mbedtls/mbedtls-2.6.0/library\bignum.c ****         MULADDC_CORE   MULADDC_CORE
 411              		.loc 1 1134 0 discriminator 2
 412 00c0 8E69     		ldr	r6, [r1, #24]
 413 00c2 A3FB0678 		umull	r7, r8, r3, r6
 414              	.LVL74:
 415 00c6 E419     		adds	r4, r4, r7
 416              	.LVL75:
 417 00c8 2CBF     		ite	cs
 418 00ca 0126     		movcs	r6, #1
 419 00cc 0026     		movcc	r6, #0
 420 00ce 4644     		add	r6, r6, r8
 421              	.LVL76:
 422 00d0 9569     		ldr	r5, [r2, #24]
 423              	.LVL77:
 424 00d2 2D19     		adds	r5, r5, r4
 425              	.LVL78:
 426 00d4 2CBF     		ite	cs
 427 00d6 0124     		movcs	r4, #1
 428 00d8 0024     		movcc	r4, #0
 429 00da 3444     		add	r4, r4, r6
 430              	.LVL79:
 431 00dc 9561     		str	r5, [r2, #24]
 432              	.LVL80:
 433 00de CE69     		ldr	r6, [r1, #28]
 434 00e0 A3FB0678 		umull	r7, r8, r3, r6
 435              	.LVL81:
 436 00e4 E419     		adds	r4, r4, r7
 437              	.LVL82:
 438 00e6 2CBF     		ite	cs
 439 00e8 0126     		movcs	r6, #1
 440 00ea 0026     		movcc	r6, #0
 441 00ec 4644     		add	r6, r6, r8
 442              	.LVL83:
 443 00ee D569     		ldr	r5, [r2, #28]
 444              	.LVL84:
 445 00f0 2D19     		adds	r5, r5, r4
 446              	.LVL85:
 447 00f2 2CBF     		ite	cs
 448 00f4 0124     		movcs	r4, #1
 449 00f6 0024     		movcc	r4, #0
 450 00f8 3444     		add	r4, r4, r6
 451              	.LVL86:
 452 00fa D561     		str	r5, [r2, #28]
 453              	.LVL87:
1135:C:/Users/lenovo/Desktop/liteos/Project2/BearPi_LiteOS/components/security/mbedtls/mbedtls-2.6.0/library\bignum.c **** 
1136:C:/Users/lenovo/Desktop/liteos/Project2/BearPi_LiteOS/components/security/mbedtls/mbedtls-2.6.0/library\bignum.c ****         MULADDC_CORE   MULADDC_CORE
 454              		.loc 1 1136 0 discriminator 2
 455 00fc 0E6A     		ldr	r6, [r1, #32]
 456 00fe A3FB0678 		umull	r7, r8, r3, r6
 457              	.LVL88:
 458 0102 E419     		adds	r4, r4, r7
 459              	.LVL89:
 460 0104 2CBF     		ite	cs
 461 0106 0126     		movcs	r6, #1
 462 0108 0026     		movcc	r6, #0
 463 010a 4644     		add	r6, r6, r8
 464              	.LVL90:
ARM GAS  c:\Users\lenovo\AppData\Local\Temp\ccjcyTZ0.s 			page 29


 465 010c 156A     		ldr	r5, [r2, #32]
 466              	.LVL91:
 467 010e 2D19     		adds	r5, r5, r4
 468              	.LVL92:
 469 0110 2CBF     		ite	cs
 470 0112 0124     		movcs	r4, #1
 471 0114 0024     		movcc	r4, #0
 472 0116 3444     		add	r4, r4, r6
 473              	.LVL93:
 474 0118 1562     		str	r5, [r2, #32]
 475              	.LVL94:
 476 011a 4E6A     		ldr	r6, [r1, #36]
 477 011c A3FB0678 		umull	r7, r8, r3, r6
 478              	.LVL95:
 479 0120 E419     		adds	r4, r4, r7
 480              	.LVL96:
 481 0122 2CBF     		ite	cs
 482 0124 0126     		movcs	r6, #1
 483 0126 0026     		movcc	r6, #0
 484 0128 4644     		add	r6, r6, r8
 485              	.LVL97:
 486 012a 556A     		ldr	r5, [r2, #36]
 487              	.LVL98:
 488 012c 2D19     		adds	r5, r5, r4
 489              	.LVL99:
 490 012e 2CBF     		ite	cs
 491 0130 0124     		movcs	r4, #1
 492 0132 0024     		movcc	r4, #0
 493 0134 3444     		add	r4, r4, r6
 494              	.LVL100:
 495 0136 5562     		str	r5, [r2, #36]
 496              	.LVL101:
1137:C:/Users/lenovo/Desktop/liteos/Project2/BearPi_LiteOS/components/security/mbedtls/mbedtls-2.6.0/library\bignum.c ****         MULADDC_CORE   MULADDC_CORE
 497              		.loc 1 1137 0 discriminator 2
 498 0138 8E6A     		ldr	r6, [r1, #40]
 499 013a A3FB0678 		umull	r7, r8, r3, r6
 500              	.LVL102:
 501 013e E419     		adds	r4, r4, r7
 502              	.LVL103:
 503 0140 2CBF     		ite	cs
 504 0142 0126     		movcs	r6, #1
 505 0144 0026     		movcc	r6, #0
 506 0146 4644     		add	r6, r6, r8
 507              	.LVL104:
 508 0148 956A     		ldr	r5, [r2, #40]
 509              	.LVL105:
 510 014a 2D19     		adds	r5, r5, r4
 511              	.LVL106:
 512 014c 2CBF     		ite	cs
 513 014e 0124     		movcs	r4, #1
 514 0150 0024     		movcc	r4, #0
 515 0152 3444     		add	r4, r4, r6
 516              	.LVL107:
 517 0154 9562     		str	r5, [r2, #40]
 518              	.LVL108:
 519 0156 CE6A     		ldr	r6, [r1, #44]
 520 0158 A3FB0678 		umull	r7, r8, r3, r6
ARM GAS  c:\Users\lenovo\AppData\Local\Temp\ccjcyTZ0.s 			page 30


 521              	.LVL109:
 522 015c E419     		adds	r4, r4, r7
 523              	.LVL110:
 524 015e 2CBF     		ite	cs
 525 0160 0126     		movcs	r6, #1
 526 0162 0026     		movcc	r6, #0
 527 0164 4644     		add	r6, r6, r8
 528              	.LVL111:
 529 0166 D56A     		ldr	r5, [r2, #44]
 530              	.LVL112:
 531 0168 2D19     		adds	r5, r5, r4
 532              	.LVL113:
 533 016a 2CBF     		ite	cs
 534 016c 0124     		movcs	r4, #1
 535 016e 0024     		movcc	r4, #0
 536 0170 3444     		add	r4, r4, r6
 537              	.LVL114:
 538 0172 D562     		str	r5, [r2, #44]
 539              	.LVL115:
1138:C:/Users/lenovo/Desktop/liteos/Project2/BearPi_LiteOS/components/security/mbedtls/mbedtls-2.6.0/library\bignum.c ****         MULADDC_CORE   MULADDC_CORE
 540              		.loc 1 1138 0 discriminator 2
 541 0174 0E6B     		ldr	r6, [r1, #48]
 542 0176 A3FB0678 		umull	r7, r8, r3, r6
 543              	.LVL116:
 544 017a E419     		adds	r4, r4, r7
 545              	.LVL117:
 546 017c 2CBF     		ite	cs
 547 017e 0126     		movcs	r6, #1
 548 0180 0026     		movcc	r6, #0
 549 0182 4644     		add	r6, r6, r8
 550              	.LVL118:
 551 0184 156B     		ldr	r5, [r2, #48]
 552              	.LVL119:
 553 0186 2D19     		adds	r5, r5, r4
 554              	.LVL120:
 555 0188 2CBF     		ite	cs
 556 018a 0124     		movcs	r4, #1
 557 018c 0024     		movcc	r4, #0
 558 018e 3444     		add	r4, r4, r6
 559              	.LVL121:
 560 0190 1563     		str	r5, [r2, #48]
 561              	.LVL122:
 562 0192 4E6B     		ldr	r6, [r1, #52]
 563 0194 A3FB0678 		umull	r7, r8, r3, r6
 564              	.LVL123:
 565 0198 E419     		adds	r4, r4, r7
 566              	.LVL124:
 567 019a 2CBF     		ite	cs
 568 019c 0126     		movcs	r6, #1
 569 019e 0026     		movcc	r6, #0
 570 01a0 4644     		add	r6, r6, r8
 571              	.LVL125:
 572 01a2 556B     		ldr	r5, [r2, #52]
 573              	.LVL126:
 574 01a4 2D19     		adds	r5, r5, r4
 575              	.LVL127:
 576 01a6 2CBF     		ite	cs
ARM GAS  c:\Users\lenovo\AppData\Local\Temp\ccjcyTZ0.s 			page 31


 577 01a8 0124     		movcs	r4, #1
 578 01aa 0024     		movcc	r4, #0
 579 01ac 3444     		add	r4, r4, r6
 580              	.LVL128:
 581 01ae 5563     		str	r5, [r2, #52]
 582              	.LVL129:
1139:C:/Users/lenovo/Desktop/liteos/Project2/BearPi_LiteOS/components/security/mbedtls/mbedtls-2.6.0/library\bignum.c ****         MULADDC_CORE   MULADDC_CORE
 583              		.loc 1 1139 0 discriminator 2
 584 01b0 8E6B     		ldr	r6, [r1, #56]
 585 01b2 A3FB0678 		umull	r7, r8, r3, r6
 586              	.LVL130:
 587 01b6 E419     		adds	r4, r4, r7
 588              	.LVL131:
 589 01b8 2CBF     		ite	cs
 590 01ba 0126     		movcs	r6, #1
 591 01bc 0026     		movcc	r6, #0
 592 01be 4644     		add	r6, r6, r8
 593              	.LVL132:
 594 01c0 956B     		ldr	r5, [r2, #56]
 595              	.LVL133:
 596 01c2 2D19     		adds	r5, r5, r4
 597              	.LVL134:
 598 01c4 2CBF     		ite	cs
 599 01c6 0124     		movcs	r4, #1
 600 01c8 0024     		movcc	r4, #0
 601 01ca 3444     		add	r4, r4, r6
 602              	.LVL135:
 603 01cc 9563     		str	r5, [r2, #56]
 604              	.LVL136:
 605 01ce CE6B     		ldr	r6, [r1, #60]
 606 01d0 A3FB0678 		umull	r7, r8, r3, r6
 607              	.LVL137:
 608 01d4 E419     		adds	r4, r4, r7
 609              	.LVL138:
 610 01d6 2CBF     		ite	cs
 611 01d8 0126     		movcs	r6, #1
 612 01da 0026     		movcc	r6, #0
 613 01dc 4644     		add	r6, r6, r8
 614              	.LVL139:
 615 01de D56B     		ldr	r5, [r2, #60]
 616              	.LVL140:
 617 01e0 2D19     		adds	r5, r5, r4
 618              	.LVL141:
 619 01e2 2CBF     		ite	cs
 620 01e4 0124     		movcs	r4, #1
 621 01e6 0024     		movcc	r4, #0
 622 01e8 3444     		add	r4, r4, r6
 623              	.LVL142:
 624 01ea D563     		str	r5, [r2, #60]
 625              	.LBE2:
1128:C:/Users/lenovo/Desktop/liteos/Project2/BearPi_LiteOS/components/security/mbedtls/mbedtls-2.6.0/library\bignum.c ****     {
 626              		.loc 1 1128 0 discriminator 2
 627 01ec 1038     		subs	r0, r0, #16
 628              	.LVL143:
 629              	.LBB3:
 630              		.loc 1 1139 0 discriminator 2
 631 01ee 4032     		adds	r2, r2, #64
ARM GAS  c:\Users\lenovo\AppData\Local\Temp\ccjcyTZ0.s 			page 32


 632              	.LVL144:
 633 01f0 4031     		adds	r1, r1, #64
 634              	.LVL145:
 635              	.L22:
 636              	.LBE3:
1128:C:/Users/lenovo/Desktop/liteos/Project2/BearPi_LiteOS/components/security/mbedtls/mbedtls-2.6.0/library\bignum.c ****     {
 637              		.loc 1 1128 0 discriminator 1
 638 01f2 0F28     		cmp	r0, #15
 639 01f4 3FF608AF 		bhi	.L23
 640              	.L24:
1140:C:/Users/lenovo/Desktop/liteos/Project2/BearPi_LiteOS/components/security/mbedtls/mbedtls-2.6.0/library\bignum.c ****         MULADDC_STOP
1141:C:/Users/lenovo/Desktop/liteos/Project2/BearPi_LiteOS/components/security/mbedtls/mbedtls-2.6.0/library\bignum.c ****     }
1142:C:/Users/lenovo/Desktop/liteos/Project2/BearPi_LiteOS/components/security/mbedtls/mbedtls-2.6.0/library\bignum.c **** 
1143:C:/Users/lenovo/Desktop/liteos/Project2/BearPi_LiteOS/components/security/mbedtls/mbedtls-2.6.0/library\bignum.c ****     for( ; i >= 8; i -= 8 )
 641              		.loc 1 1143 0 discriminator 1
 642 01f8 0728     		cmp	r0, #7
 643 01fa 40F29480 		bls	.L26
 644              	.LVL146:
 645              	.LBB4:
1144:C:/Users/lenovo/Desktop/liteos/Project2/BearPi_LiteOS/components/security/mbedtls/mbedtls-2.6.0/library\bignum.c ****     {
1145:C:/Users/lenovo/Desktop/liteos/Project2/BearPi_LiteOS/components/security/mbedtls/mbedtls-2.6.0/library\bignum.c ****         MULADDC_INIT
1146:C:/Users/lenovo/Desktop/liteos/Project2/BearPi_LiteOS/components/security/mbedtls/mbedtls-2.6.0/library\bignum.c ****         MULADDC_CORE   MULADDC_CORE
 646              		.loc 1 1146 0 discriminator 2
 647 01fe 0D68     		ldr	r5, [r1]
 648 0200 A5FB0389 		umull	r8, r9, r5, r3
 649              	.LVL147:
 650 0204 14EB0804 		adds	r4, r4, r8
 651              	.LVL148:
 652 0208 2CBF     		ite	cs
 653 020a 0125     		movcs	r5, #1
 654 020c 0025     		movcc	r5, #0
 655 020e 05EB0907 		add	r7, r5, r9
 656              	.LVL149:
 657 0212 1668     		ldr	r6, [r2]
 658              	.LVL150:
 659 0214 3619     		adds	r6, r6, r4
 660              	.LVL151:
 661 0216 2CBF     		ite	cs
 662 0218 0125     		movcs	r5, #1
 663 021a 0025     		movcc	r5, #0
 664 021c 3D44     		add	r5, r5, r7
 665              	.LVL152:
 666 021e 1660     		str	r6, [r2]
 667              	.LVL153:
 668 0220 4E68     		ldr	r6, [r1, #4]
 669              	.LVL154:
 670 0222 A3FB0667 		umull	r6, r7, r3, r6
 671              	.LVL155:
 672 0226 AD19     		adds	r5, r5, r6
 673              	.LVL156:
 674 0228 2CBF     		ite	cs
 675 022a 0124     		movcs	r4, #1
 676 022c 0024     		movcc	r4, #0
 677 022e 2744     		add	r7, r7, r4
 678              	.LVL157:
 679 0230 5668     		ldr	r6, [r2, #4]
 680              	.LVL158:
ARM GAS  c:\Users\lenovo\AppData\Local\Temp\ccjcyTZ0.s 			page 33


 681 0232 7519     		adds	r5, r6, r5
 682              	.LVL159:
 683 0234 2CBF     		ite	cs
 684 0236 0124     		movcs	r4, #1
 685 0238 0024     		movcc	r4, #0
 686 023a 3C44     		add	r4, r4, r7
 687              	.LVL160:
 688 023c 5560     		str	r5, [r2, #4]
 689              	.LVL161:
1147:C:/Users/lenovo/Desktop/liteos/Project2/BearPi_LiteOS/components/security/mbedtls/mbedtls-2.6.0/library\bignum.c ****         MULADDC_CORE   MULADDC_CORE
 690              		.loc 1 1147 0 discriminator 2
 691 023e 8E68     		ldr	r6, [r1, #8]
 692 0240 A3FB0678 		umull	r7, r8, r3, r6
 693              	.LVL162:
 694 0244 E419     		adds	r4, r4, r7
 695              	.LVL163:
 696 0246 2CBF     		ite	cs
 697 0248 0126     		movcs	r6, #1
 698 024a 0026     		movcc	r6, #0
 699 024c 4644     		add	r6, r6, r8
 700              	.LVL164:
 701 024e 9568     		ldr	r5, [r2, #8]
 702              	.LVL165:
 703 0250 2D19     		adds	r5, r5, r4
 704              	.LVL166:
 705 0252 2CBF     		ite	cs
 706 0254 0124     		movcs	r4, #1
 707 0256 0024     		movcc	r4, #0
 708 0258 3444     		add	r4, r4, r6
 709              	.LVL167:
 710 025a 9560     		str	r5, [r2, #8]
 711              	.LVL168:
 712 025c CE68     		ldr	r6, [r1, #12]
 713 025e A3FB0678 		umull	r7, r8, r3, r6
 714              	.LVL169:
 715 0262 E419     		adds	r4, r4, r7
 716              	.LVL170:
 717 0264 2CBF     		ite	cs
 718 0266 0126     		movcs	r6, #1
 719 0268 0026     		movcc	r6, #0
 720 026a 4644     		add	r6, r6, r8
 721              	.LVL171:
 722 026c D568     		ldr	r5, [r2, #12]
 723              	.LVL172:
 724 026e 2D19     		adds	r5, r5, r4
 725              	.LVL173:
 726 0270 2CBF     		ite	cs
 727 0272 0124     		movcs	r4, #1
 728 0274 0024     		movcc	r4, #0
 729 0276 3444     		add	r4, r4, r6
 730              	.LVL174:
 731 0278 D560     		str	r5, [r2, #12]
 732              	.LVL175:
1148:C:/Users/lenovo/Desktop/liteos/Project2/BearPi_LiteOS/components/security/mbedtls/mbedtls-2.6.0/library\bignum.c **** 
1149:C:/Users/lenovo/Desktop/liteos/Project2/BearPi_LiteOS/components/security/mbedtls/mbedtls-2.6.0/library\bignum.c ****         MULADDC_CORE   MULADDC_CORE
 733              		.loc 1 1149 0 discriminator 2
 734 027a 0E69     		ldr	r6, [r1, #16]
ARM GAS  c:\Users\lenovo\AppData\Local\Temp\ccjcyTZ0.s 			page 34


 735 027c A3FB0678 		umull	r7, r8, r3, r6
 736              	.LVL176:
 737 0280 E419     		adds	r4, r4, r7
 738              	.LVL177:
 739 0282 2CBF     		ite	cs
 740 0284 0126     		movcs	r6, #1
 741 0286 0026     		movcc	r6, #0
 742 0288 4644     		add	r6, r6, r8
 743              	.LVL178:
 744 028a 1569     		ldr	r5, [r2, #16]
 745              	.LVL179:
 746 028c 2D19     		adds	r5, r5, r4
 747              	.LVL180:
 748 028e 2CBF     		ite	cs
 749 0290 0124     		movcs	r4, #1
 750 0292 0024     		movcc	r4, #0
 751 0294 3444     		add	r4, r4, r6
 752              	.LVL181:
 753 0296 1561     		str	r5, [r2, #16]
 754              	.LVL182:
 755 0298 4E69     		ldr	r6, [r1, #20]
 756 029a A3FB0678 		umull	r7, r8, r3, r6
 757              	.LVL183:
 758 029e E419     		adds	r4, r4, r7
 759              	.LVL184:
 760 02a0 2CBF     		ite	cs
 761 02a2 0126     		movcs	r6, #1
 762 02a4 0026     		movcc	r6, #0
 763 02a6 4644     		add	r6, r6, r8
 764              	.LVL185:
 765 02a8 5569     		ldr	r5, [r2, #20]
 766              	.LVL186:
 767 02aa 2D19     		adds	r5, r5, r4
 768              	.LVL187:
 769 02ac 2CBF     		ite	cs
 770 02ae 0124     		movcs	r4, #1
 771 02b0 0024     		movcc	r4, #0
 772 02b2 3444     		add	r4, r4, r6
 773              	.LVL188:
 774 02b4 5561     		str	r5, [r2, #20]
 775              	.LVL189:
1150:C:/Users/lenovo/Desktop/liteos/Project2/BearPi_LiteOS/components/security/mbedtls/mbedtls-2.6.0/library\bignum.c ****         MULADDC_CORE   MULADDC_CORE
 776              		.loc 1 1150 0 discriminator 2
 777 02b6 8E69     		ldr	r6, [r1, #24]
 778 02b8 A3FB0678 		umull	r7, r8, r3, r6
 779              	.LVL190:
 780 02bc E419     		adds	r4, r4, r7
 781              	.LVL191:
 782 02be 2CBF     		ite	cs
 783 02c0 0126     		movcs	r6, #1
 784 02c2 0026     		movcc	r6, #0
 785 02c4 4644     		add	r6, r6, r8
 786              	.LVL192:
 787 02c6 9569     		ldr	r5, [r2, #24]
 788              	.LVL193:
 789 02c8 2D19     		adds	r5, r5, r4
 790              	.LVL194:
ARM GAS  c:\Users\lenovo\AppData\Local\Temp\ccjcyTZ0.s 			page 35


 791 02ca 2CBF     		ite	cs
 792 02cc 0124     		movcs	r4, #1
 793 02ce 0024     		movcc	r4, #0
 794 02d0 3444     		add	r4, r4, r6
 795              	.LVL195:
 796 02d2 9561     		str	r5, [r2, #24]
 797              	.LVL196:
 798 02d4 CE69     		ldr	r6, [r1, #28]
 799 02d6 A3FB0678 		umull	r7, r8, r3, r6
 800              	.LVL197:
 801 02da E419     		adds	r4, r4, r7
 802              	.LVL198:
 803 02dc 2CBF     		ite	cs
 804 02de 0126     		movcs	r6, #1
 805 02e0 0026     		movcc	r6, #0
 806 02e2 4644     		add	r6, r6, r8
 807              	.LVL199:
 808 02e4 D569     		ldr	r5, [r2, #28]
 809              	.LVL200:
 810 02e6 2D19     		adds	r5, r5, r4
 811              	.LVL201:
 812 02e8 2CBF     		ite	cs
 813 02ea 0124     		movcs	r4, #1
 814 02ec 0024     		movcc	r4, #0
 815 02ee 3444     		add	r4, r4, r6
 816              	.LVL202:
 817 02f0 D561     		str	r5, [r2, #28]
 818              	.LBE4:
1143:C:/Users/lenovo/Desktop/liteos/Project2/BearPi_LiteOS/components/security/mbedtls/mbedtls-2.6.0/library\bignum.c ****     {
 819              		.loc 1 1143 0 discriminator 2
 820 02f2 0838     		subs	r0, r0, #8
 821              	.LVL203:
 822              	.LBB5:
 823              		.loc 1 1150 0 discriminator 2
 824 02f4 2032     		adds	r2, r2, #32
 825              	.LVL204:
 826 02f6 2031     		adds	r1, r1, #32
 827              	.LVL205:
 828 02f8 7EE7     		b	.L24
 829              	.LVL206:
 830              	.L27:
 831              	.LBE5:
 832              	.LBB6:
1151:C:/Users/lenovo/Desktop/liteos/Project2/BearPi_LiteOS/components/security/mbedtls/mbedtls-2.6.0/library\bignum.c ****         MULADDC_STOP
1152:C:/Users/lenovo/Desktop/liteos/Project2/BearPi_LiteOS/components/security/mbedtls/mbedtls-2.6.0/library\bignum.c ****     }
1153:C:/Users/lenovo/Desktop/liteos/Project2/BearPi_LiteOS/components/security/mbedtls/mbedtls-2.6.0/library\bignum.c **** 
1154:C:/Users/lenovo/Desktop/liteos/Project2/BearPi_LiteOS/components/security/mbedtls/mbedtls-2.6.0/library\bignum.c ****     for( ; i > 0; i-- )
1155:C:/Users/lenovo/Desktop/liteos/Project2/BearPi_LiteOS/components/security/mbedtls/mbedtls-2.6.0/library\bignum.c ****     {
1156:C:/Users/lenovo/Desktop/liteos/Project2/BearPi_LiteOS/components/security/mbedtls/mbedtls-2.6.0/library\bignum.c ****         MULADDC_INIT
1157:C:/Users/lenovo/Desktop/liteos/Project2/BearPi_LiteOS/components/security/mbedtls/mbedtls-2.6.0/library\bignum.c ****         MULADDC_CORE
 833              		.loc 1 1157 0 discriminator 2
 834 02fa 0E68     		ldr	r6, [r1]
 835 02fc A6FB0367 		umull	r6, r7, r6, r3
 836              	.LVL207:
 837 0300 14EB060C 		adds	ip, r4, r6
 838              	.LVL208:
 839 0304 2CBF     		ite	cs
ARM GAS  c:\Users\lenovo\AppData\Local\Temp\ccjcyTZ0.s 			page 36


 840 0306 0124     		movcs	r4, #1
 841              	.LVL209:
 842 0308 0024     		movcc	r4, #0
 843 030a 2744     		add	r7, r7, r4
 844              	.LVL210:
 845 030c 1646     		mov	r6, r2
 846              	.LVL211:
 847 030e 56F8045B 		ldr	r5, [r6], #4
 848              	.LVL212:
 849 0312 15EB0C05 		adds	r5, r5, ip
 850              	.LVL213:
 851 0316 2CBF     		ite	cs
 852 0318 0124     		movcs	r4, #1
 853 031a 0024     		movcc	r4, #0
 854 031c 3C44     		add	r4, r4, r7
 855              	.LVL214:
 856 031e 1560     		str	r5, [r2]
 857              	.LVL215:
 858              	.LBE6:
1154:C:/Users/lenovo/Desktop/liteos/Project2/BearPi_LiteOS/components/security/mbedtls/mbedtls-2.6.0/library\bignum.c ****     {
 859              		.loc 1 1154 0 discriminator 2
 860 0320 0138     		subs	r0, r0, #1
 861              	.LVL216:
 862              	.LBB7:
 863              		.loc 1 1157 0 discriminator 2
 864 0322 3246     		mov	r2, r6
 865 0324 0431     		adds	r1, r1, #4
 866              	.LVL217:
 867              	.L26:
 868              	.LBE7:
1154:C:/Users/lenovo/Desktop/liteos/Project2/BearPi_LiteOS/components/security/mbedtls/mbedtls-2.6.0/library\bignum.c ****     {
 869              		.loc 1 1154 0 discriminator 1
 870 0326 0028     		cmp	r0, #0
 871 0328 E7D1     		bne	.L27
 872              	.LVL218:
 873              	.L28:
1158:C:/Users/lenovo/Desktop/liteos/Project2/BearPi_LiteOS/components/security/mbedtls/mbedtls-2.6.0/library\bignum.c ****         MULADDC_STOP
1159:C:/Users/lenovo/Desktop/liteos/Project2/BearPi_LiteOS/components/security/mbedtls/mbedtls-2.6.0/library\bignum.c ****     }
1160:C:/Users/lenovo/Desktop/liteos/Project2/BearPi_LiteOS/components/security/mbedtls/mbedtls-2.6.0/library\bignum.c **** #endif /* MULADDC_HUIT */
1161:C:/Users/lenovo/Desktop/liteos/Project2/BearPi_LiteOS/components/security/mbedtls/mbedtls-2.6.0/library\bignum.c **** 
1162:C:/Users/lenovo/Desktop/liteos/Project2/BearPi_LiteOS/components/security/mbedtls/mbedtls-2.6.0/library\bignum.c ****     t++;
1163:C:/Users/lenovo/Desktop/liteos/Project2/BearPi_LiteOS/components/security/mbedtls/mbedtls-2.6.0/library\bignum.c **** 
1164:C:/Users/lenovo/Desktop/liteos/Project2/BearPi_LiteOS/components/security/mbedtls/mbedtls-2.6.0/library\bignum.c ****     do {
1165:C:/Users/lenovo/Desktop/liteos/Project2/BearPi_LiteOS/components/security/mbedtls/mbedtls-2.6.0/library\bignum.c ****         *d += c; c = ( *d < c ); d++;
 874              		.loc 1 1165 0 discriminator 1
 875 032a 1368     		ldr	r3, [r2]
 876 032c 2344     		add	r3, r3, r4
 877 032e 42F8043B 		str	r3, [r2], #4
 878              	.LVL219:
 879 0332 A342     		cmp	r3, r4
 880 0334 34BF     		ite	cc
 881 0336 0124     		movcc	r4, #1
 882              	.LVL220:
 883 0338 0024     		movcs	r4, #0
 884              	.LVL221:
1166:C:/Users/lenovo/Desktop/liteos/Project2/BearPi_LiteOS/components/security/mbedtls/mbedtls-2.6.0/library\bignum.c ****     }
1167:C:/Users/lenovo/Desktop/liteos/Project2/BearPi_LiteOS/components/security/mbedtls/mbedtls-2.6.0/library\bignum.c ****     while( c != 0 );
ARM GAS  c:\Users\lenovo\AppData\Local\Temp\ccjcyTZ0.s 			page 37


 885              		.loc 1 1167 0 discriminator 1
 886 033a F6D3     		bcc	.L28
1168:C:/Users/lenovo/Desktop/liteos/Project2/BearPi_LiteOS/components/security/mbedtls/mbedtls-2.6.0/library\bignum.c **** }
 887              		.loc 1 1168 0
 888 033c BDE8F003 		pop	{r4, r5, r6, r7, r8, r9}
 889              	.LCFI3:
 890              		.cfi_restore 9
 891              		.cfi_restore 8
 892              		.cfi_restore 7
 893              		.cfi_restore 6
 894              		.cfi_restore 5
 895              		.cfi_restore 4
 896              		.cfi_def_cfa_offset 0
 897              	.LVL222:
 898 0340 7047     		bx	lr
 899              		.cfi_endproc
 900              	.LFE37:
 902              		.global	__aeabi_uldivmod
 903              		.section	.text.mbedtls_int_div_int,"ax",%progbits
 904              		.align	1
 905              		.syntax unified
 906              		.thumb
 907              		.thumb_func
 908              		.fpu fpv4-sp-d16
 910              	mbedtls_int_div_int:
 911              	.LFB40:
1169:C:/Users/lenovo/Desktop/liteos/Project2/BearPi_LiteOS/components/security/mbedtls/mbedtls-2.6.0/library\bignum.c **** 
1170:C:/Users/lenovo/Desktop/liteos/Project2/BearPi_LiteOS/components/security/mbedtls/mbedtls-2.6.0/library\bignum.c **** /*
1171:C:/Users/lenovo/Desktop/liteos/Project2/BearPi_LiteOS/components/security/mbedtls/mbedtls-2.6.0/library\bignum.c ****  * Baseline multiplication: X = A * B  (HAC 14.12)
1172:C:/Users/lenovo/Desktop/liteos/Project2/BearPi_LiteOS/components/security/mbedtls/mbedtls-2.6.0/library\bignum.c ****  */
1173:C:/Users/lenovo/Desktop/liteos/Project2/BearPi_LiteOS/components/security/mbedtls/mbedtls-2.6.0/library\bignum.c **** int mbedtls_mpi_mul_mpi( mbedtls_mpi *X, const mbedtls_mpi *A, const mbedtls_mpi *B )
1174:C:/Users/lenovo/Desktop/liteos/Project2/BearPi_LiteOS/components/security/mbedtls/mbedtls-2.6.0/library\bignum.c **** {
1175:C:/Users/lenovo/Desktop/liteos/Project2/BearPi_LiteOS/components/security/mbedtls/mbedtls-2.6.0/library\bignum.c ****     int ret;
1176:C:/Users/lenovo/Desktop/liteos/Project2/BearPi_LiteOS/components/security/mbedtls/mbedtls-2.6.0/library\bignum.c ****     size_t i, j;
1177:C:/Users/lenovo/Desktop/liteos/Project2/BearPi_LiteOS/components/security/mbedtls/mbedtls-2.6.0/library\bignum.c ****     mbedtls_mpi TA, TB;
1178:C:/Users/lenovo/Desktop/liteos/Project2/BearPi_LiteOS/components/security/mbedtls/mbedtls-2.6.0/library\bignum.c **** 
1179:C:/Users/lenovo/Desktop/liteos/Project2/BearPi_LiteOS/components/security/mbedtls/mbedtls-2.6.0/library\bignum.c ****     mbedtls_mpi_init( &TA ); mbedtls_mpi_init( &TB );
1180:C:/Users/lenovo/Desktop/liteos/Project2/BearPi_LiteOS/components/security/mbedtls/mbedtls-2.6.0/library\bignum.c **** 
1181:C:/Users/lenovo/Desktop/liteos/Project2/BearPi_LiteOS/components/security/mbedtls/mbedtls-2.6.0/library\bignum.c ****     if( X == A ) { MBEDTLS_MPI_CHK( mbedtls_mpi_copy( &TA, A ) ); A = &TA; }
1182:C:/Users/lenovo/Desktop/liteos/Project2/BearPi_LiteOS/components/security/mbedtls/mbedtls-2.6.0/library\bignum.c ****     if( X == B ) { MBEDTLS_MPI_CHK( mbedtls_mpi_copy( &TB, B ) ); B = &TB; }
1183:C:/Users/lenovo/Desktop/liteos/Project2/BearPi_LiteOS/components/security/mbedtls/mbedtls-2.6.0/library\bignum.c **** 
1184:C:/Users/lenovo/Desktop/liteos/Project2/BearPi_LiteOS/components/security/mbedtls/mbedtls-2.6.0/library\bignum.c ****     for( i = A->n; i > 0; i-- )
1185:C:/Users/lenovo/Desktop/liteos/Project2/BearPi_LiteOS/components/security/mbedtls/mbedtls-2.6.0/library\bignum.c ****         if( A->p[i - 1] != 0 )
1186:C:/Users/lenovo/Desktop/liteos/Project2/BearPi_LiteOS/components/security/mbedtls/mbedtls-2.6.0/library\bignum.c ****             break;
1187:C:/Users/lenovo/Desktop/liteos/Project2/BearPi_LiteOS/components/security/mbedtls/mbedtls-2.6.0/library\bignum.c **** 
1188:C:/Users/lenovo/Desktop/liteos/Project2/BearPi_LiteOS/components/security/mbedtls/mbedtls-2.6.0/library\bignum.c ****     for( j = B->n; j > 0; j-- )
1189:C:/Users/lenovo/Desktop/liteos/Project2/BearPi_LiteOS/components/security/mbedtls/mbedtls-2.6.0/library\bignum.c ****         if( B->p[j - 1] != 0 )
1190:C:/Users/lenovo/Desktop/liteos/Project2/BearPi_LiteOS/components/security/mbedtls/mbedtls-2.6.0/library\bignum.c ****             break;
1191:C:/Users/lenovo/Desktop/liteos/Project2/BearPi_LiteOS/components/security/mbedtls/mbedtls-2.6.0/library\bignum.c **** 
1192:C:/Users/lenovo/Desktop/liteos/Project2/BearPi_LiteOS/components/security/mbedtls/mbedtls-2.6.0/library\bignum.c ****     MBEDTLS_MPI_CHK( mbedtls_mpi_grow( X, i + j ) );
1193:C:/Users/lenovo/Desktop/liteos/Project2/BearPi_LiteOS/components/security/mbedtls/mbedtls-2.6.0/library\bignum.c ****     MBEDTLS_MPI_CHK( mbedtls_mpi_lset( X, 0 ) );
1194:C:/Users/lenovo/Desktop/liteos/Project2/BearPi_LiteOS/components/security/mbedtls/mbedtls-2.6.0/library\bignum.c **** 
1195:C:/Users/lenovo/Desktop/liteos/Project2/BearPi_LiteOS/components/security/mbedtls/mbedtls-2.6.0/library\bignum.c ****     for( i++; j > 0; j-- )
1196:C:/Users/lenovo/Desktop/liteos/Project2/BearPi_LiteOS/components/security/mbedtls/mbedtls-2.6.0/library\bignum.c ****         mpi_mul_hlp( i - 1, A->p, X->p + j - 1, B->p[j - 1] );
1197:C:/Users/lenovo/Desktop/liteos/Project2/BearPi_LiteOS/components/security/mbedtls/mbedtls-2.6.0/library\bignum.c **** 
1198:C:/Users/lenovo/Desktop/liteos/Project2/BearPi_LiteOS/components/security/mbedtls/mbedtls-2.6.0/library\bignum.c ****     X->s = A->s * B->s;
1199:C:/Users/lenovo/Desktop/liteos/Project2/BearPi_LiteOS/components/security/mbedtls/mbedtls-2.6.0/library\bignum.c **** 
ARM GAS  c:\Users\lenovo\AppData\Local\Temp\ccjcyTZ0.s 			page 38


1200:C:/Users/lenovo/Desktop/liteos/Project2/BearPi_LiteOS/components/security/mbedtls/mbedtls-2.6.0/library\bignum.c **** cleanup:
1201:C:/Users/lenovo/Desktop/liteos/Project2/BearPi_LiteOS/components/security/mbedtls/mbedtls-2.6.0/library\bignum.c **** 
1202:C:/Users/lenovo/Desktop/liteos/Project2/BearPi_LiteOS/components/security/mbedtls/mbedtls-2.6.0/library\bignum.c ****     mbedtls_mpi_free( &TB ); mbedtls_mpi_free( &TA );
1203:C:/Users/lenovo/Desktop/liteos/Project2/BearPi_LiteOS/components/security/mbedtls/mbedtls-2.6.0/library\bignum.c **** 
1204:C:/Users/lenovo/Desktop/liteos/Project2/BearPi_LiteOS/components/security/mbedtls/mbedtls-2.6.0/library\bignum.c ****     return( ret );
1205:C:/Users/lenovo/Desktop/liteos/Project2/BearPi_LiteOS/components/security/mbedtls/mbedtls-2.6.0/library\bignum.c **** }
1206:C:/Users/lenovo/Desktop/liteos/Project2/BearPi_LiteOS/components/security/mbedtls/mbedtls-2.6.0/library\bignum.c **** 
1207:C:/Users/lenovo/Desktop/liteos/Project2/BearPi_LiteOS/components/security/mbedtls/mbedtls-2.6.0/library\bignum.c **** /*
1208:C:/Users/lenovo/Desktop/liteos/Project2/BearPi_LiteOS/components/security/mbedtls/mbedtls-2.6.0/library\bignum.c ****  * Baseline multiplication: X = A * b
1209:C:/Users/lenovo/Desktop/liteos/Project2/BearPi_LiteOS/components/security/mbedtls/mbedtls-2.6.0/library\bignum.c ****  */
1210:C:/Users/lenovo/Desktop/liteos/Project2/BearPi_LiteOS/components/security/mbedtls/mbedtls-2.6.0/library\bignum.c **** int mbedtls_mpi_mul_int( mbedtls_mpi *X, const mbedtls_mpi *A, mbedtls_mpi_uint b )
1211:C:/Users/lenovo/Desktop/liteos/Project2/BearPi_LiteOS/components/security/mbedtls/mbedtls-2.6.0/library\bignum.c **** {
1212:C:/Users/lenovo/Desktop/liteos/Project2/BearPi_LiteOS/components/security/mbedtls/mbedtls-2.6.0/library\bignum.c ****     mbedtls_mpi _B;
1213:C:/Users/lenovo/Desktop/liteos/Project2/BearPi_LiteOS/components/security/mbedtls/mbedtls-2.6.0/library\bignum.c ****     mbedtls_mpi_uint p[1];
1214:C:/Users/lenovo/Desktop/liteos/Project2/BearPi_LiteOS/components/security/mbedtls/mbedtls-2.6.0/library\bignum.c **** 
1215:C:/Users/lenovo/Desktop/liteos/Project2/BearPi_LiteOS/components/security/mbedtls/mbedtls-2.6.0/library\bignum.c ****     _B.s = 1;
1216:C:/Users/lenovo/Desktop/liteos/Project2/BearPi_LiteOS/components/security/mbedtls/mbedtls-2.6.0/library\bignum.c ****     _B.n = 1;
1217:C:/Users/lenovo/Desktop/liteos/Project2/BearPi_LiteOS/components/security/mbedtls/mbedtls-2.6.0/library\bignum.c ****     _B.p = p;
1218:C:/Users/lenovo/Desktop/liteos/Project2/BearPi_LiteOS/components/security/mbedtls/mbedtls-2.6.0/library\bignum.c ****     p[0] = b;
1219:C:/Users/lenovo/Desktop/liteos/Project2/BearPi_LiteOS/components/security/mbedtls/mbedtls-2.6.0/library\bignum.c **** 
1220:C:/Users/lenovo/Desktop/liteos/Project2/BearPi_LiteOS/components/security/mbedtls/mbedtls-2.6.0/library\bignum.c ****     return( mbedtls_mpi_mul_mpi( X, A, &_B ) );
1221:C:/Users/lenovo/Desktop/liteos/Project2/BearPi_LiteOS/components/security/mbedtls/mbedtls-2.6.0/library\bignum.c **** }
1222:C:/Users/lenovo/Desktop/liteos/Project2/BearPi_LiteOS/components/security/mbedtls/mbedtls-2.6.0/library\bignum.c **** 
1223:C:/Users/lenovo/Desktop/liteos/Project2/BearPi_LiteOS/components/security/mbedtls/mbedtls-2.6.0/library\bignum.c **** /*
1224:C:/Users/lenovo/Desktop/liteos/Project2/BearPi_LiteOS/components/security/mbedtls/mbedtls-2.6.0/library\bignum.c ****  * Unsigned integer divide - double mbedtls_mpi_uint dividend, u1/u0, and
1225:C:/Users/lenovo/Desktop/liteos/Project2/BearPi_LiteOS/components/security/mbedtls/mbedtls-2.6.0/library\bignum.c ****  * mbedtls_mpi_uint divisor, d
1226:C:/Users/lenovo/Desktop/liteos/Project2/BearPi_LiteOS/components/security/mbedtls/mbedtls-2.6.0/library\bignum.c ****  */
1227:C:/Users/lenovo/Desktop/liteos/Project2/BearPi_LiteOS/components/security/mbedtls/mbedtls-2.6.0/library\bignum.c **** static mbedtls_mpi_uint mbedtls_int_div_int( mbedtls_mpi_uint u1,
1228:C:/Users/lenovo/Desktop/liteos/Project2/BearPi_LiteOS/components/security/mbedtls/mbedtls-2.6.0/library\bignum.c ****             mbedtls_mpi_uint u0, mbedtls_mpi_uint d, mbedtls_mpi_uint *r )
1229:C:/Users/lenovo/Desktop/liteos/Project2/BearPi_LiteOS/components/security/mbedtls/mbedtls-2.6.0/library\bignum.c **** {
 912              		.loc 1 1229 0
 913              		.cfi_startproc
 914              		@ args = 0, pretend = 0, frame = 0
 915              		@ frame_needed = 0, uses_anonymous_args = 0
 916              	.LVL223:
1230:C:/Users/lenovo/Desktop/liteos/Project2/BearPi_LiteOS/components/security/mbedtls/mbedtls-2.6.0/library\bignum.c **** #if defined(MBEDTLS_HAVE_UDBL)
1231:C:/Users/lenovo/Desktop/liteos/Project2/BearPi_LiteOS/components/security/mbedtls/mbedtls-2.6.0/library\bignum.c ****     mbedtls_t_udbl dividend, quotient;
1232:C:/Users/lenovo/Desktop/liteos/Project2/BearPi_LiteOS/components/security/mbedtls/mbedtls-2.6.0/library\bignum.c **** #else
1233:C:/Users/lenovo/Desktop/liteos/Project2/BearPi_LiteOS/components/security/mbedtls/mbedtls-2.6.0/library\bignum.c ****     const mbedtls_mpi_uint radix = (mbedtls_mpi_uint) 1 << biH;
1234:C:/Users/lenovo/Desktop/liteos/Project2/BearPi_LiteOS/components/security/mbedtls/mbedtls-2.6.0/library\bignum.c ****     const mbedtls_mpi_uint uint_halfword_mask = ( (mbedtls_mpi_uint) 1 << biH ) - 1;
1235:C:/Users/lenovo/Desktop/liteos/Project2/BearPi_LiteOS/components/security/mbedtls/mbedtls-2.6.0/library\bignum.c ****     mbedtls_mpi_uint d0, d1, q0, q1, rAX, r0, quotient;
1236:C:/Users/lenovo/Desktop/liteos/Project2/BearPi_LiteOS/components/security/mbedtls/mbedtls-2.6.0/library\bignum.c ****     mbedtls_mpi_uint u0_msw, u0_lsw;
1237:C:/Users/lenovo/Desktop/liteos/Project2/BearPi_LiteOS/components/security/mbedtls/mbedtls-2.6.0/library\bignum.c ****     size_t s;
1238:C:/Users/lenovo/Desktop/liteos/Project2/BearPi_LiteOS/components/security/mbedtls/mbedtls-2.6.0/library\bignum.c **** #endif
1239:C:/Users/lenovo/Desktop/liteos/Project2/BearPi_LiteOS/components/security/mbedtls/mbedtls-2.6.0/library\bignum.c **** 
1240:C:/Users/lenovo/Desktop/liteos/Project2/BearPi_LiteOS/components/security/mbedtls/mbedtls-2.6.0/library\bignum.c ****     /*
1241:C:/Users/lenovo/Desktop/liteos/Project2/BearPi_LiteOS/components/security/mbedtls/mbedtls-2.6.0/library\bignum.c ****      * Check for overflow
1242:C:/Users/lenovo/Desktop/liteos/Project2/BearPi_LiteOS/components/security/mbedtls/mbedtls-2.6.0/library\bignum.c ****      */
1243:C:/Users/lenovo/Desktop/liteos/Project2/BearPi_LiteOS/components/security/mbedtls/mbedtls-2.6.0/library\bignum.c ****     if( 0 == d || u1 >= d )
 917              		.loc 1 1243 0
 918 0000 22B3     		cbz	r2, .L40
1229:C:/Users/lenovo/Desktop/liteos/Project2/BearPi_LiteOS/components/security/mbedtls/mbedtls-2.6.0/library\bignum.c **** #if defined(MBEDTLS_HAVE_UDBL)
 919              		.loc 1 1229 0 discriminator 1
 920 0002 2DE9F843 		push	{r3, r4, r5, r6, r7, r8, r9, lr}
 921              	.LCFI4:
 922              		.cfi_def_cfa_offset 32
 923              		.cfi_offset 3, -32
ARM GAS  c:\Users\lenovo\AppData\Local\Temp\ccjcyTZ0.s 			page 39


 924              		.cfi_offset 4, -28
 925              		.cfi_offset 5, -24
 926              		.cfi_offset 6, -20
 927              		.cfi_offset 7, -16
 928              		.cfi_offset 8, -12
 929              		.cfi_offset 9, -8
 930              		.cfi_offset 14, -4
 931 0006 1446     		mov	r4, r2
 932              		.loc 1 1243 0 discriminator 1
 933 0008 8242     		cmp	r2, r0
 934 000a 05D8     		bhi	.L33
1244:C:/Users/lenovo/Desktop/liteos/Project2/BearPi_LiteOS/components/security/mbedtls/mbedtls-2.6.0/library\bignum.c ****     {
1245:C:/Users/lenovo/Desktop/liteos/Project2/BearPi_LiteOS/components/security/mbedtls/mbedtls-2.6.0/library\bignum.c ****         if (r != NULL) *r = ~0;
 935              		.loc 1 1245 0
 936 000c DBB1     		cbz	r3, .L37
 937              		.loc 1 1245 0 is_stmt 0 discriminator 1
 938 000e 4FF0FF30 		mov	r0, #-1
 939              	.LVL224:
 940 0012 1860     		str	r0, [r3]
 941              	.LVL225:
 942              	.L31:
1246:C:/Users/lenovo/Desktop/liteos/Project2/BearPi_LiteOS/components/security/mbedtls/mbedtls-2.6.0/library\bignum.c **** 
1247:C:/Users/lenovo/Desktop/liteos/Project2/BearPi_LiteOS/components/security/mbedtls/mbedtls-2.6.0/library\bignum.c ****         return ( ~0 );
1248:C:/Users/lenovo/Desktop/liteos/Project2/BearPi_LiteOS/components/security/mbedtls/mbedtls-2.6.0/library\bignum.c ****     }
1249:C:/Users/lenovo/Desktop/liteos/Project2/BearPi_LiteOS/components/security/mbedtls/mbedtls-2.6.0/library\bignum.c **** 
1250:C:/Users/lenovo/Desktop/liteos/Project2/BearPi_LiteOS/components/security/mbedtls/mbedtls-2.6.0/library\bignum.c **** #if defined(MBEDTLS_HAVE_UDBL)
1251:C:/Users/lenovo/Desktop/liteos/Project2/BearPi_LiteOS/components/security/mbedtls/mbedtls-2.6.0/library\bignum.c ****     dividend  = (mbedtls_t_udbl) u1 << biL;
1252:C:/Users/lenovo/Desktop/liteos/Project2/BearPi_LiteOS/components/security/mbedtls/mbedtls-2.6.0/library\bignum.c ****     dividend |= (mbedtls_t_udbl) u0;
1253:C:/Users/lenovo/Desktop/liteos/Project2/BearPi_LiteOS/components/security/mbedtls/mbedtls-2.6.0/library\bignum.c ****     quotient = dividend / d;
1254:C:/Users/lenovo/Desktop/liteos/Project2/BearPi_LiteOS/components/security/mbedtls/mbedtls-2.6.0/library\bignum.c ****     if( quotient > ( (mbedtls_t_udbl) 1 << biL ) - 1 )
1255:C:/Users/lenovo/Desktop/liteos/Project2/BearPi_LiteOS/components/security/mbedtls/mbedtls-2.6.0/library\bignum.c ****         quotient = ( (mbedtls_t_udbl) 1 << biL ) - 1;
1256:C:/Users/lenovo/Desktop/liteos/Project2/BearPi_LiteOS/components/security/mbedtls/mbedtls-2.6.0/library\bignum.c **** 
1257:C:/Users/lenovo/Desktop/liteos/Project2/BearPi_LiteOS/components/security/mbedtls/mbedtls-2.6.0/library\bignum.c ****     if( r != NULL )
1258:C:/Users/lenovo/Desktop/liteos/Project2/BearPi_LiteOS/components/security/mbedtls/mbedtls-2.6.0/library\bignum.c ****         *r = (mbedtls_mpi_uint)( dividend - (quotient * d ) );
1259:C:/Users/lenovo/Desktop/liteos/Project2/BearPi_LiteOS/components/security/mbedtls/mbedtls-2.6.0/library\bignum.c **** 
1260:C:/Users/lenovo/Desktop/liteos/Project2/BearPi_LiteOS/components/security/mbedtls/mbedtls-2.6.0/library\bignum.c ****     return (mbedtls_mpi_uint) quotient;
1261:C:/Users/lenovo/Desktop/liteos/Project2/BearPi_LiteOS/components/security/mbedtls/mbedtls-2.6.0/library\bignum.c **** #else
1262:C:/Users/lenovo/Desktop/liteos/Project2/BearPi_LiteOS/components/security/mbedtls/mbedtls-2.6.0/library\bignum.c **** 
1263:C:/Users/lenovo/Desktop/liteos/Project2/BearPi_LiteOS/components/security/mbedtls/mbedtls-2.6.0/library\bignum.c ****     /*
1264:C:/Users/lenovo/Desktop/liteos/Project2/BearPi_LiteOS/components/security/mbedtls/mbedtls-2.6.0/library\bignum.c ****      * Algorithm D, Section 4.3.1 - The Art of Computer Programming
1265:C:/Users/lenovo/Desktop/liteos/Project2/BearPi_LiteOS/components/security/mbedtls/mbedtls-2.6.0/library\bignum.c ****      *   Vol. 2 - Seminumerical Algorithms, Knuth
1266:C:/Users/lenovo/Desktop/liteos/Project2/BearPi_LiteOS/components/security/mbedtls/mbedtls-2.6.0/library\bignum.c ****      */
1267:C:/Users/lenovo/Desktop/liteos/Project2/BearPi_LiteOS/components/security/mbedtls/mbedtls-2.6.0/library\bignum.c **** 
1268:C:/Users/lenovo/Desktop/liteos/Project2/BearPi_LiteOS/components/security/mbedtls/mbedtls-2.6.0/library\bignum.c ****     /*
1269:C:/Users/lenovo/Desktop/liteos/Project2/BearPi_LiteOS/components/security/mbedtls/mbedtls-2.6.0/library\bignum.c ****      * Normalize the divisor, d, and dividend, u0, u1
1270:C:/Users/lenovo/Desktop/liteos/Project2/BearPi_LiteOS/components/security/mbedtls/mbedtls-2.6.0/library\bignum.c ****      */
1271:C:/Users/lenovo/Desktop/liteos/Project2/BearPi_LiteOS/components/security/mbedtls/mbedtls-2.6.0/library\bignum.c ****     s = mbedtls_clz( d );
1272:C:/Users/lenovo/Desktop/liteos/Project2/BearPi_LiteOS/components/security/mbedtls/mbedtls-2.6.0/library\bignum.c ****     d = d << s;
1273:C:/Users/lenovo/Desktop/liteos/Project2/BearPi_LiteOS/components/security/mbedtls/mbedtls-2.6.0/library\bignum.c **** 
1274:C:/Users/lenovo/Desktop/liteos/Project2/BearPi_LiteOS/components/security/mbedtls/mbedtls-2.6.0/library\bignum.c ****     u1 = u1 << s;
1275:C:/Users/lenovo/Desktop/liteos/Project2/BearPi_LiteOS/components/security/mbedtls/mbedtls-2.6.0/library\bignum.c ****     u1 |= ( u0 >> ( biL - s ) ) & ( -(mbedtls_mpi_sint)s >> ( biL - 1 ) );
1276:C:/Users/lenovo/Desktop/liteos/Project2/BearPi_LiteOS/components/security/mbedtls/mbedtls-2.6.0/library\bignum.c ****     u0 =  u0 << s;
1277:C:/Users/lenovo/Desktop/liteos/Project2/BearPi_LiteOS/components/security/mbedtls/mbedtls-2.6.0/library\bignum.c **** 
1278:C:/Users/lenovo/Desktop/liteos/Project2/BearPi_LiteOS/components/security/mbedtls/mbedtls-2.6.0/library\bignum.c ****     d1 = d >> biH;
1279:C:/Users/lenovo/Desktop/liteos/Project2/BearPi_LiteOS/components/security/mbedtls/mbedtls-2.6.0/library\bignum.c ****     d0 = d & uint_halfword_mask;
1280:C:/Users/lenovo/Desktop/liteos/Project2/BearPi_LiteOS/components/security/mbedtls/mbedtls-2.6.0/library\bignum.c **** 
1281:C:/Users/lenovo/Desktop/liteos/Project2/BearPi_LiteOS/components/security/mbedtls/mbedtls-2.6.0/library\bignum.c ****     u0_msw = u0 >> biH;
ARM GAS  c:\Users\lenovo\AppData\Local\Temp\ccjcyTZ0.s 			page 40


1282:C:/Users/lenovo/Desktop/liteos/Project2/BearPi_LiteOS/components/security/mbedtls/mbedtls-2.6.0/library\bignum.c ****     u0_lsw = u0 & uint_halfword_mask;
1283:C:/Users/lenovo/Desktop/liteos/Project2/BearPi_LiteOS/components/security/mbedtls/mbedtls-2.6.0/library\bignum.c **** 
1284:C:/Users/lenovo/Desktop/liteos/Project2/BearPi_LiteOS/components/security/mbedtls/mbedtls-2.6.0/library\bignum.c ****     /*
1285:C:/Users/lenovo/Desktop/liteos/Project2/BearPi_LiteOS/components/security/mbedtls/mbedtls-2.6.0/library\bignum.c ****      * Find the first quotient and remainder
1286:C:/Users/lenovo/Desktop/liteos/Project2/BearPi_LiteOS/components/security/mbedtls/mbedtls-2.6.0/library\bignum.c ****      */
1287:C:/Users/lenovo/Desktop/liteos/Project2/BearPi_LiteOS/components/security/mbedtls/mbedtls-2.6.0/library\bignum.c ****     q1 = u1 / d1;
1288:C:/Users/lenovo/Desktop/liteos/Project2/BearPi_LiteOS/components/security/mbedtls/mbedtls-2.6.0/library\bignum.c ****     r0 = u1 - d1 * q1;
1289:C:/Users/lenovo/Desktop/liteos/Project2/BearPi_LiteOS/components/security/mbedtls/mbedtls-2.6.0/library\bignum.c **** 
1290:C:/Users/lenovo/Desktop/liteos/Project2/BearPi_LiteOS/components/security/mbedtls/mbedtls-2.6.0/library\bignum.c ****     while( q1 >= radix || ( q1 * d0 > radix * r0 + u0_msw ) )
1291:C:/Users/lenovo/Desktop/liteos/Project2/BearPi_LiteOS/components/security/mbedtls/mbedtls-2.6.0/library\bignum.c ****     {
1292:C:/Users/lenovo/Desktop/liteos/Project2/BearPi_LiteOS/components/security/mbedtls/mbedtls-2.6.0/library\bignum.c ****         q1 -= 1;
1293:C:/Users/lenovo/Desktop/liteos/Project2/BearPi_LiteOS/components/security/mbedtls/mbedtls-2.6.0/library\bignum.c ****         r0 += d1;
1294:C:/Users/lenovo/Desktop/liteos/Project2/BearPi_LiteOS/components/security/mbedtls/mbedtls-2.6.0/library\bignum.c **** 
1295:C:/Users/lenovo/Desktop/liteos/Project2/BearPi_LiteOS/components/security/mbedtls/mbedtls-2.6.0/library\bignum.c ****         if ( r0 >= radix ) break;
1296:C:/Users/lenovo/Desktop/liteos/Project2/BearPi_LiteOS/components/security/mbedtls/mbedtls-2.6.0/library\bignum.c ****     }
1297:C:/Users/lenovo/Desktop/liteos/Project2/BearPi_LiteOS/components/security/mbedtls/mbedtls-2.6.0/library\bignum.c **** 
1298:C:/Users/lenovo/Desktop/liteos/Project2/BearPi_LiteOS/components/security/mbedtls/mbedtls-2.6.0/library\bignum.c ****     rAX = ( u1 * radix ) + ( u0_msw - q1 * d );
1299:C:/Users/lenovo/Desktop/liteos/Project2/BearPi_LiteOS/components/security/mbedtls/mbedtls-2.6.0/library\bignum.c ****     q0 = rAX / d1;
1300:C:/Users/lenovo/Desktop/liteos/Project2/BearPi_LiteOS/components/security/mbedtls/mbedtls-2.6.0/library\bignum.c ****     r0 = rAX - q0 * d1;
1301:C:/Users/lenovo/Desktop/liteos/Project2/BearPi_LiteOS/components/security/mbedtls/mbedtls-2.6.0/library\bignum.c **** 
1302:C:/Users/lenovo/Desktop/liteos/Project2/BearPi_LiteOS/components/security/mbedtls/mbedtls-2.6.0/library\bignum.c ****     while( q0 >= radix || ( q0 * d0 > radix * r0 + u0_lsw ) )
1303:C:/Users/lenovo/Desktop/liteos/Project2/BearPi_LiteOS/components/security/mbedtls/mbedtls-2.6.0/library\bignum.c ****     {
1304:C:/Users/lenovo/Desktop/liteos/Project2/BearPi_LiteOS/components/security/mbedtls/mbedtls-2.6.0/library\bignum.c ****         q0 -= 1;
1305:C:/Users/lenovo/Desktop/liteos/Project2/BearPi_LiteOS/components/security/mbedtls/mbedtls-2.6.0/library\bignum.c ****         r0 += d1;
1306:C:/Users/lenovo/Desktop/liteos/Project2/BearPi_LiteOS/components/security/mbedtls/mbedtls-2.6.0/library\bignum.c **** 
1307:C:/Users/lenovo/Desktop/liteos/Project2/BearPi_LiteOS/components/security/mbedtls/mbedtls-2.6.0/library\bignum.c ****         if ( r0 >= radix ) break;
1308:C:/Users/lenovo/Desktop/liteos/Project2/BearPi_LiteOS/components/security/mbedtls/mbedtls-2.6.0/library\bignum.c ****     }
1309:C:/Users/lenovo/Desktop/liteos/Project2/BearPi_LiteOS/components/security/mbedtls/mbedtls-2.6.0/library\bignum.c **** 
1310:C:/Users/lenovo/Desktop/liteos/Project2/BearPi_LiteOS/components/security/mbedtls/mbedtls-2.6.0/library\bignum.c ****     if (r != NULL)
1311:C:/Users/lenovo/Desktop/liteos/Project2/BearPi_LiteOS/components/security/mbedtls/mbedtls-2.6.0/library\bignum.c ****         *r = ( rAX * radix + u0_lsw - q0 * d ) >> s;
1312:C:/Users/lenovo/Desktop/liteos/Project2/BearPi_LiteOS/components/security/mbedtls/mbedtls-2.6.0/library\bignum.c **** 
1313:C:/Users/lenovo/Desktop/liteos/Project2/BearPi_LiteOS/components/security/mbedtls/mbedtls-2.6.0/library\bignum.c ****     quotient = q1 * radix + q0;
1314:C:/Users/lenovo/Desktop/liteos/Project2/BearPi_LiteOS/components/security/mbedtls/mbedtls-2.6.0/library\bignum.c **** 
1315:C:/Users/lenovo/Desktop/liteos/Project2/BearPi_LiteOS/components/security/mbedtls/mbedtls-2.6.0/library\bignum.c ****     return quotient;
1316:C:/Users/lenovo/Desktop/liteos/Project2/BearPi_LiteOS/components/security/mbedtls/mbedtls-2.6.0/library\bignum.c **** #endif
1317:C:/Users/lenovo/Desktop/liteos/Project2/BearPi_LiteOS/components/security/mbedtls/mbedtls-2.6.0/library\bignum.c **** }
 943              		.loc 1 1317 0 is_stmt 1
 944 0014 BDE8F883 		pop	{r3, r4, r5, r6, r7, r8, r9, pc}
 945              	.LVL226:
 946              	.L33:
 947 0018 1D46     		mov	r5, r3
1251:C:/Users/lenovo/Desktop/liteos/Project2/BearPi_LiteOS/components/security/mbedtls/mbedtls-2.6.0/library\bignum.c ****     dividend |= (mbedtls_t_udbl) u0;
 948              		.loc 1 1251 0
 949 001a 4FF00008 		mov	r8, #0
 950 001e 8146     		mov	r9, r0
 951              	.LVL227:
1252:C:/Users/lenovo/Desktop/liteos/Project2/BearPi_LiteOS/components/security/mbedtls/mbedtls-2.6.0/library\bignum.c ****     quotient = dividend / d;
 952              		.loc 1 1252 0
 953 0020 48EA0106 		orr	r6, r8, r1
 954              	.LVL228:
1253:C:/Users/lenovo/Desktop/liteos/Project2/BearPi_LiteOS/components/security/mbedtls/mbedtls-2.6.0/library\bignum.c ****     if( quotient > ( (mbedtls_t_udbl) 1 << biL ) - 1 )
 955              		.loc 1 1253 0
 956 0024 4346     		mov	r3, r8
 957              	.LVL229:
 958 0026 3046     		mov	r0, r6
 959              	.LVL230:
 960 0028 4946     		mov	r1, r9
ARM GAS  c:\Users\lenovo\AppData\Local\Temp\ccjcyTZ0.s 			page 41


 961              	.LVL231:
 962 002a FFF7FEFF 		bl	__aeabi_uldivmod
 963              	.LVL232:
1254:C:/Users/lenovo/Desktop/liteos/Project2/BearPi_LiteOS/components/security/mbedtls/mbedtls-2.6.0/library\bignum.c ****         quotient = ( (mbedtls_t_udbl) 1 << biL ) - 1;
 964              		.loc 1 1254 0
 965 002e 0129     		cmp	r1, #1
 966 0030 08BF     		it	eq
 967 0032 0028     		cmpeq	r0, #0
 968 0034 01D3     		bcc	.L35
1255:C:/Users/lenovo/Desktop/liteos/Project2/BearPi_LiteOS/components/security/mbedtls/mbedtls-2.6.0/library\bignum.c **** 
 969              		.loc 1 1255 0
 970 0036 4FF0FF30 		mov	r0, #-1
 971              	.LVL233:
 972              	.L35:
1257:C:/Users/lenovo/Desktop/liteos/Project2/BearPi_LiteOS/components/security/mbedtls/mbedtls-2.6.0/library\bignum.c ****         *r = (mbedtls_mpi_uint)( dividend - (quotient * d ) );
 973              		.loc 1 1257 0
 974 003a 002D     		cmp	r5, #0
 975 003c EAD0     		beq	.L31
1258:C:/Users/lenovo/Desktop/liteos/Project2/BearPi_LiteOS/components/security/mbedtls/mbedtls-2.6.0/library\bignum.c **** 
 976              		.loc 1 1258 0
 977 003e 04FB1064 		mls	r4, r4, r0, r6
 978              	.LVL234:
 979 0042 2C60     		str	r4, [r5]
1260:C:/Users/lenovo/Desktop/liteos/Project2/BearPi_LiteOS/components/security/mbedtls/mbedtls-2.6.0/library\bignum.c **** #else
 980              		.loc 1 1260 0
 981 0044 E6E7     		b	.L31
 982              	.LVL235:
 983              	.L37:
1247:C:/Users/lenovo/Desktop/liteos/Project2/BearPi_LiteOS/components/security/mbedtls/mbedtls-2.6.0/library\bignum.c ****     }
 984              		.loc 1 1247 0
 985 0046 4FF0FF30 		mov	r0, #-1
 986              	.LVL236:
 987 004a E3E7     		b	.L31
 988              	.LVL237:
 989              	.L40:
 990              	.LCFI5:
 991              		.cfi_def_cfa_offset 0
 992              		.cfi_restore 3
 993              		.cfi_restore 4
 994              		.cfi_restore 5
 995              		.cfi_restore 6
 996              		.cfi_restore 7
 997              		.cfi_restore 8
 998              		.cfi_restore 9
 999              		.cfi_restore 14
1245:C:/Users/lenovo/Desktop/liteos/Project2/BearPi_LiteOS/components/security/mbedtls/mbedtls-2.6.0/library\bignum.c **** 
 1000              		.loc 1 1245 0
 1001 004c 1BB1     		cbz	r3, .L42
 1002 004e 4FF0FF30 		mov	r0, #-1
 1003              	.LVL238:
 1004 0052 1860     		str	r0, [r3]
 1005 0054 7047     		bx	lr
 1006              	.LVL239:
 1007              	.L42:
1247:C:/Users/lenovo/Desktop/liteos/Project2/BearPi_LiteOS/components/security/mbedtls/mbedtls-2.6.0/library\bignum.c ****     }
 1008              		.loc 1 1247 0
 1009 0056 4FF0FF30 		mov	r0, #-1
ARM GAS  c:\Users\lenovo\AppData\Local\Temp\ccjcyTZ0.s 			page 42


 1010              	.LVL240:
 1011              		.loc 1 1317 0
 1012 005a 7047     		bx	lr
 1013              		.cfi_endproc
 1014              	.LFE40:
 1016              		.section	.text.mpi_montg_init,"ax",%progbits
 1017              		.align	1
 1018              		.syntax unified
 1019              		.thumb
 1020              		.thumb_func
 1021              		.fpu fpv4-sp-d16
 1023              	mpi_montg_init:
 1024              	.LFB45:
1318:C:/Users/lenovo/Desktop/liteos/Project2/BearPi_LiteOS/components/security/mbedtls/mbedtls-2.6.0/library\bignum.c **** 
1319:C:/Users/lenovo/Desktop/liteos/Project2/BearPi_LiteOS/components/security/mbedtls/mbedtls-2.6.0/library\bignum.c **** /*
1320:C:/Users/lenovo/Desktop/liteos/Project2/BearPi_LiteOS/components/security/mbedtls/mbedtls-2.6.0/library\bignum.c ****  * Division by mbedtls_mpi: A = Q * B + R  (HAC 14.20)
1321:C:/Users/lenovo/Desktop/liteos/Project2/BearPi_LiteOS/components/security/mbedtls/mbedtls-2.6.0/library\bignum.c ****  */
1322:C:/Users/lenovo/Desktop/liteos/Project2/BearPi_LiteOS/components/security/mbedtls/mbedtls-2.6.0/library\bignum.c **** int mbedtls_mpi_div_mpi( mbedtls_mpi *Q, mbedtls_mpi *R, const mbedtls_mpi *A, const mbedtls_mpi *B
1323:C:/Users/lenovo/Desktop/liteos/Project2/BearPi_LiteOS/components/security/mbedtls/mbedtls-2.6.0/library\bignum.c **** {
1324:C:/Users/lenovo/Desktop/liteos/Project2/BearPi_LiteOS/components/security/mbedtls/mbedtls-2.6.0/library\bignum.c ****     int ret;
1325:C:/Users/lenovo/Desktop/liteos/Project2/BearPi_LiteOS/components/security/mbedtls/mbedtls-2.6.0/library\bignum.c ****     size_t i, n, t, k;
1326:C:/Users/lenovo/Desktop/liteos/Project2/BearPi_LiteOS/components/security/mbedtls/mbedtls-2.6.0/library\bignum.c ****     mbedtls_mpi X, Y, Z, T1, T2;
1327:C:/Users/lenovo/Desktop/liteos/Project2/BearPi_LiteOS/components/security/mbedtls/mbedtls-2.6.0/library\bignum.c **** 
1328:C:/Users/lenovo/Desktop/liteos/Project2/BearPi_LiteOS/components/security/mbedtls/mbedtls-2.6.0/library\bignum.c ****     if( mbedtls_mpi_cmp_int( B, 0 ) == 0 )
1329:C:/Users/lenovo/Desktop/liteos/Project2/BearPi_LiteOS/components/security/mbedtls/mbedtls-2.6.0/library\bignum.c ****         return( MBEDTLS_ERR_MPI_DIVISION_BY_ZERO );
1330:C:/Users/lenovo/Desktop/liteos/Project2/BearPi_LiteOS/components/security/mbedtls/mbedtls-2.6.0/library\bignum.c **** 
1331:C:/Users/lenovo/Desktop/liteos/Project2/BearPi_LiteOS/components/security/mbedtls/mbedtls-2.6.0/library\bignum.c ****     mbedtls_mpi_init( &X ); mbedtls_mpi_init( &Y ); mbedtls_mpi_init( &Z );
1332:C:/Users/lenovo/Desktop/liteos/Project2/BearPi_LiteOS/components/security/mbedtls/mbedtls-2.6.0/library\bignum.c ****     mbedtls_mpi_init( &T1 ); mbedtls_mpi_init( &T2 );
1333:C:/Users/lenovo/Desktop/liteos/Project2/BearPi_LiteOS/components/security/mbedtls/mbedtls-2.6.0/library\bignum.c **** 
1334:C:/Users/lenovo/Desktop/liteos/Project2/BearPi_LiteOS/components/security/mbedtls/mbedtls-2.6.0/library\bignum.c ****     if( mbedtls_mpi_cmp_abs( A, B ) < 0 )
1335:C:/Users/lenovo/Desktop/liteos/Project2/BearPi_LiteOS/components/security/mbedtls/mbedtls-2.6.0/library\bignum.c ****     {
1336:C:/Users/lenovo/Desktop/liteos/Project2/BearPi_LiteOS/components/security/mbedtls/mbedtls-2.6.0/library\bignum.c ****         if( Q != NULL ) MBEDTLS_MPI_CHK( mbedtls_mpi_lset( Q, 0 ) );
1337:C:/Users/lenovo/Desktop/liteos/Project2/BearPi_LiteOS/components/security/mbedtls/mbedtls-2.6.0/library\bignum.c ****         if( R != NULL ) MBEDTLS_MPI_CHK( mbedtls_mpi_copy( R, A ) );
1338:C:/Users/lenovo/Desktop/liteos/Project2/BearPi_LiteOS/components/security/mbedtls/mbedtls-2.6.0/library\bignum.c ****         return( 0 );
1339:C:/Users/lenovo/Desktop/liteos/Project2/BearPi_LiteOS/components/security/mbedtls/mbedtls-2.6.0/library\bignum.c ****     }
1340:C:/Users/lenovo/Desktop/liteos/Project2/BearPi_LiteOS/components/security/mbedtls/mbedtls-2.6.0/library\bignum.c **** 
1341:C:/Users/lenovo/Desktop/liteos/Project2/BearPi_LiteOS/components/security/mbedtls/mbedtls-2.6.0/library\bignum.c ****     MBEDTLS_MPI_CHK( mbedtls_mpi_copy( &X, A ) );
1342:C:/Users/lenovo/Desktop/liteos/Project2/BearPi_LiteOS/components/security/mbedtls/mbedtls-2.6.0/library\bignum.c ****     MBEDTLS_MPI_CHK( mbedtls_mpi_copy( &Y, B ) );
1343:C:/Users/lenovo/Desktop/liteos/Project2/BearPi_LiteOS/components/security/mbedtls/mbedtls-2.6.0/library\bignum.c ****     X.s = Y.s = 1;
1344:C:/Users/lenovo/Desktop/liteos/Project2/BearPi_LiteOS/components/security/mbedtls/mbedtls-2.6.0/library\bignum.c **** 
1345:C:/Users/lenovo/Desktop/liteos/Project2/BearPi_LiteOS/components/security/mbedtls/mbedtls-2.6.0/library\bignum.c ****     MBEDTLS_MPI_CHK( mbedtls_mpi_grow( &Z, A->n + 2 ) );
1346:C:/Users/lenovo/Desktop/liteos/Project2/BearPi_LiteOS/components/security/mbedtls/mbedtls-2.6.0/library\bignum.c ****     MBEDTLS_MPI_CHK( mbedtls_mpi_lset( &Z,  0 ) );
1347:C:/Users/lenovo/Desktop/liteos/Project2/BearPi_LiteOS/components/security/mbedtls/mbedtls-2.6.0/library\bignum.c ****     MBEDTLS_MPI_CHK( mbedtls_mpi_grow( &T1, 2 ) );
1348:C:/Users/lenovo/Desktop/liteos/Project2/BearPi_LiteOS/components/security/mbedtls/mbedtls-2.6.0/library\bignum.c ****     MBEDTLS_MPI_CHK( mbedtls_mpi_grow( &T2, 3 ) );
1349:C:/Users/lenovo/Desktop/liteos/Project2/BearPi_LiteOS/components/security/mbedtls/mbedtls-2.6.0/library\bignum.c **** 
1350:C:/Users/lenovo/Desktop/liteos/Project2/BearPi_LiteOS/components/security/mbedtls/mbedtls-2.6.0/library\bignum.c ****     k = mbedtls_mpi_bitlen( &Y ) % biL;
1351:C:/Users/lenovo/Desktop/liteos/Project2/BearPi_LiteOS/components/security/mbedtls/mbedtls-2.6.0/library\bignum.c ****     if( k < biL - 1 )
1352:C:/Users/lenovo/Desktop/liteos/Project2/BearPi_LiteOS/components/security/mbedtls/mbedtls-2.6.0/library\bignum.c ****     {
1353:C:/Users/lenovo/Desktop/liteos/Project2/BearPi_LiteOS/components/security/mbedtls/mbedtls-2.6.0/library\bignum.c ****         k = biL - 1 - k;
1354:C:/Users/lenovo/Desktop/liteos/Project2/BearPi_LiteOS/components/security/mbedtls/mbedtls-2.6.0/library\bignum.c ****         MBEDTLS_MPI_CHK( mbedtls_mpi_shift_l( &X, k ) );
1355:C:/Users/lenovo/Desktop/liteos/Project2/BearPi_LiteOS/components/security/mbedtls/mbedtls-2.6.0/library\bignum.c ****         MBEDTLS_MPI_CHK( mbedtls_mpi_shift_l( &Y, k ) );
1356:C:/Users/lenovo/Desktop/liteos/Project2/BearPi_LiteOS/components/security/mbedtls/mbedtls-2.6.0/library\bignum.c ****     }
1357:C:/Users/lenovo/Desktop/liteos/Project2/BearPi_LiteOS/components/security/mbedtls/mbedtls-2.6.0/library\bignum.c ****     else k = 0;
1358:C:/Users/lenovo/Desktop/liteos/Project2/BearPi_LiteOS/components/security/mbedtls/mbedtls-2.6.0/library\bignum.c **** 
1359:C:/Users/lenovo/Desktop/liteos/Project2/BearPi_LiteOS/components/security/mbedtls/mbedtls-2.6.0/library\bignum.c ****     n = X.n - 1;
1360:C:/Users/lenovo/Desktop/liteos/Project2/BearPi_LiteOS/components/security/mbedtls/mbedtls-2.6.0/library\bignum.c ****     t = Y.n - 1;
1361:C:/Users/lenovo/Desktop/liteos/Project2/BearPi_LiteOS/components/security/mbedtls/mbedtls-2.6.0/library\bignum.c ****     MBEDTLS_MPI_CHK( mbedtls_mpi_shift_l( &Y, biL * ( n - t ) ) );
ARM GAS  c:\Users\lenovo\AppData\Local\Temp\ccjcyTZ0.s 			page 43


1362:C:/Users/lenovo/Desktop/liteos/Project2/BearPi_LiteOS/components/security/mbedtls/mbedtls-2.6.0/library\bignum.c **** 
1363:C:/Users/lenovo/Desktop/liteos/Project2/BearPi_LiteOS/components/security/mbedtls/mbedtls-2.6.0/library\bignum.c ****     while( mbedtls_mpi_cmp_mpi( &X, &Y ) >= 0 )
1364:C:/Users/lenovo/Desktop/liteos/Project2/BearPi_LiteOS/components/security/mbedtls/mbedtls-2.6.0/library\bignum.c ****     {
1365:C:/Users/lenovo/Desktop/liteos/Project2/BearPi_LiteOS/components/security/mbedtls/mbedtls-2.6.0/library\bignum.c ****         Z.p[n - t]++;
1366:C:/Users/lenovo/Desktop/liteos/Project2/BearPi_LiteOS/components/security/mbedtls/mbedtls-2.6.0/library\bignum.c ****         MBEDTLS_MPI_CHK( mbedtls_mpi_sub_mpi( &X, &X, &Y ) );
1367:C:/Users/lenovo/Desktop/liteos/Project2/BearPi_LiteOS/components/security/mbedtls/mbedtls-2.6.0/library\bignum.c ****     }
1368:C:/Users/lenovo/Desktop/liteos/Project2/BearPi_LiteOS/components/security/mbedtls/mbedtls-2.6.0/library\bignum.c ****     MBEDTLS_MPI_CHK( mbedtls_mpi_shift_r( &Y, biL * ( n - t ) ) );
1369:C:/Users/lenovo/Desktop/liteos/Project2/BearPi_LiteOS/components/security/mbedtls/mbedtls-2.6.0/library\bignum.c **** 
1370:C:/Users/lenovo/Desktop/liteos/Project2/BearPi_LiteOS/components/security/mbedtls/mbedtls-2.6.0/library\bignum.c ****     for( i = n; i > t ; i-- )
1371:C:/Users/lenovo/Desktop/liteos/Project2/BearPi_LiteOS/components/security/mbedtls/mbedtls-2.6.0/library\bignum.c ****     {
1372:C:/Users/lenovo/Desktop/liteos/Project2/BearPi_LiteOS/components/security/mbedtls/mbedtls-2.6.0/library\bignum.c ****         if( X.p[i] >= Y.p[t] )
1373:C:/Users/lenovo/Desktop/liteos/Project2/BearPi_LiteOS/components/security/mbedtls/mbedtls-2.6.0/library\bignum.c ****             Z.p[i - t - 1] = ~0;
1374:C:/Users/lenovo/Desktop/liteos/Project2/BearPi_LiteOS/components/security/mbedtls/mbedtls-2.6.0/library\bignum.c ****         else
1375:C:/Users/lenovo/Desktop/liteos/Project2/BearPi_LiteOS/components/security/mbedtls/mbedtls-2.6.0/library\bignum.c ****         {
1376:C:/Users/lenovo/Desktop/liteos/Project2/BearPi_LiteOS/components/security/mbedtls/mbedtls-2.6.0/library\bignum.c ****             Z.p[i - t - 1] = mbedtls_int_div_int( X.p[i], X.p[i - 1],
1377:C:/Users/lenovo/Desktop/liteos/Project2/BearPi_LiteOS/components/security/mbedtls/mbedtls-2.6.0/library\bignum.c ****                                                             Y.p[t], NULL);
1378:C:/Users/lenovo/Desktop/liteos/Project2/BearPi_LiteOS/components/security/mbedtls/mbedtls-2.6.0/library\bignum.c ****         }
1379:C:/Users/lenovo/Desktop/liteos/Project2/BearPi_LiteOS/components/security/mbedtls/mbedtls-2.6.0/library\bignum.c **** 
1380:C:/Users/lenovo/Desktop/liteos/Project2/BearPi_LiteOS/components/security/mbedtls/mbedtls-2.6.0/library\bignum.c ****         Z.p[i - t - 1]++;
1381:C:/Users/lenovo/Desktop/liteos/Project2/BearPi_LiteOS/components/security/mbedtls/mbedtls-2.6.0/library\bignum.c ****         do
1382:C:/Users/lenovo/Desktop/liteos/Project2/BearPi_LiteOS/components/security/mbedtls/mbedtls-2.6.0/library\bignum.c ****         {
1383:C:/Users/lenovo/Desktop/liteos/Project2/BearPi_LiteOS/components/security/mbedtls/mbedtls-2.6.0/library\bignum.c ****             Z.p[i - t - 1]--;
1384:C:/Users/lenovo/Desktop/liteos/Project2/BearPi_LiteOS/components/security/mbedtls/mbedtls-2.6.0/library\bignum.c **** 
1385:C:/Users/lenovo/Desktop/liteos/Project2/BearPi_LiteOS/components/security/mbedtls/mbedtls-2.6.0/library\bignum.c ****             MBEDTLS_MPI_CHK( mbedtls_mpi_lset( &T1, 0 ) );
1386:C:/Users/lenovo/Desktop/liteos/Project2/BearPi_LiteOS/components/security/mbedtls/mbedtls-2.6.0/library\bignum.c ****             T1.p[0] = ( t < 1 ) ? 0 : Y.p[t - 1];
1387:C:/Users/lenovo/Desktop/liteos/Project2/BearPi_LiteOS/components/security/mbedtls/mbedtls-2.6.0/library\bignum.c ****             T1.p[1] = Y.p[t];
1388:C:/Users/lenovo/Desktop/liteos/Project2/BearPi_LiteOS/components/security/mbedtls/mbedtls-2.6.0/library\bignum.c ****             MBEDTLS_MPI_CHK( mbedtls_mpi_mul_int( &T1, &T1, Z.p[i - t - 1] ) );
1389:C:/Users/lenovo/Desktop/liteos/Project2/BearPi_LiteOS/components/security/mbedtls/mbedtls-2.6.0/library\bignum.c **** 
1390:C:/Users/lenovo/Desktop/liteos/Project2/BearPi_LiteOS/components/security/mbedtls/mbedtls-2.6.0/library\bignum.c ****             MBEDTLS_MPI_CHK( mbedtls_mpi_lset( &T2, 0 ) );
1391:C:/Users/lenovo/Desktop/liteos/Project2/BearPi_LiteOS/components/security/mbedtls/mbedtls-2.6.0/library\bignum.c ****             T2.p[0] = ( i < 2 ) ? 0 : X.p[i - 2];
1392:C:/Users/lenovo/Desktop/liteos/Project2/BearPi_LiteOS/components/security/mbedtls/mbedtls-2.6.0/library\bignum.c ****             T2.p[1] = ( i < 1 ) ? 0 : X.p[i - 1];
1393:C:/Users/lenovo/Desktop/liteos/Project2/BearPi_LiteOS/components/security/mbedtls/mbedtls-2.6.0/library\bignum.c ****             T2.p[2] = X.p[i];
1394:C:/Users/lenovo/Desktop/liteos/Project2/BearPi_LiteOS/components/security/mbedtls/mbedtls-2.6.0/library\bignum.c ****         }
1395:C:/Users/lenovo/Desktop/liteos/Project2/BearPi_LiteOS/components/security/mbedtls/mbedtls-2.6.0/library\bignum.c ****         while( mbedtls_mpi_cmp_mpi( &T1, &T2 ) > 0 );
1396:C:/Users/lenovo/Desktop/liteos/Project2/BearPi_LiteOS/components/security/mbedtls/mbedtls-2.6.0/library\bignum.c **** 
1397:C:/Users/lenovo/Desktop/liteos/Project2/BearPi_LiteOS/components/security/mbedtls/mbedtls-2.6.0/library\bignum.c ****         MBEDTLS_MPI_CHK( mbedtls_mpi_mul_int( &T1, &Y, Z.p[i - t - 1] ) );
1398:C:/Users/lenovo/Desktop/liteos/Project2/BearPi_LiteOS/components/security/mbedtls/mbedtls-2.6.0/library\bignum.c ****         MBEDTLS_MPI_CHK( mbedtls_mpi_shift_l( &T1,  biL * ( i - t - 1 ) ) );
1399:C:/Users/lenovo/Desktop/liteos/Project2/BearPi_LiteOS/components/security/mbedtls/mbedtls-2.6.0/library\bignum.c ****         MBEDTLS_MPI_CHK( mbedtls_mpi_sub_mpi( &X, &X, &T1 ) );
1400:C:/Users/lenovo/Desktop/liteos/Project2/BearPi_LiteOS/components/security/mbedtls/mbedtls-2.6.0/library\bignum.c **** 
1401:C:/Users/lenovo/Desktop/liteos/Project2/BearPi_LiteOS/components/security/mbedtls/mbedtls-2.6.0/library\bignum.c ****         if( mbedtls_mpi_cmp_int( &X, 0 ) < 0 )
1402:C:/Users/lenovo/Desktop/liteos/Project2/BearPi_LiteOS/components/security/mbedtls/mbedtls-2.6.0/library\bignum.c ****         {
1403:C:/Users/lenovo/Desktop/liteos/Project2/BearPi_LiteOS/components/security/mbedtls/mbedtls-2.6.0/library\bignum.c ****             MBEDTLS_MPI_CHK( mbedtls_mpi_copy( &T1, &Y ) );
1404:C:/Users/lenovo/Desktop/liteos/Project2/BearPi_LiteOS/components/security/mbedtls/mbedtls-2.6.0/library\bignum.c ****             MBEDTLS_MPI_CHK( mbedtls_mpi_shift_l( &T1, biL * ( i - t - 1 ) ) );
1405:C:/Users/lenovo/Desktop/liteos/Project2/BearPi_LiteOS/components/security/mbedtls/mbedtls-2.6.0/library\bignum.c ****             MBEDTLS_MPI_CHK( mbedtls_mpi_add_mpi( &X, &X, &T1 ) );
1406:C:/Users/lenovo/Desktop/liteos/Project2/BearPi_LiteOS/components/security/mbedtls/mbedtls-2.6.0/library\bignum.c ****             Z.p[i - t - 1]--;
1407:C:/Users/lenovo/Desktop/liteos/Project2/BearPi_LiteOS/components/security/mbedtls/mbedtls-2.6.0/library\bignum.c ****         }
1408:C:/Users/lenovo/Desktop/liteos/Project2/BearPi_LiteOS/components/security/mbedtls/mbedtls-2.6.0/library\bignum.c ****     }
1409:C:/Users/lenovo/Desktop/liteos/Project2/BearPi_LiteOS/components/security/mbedtls/mbedtls-2.6.0/library\bignum.c **** 
1410:C:/Users/lenovo/Desktop/liteos/Project2/BearPi_LiteOS/components/security/mbedtls/mbedtls-2.6.0/library\bignum.c ****     if( Q != NULL )
1411:C:/Users/lenovo/Desktop/liteos/Project2/BearPi_LiteOS/components/security/mbedtls/mbedtls-2.6.0/library\bignum.c ****     {
1412:C:/Users/lenovo/Desktop/liteos/Project2/BearPi_LiteOS/components/security/mbedtls/mbedtls-2.6.0/library\bignum.c ****         MBEDTLS_MPI_CHK( mbedtls_mpi_copy( Q, &Z ) );
1413:C:/Users/lenovo/Desktop/liteos/Project2/BearPi_LiteOS/components/security/mbedtls/mbedtls-2.6.0/library\bignum.c ****         Q->s = A->s * B->s;
1414:C:/Users/lenovo/Desktop/liteos/Project2/BearPi_LiteOS/components/security/mbedtls/mbedtls-2.6.0/library\bignum.c ****     }
1415:C:/Users/lenovo/Desktop/liteos/Project2/BearPi_LiteOS/components/security/mbedtls/mbedtls-2.6.0/library\bignum.c **** 
1416:C:/Users/lenovo/Desktop/liteos/Project2/BearPi_LiteOS/components/security/mbedtls/mbedtls-2.6.0/library\bignum.c ****     if( R != NULL )
1417:C:/Users/lenovo/Desktop/liteos/Project2/BearPi_LiteOS/components/security/mbedtls/mbedtls-2.6.0/library\bignum.c ****     {
1418:C:/Users/lenovo/Desktop/liteos/Project2/BearPi_LiteOS/components/security/mbedtls/mbedtls-2.6.0/library\bignum.c ****         MBEDTLS_MPI_CHK( mbedtls_mpi_shift_r( &X, k ) );
ARM GAS  c:\Users\lenovo\AppData\Local\Temp\ccjcyTZ0.s 			page 44


1419:C:/Users/lenovo/Desktop/liteos/Project2/BearPi_LiteOS/components/security/mbedtls/mbedtls-2.6.0/library\bignum.c ****         X.s = A->s;
1420:C:/Users/lenovo/Desktop/liteos/Project2/BearPi_LiteOS/components/security/mbedtls/mbedtls-2.6.0/library\bignum.c ****         MBEDTLS_MPI_CHK( mbedtls_mpi_copy( R, &X ) );
1421:C:/Users/lenovo/Desktop/liteos/Project2/BearPi_LiteOS/components/security/mbedtls/mbedtls-2.6.0/library\bignum.c **** 
1422:C:/Users/lenovo/Desktop/liteos/Project2/BearPi_LiteOS/components/security/mbedtls/mbedtls-2.6.0/library\bignum.c ****         if( mbedtls_mpi_cmp_int( R, 0 ) == 0 )
1423:C:/Users/lenovo/Desktop/liteos/Project2/BearPi_LiteOS/components/security/mbedtls/mbedtls-2.6.0/library\bignum.c ****             R->s = 1;
1424:C:/Users/lenovo/Desktop/liteos/Project2/BearPi_LiteOS/components/security/mbedtls/mbedtls-2.6.0/library\bignum.c ****     }
1425:C:/Users/lenovo/Desktop/liteos/Project2/BearPi_LiteOS/components/security/mbedtls/mbedtls-2.6.0/library\bignum.c **** 
1426:C:/Users/lenovo/Desktop/liteos/Project2/BearPi_LiteOS/components/security/mbedtls/mbedtls-2.6.0/library\bignum.c **** cleanup:
1427:C:/Users/lenovo/Desktop/liteos/Project2/BearPi_LiteOS/components/security/mbedtls/mbedtls-2.6.0/library\bignum.c **** 
1428:C:/Users/lenovo/Desktop/liteos/Project2/BearPi_LiteOS/components/security/mbedtls/mbedtls-2.6.0/library\bignum.c ****     mbedtls_mpi_free( &X ); mbedtls_mpi_free( &Y ); mbedtls_mpi_free( &Z );
1429:C:/Users/lenovo/Desktop/liteos/Project2/BearPi_LiteOS/components/security/mbedtls/mbedtls-2.6.0/library\bignum.c ****     mbedtls_mpi_free( &T1 ); mbedtls_mpi_free( &T2 );
1430:C:/Users/lenovo/Desktop/liteos/Project2/BearPi_LiteOS/components/security/mbedtls/mbedtls-2.6.0/library\bignum.c **** 
1431:C:/Users/lenovo/Desktop/liteos/Project2/BearPi_LiteOS/components/security/mbedtls/mbedtls-2.6.0/library\bignum.c ****     return( ret );
1432:C:/Users/lenovo/Desktop/liteos/Project2/BearPi_LiteOS/components/security/mbedtls/mbedtls-2.6.0/library\bignum.c **** }
1433:C:/Users/lenovo/Desktop/liteos/Project2/BearPi_LiteOS/components/security/mbedtls/mbedtls-2.6.0/library\bignum.c **** 
1434:C:/Users/lenovo/Desktop/liteos/Project2/BearPi_LiteOS/components/security/mbedtls/mbedtls-2.6.0/library\bignum.c **** /*
1435:C:/Users/lenovo/Desktop/liteos/Project2/BearPi_LiteOS/components/security/mbedtls/mbedtls-2.6.0/library\bignum.c ****  * Division by int: A = Q * b + R
1436:C:/Users/lenovo/Desktop/liteos/Project2/BearPi_LiteOS/components/security/mbedtls/mbedtls-2.6.0/library\bignum.c ****  */
1437:C:/Users/lenovo/Desktop/liteos/Project2/BearPi_LiteOS/components/security/mbedtls/mbedtls-2.6.0/library\bignum.c **** int mbedtls_mpi_div_int( mbedtls_mpi *Q, mbedtls_mpi *R, const mbedtls_mpi *A, mbedtls_mpi_sint b )
1438:C:/Users/lenovo/Desktop/liteos/Project2/BearPi_LiteOS/components/security/mbedtls/mbedtls-2.6.0/library\bignum.c **** {
1439:C:/Users/lenovo/Desktop/liteos/Project2/BearPi_LiteOS/components/security/mbedtls/mbedtls-2.6.0/library\bignum.c ****     mbedtls_mpi _B;
1440:C:/Users/lenovo/Desktop/liteos/Project2/BearPi_LiteOS/components/security/mbedtls/mbedtls-2.6.0/library\bignum.c ****     mbedtls_mpi_uint p[1];
1441:C:/Users/lenovo/Desktop/liteos/Project2/BearPi_LiteOS/components/security/mbedtls/mbedtls-2.6.0/library\bignum.c **** 
1442:C:/Users/lenovo/Desktop/liteos/Project2/BearPi_LiteOS/components/security/mbedtls/mbedtls-2.6.0/library\bignum.c ****     p[0] = ( b < 0 ) ? -b : b;
1443:C:/Users/lenovo/Desktop/liteos/Project2/BearPi_LiteOS/components/security/mbedtls/mbedtls-2.6.0/library\bignum.c ****     _B.s = ( b < 0 ) ? -1 : 1;
1444:C:/Users/lenovo/Desktop/liteos/Project2/BearPi_LiteOS/components/security/mbedtls/mbedtls-2.6.0/library\bignum.c ****     _B.n = 1;
1445:C:/Users/lenovo/Desktop/liteos/Project2/BearPi_LiteOS/components/security/mbedtls/mbedtls-2.6.0/library\bignum.c ****     _B.p = p;
1446:C:/Users/lenovo/Desktop/liteos/Project2/BearPi_LiteOS/components/security/mbedtls/mbedtls-2.6.0/library\bignum.c **** 
1447:C:/Users/lenovo/Desktop/liteos/Project2/BearPi_LiteOS/components/security/mbedtls/mbedtls-2.6.0/library\bignum.c ****     return( mbedtls_mpi_div_mpi( Q, R, A, &_B ) );
1448:C:/Users/lenovo/Desktop/liteos/Project2/BearPi_LiteOS/components/security/mbedtls/mbedtls-2.6.0/library\bignum.c **** }
1449:C:/Users/lenovo/Desktop/liteos/Project2/BearPi_LiteOS/components/security/mbedtls/mbedtls-2.6.0/library\bignum.c **** 
1450:C:/Users/lenovo/Desktop/liteos/Project2/BearPi_LiteOS/components/security/mbedtls/mbedtls-2.6.0/library\bignum.c **** /*
1451:C:/Users/lenovo/Desktop/liteos/Project2/BearPi_LiteOS/components/security/mbedtls/mbedtls-2.6.0/library\bignum.c ****  * Modulo: R = A mod B
1452:C:/Users/lenovo/Desktop/liteos/Project2/BearPi_LiteOS/components/security/mbedtls/mbedtls-2.6.0/library\bignum.c ****  */
1453:C:/Users/lenovo/Desktop/liteos/Project2/BearPi_LiteOS/components/security/mbedtls/mbedtls-2.6.0/library\bignum.c **** int mbedtls_mpi_mod_mpi( mbedtls_mpi *R, const mbedtls_mpi *A, const mbedtls_mpi *B )
1454:C:/Users/lenovo/Desktop/liteos/Project2/BearPi_LiteOS/components/security/mbedtls/mbedtls-2.6.0/library\bignum.c **** {
1455:C:/Users/lenovo/Desktop/liteos/Project2/BearPi_LiteOS/components/security/mbedtls/mbedtls-2.6.0/library\bignum.c ****     int ret;
1456:C:/Users/lenovo/Desktop/liteos/Project2/BearPi_LiteOS/components/security/mbedtls/mbedtls-2.6.0/library\bignum.c **** 
1457:C:/Users/lenovo/Desktop/liteos/Project2/BearPi_LiteOS/components/security/mbedtls/mbedtls-2.6.0/library\bignum.c ****     if( mbedtls_mpi_cmp_int( B, 0 ) < 0 )
1458:C:/Users/lenovo/Desktop/liteos/Project2/BearPi_LiteOS/components/security/mbedtls/mbedtls-2.6.0/library\bignum.c ****         return( MBEDTLS_ERR_MPI_NEGATIVE_VALUE );
1459:C:/Users/lenovo/Desktop/liteos/Project2/BearPi_LiteOS/components/security/mbedtls/mbedtls-2.6.0/library\bignum.c **** 
1460:C:/Users/lenovo/Desktop/liteos/Project2/BearPi_LiteOS/components/security/mbedtls/mbedtls-2.6.0/library\bignum.c ****     MBEDTLS_MPI_CHK( mbedtls_mpi_div_mpi( NULL, R, A, B ) );
1461:C:/Users/lenovo/Desktop/liteos/Project2/BearPi_LiteOS/components/security/mbedtls/mbedtls-2.6.0/library\bignum.c **** 
1462:C:/Users/lenovo/Desktop/liteos/Project2/BearPi_LiteOS/components/security/mbedtls/mbedtls-2.6.0/library\bignum.c ****     while( mbedtls_mpi_cmp_int( R, 0 ) < 0 )
1463:C:/Users/lenovo/Desktop/liteos/Project2/BearPi_LiteOS/components/security/mbedtls/mbedtls-2.6.0/library\bignum.c ****       MBEDTLS_MPI_CHK( mbedtls_mpi_add_mpi( R, R, B ) );
1464:C:/Users/lenovo/Desktop/liteos/Project2/BearPi_LiteOS/components/security/mbedtls/mbedtls-2.6.0/library\bignum.c **** 
1465:C:/Users/lenovo/Desktop/liteos/Project2/BearPi_LiteOS/components/security/mbedtls/mbedtls-2.6.0/library\bignum.c ****     while( mbedtls_mpi_cmp_mpi( R, B ) >= 0 )
1466:C:/Users/lenovo/Desktop/liteos/Project2/BearPi_LiteOS/components/security/mbedtls/mbedtls-2.6.0/library\bignum.c ****       MBEDTLS_MPI_CHK( mbedtls_mpi_sub_mpi( R, R, B ) );
1467:C:/Users/lenovo/Desktop/liteos/Project2/BearPi_LiteOS/components/security/mbedtls/mbedtls-2.6.0/library\bignum.c **** 
1468:C:/Users/lenovo/Desktop/liteos/Project2/BearPi_LiteOS/components/security/mbedtls/mbedtls-2.6.0/library\bignum.c **** cleanup:
1469:C:/Users/lenovo/Desktop/liteos/Project2/BearPi_LiteOS/components/security/mbedtls/mbedtls-2.6.0/library\bignum.c **** 
1470:C:/Users/lenovo/Desktop/liteos/Project2/BearPi_LiteOS/components/security/mbedtls/mbedtls-2.6.0/library\bignum.c ****     return( ret );
1471:C:/Users/lenovo/Desktop/liteos/Project2/BearPi_LiteOS/components/security/mbedtls/mbedtls-2.6.0/library\bignum.c **** }
1472:C:/Users/lenovo/Desktop/liteos/Project2/BearPi_LiteOS/components/security/mbedtls/mbedtls-2.6.0/library\bignum.c **** 
1473:C:/Users/lenovo/Desktop/liteos/Project2/BearPi_LiteOS/components/security/mbedtls/mbedtls-2.6.0/library\bignum.c **** /*
1474:C:/Users/lenovo/Desktop/liteos/Project2/BearPi_LiteOS/components/security/mbedtls/mbedtls-2.6.0/library\bignum.c ****  * Modulo: r = A mod b
1475:C:/Users/lenovo/Desktop/liteos/Project2/BearPi_LiteOS/components/security/mbedtls/mbedtls-2.6.0/library\bignum.c ****  */
ARM GAS  c:\Users\lenovo\AppData\Local\Temp\ccjcyTZ0.s 			page 45


1476:C:/Users/lenovo/Desktop/liteos/Project2/BearPi_LiteOS/components/security/mbedtls/mbedtls-2.6.0/library\bignum.c **** int mbedtls_mpi_mod_int( mbedtls_mpi_uint *r, const mbedtls_mpi *A, mbedtls_mpi_sint b )
1477:C:/Users/lenovo/Desktop/liteos/Project2/BearPi_LiteOS/components/security/mbedtls/mbedtls-2.6.0/library\bignum.c **** {
1478:C:/Users/lenovo/Desktop/liteos/Project2/BearPi_LiteOS/components/security/mbedtls/mbedtls-2.6.0/library\bignum.c ****     size_t i;
1479:C:/Users/lenovo/Desktop/liteos/Project2/BearPi_LiteOS/components/security/mbedtls/mbedtls-2.6.0/library\bignum.c ****     mbedtls_mpi_uint x, y, z;
1480:C:/Users/lenovo/Desktop/liteos/Project2/BearPi_LiteOS/components/security/mbedtls/mbedtls-2.6.0/library\bignum.c **** 
1481:C:/Users/lenovo/Desktop/liteos/Project2/BearPi_LiteOS/components/security/mbedtls/mbedtls-2.6.0/library\bignum.c ****     if( b == 0 )
1482:C:/Users/lenovo/Desktop/liteos/Project2/BearPi_LiteOS/components/security/mbedtls/mbedtls-2.6.0/library\bignum.c ****         return( MBEDTLS_ERR_MPI_DIVISION_BY_ZERO );
1483:C:/Users/lenovo/Desktop/liteos/Project2/BearPi_LiteOS/components/security/mbedtls/mbedtls-2.6.0/library\bignum.c **** 
1484:C:/Users/lenovo/Desktop/liteos/Project2/BearPi_LiteOS/components/security/mbedtls/mbedtls-2.6.0/library\bignum.c ****     if( b < 0 )
1485:C:/Users/lenovo/Desktop/liteos/Project2/BearPi_LiteOS/components/security/mbedtls/mbedtls-2.6.0/library\bignum.c ****         return( MBEDTLS_ERR_MPI_NEGATIVE_VALUE );
1486:C:/Users/lenovo/Desktop/liteos/Project2/BearPi_LiteOS/components/security/mbedtls/mbedtls-2.6.0/library\bignum.c **** 
1487:C:/Users/lenovo/Desktop/liteos/Project2/BearPi_LiteOS/components/security/mbedtls/mbedtls-2.6.0/library\bignum.c ****     /*
1488:C:/Users/lenovo/Desktop/liteos/Project2/BearPi_LiteOS/components/security/mbedtls/mbedtls-2.6.0/library\bignum.c ****      * handle trivial cases
1489:C:/Users/lenovo/Desktop/liteos/Project2/BearPi_LiteOS/components/security/mbedtls/mbedtls-2.6.0/library\bignum.c ****      */
1490:C:/Users/lenovo/Desktop/liteos/Project2/BearPi_LiteOS/components/security/mbedtls/mbedtls-2.6.0/library\bignum.c ****     if( b == 1 )
1491:C:/Users/lenovo/Desktop/liteos/Project2/BearPi_LiteOS/components/security/mbedtls/mbedtls-2.6.0/library\bignum.c ****     {
1492:C:/Users/lenovo/Desktop/liteos/Project2/BearPi_LiteOS/components/security/mbedtls/mbedtls-2.6.0/library\bignum.c ****         *r = 0;
1493:C:/Users/lenovo/Desktop/liteos/Project2/BearPi_LiteOS/components/security/mbedtls/mbedtls-2.6.0/library\bignum.c ****         return( 0 );
1494:C:/Users/lenovo/Desktop/liteos/Project2/BearPi_LiteOS/components/security/mbedtls/mbedtls-2.6.0/library\bignum.c ****     }
1495:C:/Users/lenovo/Desktop/liteos/Project2/BearPi_LiteOS/components/security/mbedtls/mbedtls-2.6.0/library\bignum.c **** 
1496:C:/Users/lenovo/Desktop/liteos/Project2/BearPi_LiteOS/components/security/mbedtls/mbedtls-2.6.0/library\bignum.c ****     if( b == 2 )
1497:C:/Users/lenovo/Desktop/liteos/Project2/BearPi_LiteOS/components/security/mbedtls/mbedtls-2.6.0/library\bignum.c ****     {
1498:C:/Users/lenovo/Desktop/liteos/Project2/BearPi_LiteOS/components/security/mbedtls/mbedtls-2.6.0/library\bignum.c ****         *r = A->p[0] & 1;
1499:C:/Users/lenovo/Desktop/liteos/Project2/BearPi_LiteOS/components/security/mbedtls/mbedtls-2.6.0/library\bignum.c ****         return( 0 );
1500:C:/Users/lenovo/Desktop/liteos/Project2/BearPi_LiteOS/components/security/mbedtls/mbedtls-2.6.0/library\bignum.c ****     }
1501:C:/Users/lenovo/Desktop/liteos/Project2/BearPi_LiteOS/components/security/mbedtls/mbedtls-2.6.0/library\bignum.c **** 
1502:C:/Users/lenovo/Desktop/liteos/Project2/BearPi_LiteOS/components/security/mbedtls/mbedtls-2.6.0/library\bignum.c ****     /*
1503:C:/Users/lenovo/Desktop/liteos/Project2/BearPi_LiteOS/components/security/mbedtls/mbedtls-2.6.0/library\bignum.c ****      * general case
1504:C:/Users/lenovo/Desktop/liteos/Project2/BearPi_LiteOS/components/security/mbedtls/mbedtls-2.6.0/library\bignum.c ****      */
1505:C:/Users/lenovo/Desktop/liteos/Project2/BearPi_LiteOS/components/security/mbedtls/mbedtls-2.6.0/library\bignum.c ****     for( i = A->n, y = 0; i > 0; i-- )
1506:C:/Users/lenovo/Desktop/liteos/Project2/BearPi_LiteOS/components/security/mbedtls/mbedtls-2.6.0/library\bignum.c ****     {
1507:C:/Users/lenovo/Desktop/liteos/Project2/BearPi_LiteOS/components/security/mbedtls/mbedtls-2.6.0/library\bignum.c ****         x  = A->p[i - 1];
1508:C:/Users/lenovo/Desktop/liteos/Project2/BearPi_LiteOS/components/security/mbedtls/mbedtls-2.6.0/library\bignum.c ****         y  = ( y << biH ) | ( x >> biH );
1509:C:/Users/lenovo/Desktop/liteos/Project2/BearPi_LiteOS/components/security/mbedtls/mbedtls-2.6.0/library\bignum.c ****         z  = y / b;
1510:C:/Users/lenovo/Desktop/liteos/Project2/BearPi_LiteOS/components/security/mbedtls/mbedtls-2.6.0/library\bignum.c ****         y -= z * b;
1511:C:/Users/lenovo/Desktop/liteos/Project2/BearPi_LiteOS/components/security/mbedtls/mbedtls-2.6.0/library\bignum.c **** 
1512:C:/Users/lenovo/Desktop/liteos/Project2/BearPi_LiteOS/components/security/mbedtls/mbedtls-2.6.0/library\bignum.c ****         x <<= biH;
1513:C:/Users/lenovo/Desktop/liteos/Project2/BearPi_LiteOS/components/security/mbedtls/mbedtls-2.6.0/library\bignum.c ****         y  = ( y << biH ) | ( x >> biH );
1514:C:/Users/lenovo/Desktop/liteos/Project2/BearPi_LiteOS/components/security/mbedtls/mbedtls-2.6.0/library\bignum.c ****         z  = y / b;
1515:C:/Users/lenovo/Desktop/liteos/Project2/BearPi_LiteOS/components/security/mbedtls/mbedtls-2.6.0/library\bignum.c ****         y -= z * b;
1516:C:/Users/lenovo/Desktop/liteos/Project2/BearPi_LiteOS/components/security/mbedtls/mbedtls-2.6.0/library\bignum.c ****     }
1517:C:/Users/lenovo/Desktop/liteos/Project2/BearPi_LiteOS/components/security/mbedtls/mbedtls-2.6.0/library\bignum.c **** 
1518:C:/Users/lenovo/Desktop/liteos/Project2/BearPi_LiteOS/components/security/mbedtls/mbedtls-2.6.0/library\bignum.c ****     /*
1519:C:/Users/lenovo/Desktop/liteos/Project2/BearPi_LiteOS/components/security/mbedtls/mbedtls-2.6.0/library\bignum.c ****      * If A is negative, then the current y represents a negative value.
1520:C:/Users/lenovo/Desktop/liteos/Project2/BearPi_LiteOS/components/security/mbedtls/mbedtls-2.6.0/library\bignum.c ****      * Flipping it to the positive side.
1521:C:/Users/lenovo/Desktop/liteos/Project2/BearPi_LiteOS/components/security/mbedtls/mbedtls-2.6.0/library\bignum.c ****      */
1522:C:/Users/lenovo/Desktop/liteos/Project2/BearPi_LiteOS/components/security/mbedtls/mbedtls-2.6.0/library\bignum.c ****     if( A->s < 0 && y != 0 )
1523:C:/Users/lenovo/Desktop/liteos/Project2/BearPi_LiteOS/components/security/mbedtls/mbedtls-2.6.0/library\bignum.c ****         y = b - y;
1524:C:/Users/lenovo/Desktop/liteos/Project2/BearPi_LiteOS/components/security/mbedtls/mbedtls-2.6.0/library\bignum.c **** 
1525:C:/Users/lenovo/Desktop/liteos/Project2/BearPi_LiteOS/components/security/mbedtls/mbedtls-2.6.0/library\bignum.c ****     *r = y;
1526:C:/Users/lenovo/Desktop/liteos/Project2/BearPi_LiteOS/components/security/mbedtls/mbedtls-2.6.0/library\bignum.c **** 
1527:C:/Users/lenovo/Desktop/liteos/Project2/BearPi_LiteOS/components/security/mbedtls/mbedtls-2.6.0/library\bignum.c ****     return( 0 );
1528:C:/Users/lenovo/Desktop/liteos/Project2/BearPi_LiteOS/components/security/mbedtls/mbedtls-2.6.0/library\bignum.c **** }
1529:C:/Users/lenovo/Desktop/liteos/Project2/BearPi_LiteOS/components/security/mbedtls/mbedtls-2.6.0/library\bignum.c **** 
1530:C:/Users/lenovo/Desktop/liteos/Project2/BearPi_LiteOS/components/security/mbedtls/mbedtls-2.6.0/library\bignum.c **** /*
1531:C:/Users/lenovo/Desktop/liteos/Project2/BearPi_LiteOS/components/security/mbedtls/mbedtls-2.6.0/library\bignum.c ****  * Fast Montgomery initialization (thanks to Tom St Denis)
1532:C:/Users/lenovo/Desktop/liteos/Project2/BearPi_LiteOS/components/security/mbedtls/mbedtls-2.6.0/library\bignum.c ****  */
ARM GAS  c:\Users\lenovo\AppData\Local\Temp\ccjcyTZ0.s 			page 46


1533:C:/Users/lenovo/Desktop/liteos/Project2/BearPi_LiteOS/components/security/mbedtls/mbedtls-2.6.0/library\bignum.c **** static void mpi_montg_init( mbedtls_mpi_uint *mm, const mbedtls_mpi *N )
1534:C:/Users/lenovo/Desktop/liteos/Project2/BearPi_LiteOS/components/security/mbedtls/mbedtls-2.6.0/library\bignum.c **** {
 1025              		.loc 1 1534 0
 1026              		.cfi_startproc
 1027              		@ args = 0, pretend = 0, frame = 0
 1028              		@ frame_needed = 0, uses_anonymous_args = 0
 1029              		@ link register save eliminated.
 1030              	.LVL241:
 1031 0000 10B4     		push	{r4}
 1032              	.LCFI6:
 1033              		.cfi_def_cfa_offset 4
 1034              		.cfi_offset 4, -4
1535:C:/Users/lenovo/Desktop/liteos/Project2/BearPi_LiteOS/components/security/mbedtls/mbedtls-2.6.0/library\bignum.c ****     mbedtls_mpi_uint x, m0 = N->p[0];
 1035              		.loc 1 1535 0
 1036 0002 8B68     		ldr	r3, [r1, #8]
 1037 0004 1C68     		ldr	r4, [r3]
 1038              	.LVL242:
1536:C:/Users/lenovo/Desktop/liteos/Project2/BearPi_LiteOS/components/security/mbedtls/mbedtls-2.6.0/library\bignum.c ****     unsigned int i;
1537:C:/Users/lenovo/Desktop/liteos/Project2/BearPi_LiteOS/components/security/mbedtls/mbedtls-2.6.0/library\bignum.c **** 
1538:C:/Users/lenovo/Desktop/liteos/Project2/BearPi_LiteOS/components/security/mbedtls/mbedtls-2.6.0/library\bignum.c ****     x  = m0;
1539:C:/Users/lenovo/Desktop/liteos/Project2/BearPi_LiteOS/components/security/mbedtls/mbedtls-2.6.0/library\bignum.c ****     x += ( ( m0 + 2 ) & 4 ) << 1;
 1039              		.loc 1 1539 0
 1040 0006 A31C     		adds	r3, r4, #2
 1041 0008 5B00     		lsls	r3, r3, #1
 1042 000a 03F00803 		and	r3, r3, #8
 1043 000e 2344     		add	r3, r3, r4
 1044              	.LVL243:
1540:C:/Users/lenovo/Desktop/liteos/Project2/BearPi_LiteOS/components/security/mbedtls/mbedtls-2.6.0/library\bignum.c **** 
1541:C:/Users/lenovo/Desktop/liteos/Project2/BearPi_LiteOS/components/security/mbedtls/mbedtls-2.6.0/library\bignum.c ****     for( i = biL; i >= 8; i /= 2 )
 1045              		.loc 1 1541 0
 1046 0010 2021     		movs	r1, #32
 1047              	.LVL244:
 1048 0012 06E0     		b	.L47
 1049              	.LVL245:
 1050              	.L48:
1542:C:/Users/lenovo/Desktop/liteos/Project2/BearPi_LiteOS/components/security/mbedtls/mbedtls-2.6.0/library\bignum.c ****         x *= ( 2 - ( m0 * x ) );
 1051              		.loc 1 1542 0 discriminator 3
 1052 0014 04FB03F2 		mul	r2, r4, r3
 1053 0018 C2F10202 		rsb	r2, r2, #2
 1054 001c 02FB03F3 		mul	r3, r2, r3
 1055              	.LVL246:
1541:C:/Users/lenovo/Desktop/liteos/Project2/BearPi_LiteOS/components/security/mbedtls/mbedtls-2.6.0/library\bignum.c ****         x *= ( 2 - ( m0 * x ) );
 1056              		.loc 1 1541 0 discriminator 3
 1057 0020 4908     		lsrs	r1, r1, #1
 1058              	.LVL247:
 1059              	.L47:
1541:C:/Users/lenovo/Desktop/liteos/Project2/BearPi_LiteOS/components/security/mbedtls/mbedtls-2.6.0/library\bignum.c ****         x *= ( 2 - ( m0 * x ) );
 1060              		.loc 1 1541 0 is_stmt 0 discriminator 1
 1061 0022 0729     		cmp	r1, #7
 1062 0024 F6D8     		bhi	.L48
1543:C:/Users/lenovo/Desktop/liteos/Project2/BearPi_LiteOS/components/security/mbedtls/mbedtls-2.6.0/library\bignum.c **** 
1544:C:/Users/lenovo/Desktop/liteos/Project2/BearPi_LiteOS/components/security/mbedtls/mbedtls-2.6.0/library\bignum.c ****     *mm = ~x + 1;
 1063              		.loc 1 1544 0 is_stmt 1
 1064 0026 5B42     		negs	r3, r3
 1065              	.LVL248:
 1066 0028 0360     		str	r3, [r0]
1545:C:/Users/lenovo/Desktop/liteos/Project2/BearPi_LiteOS/components/security/mbedtls/mbedtls-2.6.0/library\bignum.c **** }
ARM GAS  c:\Users\lenovo\AppData\Local\Temp\ccjcyTZ0.s 			page 47


 1067              		.loc 1 1545 0
 1068 002a 5DF8044B 		ldr	r4, [sp], #4
 1069              	.LCFI7:
 1070              		.cfi_restore 4
 1071              		.cfi_def_cfa_offset 0
 1072              	.LVL249:
 1073 002e 7047     		bx	lr
 1074              		.cfi_endproc
 1075              	.LFE45:
 1077              		.section	.text.mbedtls_mpi_init,"ax",%progbits
 1078              		.align	1
 1079              		.global	mbedtls_mpi_init
 1080              		.syntax unified
 1081              		.thumb
 1082              		.thumb_func
 1083              		.fpu fpv4-sp-d16
 1085              	mbedtls_mpi_init:
 1086              	.LFB4:
  83:C:/Users/lenovo/Desktop/liteos/Project2/BearPi_LiteOS/components/security/mbedtls/mbedtls-2.6.0/library\bignum.c ****     if( X == NULL )
 1087              		.loc 1 83 0
 1088              		.cfi_startproc
 1089              		@ args = 0, pretend = 0, frame = 0
 1090              		@ frame_needed = 0, uses_anonymous_args = 0
 1091              		@ link register save eliminated.
 1092              	.LVL250:
  84:C:/Users/lenovo/Desktop/liteos/Project2/BearPi_LiteOS/components/security/mbedtls/mbedtls-2.6.0/library\bignum.c ****         return;
 1093              		.loc 1 84 0
 1094 0000 20B1     		cbz	r0, .L50
  87:C:/Users/lenovo/Desktop/liteos/Project2/BearPi_LiteOS/components/security/mbedtls/mbedtls-2.6.0/library\bignum.c ****     X->n = 0;
 1095              		.loc 1 87 0
 1096 0002 0122     		movs	r2, #1
 1097 0004 0260     		str	r2, [r0]
  88:C:/Users/lenovo/Desktop/liteos/Project2/BearPi_LiteOS/components/security/mbedtls/mbedtls-2.6.0/library\bignum.c ****     X->p = NULL;
 1098              		.loc 1 88 0
 1099 0006 0022     		movs	r2, #0
 1100 0008 4260     		str	r2, [r0, #4]
  89:C:/Users/lenovo/Desktop/liteos/Project2/BearPi_LiteOS/components/security/mbedtls/mbedtls-2.6.0/library\bignum.c **** }
 1101              		.loc 1 89 0
 1102 000a 8260     		str	r2, [r0, #8]
 1103              	.L50:
  90:C:/Users/lenovo/Desktop/liteos/Project2/BearPi_LiteOS/components/security/mbedtls/mbedtls-2.6.0/library\bignum.c **** 
 1104              		.loc 1 90 0
 1105 000c 7047     		bx	lr
 1106              		.cfi_endproc
 1107              	.LFE4:
 1109              		.section	.text.mbedtls_mpi_free,"ax",%progbits
 1110              		.align	1
 1111              		.global	mbedtls_mpi_free
 1112              		.syntax unified
 1113              		.thumb
 1114              		.thumb_func
 1115              		.fpu fpv4-sp-d16
 1117              	mbedtls_mpi_free:
 1118              	.LFB5:
  96:C:/Users/lenovo/Desktop/liteos/Project2/BearPi_LiteOS/components/security/mbedtls/mbedtls-2.6.0/library\bignum.c ****     if( X == NULL )
 1119              		.loc 1 96 0
 1120              		.cfi_startproc
ARM GAS  c:\Users\lenovo\AppData\Local\Temp\ccjcyTZ0.s 			page 48


 1121              		@ args = 0, pretend = 0, frame = 0
 1122              		@ frame_needed = 0, uses_anonymous_args = 0
 1123              	.LVL251:
  97:C:/Users/lenovo/Desktop/liteos/Project2/BearPi_LiteOS/components/security/mbedtls/mbedtls-2.6.0/library\bignum.c ****         return;
 1124              		.loc 1 97 0
 1125 0000 80B1     		cbz	r0, .L56
  96:C:/Users/lenovo/Desktop/liteos/Project2/BearPi_LiteOS/components/security/mbedtls/mbedtls-2.6.0/library\bignum.c ****     if( X == NULL )
 1126              		.loc 1 96 0
 1127 0002 10B5     		push	{r4, lr}
 1128              	.LCFI8:
 1129              		.cfi_def_cfa_offset 8
 1130              		.cfi_offset 4, -8
 1131              		.cfi_offset 14, -4
 1132 0004 0446     		mov	r4, r0
 100:C:/Users/lenovo/Desktop/liteos/Project2/BearPi_LiteOS/components/security/mbedtls/mbedtls-2.6.0/library\bignum.c ****     {
 1133              		.loc 1 100 0
 1134 0006 8068     		ldr	r0, [r0, #8]
 1135              	.LVL252:
 1136 0008 30B1     		cbz	r0, .L54
 102:C:/Users/lenovo/Desktop/liteos/Project2/BearPi_LiteOS/components/security/mbedtls/mbedtls-2.6.0/library\bignum.c ****         mbedtls_free( X->p );
 1137              		.loc 1 102 0
 1138 000a 6168     		ldr	r1, [r4, #4]
 1139 000c FFF7FEFF 		bl	mbedtls_mpi_zeroize
 1140              	.LVL253:
 103:C:/Users/lenovo/Desktop/liteos/Project2/BearPi_LiteOS/components/security/mbedtls/mbedtls-2.6.0/library\bignum.c ****     }
 1141              		.loc 1 103 0
 1142 0010 054B     		ldr	r3, .L59
 1143 0012 1B68     		ldr	r3, [r3]
 1144 0014 A068     		ldr	r0, [r4, #8]
 1145 0016 9847     		blx	r3
 1146              	.LVL254:
 1147              	.L54:
 106:C:/Users/lenovo/Desktop/liteos/Project2/BearPi_LiteOS/components/security/mbedtls/mbedtls-2.6.0/library\bignum.c ****     X->n = 0;
 1148              		.loc 1 106 0
 1149 0018 0123     		movs	r3, #1
 1150 001a 2360     		str	r3, [r4]
 107:C:/Users/lenovo/Desktop/liteos/Project2/BearPi_LiteOS/components/security/mbedtls/mbedtls-2.6.0/library\bignum.c ****     X->p = NULL;
 1151              		.loc 1 107 0
 1152 001c 0023     		movs	r3, #0
 1153 001e 6360     		str	r3, [r4, #4]
 108:C:/Users/lenovo/Desktop/liteos/Project2/BearPi_LiteOS/components/security/mbedtls/mbedtls-2.6.0/library\bignum.c **** }
 1154              		.loc 1 108 0
 1155 0020 A360     		str	r3, [r4, #8]
 109:C:/Users/lenovo/Desktop/liteos/Project2/BearPi_LiteOS/components/security/mbedtls/mbedtls-2.6.0/library\bignum.c **** 
 1156              		.loc 1 109 0
 1157 0022 10BD     		pop	{r4, pc}
 1158              	.LVL255:
 1159              	.L56:
 1160              	.LCFI9:
 1161              		.cfi_def_cfa_offset 0
 1162              		.cfi_restore 4
 1163              		.cfi_restore 14
 1164 0024 7047     		bx	lr
 1165              	.L60:
 1166 0026 00BF     		.align	2
 1167              	.L59:
 1168 0028 00000000 		.word	mbedtls_free
ARM GAS  c:\Users\lenovo\AppData\Local\Temp\ccjcyTZ0.s 			page 49


 1169              		.cfi_endproc
 1170              	.LFE5:
 1172              		.section	.text.mbedtls_mpi_grow,"ax",%progbits
 1173              		.align	1
 1174              		.global	mbedtls_mpi_grow
 1175              		.syntax unified
 1176              		.thumb
 1177              		.thumb_func
 1178              		.fpu fpv4-sp-d16
 1180              	mbedtls_mpi_grow:
 1181              	.LFB6:
 115:C:/Users/lenovo/Desktop/liteos/Project2/BearPi_LiteOS/components/security/mbedtls/mbedtls-2.6.0/library\bignum.c ****     mbedtls_mpi_uint *p;
 1182              		.loc 1 115 0
 1183              		.cfi_startproc
 1184              		@ args = 0, pretend = 0, frame = 0
 1185              		@ frame_needed = 0, uses_anonymous_args = 0
 1186              	.LVL256:
 118:C:/Users/lenovo/Desktop/liteos/Project2/BearPi_LiteOS/components/security/mbedtls/mbedtls-2.6.0/library\bignum.c ****         return( MBEDTLS_ERR_MPI_ALLOC_FAILED );
 1187              		.loc 1 118 0
 1188 0000 42F21073 		movw	r3, #10000
 1189 0004 9942     		cmp	r1, r3
 1190 0006 1ED8     		bhi	.L64
 121:C:/Users/lenovo/Desktop/liteos/Project2/BearPi_LiteOS/components/security/mbedtls/mbedtls-2.6.0/library\bignum.c ****     {
 1191              		.loc 1 121 0
 1192 0008 4368     		ldr	r3, [r0, #4]
 1193 000a 8B42     		cmp	r3, r1
 1194 000c 1ED2     		bcs	.L65
 115:C:/Users/lenovo/Desktop/liteos/Project2/BearPi_LiteOS/components/security/mbedtls/mbedtls-2.6.0/library\bignum.c ****     mbedtls_mpi_uint *p;
 1195              		.loc 1 115 0
 1196 000e 70B5     		push	{r4, r5, r6, lr}
 1197              	.LCFI10:
 1198              		.cfi_def_cfa_offset 16
 1199              		.cfi_offset 4, -16
 1200              		.cfi_offset 5, -12
 1201              		.cfi_offset 6, -8
 1202              		.cfi_offset 14, -4
 1203 0010 0D46     		mov	r5, r1
 1204 0012 0446     		mov	r4, r0
 123:C:/Users/lenovo/Desktop/liteos/Project2/BearPi_LiteOS/components/security/mbedtls/mbedtls-2.6.0/library\bignum.c ****             return( MBEDTLS_ERR_MPI_ALLOC_FAILED );
 1205              		.loc 1 123 0
 1206 0014 104B     		ldr	r3, .L71
 1207 0016 1B68     		ldr	r3, [r3]
 1208 0018 0421     		movs	r1, #4
 1209              	.LVL257:
 1210 001a 2846     		mov	r0, r5
 1211              	.LVL258:
 1212 001c 9847     		blx	r3
 1213              	.LVL259:
 1214 001e 0646     		mov	r6, r0
 1215 0020 B0B1     		cbz	r0, .L66
 126:C:/Users/lenovo/Desktop/liteos/Project2/BearPi_LiteOS/components/security/mbedtls/mbedtls-2.6.0/library\bignum.c ****         {
 1216              		.loc 1 126 0
 1217 0022 A168     		ldr	r1, [r4, #8]
 1218 0024 59B1     		cbz	r1, .L63
 128:C:/Users/lenovo/Desktop/liteos/Project2/BearPi_LiteOS/components/security/mbedtls/mbedtls-2.6.0/library\bignum.c ****             mbedtls_mpi_zeroize( X->p, X->n );
 1219              		.loc 1 128 0
 1220 0026 6268     		ldr	r2, [r4, #4]
ARM GAS  c:\Users\lenovo\AppData\Local\Temp\ccjcyTZ0.s 			page 50


 1221 0028 9200     		lsls	r2, r2, #2
 1222 002a FFF7FEFF 		bl	memcpy
 1223              	.LVL260:
 129:C:/Users/lenovo/Desktop/liteos/Project2/BearPi_LiteOS/components/security/mbedtls/mbedtls-2.6.0/library\bignum.c ****             mbedtls_free( X->p );
 1224              		.loc 1 129 0
 1225 002e 6168     		ldr	r1, [r4, #4]
 1226 0030 A068     		ldr	r0, [r4, #8]
 1227 0032 FFF7FEFF 		bl	mbedtls_mpi_zeroize
 1228              	.LVL261:
 130:C:/Users/lenovo/Desktop/liteos/Project2/BearPi_LiteOS/components/security/mbedtls/mbedtls-2.6.0/library\bignum.c ****         }
 1229              		.loc 1 130 0
 1230 0036 094B     		ldr	r3, .L71+4
 1231 0038 1B68     		ldr	r3, [r3]
 1232 003a A068     		ldr	r0, [r4, #8]
 1233 003c 9847     		blx	r3
 1234              	.LVL262:
 1235              	.L63:
 133:C:/Users/lenovo/Desktop/liteos/Project2/BearPi_LiteOS/components/security/mbedtls/mbedtls-2.6.0/library\bignum.c ****         X->p = p;
 1236              		.loc 1 133 0
 1237 003e 6560     		str	r5, [r4, #4]
 134:C:/Users/lenovo/Desktop/liteos/Project2/BearPi_LiteOS/components/security/mbedtls/mbedtls-2.6.0/library\bignum.c ****     }
 1238              		.loc 1 134 0
 1239 0040 A660     		str	r6, [r4, #8]
 137:C:/Users/lenovo/Desktop/liteos/Project2/BearPi_LiteOS/components/security/mbedtls/mbedtls-2.6.0/library\bignum.c **** }
 1240              		.loc 1 137 0
 1241 0042 0020     		movs	r0, #0
 1242              	.L61:
 138:C:/Users/lenovo/Desktop/liteos/Project2/BearPi_LiteOS/components/security/mbedtls/mbedtls-2.6.0/library\bignum.c **** 
 1243              		.loc 1 138 0
 1244 0044 70BD     		pop	{r4, r5, r6, pc}
 1245              	.LVL263:
 1246              	.L64:
 1247              	.LCFI11:
 1248              		.cfi_def_cfa_offset 0
 1249              		.cfi_restore 4
 1250              		.cfi_restore 5
 1251              		.cfi_restore 6
 1252              		.cfi_restore 14
 119:C:/Users/lenovo/Desktop/liteos/Project2/BearPi_LiteOS/components/security/mbedtls/mbedtls-2.6.0/library\bignum.c **** 
 1253              		.loc 1 119 0
 1254 0046 6FF00F00 		mvn	r0, #15
 1255              	.LVL264:
 1256 004a 7047     		bx	lr
 1257              	.LVL265:
 1258              	.L65:
 137:C:/Users/lenovo/Desktop/liteos/Project2/BearPi_LiteOS/components/security/mbedtls/mbedtls-2.6.0/library\bignum.c **** }
 1259              		.loc 1 137 0
 1260 004c 0020     		movs	r0, #0
 1261              	.LVL266:
 138:C:/Users/lenovo/Desktop/liteos/Project2/BearPi_LiteOS/components/security/mbedtls/mbedtls-2.6.0/library\bignum.c **** 
 1262              		.loc 1 138 0
 1263 004e 7047     		bx	lr
 1264              	.LVL267:
 1265              	.L66:
 1266              	.LCFI12:
 1267              		.cfi_def_cfa_offset 16
 1268              		.cfi_offset 4, -16
ARM GAS  c:\Users\lenovo\AppData\Local\Temp\ccjcyTZ0.s 			page 51


 1269              		.cfi_offset 5, -12
 1270              		.cfi_offset 6, -8
 1271              		.cfi_offset 14, -4
 124:C:/Users/lenovo/Desktop/liteos/Project2/BearPi_LiteOS/components/security/mbedtls/mbedtls-2.6.0/library\bignum.c **** 
 1272              		.loc 1 124 0
 1273 0050 6FF00F00 		mvn	r0, #15
 1274              	.LVL268:
 1275 0054 F6E7     		b	.L61
 1276              	.L72:
 1277 0056 00BF     		.align	2
 1278              	.L71:
 1279 0058 00000000 		.word	mbedtls_calloc
 1280 005c 00000000 		.word	mbedtls_free
 1281              		.cfi_endproc
 1282              	.LFE6:
 1284              		.section	.text.mbedtls_mpi_shrink,"ax",%progbits
 1285              		.align	1
 1286              		.global	mbedtls_mpi_shrink
 1287              		.syntax unified
 1288              		.thumb
 1289              		.thumb_func
 1290              		.fpu fpv4-sp-d16
 1292              	mbedtls_mpi_shrink:
 1293              	.LFB7:
 145:C:/Users/lenovo/Desktop/liteos/Project2/BearPi_LiteOS/components/security/mbedtls/mbedtls-2.6.0/library\bignum.c ****     mbedtls_mpi_uint *p;
 1294              		.loc 1 145 0
 1295              		.cfi_startproc
 1296              		@ args = 0, pretend = 0, frame = 0
 1297              		@ frame_needed = 0, uses_anonymous_args = 0
 1298              	.LVL269:
 1299 0000 70B5     		push	{r4, r5, r6, lr}
 1300              	.LCFI13:
 1301              		.cfi_def_cfa_offset 16
 1302              		.cfi_offset 4, -16
 1303              		.cfi_offset 5, -12
 1304              		.cfi_offset 6, -8
 1305              		.cfi_offset 14, -4
 1306 0002 0446     		mov	r4, r0
 1307 0004 0D46     		mov	r5, r1
 150:C:/Users/lenovo/Desktop/liteos/Project2/BearPi_LiteOS/components/security/mbedtls/mbedtls-2.6.0/library\bignum.c ****         return( mbedtls_mpi_grow( X, nblimbs ) );
 1308              		.loc 1 150 0
 1309 0006 4368     		ldr	r3, [r0, #4]
 1310 0008 8B42     		cmp	r3, r1
 1311 000a 07D9     		bls	.L83
 153:C:/Users/lenovo/Desktop/liteos/Project2/BearPi_LiteOS/components/security/mbedtls/mbedtls-2.6.0/library\bignum.c ****         if( X->p[i] != 0 )
 1312              		.loc 1 153 0
 1313 000c 013B     		subs	r3, r3, #1
 1314              	.LVL270:
 1315              	.L76:
 153:C:/Users/lenovo/Desktop/liteos/Project2/BearPi_LiteOS/components/security/mbedtls/mbedtls-2.6.0/library\bignum.c ****         if( X->p[i] != 0 )
 1316              		.loc 1 153 0 is_stmt 0 discriminator 1
 1317 000e 43B1     		cbz	r3, .L77
 154:C:/Users/lenovo/Desktop/liteos/Project2/BearPi_LiteOS/components/security/mbedtls/mbedtls-2.6.0/library\bignum.c ****             break;
 1318              		.loc 1 154 0 is_stmt 1
 1319 0010 A268     		ldr	r2, [r4, #8]
 1320 0012 52F82320 		ldr	r2, [r2, r3, lsl #2]
 1321 0016 22B9     		cbnz	r2, .L77
ARM GAS  c:\Users\lenovo\AppData\Local\Temp\ccjcyTZ0.s 			page 52


 153:C:/Users/lenovo/Desktop/liteos/Project2/BearPi_LiteOS/components/security/mbedtls/mbedtls-2.6.0/library\bignum.c ****         if( X->p[i] != 0 )
 1322              		.loc 1 153 0 discriminator 2
 1323 0018 013B     		subs	r3, r3, #1
 1324              	.LVL271:
 1325 001a F8E7     		b	.L76
 1326              	.LVL272:
 1327              	.L83:
 151:C:/Users/lenovo/Desktop/liteos/Project2/BearPi_LiteOS/components/security/mbedtls/mbedtls-2.6.0/library\bignum.c **** 
 1328              		.loc 1 151 0
 1329 001c FFF7FEFF 		bl	mbedtls_mpi_grow
 1330              	.LVL273:
 1331 0020 1AE0     		b	.L73
 1332              	.LVL274:
 1333              	.L77:
 156:C:/Users/lenovo/Desktop/liteos/Project2/BearPi_LiteOS/components/security/mbedtls/mbedtls-2.6.0/library\bignum.c **** 
 1334              		.loc 1 156 0
 1335 0022 0133     		adds	r3, r3, #1
 1336              	.LVL275:
 158:C:/Users/lenovo/Desktop/liteos/Project2/BearPi_LiteOS/components/security/mbedtls/mbedtls-2.6.0/library\bignum.c ****         i = nblimbs;
 1337              		.loc 1 158 0
 1338 0024 9D42     		cmp	r5, r3
 1339 0026 00D8     		bhi	.L79
 156:C:/Users/lenovo/Desktop/liteos/Project2/BearPi_LiteOS/components/security/mbedtls/mbedtls-2.6.0/library\bignum.c **** 
 1340              		.loc 1 156 0
 1341 0028 1D46     		mov	r5, r3
 1342              	.L79:
 1343              	.LVL276:
 161:C:/Users/lenovo/Desktop/liteos/Project2/BearPi_LiteOS/components/security/mbedtls/mbedtls-2.6.0/library\bignum.c ****         return( MBEDTLS_ERR_MPI_ALLOC_FAILED );
 1344              		.loc 1 161 0
 1345 002a 0D4B     		ldr	r3, .L84
 1346 002c 1B68     		ldr	r3, [r3]
 1347 002e 0421     		movs	r1, #4
 1348              	.LVL277:
 1349 0030 2846     		mov	r0, r5
 1350              	.LVL278:
 1351 0032 9847     		blx	r3
 1352              	.LVL279:
 1353 0034 0646     		mov	r6, r0
 1354 0036 80B1     		cbz	r0, .L81
 164:C:/Users/lenovo/Desktop/liteos/Project2/BearPi_LiteOS/components/security/mbedtls/mbedtls-2.6.0/library\bignum.c ****     {
 1355              		.loc 1 164 0
 1356 0038 A168     		ldr	r1, [r4, #8]
 1357 003a 51B1     		cbz	r1, .L80
 166:C:/Users/lenovo/Desktop/liteos/Project2/BearPi_LiteOS/components/security/mbedtls/mbedtls-2.6.0/library\bignum.c ****         mbedtls_mpi_zeroize( X->p, X->n );
 1358              		.loc 1 166 0
 1359 003c AA00     		lsls	r2, r5, #2
 1360 003e FFF7FEFF 		bl	memcpy
 1361              	.LVL280:
 167:C:/Users/lenovo/Desktop/liteos/Project2/BearPi_LiteOS/components/security/mbedtls/mbedtls-2.6.0/library\bignum.c ****         mbedtls_free( X->p );
 1362              		.loc 1 167 0
 1363 0042 6168     		ldr	r1, [r4, #4]
 1364 0044 A068     		ldr	r0, [r4, #8]
 1365 0046 FFF7FEFF 		bl	mbedtls_mpi_zeroize
 1366              	.LVL281:
 168:C:/Users/lenovo/Desktop/liteos/Project2/BearPi_LiteOS/components/security/mbedtls/mbedtls-2.6.0/library\bignum.c ****     }
 1367              		.loc 1 168 0
 1368 004a 064B     		ldr	r3, .L84+4
ARM GAS  c:\Users\lenovo\AppData\Local\Temp\ccjcyTZ0.s 			page 53


 1369 004c 1B68     		ldr	r3, [r3]
 1370 004e A068     		ldr	r0, [r4, #8]
 1371 0050 9847     		blx	r3
 1372              	.LVL282:
 1373              	.L80:
 171:C:/Users/lenovo/Desktop/liteos/Project2/BearPi_LiteOS/components/security/mbedtls/mbedtls-2.6.0/library\bignum.c ****     X->p = p;
 1374              		.loc 1 171 0
 1375 0052 6560     		str	r5, [r4, #4]
 172:C:/Users/lenovo/Desktop/liteos/Project2/BearPi_LiteOS/components/security/mbedtls/mbedtls-2.6.0/library\bignum.c **** 
 1376              		.loc 1 172 0
 1377 0054 A660     		str	r6, [r4, #8]
 174:C:/Users/lenovo/Desktop/liteos/Project2/BearPi_LiteOS/components/security/mbedtls/mbedtls-2.6.0/library\bignum.c **** }
 1378              		.loc 1 174 0
 1379 0056 0020     		movs	r0, #0
 1380              	.LVL283:
 1381              	.L73:
 175:C:/Users/lenovo/Desktop/liteos/Project2/BearPi_LiteOS/components/security/mbedtls/mbedtls-2.6.0/library\bignum.c **** 
 1382              		.loc 1 175 0
 1383 0058 70BD     		pop	{r4, r5, r6, pc}
 1384              	.LVL284:
 1385              	.L81:
 162:C:/Users/lenovo/Desktop/liteos/Project2/BearPi_LiteOS/components/security/mbedtls/mbedtls-2.6.0/library\bignum.c **** 
 1386              		.loc 1 162 0
 1387 005a 6FF00F00 		mvn	r0, #15
 1388              	.LVL285:
 1389 005e FBE7     		b	.L73
 1390              	.L85:
 1391              		.align	2
 1392              	.L84:
 1393 0060 00000000 		.word	mbedtls_calloc
 1394 0064 00000000 		.word	mbedtls_free
 1395              		.cfi_endproc
 1396              	.LFE7:
 1398              		.section	.text.mbedtls_mpi_copy,"ax",%progbits
 1399              		.align	1
 1400              		.global	mbedtls_mpi_copy
 1401              		.syntax unified
 1402              		.thumb
 1403              		.thumb_func
 1404              		.fpu fpv4-sp-d16
 1406              	mbedtls_mpi_copy:
 1407              	.LFB8:
 181:C:/Users/lenovo/Desktop/liteos/Project2/BearPi_LiteOS/components/security/mbedtls/mbedtls-2.6.0/library\bignum.c ****     int ret;
 1408              		.loc 1 181 0
 1409              		.cfi_startproc
 1410              		@ args = 0, pretend = 0, frame = 0
 1411              		@ frame_needed = 0, uses_anonymous_args = 0
 1412              	.LVL286:
 1413 0000 F8B5     		push	{r3, r4, r5, r6, r7, lr}
 1414              	.LCFI14:
 1415              		.cfi_def_cfa_offset 24
 1416              		.cfi_offset 3, -24
 1417              		.cfi_offset 4, -20
 1418              		.cfi_offset 5, -16
 1419              		.cfi_offset 6, -12
 1420              		.cfi_offset 7, -8
 1421              		.cfi_offset 14, -4
ARM GAS  c:\Users\lenovo\AppData\Local\Temp\ccjcyTZ0.s 			page 54


 185:C:/Users/lenovo/Desktop/liteos/Project2/BearPi_LiteOS/components/security/mbedtls/mbedtls-2.6.0/library\bignum.c ****         return( 0 );
 1422              		.loc 1 185 0
 1423 0002 8842     		cmp	r0, r1
 1424 0004 26D0     		beq	.L92
 1425 0006 0D46     		mov	r5, r1
 1426 0008 0646     		mov	r6, r0
 188:C:/Users/lenovo/Desktop/liteos/Project2/BearPi_LiteOS/components/security/mbedtls/mbedtls-2.6.0/library\bignum.c ****     {
 1427              		.loc 1 188 0
 1428 000a 8968     		ldr	r1, [r1, #8]
 1429              	.LVL287:
 1430 000c 39B1     		cbz	r1, .L94
 194:C:/Users/lenovo/Desktop/liteos/Project2/BearPi_LiteOS/components/security/mbedtls/mbedtls-2.6.0/library\bignum.c ****         if( Y->p[i] != 0 )
 1431              		.loc 1 194 0
 1432 000e 6B68     		ldr	r3, [r5, #4]
 1433 0010 013B     		subs	r3, r3, #1
 1434              	.LVL288:
 1435              	.L89:
 194:C:/Users/lenovo/Desktop/liteos/Project2/BearPi_LiteOS/components/security/mbedtls/mbedtls-2.6.0/library\bignum.c ****         if( Y->p[i] != 0 )
 1436              		.loc 1 194 0 is_stmt 0 discriminator 1
 1437 0012 43B1     		cbz	r3, .L90
 195:C:/Users/lenovo/Desktop/liteos/Project2/BearPi_LiteOS/components/security/mbedtls/mbedtls-2.6.0/library\bignum.c ****             break;
 1438              		.loc 1 195 0 is_stmt 1
 1439 0014 51F82320 		ldr	r2, [r1, r3, lsl #2]
 1440 0018 2AB9     		cbnz	r2, .L90
 194:C:/Users/lenovo/Desktop/liteos/Project2/BearPi_LiteOS/components/security/mbedtls/mbedtls-2.6.0/library\bignum.c ****         if( Y->p[i] != 0 )
 1441              		.loc 1 194 0 discriminator 2
 1442 001a 013B     		subs	r3, r3, #1
 1443              	.LVL289:
 1444 001c F9E7     		b	.L89
 1445              	.LVL290:
 1446              	.L94:
 190:C:/Users/lenovo/Desktop/liteos/Project2/BearPi_LiteOS/components/security/mbedtls/mbedtls-2.6.0/library\bignum.c ****         return( 0 );
 1447              		.loc 1 190 0
 1448 001e FFF7FEFF 		bl	mbedtls_mpi_free
 1449              	.LVL291:
 191:C:/Users/lenovo/Desktop/liteos/Project2/BearPi_LiteOS/components/security/mbedtls/mbedtls-2.6.0/library\bignum.c ****     }
 1450              		.loc 1 191 0
 1451 0022 0027     		movs	r7, #0
 1452 0024 08E0     		b	.L86
 1453              	.LVL292:
 1454              	.L90:
 197:C:/Users/lenovo/Desktop/liteos/Project2/BearPi_LiteOS/components/security/mbedtls/mbedtls-2.6.0/library\bignum.c **** 
 1455              		.loc 1 197 0
 1456 0026 5C1C     		adds	r4, r3, #1
 1457              	.LVL293:
 199:C:/Users/lenovo/Desktop/liteos/Project2/BearPi_LiteOS/components/security/mbedtls/mbedtls-2.6.0/library\bignum.c **** 
 1458              		.loc 1 199 0
 1459 0028 2B68     		ldr	r3, [r5]
 1460 002a 3360     		str	r3, [r6]
 201:C:/Users/lenovo/Desktop/liteos/Project2/BearPi_LiteOS/components/security/mbedtls/mbedtls-2.6.0/library\bignum.c **** 
 1461              		.loc 1 201 0
 1462 002c 2146     		mov	r1, r4
 1463 002e 3046     		mov	r0, r6
 1464              	.LVL294:
 1465 0030 FFF7FEFF 		bl	mbedtls_mpi_grow
 1466              	.LVL295:
 1467 0034 0746     		mov	r7, r0
ARM GAS  c:\Users\lenovo\AppData\Local\Temp\ccjcyTZ0.s 			page 55


 1468 0036 08B1     		cbz	r0, .L95
 1469              	.LVL296:
 1470              	.L86:
 209:C:/Users/lenovo/Desktop/liteos/Project2/BearPi_LiteOS/components/security/mbedtls/mbedtls-2.6.0/library\bignum.c **** 
 1471              		.loc 1 209 0
 1472 0038 3846     		mov	r0, r7
 1473 003a F8BD     		pop	{r3, r4, r5, r6, r7, pc}
 1474              	.LVL297:
 1475              	.L95:
 203:C:/Users/lenovo/Desktop/liteos/Project2/BearPi_LiteOS/components/security/mbedtls/mbedtls-2.6.0/library\bignum.c ****     memcpy( X->p, Y->p, i * ciL );
 1476              		.loc 1 203 0
 1477 003c 7268     		ldr	r2, [r6, #4]
 1478 003e 9200     		lsls	r2, r2, #2
 1479 0040 0021     		movs	r1, #0
 1480 0042 B068     		ldr	r0, [r6, #8]
 1481              	.LVL298:
 1482 0044 FFF7FEFF 		bl	memset
 1483              	.LVL299:
 204:C:/Users/lenovo/Desktop/liteos/Project2/BearPi_LiteOS/components/security/mbedtls/mbedtls-2.6.0/library\bignum.c **** 
 1484              		.loc 1 204 0
 1485 0048 A200     		lsls	r2, r4, #2
 1486 004a A968     		ldr	r1, [r5, #8]
 1487 004c B068     		ldr	r0, [r6, #8]
 1488 004e FFF7FEFF 		bl	memcpy
 1489              	.LVL300:
 1490 0052 F1E7     		b	.L86
 1491              	.LVL301:
 1492              	.L92:
 186:C:/Users/lenovo/Desktop/liteos/Project2/BearPi_LiteOS/components/security/mbedtls/mbedtls-2.6.0/library\bignum.c **** 
 1493              		.loc 1 186 0
 1494 0054 0027     		movs	r7, #0
 1495 0056 EFE7     		b	.L86
 1496              		.cfi_endproc
 1497              	.LFE8:
 1499              		.section	.text.mbedtls_mpi_swap,"ax",%progbits
 1500              		.align	1
 1501              		.global	mbedtls_mpi_swap
 1502              		.syntax unified
 1503              		.thumb
 1504              		.thumb_func
 1505              		.fpu fpv4-sp-d16
 1507              	mbedtls_mpi_swap:
 1508              	.LFB9:
 215:C:/Users/lenovo/Desktop/liteos/Project2/BearPi_LiteOS/components/security/mbedtls/mbedtls-2.6.0/library\bignum.c ****     mbedtls_mpi T;
 1509              		.loc 1 215 0
 1510              		.cfi_startproc
 1511              		@ args = 0, pretend = 0, frame = 16
 1512              		@ frame_needed = 0, uses_anonymous_args = 0
 1513              		@ link register save eliminated.
 1514              	.LVL302:
 1515 0000 30B4     		push	{r4, r5}
 1516              	.LCFI15:
 1517              		.cfi_def_cfa_offset 8
 1518              		.cfi_offset 4, -8
 1519              		.cfi_offset 5, -4
 1520 0002 84B0     		sub	sp, sp, #16
 1521              	.LCFI16:
ARM GAS  c:\Users\lenovo\AppData\Local\Temp\ccjcyTZ0.s 			page 56


 1522              		.cfi_def_cfa_offset 24
 1523 0004 0346     		mov	r3, r0
 1524 0006 0C46     		mov	r4, r1
 218:C:/Users/lenovo/Desktop/liteos/Project2/BearPi_LiteOS/components/security/mbedtls/mbedtls-2.6.0/library\bignum.c ****     memcpy(  X,  Y, sizeof( mbedtls_mpi ) );
 1525              		.loc 1 218 0
 1526 0008 01AD     		add	r5, sp, #4
 1527 000a 0068     		ldr	r0, [r0]	@ unaligned
 1528              	.LVL303:
 1529 000c 5968     		ldr	r1, [r3, #4]	@ unaligned
 1530              	.LVL304:
 1531 000e 9A68     		ldr	r2, [r3, #8]	@ unaligned
 1532 0010 07C5     		stmia	r5!, {r0, r1, r2}
 219:C:/Users/lenovo/Desktop/liteos/Project2/BearPi_LiteOS/components/security/mbedtls/mbedtls-2.6.0/library\bignum.c ****     memcpy(  Y, &T, sizeof( mbedtls_mpi ) );
 1533              		.loc 1 219 0
 1534 0012 2068     		ldr	r0, [r4]	@ unaligned
 1535 0014 6168     		ldr	r1, [r4, #4]	@ unaligned
 1536 0016 A268     		ldr	r2, [r4, #8]	@ unaligned
 1537 0018 1860     		str	r0, [r3]	@ unaligned
 1538 001a 5960     		str	r1, [r3, #4]	@ unaligned
 1539 001c 9A60     		str	r2, [r3, #8]	@ unaligned
 220:C:/Users/lenovo/Desktop/liteos/Project2/BearPi_LiteOS/components/security/mbedtls/mbedtls-2.6.0/library\bignum.c **** }
 1540              		.loc 1 220 0
 1541 001e 01AB     		add	r3, sp, #4
 1542              	.LVL305:
 1543 0020 07CB     		ldmia	r3!, {r0, r1, r2}
 1544 0022 2060     		str	r0, [r4]	@ unaligned
 1545 0024 6160     		str	r1, [r4, #4]	@ unaligned
 1546 0026 A260     		str	r2, [r4, #8]	@ unaligned
 221:C:/Users/lenovo/Desktop/liteos/Project2/BearPi_LiteOS/components/security/mbedtls/mbedtls-2.6.0/library\bignum.c **** 
 1547              		.loc 1 221 0
 1548 0028 04B0     		add	sp, sp, #16
 1549              	.LCFI17:
 1550              		.cfi_def_cfa_offset 8
 1551              		@ sp needed
 1552 002a 30BC     		pop	{r4, r5}
 1553              	.LCFI18:
 1554              		.cfi_restore 5
 1555              		.cfi_restore 4
 1556              		.cfi_def_cfa_offset 0
 1557              	.LVL306:
 1558 002c 7047     		bx	lr
 1559              		.cfi_endproc
 1560              	.LFE9:
 1562              		.section	.text.mbedtls_mpi_safe_cond_assign,"ax",%progbits
 1563              		.align	1
 1564              		.global	mbedtls_mpi_safe_cond_assign
 1565              		.syntax unified
 1566              		.thumb
 1567              		.thumb_func
 1568              		.fpu fpv4-sp-d16
 1570              	mbedtls_mpi_safe_cond_assign:
 1571              	.LFB10:
 229:C:/Users/lenovo/Desktop/liteos/Project2/BearPi_LiteOS/components/security/mbedtls/mbedtls-2.6.0/library\bignum.c ****     int ret = 0;
 1572              		.loc 1 229 0
 1573              		.cfi_startproc
 1574              		@ args = 0, pretend = 0, frame = 0
 1575              		@ frame_needed = 0, uses_anonymous_args = 0
ARM GAS  c:\Users\lenovo\AppData\Local\Temp\ccjcyTZ0.s 			page 57


 1576              	.LVL307:
 1577 0000 F8B5     		push	{r3, r4, r5, r6, r7, lr}
 1578              	.LCFI19:
 1579              		.cfi_def_cfa_offset 24
 1580              		.cfi_offset 3, -24
 1581              		.cfi_offset 4, -20
 1582              		.cfi_offset 5, -16
 1583              		.cfi_offset 6, -12
 1584              		.cfi_offset 7, -8
 1585              		.cfi_offset 14, -4
 1586 0002 0446     		mov	r4, r0
 1587 0004 0E46     		mov	r6, r1
 1588              	.LVL308:
 234:C:/Users/lenovo/Desktop/liteos/Project2/BearPi_LiteOS/components/security/mbedtls/mbedtls-2.6.0/library\bignum.c **** 
 1589              		.loc 1 234 0
 1590 0006 5542     		negs	r5, r2
 1591 0008 EDB2     		uxtb	r5, r5
 1592 000a 1543     		orrs	r5, r5, r2
 1593              	.LVL309:
 236:C:/Users/lenovo/Desktop/liteos/Project2/BearPi_LiteOS/components/security/mbedtls/mbedtls-2.6.0/library\bignum.c **** 
 1594              		.loc 1 236 0
 1595 000c 4968     		ldr	r1, [r1, #4]
 1596              	.LVL310:
 1597 000e FFF7FEFF 		bl	mbedtls_mpi_grow
 1598              	.LVL311:
 1599 0012 8446     		mov	ip, r0
 1600 0014 38BB     		cbnz	r0, .L98
 1601 0016 ED09     		lsrs	r5, r5, #7
 1602              	.LVL312:
 238:C:/Users/lenovo/Desktop/liteos/Project2/BearPi_LiteOS/components/security/mbedtls/mbedtls-2.6.0/library\bignum.c **** 
 1603              		.loc 1 238 0
 1604 0018 2368     		ldr	r3, [r4]
 1605 001a C5F10100 		rsb	r0, r5, #1
 1606              	.LVL313:
 1607 001e 3268     		ldr	r2, [r6]
 1608 0020 02FB05F2 		mul	r2, r2, r5
 1609 0024 00FB0323 		mla	r3, r0, r3, r2
 1610 0028 2360     		str	r3, [r4]
 1611              	.LVL314:
 240:C:/Users/lenovo/Desktop/liteos/Project2/BearPi_LiteOS/components/security/mbedtls/mbedtls-2.6.0/library\bignum.c ****         X->p[i] = X->p[i] * ( 1 - assign ) + Y->p[i] * assign;
 1612              		.loc 1 240 0
 1613 002a 0023     		movs	r3, #0
 1614 002c 0CE0     		b	.L100
 1615              	.LVL315:
 1616              	.L101:
 241:C:/Users/lenovo/Desktop/liteos/Project2/BearPi_LiteOS/components/security/mbedtls/mbedtls-2.6.0/library\bignum.c **** 
 1617              		.loc 1 241 0 discriminator 3
 1618 002e A768     		ldr	r7, [r4, #8]
 1619 0030 57F82320 		ldr	r2, [r7, r3, lsl #2]
 1620 0034 B168     		ldr	r1, [r6, #8]
 1621 0036 51F82310 		ldr	r1, [r1, r3, lsl #2]
 1622 003a 01FB05F1 		mul	r1, r1, r5
 1623 003e 00FB0212 		mla	r2, r0, r2, r1
 1624 0042 47F82320 		str	r2, [r7, r3, lsl #2]
 240:C:/Users/lenovo/Desktop/liteos/Project2/BearPi_LiteOS/components/security/mbedtls/mbedtls-2.6.0/library\bignum.c ****         X->p[i] = X->p[i] * ( 1 - assign ) + Y->p[i] * assign;
 1625              		.loc 1 240 0 discriminator 3
 1626 0046 0133     		adds	r3, r3, #1
ARM GAS  c:\Users\lenovo\AppData\Local\Temp\ccjcyTZ0.s 			page 58


 1627              	.LVL316:
 1628              	.L100:
 240:C:/Users/lenovo/Desktop/liteos/Project2/BearPi_LiteOS/components/security/mbedtls/mbedtls-2.6.0/library\bignum.c ****         X->p[i] = X->p[i] * ( 1 - assign ) + Y->p[i] * assign;
 1629              		.loc 1 240 0 is_stmt 0 discriminator 1
 1630 0048 7268     		ldr	r2, [r6, #4]
 1631 004a 9A42     		cmp	r2, r3
 1632 004c EFD8     		bhi	.L101
 1633 004e 07E0     		b	.L102
 1634              	.L103:
 244:C:/Users/lenovo/Desktop/liteos/Project2/BearPi_LiteOS/components/security/mbedtls/mbedtls-2.6.0/library\bignum.c **** 
 1635              		.loc 1 244 0 is_stmt 1 discriminator 2
 1636 0050 A168     		ldr	r1, [r4, #8]
 1637 0052 51F82320 		ldr	r2, [r1, r3, lsl #2]
 1638 0056 00FB02F2 		mul	r2, r0, r2
 1639 005a 41F82320 		str	r2, [r1, r3, lsl #2]
 243:C:/Users/lenovo/Desktop/liteos/Project2/BearPi_LiteOS/components/security/mbedtls/mbedtls-2.6.0/library\bignum.c ****         X->p[i] *= ( 1 - assign );
 1640              		.loc 1 243 0 discriminator 2
 1641 005e 0133     		adds	r3, r3, #1
 1642              	.LVL317:
 1643              	.L102:
 243:C:/Users/lenovo/Desktop/liteos/Project2/BearPi_LiteOS/components/security/mbedtls/mbedtls-2.6.0/library\bignum.c ****         X->p[i] *= ( 1 - assign );
 1644              		.loc 1 243 0 is_stmt 0 discriminator 1
 1645 0060 6268     		ldr	r2, [r4, #4]
 1646 0062 9A42     		cmp	r2, r3
 1647 0064 F4D8     		bhi	.L103
 1648              	.L99:
 1649              	.LVL318:
 1650              	.L98:
 248:C:/Users/lenovo/Desktop/liteos/Project2/BearPi_LiteOS/components/security/mbedtls/mbedtls-2.6.0/library\bignum.c **** 
 1651              		.loc 1 248 0 is_stmt 1
 1652 0066 6046     		mov	r0, ip
 1653 0068 F8BD     		pop	{r3, r4, r5, r6, r7, pc}
 1654              		.cfi_endproc
 1655              	.LFE10:
 1657              		.section	.text.mbedtls_mpi_safe_cond_swap,"ax",%progbits
 1658              		.align	1
 1659              		.global	mbedtls_mpi_safe_cond_swap
 1660              		.syntax unified
 1661              		.thumb
 1662              		.thumb_func
 1663              		.fpu fpv4-sp-d16
 1665              	mbedtls_mpi_safe_cond_swap:
 1666              	.LFB11:
 257:C:/Users/lenovo/Desktop/liteos/Project2/BearPi_LiteOS/components/security/mbedtls/mbedtls-2.6.0/library\bignum.c ****     int ret, s;
 1667              		.loc 1 257 0
 1668              		.cfi_startproc
 1669              		@ args = 0, pretend = 0, frame = 0
 1670              		@ frame_needed = 0, uses_anonymous_args = 0
 1671              	.LVL319:
 1672 0000 F8B5     		push	{r3, r4, r5, r6, r7, lr}
 1673              	.LCFI20:
 1674              		.cfi_def_cfa_offset 24
 1675              		.cfi_offset 3, -24
 1676              		.cfi_offset 4, -20
 1677              		.cfi_offset 5, -16
 1678              		.cfi_offset 6, -12
 1679              		.cfi_offset 7, -8
ARM GAS  c:\Users\lenovo\AppData\Local\Temp\ccjcyTZ0.s 			page 59


 1680              		.cfi_offset 14, -4
 262:C:/Users/lenovo/Desktop/liteos/Project2/BearPi_LiteOS/components/security/mbedtls/mbedtls-2.6.0/library\bignum.c ****         return( 0 );
 1681              		.loc 1 262 0
 1682 0002 8842     		cmp	r0, r1
 1683 0004 3BD0     		beq	.L109
 1684 0006 0E46     		mov	r6, r1
 1685 0008 0546     		mov	r5, r0
 266:C:/Users/lenovo/Desktop/liteos/Project2/BearPi_LiteOS/components/security/mbedtls/mbedtls-2.6.0/library\bignum.c **** 
 1686              		.loc 1 266 0
 1687 000a 5442     		negs	r4, r2
 1688 000c E4B2     		uxtb	r4, r4
 1689 000e 1443     		orrs	r4, r4, r2
 1690 0010 E409     		lsrs	r4, r4, #7
 1691              	.LVL320:
 268:C:/Users/lenovo/Desktop/liteos/Project2/BearPi_LiteOS/components/security/mbedtls/mbedtls-2.6.0/library\bignum.c ****     MBEDTLS_MPI_CHK( mbedtls_mpi_grow( Y, X->n ) );
 1692              		.loc 1 268 0
 1693 0012 4968     		ldr	r1, [r1, #4]
 1694              	.LVL321:
 1695 0014 FFF7FEFF 		bl	mbedtls_mpi_grow
 1696              	.LVL322:
 1697 0018 0746     		mov	r7, r0
 1698 001a 88BB     		cbnz	r0, .L105
 269:C:/Users/lenovo/Desktop/liteos/Project2/BearPi_LiteOS/components/security/mbedtls/mbedtls-2.6.0/library\bignum.c **** 
 1699              		.loc 1 269 0
 1700 001c 6968     		ldr	r1, [r5, #4]
 1701 001e 3046     		mov	r0, r6
 1702              	.LVL323:
 1703 0020 FFF7FEFF 		bl	mbedtls_mpi_grow
 1704              	.LVL324:
 1705 0024 0746     		mov	r7, r0
 1706 0026 58BB     		cbnz	r0, .L105
 271:C:/Users/lenovo/Desktop/liteos/Project2/BearPi_LiteOS/components/security/mbedtls/mbedtls-2.6.0/library\bignum.c ****     X->s = X->s * ( 1 - swap ) + Y->s * swap;
 1707              		.loc 1 271 0
 1708 0028 2A68     		ldr	r2, [r5]
 1709              	.LVL325:
 272:C:/Users/lenovo/Desktop/liteos/Project2/BearPi_LiteOS/components/security/mbedtls/mbedtls-2.6.0/library\bignum.c ****     Y->s = Y->s * ( 1 - swap ) +    s * swap;
 1710              		.loc 1 272 0
 1711 002a C4F1010C 		rsb	ip, r4, #1
 1712 002e 3368     		ldr	r3, [r6]
 1713 0030 03FB04F3 		mul	r3, r3, r4
 1714 0034 02FB0C33 		mla	r3, r2, ip, r3
 1715 0038 2B60     		str	r3, [r5]
 273:C:/Users/lenovo/Desktop/liteos/Project2/BearPi_LiteOS/components/security/mbedtls/mbedtls-2.6.0/library\bignum.c **** 
 1716              		.loc 1 273 0
 1717 003a 3368     		ldr	r3, [r6]
 1718 003c 02FB04F2 		mul	r2, r2, r4
 1719              	.LVL326:
 1720 0040 03FB0C22 		mla	r2, r3, ip, r2
 1721 0044 3260     		str	r2, [r6]
 1722              	.LVL327:
 276:C:/Users/lenovo/Desktop/liteos/Project2/BearPi_LiteOS/components/security/mbedtls/mbedtls-2.6.0/library\bignum.c ****     {
 1723              		.loc 1 276 0
 1724 0046 0023     		movs	r3, #0
 1725 0048 15E0     		b	.L107
 1726              	.LVL328:
 1727              	.L108:
 278:C:/Users/lenovo/Desktop/liteos/Project2/BearPi_LiteOS/components/security/mbedtls/mbedtls-2.6.0/library\bignum.c ****         X->p[i] = X->p[i] * ( 1 - swap ) + Y->p[i] * swap;
ARM GAS  c:\Users\lenovo\AppData\Local\Temp\ccjcyTZ0.s 			page 60


 1728              		.loc 1 278 0 discriminator 3
 1729 004a A868     		ldr	r0, [r5, #8]
 1730 004c 50F82310 		ldr	r1, [r0, r3, lsl #2]
 1731              	.LVL329:
 279:C:/Users/lenovo/Desktop/liteos/Project2/BearPi_LiteOS/components/security/mbedtls/mbedtls-2.6.0/library\bignum.c ****         Y->p[i] = Y->p[i] * ( 1 - swap ) +     tmp * swap;
 1732              		.loc 1 279 0 discriminator 3
 1733 0050 B268     		ldr	r2, [r6, #8]
 1734 0052 52F82320 		ldr	r2, [r2, r3, lsl #2]
 1735 0056 04FB02F2 		mul	r2, r4, r2
 1736 005a 01FB0C22 		mla	r2, r1, ip, r2
 1737 005e 40F82320 		str	r2, [r0, r3, lsl #2]
 280:C:/Users/lenovo/Desktop/liteos/Project2/BearPi_LiteOS/components/security/mbedtls/mbedtls-2.6.0/library\bignum.c ****     }
 1738              		.loc 1 280 0 discriminator 3
 1739 0062 B068     		ldr	r0, [r6, #8]
 1740 0064 50F82320 		ldr	r2, [r0, r3, lsl #2]
 1741 0068 01FB04F1 		mul	r1, r1, r4
 1742              	.LVL330:
 1743 006c 02FB0C11 		mla	r1, r2, ip, r1
 1744 0070 40F82310 		str	r1, [r0, r3, lsl #2]
 276:C:/Users/lenovo/Desktop/liteos/Project2/BearPi_LiteOS/components/security/mbedtls/mbedtls-2.6.0/library\bignum.c ****     {
 1745              		.loc 1 276 0 discriminator 3
 1746 0074 0133     		adds	r3, r3, #1
 1747              	.LVL331:
 1748              	.L107:
 276:C:/Users/lenovo/Desktop/liteos/Project2/BearPi_LiteOS/components/security/mbedtls/mbedtls-2.6.0/library\bignum.c ****     {
 1749              		.loc 1 276 0 is_stmt 0 discriminator 1
 1750 0076 6A68     		ldr	r2, [r5, #4]
 1751 0078 9A42     		cmp	r2, r3
 1752 007a E6D8     		bhi	.L108
 1753 007c 00E0     		b	.L105
 1754              	.LVL332:
 1755              	.L109:
 263:C:/Users/lenovo/Desktop/liteos/Project2/BearPi_LiteOS/components/security/mbedtls/mbedtls-2.6.0/library\bignum.c **** 
 1756              		.loc 1 263 0 is_stmt 1
 1757 007e 0027     		movs	r7, #0
 1758              	.LVL333:
 1759              	.L105:
 285:C:/Users/lenovo/Desktop/liteos/Project2/BearPi_LiteOS/components/security/mbedtls/mbedtls-2.6.0/library\bignum.c **** 
 1760              		.loc 1 285 0
 1761 0080 3846     		mov	r0, r7
 1762 0082 F8BD     		pop	{r3, r4, r5, r6, r7, pc}
 1763              		.cfi_endproc
 1764              	.LFE11:
 1766              		.section	.text.mbedtls_mpi_lset,"ax",%progbits
 1767              		.align	1
 1768              		.global	mbedtls_mpi_lset
 1769              		.syntax unified
 1770              		.thumb
 1771              		.thumb_func
 1772              		.fpu fpv4-sp-d16
 1774              	mbedtls_mpi_lset:
 1775              	.LFB12:
 291:C:/Users/lenovo/Desktop/liteos/Project2/BearPi_LiteOS/components/security/mbedtls/mbedtls-2.6.0/library\bignum.c ****     int ret;
 1776              		.loc 1 291 0
 1777              		.cfi_startproc
 1778              		@ args = 0, pretend = 0, frame = 0
 1779              		@ frame_needed = 0, uses_anonymous_args = 0
ARM GAS  c:\Users\lenovo\AppData\Local\Temp\ccjcyTZ0.s 			page 61


 1780              	.LVL334:
 1781 0000 70B5     		push	{r4, r5, r6, lr}
 1782              	.LCFI21:
 1783              		.cfi_def_cfa_offset 16
 1784              		.cfi_offset 4, -16
 1785              		.cfi_offset 5, -12
 1786              		.cfi_offset 6, -8
 1787              		.cfi_offset 14, -4
 1788 0002 0446     		mov	r4, r0
 1789 0004 0E46     		mov	r6, r1
 294:C:/Users/lenovo/Desktop/liteos/Project2/BearPi_LiteOS/components/security/mbedtls/mbedtls-2.6.0/library\bignum.c ****     memset( X->p, 0, X->n * ciL );
 1790              		.loc 1 294 0
 1791 0006 0121     		movs	r1, #1
 1792              	.LVL335:
 1793 0008 FFF7FEFF 		bl	mbedtls_mpi_grow
 1794              	.LVL336:
 1795 000c 0546     		mov	r5, r0
 1796 000e 08B1     		cbz	r0, .L116
 1797              	.LVL337:
 1798              	.L111:
 303:C:/Users/lenovo/Desktop/liteos/Project2/BearPi_LiteOS/components/security/mbedtls/mbedtls-2.6.0/library\bignum.c **** 
 1799              		.loc 1 303 0
 1800 0010 2846     		mov	r0, r5
 1801 0012 70BD     		pop	{r4, r5, r6, pc}
 1802              	.LVL338:
 1803              	.L116:
 295:C:/Users/lenovo/Desktop/liteos/Project2/BearPi_LiteOS/components/security/mbedtls/mbedtls-2.6.0/library\bignum.c **** 
 1804              		.loc 1 295 0
 1805 0014 6268     		ldr	r2, [r4, #4]
 1806 0016 9200     		lsls	r2, r2, #2
 1807 0018 0021     		movs	r1, #0
 1808 001a A068     		ldr	r0, [r4, #8]
 1809              	.LVL339:
 1810 001c FFF7FEFF 		bl	memset
 1811              	.LVL340:
 297:C:/Users/lenovo/Desktop/liteos/Project2/BearPi_LiteOS/components/security/mbedtls/mbedtls-2.6.0/library\bignum.c ****     X->s    = ( z < 0 ) ? -1 : 1;
 1812              		.loc 1 297 0
 1813 0020 A368     		ldr	r3, [r4, #8]
 1814 0022 86EAE672 		eor	r2, r6, r6, asr #31
 1815 0026 A2EBE672 		sub	r2, r2, r6, asr #31
 1816 002a 1A60     		str	r2, [r3]
 298:C:/Users/lenovo/Desktop/liteos/Project2/BearPi_LiteOS/components/security/mbedtls/mbedtls-2.6.0/library\bignum.c **** 
 1817              		.loc 1 298 0
 1818 002c 002E     		cmp	r6, #0
 1819 002e 02DB     		blt	.L117
 1820 0030 0123     		movs	r3, #1
 1821              	.L113:
 298:C:/Users/lenovo/Desktop/liteos/Project2/BearPi_LiteOS/components/security/mbedtls/mbedtls-2.6.0/library\bignum.c **** 
 1822              		.loc 1 298 0 is_stmt 0 discriminator 4
 1823 0032 2360     		str	r3, [r4]
 1824              	.L112:
 302:C:/Users/lenovo/Desktop/liteos/Project2/BearPi_LiteOS/components/security/mbedtls/mbedtls-2.6.0/library\bignum.c **** }
 1825              		.loc 1 302 0 is_stmt 1 discriminator 4
 1826 0034 ECE7     		b	.L111
 1827              	.L117:
 298:C:/Users/lenovo/Desktop/liteos/Project2/BearPi_LiteOS/components/security/mbedtls/mbedtls-2.6.0/library\bignum.c **** 
 1828              		.loc 1 298 0
ARM GAS  c:\Users\lenovo\AppData\Local\Temp\ccjcyTZ0.s 			page 62


 1829 0036 4FF0FF33 		mov	r3, #-1
 1830 003a FAE7     		b	.L113
 1831              		.cfi_endproc
 1832              	.LFE12:
 1834              		.section	.text.mbedtls_mpi_get_bit,"ax",%progbits
 1835              		.align	1
 1836              		.global	mbedtls_mpi_get_bit
 1837              		.syntax unified
 1838              		.thumb
 1839              		.thumb_func
 1840              		.fpu fpv4-sp-d16
 1842              	mbedtls_mpi_get_bit:
 1843              	.LFB13:
 309:C:/Users/lenovo/Desktop/liteos/Project2/BearPi_LiteOS/components/security/mbedtls/mbedtls-2.6.0/library\bignum.c ****     if( X->n * biL <= pos )
 1844              		.loc 1 309 0
 1845              		.cfi_startproc
 1846              		@ args = 0, pretend = 0, frame = 0
 1847              		@ frame_needed = 0, uses_anonymous_args = 0
 1848              		@ link register save eliminated.
 1849              	.LVL341:
 310:C:/Users/lenovo/Desktop/liteos/Project2/BearPi_LiteOS/components/security/mbedtls/mbedtls-2.6.0/library\bignum.c ****         return( 0 );
 1850              		.loc 1 310 0
 1851 0000 4368     		ldr	r3, [r0, #4]
 1852 0002 B1EB431F 		cmp	r1, r3, lsl #5
 1853 0006 09D2     		bcs	.L120
 313:C:/Users/lenovo/Desktop/liteos/Project2/BearPi_LiteOS/components/security/mbedtls/mbedtls-2.6.0/library\bignum.c **** }
 1854              		.loc 1 313 0
 1855 0008 8368     		ldr	r3, [r0, #8]
 1856 000a 4A09     		lsrs	r2, r1, #5
 1857 000c 53F82200 		ldr	r0, [r3, r2, lsl #2]
 1858              	.LVL342:
 1859 0010 01F01F01 		and	r1, r1, #31
 1860              	.LVL343:
 1861 0014 C840     		lsrs	r0, r0, r1
 1862 0016 00F00100 		and	r0, r0, #1
 1863 001a 7047     		bx	lr
 1864              	.LVL344:
 1865              	.L120:
 311:C:/Users/lenovo/Desktop/liteos/Project2/BearPi_LiteOS/components/security/mbedtls/mbedtls-2.6.0/library\bignum.c **** 
 1866              		.loc 1 311 0
 1867 001c 0020     		movs	r0, #0
 1868              	.LVL345:
 314:C:/Users/lenovo/Desktop/liteos/Project2/BearPi_LiteOS/components/security/mbedtls/mbedtls-2.6.0/library\bignum.c **** 
 1869              		.loc 1 314 0
 1870 001e 7047     		bx	lr
 1871              		.cfi_endproc
 1872              	.LFE13:
 1874              		.section	.text.mbedtls_mpi_set_bit,"ax",%progbits
 1875              		.align	1
 1876              		.global	mbedtls_mpi_set_bit
 1877              		.syntax unified
 1878              		.thumb
 1879              		.thumb_func
 1880              		.fpu fpv4-sp-d16
 1882              	mbedtls_mpi_set_bit:
 1883              	.LFB14:
 320:C:/Users/lenovo/Desktop/liteos/Project2/BearPi_LiteOS/components/security/mbedtls/mbedtls-2.6.0/library\bignum.c ****     int ret = 0;
ARM GAS  c:\Users\lenovo\AppData\Local\Temp\ccjcyTZ0.s 			page 63


 1884              		.loc 1 320 0
 1885              		.cfi_startproc
 1886              		@ args = 0, pretend = 0, frame = 0
 1887              		@ frame_needed = 0, uses_anonymous_args = 0
 1888              	.LVL346:
 325:C:/Users/lenovo/Desktop/liteos/Project2/BearPi_LiteOS/components/security/mbedtls/mbedtls-2.6.0/library\bignum.c ****         return( MBEDTLS_ERR_MPI_BAD_INPUT_DATA );
 1889              		.loc 1 325 0
 1890 0000 012A     		cmp	r2, #1
 1891 0002 27D8     		bhi	.L124
 320:C:/Users/lenovo/Desktop/liteos/Project2/BearPi_LiteOS/components/security/mbedtls/mbedtls-2.6.0/library\bignum.c ****     int ret = 0;
 1892              		.loc 1 320 0
 1893 0004 F8B5     		push	{r3, r4, r5, r6, r7, lr}
 1894              	.LCFI22:
 1895              		.cfi_def_cfa_offset 24
 1896              		.cfi_offset 3, -24
 1897              		.cfi_offset 4, -20
 1898              		.cfi_offset 5, -16
 1899              		.cfi_offset 6, -12
 1900              		.cfi_offset 7, -8
 1901              		.cfi_offset 14, -4
 1902 0006 4E09     		lsrs	r6, r1, #5
 1903              	.LVL347:
 1904 0008 01F01F07 		and	r7, r1, #31
 1905              	.LVL348:
 1906 000c 1546     		mov	r5, r2
 1907 000e 0446     		mov	r4, r0
 328:C:/Users/lenovo/Desktop/liteos/Project2/BearPi_LiteOS/components/security/mbedtls/mbedtls-2.6.0/library\bignum.c ****     {
 1908              		.loc 1 328 0
 1909 0010 4368     		ldr	r3, [r0, #4]
 1910 0012 B1EB431F 		cmp	r1, r3, lsl #5
 1911 0016 08D3     		bcc	.L125
 330:C:/Users/lenovo/Desktop/liteos/Project2/BearPi_LiteOS/components/security/mbedtls/mbedtls-2.6.0/library\bignum.c ****             return( 0 );
 1912              		.loc 1 330 0
 1913 0018 0AB9     		cbnz	r2, .L131
 331:C:/Users/lenovo/Desktop/liteos/Project2/BearPi_LiteOS/components/security/mbedtls/mbedtls-2.6.0/library\bignum.c **** 
 1914              		.loc 1 331 0
 1915 001a 0021     		movs	r1, #0
 1916              	.LVL349:
 1917 001c 18E0     		b	.L121
 1918              	.LVL350:
 1919              	.L131:
 333:C:/Users/lenovo/Desktop/liteos/Project2/BearPi_LiteOS/components/security/mbedtls/mbedtls-2.6.0/library\bignum.c ****     }
 1920              		.loc 1 333 0
 1921 001e 711C     		adds	r1, r6, #1
 1922              	.LVL351:
 1923 0020 FFF7FEFF 		bl	mbedtls_mpi_grow
 1924              	.LVL352:
 1925 0024 0146     		mov	r1, r0
 1926 0026 08B1     		cbz	r0, .L123
 1927 0028 12E0     		b	.L121
 1928              	.LVL353:
 1929              	.L125:
 321:C:/Users/lenovo/Desktop/liteos/Project2/BearPi_LiteOS/components/security/mbedtls/mbedtls-2.6.0/library\bignum.c ****     size_t off = pos / biL;
 1930              		.loc 1 321 0
 1931 002a 0021     		movs	r1, #0
 1932              	.LVL354:
 1933              	.L123:
ARM GAS  c:\Users\lenovo\AppData\Local\Temp\ccjcyTZ0.s 			page 64


 336:C:/Users/lenovo/Desktop/liteos/Project2/BearPi_LiteOS/components/security/mbedtls/mbedtls-2.6.0/library\bignum.c ****     X->p[off] |= (mbedtls_mpi_uint) val << idx;
 1934              		.loc 1 336 0
 1935 002c A068     		ldr	r0, [r4, #8]
 1936 002e 0123     		movs	r3, #1
 1937 0030 03FA07F2 		lsl	r2, r3, r7
 1938 0034 50F82630 		ldr	r3, [r0, r6, lsl #2]
 1939 0038 23EA0203 		bic	r3, r3, r2
 1940 003c 40F82630 		str	r3, [r0, r6, lsl #2]
 337:C:/Users/lenovo/Desktop/liteos/Project2/BearPi_LiteOS/components/security/mbedtls/mbedtls-2.6.0/library\bignum.c **** 
 1941              		.loc 1 337 0
 1942 0040 A068     		ldr	r0, [r4, #8]
 1943 0042 05FA07F2 		lsl	r2, r5, r7
 1944 0046 50F82630 		ldr	r3, [r0, r6, lsl #2]
 1945 004a 1A43     		orrs	r2, r2, r3
 1946 004c 40F82620 		str	r2, [r0, r6, lsl #2]
 1947              	.LVL355:
 1948              	.L121:
 342:C:/Users/lenovo/Desktop/liteos/Project2/BearPi_LiteOS/components/security/mbedtls/mbedtls-2.6.0/library\bignum.c **** 
 1949              		.loc 1 342 0
 1950 0050 0846     		mov	r0, r1
 1951 0052 F8BD     		pop	{r3, r4, r5, r6, r7, pc}
 1952              	.LVL356:
 1953              	.L124:
 1954              	.LCFI23:
 1955              		.cfi_def_cfa_offset 0
 1956              		.cfi_restore 3
 1957              		.cfi_restore 4
 1958              		.cfi_restore 5
 1959              		.cfi_restore 6
 1960              		.cfi_restore 7
 1961              		.cfi_restore 14
 326:C:/Users/lenovo/Desktop/liteos/Project2/BearPi_LiteOS/components/security/mbedtls/mbedtls-2.6.0/library\bignum.c **** 
 1962              		.loc 1 326 0
 1963 0054 6FF00301 		mvn	r1, #3
 1964              	.LVL357:
 342:C:/Users/lenovo/Desktop/liteos/Project2/BearPi_LiteOS/components/security/mbedtls/mbedtls-2.6.0/library\bignum.c **** 
 1965              		.loc 1 342 0
 1966 0058 0846     		mov	r0, r1
 1967              	.LVL358:
 1968 005a 7047     		bx	lr
 1969              		.cfi_endproc
 1970              	.LFE14:
 1972              		.section	.text.mbedtls_mpi_lsb,"ax",%progbits
 1973              		.align	1
 1974              		.global	mbedtls_mpi_lsb
 1975              		.syntax unified
 1976              		.thumb
 1977              		.thumb_func
 1978              		.fpu fpv4-sp-d16
 1980              	mbedtls_mpi_lsb:
 1981              	.LFB15:
 348:C:/Users/lenovo/Desktop/liteos/Project2/BearPi_LiteOS/components/security/mbedtls/mbedtls-2.6.0/library\bignum.c ****     size_t i, j, count = 0;
 1982              		.loc 1 348 0
 1983              		.cfi_startproc
 1984              		@ args = 0, pretend = 0, frame = 0
 1985              		@ frame_needed = 0, uses_anonymous_args = 0
 1986              		@ link register save eliminated.
ARM GAS  c:\Users\lenovo\AppData\Local\Temp\ccjcyTZ0.s 			page 65


 1987              	.LVL359:
 1988 0000 10B4     		push	{r4}
 1989              	.LCFI24:
 1990              		.cfi_def_cfa_offset 4
 1991              		.cfi_offset 4, -4
 1992              	.LVL360:
 349:C:/Users/lenovo/Desktop/liteos/Project2/BearPi_LiteOS/components/security/mbedtls/mbedtls-2.6.0/library\bignum.c **** 
 1993              		.loc 1 349 0
 1994 0002 0021     		movs	r1, #0
 351:C:/Users/lenovo/Desktop/liteos/Project2/BearPi_LiteOS/components/security/mbedtls/mbedtls-2.6.0/library\bignum.c ****         for( j = 0; j < biL; j++, count++ )
 1995              		.loc 1 351 0
 1996 0004 0C46     		mov	r4, r1
 1997              	.LVL361:
 1998              	.L133:
 351:C:/Users/lenovo/Desktop/liteos/Project2/BearPi_LiteOS/components/security/mbedtls/mbedtls-2.6.0/library\bignum.c ****         for( j = 0; j < biL; j++, count++ )
 1999              		.loc 1 351 0 is_stmt 0 discriminator 1
 2000 0006 4368     		ldr	r3, [r0, #4]
 2001 0008 A342     		cmp	r3, r4
 2002 000a 0ED9     		bls	.L139
 352:C:/Users/lenovo/Desktop/liteos/Project2/BearPi_LiteOS/components/security/mbedtls/mbedtls-2.6.0/library\bignum.c ****             if( ( ( X->p[i] >> j ) & 1 ) != 0 )
 2003              		.loc 1 352 0 is_stmt 1
 2004 000c 0022     		movs	r2, #0
 2005              	.L136:
 2006              	.LVL362:
 352:C:/Users/lenovo/Desktop/liteos/Project2/BearPi_LiteOS/components/security/mbedtls/mbedtls-2.6.0/library\bignum.c ****             if( ( ( X->p[i] >> j ) & 1 ) != 0 )
 2007              		.loc 1 352 0 is_stmt 0 discriminator 1
 2008 000e 1F2A     		cmp	r2, #31
 2009 0010 09D8     		bhi	.L140
 353:C:/Users/lenovo/Desktop/liteos/Project2/BearPi_LiteOS/components/security/mbedtls/mbedtls-2.6.0/library\bignum.c ****                 return( count );
 2010              		.loc 1 353 0 is_stmt 1
 2011 0012 8368     		ldr	r3, [r0, #8]
 2012 0014 53F82430 		ldr	r3, [r3, r4, lsl #2]
 2013 0018 D340     		lsrs	r3, r3, r2
 2014 001a 13F0010F 		tst	r3, #1
 2015 001e 05D1     		bne	.L132
 352:C:/Users/lenovo/Desktop/liteos/Project2/BearPi_LiteOS/components/security/mbedtls/mbedtls-2.6.0/library\bignum.c ****             if( ( ( X->p[i] >> j ) & 1 ) != 0 )
 2016              		.loc 1 352 0 discriminator 2
 2017 0020 0132     		adds	r2, r2, #1
 2018              	.LVL363:
 2019 0022 0131     		adds	r1, r1, #1
 2020              	.LVL364:
 2021 0024 F3E7     		b	.L136
 2022              	.L140:
 351:C:/Users/lenovo/Desktop/liteos/Project2/BearPi_LiteOS/components/security/mbedtls/mbedtls-2.6.0/library\bignum.c ****         for( j = 0; j < biL; j++, count++ )
 2023              		.loc 1 351 0 discriminator 2
 2024 0026 0134     		adds	r4, r4, #1
 2025              	.LVL365:
 2026 0028 EDE7     		b	.L133
 2027              	.LVL366:
 2028              	.L139:
 356:C:/Users/lenovo/Desktop/liteos/Project2/BearPi_LiteOS/components/security/mbedtls/mbedtls-2.6.0/library\bignum.c **** }
 2029              		.loc 1 356 0
 2030 002a 0021     		movs	r1, #0
 2031              	.LVL367:
 2032              	.L132:
 357:C:/Users/lenovo/Desktop/liteos/Project2/BearPi_LiteOS/components/security/mbedtls/mbedtls-2.6.0/library\bignum.c **** 
 2033              		.loc 1 357 0
ARM GAS  c:\Users\lenovo\AppData\Local\Temp\ccjcyTZ0.s 			page 66


 2034 002c 0846     		mov	r0, r1
 2035              	.LVL368:
 2036 002e 5DF8044B 		ldr	r4, [sp], #4
 2037              	.LCFI25:
 2038              		.cfi_restore 4
 2039              		.cfi_def_cfa_offset 0
 2040              	.LVL369:
 2041 0032 7047     		bx	lr
 2042              		.cfi_endproc
 2043              	.LFE15:
 2045              		.section	.text.mbedtls_mpi_bitlen,"ax",%progbits
 2046              		.align	1
 2047              		.global	mbedtls_mpi_bitlen
 2048              		.syntax unified
 2049              		.thumb
 2050              		.thumb_func
 2051              		.fpu fpv4-sp-d16
 2053              	mbedtls_mpi_bitlen:
 2054              	.LFB17:
 381:C:/Users/lenovo/Desktop/liteos/Project2/BearPi_LiteOS/components/security/mbedtls/mbedtls-2.6.0/library\bignum.c ****     size_t i, j;
 2055              		.loc 1 381 0
 2056              		.cfi_startproc
 2057              		@ args = 0, pretend = 0, frame = 0
 2058              		@ frame_needed = 0, uses_anonymous_args = 0
 2059              	.LVL370:
 2060 0000 10B5     		push	{r4, lr}
 2061              	.LCFI26:
 2062              		.cfi_def_cfa_offset 8
 2063              		.cfi_offset 4, -8
 2064              		.cfi_offset 14, -4
 384:C:/Users/lenovo/Desktop/liteos/Project2/BearPi_LiteOS/components/security/mbedtls/mbedtls-2.6.0/library\bignum.c ****         return( 0 );
 2065              		.loc 1 384 0
 2066 0002 4468     		ldr	r4, [r0, #4]
 2067 0004 8CB1     		cbz	r4, .L146
 387:C:/Users/lenovo/Desktop/liteos/Project2/BearPi_LiteOS/components/security/mbedtls/mbedtls-2.6.0/library\bignum.c ****         if( X->p[i] != 0 )
 2068              		.loc 1 387 0
 2069 0006 013C     		subs	r4, r4, #1
 2070              	.LVL371:
 2071              	.L143:
 387:C:/Users/lenovo/Desktop/liteos/Project2/BearPi_LiteOS/components/security/mbedtls/mbedtls-2.6.0/library\bignum.c ****         if( X->p[i] != 0 )
 2072              		.loc 1 387 0 is_stmt 0 discriminator 1
 2073 0008 2CB1     		cbz	r4, .L144
 388:C:/Users/lenovo/Desktop/liteos/Project2/BearPi_LiteOS/components/security/mbedtls/mbedtls-2.6.0/library\bignum.c ****             break;
 2074              		.loc 1 388 0 is_stmt 1
 2075 000a 8368     		ldr	r3, [r0, #8]
 2076 000c 53F82430 		ldr	r3, [r3, r4, lsl #2]
 2077 0010 0BB9     		cbnz	r3, .L144
 387:C:/Users/lenovo/Desktop/liteos/Project2/BearPi_LiteOS/components/security/mbedtls/mbedtls-2.6.0/library\bignum.c ****         if( X->p[i] != 0 )
 2078              		.loc 1 387 0 discriminator 2
 2079 0012 013C     		subs	r4, r4, #1
 2080              	.LVL372:
 2081 0014 F8E7     		b	.L143
 2082              	.L144:
 391:C:/Users/lenovo/Desktop/liteos/Project2/BearPi_LiteOS/components/security/mbedtls/mbedtls-2.6.0/library\bignum.c **** 
 2083              		.loc 1 391 0
 2084 0016 8368     		ldr	r3, [r0, #8]
 2085 0018 53F82400 		ldr	r0, [r3, r4, lsl #2]
ARM GAS  c:\Users\lenovo\AppData\Local\Temp\ccjcyTZ0.s 			page 67


 2086              	.LVL373:
 2087 001c FFF7FEFF 		bl	mbedtls_clz
 2088              	.LVL374:
 2089 0020 C0F12000 		rsb	r0, r0, #32
 2090              	.LVL375:
 393:C:/Users/lenovo/Desktop/liteos/Project2/BearPi_LiteOS/components/security/mbedtls/mbedtls-2.6.0/library\bignum.c **** }
 2091              		.loc 1 393 0
 2092 0024 00EB4410 		add	r0, r0, r4, lsl #5
 2093              	.LVL376:
 2094              	.L141:
 394:C:/Users/lenovo/Desktop/liteos/Project2/BearPi_LiteOS/components/security/mbedtls/mbedtls-2.6.0/library\bignum.c **** 
 2095              		.loc 1 394 0
 2096 0028 10BD     		pop	{r4, pc}
 2097              	.LVL377:
 2098              	.L146:
 385:C:/Users/lenovo/Desktop/liteos/Project2/BearPi_LiteOS/components/security/mbedtls/mbedtls-2.6.0/library\bignum.c **** 
 2099              		.loc 1 385 0
 2100 002a 0020     		movs	r0, #0
 2101              	.LVL378:
 2102 002c FCE7     		b	.L141
 2103              		.cfi_endproc
 2104              	.LFE17:
 2106              		.section	.text.mbedtls_mpi_size,"ax",%progbits
 2107              		.align	1
 2108              		.global	mbedtls_mpi_size
 2109              		.syntax unified
 2110              		.thumb
 2111              		.thumb_func
 2112              		.fpu fpv4-sp-d16
 2114              	mbedtls_mpi_size:
 2115              	.LFB18:
 400:C:/Users/lenovo/Desktop/liteos/Project2/BearPi_LiteOS/components/security/mbedtls/mbedtls-2.6.0/library\bignum.c ****     return( ( mbedtls_mpi_bitlen( X ) + 7 ) >> 3 );
 2116              		.loc 1 400 0
 2117              		.cfi_startproc
 2118              		@ args = 0, pretend = 0, frame = 0
 2119              		@ frame_needed = 0, uses_anonymous_args = 0
 2120              	.LVL379:
 2121 0000 08B5     		push	{r3, lr}
 2122              	.LCFI27:
 2123              		.cfi_def_cfa_offset 8
 2124              		.cfi_offset 3, -8
 2125              		.cfi_offset 14, -4
 401:C:/Users/lenovo/Desktop/liteos/Project2/BearPi_LiteOS/components/security/mbedtls/mbedtls-2.6.0/library\bignum.c **** }
 2126              		.loc 1 401 0
 2127 0002 FFF7FEFF 		bl	mbedtls_mpi_bitlen
 2128              	.LVL380:
 2129 0006 0730     		adds	r0, r0, #7
 402:C:/Users/lenovo/Desktop/liteos/Project2/BearPi_LiteOS/components/security/mbedtls/mbedtls-2.6.0/library\bignum.c **** 
 2130              		.loc 1 402 0
 2131 0008 C008     		lsrs	r0, r0, #3
 2132 000a 08BD     		pop	{r3, pc}
 2133              		.cfi_endproc
 2134              	.LFE18:
 2136              		.section	.text.mbedtls_mpi_read_binary,"ax",%progbits
 2137              		.align	1
 2138              		.global	mbedtls_mpi_read_binary
 2139              		.syntax unified
ARM GAS  c:\Users\lenovo\AppData\Local\Temp\ccjcyTZ0.s 			page 68


 2140              		.thumb
 2141              		.thumb_func
 2142              		.fpu fpv4-sp-d16
 2144              	mbedtls_mpi_read_binary:
 2145              	.LFB23:
 673:C:/Users/lenovo/Desktop/liteos/Project2/BearPi_LiteOS/components/security/mbedtls/mbedtls-2.6.0/library\bignum.c ****     int ret;
 2146              		.loc 1 673 0
 2147              		.cfi_startproc
 2148              		@ args = 0, pretend = 0, frame = 0
 2149              		@ frame_needed = 0, uses_anonymous_args = 0
 2150              	.LVL381:
 2151 0000 F8B5     		push	{r3, r4, r5, r6, r7, lr}
 2152              	.LCFI28:
 2153              		.cfi_def_cfa_offset 24
 2154              		.cfi_offset 3, -24
 2155              		.cfi_offset 4, -20
 2156              		.cfi_offset 5, -16
 2157              		.cfi_offset 6, -12
 2158              		.cfi_offset 7, -8
 2159              		.cfi_offset 14, -4
 2160 0002 0746     		mov	r7, r0
 2161 0004 0E46     		mov	r6, r1
 2162 0006 1546     		mov	r5, r2
 2163              	.LVL382:
 677:C:/Users/lenovo/Desktop/liteos/Project2/BearPi_LiteOS/components/security/mbedtls/mbedtls-2.6.0/library\bignum.c ****         if( buf[n] != 0 )
 2164              		.loc 1 677 0
 2165 0008 0024     		movs	r4, #0
 2166              	.LVL383:
 2167              	.L151:
 677:C:/Users/lenovo/Desktop/liteos/Project2/BearPi_LiteOS/components/security/mbedtls/mbedtls-2.6.0/library\bignum.c ****         if( buf[n] != 0 )
 2168              		.loc 1 677 0 is_stmt 0 discriminator 1
 2169 000a AC42     		cmp	r4, r5
 2170 000c 03D2     		bcs	.L152
 678:C:/Users/lenovo/Desktop/liteos/Project2/BearPi_LiteOS/components/security/mbedtls/mbedtls-2.6.0/library\bignum.c ****             break;
 2171              		.loc 1 678 0 is_stmt 1
 2172 000e 335D     		ldrb	r3, [r6, r4]	@ zero_extendqisi2
 2173 0010 0BB9     		cbnz	r3, .L152
 677:C:/Users/lenovo/Desktop/liteos/Project2/BearPi_LiteOS/components/security/mbedtls/mbedtls-2.6.0/library\bignum.c ****         if( buf[n] != 0 )
 2174              		.loc 1 677 0 discriminator 2
 2175 0012 0134     		adds	r4, r4, #1
 2176              	.LVL384:
 2177 0014 F9E7     		b	.L151
 2178              	.L152:
 681:C:/Users/lenovo/Desktop/liteos/Project2/BearPi_LiteOS/components/security/mbedtls/mbedtls-2.6.0/library\bignum.c ****     MBEDTLS_MPI_CHK( mbedtls_mpi_lset( X, 0 ) );
 2179              		.loc 1 681 0
 2180 0016 291B     		subs	r1, r5, r4
 2181              	.LVL385:
 2182 0018 11F00303 		ands	r3, r1, #3
 2183 001c 18BF     		it	ne
 2184 001e 0123     		movne	r3, #1
 2185 0020 03EB9101 		add	r1, r3, r1, lsr #2
 2186 0024 3846     		mov	r0, r7
 2187              	.LVL386:
 2188 0026 FFF7FEFF 		bl	mbedtls_mpi_grow
 2189              	.LVL387:
 2190 002a 8446     		mov	ip, r0
 2191 002c 08B1     		cbz	r0, .L158
ARM GAS  c:\Users\lenovo\AppData\Local\Temp\ccjcyTZ0.s 			page 69


 2192              	.L154:
 2193              	.LVL388:
 2194              	.L150:
 690:C:/Users/lenovo/Desktop/liteos/Project2/BearPi_LiteOS/components/security/mbedtls/mbedtls-2.6.0/library\bignum.c **** 
 2195              		.loc 1 690 0
 2196 002e 6046     		mov	r0, ip
 2197 0030 F8BD     		pop	{r3, r4, r5, r6, r7, pc}
 2198              	.LVL389:
 2199              	.L158:
 682:C:/Users/lenovo/Desktop/liteos/Project2/BearPi_LiteOS/components/security/mbedtls/mbedtls-2.6.0/library\bignum.c **** 
 2200              		.loc 1 682 0
 2201 0032 0021     		movs	r1, #0
 2202 0034 3846     		mov	r0, r7
 2203              	.LVL390:
 2204 0036 FFF7FEFF 		bl	mbedtls_mpi_lset
 2205              	.LVL391:
 2206 003a 8446     		mov	ip, r0
 2207 003c 0028     		cmp	r0, #0
 2208 003e F6D1     		bne	.L150
 684:C:/Users/lenovo/Desktop/liteos/Project2/BearPi_LiteOS/components/security/mbedtls/mbedtls-2.6.0/library\bignum.c ****         X->p[j / ciL] |= ((mbedtls_mpi_uint) buf[i - 1]) << ((j % ciL) << 3);
 2209              		.loc 1 684 0
 2210 0040 0023     		movs	r3, #0
 2211 0042 10E0     		b	.L155
 2212              	.LVL392:
 2213              	.L156:
 685:C:/Users/lenovo/Desktop/liteos/Project2/BearPi_LiteOS/components/security/mbedtls/mbedtls-2.6.0/library\bignum.c **** 
 2214              		.loc 1 685 0 discriminator 3
 2215 0044 D7F808E0 		ldr	lr, [r7, #8]
 2216 0048 23F00300 		bic	r0, r3, #3
 2217 004c 013D     		subs	r5, r5, #1
 2218              	.LVL393:
 2219 004e 725D     		ldrb	r2, [r6, r5]	@ zero_extendqisi2
 2220 0050 D900     		lsls	r1, r3, #3
 2221 0052 01F01801 		and	r1, r1, #24
 2222 0056 02FA01F1 		lsl	r1, r2, r1
 2223 005a 5EF80020 		ldr	r2, [lr, r0]
 2224 005e 0A43     		orrs	r2, r2, r1
 2225 0060 4EF80020 		str	r2, [lr, r0]
 2226              	.LVL394:
 684:C:/Users/lenovo/Desktop/liteos/Project2/BearPi_LiteOS/components/security/mbedtls/mbedtls-2.6.0/library\bignum.c ****         X->p[j / ciL] |= ((mbedtls_mpi_uint) buf[i - 1]) << ((j % ciL) << 3);
 2227              		.loc 1 684 0 discriminator 3
 2228 0064 0133     		adds	r3, r3, #1
 2229              	.LVL395:
 2230              	.L155:
 684:C:/Users/lenovo/Desktop/liteos/Project2/BearPi_LiteOS/components/security/mbedtls/mbedtls-2.6.0/library\bignum.c ****         X->p[j / ciL] |= ((mbedtls_mpi_uint) buf[i - 1]) << ((j % ciL) << 3);
 2231              		.loc 1 684 0 is_stmt 0 discriminator 1
 2232 0066 A542     		cmp	r5, r4
 2233 0068 ECD8     		bhi	.L156
 687:C:/Users/lenovo/Desktop/liteos/Project2/BearPi_LiteOS/components/security/mbedtls/mbedtls-2.6.0/library\bignum.c **** 
 2234              		.loc 1 687 0 is_stmt 1
 2235 006a E0E7     		b	.L150
 2236              		.cfi_endproc
 2237              	.LFE23:
 2239              		.section	.text.mbedtls_mpi_write_binary,"ax",%progbits
 2240              		.align	1
 2241              		.global	mbedtls_mpi_write_binary
 2242              		.syntax unified
ARM GAS  c:\Users\lenovo\AppData\Local\Temp\ccjcyTZ0.s 			page 70


 2243              		.thumb
 2244              		.thumb_func
 2245              		.fpu fpv4-sp-d16
 2247              	mbedtls_mpi_write_binary:
 2248              	.LFB24:
 696:C:/Users/lenovo/Desktop/liteos/Project2/BearPi_LiteOS/components/security/mbedtls/mbedtls-2.6.0/library\bignum.c ****     size_t i, j, n;
 2249              		.loc 1 696 0
 2250              		.cfi_startproc
 2251              		@ args = 0, pretend = 0, frame = 0
 2252              		@ frame_needed = 0, uses_anonymous_args = 0
 2253              	.LVL396:
 2254 0000 F8B5     		push	{r3, r4, r5, r6, r7, lr}
 2255              	.LCFI29:
 2256              		.cfi_def_cfa_offset 24
 2257              		.cfi_offset 3, -24
 2258              		.cfi_offset 4, -20
 2259              		.cfi_offset 5, -16
 2260              		.cfi_offset 6, -12
 2261              		.cfi_offset 7, -8
 2262              		.cfi_offset 14, -4
 2263 0002 0646     		mov	r6, r0
 2264 0004 0D46     		mov	r5, r1
 2265 0006 1746     		mov	r7, r2
 699:C:/Users/lenovo/Desktop/liteos/Project2/BearPi_LiteOS/components/security/mbedtls/mbedtls-2.6.0/library\bignum.c **** 
 2266              		.loc 1 699 0
 2267 0008 FFF7FEFF 		bl	mbedtls_mpi_size
 2268              	.LVL397:
 701:C:/Users/lenovo/Desktop/liteos/Project2/BearPi_LiteOS/components/security/mbedtls/mbedtls-2.6.0/library\bignum.c ****         return( MBEDTLS_ERR_MPI_BUFFER_TOO_SMALL );
 2269              		.loc 1 701 0
 2270 000c B842     		cmp	r0, r7
 2271 000e 18D8     		bhi	.L163
 2272 0010 0446     		mov	r4, r0
 704:C:/Users/lenovo/Desktop/liteos/Project2/BearPi_LiteOS/components/security/mbedtls/mbedtls-2.6.0/library\bignum.c **** 
 2273              		.loc 1 704 0
 2274 0012 3A46     		mov	r2, r7
 2275 0014 0021     		movs	r1, #0
 2276 0016 2846     		mov	r0, r5
 2277              	.LVL398:
 2278 0018 FFF7FEFF 		bl	memset
 2279              	.LVL399:
 706:C:/Users/lenovo/Desktop/liteos/Project2/BearPi_LiteOS/components/security/mbedtls/mbedtls-2.6.0/library\bignum.c ****         buf[i] = (unsigned char)( X->p[j / ciL] >> ((j % ciL) << 3) );
 2280              		.loc 1 706 0
 2281 001c 7A1E     		subs	r2, r7, #1
 2282              	.LVL400:
 2283 001e 0023     		movs	r3, #0
 2284 0020 0BE0     		b	.L161
 2285              	.LVL401:
 2286              	.L162:
 707:C:/Users/lenovo/Desktop/liteos/Project2/BearPi_LiteOS/components/security/mbedtls/mbedtls-2.6.0/library\bignum.c **** 
 2287              		.loc 1 707 0 discriminator 3
 2288 0022 B068     		ldr	r0, [r6, #8]
 2289 0024 23F00301 		bic	r1, r3, #3
 2290 0028 4158     		ldr	r1, [r0, r1]
 2291 002a D800     		lsls	r0, r3, #3
 2292 002c 00F01800 		and	r0, r0, #24
 2293 0030 C140     		lsrs	r1, r1, r0
 2294 0032 A954     		strb	r1, [r5, r2]
ARM GAS  c:\Users\lenovo\AppData\Local\Temp\ccjcyTZ0.s 			page 71


 706:C:/Users/lenovo/Desktop/liteos/Project2/BearPi_LiteOS/components/security/mbedtls/mbedtls-2.6.0/library\bignum.c ****         buf[i] = (unsigned char)( X->p[j / ciL] >> ((j % ciL) << 3) );
 2295              		.loc 1 706 0 discriminator 3
 2296 0034 013A     		subs	r2, r2, #1
 2297              	.LVL402:
 2298 0036 0133     		adds	r3, r3, #1
 2299              	.LVL403:
 2300 0038 013C     		subs	r4, r4, #1
 2301              	.LVL404:
 2302              	.L161:
 706:C:/Users/lenovo/Desktop/liteos/Project2/BearPi_LiteOS/components/security/mbedtls/mbedtls-2.6.0/library\bignum.c ****         buf[i] = (unsigned char)( X->p[j / ciL] >> ((j % ciL) << 3) );
 2303              		.loc 1 706 0 is_stmt 0 discriminator 1
 2304 003a 002C     		cmp	r4, #0
 2305 003c F1D1     		bne	.L162
 709:C:/Users/lenovo/Desktop/liteos/Project2/BearPi_LiteOS/components/security/mbedtls/mbedtls-2.6.0/library\bignum.c **** }
 2306              		.loc 1 709 0 is_stmt 1
 2307 003e 0020     		movs	r0, #0
 2308              	.LVL405:
 2309              	.L159:
 710:C:/Users/lenovo/Desktop/liteos/Project2/BearPi_LiteOS/components/security/mbedtls/mbedtls-2.6.0/library\bignum.c **** 
 2310              		.loc 1 710 0
 2311 0040 F8BD     		pop	{r3, r4, r5, r6, r7, pc}
 2312              	.LVL406:
 2313              	.L163:
 702:C:/Users/lenovo/Desktop/liteos/Project2/BearPi_LiteOS/components/security/mbedtls/mbedtls-2.6.0/library\bignum.c **** 
 2314              		.loc 1 702 0
 2315 0042 6FF00700 		mvn	r0, #7
 2316              	.LVL407:
 2317 0046 FBE7     		b	.L159
 2318              		.cfi_endproc
 2319              	.LFE24:
 2321              		.section	.text.mbedtls_mpi_shift_l,"ax",%progbits
 2322              		.align	1
 2323              		.global	mbedtls_mpi_shift_l
 2324              		.syntax unified
 2325              		.thumb
 2326              		.thumb_func
 2327              		.fpu fpv4-sp-d16
 2329              	mbedtls_mpi_shift_l:
 2330              	.LFB25:
 716:C:/Users/lenovo/Desktop/liteos/Project2/BearPi_LiteOS/components/security/mbedtls/mbedtls-2.6.0/library\bignum.c ****     int ret;
 2331              		.loc 1 716 0
 2332              		.cfi_startproc
 2333              		@ args = 0, pretend = 0, frame = 0
 2334              		@ frame_needed = 0, uses_anonymous_args = 0
 2335              	.LVL408:
 2336 0000 F8B5     		push	{r3, r4, r5, r6, r7, lr}
 2337              	.LCFI30:
 2338              		.cfi_def_cfa_offset 24
 2339              		.cfi_offset 3, -24
 2340              		.cfi_offset 4, -20
 2341              		.cfi_offset 5, -16
 2342              		.cfi_offset 6, -12
 2343              		.cfi_offset 7, -8
 2344              		.cfi_offset 14, -4
 2345 0002 0546     		mov	r5, r0
 2346 0004 0F46     		mov	r7, r1
 2347              	.LVL409:
ARM GAS  c:\Users\lenovo\AppData\Local\Temp\ccjcyTZ0.s 			page 72


 721:C:/Users/lenovo/Desktop/liteos/Project2/BearPi_LiteOS/components/security/mbedtls/mbedtls-2.6.0/library\bignum.c ****     t1 = count & (biL - 1);
 2348              		.loc 1 721 0
 2349 0006 4C09     		lsrs	r4, r1, #5
 2350              	.LVL410:
 722:C:/Users/lenovo/Desktop/liteos/Project2/BearPi_LiteOS/components/security/mbedtls/mbedtls-2.6.0/library\bignum.c **** 
 2351              		.loc 1 722 0
 2352 0008 01F01F06 		and	r6, r1, #31
 2353              	.LVL411:
 724:C:/Users/lenovo/Desktop/liteos/Project2/BearPi_LiteOS/components/security/mbedtls/mbedtls-2.6.0/library\bignum.c **** 
 2354              		.loc 1 724 0
 2355 000c FFF7FEFF 		bl	mbedtls_mpi_bitlen
 2356              	.LVL412:
 2357 0010 3844     		add	r0, r0, r7
 2358              	.LVL413:
 726:C:/Users/lenovo/Desktop/liteos/Project2/BearPi_LiteOS/components/security/mbedtls/mbedtls-2.6.0/library\bignum.c ****         MBEDTLS_MPI_CHK( mbedtls_mpi_grow( X, BITS_TO_LIMBS( i ) ) );
 2359              		.loc 1 726 0
 2360 0012 6B68     		ldr	r3, [r5, #4]
 2361 0014 B0EB431F 		cmp	r0, r3, lsl #5
 2362 0018 02D8     		bhi	.L177
 2363              	.LVL414:
 2364              	.L166:
 734:C:/Users/lenovo/Desktop/liteos/Project2/BearPi_LiteOS/components/security/mbedtls/mbedtls-2.6.0/library\bignum.c ****     {
 2365              		.loc 1 734 0
 2366 001a 34B3     		cbz	r4, .L168
 736:C:/Users/lenovo/Desktop/liteos/Project2/BearPi_LiteOS/components/security/mbedtls/mbedtls-2.6.0/library\bignum.c ****             X->p[i - 1] = X->p[i - v0 - 1];
 2367              		.loc 1 736 0
 2368 001c 6B68     		ldr	r3, [r5, #4]
 2369              	.LVL415:
 2370 001e 17E0     		b	.L169
 2371              	.LVL416:
 2372              	.L177:
 727:C:/Users/lenovo/Desktop/liteos/Project2/BearPi_LiteOS/components/security/mbedtls/mbedtls-2.6.0/library\bignum.c **** 
 2373              		.loc 1 727 0
 2374 0020 10F01F01 		ands	r1, r0, #31
 2375 0024 18BF     		it	ne
 2376 0026 0121     		movne	r1, #1
 2377 0028 01EB5011 		add	r1, r1, r0, lsr #5
 2378 002c 2846     		mov	r0, r5
 2379              	.LVL417:
 2380 002e FFF7FEFF 		bl	mbedtls_mpi_grow
 2381              	.LVL418:
 2382 0032 0346     		mov	r3, r0
 2383 0034 0028     		cmp	r0, #0
 2384 0036 F0D0     		beq	.L166
 757:C:/Users/lenovo/Desktop/liteos/Project2/BearPi_LiteOS/components/security/mbedtls/mbedtls-2.6.0/library\bignum.c **** 
 2385              		.loc 1 757 0
 2386 0038 32E0     		b	.L165
 2387              	.LVL419:
 2388              	.L170:
 737:C:/Users/lenovo/Desktop/liteos/Project2/BearPi_LiteOS/components/security/mbedtls/mbedtls-2.6.0/library\bignum.c **** 
 2389              		.loc 1 737 0 discriminator 3
 2390 003a A968     		ldr	r1, [r5, #8]
 2391 003c 1A1B     		subs	r2, r3, r4
 2392 003e 6FF04040 		mvn	r0, #-1073741824
 2393 0042 1F18     		adds	r7, r3, r0
 2394 0044 0244     		add	r2, r2, r0
 2395 0046 51F82220 		ldr	r2, [r1, r2, lsl #2]
ARM GAS  c:\Users\lenovo\AppData\Local\Temp\ccjcyTZ0.s 			page 73


 2396 004a 41F82720 		str	r2, [r1, r7, lsl #2]
 736:C:/Users/lenovo/Desktop/liteos/Project2/BearPi_LiteOS/components/security/mbedtls/mbedtls-2.6.0/library\bignum.c ****             X->p[i - 1] = X->p[i - v0 - 1];
 2397              		.loc 1 736 0 discriminator 3
 2398 004e 013B     		subs	r3, r3, #1
 2399              	.LVL420:
 2400              	.L169:
 736:C:/Users/lenovo/Desktop/liteos/Project2/BearPi_LiteOS/components/security/mbedtls/mbedtls-2.6.0/library\bignum.c ****             X->p[i - 1] = X->p[i - v0 - 1];
 2401              		.loc 1 736 0 is_stmt 0 discriminator 1
 2402 0050 A342     		cmp	r3, r4
 2403 0052 F2D8     		bhi	.L170
 2404 0054 07E0     		b	.L171
 2405              	.L172:
 740:C:/Users/lenovo/Desktop/liteos/Project2/BearPi_LiteOS/components/security/mbedtls/mbedtls-2.6.0/library\bignum.c ****     }
 2406              		.loc 1 740 0 is_stmt 1 discriminator 2
 2407 0056 A968     		ldr	r1, [r5, #8]
 2408 0058 03F18042 		add	r2, r3, #1073741824
 2409 005c 013A     		subs	r2, r2, #1
 2410 005e 0020     		movs	r0, #0
 2411 0060 41F82200 		str	r0, [r1, r2, lsl #2]
 739:C:/Users/lenovo/Desktop/liteos/Project2/BearPi_LiteOS/components/security/mbedtls/mbedtls-2.6.0/library\bignum.c ****             X->p[i - 1] = 0;
 2412              		.loc 1 739 0 discriminator 2
 2413 0064 013B     		subs	r3, r3, #1
 2414              	.LVL421:
 2415              	.L171:
 739:C:/Users/lenovo/Desktop/liteos/Project2/BearPi_LiteOS/components/security/mbedtls/mbedtls-2.6.0/library\bignum.c ****             X->p[i - 1] = 0;
 2416              		.loc 1 739 0 is_stmt 0 discriminator 1
 2417 0066 002B     		cmp	r3, #0
 2418 0068 F5D1     		bne	.L172
 2419              	.LVL422:
 2420              	.L168:
 746:C:/Users/lenovo/Desktop/liteos/Project2/BearPi_LiteOS/components/security/mbedtls/mbedtls-2.6.0/library\bignum.c ****     {
 2421              		.loc 1 746 0 is_stmt 1
 2422 006a 0EB1     		cbz	r6, .L178
 719:C:/Users/lenovo/Desktop/liteos/Project2/BearPi_LiteOS/components/security/mbedtls/mbedtls-2.6.0/library\bignum.c **** 
 2423              		.loc 1 719 0
 2424 006c 0027     		movs	r7, #0
 2425 006e 13E0     		b	.L173
 2426              	.L178:
 729:C:/Users/lenovo/Desktop/liteos/Project2/BearPi_LiteOS/components/security/mbedtls/mbedtls-2.6.0/library\bignum.c **** 
 2427              		.loc 1 729 0
 2428 0070 0023     		movs	r3, #0
 2429 0072 15E0     		b	.L165
 2430              	.LVL423:
 2431              	.L174:
 750:C:/Users/lenovo/Desktop/liteos/Project2/BearPi_LiteOS/components/security/mbedtls/mbedtls-2.6.0/library\bignum.c ****             X->p[i] <<= t1;
 2432              		.loc 1 750 0 discriminator 3
 2433 0074 A868     		ldr	r0, [r5, #8]
 2434 0076 50F82410 		ldr	r1, [r0, r4, lsl #2]
 2435 007a C6F12003 		rsb	r3, r6, #32
 2436              	.LVL424:
 751:C:/Users/lenovo/Desktop/liteos/Project2/BearPi_LiteOS/components/security/mbedtls/mbedtls-2.6.0/library\bignum.c ****             X->p[i] |= r0;
 2437              		.loc 1 751 0 discriminator 3
 2438 007e 01FA06F2 		lsl	r2, r1, r6
 2439 0082 40F82420 		str	r2, [r0, r4, lsl #2]
 752:C:/Users/lenovo/Desktop/liteos/Project2/BearPi_LiteOS/components/security/mbedtls/mbedtls-2.6.0/library\bignum.c ****             r0 = r1;
 2440              		.loc 1 752 0 discriminator 3
 2441 0086 A868     		ldr	r0, [r5, #8]
ARM GAS  c:\Users\lenovo\AppData\Local\Temp\ccjcyTZ0.s 			page 74


 2442 0088 50F82420 		ldr	r2, [r0, r4, lsl #2]
 2443 008c 3A43     		orrs	r2, r2, r7
 2444 008e 40F82420 		str	r2, [r0, r4, lsl #2]
 2445              	.LVL425:
 748:C:/Users/lenovo/Desktop/liteos/Project2/BearPi_LiteOS/components/security/mbedtls/mbedtls-2.6.0/library\bignum.c ****         {
 2446              		.loc 1 748 0 discriminator 3
 2447 0092 0134     		adds	r4, r4, #1
 2448              	.LVL426:
 753:C:/Users/lenovo/Desktop/liteos/Project2/BearPi_LiteOS/components/security/mbedtls/mbedtls-2.6.0/library\bignum.c ****         }
 2449              		.loc 1 753 0 discriminator 3
 2450 0094 21FA03F7 		lsr	r7, r1, r3
 2451              	.LVL427:
 2452              	.L173:
 748:C:/Users/lenovo/Desktop/liteos/Project2/BearPi_LiteOS/components/security/mbedtls/mbedtls-2.6.0/library\bignum.c ****         {
 2453              		.loc 1 748 0 discriminator 1
 2454 0098 6968     		ldr	r1, [r5, #4]
 2455 009a A142     		cmp	r1, r4
 2456 009c EAD8     		bhi	.L174
 729:C:/Users/lenovo/Desktop/liteos/Project2/BearPi_LiteOS/components/security/mbedtls/mbedtls-2.6.0/library\bignum.c **** 
 2457              		.loc 1 729 0
 2458 009e 0023     		movs	r3, #0
 2459              	.L167:
 2460              	.LVL428:
 2461              	.L165:
 760:C:/Users/lenovo/Desktop/liteos/Project2/BearPi_LiteOS/components/security/mbedtls/mbedtls-2.6.0/library\bignum.c **** 
 2462              		.loc 1 760 0
 2463 00a0 1846     		mov	r0, r3
 2464 00a2 F8BD     		pop	{r3, r4, r5, r6, r7, pc}
 2465              		.cfi_endproc
 2466              	.LFE25:
 2468              		.section	.text.mbedtls_mpi_shift_r,"ax",%progbits
 2469              		.align	1
 2470              		.global	mbedtls_mpi_shift_r
 2471              		.syntax unified
 2472              		.thumb
 2473              		.thumb_func
 2474              		.fpu fpv4-sp-d16
 2476              	mbedtls_mpi_shift_r:
 2477              	.LFB26:
 766:C:/Users/lenovo/Desktop/liteos/Project2/BearPi_LiteOS/components/security/mbedtls/mbedtls-2.6.0/library\bignum.c ****     size_t i, v0, v1;
 2478              		.loc 1 766 0
 2479              		.cfi_startproc
 2480              		@ args = 0, pretend = 0, frame = 0
 2481              		@ frame_needed = 0, uses_anonymous_args = 0
 2482              	.LVL429:
 2483 0000 F8B5     		push	{r3, r4, r5, r6, r7, lr}
 2484              	.LCFI31:
 2485              		.cfi_def_cfa_offset 24
 2486              		.cfi_offset 3, -24
 2487              		.cfi_offset 4, -20
 2488              		.cfi_offset 5, -16
 2489              		.cfi_offset 6, -12
 2490              		.cfi_offset 7, -8
 2491              		.cfi_offset 14, -4
 2492              	.LVL430:
 770:C:/Users/lenovo/Desktop/liteos/Project2/BearPi_LiteOS/components/security/mbedtls/mbedtls-2.6.0/library\bignum.c ****     v1 = count & (biL - 1);
 2493              		.loc 1 770 0
ARM GAS  c:\Users\lenovo\AppData\Local\Temp\ccjcyTZ0.s 			page 75


 2494 0002 4C09     		lsrs	r4, r1, #5
 2495              	.LVL431:
 773:C:/Users/lenovo/Desktop/liteos/Project2/BearPi_LiteOS/components/security/mbedtls/mbedtls-2.6.0/library\bignum.c ****         return mbedtls_mpi_lset( X, 0 );
 2496              		.loc 1 773 0
 2497 0004 4368     		ldr	r3, [r0, #4]
 2498 0006 A342     		cmp	r3, r4
 2499 0008 0BD3     		bcc	.L180
 2500 000a 01F01F01 		and	r1, r1, #31
 2501              	.LVL432:
 773:C:/Users/lenovo/Desktop/liteos/Project2/BearPi_LiteOS/components/security/mbedtls/mbedtls-2.6.0/library\bignum.c ****         return mbedtls_mpi_lset( X, 0 );
 2502              		.loc 1 773 0 is_stmt 0 discriminator 1
 2503 000e 06D0     		beq	.L193
 2504              	.L181:
 779:C:/Users/lenovo/Desktop/liteos/Project2/BearPi_LiteOS/components/security/mbedtls/mbedtls-2.6.0/library\bignum.c ****     {
 2505              		.loc 1 779 0 is_stmt 1
 2506 0010 BCB9     		cbnz	r4, .L190
 2507              	.LVL433:
 2508              	.L184:
 791:C:/Users/lenovo/Desktop/liteos/Project2/BearPi_LiteOS/components/security/mbedtls/mbedtls-2.6.0/library\bignum.c ****     {
 2509              		.loc 1 791 0
 2510 0012 0029     		cmp	r1, #0
 2511 0014 3AD0     		beq	.L191
 793:C:/Users/lenovo/Desktop/liteos/Project2/BearPi_LiteOS/components/security/mbedtls/mbedtls-2.6.0/library\bignum.c ****         {
 2512              		.loc 1 793 0
 2513 0016 4268     		ldr	r2, [r0, #4]
 2514              	.LVL434:
 768:C:/Users/lenovo/Desktop/liteos/Project2/BearPi_LiteOS/components/security/mbedtls/mbedtls-2.6.0/library\bignum.c **** 
 2515              		.loc 1 768 0
 2516 0018 4FF0000C 		mov	ip, #0
 793:C:/Users/lenovo/Desktop/liteos/Project2/BearPi_LiteOS/components/security/mbedtls/mbedtls-2.6.0/library\bignum.c ****         {
 2517              		.loc 1 793 0
 2518 001c 32E0     		b	.L188
 2519              	.LVL435:
 2520              	.L193:
 773:C:/Users/lenovo/Desktop/liteos/Project2/BearPi_LiteOS/components/security/mbedtls/mbedtls-2.6.0/library\bignum.c ****         return mbedtls_mpi_lset( X, 0 );
 2521              		.loc 1 773 0 discriminator 2
 2522 001e 0029     		cmp	r1, #0
 2523 0020 F6D0     		beq	.L181
 2524              	.LVL436:
 2525              	.L180:
 774:C:/Users/lenovo/Desktop/liteos/Project2/BearPi_LiteOS/components/security/mbedtls/mbedtls-2.6.0/library\bignum.c **** 
 2526              		.loc 1 774 0
 2527 0022 0021     		movs	r1, #0
 2528 0024 FFF7FEFF 		bl	mbedtls_mpi_lset
 2529              	.LVL437:
 2530              	.L179:
 803:C:/Users/lenovo/Desktop/liteos/Project2/BearPi_LiteOS/components/security/mbedtls/mbedtls-2.6.0/library\bignum.c **** 
 2531              		.loc 1 803 0
 2532 0028 F8BD     		pop	{r3, r4, r5, r6, r7, pc}
 2533              	.LVL438:
 2534              	.L185:
 782:C:/Users/lenovo/Desktop/liteos/Project2/BearPi_LiteOS/components/security/mbedtls/mbedtls-2.6.0/library\bignum.c **** 
 2535              		.loc 1 782 0 discriminator 3
 2536 002a 8268     		ldr	r2, [r0, #8]
 2537 002c 1D19     		adds	r5, r3, r4
 2538 002e 52F82550 		ldr	r5, [r2, r5, lsl #2]
 2539 0032 42F82350 		str	r5, [r2, r3, lsl #2]
ARM GAS  c:\Users\lenovo\AppData\Local\Temp\ccjcyTZ0.s 			page 76


 781:C:/Users/lenovo/Desktop/liteos/Project2/BearPi_LiteOS/components/security/mbedtls/mbedtls-2.6.0/library\bignum.c ****             X->p[i] = X->p[i + v0];
 2540              		.loc 1 781 0 discriminator 3
 2541 0036 0133     		adds	r3, r3, #1
 2542              	.LVL439:
 2543              	.L183:
 781:C:/Users/lenovo/Desktop/liteos/Project2/BearPi_LiteOS/components/security/mbedtls/mbedtls-2.6.0/library\bignum.c ****             X->p[i] = X->p[i + v0];
 2544              		.loc 1 781 0 is_stmt 0 discriminator 1
 2545 0038 4268     		ldr	r2, [r0, #4]
 2546 003a 121B     		subs	r2, r2, r4
 2547 003c 9A42     		cmp	r2, r3
 2548 003e F4D8     		bhi	.L185
 2549 0040 06E0     		b	.L186
 2550              	.LVL440:
 2551              	.L190:
 781:C:/Users/lenovo/Desktop/liteos/Project2/BearPi_LiteOS/components/security/mbedtls/mbedtls-2.6.0/library\bignum.c ****             X->p[i] = X->p[i + v0];
 2552              		.loc 1 781 0
 2553 0042 0023     		movs	r3, #0
 2554 0044 F8E7     		b	.L183
 2555              	.LVL441:
 2556              	.L187:
 785:C:/Users/lenovo/Desktop/liteos/Project2/BearPi_LiteOS/components/security/mbedtls/mbedtls-2.6.0/library\bignum.c ****     }
 2557              		.loc 1 785 0 is_stmt 1 discriminator 2
 2558 0046 8268     		ldr	r2, [r0, #8]
 2559 0048 0024     		movs	r4, #0
 2560 004a 42F82340 		str	r4, [r2, r3, lsl #2]
 784:C:/Users/lenovo/Desktop/liteos/Project2/BearPi_LiteOS/components/security/mbedtls/mbedtls-2.6.0/library\bignum.c ****             X->p[i] = 0;
 2561              		.loc 1 784 0 discriminator 2
 2562 004e 0133     		adds	r3, r3, #1
 2563              	.LVL442:
 2564              	.L186:
 784:C:/Users/lenovo/Desktop/liteos/Project2/BearPi_LiteOS/components/security/mbedtls/mbedtls-2.6.0/library\bignum.c ****             X->p[i] = 0;
 2565              		.loc 1 784 0 is_stmt 0 discriminator 1
 2566 0050 4268     		ldr	r2, [r0, #4]
 2567 0052 9A42     		cmp	r2, r3
 2568 0054 F7D8     		bhi	.L187
 2569 0056 DCE7     		b	.L184
 2570              	.LVL443:
 2571              	.L189:
 795:C:/Users/lenovo/Desktop/liteos/Project2/BearPi_LiteOS/components/security/mbedtls/mbedtls-2.6.0/library\bignum.c ****             X->p[i - 1] >>= v1;
 2572              		.loc 1 795 0 is_stmt 1 discriminator 3
 2573 0058 8768     		ldr	r7, [r0, #8]
 2574 005a 02F18043 		add	r3, r2, #1073741824
 2575 005e 013B     		subs	r3, r3, #1
 2576 0060 57F82360 		ldr	r6, [r7, r3, lsl #2]
 2577 0064 C1F12004 		rsb	r4, r1, #32
 2578              	.LVL444:
 796:C:/Users/lenovo/Desktop/liteos/Project2/BearPi_LiteOS/components/security/mbedtls/mbedtls-2.6.0/library\bignum.c ****             X->p[i - 1] |= r0;
 2579              		.loc 1 796 0 discriminator 3
 2580 0068 26FA01F5 		lsr	r5, r6, r1
 2581 006c 47F82350 		str	r5, [r7, r3, lsl #2]
 797:C:/Users/lenovo/Desktop/liteos/Project2/BearPi_LiteOS/components/security/mbedtls/mbedtls-2.6.0/library\bignum.c ****             r0 = r1;
 2582              		.loc 1 797 0 discriminator 3
 2583 0070 8768     		ldr	r7, [r0, #8]
 2584 0072 57F82350 		ldr	r5, [r7, r3, lsl #2]
 2585 0076 45EA0C05 		orr	r5, r5, ip
 2586 007a 47F82350 		str	r5, [r7, r3, lsl #2]
 2587              	.LVL445:
ARM GAS  c:\Users\lenovo\AppData\Local\Temp\ccjcyTZ0.s 			page 77


 793:C:/Users/lenovo/Desktop/liteos/Project2/BearPi_LiteOS/components/security/mbedtls/mbedtls-2.6.0/library\bignum.c ****         {
 2588              		.loc 1 793 0 discriminator 3
 2589 007e 013A     		subs	r2, r2, #1
 2590              	.LVL446:
 798:C:/Users/lenovo/Desktop/liteos/Project2/BearPi_LiteOS/components/security/mbedtls/mbedtls-2.6.0/library\bignum.c ****         }
 2591              		.loc 1 798 0 discriminator 3
 2592 0080 06FA04FC 		lsl	ip, r6, r4
 2593              	.L188:
 2594              	.LVL447:
 793:C:/Users/lenovo/Desktop/liteos/Project2/BearPi_LiteOS/components/security/mbedtls/mbedtls-2.6.0/library\bignum.c ****         {
 2595              		.loc 1 793 0 discriminator 1
 2596 0084 002A     		cmp	r2, #0
 2597 0086 E7D1     		bne	.L189
 802:C:/Users/lenovo/Desktop/liteos/Project2/BearPi_LiteOS/components/security/mbedtls/mbedtls-2.6.0/library\bignum.c **** }
 2598              		.loc 1 802 0
 2599 0088 0020     		movs	r0, #0
 2600              	.LVL448:
 2601 008a CDE7     		b	.L179
 2602              	.LVL449:
 2603              	.L191:
 2604 008c 0020     		movs	r0, #0
 2605              	.LVL450:
 2606 008e CBE7     		b	.L179
 2607              		.cfi_endproc
 2608              	.LFE26:
 2610              		.section	.text.mbedtls_mpi_cmp_abs,"ax",%progbits
 2611              		.align	1
 2612              		.global	mbedtls_mpi_cmp_abs
 2613              		.syntax unified
 2614              		.thumb
 2615              		.thumb_func
 2616              		.fpu fpv4-sp-d16
 2618              	mbedtls_mpi_cmp_abs:
 2619              	.LFB27:
 809:C:/Users/lenovo/Desktop/liteos/Project2/BearPi_LiteOS/components/security/mbedtls/mbedtls-2.6.0/library\bignum.c ****     size_t i, j;
 2620              		.loc 1 809 0
 2621              		.cfi_startproc
 2622              		@ args = 0, pretend = 0, frame = 0
 2623              		@ frame_needed = 0, uses_anonymous_args = 0
 2624              		@ link register save eliminated.
 2625              	.LVL451:
 2626 0000 30B4     		push	{r4, r5}
 2627              	.LCFI32:
 2628              		.cfi_def_cfa_offset 8
 2629              		.cfi_offset 4, -8
 2630              		.cfi_offset 5, -4
 812:C:/Users/lenovo/Desktop/liteos/Project2/BearPi_LiteOS/components/security/mbedtls/mbedtls-2.6.0/library\bignum.c ****         if( X->p[i - 1] != 0 )
 2631              		.loc 1 812 0
 2632 0002 4368     		ldr	r3, [r0, #4]
 2633              	.LVL452:
 2634              	.L195:
 812:C:/Users/lenovo/Desktop/liteos/Project2/BearPi_LiteOS/components/security/mbedtls/mbedtls-2.6.0/library\bignum.c ****         if( X->p[i - 1] != 0 )
 2635              		.loc 1 812 0 is_stmt 0 discriminator 1
 2636 0004 43B1     		cbz	r3, .L196
 813:C:/Users/lenovo/Desktop/liteos/Project2/BearPi_LiteOS/components/security/mbedtls/mbedtls-2.6.0/library\bignum.c ****             break;
 2637              		.loc 1 813 0 is_stmt 1
 2638 0006 8468     		ldr	r4, [r0, #8]
ARM GAS  c:\Users\lenovo\AppData\Local\Temp\ccjcyTZ0.s 			page 78


 2639 0008 03F18042 		add	r2, r3, #1073741824
 2640 000c 013A     		subs	r2, r2, #1
 2641 000e 54F82220 		ldr	r2, [r4, r2, lsl #2]
 2642 0012 0AB9     		cbnz	r2, .L196
 812:C:/Users/lenovo/Desktop/liteos/Project2/BearPi_LiteOS/components/security/mbedtls/mbedtls-2.6.0/library\bignum.c ****         if( X->p[i - 1] != 0 )
 2643              		.loc 1 812 0 discriminator 2
 2644 0014 013B     		subs	r3, r3, #1
 2645              	.LVL453:
 2646 0016 F5E7     		b	.L195
 2647              	.L196:
 816:C:/Users/lenovo/Desktop/liteos/Project2/BearPi_LiteOS/components/security/mbedtls/mbedtls-2.6.0/library\bignum.c ****         if( Y->p[j - 1] != 0 )
 2648              		.loc 1 816 0
 2649 0018 4A68     		ldr	r2, [r1, #4]
 2650              	.LVL454:
 2651              	.L198:
 816:C:/Users/lenovo/Desktop/liteos/Project2/BearPi_LiteOS/components/security/mbedtls/mbedtls-2.6.0/library\bignum.c ****         if( Y->p[j - 1] != 0 )
 2652              		.loc 1 816 0 is_stmt 0 discriminator 1
 2653 001a 42B1     		cbz	r2, .L199
 817:C:/Users/lenovo/Desktop/liteos/Project2/BearPi_LiteOS/components/security/mbedtls/mbedtls-2.6.0/library\bignum.c ****             break;
 2654              		.loc 1 817 0 is_stmt 1
 2655 001c 8D68     		ldr	r5, [r1, #8]
 2656 001e 02F18044 		add	r4, r2, #1073741824
 2657 0022 013C     		subs	r4, r4, #1
 2658 0024 55F82440 		ldr	r4, [r5, r4, lsl #2]
 2659 0028 0CB9     		cbnz	r4, .L199
 816:C:/Users/lenovo/Desktop/liteos/Project2/BearPi_LiteOS/components/security/mbedtls/mbedtls-2.6.0/library\bignum.c ****         if( Y->p[j - 1] != 0 )
 2660              		.loc 1 816 0 discriminator 2
 2661 002a 013A     		subs	r2, r2, #1
 2662              	.LVL455:
 2663 002c F5E7     		b	.L198
 2664              	.L199:
 820:C:/Users/lenovo/Desktop/liteos/Project2/BearPi_LiteOS/components/security/mbedtls/mbedtls-2.6.0/library\bignum.c ****         return( 0 );
 2665              		.loc 1 820 0
 2666 002e 03B9     		cbnz	r3, .L201
 820:C:/Users/lenovo/Desktop/liteos/Project2/BearPi_LiteOS/components/security/mbedtls/mbedtls-2.6.0/library\bignum.c ****         return( 0 );
 2667              		.loc 1 820 0 is_stmt 0 discriminator 1
 2668 0030 9AB1     		cbz	r2, .L205
 2669              	.L201:
 823:C:/Users/lenovo/Desktop/liteos/Project2/BearPi_LiteOS/components/security/mbedtls/mbedtls-2.6.0/library\bignum.c ****     if( j > i ) return( -1 );
 2670              		.loc 1 823 0 is_stmt 1
 2671 0032 9342     		cmp	r3, r2
 2672 0034 13D8     		bhi	.L206
 824:C:/Users/lenovo/Desktop/liteos/Project2/BearPi_LiteOS/components/security/mbedtls/mbedtls-2.6.0/library\bignum.c **** 
 2673              		.loc 1 824 0
 2674 0036 15D3     		bcc	.L211
 2675              	.LVL456:
 2676              	.L203:
 826:C:/Users/lenovo/Desktop/liteos/Project2/BearPi_LiteOS/components/security/mbedtls/mbedtls-2.6.0/library\bignum.c ****     {
 2677              		.loc 1 826 0 discriminator 1
 2678 0038 6BB1     		cbz	r3, .L212
 828:C:/Users/lenovo/Desktop/liteos/Project2/BearPi_LiteOS/components/security/mbedtls/mbedtls-2.6.0/library\bignum.c ****         if( X->p[i - 1] < Y->p[i - 1] ) return( -1 );
 2679              		.loc 1 828 0
 2680 003a 8468     		ldr	r4, [r0, #8]
 2681 003c 03F18042 		add	r2, r3, #1073741824
 2682 0040 013A     		subs	r2, r2, #1
 2683 0042 54F82240 		ldr	r4, [r4, r2, lsl #2]
 2684 0046 8D68     		ldr	r5, [r1, #8]
ARM GAS  c:\Users\lenovo\AppData\Local\Temp\ccjcyTZ0.s 			page 79


 2685 0048 55F82220 		ldr	r2, [r5, r2, lsl #2]
 2686 004c 9442     		cmp	r4, r2
 2687 004e 0CD8     		bhi	.L208
 829:C:/Users/lenovo/Desktop/liteos/Project2/BearPi_LiteOS/components/security/mbedtls/mbedtls-2.6.0/library\bignum.c ****     }
 2688              		.loc 1 829 0
 2689 0050 0DD3     		bcc	.L209
 826:C:/Users/lenovo/Desktop/liteos/Project2/BearPi_LiteOS/components/security/mbedtls/mbedtls-2.6.0/library\bignum.c ****     {
 2690              		.loc 1 826 0
 2691 0052 013B     		subs	r3, r3, #1
 2692              	.LVL457:
 2693 0054 F0E7     		b	.L203
 2694              	.L212:
 832:C:/Users/lenovo/Desktop/liteos/Project2/BearPi_LiteOS/components/security/mbedtls/mbedtls-2.6.0/library\bignum.c **** }
 2695              		.loc 1 832 0
 2696 0056 0020     		movs	r0, #0
 2697              	.LVL458:
 2698 0058 02E0     		b	.L194
 2699              	.LVL459:
 2700              	.L205:
 821:C:/Users/lenovo/Desktop/liteos/Project2/BearPi_LiteOS/components/security/mbedtls/mbedtls-2.6.0/library\bignum.c **** 
 2701              		.loc 1 821 0
 2702 005a 0020     		movs	r0, #0
 2703              	.LVL460:
 2704 005c 00E0     		b	.L194
 2705              	.LVL461:
 2706              	.L206:
 823:C:/Users/lenovo/Desktop/liteos/Project2/BearPi_LiteOS/components/security/mbedtls/mbedtls-2.6.0/library\bignum.c ****     if( j > i ) return( -1 );
 2707              		.loc 1 823 0
 2708 005e 0120     		movs	r0, #1
 2709              	.LVL462:
 2710              	.L194:
 833:C:/Users/lenovo/Desktop/liteos/Project2/BearPi_LiteOS/components/security/mbedtls/mbedtls-2.6.0/library\bignum.c **** 
 2711              		.loc 1 833 0
 2712 0060 30BC     		pop	{r4, r5}
 2713              	.LCFI33:
 2714              		.cfi_remember_state
 2715              		.cfi_restore 5
 2716              		.cfi_restore 4
 2717              		.cfi_def_cfa_offset 0
 2718 0062 7047     		bx	lr
 2719              	.LVL463:
 2720              	.L211:
 2721              	.LCFI34:
 2722              		.cfi_restore_state
 824:C:/Users/lenovo/Desktop/liteos/Project2/BearPi_LiteOS/components/security/mbedtls/mbedtls-2.6.0/library\bignum.c **** 
 2723              		.loc 1 824 0
 2724 0064 4FF0FF30 		mov	r0, #-1
 2725              	.LVL464:
 2726 0068 FAE7     		b	.L194
 2727              	.LVL465:
 2728              	.L208:
 828:C:/Users/lenovo/Desktop/liteos/Project2/BearPi_LiteOS/components/security/mbedtls/mbedtls-2.6.0/library\bignum.c ****         if( X->p[i - 1] < Y->p[i - 1] ) return( -1 );
 2729              		.loc 1 828 0
 2730 006a 0120     		movs	r0, #1
 2731              	.LVL466:
 2732 006c F8E7     		b	.L194
 2733              	.LVL467:
ARM GAS  c:\Users\lenovo\AppData\Local\Temp\ccjcyTZ0.s 			page 80


 2734              	.L209:
 829:C:/Users/lenovo/Desktop/liteos/Project2/BearPi_LiteOS/components/security/mbedtls/mbedtls-2.6.0/library\bignum.c ****     }
 2735              		.loc 1 829 0
 2736 006e 4FF0FF30 		mov	r0, #-1
 2737              	.LVL468:
 2738 0072 F5E7     		b	.L194
 2739              		.cfi_endproc
 2740              	.LFE27:
 2742              		.section	.text.mpi_montmul,"ax",%progbits
 2743              		.align	1
 2744              		.syntax unified
 2745              		.thumb
 2746              		.thumb_func
 2747              		.fpu fpv4-sp-d16
 2749              	mpi_montmul:
 2750              	.LFB46:
1546:C:/Users/lenovo/Desktop/liteos/Project2/BearPi_LiteOS/components/security/mbedtls/mbedtls-2.6.0/library\bignum.c **** 
1547:C:/Users/lenovo/Desktop/liteos/Project2/BearPi_LiteOS/components/security/mbedtls/mbedtls-2.6.0/library\bignum.c **** /*
1548:C:/Users/lenovo/Desktop/liteos/Project2/BearPi_LiteOS/components/security/mbedtls/mbedtls-2.6.0/library\bignum.c ****  * Montgomery multiplication: A = A * B * R^-1 mod N  (HAC 14.36)
1549:C:/Users/lenovo/Desktop/liteos/Project2/BearPi_LiteOS/components/security/mbedtls/mbedtls-2.6.0/library\bignum.c ****  */
1550:C:/Users/lenovo/Desktop/liteos/Project2/BearPi_LiteOS/components/security/mbedtls/mbedtls-2.6.0/library\bignum.c **** static int mpi_montmul( mbedtls_mpi *A, const mbedtls_mpi *B, const mbedtls_mpi *N, mbedtls_mpi_uin
1551:C:/Users/lenovo/Desktop/liteos/Project2/BearPi_LiteOS/components/security/mbedtls/mbedtls-2.6.0/library\bignum.c ****                          const mbedtls_mpi *T )
1552:C:/Users/lenovo/Desktop/liteos/Project2/BearPi_LiteOS/components/security/mbedtls/mbedtls-2.6.0/library\bignum.c **** {
 2751              		.loc 1 1552 0
 2752              		.cfi_startproc
 2753              		@ args = 4, pretend = 0, frame = 8
 2754              		@ frame_needed = 0, uses_anonymous_args = 0
 2755              	.LVL469:
 2756 0000 2DE9F04F 		push	{r4, r5, r6, r7, r8, r9, r10, fp, lr}
 2757              	.LCFI35:
 2758              		.cfi_def_cfa_offset 36
 2759              		.cfi_offset 4, -36
 2760              		.cfi_offset 5, -32
 2761              		.cfi_offset 6, -28
 2762              		.cfi_offset 7, -24
 2763              		.cfi_offset 8, -20
 2764              		.cfi_offset 9, -16
 2765              		.cfi_offset 10, -12
 2766              		.cfi_offset 11, -8
 2767              		.cfi_offset 14, -4
 2768 0004 83B0     		sub	sp, sp, #12
 2769              	.LCFI36:
 2770              		.cfi_def_cfa_offset 48
1553:C:/Users/lenovo/Desktop/liteos/Project2/BearPi_LiteOS/components/security/mbedtls/mbedtls-2.6.0/library\bignum.c ****     size_t i, n, m;
1554:C:/Users/lenovo/Desktop/liteos/Project2/BearPi_LiteOS/components/security/mbedtls/mbedtls-2.6.0/library\bignum.c ****     mbedtls_mpi_uint u0, u1, *d;
1555:C:/Users/lenovo/Desktop/liteos/Project2/BearPi_LiteOS/components/security/mbedtls/mbedtls-2.6.0/library\bignum.c **** 
1556:C:/Users/lenovo/Desktop/liteos/Project2/BearPi_LiteOS/components/security/mbedtls/mbedtls-2.6.0/library\bignum.c ****     if( T->n < N->n + 1 || T->p == NULL )
 2771              		.loc 1 1556 0
 2772 0006 0C9C     		ldr	r4, [sp, #48]
 2773 0008 6568     		ldr	r5, [r4, #4]
 2774 000a 5468     		ldr	r4, [r2, #4]
 2775 000c 0134     		adds	r4, r4, #1
 2776 000e A542     		cmp	r5, r4
 2777 0010 5ED3     		bcc	.L218
 2778              		.loc 1 1556 0 is_stmt 0 discriminator 1
 2779 0012 0C9C     		ldr	r4, [sp, #48]
 2780 0014 A468     		ldr	r4, [r4, #8]
ARM GAS  c:\Users\lenovo\AppData\Local\Temp\ccjcyTZ0.s 			page 81


 2781 0016 002C     		cmp	r4, #0
 2782 0018 5DD0     		beq	.L219
 2783 001a 0193     		str	r3, [sp, #4]
 2784 001c 9146     		mov	r9, r2
 2785 001e 8B46     		mov	fp, r1
 2786 0020 8246     		mov	r10, r0
1557:C:/Users/lenovo/Desktop/liteos/Project2/BearPi_LiteOS/components/security/mbedtls/mbedtls-2.6.0/library\bignum.c ****         return( MBEDTLS_ERR_MPI_BAD_INPUT_DATA );
1558:C:/Users/lenovo/Desktop/liteos/Project2/BearPi_LiteOS/components/security/mbedtls/mbedtls-2.6.0/library\bignum.c **** 
1559:C:/Users/lenovo/Desktop/liteos/Project2/BearPi_LiteOS/components/security/mbedtls/mbedtls-2.6.0/library\bignum.c ****     memset( T->p, 0, T->n * ciL );
 2787              		.loc 1 1559 0 is_stmt 1
 2788 0022 AA00     		lsls	r2, r5, #2
 2789              	.LVL470:
 2790 0024 0021     		movs	r1, #0
 2791              	.LVL471:
 2792 0026 2046     		mov	r0, r4
 2793              	.LVL472:
 2794 0028 FFF7FEFF 		bl	memset
 2795              	.LVL473:
1560:C:/Users/lenovo/Desktop/liteos/Project2/BearPi_LiteOS/components/security/mbedtls/mbedtls-2.6.0/library\bignum.c **** 
1561:C:/Users/lenovo/Desktop/liteos/Project2/BearPi_LiteOS/components/security/mbedtls/mbedtls-2.6.0/library\bignum.c ****     d = T->p;
 2796              		.loc 1 1561 0
 2797 002c 0C9B     		ldr	r3, [sp, #48]
 2798 002e 9D68     		ldr	r5, [r3, #8]
 2799              	.LVL474:
1562:C:/Users/lenovo/Desktop/liteos/Project2/BearPi_LiteOS/components/security/mbedtls/mbedtls-2.6.0/library\bignum.c ****     n = N->n;
 2800              		.loc 1 1562 0
 2801 0030 D9F80480 		ldr	r8, [r9, #4]
 2802              	.LVL475:
1563:C:/Users/lenovo/Desktop/liteos/Project2/BearPi_LiteOS/components/security/mbedtls/mbedtls-2.6.0/library\bignum.c ****     m = ( B->n < n ) ? B->n : n;
 2803              		.loc 1 1563 0
 2804 0034 DBF80430 		ldr	r3, [fp, #4]
 2805 0038 4345     		cmp	r3, r8
 2806 003a 28BF     		it	cs
 2807 003c 4346     		movcs	r3, r8
 2808 003e 0093     		str	r3, [sp]
 2809              	.LVL476:
1564:C:/Users/lenovo/Desktop/liteos/Project2/BearPi_LiteOS/components/security/mbedtls/mbedtls-2.6.0/library\bignum.c **** 
1565:C:/Users/lenovo/Desktop/liteos/Project2/BearPi_LiteOS/components/security/mbedtls/mbedtls-2.6.0/library\bignum.c ****     for( i = 0; i < n; i++ )
 2810              		.loc 1 1565 0
 2811 0040 0026     		movs	r6, #0
 2812 0042 21E0     		b	.L215
 2813              	.LVL477:
 2814              	.L216:
1566:C:/Users/lenovo/Desktop/liteos/Project2/BearPi_LiteOS/components/security/mbedtls/mbedtls-2.6.0/library\bignum.c ****     {
1567:C:/Users/lenovo/Desktop/liteos/Project2/BearPi_LiteOS/components/security/mbedtls/mbedtls-2.6.0/library\bignum.c ****         /*
1568:C:/Users/lenovo/Desktop/liteos/Project2/BearPi_LiteOS/components/security/mbedtls/mbedtls-2.6.0/library\bignum.c ****          * T = (T + u0*B + u1*N) / 2^biL
1569:C:/Users/lenovo/Desktop/liteos/Project2/BearPi_LiteOS/components/security/mbedtls/mbedtls-2.6.0/library\bignum.c ****          */
1570:C:/Users/lenovo/Desktop/liteos/Project2/BearPi_LiteOS/components/security/mbedtls/mbedtls-2.6.0/library\bignum.c ****         u0 = A->p[i];
 2815              		.loc 1 1570 0 discriminator 3
 2816 0044 DAF80830 		ldr	r3, [r10, #8]
 2817 0048 53F82670 		ldr	r7, [r3, r6, lsl #2]
 2818              	.LVL478:
1571:C:/Users/lenovo/Desktop/liteos/Project2/BearPi_LiteOS/components/security/mbedtls/mbedtls-2.6.0/library\bignum.c ****         u1 = ( d[0] + u0 * B->p[0] ) * mm;
 2819              		.loc 1 1571 0 discriminator 3
 2820 004c 2B68     		ldr	r3, [r5]
 2821 004e DBF80810 		ldr	r1, [fp, #8]
 2822 0052 0C68     		ldr	r4, [r1]
ARM GAS  c:\Users\lenovo\AppData\Local\Temp\ccjcyTZ0.s 			page 82


 2823 0054 07FB0434 		mla	r4, r7, r4, r3
 2824 0058 019B     		ldr	r3, [sp, #4]
 2825 005a 03FB04F4 		mul	r4, r3, r4
 2826              	.LVL479:
1572:C:/Users/lenovo/Desktop/liteos/Project2/BearPi_LiteOS/components/security/mbedtls/mbedtls-2.6.0/library\bignum.c **** 
1573:C:/Users/lenovo/Desktop/liteos/Project2/BearPi_LiteOS/components/security/mbedtls/mbedtls-2.6.0/library\bignum.c ****         mpi_mul_hlp( m, B->p, d, u0 );
 2827              		.loc 1 1573 0 discriminator 3
 2828 005e 3B46     		mov	r3, r7
 2829 0060 2A46     		mov	r2, r5
 2830 0062 0098     		ldr	r0, [sp]
 2831 0064 FFF7FEFF 		bl	mpi_mul_hlp
 2832              	.LVL480:
1574:C:/Users/lenovo/Desktop/liteos/Project2/BearPi_LiteOS/components/security/mbedtls/mbedtls-2.6.0/library\bignum.c ****         mpi_mul_hlp( n, N->p, d, u1 );
 2833              		.loc 1 1574 0 discriminator 3
 2834 0068 2346     		mov	r3, r4
 2835 006a 2A46     		mov	r2, r5
 2836 006c D9F80810 		ldr	r1, [r9, #8]
 2837 0070 4046     		mov	r0, r8
 2838 0072 FFF7FEFF 		bl	mpi_mul_hlp
 2839              	.LVL481:
1575:C:/Users/lenovo/Desktop/liteos/Project2/BearPi_LiteOS/components/security/mbedtls/mbedtls-2.6.0/library\bignum.c **** 
1576:C:/Users/lenovo/Desktop/liteos/Project2/BearPi_LiteOS/components/security/mbedtls/mbedtls-2.6.0/library\bignum.c ****         *d++ = u0; d[n + 1] = 0;
 2840              		.loc 1 1576 0 discriminator 3
 2841 0076 2A1D     		adds	r2, r5, #4
 2842              	.LVL482:
 2843 0078 2F60     		str	r7, [r5]
 2844 007a 08F10103 		add	r3, r8, #1
 2845 007e 0021     		movs	r1, #0
 2846 0080 42F82310 		str	r1, [r2, r3, lsl #2]
1565:C:/Users/lenovo/Desktop/liteos/Project2/BearPi_LiteOS/components/security/mbedtls/mbedtls-2.6.0/library\bignum.c ****     {
 2847              		.loc 1 1565 0 discriminator 3
 2848 0084 0136     		adds	r6, r6, #1
 2849              	.LVL483:
 2850              		.loc 1 1576 0 discriminator 3
 2851 0086 1546     		mov	r5, r2
 2852              	.LVL484:
 2853              	.L215:
1565:C:/Users/lenovo/Desktop/liteos/Project2/BearPi_LiteOS/components/security/mbedtls/mbedtls-2.6.0/library\bignum.c ****     {
 2854              		.loc 1 1565 0 discriminator 1
 2855 0088 4645     		cmp	r6, r8
 2856 008a DBD3     		bcc	.L216
1577:C:/Users/lenovo/Desktop/liteos/Project2/BearPi_LiteOS/components/security/mbedtls/mbedtls-2.6.0/library\bignum.c ****     }
1578:C:/Users/lenovo/Desktop/liteos/Project2/BearPi_LiteOS/components/security/mbedtls/mbedtls-2.6.0/library\bignum.c **** 
1579:C:/Users/lenovo/Desktop/liteos/Project2/BearPi_LiteOS/components/security/mbedtls/mbedtls-2.6.0/library\bignum.c ****     memcpy( A->p, d, ( n + 1 ) * ciL );
 2857              		.loc 1 1579 0
 2858 008c 08F10102 		add	r2, r8, #1
 2859 0090 9200     		lsls	r2, r2, #2
 2860 0092 2946     		mov	r1, r5
 2861 0094 DAF80800 		ldr	r0, [r10, #8]
 2862 0098 FFF7FEFF 		bl	memcpy
 2863              	.LVL485:
1580:C:/Users/lenovo/Desktop/liteos/Project2/BearPi_LiteOS/components/security/mbedtls/mbedtls-2.6.0/library\bignum.c **** 
1581:C:/Users/lenovo/Desktop/liteos/Project2/BearPi_LiteOS/components/security/mbedtls/mbedtls-2.6.0/library\bignum.c ****     if( mbedtls_mpi_cmp_abs( A, N ) >= 0 )
 2864              		.loc 1 1581 0
 2865 009c 4946     		mov	r1, r9
 2866 009e 5046     		mov	r0, r10
 2867 00a0 FFF7FEFF 		bl	mbedtls_mpi_cmp_abs
ARM GAS  c:\Users\lenovo\AppData\Local\Temp\ccjcyTZ0.s 			page 83


 2868              	.LVL486:
 2869 00a4 0028     		cmp	r0, #0
 2870 00a6 0ADB     		blt	.L217
1582:C:/Users/lenovo/Desktop/liteos/Project2/BearPi_LiteOS/components/security/mbedtls/mbedtls-2.6.0/library\bignum.c ****         mpi_sub_hlp( n, N->p, A->p );
 2871              		.loc 1 1582 0
 2872 00a8 DAF80820 		ldr	r2, [r10, #8]
 2873 00ac D9F80810 		ldr	r1, [r9, #8]
 2874 00b0 4046     		mov	r0, r8
 2875 00b2 FFF7FEFF 		bl	mpi_sub_hlp
 2876              	.LVL487:
1583:C:/Users/lenovo/Desktop/liteos/Project2/BearPi_LiteOS/components/security/mbedtls/mbedtls-2.6.0/library\bignum.c ****     else
1584:C:/Users/lenovo/Desktop/liteos/Project2/BearPi_LiteOS/components/security/mbedtls/mbedtls-2.6.0/library\bignum.c ****         /* prevent timing attacks */
1585:C:/Users/lenovo/Desktop/liteos/Project2/BearPi_LiteOS/components/security/mbedtls/mbedtls-2.6.0/library\bignum.c ****         mpi_sub_hlp( n, A->p, T->p );
1586:C:/Users/lenovo/Desktop/liteos/Project2/BearPi_LiteOS/components/security/mbedtls/mbedtls-2.6.0/library\bignum.c **** 
1587:C:/Users/lenovo/Desktop/liteos/Project2/BearPi_LiteOS/components/security/mbedtls/mbedtls-2.6.0/library\bignum.c ****     return( 0 );
 2877              		.loc 1 1587 0
 2878 00b6 0020     		movs	r0, #0
 2879              	.LVL488:
 2880              	.L213:
1588:C:/Users/lenovo/Desktop/liteos/Project2/BearPi_LiteOS/components/security/mbedtls/mbedtls-2.6.0/library\bignum.c **** }
 2881              		.loc 1 1588 0
 2882 00b8 03B0     		add	sp, sp, #12
 2883              	.LCFI37:
 2884              		.cfi_remember_state
 2885              		.cfi_def_cfa_offset 36
 2886              		@ sp needed
 2887 00ba BDE8F08F 		pop	{r4, r5, r6, r7, r8, r9, r10, fp, pc}
 2888              	.LVL489:
 2889              	.L217:
 2890              	.LCFI38:
 2891              		.cfi_restore_state
1585:C:/Users/lenovo/Desktop/liteos/Project2/BearPi_LiteOS/components/security/mbedtls/mbedtls-2.6.0/library\bignum.c **** 
 2892              		.loc 1 1585 0
 2893 00be 0C9B     		ldr	r3, [sp, #48]
 2894 00c0 9A68     		ldr	r2, [r3, #8]
 2895 00c2 DAF80810 		ldr	r1, [r10, #8]
 2896 00c6 4046     		mov	r0, r8
 2897 00c8 FFF7FEFF 		bl	mpi_sub_hlp
 2898              	.LVL490:
1587:C:/Users/lenovo/Desktop/liteos/Project2/BearPi_LiteOS/components/security/mbedtls/mbedtls-2.6.0/library\bignum.c **** }
 2899              		.loc 1 1587 0
 2900 00cc 0020     		movs	r0, #0
 2901 00ce F3E7     		b	.L213
 2902              	.LVL491:
 2903              	.L218:
1557:C:/Users/lenovo/Desktop/liteos/Project2/BearPi_LiteOS/components/security/mbedtls/mbedtls-2.6.0/library\bignum.c **** 
 2904              		.loc 1 1557 0
 2905 00d0 6FF00300 		mvn	r0, #3
 2906              	.LVL492:
 2907 00d4 F0E7     		b	.L213
 2908              	.LVL493:
 2909              	.L219:
 2910 00d6 6FF00300 		mvn	r0, #3
 2911              	.LVL494:
 2912 00da EDE7     		b	.L213
 2913              		.cfi_endproc
 2914              	.LFE46:
ARM GAS  c:\Users\lenovo\AppData\Local\Temp\ccjcyTZ0.s 			page 84


 2916              		.section	.text.mpi_montred,"ax",%progbits
 2917              		.align	1
 2918              		.syntax unified
 2919              		.thumb
 2920              		.thumb_func
 2921              		.fpu fpv4-sp-d16
 2923              	mpi_montred:
 2924              	.LFB47:
1589:C:/Users/lenovo/Desktop/liteos/Project2/BearPi_LiteOS/components/security/mbedtls/mbedtls-2.6.0/library\bignum.c **** 
1590:C:/Users/lenovo/Desktop/liteos/Project2/BearPi_LiteOS/components/security/mbedtls/mbedtls-2.6.0/library\bignum.c **** /*
1591:C:/Users/lenovo/Desktop/liteos/Project2/BearPi_LiteOS/components/security/mbedtls/mbedtls-2.6.0/library\bignum.c ****  * Montgomery reduction: A = A * R^-1 mod N
1592:C:/Users/lenovo/Desktop/liteos/Project2/BearPi_LiteOS/components/security/mbedtls/mbedtls-2.6.0/library\bignum.c ****  */
1593:C:/Users/lenovo/Desktop/liteos/Project2/BearPi_LiteOS/components/security/mbedtls/mbedtls-2.6.0/library\bignum.c **** static int mpi_montred( mbedtls_mpi *A, const mbedtls_mpi *N, mbedtls_mpi_uint mm, const mbedtls_mp
1594:C:/Users/lenovo/Desktop/liteos/Project2/BearPi_LiteOS/components/security/mbedtls/mbedtls-2.6.0/library\bignum.c **** {
 2925              		.loc 1 1594 0
 2926              		.cfi_startproc
 2927              		@ args = 0, pretend = 0, frame = 16
 2928              		@ frame_needed = 0, uses_anonymous_args = 0
 2929              	.LVL495:
 2930 0000 10B5     		push	{r4, lr}
 2931              	.LCFI39:
 2932              		.cfi_def_cfa_offset 8
 2933              		.cfi_offset 4, -8
 2934              		.cfi_offset 14, -4
 2935 0002 86B0     		sub	sp, sp, #24
 2936              	.LCFI40:
 2937              		.cfi_def_cfa_offset 32
1595:C:/Users/lenovo/Desktop/liteos/Project2/BearPi_LiteOS/components/security/mbedtls/mbedtls-2.6.0/library\bignum.c ****     mbedtls_mpi_uint z = 1;
 2938              		.loc 1 1595 0
 2939 0004 0124     		movs	r4, #1
 2940 0006 0594     		str	r4, [sp, #20]
1596:C:/Users/lenovo/Desktop/liteos/Project2/BearPi_LiteOS/components/security/mbedtls/mbedtls-2.6.0/library\bignum.c ****     mbedtls_mpi U;
1597:C:/Users/lenovo/Desktop/liteos/Project2/BearPi_LiteOS/components/security/mbedtls/mbedtls-2.6.0/library\bignum.c **** 
1598:C:/Users/lenovo/Desktop/liteos/Project2/BearPi_LiteOS/components/security/mbedtls/mbedtls-2.6.0/library\bignum.c ****     U.n = U.s = (int) z;
 2941              		.loc 1 1598 0
 2942 0008 0294     		str	r4, [sp, #8]
 2943 000a 0394     		str	r4, [sp, #12]
1599:C:/Users/lenovo/Desktop/liteos/Project2/BearPi_LiteOS/components/security/mbedtls/mbedtls-2.6.0/library\bignum.c ****     U.p = &z;
 2944              		.loc 1 1599 0
 2945 000c 05AC     		add	r4, sp, #20
 2946 000e 0494     		str	r4, [sp, #16]
1600:C:/Users/lenovo/Desktop/liteos/Project2/BearPi_LiteOS/components/security/mbedtls/mbedtls-2.6.0/library\bignum.c **** 
1601:C:/Users/lenovo/Desktop/liteos/Project2/BearPi_LiteOS/components/security/mbedtls/mbedtls-2.6.0/library\bignum.c ****     return( mpi_montmul( A, &U, N, mm, T ) );
 2947              		.loc 1 1601 0
 2948 0010 0093     		str	r3, [sp]
 2949 0012 1346     		mov	r3, r2
 2950              	.LVL496:
 2951 0014 0A46     		mov	r2, r1
 2952              	.LVL497:
 2953 0016 02A9     		add	r1, sp, #8
 2954              	.LVL498:
 2955 0018 FFF7FEFF 		bl	mpi_montmul
 2956              	.LVL499:
1602:C:/Users/lenovo/Desktop/liteos/Project2/BearPi_LiteOS/components/security/mbedtls/mbedtls-2.6.0/library\bignum.c **** }
 2957              		.loc 1 1602 0
 2958 001c 06B0     		add	sp, sp, #24
 2959              	.LCFI41:
ARM GAS  c:\Users\lenovo\AppData\Local\Temp\ccjcyTZ0.s 			page 85


 2960              		.cfi_def_cfa_offset 8
 2961              		@ sp needed
 2962 001e 10BD     		pop	{r4, pc}
 2963              		.cfi_endproc
 2964              	.LFE47:
 2966              		.section	.text.mbedtls_mpi_cmp_mpi,"ax",%progbits
 2967              		.align	1
 2968              		.global	mbedtls_mpi_cmp_mpi
 2969              		.syntax unified
 2970              		.thumb
 2971              		.thumb_func
 2972              		.fpu fpv4-sp-d16
 2974              	mbedtls_mpi_cmp_mpi:
 2975              	.LFB28:
 839:C:/Users/lenovo/Desktop/liteos/Project2/BearPi_LiteOS/components/security/mbedtls/mbedtls-2.6.0/library\bignum.c ****     size_t i, j;
 2976              		.loc 1 839 0
 2977              		.cfi_startproc
 2978              		@ args = 0, pretend = 0, frame = 0
 2979              		@ frame_needed = 0, uses_anonymous_args = 0
 2980              		@ link register save eliminated.
 2981              	.LVL500:
 2982 0000 70B4     		push	{r4, r5, r6}
 2983              	.LCFI42:
 2984              		.cfi_def_cfa_offset 12
 2985              		.cfi_offset 4, -12
 2986              		.cfi_offset 5, -8
 2987              		.cfi_offset 6, -4
 842:C:/Users/lenovo/Desktop/liteos/Project2/BearPi_LiteOS/components/security/mbedtls/mbedtls-2.6.0/library\bignum.c ****         if( X->p[i - 1] != 0 )
 2988              		.loc 1 842 0
 2989 0002 4368     		ldr	r3, [r0, #4]
 2990              	.LVL501:
 2991              	.L224:
 842:C:/Users/lenovo/Desktop/liteos/Project2/BearPi_LiteOS/components/security/mbedtls/mbedtls-2.6.0/library\bignum.c ****         if( X->p[i - 1] != 0 )
 2992              		.loc 1 842 0 is_stmt 0 discriminator 1
 2993 0004 43B1     		cbz	r3, .L225
 843:C:/Users/lenovo/Desktop/liteos/Project2/BearPi_LiteOS/components/security/mbedtls/mbedtls-2.6.0/library\bignum.c ****             break;
 2994              		.loc 1 843 0 is_stmt 1
 2995 0006 8468     		ldr	r4, [r0, #8]
 2996 0008 03F18042 		add	r2, r3, #1073741824
 2997 000c 013A     		subs	r2, r2, #1
 2998 000e 54F82220 		ldr	r2, [r4, r2, lsl #2]
 2999 0012 0AB9     		cbnz	r2, .L225
 842:C:/Users/lenovo/Desktop/liteos/Project2/BearPi_LiteOS/components/security/mbedtls/mbedtls-2.6.0/library\bignum.c ****         if( X->p[i - 1] != 0 )
 3000              		.loc 1 842 0 discriminator 2
 3001 0014 013B     		subs	r3, r3, #1
 3002              	.LVL502:
 3003 0016 F5E7     		b	.L224
 3004              	.L225:
 846:C:/Users/lenovo/Desktop/liteos/Project2/BearPi_LiteOS/components/security/mbedtls/mbedtls-2.6.0/library\bignum.c ****         if( Y->p[j - 1] != 0 )
 3005              		.loc 1 846 0
 3006 0018 4A68     		ldr	r2, [r1, #4]
 3007              	.LVL503:
 3008              	.L227:
 846:C:/Users/lenovo/Desktop/liteos/Project2/BearPi_LiteOS/components/security/mbedtls/mbedtls-2.6.0/library\bignum.c ****         if( Y->p[j - 1] != 0 )
 3009              		.loc 1 846 0 is_stmt 0 discriminator 1
 3010 001a 42B1     		cbz	r2, .L228
 847:C:/Users/lenovo/Desktop/liteos/Project2/BearPi_LiteOS/components/security/mbedtls/mbedtls-2.6.0/library\bignum.c ****             break;
ARM GAS  c:\Users\lenovo\AppData\Local\Temp\ccjcyTZ0.s 			page 86


 3011              		.loc 1 847 0 is_stmt 1
 3012 001c 8D68     		ldr	r5, [r1, #8]
 3013 001e 02F18044 		add	r4, r2, #1073741824
 3014 0022 013C     		subs	r4, r4, #1
 3015 0024 55F82440 		ldr	r4, [r5, r4, lsl #2]
 3016 0028 0CB9     		cbnz	r4, .L228
 846:C:/Users/lenovo/Desktop/liteos/Project2/BearPi_LiteOS/components/security/mbedtls/mbedtls-2.6.0/library\bignum.c ****         if( Y->p[j - 1] != 0 )
 3017              		.loc 1 846 0 discriminator 2
 3018 002a 013A     		subs	r2, r2, #1
 3019              	.LVL504:
 3020 002c F5E7     		b	.L227
 3021              	.L228:
 850:C:/Users/lenovo/Desktop/liteos/Project2/BearPi_LiteOS/components/security/mbedtls/mbedtls-2.6.0/library\bignum.c ****         return( 0 );
 3022              		.loc 1 850 0
 3023 002e 03B9     		cbnz	r3, .L230
 850:C:/Users/lenovo/Desktop/liteos/Project2/BearPi_LiteOS/components/security/mbedtls/mbedtls-2.6.0/library\bignum.c ****         return( 0 );
 3024              		.loc 1 850 0 is_stmt 0 discriminator 1
 3025 0030 52B3     		cbz	r2, .L240
 3026              	.L230:
 853:C:/Users/lenovo/Desktop/liteos/Project2/BearPi_LiteOS/components/security/mbedtls/mbedtls-2.6.0/library\bignum.c ****     if( j > i ) return( -Y->s );
 3027              		.loc 1 853 0 is_stmt 1
 3028 0032 9342     		cmp	r3, r2
 3029 0034 0FD8     		bhi	.L244
 854:C:/Users/lenovo/Desktop/liteos/Project2/BearPi_LiteOS/components/security/mbedtls/mbedtls-2.6.0/library\bignum.c **** 
 3030              		.loc 1 854 0
 3031 0036 9342     		cmp	r3, r2
 3032 0038 11D3     		bcc	.L245
 856:C:/Users/lenovo/Desktop/liteos/Project2/BearPi_LiteOS/components/security/mbedtls/mbedtls-2.6.0/library\bignum.c ****     if( Y->s > 0 && X->s < 0 ) return( -1 );
 3033              		.loc 1 856 0
 3034 003a 0568     		ldr	r5, [r0]
 3035 003c 002D     		cmp	r5, #0
 3036 003e 02DD     		ble	.L234
 856:C:/Users/lenovo/Desktop/liteos/Project2/BearPi_LiteOS/components/security/mbedtls/mbedtls-2.6.0/library\bignum.c ****     if( Y->s > 0 && X->s < 0 ) return( -1 );
 3037              		.loc 1 856 0 is_stmt 0 discriminator 1
 3038 0040 0A68     		ldr	r2, [r1]
 3039              	.LVL505:
 3040 0042 002A     		cmp	r2, #0
 3041 0044 22DB     		blt	.L241
 3042              	.L234:
 857:C:/Users/lenovo/Desktop/liteos/Project2/BearPi_LiteOS/components/security/mbedtls/mbedtls-2.6.0/library\bignum.c **** 
 3043              		.loc 1 857 0 is_stmt 1
 3044 0046 0A68     		ldr	r2, [r1]
 3045 0048 002A     		cmp	r2, #0
 3046 004a 0CDD     		ble	.L236
 857:C:/Users/lenovo/Desktop/liteos/Project2/BearPi_LiteOS/components/security/mbedtls/mbedtls-2.6.0/library\bignum.c **** 
 3047              		.loc 1 857 0 is_stmt 0 discriminator 1
 3048 004c 002D     		cmp	r5, #0
 3049 004e 0ADA     		bge	.L236
 857:C:/Users/lenovo/Desktop/liteos/Project2/BearPi_LiteOS/components/security/mbedtls/mbedtls-2.6.0/library\bignum.c **** 
 3050              		.loc 1 857 0
 3051 0050 4FF0FF35 		mov	r5, #-1
 3052 0054 00E0     		b	.L223
 3053              	.LVL506:
 3054              	.L244:
 853:C:/Users/lenovo/Desktop/liteos/Project2/BearPi_LiteOS/components/security/mbedtls/mbedtls-2.6.0/library\bignum.c ****     if( j > i ) return( -Y->s );
 3055              		.loc 1 853 0 is_stmt 1 discriminator 1
 3056 0056 0568     		ldr	r5, [r0]
ARM GAS  c:\Users\lenovo\AppData\Local\Temp\ccjcyTZ0.s 			page 87


 3057              	.LVL507:
 3058              	.L223:
 866:C:/Users/lenovo/Desktop/liteos/Project2/BearPi_LiteOS/components/security/mbedtls/mbedtls-2.6.0/library\bignum.c **** 
 3059              		.loc 1 866 0
 3060 0058 2846     		mov	r0, r5
 3061              	.LVL508:
 3062 005a 70BC     		pop	{r4, r5, r6}
 3063              	.LCFI43:
 3064              		.cfi_remember_state
 3065              		.cfi_restore 6
 3066              		.cfi_restore 5
 3067              		.cfi_restore 4
 3068              		.cfi_def_cfa_offset 0
 3069 005c 7047     		bx	lr
 3070              	.LVL509:
 3071              	.L245:
 3072              	.LCFI44:
 3073              		.cfi_restore_state
 854:C:/Users/lenovo/Desktop/liteos/Project2/BearPi_LiteOS/components/security/mbedtls/mbedtls-2.6.0/library\bignum.c **** 
 3074              		.loc 1 854 0 discriminator 1
 3075 005e 0D68     		ldr	r5, [r1]
 3076 0060 6D42     		negs	r5, r5
 3077 0062 F9E7     		b	.L223
 3078              	.LVL510:
 3079              	.L238:
 859:C:/Users/lenovo/Desktop/liteos/Project2/BearPi_LiteOS/components/security/mbedtls/mbedtls-2.6.0/library\bignum.c ****     {
 3080              		.loc 1 859 0
 3081 0064 013B     		subs	r3, r3, #1
 3082              	.LVL511:
 3083              	.L236:
 859:C:/Users/lenovo/Desktop/liteos/Project2/BearPi_LiteOS/components/security/mbedtls/mbedtls-2.6.0/library\bignum.c ****     {
 3084              		.loc 1 859 0 is_stmt 0 discriminator 1
 3085 0066 6BB1     		cbz	r3, .L246
 861:C:/Users/lenovo/Desktop/liteos/Project2/BearPi_LiteOS/components/security/mbedtls/mbedtls-2.6.0/library\bignum.c ****         if( X->p[i - 1] < Y->p[i - 1] ) return( -X->s );
 3086              		.loc 1 861 0 is_stmt 1
 3087 0068 8468     		ldr	r4, [r0, #8]
 3088 006a 03F18042 		add	r2, r3, #1073741824
 3089 006e 013A     		subs	r2, r2, #1
 3090 0070 54F82240 		ldr	r4, [r4, r2, lsl #2]
 3091 0074 8E68     		ldr	r6, [r1, #8]
 3092 0076 56F82220 		ldr	r2, [r6, r2, lsl #2]
 3093 007a 9442     		cmp	r4, r2
 3094 007c ECD8     		bhi	.L223
 862:C:/Users/lenovo/Desktop/liteos/Project2/BearPi_LiteOS/components/security/mbedtls/mbedtls-2.6.0/library\bignum.c ****     }
 3095              		.loc 1 862 0
 3096 007e F1D2     		bcs	.L238
 862:C:/Users/lenovo/Desktop/liteos/Project2/BearPi_LiteOS/components/security/mbedtls/mbedtls-2.6.0/library\bignum.c ****     }
 3097              		.loc 1 862 0 is_stmt 0 discriminator 1
 3098 0080 6D42     		negs	r5, r5
 3099 0082 E9E7     		b	.L223
 3100              	.L246:
 865:C:/Users/lenovo/Desktop/liteos/Project2/BearPi_LiteOS/components/security/mbedtls/mbedtls-2.6.0/library\bignum.c **** }
 3101              		.loc 1 865 0 is_stmt 1
 3102 0084 0025     		movs	r5, #0
 3103 0086 E7E7     		b	.L223
 3104              	.LVL512:
 3105              	.L240:
ARM GAS  c:\Users\lenovo\AppData\Local\Temp\ccjcyTZ0.s 			page 88


 851:C:/Users/lenovo/Desktop/liteos/Project2/BearPi_LiteOS/components/security/mbedtls/mbedtls-2.6.0/library\bignum.c **** 
 3106              		.loc 1 851 0
 3107 0088 0025     		movs	r5, #0
 3108 008a E5E7     		b	.L223
 3109              	.LVL513:
 3110              	.L241:
 856:C:/Users/lenovo/Desktop/liteos/Project2/BearPi_LiteOS/components/security/mbedtls/mbedtls-2.6.0/library\bignum.c ****     if( Y->s > 0 && X->s < 0 ) return( -1 );
 3111              		.loc 1 856 0
 3112 008c 0125     		movs	r5, #1
 3113 008e E3E7     		b	.L223
 3114              		.cfi_endproc
 3115              	.LFE28:
 3117              		.section	.text.mbedtls_mpi_cmp_int,"ax",%progbits
 3118              		.align	1
 3119              		.global	mbedtls_mpi_cmp_int
 3120              		.syntax unified
 3121              		.thumb
 3122              		.thumb_func
 3123              		.fpu fpv4-sp-d16
 3125              	mbedtls_mpi_cmp_int:
 3126              	.LFB29:
 872:C:/Users/lenovo/Desktop/liteos/Project2/BearPi_LiteOS/components/security/mbedtls/mbedtls-2.6.0/library\bignum.c ****     mbedtls_mpi Y;
 3127              		.loc 1 872 0
 3128              		.cfi_startproc
 3129              		@ args = 0, pretend = 0, frame = 16
 3130              		@ frame_needed = 0, uses_anonymous_args = 0
 3131              	.LVL514:
 3132 0000 00B5     		push	{lr}
 3133              	.LCFI45:
 3134              		.cfi_def_cfa_offset 4
 3135              		.cfi_offset 14, -4
 3136 0002 85B0     		sub	sp, sp, #20
 3137              	.LCFI46:
 3138              		.cfi_def_cfa_offset 24
 876:C:/Users/lenovo/Desktop/liteos/Project2/BearPi_LiteOS/components/security/mbedtls/mbedtls-2.6.0/library\bignum.c ****     Y.s = ( z < 0 ) ? -1 : 1;
 3139              		.loc 1 876 0
 3140 0004 81EAE173 		eor	r3, r1, r1, asr #31
 3141 0008 A3EBE173 		sub	r3, r3, r1, asr #31
 3142 000c 0093     		str	r3, [sp]
 877:C:/Users/lenovo/Desktop/liteos/Project2/BearPi_LiteOS/components/security/mbedtls/mbedtls-2.6.0/library\bignum.c ****     Y.n = 1;
 3143              		.loc 1 877 0
 3144 000e 0029     		cmp	r1, #0
 3145 0010 0BDB     		blt	.L251
 3146 0012 0123     		movs	r3, #1
 3147              	.L248:
 877:C:/Users/lenovo/Desktop/liteos/Project2/BearPi_LiteOS/components/security/mbedtls/mbedtls-2.6.0/library\bignum.c ****     Y.n = 1;
 3148              		.loc 1 877 0 is_stmt 0 discriminator 4
 3149 0014 0193     		str	r3, [sp, #4]
 878:C:/Users/lenovo/Desktop/liteos/Project2/BearPi_LiteOS/components/security/mbedtls/mbedtls-2.6.0/library\bignum.c ****     Y.p = p;
 3150              		.loc 1 878 0 is_stmt 1 discriminator 4
 3151 0016 0123     		movs	r3, #1
 3152 0018 0293     		str	r3, [sp, #8]
 879:C:/Users/lenovo/Desktop/liteos/Project2/BearPi_LiteOS/components/security/mbedtls/mbedtls-2.6.0/library\bignum.c **** 
 3153              		.loc 1 879 0 discriminator 4
 3154 001a CDF80CD0 		str	sp, [sp, #12]
 881:C:/Users/lenovo/Desktop/liteos/Project2/BearPi_LiteOS/components/security/mbedtls/mbedtls-2.6.0/library\bignum.c **** }
 3155              		.loc 1 881 0 discriminator 4
ARM GAS  c:\Users\lenovo\AppData\Local\Temp\ccjcyTZ0.s 			page 89


 3156 001e 01A9     		add	r1, sp, #4
 3157              	.LVL515:
 3158 0020 FFF7FEFF 		bl	mbedtls_mpi_cmp_mpi
 3159              	.LVL516:
 882:C:/Users/lenovo/Desktop/liteos/Project2/BearPi_LiteOS/components/security/mbedtls/mbedtls-2.6.0/library\bignum.c **** 
 3160              		.loc 1 882 0 discriminator 4
 3161 0024 05B0     		add	sp, sp, #20
 3162              	.LCFI47:
 3163              		.cfi_remember_state
 3164              		.cfi_def_cfa_offset 4
 3165              		@ sp needed
 3166 0026 5DF804FB 		ldr	pc, [sp], #4
 3167              	.LVL517:
 3168              	.L251:
 3169              	.LCFI48:
 3170              		.cfi_restore_state
 877:C:/Users/lenovo/Desktop/liteos/Project2/BearPi_LiteOS/components/security/mbedtls/mbedtls-2.6.0/library\bignum.c ****     Y.n = 1;
 3171              		.loc 1 877 0
 3172 002a 4FF0FF33 		mov	r3, #-1
 3173 002e F1E7     		b	.L248
 3174              		.cfi_endproc
 3175              	.LFE29:
 3177              		.section	.text.mbedtls_mpi_add_abs,"ax",%progbits
 3178              		.align	1
 3179              		.global	mbedtls_mpi_add_abs
 3180              		.syntax unified
 3181              		.thumb
 3182              		.thumb_func
 3183              		.fpu fpv4-sp-d16
 3185              	mbedtls_mpi_add_abs:
 3186              	.LFB30:
 888:C:/Users/lenovo/Desktop/liteos/Project2/BearPi_LiteOS/components/security/mbedtls/mbedtls-2.6.0/library\bignum.c ****     int ret;
 3187              		.loc 1 888 0
 3188              		.cfi_startproc
 3189              		@ args = 0, pretend = 0, frame = 0
 3190              		@ frame_needed = 0, uses_anonymous_args = 0
 3191              	.LVL518:
 3192 0000 F8B5     		push	{r3, r4, r5, r6, r7, lr}
 3193              	.LCFI49:
 3194              		.cfi_def_cfa_offset 24
 3195              		.cfi_offset 3, -24
 3196              		.cfi_offset 4, -20
 3197              		.cfi_offset 5, -16
 3198              		.cfi_offset 6, -12
 3199              		.cfi_offset 7, -8
 3200              		.cfi_offset 14, -4
 3201 0002 0746     		mov	r7, r0
 3202 0004 1446     		mov	r4, r2
 893:C:/Users/lenovo/Desktop/liteos/Project2/BearPi_LiteOS/components/security/mbedtls/mbedtls-2.6.0/library\bignum.c ****     {
 3203              		.loc 1 893 0
 3204 0006 9042     		cmp	r0, r2
 3205 0008 14D0     		beq	.L266
 3206              	.LVL519:
 3207              	.L253:
 898:C:/Users/lenovo/Desktop/liteos/Project2/BearPi_LiteOS/components/security/mbedtls/mbedtls-2.6.0/library\bignum.c ****         MBEDTLS_MPI_CHK( mbedtls_mpi_copy( X, A ) );
 3208              		.loc 1 898 0
 3209 000a B942     		cmp	r1, r7
ARM GAS  c:\Users\lenovo\AppData\Local\Temp\ccjcyTZ0.s 			page 90


 3210 000c 05D0     		beq	.L254
 899:C:/Users/lenovo/Desktop/liteos/Project2/BearPi_LiteOS/components/security/mbedtls/mbedtls-2.6.0/library\bignum.c **** 
 3211              		.loc 1 899 0
 3212 000e 3846     		mov	r0, r7
 3213              	.LVL520:
 3214 0010 FFF7FEFF 		bl	mbedtls_mpi_copy
 3215              	.LVL521:
 3216 0014 0146     		mov	r1, r0
 3217 0016 0028     		cmp	r0, #0
 3218 0018 44D1     		bne	.L252
 3219              	.LVL522:
 3220              	.L254:
 904:C:/Users/lenovo/Desktop/liteos/Project2/BearPi_LiteOS/components/security/mbedtls/mbedtls-2.6.0/library\bignum.c **** 
 3221              		.loc 1 904 0
 3222 001a 0123     		movs	r3, #1
 3223 001c 3B60     		str	r3, [r7]
 906:C:/Users/lenovo/Desktop/liteos/Project2/BearPi_LiteOS/components/security/mbedtls/mbedtls-2.6.0/library\bignum.c ****         if( B->p[j - 1] != 0 )
 3224              		.loc 1 906 0
 3225 001e 6568     		ldr	r5, [r4, #4]
 3226              	.LVL523:
 3227              	.L256:
 906:C:/Users/lenovo/Desktop/liteos/Project2/BearPi_LiteOS/components/security/mbedtls/mbedtls-2.6.0/library\bignum.c ****         if( B->p[j - 1] != 0 )
 3228              		.loc 1 906 0 is_stmt 0 discriminator 1
 3229 0020 5DB1     		cbz	r5, .L257
 907:C:/Users/lenovo/Desktop/liteos/Project2/BearPi_LiteOS/components/security/mbedtls/mbedtls-2.6.0/library\bignum.c ****             break;
 3230              		.loc 1 907 0 is_stmt 1
 3231 0022 A268     		ldr	r2, [r4, #8]
 3232 0024 05F18043 		add	r3, r5, #1073741824
 3233 0028 013B     		subs	r3, r3, #1
 3234 002a 52F82330 		ldr	r3, [r2, r3, lsl #2]
 3235 002e 23B9     		cbnz	r3, .L257
 906:C:/Users/lenovo/Desktop/liteos/Project2/BearPi_LiteOS/components/security/mbedtls/mbedtls-2.6.0/library\bignum.c ****         if( B->p[j - 1] != 0 )
 3236              		.loc 1 906 0 discriminator 2
 3237 0030 013D     		subs	r5, r5, #1
 3238              	.LVL524:
 3239 0032 F5E7     		b	.L256
 3240              	.LVL525:
 3241              	.L266:
 3242              	.LBB8:
 895:C:/Users/lenovo/Desktop/liteos/Project2/BearPi_LiteOS/components/security/mbedtls/mbedtls-2.6.0/library\bignum.c ****     }
 3243              		.loc 1 895 0
 3244 0034 0C46     		mov	r4, r1
 3245 0036 0146     		mov	r1, r0
 3246              	.LVL526:
 3247 0038 E7E7     		b	.L253
 3248              	.LVL527:
 3249              	.L257:
 3250              	.LBE8:
 910:C:/Users/lenovo/Desktop/liteos/Project2/BearPi_LiteOS/components/security/mbedtls/mbedtls-2.6.0/library\bignum.c **** 
 3251              		.loc 1 910 0
 3252 003a 2946     		mov	r1, r5
 3253 003c 3846     		mov	r0, r7
 3254 003e FFF7FEFF 		bl	mbedtls_mpi_grow
 3255              	.LVL528:
 3256 0042 0146     		mov	r1, r0
 3257 0044 70BB     		cbnz	r0, .L252
 912:C:/Users/lenovo/Desktop/liteos/Project2/BearPi_LiteOS/components/security/mbedtls/mbedtls-2.6.0/library\bignum.c **** 
ARM GAS  c:\Users\lenovo\AppData\Local\Temp\ccjcyTZ0.s 			page 91


 3258              		.loc 1 912 0
 3259 0046 D4F808C0 		ldr	ip, [r4, #8]
 3260              	.LVL529:
 3261 004a BB68     		ldr	r3, [r7, #8]
 3262              	.LVL530:
 3263 004c 0024     		movs	r4, #0
 3264              	.LVL531:
 917:C:/Users/lenovo/Desktop/liteos/Project2/BearPi_LiteOS/components/security/mbedtls/mbedtls-2.6.0/library\bignum.c ****     {
 3265              		.loc 1 917 0
 3266 004e 2646     		mov	r6, r4
 3267 0050 0EE0     		b	.L259
 3268              	.LVL532:
 3269              	.L260:
 919:C:/Users/lenovo/Desktop/liteos/Project2/BearPi_LiteOS/components/security/mbedtls/mbedtls-2.6.0/library\bignum.c ****         *p +=  c; c  = ( *p <  c );
 3270              		.loc 1 919 0 discriminator 3
 3271 0052 5CF8040B 		ldr	r0, [ip], #4
 3272              	.LVL533:
 920:C:/Users/lenovo/Desktop/liteos/Project2/BearPi_LiteOS/components/security/mbedtls/mbedtls-2.6.0/library\bignum.c ****         *p += tmp; c += ( *p < tmp );
 3273              		.loc 1 920 0 discriminator 3
 3274 0056 1A68     		ldr	r2, [r3]
 3275 0058 A418     		adds	r4, r4, r2
 3276              	.LVL534:
 3277 005a 2CBF     		ite	cs
 3278 005c 0122     		movcs	r2, #1
 3279 005e 0022     		movcc	r2, #0
 3280              	.LVL535:
 921:C:/Users/lenovo/Desktop/liteos/Project2/BearPi_LiteOS/components/security/mbedtls/mbedtls-2.6.0/library\bignum.c ****     }
 3281              		.loc 1 921 0 discriminator 3
 3282 0060 0444     		add	r4, r4, r0
 3283 0062 43F8044B 		str	r4, [r3], #4
 3284              	.LVL536:
 3285 0066 8442     		cmp	r4, r0
 3286 0068 2CBF     		ite	cs
 3287 006a 1446     		movcs	r4, r2
 3288 006c 541C     		addcc	r4, r2, #1
 3289              	.LVL537:
 917:C:/Users/lenovo/Desktop/liteos/Project2/BearPi_LiteOS/components/security/mbedtls/mbedtls-2.6.0/library\bignum.c ****     {
 3290              		.loc 1 917 0 discriminator 3
 3291 006e 0136     		adds	r6, r6, #1
 3292              	.LVL538:
 3293              	.L259:
 917:C:/Users/lenovo/Desktop/liteos/Project2/BearPi_LiteOS/components/security/mbedtls/mbedtls-2.6.0/library\bignum.c ****     {
 3294              		.loc 1 917 0 is_stmt 0 discriminator 1
 3295 0070 AE42     		cmp	r6, r5
 3296 0072 EED3     		bcc	.L260
 3297 0074 08E0     		b	.L261
 3298              	.LVL539:
 3299              	.L262:
 932:C:/Users/lenovo/Desktop/liteos/Project2/BearPi_LiteOS/components/security/mbedtls/mbedtls-2.6.0/library\bignum.c ****     }
 3300              		.loc 1 932 0 is_stmt 1
 3301 0076 1A68     		ldr	r2, [r3]
 3302 0078 2244     		add	r2, r2, r4
 3303 007a 43F8042B 		str	r2, [r3], #4
 3304              	.LVL540:
 3305 007e A242     		cmp	r2, r4
 3306 0080 2CBF     		ite	cs
 3307 0082 0024     		movcs	r4, #0
ARM GAS  c:\Users\lenovo\AppData\Local\Temp\ccjcyTZ0.s 			page 92


 3308              	.LVL541:
 3309 0084 0124     		movcc	r4, #1
 3310              	.LVL542:
 3311 0086 0136     		adds	r6, r6, #1
 3312              	.LVL543:
 3313              	.L261:
 924:C:/Users/lenovo/Desktop/liteos/Project2/BearPi_LiteOS/components/security/mbedtls/mbedtls-2.6.0/library\bignum.c ****     {
 3314              		.loc 1 924 0
 3315 0088 64B1     		cbz	r4, .L252
 926:C:/Users/lenovo/Desktop/liteos/Project2/BearPi_LiteOS/components/security/mbedtls/mbedtls-2.6.0/library\bignum.c ****         {
 3316              		.loc 1 926 0
 3317 008a 7A68     		ldr	r2, [r7, #4]
 3318 008c B242     		cmp	r2, r6
 3319 008e F2D8     		bhi	.L262
 928:C:/Users/lenovo/Desktop/liteos/Project2/BearPi_LiteOS/components/security/mbedtls/mbedtls-2.6.0/library\bignum.c ****             p = X->p + i;
 3320              		.loc 1 928 0
 3321 0090 711C     		adds	r1, r6, #1
 3322              	.LVL544:
 3323 0092 3846     		mov	r0, r7
 3324 0094 FFF7FEFF 		bl	mbedtls_mpi_grow
 3325              	.LVL545:
 3326 0098 0146     		mov	r1, r0
 3327 009a 18B9     		cbnz	r0, .L252
 929:C:/Users/lenovo/Desktop/liteos/Project2/BearPi_LiteOS/components/security/mbedtls/mbedtls-2.6.0/library\bignum.c ****         }
 3328              		.loc 1 929 0
 3329 009c BB68     		ldr	r3, [r7, #8]
 3330 009e 03EB8603 		add	r3, r3, r6, lsl #2
 3331              	.LVL546:
 3332 00a2 E8E7     		b	.L262
 3333              	.L255:
 3334              	.LVL547:
 3335              	.L252:
 938:C:/Users/lenovo/Desktop/liteos/Project2/BearPi_LiteOS/components/security/mbedtls/mbedtls-2.6.0/library\bignum.c **** 
 3336              		.loc 1 938 0
 3337 00a4 0846     		mov	r0, r1
 3338 00a6 F8BD     		pop	{r3, r4, r5, r6, r7, pc}
 3339              		.cfi_endproc
 3340              	.LFE30:
 3342              		.section	.text.mbedtls_mpi_sub_abs,"ax",%progbits
 3343              		.align	1
 3344              		.global	mbedtls_mpi_sub_abs
 3345              		.syntax unified
 3346              		.thumb
 3347              		.thumb_func
 3348              		.fpu fpv4-sp-d16
 3350              	mbedtls_mpi_sub_abs:
 3351              	.LFB32:
 965:C:/Users/lenovo/Desktop/liteos/Project2/BearPi_LiteOS/components/security/mbedtls/mbedtls-2.6.0/library\bignum.c ****     mbedtls_mpi TB;
 3352              		.loc 1 965 0
 3353              		.cfi_startproc
 3354              		@ args = 0, pretend = 0, frame = 16
 3355              		@ frame_needed = 0, uses_anonymous_args = 0
 3356              	.LVL548:
 3357 0000 F0B5     		push	{r4, r5, r6, r7, lr}
 3358              	.LCFI50:
 3359              		.cfi_def_cfa_offset 20
 3360              		.cfi_offset 4, -20
ARM GAS  c:\Users\lenovo\AppData\Local\Temp\ccjcyTZ0.s 			page 93


 3361              		.cfi_offset 5, -16
 3362              		.cfi_offset 6, -12
 3363              		.cfi_offset 7, -8
 3364              		.cfi_offset 14, -4
 3365 0002 85B0     		sub	sp, sp, #20
 3366              	.LCFI51:
 3367              		.cfi_def_cfa_offset 40
 3368 0004 0546     		mov	r5, r0
 3369 0006 0E46     		mov	r6, r1
 3370 0008 1446     		mov	r4, r2
 970:C:/Users/lenovo/Desktop/liteos/Project2/BearPi_LiteOS/components/security/mbedtls/mbedtls-2.6.0/library\bignum.c ****         return( MBEDTLS_ERR_MPI_NEGATIVE_VALUE );
 3371              		.loc 1 970 0
 3372 000a 1146     		mov	r1, r2
 3373              	.LVL549:
 3374 000c 3046     		mov	r0, r6
 3375              	.LVL550:
 3376 000e FFF7FEFF 		bl	mbedtls_mpi_cmp_abs
 3377              	.LVL551:
 3378 0012 0028     		cmp	r0, #0
 3379 0014 2CDB     		blt	.L275
 973:C:/Users/lenovo/Desktop/liteos/Project2/BearPi_LiteOS/components/security/mbedtls/mbedtls-2.6.0/library\bignum.c **** 
 3380              		.loc 1 973 0
 3381 0016 01A8     		add	r0, sp, #4
 3382 0018 FFF7FEFF 		bl	mbedtls_mpi_init
 3383              	.LVL552:
 975:C:/Users/lenovo/Desktop/liteos/Project2/BearPi_LiteOS/components/security/mbedtls/mbedtls-2.6.0/library\bignum.c ****     {
 3384              		.loc 1 975 0
 3385 001c AC42     		cmp	r4, r5
 3386 001e 14D0     		beq	.L277
 3387              	.LVL553:
 3388              	.L269:
 981:C:/Users/lenovo/Desktop/liteos/Project2/BearPi_LiteOS/components/security/mbedtls/mbedtls-2.6.0/library\bignum.c ****         MBEDTLS_MPI_CHK( mbedtls_mpi_copy( X, A ) );
 3389              		.loc 1 981 0
 3390 0020 AE42     		cmp	r6, r5
 3391 0022 05D0     		beq	.L271
 982:C:/Users/lenovo/Desktop/liteos/Project2/BearPi_LiteOS/components/security/mbedtls/mbedtls-2.6.0/library\bignum.c **** 
 3392              		.loc 1 982 0
 3393 0024 3146     		mov	r1, r6
 3394 0026 2846     		mov	r0, r5
 3395 0028 FFF7FEFF 		bl	mbedtls_mpi_copy
 3396              	.LVL554:
 3397 002c 0746     		mov	r7, r0
 3398 002e C8B9     		cbnz	r0, .L270
 3399              	.LVL555:
 3400              	.L271:
 987:C:/Users/lenovo/Desktop/liteos/Project2/BearPi_LiteOS/components/security/mbedtls/mbedtls-2.6.0/library\bignum.c **** 
 3401              		.loc 1 987 0
 3402 0030 0123     		movs	r3, #1
 3403 0032 2B60     		str	r3, [r5]
 3404              	.LVL556:
 991:C:/Users/lenovo/Desktop/liteos/Project2/BearPi_LiteOS/components/security/mbedtls/mbedtls-2.6.0/library\bignum.c ****         if( B->p[n - 1] != 0 )
 3405              		.loc 1 991 0
 3406 0034 6068     		ldr	r0, [r4, #4]
 3407              	.LVL557:
 3408              	.L272:
 991:C:/Users/lenovo/Desktop/liteos/Project2/BearPi_LiteOS/components/security/mbedtls/mbedtls-2.6.0/library\bignum.c ****         if( B->p[n - 1] != 0 )
 3409              		.loc 1 991 0 is_stmt 0 discriminator 1
ARM GAS  c:\Users\lenovo\AppData\Local\Temp\ccjcyTZ0.s 			page 94


 3410 0036 80B1     		cbz	r0, .L273
 992:C:/Users/lenovo/Desktop/liteos/Project2/BearPi_LiteOS/components/security/mbedtls/mbedtls-2.6.0/library\bignum.c ****             break;
 3411              		.loc 1 992 0 is_stmt 1
 3412 0038 A268     		ldr	r2, [r4, #8]
 3413 003a 00F18043 		add	r3, r0, #1073741824
 3414 003e 013B     		subs	r3, r3, #1
 3415 0040 52F82330 		ldr	r3, [r2, r3, lsl #2]
 3416 0044 4BB9     		cbnz	r3, .L273
 991:C:/Users/lenovo/Desktop/liteos/Project2/BearPi_LiteOS/components/security/mbedtls/mbedtls-2.6.0/library\bignum.c ****         if( B->p[n - 1] != 0 )
 3417              		.loc 1 991 0 discriminator 2
 3418 0046 0138     		subs	r0, r0, #1
 3419              	.LVL558:
 3420 0048 F5E7     		b	.L272
 3421              	.LVL559:
 3422              	.L277:
 977:C:/Users/lenovo/Desktop/liteos/Project2/BearPi_LiteOS/components/security/mbedtls/mbedtls-2.6.0/library\bignum.c ****         B = &TB;
 3423              		.loc 1 977 0
 3424 004a 2146     		mov	r1, r4
 3425 004c 01A8     		add	r0, sp, #4
 3426 004e FFF7FEFF 		bl	mbedtls_mpi_copy
 3427              	.LVL560:
 3428 0052 0746     		mov	r7, r0
 3429 0054 30B9     		cbnz	r0, .L270
 978:C:/Users/lenovo/Desktop/liteos/Project2/BearPi_LiteOS/components/security/mbedtls/mbedtls-2.6.0/library\bignum.c ****     }
 3430              		.loc 1 978 0
 3431 0056 01AC     		add	r4, sp, #4
 3432              	.LVL561:
 3433 0058 E2E7     		b	.L269
 3434              	.LVL562:
 3435              	.L273:
 995:C:/Users/lenovo/Desktop/liteos/Project2/BearPi_LiteOS/components/security/mbedtls/mbedtls-2.6.0/library\bignum.c **** 
 3436              		.loc 1 995 0
 3437 005a AA68     		ldr	r2, [r5, #8]
 3438 005c A168     		ldr	r1, [r4, #8]
 3439 005e FFF7FEFF 		bl	mpi_sub_hlp
 3440              	.LVL563:
 989:C:/Users/lenovo/Desktop/liteos/Project2/BearPi_LiteOS/components/security/mbedtls/mbedtls-2.6.0/library\bignum.c **** 
 3441              		.loc 1 989 0
 3442 0062 0027     		movs	r7, #0
 3443              	.LVL564:
 3444              	.L270:
 999:C:/Users/lenovo/Desktop/liteos/Project2/BearPi_LiteOS/components/security/mbedtls/mbedtls-2.6.0/library\bignum.c **** 
 3445              		.loc 1 999 0
 3446 0064 01A8     		add	r0, sp, #4
 3447 0066 FFF7FEFF 		bl	mbedtls_mpi_free
 3448              	.LVL565:
 3449              	.L267:
1002:C:/Users/lenovo/Desktop/liteos/Project2/BearPi_LiteOS/components/security/mbedtls/mbedtls-2.6.0/library\bignum.c **** 
 3450              		.loc 1 1002 0
 3451 006a 3846     		mov	r0, r7
 3452 006c 05B0     		add	sp, sp, #20
 3453              	.LCFI52:
 3454              		.cfi_remember_state
 3455              		.cfi_def_cfa_offset 20
 3456              		@ sp needed
 3457 006e F0BD     		pop	{r4, r5, r6, r7, pc}
 3458              	.LVL566:
ARM GAS  c:\Users\lenovo\AppData\Local\Temp\ccjcyTZ0.s 			page 95


 3459              	.L275:
 3460              	.LCFI53:
 3461              		.cfi_restore_state
 971:C:/Users/lenovo/Desktop/liteos/Project2/BearPi_LiteOS/components/security/mbedtls/mbedtls-2.6.0/library\bignum.c **** 
 3462              		.loc 1 971 0
 3463 0070 6FF00907 		mvn	r7, #9
 3464 0074 F9E7     		b	.L267
 3465              		.cfi_endproc
 3466              	.LFE32:
 3468              		.section	.text.mbedtls_mpi_add_mpi,"ax",%progbits
 3469              		.align	1
 3470              		.global	mbedtls_mpi_add_mpi
 3471              		.syntax unified
 3472              		.thumb
 3473              		.thumb_func
 3474              		.fpu fpv4-sp-d16
 3476              	mbedtls_mpi_add_mpi:
 3477              	.LFB33:
1008:C:/Users/lenovo/Desktop/liteos/Project2/BearPi_LiteOS/components/security/mbedtls/mbedtls-2.6.0/library\bignum.c ****     int ret, s = A->s;
 3478              		.loc 1 1008 0
 3479              		.cfi_startproc
 3480              		@ args = 0, pretend = 0, frame = 0
 3481              		@ frame_needed = 0, uses_anonymous_args = 0
 3482              	.LVL567:
 3483 0000 F8B5     		push	{r3, r4, r5, r6, r7, lr}
 3484              	.LCFI54:
 3485              		.cfi_def_cfa_offset 24
 3486              		.cfi_offset 3, -24
 3487              		.cfi_offset 4, -20
 3488              		.cfi_offset 5, -16
 3489              		.cfi_offset 6, -12
 3490              		.cfi_offset 7, -8
 3491              		.cfi_offset 14, -4
 3492 0002 0746     		mov	r7, r0
 3493 0004 0C46     		mov	r4, r1
 3494 0006 1546     		mov	r5, r2
1009:C:/Users/lenovo/Desktop/liteos/Project2/BearPi_LiteOS/components/security/mbedtls/mbedtls-2.6.0/library\bignum.c **** 
 3495              		.loc 1 1009 0
 3496 0008 0E68     		ldr	r6, [r1]
 3497              	.LVL568:
1011:C:/Users/lenovo/Desktop/liteos/Project2/BearPi_LiteOS/components/security/mbedtls/mbedtls-2.6.0/library\bignum.c ****     {
 3498              		.loc 1 1011 0
 3499 000a 1368     		ldr	r3, [r2]
 3500 000c 06FB03F3 		mul	r3, r6, r3
 3501 0010 002B     		cmp	r3, #0
 3502 0012 18DA     		bge	.L279
1013:C:/Users/lenovo/Desktop/liteos/Project2/BearPi_LiteOS/components/security/mbedtls/mbedtls-2.6.0/library\bignum.c ****         {
 3503              		.loc 1 1013 0
 3504 0014 1146     		mov	r1, r2
 3505              	.LVL569:
 3506 0016 2046     		mov	r0, r4
 3507              	.LVL570:
 3508 0018 FFF7FEFF 		bl	mbedtls_mpi_cmp_abs
 3509              	.LVL571:
 3510 001c 0028     		cmp	r0, #0
 3511 001e 08DB     		blt	.L280
1015:C:/Users/lenovo/Desktop/liteos/Project2/BearPi_LiteOS/components/security/mbedtls/mbedtls-2.6.0/library\bignum.c ****             X->s =  s;
ARM GAS  c:\Users\lenovo\AppData\Local\Temp\ccjcyTZ0.s 			page 96


 3512              		.loc 1 1015 0
 3513 0020 2A46     		mov	r2, r5
 3514 0022 2146     		mov	r1, r4
 3515 0024 3846     		mov	r0, r7
 3516 0026 FFF7FEFF 		bl	mbedtls_mpi_sub_abs
 3517              	.LVL572:
 3518 002a 0346     		mov	r3, r0
 3519 002c 80B9     		cbnz	r0, .L278
1016:C:/Users/lenovo/Desktop/liteos/Project2/BearPi_LiteOS/components/security/mbedtls/mbedtls-2.6.0/library\bignum.c ****         }
 3520              		.loc 1 1016 0
 3521 002e 3E60     		str	r6, [r7]
 3522 0030 0EE0     		b	.L278
 3523              	.LVL573:
 3524              	.L280:
1020:C:/Users/lenovo/Desktop/liteos/Project2/BearPi_LiteOS/components/security/mbedtls/mbedtls-2.6.0/library\bignum.c ****             X->s = -s;
 3525              		.loc 1 1020 0
 3526 0032 2246     		mov	r2, r4
 3527 0034 2946     		mov	r1, r5
 3528 0036 3846     		mov	r0, r7
 3529 0038 FFF7FEFF 		bl	mbedtls_mpi_sub_abs
 3530              	.LVL574:
 3531 003c 0346     		mov	r3, r0
 3532 003e 38B9     		cbnz	r0, .L278
1021:C:/Users/lenovo/Desktop/liteos/Project2/BearPi_LiteOS/components/security/mbedtls/mbedtls-2.6.0/library\bignum.c ****         }
 3533              		.loc 1 1021 0
 3534 0040 7642     		negs	r6, r6
 3535              	.LVL575:
 3536 0042 3E60     		str	r6, [r7]
 3537 0044 04E0     		b	.L278
 3538              	.LVL576:
 3539              	.L279:
1026:C:/Users/lenovo/Desktop/liteos/Project2/BearPi_LiteOS/components/security/mbedtls/mbedtls-2.6.0/library\bignum.c ****         X->s = s;
 3540              		.loc 1 1026 0
 3541 0046 FFF7FEFF 		bl	mbedtls_mpi_add_abs
 3542              	.LVL577:
 3543 004a 0346     		mov	r3, r0
 3544 004c 00B9     		cbnz	r0, .L278
1027:C:/Users/lenovo/Desktop/liteos/Project2/BearPi_LiteOS/components/security/mbedtls/mbedtls-2.6.0/library\bignum.c ****     }
 3545              		.loc 1 1027 0
 3546 004e 3E60     		str	r6, [r7]
 3547              	.L281:
 3548              	.LVL578:
 3549              	.L278:
1033:C:/Users/lenovo/Desktop/liteos/Project2/BearPi_LiteOS/components/security/mbedtls/mbedtls-2.6.0/library\bignum.c **** 
 3550              		.loc 1 1033 0
 3551 0050 1846     		mov	r0, r3
 3552              	.LVL579:
 3553 0052 F8BD     		pop	{r3, r4, r5, r6, r7, pc}
 3554              		.cfi_endproc
 3555              	.LFE33:
 3557              		.section	.text.mbedtls_mpi_sub_mpi,"ax",%progbits
 3558              		.align	1
 3559              		.global	mbedtls_mpi_sub_mpi
 3560              		.syntax unified
 3561              		.thumb
 3562              		.thumb_func
 3563              		.fpu fpv4-sp-d16
ARM GAS  c:\Users\lenovo\AppData\Local\Temp\ccjcyTZ0.s 			page 97


 3565              	mbedtls_mpi_sub_mpi:
 3566              	.LFB34:
1039:C:/Users/lenovo/Desktop/liteos/Project2/BearPi_LiteOS/components/security/mbedtls/mbedtls-2.6.0/library\bignum.c ****     int ret, s = A->s;
 3567              		.loc 1 1039 0
 3568              		.cfi_startproc
 3569              		@ args = 0, pretend = 0, frame = 0
 3570              		@ frame_needed = 0, uses_anonymous_args = 0
 3571              	.LVL580:
 3572 0000 F8B5     		push	{r3, r4, r5, r6, r7, lr}
 3573              	.LCFI55:
 3574              		.cfi_def_cfa_offset 24
 3575              		.cfi_offset 3, -24
 3576              		.cfi_offset 4, -20
 3577              		.cfi_offset 5, -16
 3578              		.cfi_offset 6, -12
 3579              		.cfi_offset 7, -8
 3580              		.cfi_offset 14, -4
 3581 0002 0746     		mov	r7, r0
 3582 0004 0C46     		mov	r4, r1
 3583 0006 1546     		mov	r5, r2
1040:C:/Users/lenovo/Desktop/liteos/Project2/BearPi_LiteOS/components/security/mbedtls/mbedtls-2.6.0/library\bignum.c **** 
 3584              		.loc 1 1040 0
 3585 0008 0E68     		ldr	r6, [r1]
 3586              	.LVL581:
1042:C:/Users/lenovo/Desktop/liteos/Project2/BearPi_LiteOS/components/security/mbedtls/mbedtls-2.6.0/library\bignum.c ****     {
 3587              		.loc 1 1042 0
 3588 000a 1368     		ldr	r3, [r2]
 3589 000c 06FB03F3 		mul	r3, r6, r3
 3590 0010 002B     		cmp	r3, #0
 3591 0012 1ADD     		ble	.L284
1044:C:/Users/lenovo/Desktop/liteos/Project2/BearPi_LiteOS/components/security/mbedtls/mbedtls-2.6.0/library\bignum.c ****         {
 3592              		.loc 1 1044 0
 3593 0014 1146     		mov	r1, r2
 3594              	.LVL582:
 3595 0016 2046     		mov	r0, r4
 3596              	.LVL583:
 3597 0018 FFF7FEFF 		bl	mbedtls_mpi_cmp_abs
 3598              	.LVL584:
 3599 001c 0028     		cmp	r0, #0
 3600 001e 09DB     		blt	.L285
1046:C:/Users/lenovo/Desktop/liteos/Project2/BearPi_LiteOS/components/security/mbedtls/mbedtls-2.6.0/library\bignum.c ****             X->s =  s;
 3601              		.loc 1 1046 0
 3602 0020 2A46     		mov	r2, r5
 3603 0022 2146     		mov	r1, r4
 3604 0024 3846     		mov	r0, r7
 3605 0026 FFF7FEFF 		bl	mbedtls_mpi_sub_abs
 3606              	.LVL585:
 3607 002a 0346     		mov	r3, r0
 3608 002c 00B9     		cbnz	r0, .L283
1047:C:/Users/lenovo/Desktop/liteos/Project2/BearPi_LiteOS/components/security/mbedtls/mbedtls-2.6.0/library\bignum.c ****         }
 3609              		.loc 1 1047 0
 3610 002e 3E60     		str	r6, [r7]
 3611              	.LVL586:
 3612              	.L283:
1064:C:/Users/lenovo/Desktop/liteos/Project2/BearPi_LiteOS/components/security/mbedtls/mbedtls-2.6.0/library\bignum.c **** 
 3613              		.loc 1 1064 0
 3614 0030 1846     		mov	r0, r3
ARM GAS  c:\Users\lenovo\AppData\Local\Temp\ccjcyTZ0.s 			page 98


 3615              	.LVL587:
 3616 0032 F8BD     		pop	{r3, r4, r5, r6, r7, pc}
 3617              	.LVL588:
 3618              	.L285:
1051:C:/Users/lenovo/Desktop/liteos/Project2/BearPi_LiteOS/components/security/mbedtls/mbedtls-2.6.0/library\bignum.c ****             X->s = -s;
 3619              		.loc 1 1051 0
 3620 0034 2246     		mov	r2, r4
 3621 0036 2946     		mov	r1, r5
 3622 0038 3846     		mov	r0, r7
 3623 003a FFF7FEFF 		bl	mbedtls_mpi_sub_abs
 3624              	.LVL589:
 3625 003e 0346     		mov	r3, r0
 3626 0040 0028     		cmp	r0, #0
 3627 0042 F5D1     		bne	.L283
1052:C:/Users/lenovo/Desktop/liteos/Project2/BearPi_LiteOS/components/security/mbedtls/mbedtls-2.6.0/library\bignum.c ****         }
 3628              		.loc 1 1052 0
 3629 0044 7642     		negs	r6, r6
 3630              	.LVL590:
 3631 0046 3E60     		str	r6, [r7]
 3632 0048 F2E7     		b	.L283
 3633              	.LVL591:
 3634              	.L284:
1057:C:/Users/lenovo/Desktop/liteos/Project2/BearPi_LiteOS/components/security/mbedtls/mbedtls-2.6.0/library\bignum.c ****         X->s = s;
 3635              		.loc 1 1057 0
 3636 004a FFF7FEFF 		bl	mbedtls_mpi_add_abs
 3637              	.LVL592:
 3638 004e 0346     		mov	r3, r0
 3639 0050 0028     		cmp	r0, #0
 3640 0052 EDD1     		bne	.L283
1058:C:/Users/lenovo/Desktop/liteos/Project2/BearPi_LiteOS/components/security/mbedtls/mbedtls-2.6.0/library\bignum.c ****     }
 3641              		.loc 1 1058 0
 3642 0054 3E60     		str	r6, [r7]
 3643              	.L286:
1063:C:/Users/lenovo/Desktop/liteos/Project2/BearPi_LiteOS/components/security/mbedtls/mbedtls-2.6.0/library\bignum.c **** }
 3644              		.loc 1 1063 0
 3645 0056 EBE7     		b	.L283
 3646              		.cfi_endproc
 3647              	.LFE34:
 3649              		.section	.text.mbedtls_mpi_add_int,"ax",%progbits
 3650              		.align	1
 3651              		.global	mbedtls_mpi_add_int
 3652              		.syntax unified
 3653              		.thumb
 3654              		.thumb_func
 3655              		.fpu fpv4-sp-d16
 3657              	mbedtls_mpi_add_int:
 3658              	.LFB35:
1070:C:/Users/lenovo/Desktop/liteos/Project2/BearPi_LiteOS/components/security/mbedtls/mbedtls-2.6.0/library\bignum.c ****     mbedtls_mpi _B;
 3659              		.loc 1 1070 0
 3660              		.cfi_startproc
 3661              		@ args = 0, pretend = 0, frame = 16
 3662              		@ frame_needed = 0, uses_anonymous_args = 0
 3663              	.LVL593:
 3664 0000 00B5     		push	{lr}
 3665              	.LCFI56:
 3666              		.cfi_def_cfa_offset 4
 3667              		.cfi_offset 14, -4
ARM GAS  c:\Users\lenovo\AppData\Local\Temp\ccjcyTZ0.s 			page 99


 3668 0002 85B0     		sub	sp, sp, #20
 3669              	.LCFI57:
 3670              		.cfi_def_cfa_offset 24
1074:C:/Users/lenovo/Desktop/liteos/Project2/BearPi_LiteOS/components/security/mbedtls/mbedtls-2.6.0/library\bignum.c ****     _B.s = ( b < 0 ) ? -1 : 1;
 3671              		.loc 1 1074 0
 3672 0004 82EAE273 		eor	r3, r2, r2, asr #31
 3673 0008 A3EBE273 		sub	r3, r3, r2, asr #31
 3674 000c 0093     		str	r3, [sp]
1075:C:/Users/lenovo/Desktop/liteos/Project2/BearPi_LiteOS/components/security/mbedtls/mbedtls-2.6.0/library\bignum.c ****     _B.n = 1;
 3675              		.loc 1 1075 0
 3676 000e 002A     		cmp	r2, #0
 3677 0010 0BDB     		blt	.L292
 3678 0012 0123     		movs	r3, #1
 3679              	.L289:
1075:C:/Users/lenovo/Desktop/liteos/Project2/BearPi_LiteOS/components/security/mbedtls/mbedtls-2.6.0/library\bignum.c ****     _B.n = 1;
 3680              		.loc 1 1075 0 is_stmt 0 discriminator 4
 3681 0014 0193     		str	r3, [sp, #4]
1076:C:/Users/lenovo/Desktop/liteos/Project2/BearPi_LiteOS/components/security/mbedtls/mbedtls-2.6.0/library\bignum.c ****     _B.p = p;
 3682              		.loc 1 1076 0 is_stmt 1 discriminator 4
 3683 0016 0123     		movs	r3, #1
 3684 0018 0293     		str	r3, [sp, #8]
1077:C:/Users/lenovo/Desktop/liteos/Project2/BearPi_LiteOS/components/security/mbedtls/mbedtls-2.6.0/library\bignum.c **** 
 3685              		.loc 1 1077 0 discriminator 4
 3686 001a CDF80CD0 		str	sp, [sp, #12]
1079:C:/Users/lenovo/Desktop/liteos/Project2/BearPi_LiteOS/components/security/mbedtls/mbedtls-2.6.0/library\bignum.c **** }
 3687              		.loc 1 1079 0 discriminator 4
 3688 001e 01AA     		add	r2, sp, #4
 3689              	.LVL594:
 3690 0020 FFF7FEFF 		bl	mbedtls_mpi_add_mpi
 3691              	.LVL595:
1080:C:/Users/lenovo/Desktop/liteos/Project2/BearPi_LiteOS/components/security/mbedtls/mbedtls-2.6.0/library\bignum.c **** 
 3692              		.loc 1 1080 0 discriminator 4
 3693 0024 05B0     		add	sp, sp, #20
 3694              	.LCFI58:
 3695              		.cfi_remember_state
 3696              		.cfi_def_cfa_offset 4
 3697              		@ sp needed
 3698 0026 5DF804FB 		ldr	pc, [sp], #4
 3699              	.LVL596:
 3700              	.L292:
 3701              	.LCFI59:
 3702              		.cfi_restore_state
1075:C:/Users/lenovo/Desktop/liteos/Project2/BearPi_LiteOS/components/security/mbedtls/mbedtls-2.6.0/library\bignum.c ****     _B.n = 1;
 3703              		.loc 1 1075 0
 3704 002a 4FF0FF33 		mov	r3, #-1
 3705 002e F1E7     		b	.L289
 3706              		.cfi_endproc
 3707              	.LFE35:
 3709              		.section	.text.mbedtls_mpi_sub_int,"ax",%progbits
 3710              		.align	1
 3711              		.global	mbedtls_mpi_sub_int
 3712              		.syntax unified
 3713              		.thumb
 3714              		.thumb_func
 3715              		.fpu fpv4-sp-d16
 3717              	mbedtls_mpi_sub_int:
 3718              	.LFB36:
ARM GAS  c:\Users\lenovo\AppData\Local\Temp\ccjcyTZ0.s 			page 100


1086:C:/Users/lenovo/Desktop/liteos/Project2/BearPi_LiteOS/components/security/mbedtls/mbedtls-2.6.0/library\bignum.c ****     mbedtls_mpi _B;
 3719              		.loc 1 1086 0
 3720              		.cfi_startproc
 3721              		@ args = 0, pretend = 0, frame = 16
 3722              		@ frame_needed = 0, uses_anonymous_args = 0
 3723              	.LVL597:
 3724 0000 00B5     		push	{lr}
 3725              	.LCFI60:
 3726              		.cfi_def_cfa_offset 4
 3727              		.cfi_offset 14, -4
 3728 0002 85B0     		sub	sp, sp, #20
 3729              	.LCFI61:
 3730              		.cfi_def_cfa_offset 24
1090:C:/Users/lenovo/Desktop/liteos/Project2/BearPi_LiteOS/components/security/mbedtls/mbedtls-2.6.0/library\bignum.c ****     _B.s = ( b < 0 ) ? -1 : 1;
 3731              		.loc 1 1090 0
 3732 0004 82EAE273 		eor	r3, r2, r2, asr #31
 3733 0008 A3EBE273 		sub	r3, r3, r2, asr #31
 3734 000c 0093     		str	r3, [sp]
1091:C:/Users/lenovo/Desktop/liteos/Project2/BearPi_LiteOS/components/security/mbedtls/mbedtls-2.6.0/library\bignum.c ****     _B.n = 1;
 3735              		.loc 1 1091 0
 3736 000e 002A     		cmp	r2, #0
 3737 0010 0BDB     		blt	.L297
 3738 0012 0123     		movs	r3, #1
 3739              	.L294:
1091:C:/Users/lenovo/Desktop/liteos/Project2/BearPi_LiteOS/components/security/mbedtls/mbedtls-2.6.0/library\bignum.c ****     _B.n = 1;
 3740              		.loc 1 1091 0 is_stmt 0 discriminator 4
 3741 0014 0193     		str	r3, [sp, #4]
1092:C:/Users/lenovo/Desktop/liteos/Project2/BearPi_LiteOS/components/security/mbedtls/mbedtls-2.6.0/library\bignum.c ****     _B.p = p;
 3742              		.loc 1 1092 0 is_stmt 1 discriminator 4
 3743 0016 0123     		movs	r3, #1
 3744 0018 0293     		str	r3, [sp, #8]
1093:C:/Users/lenovo/Desktop/liteos/Project2/BearPi_LiteOS/components/security/mbedtls/mbedtls-2.6.0/library\bignum.c **** 
 3745              		.loc 1 1093 0 discriminator 4
 3746 001a CDF80CD0 		str	sp, [sp, #12]
1095:C:/Users/lenovo/Desktop/liteos/Project2/BearPi_LiteOS/components/security/mbedtls/mbedtls-2.6.0/library\bignum.c **** }
 3747              		.loc 1 1095 0 discriminator 4
 3748 001e 01AA     		add	r2, sp, #4
 3749              	.LVL598:
 3750 0020 FFF7FEFF 		bl	mbedtls_mpi_sub_mpi
 3751              	.LVL599:
1096:C:/Users/lenovo/Desktop/liteos/Project2/BearPi_LiteOS/components/security/mbedtls/mbedtls-2.6.0/library\bignum.c **** 
 3752              		.loc 1 1096 0 discriminator 4
 3753 0024 05B0     		add	sp, sp, #20
 3754              	.LCFI62:
 3755              		.cfi_remember_state
 3756              		.cfi_def_cfa_offset 4
 3757              		@ sp needed
 3758 0026 5DF804FB 		ldr	pc, [sp], #4
 3759              	.LVL600:
 3760              	.L297:
 3761              	.LCFI63:
 3762              		.cfi_restore_state
1091:C:/Users/lenovo/Desktop/liteos/Project2/BearPi_LiteOS/components/security/mbedtls/mbedtls-2.6.0/library\bignum.c ****     _B.n = 1;
 3763              		.loc 1 1091 0
 3764 002a 4FF0FF33 		mov	r3, #-1
 3765 002e F1E7     		b	.L294
 3766              		.cfi_endproc
ARM GAS  c:\Users\lenovo\AppData\Local\Temp\ccjcyTZ0.s 			page 101


 3767              	.LFE36:
 3769              		.section	.text.mbedtls_mpi_mul_mpi,"ax",%progbits
 3770              		.align	1
 3771              		.global	mbedtls_mpi_mul_mpi
 3772              		.syntax unified
 3773              		.thumb
 3774              		.thumb_func
 3775              		.fpu fpv4-sp-d16
 3777              	mbedtls_mpi_mul_mpi:
 3778              	.LFB38:
1174:C:/Users/lenovo/Desktop/liteos/Project2/BearPi_LiteOS/components/security/mbedtls/mbedtls-2.6.0/library\bignum.c ****     int ret;
 3779              		.loc 1 1174 0
 3780              		.cfi_startproc
 3781              		@ args = 0, pretend = 0, frame = 24
 3782              		@ frame_needed = 0, uses_anonymous_args = 0
 3783              	.LVL601:
 3784 0000 2DE9F043 		push	{r4, r5, r6, r7, r8, r9, lr}
 3785              	.LCFI64:
 3786              		.cfi_def_cfa_offset 28
 3787              		.cfi_offset 4, -28
 3788              		.cfi_offset 5, -24
 3789              		.cfi_offset 6, -20
 3790              		.cfi_offset 7, -16
 3791              		.cfi_offset 8, -12
 3792              		.cfi_offset 9, -8
 3793              		.cfi_offset 14, -4
 3794 0004 87B0     		sub	sp, sp, #28
 3795              	.LCFI65:
 3796              		.cfi_def_cfa_offset 56
 3797 0006 8046     		mov	r8, r0
 3798 0008 0E46     		mov	r6, r1
 3799 000a 1746     		mov	r7, r2
1179:C:/Users/lenovo/Desktop/liteos/Project2/BearPi_LiteOS/components/security/mbedtls/mbedtls-2.6.0/library\bignum.c **** 
 3800              		.loc 1 1179 0
 3801 000c 03A8     		add	r0, sp, #12
 3802              	.LVL602:
 3803 000e FFF7FEFF 		bl	mbedtls_mpi_init
 3804              	.LVL603:
 3805 0012 6846     		mov	r0, sp
 3806 0014 FFF7FEFF 		bl	mbedtls_mpi_init
 3807              	.LVL604:
1181:C:/Users/lenovo/Desktop/liteos/Project2/BearPi_LiteOS/components/security/mbedtls/mbedtls-2.6.0/library\bignum.c ****     if( X == B ) { MBEDTLS_MPI_CHK( mbedtls_mpi_copy( &TB, B ) ); B = &TB; }
 3808              		.loc 1 1181 0
 3809 0018 B045     		cmp	r8, r6
 3810 001a 0CD0     		beq	.L311
 3811              	.LVL605:
 3812              	.L299:
1182:C:/Users/lenovo/Desktop/liteos/Project2/BearPi_LiteOS/components/security/mbedtls/mbedtls-2.6.0/library\bignum.c **** 
 3813              		.loc 1 1182 0
 3814 001c B845     		cmp	r8, r7
 3815 001e 12D0     		beq	.L312
 3816              	.LVL606:
 3817              	.L301:
1184:C:/Users/lenovo/Desktop/liteos/Project2/BearPi_LiteOS/components/security/mbedtls/mbedtls-2.6.0/library\bignum.c ****         if( A->p[i - 1] != 0 )
 3818              		.loc 1 1184 0
 3819 0020 7568     		ldr	r5, [r6, #4]
 3820              	.LVL607:
ARM GAS  c:\Users\lenovo\AppData\Local\Temp\ccjcyTZ0.s 			page 102


 3821              	.L302:
1184:C:/Users/lenovo/Desktop/liteos/Project2/BearPi_LiteOS/components/security/mbedtls/mbedtls-2.6.0/library\bignum.c ****         if( A->p[i - 1] != 0 )
 3822              		.loc 1 1184 0 is_stmt 0 discriminator 1
 3823 0022 C5B1     		cbz	r5, .L303
1185:C:/Users/lenovo/Desktop/liteos/Project2/BearPi_LiteOS/components/security/mbedtls/mbedtls-2.6.0/library\bignum.c ****             break;
 3824              		.loc 1 1185 0 is_stmt 1
 3825 0024 B268     		ldr	r2, [r6, #8]
 3826 0026 05F18043 		add	r3, r5, #1073741824
 3827 002a 013B     		subs	r3, r3, #1
 3828 002c 52F82330 		ldr	r3, [r2, r3, lsl #2]
 3829 0030 8BB9     		cbnz	r3, .L303
1184:C:/Users/lenovo/Desktop/liteos/Project2/BearPi_LiteOS/components/security/mbedtls/mbedtls-2.6.0/library\bignum.c ****         if( A->p[i - 1] != 0 )
 3830              		.loc 1 1184 0 discriminator 2
 3831 0032 013D     		subs	r5, r5, #1
 3832              	.LVL608:
 3833 0034 F5E7     		b	.L302
 3834              	.LVL609:
 3835              	.L311:
1181:C:/Users/lenovo/Desktop/liteos/Project2/BearPi_LiteOS/components/security/mbedtls/mbedtls-2.6.0/library\bignum.c ****     if( X == B ) { MBEDTLS_MPI_CHK( mbedtls_mpi_copy( &TB, B ) ); B = &TB; }
 3836              		.loc 1 1181 0 discriminator 1
 3837 0036 3146     		mov	r1, r6
 3838 0038 03A8     		add	r0, sp, #12
 3839 003a FFF7FEFF 		bl	mbedtls_mpi_copy
 3840              	.LVL610:
 3841 003e 8146     		mov	r9, r0
 3842 0040 D0B9     		cbnz	r0, .L300
1181:C:/Users/lenovo/Desktop/liteos/Project2/BearPi_LiteOS/components/security/mbedtls/mbedtls-2.6.0/library\bignum.c ****     if( X == B ) { MBEDTLS_MPI_CHK( mbedtls_mpi_copy( &TB, B ) ); B = &TB; }
 3843              		.loc 1 1181 0 is_stmt 0
 3844 0042 03AE     		add	r6, sp, #12
 3845              	.LVL611:
 3846 0044 EAE7     		b	.L299
 3847              	.LVL612:
 3848              	.L312:
1182:C:/Users/lenovo/Desktop/liteos/Project2/BearPi_LiteOS/components/security/mbedtls/mbedtls-2.6.0/library\bignum.c **** 
 3849              		.loc 1 1182 0 is_stmt 1 discriminator 1
 3850 0046 3946     		mov	r1, r7
 3851 0048 6846     		mov	r0, sp
 3852 004a FFF7FEFF 		bl	mbedtls_mpi_copy
 3853              	.LVL613:
 3854 004e 8146     		mov	r9, r0
 3855 0050 90B9     		cbnz	r0, .L300
1182:C:/Users/lenovo/Desktop/liteos/Project2/BearPi_LiteOS/components/security/mbedtls/mbedtls-2.6.0/library\bignum.c **** 
 3856              		.loc 1 1182 0 is_stmt 0
 3857 0052 6F46     		mov	r7, sp
 3858              	.LVL614:
 3859 0054 E4E7     		b	.L301
 3860              	.LVL615:
 3861              	.L303:
1188:C:/Users/lenovo/Desktop/liteos/Project2/BearPi_LiteOS/components/security/mbedtls/mbedtls-2.6.0/library\bignum.c ****         if( B->p[j - 1] != 0 )
 3862              		.loc 1 1188 0 is_stmt 1
 3863 0056 7C68     		ldr	r4, [r7, #4]
 3864              	.LVL616:
 3865              	.L305:
1188:C:/Users/lenovo/Desktop/liteos/Project2/BearPi_LiteOS/components/security/mbedtls/mbedtls-2.6.0/library\bignum.c ****         if( B->p[j - 1] != 0 )
 3866              		.loc 1 1188 0 is_stmt 0 discriminator 1
 3867 0058 44B1     		cbz	r4, .L306
1189:C:/Users/lenovo/Desktop/liteos/Project2/BearPi_LiteOS/components/security/mbedtls/mbedtls-2.6.0/library\bignum.c ****             break;
ARM GAS  c:\Users\lenovo\AppData\Local\Temp\ccjcyTZ0.s 			page 103


 3868              		.loc 1 1189 0 is_stmt 1
 3869 005a BA68     		ldr	r2, [r7, #8]
 3870 005c 04F18043 		add	r3, r4, #1073741824
 3871 0060 013B     		subs	r3, r3, #1
 3872 0062 52F82330 		ldr	r3, [r2, r3, lsl #2]
 3873 0066 0BB9     		cbnz	r3, .L306
1188:C:/Users/lenovo/Desktop/liteos/Project2/BearPi_LiteOS/components/security/mbedtls/mbedtls-2.6.0/library\bignum.c ****         if( B->p[j - 1] != 0 )
 3874              		.loc 1 1188 0 discriminator 2
 3875 0068 013C     		subs	r4, r4, #1
 3876              	.LVL617:
 3877 006a F5E7     		b	.L305
 3878              	.L306:
1192:C:/Users/lenovo/Desktop/liteos/Project2/BearPi_LiteOS/components/security/mbedtls/mbedtls-2.6.0/library\bignum.c ****     MBEDTLS_MPI_CHK( mbedtls_mpi_lset( X, 0 ) );
 3879              		.loc 1 1192 0
 3880 006c 2919     		adds	r1, r5, r4
 3881 006e 4046     		mov	r0, r8
 3882 0070 FFF7FEFF 		bl	mbedtls_mpi_grow
 3883              	.LVL618:
 3884 0074 8146     		mov	r9, r0
 3885 0076 48B1     		cbz	r0, .L313
 3886              	.LVL619:
 3887              	.L300:
1202:C:/Users/lenovo/Desktop/liteos/Project2/BearPi_LiteOS/components/security/mbedtls/mbedtls-2.6.0/library\bignum.c **** 
 3888              		.loc 1 1202 0
 3889 0078 6846     		mov	r0, sp
 3890 007a FFF7FEFF 		bl	mbedtls_mpi_free
 3891              	.LVL620:
 3892 007e 03A8     		add	r0, sp, #12
 3893 0080 FFF7FEFF 		bl	mbedtls_mpi_free
 3894              	.LVL621:
1205:C:/Users/lenovo/Desktop/liteos/Project2/BearPi_LiteOS/components/security/mbedtls/mbedtls-2.6.0/library\bignum.c **** 
 3895              		.loc 1 1205 0
 3896 0084 4846     		mov	r0, r9
 3897 0086 07B0     		add	sp, sp, #28
 3898              	.LCFI66:
 3899              		.cfi_remember_state
 3900              		.cfi_def_cfa_offset 28
 3901              		@ sp needed
 3902 0088 BDE8F083 		pop	{r4, r5, r6, r7, r8, r9, pc}
 3903              	.LVL622:
 3904              	.L313:
 3905              	.LCFI67:
 3906              		.cfi_restore_state
1193:C:/Users/lenovo/Desktop/liteos/Project2/BearPi_LiteOS/components/security/mbedtls/mbedtls-2.6.0/library\bignum.c **** 
 3907              		.loc 1 1193 0
 3908 008c 0021     		movs	r1, #0
 3909 008e 4046     		mov	r0, r8
 3910              	.LVL623:
 3911 0090 FFF7FEFF 		bl	mbedtls_mpi_lset
 3912              	.LVL624:
 3913 0094 8146     		mov	r9, r0
 3914 0096 78B1     		cbz	r0, .L308
 3915 0098 EEE7     		b	.L300
 3916              	.LVL625:
 3917              	.L309:
1196:C:/Users/lenovo/Desktop/liteos/Project2/BearPi_LiteOS/components/security/mbedtls/mbedtls-2.6.0/library\bignum.c **** 
 3918              		.loc 1 1196 0 discriminator 3
ARM GAS  c:\Users\lenovo\AppData\Local\Temp\ccjcyTZ0.s 			page 104


 3919 009a D8F80810 		ldr	r1, [r8, #8]
 3920 009e 04F18042 		add	r2, r4, #1073741824
 3921 00a2 013A     		subs	r2, r2, #1
 3922 00a4 BB68     		ldr	r3, [r7, #8]
 3923 00a6 53F82230 		ldr	r3, [r3, r2, lsl #2]
 3924 00aa 01EB8202 		add	r2, r1, r2, lsl #2
 3925 00ae B168     		ldr	r1, [r6, #8]
 3926 00b0 2846     		mov	r0, r5
 3927 00b2 FFF7FEFF 		bl	mpi_mul_hlp
 3928              	.LVL626:
1195:C:/Users/lenovo/Desktop/liteos/Project2/BearPi_LiteOS/components/security/mbedtls/mbedtls-2.6.0/library\bignum.c ****         mpi_mul_hlp( i - 1, A->p, X->p + j - 1, B->p[j - 1] );
 3929              		.loc 1 1195 0 discriminator 3
 3930 00b6 013C     		subs	r4, r4, #1
 3931              	.LVL627:
 3932              	.L308:
1195:C:/Users/lenovo/Desktop/liteos/Project2/BearPi_LiteOS/components/security/mbedtls/mbedtls-2.6.0/library\bignum.c ****         mpi_mul_hlp( i - 1, A->p, X->p + j - 1, B->p[j - 1] );
 3933              		.loc 1 1195 0 is_stmt 0 discriminator 1
 3934 00b8 002C     		cmp	r4, #0
 3935 00ba EED1     		bne	.L309
1198:C:/Users/lenovo/Desktop/liteos/Project2/BearPi_LiteOS/components/security/mbedtls/mbedtls-2.6.0/library\bignum.c **** 
 3936              		.loc 1 1198 0 is_stmt 1
 3937 00bc 3268     		ldr	r2, [r6]
 3938 00be 3B68     		ldr	r3, [r7]
 3939 00c0 03FB02F3 		mul	r3, r3, r2
 3940 00c4 C8F80030 		str	r3, [r8]
 3941 00c8 D6E7     		b	.L300
 3942              		.cfi_endproc
 3943              	.LFE38:
 3945              		.section	.text.mbedtls_mpi_mul_int,"ax",%progbits
 3946              		.align	1
 3947              		.global	mbedtls_mpi_mul_int
 3948              		.syntax unified
 3949              		.thumb
 3950              		.thumb_func
 3951              		.fpu fpv4-sp-d16
 3953              	mbedtls_mpi_mul_int:
 3954              	.LFB39:
1211:C:/Users/lenovo/Desktop/liteos/Project2/BearPi_LiteOS/components/security/mbedtls/mbedtls-2.6.0/library\bignum.c ****     mbedtls_mpi _B;
 3955              		.loc 1 1211 0
 3956              		.cfi_startproc
 3957              		@ args = 0, pretend = 0, frame = 16
 3958              		@ frame_needed = 0, uses_anonymous_args = 0
 3959              	.LVL628:
 3960 0000 00B5     		push	{lr}
 3961              	.LCFI68:
 3962              		.cfi_def_cfa_offset 4
 3963              		.cfi_offset 14, -4
 3964 0002 85B0     		sub	sp, sp, #20
 3965              	.LCFI69:
 3966              		.cfi_def_cfa_offset 24
1215:C:/Users/lenovo/Desktop/liteos/Project2/BearPi_LiteOS/components/security/mbedtls/mbedtls-2.6.0/library\bignum.c ****     _B.n = 1;
 3967              		.loc 1 1215 0
 3968 0004 0123     		movs	r3, #1
 3969 0006 0193     		str	r3, [sp, #4]
1216:C:/Users/lenovo/Desktop/liteos/Project2/BearPi_LiteOS/components/security/mbedtls/mbedtls-2.6.0/library\bignum.c ****     _B.p = p;
 3970              		.loc 1 1216 0
 3971 0008 0293     		str	r3, [sp, #8]
ARM GAS  c:\Users\lenovo\AppData\Local\Temp\ccjcyTZ0.s 			page 105


1217:C:/Users/lenovo/Desktop/liteos/Project2/BearPi_LiteOS/components/security/mbedtls/mbedtls-2.6.0/library\bignum.c ****     p[0] = b;
 3972              		.loc 1 1217 0
 3973 000a CDF80CD0 		str	sp, [sp, #12]
1218:C:/Users/lenovo/Desktop/liteos/Project2/BearPi_LiteOS/components/security/mbedtls/mbedtls-2.6.0/library\bignum.c **** 
 3974              		.loc 1 1218 0
 3975 000e 0092     		str	r2, [sp]
1220:C:/Users/lenovo/Desktop/liteos/Project2/BearPi_LiteOS/components/security/mbedtls/mbedtls-2.6.0/library\bignum.c **** }
 3976              		.loc 1 1220 0
 3977 0010 01AA     		add	r2, sp, #4
 3978              	.LVL629:
 3979 0012 FFF7FEFF 		bl	mbedtls_mpi_mul_mpi
 3980              	.LVL630:
1221:C:/Users/lenovo/Desktop/liteos/Project2/BearPi_LiteOS/components/security/mbedtls/mbedtls-2.6.0/library\bignum.c **** 
 3981              		.loc 1 1221 0
 3982 0016 05B0     		add	sp, sp, #20
 3983              	.LCFI70:
 3984              		.cfi_def_cfa_offset 4
 3985              		@ sp needed
 3986 0018 5DF804FB 		ldr	pc, [sp], #4
 3987              		.cfi_endproc
 3988              	.LFE39:
 3990              		.section	.text.mbedtls_mpi_read_string,"ax",%progbits
 3991              		.align	1
 3992              		.global	mbedtls_mpi_read_string
 3993              		.syntax unified
 3994              		.thumb
 3995              		.thumb_func
 3996              		.fpu fpv4-sp-d16
 3998              	mbedtls_mpi_read_string:
 3999              	.LFB20:
 425:C:/Users/lenovo/Desktop/liteos/Project2/BearPi_LiteOS/components/security/mbedtls/mbedtls-2.6.0/library\bignum.c ****     int ret;
 4000              		.loc 1 425 0
 4001              		.cfi_startproc
 4002              		@ args = 0, pretend = 0, frame = 16
 4003              		@ frame_needed = 0, uses_anonymous_args = 0
 4004              	.LVL631:
 4005 0000 2DE9F047 		push	{r4, r5, r6, r7, r8, r9, r10, lr}
 4006              	.LCFI71:
 4007              		.cfi_def_cfa_offset 32
 4008              		.cfi_offset 4, -32
 4009              		.cfi_offset 5, -28
 4010              		.cfi_offset 6, -24
 4011              		.cfi_offset 7, -20
 4012              		.cfi_offset 8, -16
 4013              		.cfi_offset 9, -12
 4014              		.cfi_offset 10, -8
 4015              		.cfi_offset 14, -4
 4016 0004 84B0     		sub	sp, sp, #16
 4017              	.LCFI72:
 4018              		.cfi_def_cfa_offset 48
 431:C:/Users/lenovo/Desktop/liteos/Project2/BearPi_LiteOS/components/security/mbedtls/mbedtls-2.6.0/library\bignum.c ****         return( MBEDTLS_ERR_MPI_BAD_INPUT_DATA );
 4019              		.loc 1 431 0
 4020 0006 8B1E     		subs	r3, r1, #2
 4021 0008 0E2B     		cmp	r3, #14
 4022 000a 00F29280 		bhi	.L328
 4023 000e 8A46     		mov	r10, r1
 4024 0010 9146     		mov	r9, r2
ARM GAS  c:\Users\lenovo\AppData\Local\Temp\ccjcyTZ0.s 			page 106


 4025 0012 0F46     		mov	r7, r1
 4026 0014 0446     		mov	r4, r0
 434:C:/Users/lenovo/Desktop/liteos/Project2/BearPi_LiteOS/components/security/mbedtls/mbedtls-2.6.0/library\bignum.c **** 
 4027              		.loc 1 434 0
 4028 0016 6846     		mov	r0, sp
 4029              	.LVL632:
 4030 0018 FFF7FEFF 		bl	mbedtls_mpi_init
 4031              	.LVL633:
 436:C:/Users/lenovo/Desktop/liteos/Project2/BearPi_LiteOS/components/security/mbedtls/mbedtls-2.6.0/library\bignum.c **** 
 4032              		.loc 1 436 0
 4033 001c 4846     		mov	r0, r9
 4034 001e FFF7FEFF 		bl	strlen
 4035              	.LVL634:
 4036 0022 8046     		mov	r8, r0
 4037              	.LVL635:
 438:C:/Users/lenovo/Desktop/liteos/Project2/BearPi_LiteOS/components/security/mbedtls/mbedtls-2.6.0/library\bignum.c ****     {
 4038              		.loc 1 438 0
 4039 0024 102F     		cmp	r7, #16
 4040 0026 49D1     		bne	.L318
 440:C:/Users/lenovo/Desktop/liteos/Project2/BearPi_LiteOS/components/security/mbedtls/mbedtls-2.6.0/library\bignum.c ****             return( MBEDTLS_ERR_MPI_BAD_INPUT_DATA );
 4041              		.loc 1 440 0
 4042 0028 B0F1804F 		cmp	r0, #1073741824
 4043 002c 80F08480 		bcs	.L329
 443:C:/Users/lenovo/Desktop/liteos/Project2/BearPi_LiteOS/components/security/mbedtls/mbedtls-2.6.0/library\bignum.c **** 
 4044              		.loc 1 443 0
 4045 0030 8300     		lsls	r3, r0, #2
 4046 0032 13F01F0F 		tst	r3, #31
 4047 0036 14BF     		ite	ne
 4048 0038 0121     		movne	r1, #1
 4049 003a 0021     		moveq	r1, #0
 4050              	.LVL636:
 445:C:/Users/lenovo/Desktop/liteos/Project2/BearPi_LiteOS/components/security/mbedtls/mbedtls-2.6.0/library\bignum.c ****         MBEDTLS_MPI_CHK( mbedtls_mpi_lset( X, 0 ) );
 4051              		.loc 1 445 0
 4052 003c 01EB5311 		add	r1, r1, r3, lsr #5
 4053              	.LVL637:
 4054 0040 2046     		mov	r0, r4
 4055              	.LVL638:
 4056 0042 FFF7FEFF 		bl	mbedtls_mpi_grow
 4057              	.LVL639:
 4058 0046 0646     		mov	r6, r0
 4059 0048 30B1     		cbz	r0, .L331
 4060              	.LVL640:
 4061              	.L319:
 488:C:/Users/lenovo/Desktop/liteos/Project2/BearPi_LiteOS/components/security/mbedtls/mbedtls-2.6.0/library\bignum.c **** 
 4062              		.loc 1 488 0
 4063 004a 6846     		mov	r0, sp
 4064 004c FFF7FEFF 		bl	mbedtls_mpi_free
 4065              	.LVL641:
 4066              	.L316:
 491:C:/Users/lenovo/Desktop/liteos/Project2/BearPi_LiteOS/components/security/mbedtls/mbedtls-2.6.0/library\bignum.c **** 
 4067              		.loc 1 491 0
 4068 0050 3046     		mov	r0, r6
 4069 0052 04B0     		add	sp, sp, #16
 4070              	.LCFI73:
 4071              		.cfi_remember_state
 4072              		.cfi_def_cfa_offset 32
 4073              		@ sp needed
ARM GAS  c:\Users\lenovo\AppData\Local\Temp\ccjcyTZ0.s 			page 107


 4074 0054 BDE8F087 		pop	{r4, r5, r6, r7, r8, r9, r10, pc}
 4075              	.LVL642:
 4076              	.L331:
 4077              	.LCFI74:
 4078              		.cfi_restore_state
 446:C:/Users/lenovo/Desktop/liteos/Project2/BearPi_LiteOS/components/security/mbedtls/mbedtls-2.6.0/library\bignum.c **** 
 4079              		.loc 1 446 0
 4080 0058 0021     		movs	r1, #0
 4081 005a 2046     		mov	r0, r4
 4082              	.LVL643:
 4083 005c FFF7FEFF 		bl	mbedtls_mpi_lset
 4084              	.LVL644:
 4085 0060 0646     		mov	r6, r0
 4086 0062 0028     		cmp	r0, #0
 4087 0064 F1D1     		bne	.L319
 448:C:/Users/lenovo/Desktop/liteos/Project2/BearPi_LiteOS/components/security/mbedtls/mbedtls-2.6.0/library\bignum.c ****         {
 4088              		.loc 1 448 0
 4089 0066 0025     		movs	r5, #0
 4090              	.LVL645:
 4091              	.L320:
 448:C:/Users/lenovo/Desktop/liteos/Project2/BearPi_LiteOS/components/security/mbedtls/mbedtls-2.6.0/library\bignum.c ****         {
 4092              		.loc 1 448 0 is_stmt 0 discriminator 1
 4093 0068 B8F1000F 		cmp	r8, #0
 4094 006c EDD0     		beq	.L319
 450:C:/Users/lenovo/Desktop/liteos/Project2/BearPi_LiteOS/components/security/mbedtls/mbedtls-2.6.0/library\bignum.c ****             {
 4095              		.loc 1 450 0 is_stmt 1
 4096 006e B8F1010F 		cmp	r8, #1
 4097 0072 19D0     		beq	.L332
 4098              	.L321:
 456:C:/Users/lenovo/Desktop/liteos/Project2/BearPi_LiteOS/components/security/mbedtls/mbedtls-2.6.0/library\bignum.c ****             X->p[j / ( 2 * ciL )] |= d << ( ( j % ( 2 * ciL ) ) << 2 );
 4099              		.loc 1 456 0
 4100 0074 08F1FF38 		add	r8, r8, #-1
 4101              	.LVL646:
 4102 0078 19F80820 		ldrb	r2, [r9, r8]	@ zero_extendqisi2
 4103 007c 3946     		mov	r1, r7
 4104 007e 03A8     		add	r0, sp, #12
 4105 0080 FFF7FEFF 		bl	mpi_get_digit
 4106              	.LVL647:
 4107 0084 0646     		mov	r6, r0
 4108 0086 0028     		cmp	r0, #0
 4109 0088 DFD1     		bne	.L319
 457:C:/Users/lenovo/Desktop/liteos/Project2/BearPi_LiteOS/components/security/mbedtls/mbedtls-2.6.0/library\bignum.c ****         }
 4110              		.loc 1 457 0 discriminator 2
 4111 008a A168     		ldr	r1, [r4, #8]
 4112 008c E808     		lsrs	r0, r5, #3
 4113              	.LVL648:
 4114 008e AA00     		lsls	r2, r5, #2
 4115 0090 02F01C02 		and	r2, r2, #28
 4116 0094 039B     		ldr	r3, [sp, #12]
 4117 0096 03FA02F2 		lsl	r2, r3, r2
 4118 009a 51F82030 		ldr	r3, [r1, r0, lsl #2]
 4119 009e 1343     		orrs	r3, r3, r2
 4120 00a0 41F82030 		str	r3, [r1, r0, lsl #2]
 4121              	.LVL649:
 448:C:/Users/lenovo/Desktop/liteos/Project2/BearPi_LiteOS/components/security/mbedtls/mbedtls-2.6.0/library\bignum.c ****         {
 4122              		.loc 1 448 0 discriminator 2
 4123 00a4 0135     		adds	r5, r5, #1
ARM GAS  c:\Users\lenovo\AppData\Local\Temp\ccjcyTZ0.s 			page 108


 4124              	.LVL650:
 4125 00a6 DFE7     		b	.L320
 4126              	.L332:
 450:C:/Users/lenovo/Desktop/liteos/Project2/BearPi_LiteOS/components/security/mbedtls/mbedtls-2.6.0/library\bignum.c ****             {
 4127              		.loc 1 450 0 discriminator 1
 4128 00a8 09EB0803 		add	r3, r9, r8
 4129 00ac 13F8013C 		ldrb	r3, [r3, #-1]	@ zero_extendqisi2
 4130 00b0 2D2B     		cmp	r3, #45
 4131 00b2 DFD1     		bne	.L321
 452:C:/Users/lenovo/Desktop/liteos/Project2/BearPi_LiteOS/components/security/mbedtls/mbedtls-2.6.0/library\bignum.c ****                 break;
 4132              		.loc 1 452 0
 4133 00b4 4FF0FF33 		mov	r3, #-1
 4134 00b8 2360     		str	r3, [r4]
 453:C:/Users/lenovo/Desktop/liteos/Project2/BearPi_LiteOS/components/security/mbedtls/mbedtls-2.6.0/library\bignum.c ****             }
 4135              		.loc 1 453 0
 4136 00ba C6E7     		b	.L319
 4137              	.LVL651:
 4138              	.L318:
 462:C:/Users/lenovo/Desktop/liteos/Project2/BearPi_LiteOS/components/security/mbedtls/mbedtls-2.6.0/library\bignum.c **** 
 4139              		.loc 1 462 0
 4140 00bc 0021     		movs	r1, #0
 4141 00be 2046     		mov	r0, r4
 4142              	.LVL652:
 4143 00c0 FFF7FEFF 		bl	mbedtls_mpi_lset
 4144              	.LVL653:
 4145 00c4 0646     		mov	r6, r0
 4146 00c6 0028     		cmp	r0, #0
 4147 00c8 BFD1     		bne	.L319
 464:C:/Users/lenovo/Desktop/liteos/Project2/BearPi_LiteOS/components/security/mbedtls/mbedtls-2.6.0/library\bignum.c ****         {
 4148              		.loc 1 464 0
 4149 00ca 0025     		movs	r5, #0
 4150 00cc 10E0     		b	.L323
 4151              	.LVL654:
 4152              	.L333:
 466:C:/Users/lenovo/Desktop/liteos/Project2/BearPi_LiteOS/components/security/mbedtls/mbedtls-2.6.0/library\bignum.c ****             {
 4153              		.loc 1 466 0 discriminator 1
 4154 00ce 19F80530 		ldrb	r3, [r9, r5]	@ zero_extendqisi2
 4155 00d2 2D2B     		cmp	r3, #45
 4156 00d4 10D1     		bne	.L324
 468:C:/Users/lenovo/Desktop/liteos/Project2/BearPi_LiteOS/components/security/mbedtls/mbedtls-2.6.0/library\bignum.c ****                 continue;
 4157              		.loc 1 468 0
 4158 00d6 4FF0FF33 		mov	r3, #-1
 4159 00da 2360     		str	r3, [r4]
 469:C:/Users/lenovo/Desktop/liteos/Project2/BearPi_LiteOS/components/security/mbedtls/mbedtls-2.6.0/library\bignum.c ****             }
 4160              		.loc 1 469 0
 4161 00dc 07E0     		b	.L325
 4162              	.L334:
 477:C:/Users/lenovo/Desktop/liteos/Project2/BearPi_LiteOS/components/security/mbedtls/mbedtls-2.6.0/library\bignum.c ****             }
 4163              		.loc 1 477 0
 4164 00de 039A     		ldr	r2, [sp, #12]
 4165 00e0 6946     		mov	r1, sp
 4166 00e2 2046     		mov	r0, r4
 4167              	.LVL655:
 4168 00e4 FFF7FEFF 		bl	mbedtls_mpi_add_int
 4169              	.LVL656:
 4170 00e8 0646     		mov	r6, r0
 4171 00ea 0028     		cmp	r0, #0
ARM GAS  c:\Users\lenovo\AppData\Local\Temp\ccjcyTZ0.s 			page 109


 4172 00ec ADD1     		bne	.L319
 4173              	.L325:
 464:C:/Users/lenovo/Desktop/liteos/Project2/BearPi_LiteOS/components/security/mbedtls/mbedtls-2.6.0/library\bignum.c ****         {
 4174              		.loc 1 464 0 discriminator 2
 4175 00ee 0135     		adds	r5, r5, #1
 4176              	.LVL657:
 4177              	.L323:
 464:C:/Users/lenovo/Desktop/liteos/Project2/BearPi_LiteOS/components/security/mbedtls/mbedtls-2.6.0/library\bignum.c ****         {
 4178              		.loc 1 464 0 is_stmt 0 discriminator 1
 4179 00f0 4545     		cmp	r5, r8
 4180 00f2 AAD2     		bcs	.L319
 466:C:/Users/lenovo/Desktop/liteos/Project2/BearPi_LiteOS/components/security/mbedtls/mbedtls-2.6.0/library\bignum.c ****             {
 4181              		.loc 1 466 0 is_stmt 1
 4182 00f4 002D     		cmp	r5, #0
 4183 00f6 EAD0     		beq	.L333
 4184              	.L324:
 472:C:/Users/lenovo/Desktop/liteos/Project2/BearPi_LiteOS/components/security/mbedtls/mbedtls-2.6.0/library\bignum.c ****             MBEDTLS_MPI_CHK( mbedtls_mpi_mul_int( &T, X, radix ) );
 4185              		.loc 1 472 0
 4186 00f8 19F80520 		ldrb	r2, [r9, r5]	@ zero_extendqisi2
 4187 00fc 3946     		mov	r1, r7
 4188 00fe 03A8     		add	r0, sp, #12
 4189              	.LVL658:
 4190 0100 FFF7FEFF 		bl	mpi_get_digit
 4191              	.LVL659:
 4192 0104 0646     		mov	r6, r0
 4193 0106 0028     		cmp	r0, #0
 4194 0108 9FD1     		bne	.L319
 473:C:/Users/lenovo/Desktop/liteos/Project2/BearPi_LiteOS/components/security/mbedtls/mbedtls-2.6.0/library\bignum.c **** 
 4195              		.loc 1 473 0
 4196 010a 5246     		mov	r2, r10
 4197 010c 2146     		mov	r1, r4
 4198 010e 6846     		mov	r0, sp
 4199              	.LVL660:
 4200 0110 FFF7FEFF 		bl	mbedtls_mpi_mul_int
 4201              	.LVL661:
 4202 0114 0646     		mov	r6, r0
 4203 0116 0028     		cmp	r0, #0
 4204 0118 97D1     		bne	.L319
 475:C:/Users/lenovo/Desktop/liteos/Project2/BearPi_LiteOS/components/security/mbedtls/mbedtls-2.6.0/library\bignum.c ****             {
 4205              		.loc 1 475 0
 4206 011a 2368     		ldr	r3, [r4]
 4207 011c 012B     		cmp	r3, #1
 4208 011e DED0     		beq	.L334
 481:C:/Users/lenovo/Desktop/liteos/Project2/BearPi_LiteOS/components/security/mbedtls/mbedtls-2.6.0/library\bignum.c ****             }
 4209              		.loc 1 481 0
 4210 0120 039A     		ldr	r2, [sp, #12]
 4211 0122 6946     		mov	r1, sp
 4212 0124 2046     		mov	r0, r4
 4213              	.LVL662:
 4214 0126 FFF7FEFF 		bl	mbedtls_mpi_sub_int
 4215              	.LVL663:
 4216 012a 0646     		mov	r6, r0
 4217 012c 0028     		cmp	r0, #0
 4218 012e DED0     		beq	.L325
 486:C:/Users/lenovo/Desktop/liteos/Project2/BearPi_LiteOS/components/security/mbedtls/mbedtls-2.6.0/library\bignum.c **** 
 4219              		.loc 1 486 0
 4220 0130 8BE7     		b	.L319
ARM GAS  c:\Users\lenovo\AppData\Local\Temp\ccjcyTZ0.s 			page 110


 4221              	.LVL664:
 4222              	.L328:
 432:C:/Users/lenovo/Desktop/liteos/Project2/BearPi_LiteOS/components/security/mbedtls/mbedtls-2.6.0/library\bignum.c **** 
 4223              		.loc 1 432 0
 4224 0132 6FF00306 		mvn	r6, #3
 4225 0136 8BE7     		b	.L316
 4226              	.LVL665:
 4227              	.L329:
 441:C:/Users/lenovo/Desktop/liteos/Project2/BearPi_LiteOS/components/security/mbedtls/mbedtls-2.6.0/library\bignum.c **** 
 4228              		.loc 1 441 0
 4229 0138 6FF00306 		mvn	r6, #3
 4230 013c 88E7     		b	.L316
 4231              		.cfi_endproc
 4232              	.LFE20:
 4234              		.section	.text.mbedtls_mpi_div_mpi,"ax",%progbits
 4235              		.align	1
 4236              		.global	mbedtls_mpi_div_mpi
 4237              		.syntax unified
 4238              		.thumb
 4239              		.thumb_func
 4240              		.fpu fpv4-sp-d16
 4242              	mbedtls_mpi_div_mpi:
 4243              	.LFB41:
1323:C:/Users/lenovo/Desktop/liteos/Project2/BearPi_LiteOS/components/security/mbedtls/mbedtls-2.6.0/library\bignum.c ****     int ret;
 4244              		.loc 1 1323 0
 4245              		.cfi_startproc
 4246              		@ args = 0, pretend = 0, frame = 88
 4247              		@ frame_needed = 0, uses_anonymous_args = 0
 4248              	.LVL666:
 4249 0000 2DE9F04F 		push	{r4, r5, r6, r7, r8, r9, r10, fp, lr}
 4250              	.LCFI75:
 4251              		.cfi_def_cfa_offset 36
 4252              		.cfi_offset 4, -36
 4253              		.cfi_offset 5, -32
 4254              		.cfi_offset 6, -28
 4255              		.cfi_offset 7, -24
 4256              		.cfi_offset 8, -20
 4257              		.cfi_offset 9, -16
 4258              		.cfi_offset 10, -12
 4259              		.cfi_offset 11, -8
 4260              		.cfi_offset 14, -4
 4261 0004 97B0     		sub	sp, sp, #92
 4262              	.LCFI76:
 4263              		.cfi_def_cfa_offset 128
 4264 0006 0746     		mov	r7, r0
 4265 0008 8846     		mov	r8, r1
 4266 000a 1546     		mov	r5, r2
 4267 000c 1C46     		mov	r4, r3
1328:C:/Users/lenovo/Desktop/liteos/Project2/BearPi_LiteOS/components/security/mbedtls/mbedtls-2.6.0/library\bignum.c ****         return( MBEDTLS_ERR_MPI_DIVISION_BY_ZERO );
 4268              		.loc 1 1328 0
 4269 000e 0021     		movs	r1, #0
 4270              	.LVL667:
 4271 0010 1846     		mov	r0, r3
 4272              	.LVL668:
 4273 0012 FFF7FEFF 		bl	mbedtls_mpi_cmp_int
 4274              	.LVL669:
 4275 0016 0028     		cmp	r0, #0
ARM GAS  c:\Users\lenovo\AppData\Local\Temp\ccjcyTZ0.s 			page 111


 4276 0018 00F0C181 		beq	.L353
1331:C:/Users/lenovo/Desktop/liteos/Project2/BearPi_LiteOS/components/security/mbedtls/mbedtls-2.6.0/library\bignum.c ****     mbedtls_mpi_init( &T1 ); mbedtls_mpi_init( &T2 );
 4277              		.loc 1 1331 0
 4278 001c 13A8     		add	r0, sp, #76
 4279 001e FFF7FEFF 		bl	mbedtls_mpi_init
 4280              	.LVL670:
 4281 0022 10A8     		add	r0, sp, #64
 4282 0024 FFF7FEFF 		bl	mbedtls_mpi_init
 4283              	.LVL671:
 4284 0028 0DA8     		add	r0, sp, #52
 4285 002a FFF7FEFF 		bl	mbedtls_mpi_init
 4286              	.LVL672:
1332:C:/Users/lenovo/Desktop/liteos/Project2/BearPi_LiteOS/components/security/mbedtls/mbedtls-2.6.0/library\bignum.c **** 
 4287              		.loc 1 1332 0
 4288 002e 0AA8     		add	r0, sp, #40
 4289 0030 FFF7FEFF 		bl	mbedtls_mpi_init
 4290              	.LVL673:
 4291 0034 07A8     		add	r0, sp, #28
 4292 0036 FFF7FEFF 		bl	mbedtls_mpi_init
 4293              	.LVL674:
1334:C:/Users/lenovo/Desktop/liteos/Project2/BearPi_LiteOS/components/security/mbedtls/mbedtls-2.6.0/library\bignum.c ****     {
 4294              		.loc 1 1334 0
 4295 003a 2146     		mov	r1, r4
 4296 003c 2846     		mov	r0, r5
 4297 003e FFF7FEFF 		bl	mbedtls_mpi_cmp_abs
 4298              	.LVL675:
 4299 0042 0028     		cmp	r0, #0
 4300 0044 11DA     		bge	.L337
1336:C:/Users/lenovo/Desktop/liteos/Project2/BearPi_LiteOS/components/security/mbedtls/mbedtls-2.6.0/library\bignum.c ****         if( R != NULL ) MBEDTLS_MPI_CHK( mbedtls_mpi_copy( R, A ) );
 4301              		.loc 1 1336 0
 4302 0046 2FB1     		cbz	r7, .L338
1336:C:/Users/lenovo/Desktop/liteos/Project2/BearPi_LiteOS/components/security/mbedtls/mbedtls-2.6.0/library\bignum.c ****         if( R != NULL ) MBEDTLS_MPI_CHK( mbedtls_mpi_copy( R, A ) );
 4303              		.loc 1 1336 0 is_stmt 0 discriminator 1
 4304 0048 0021     		movs	r1, #0
 4305 004a 3846     		mov	r0, r7
 4306 004c FFF7FEFF 		bl	mbedtls_mpi_lset
 4307              	.LVL676:
 4308 0050 0646     		mov	r6, r0
 4309 0052 80B9     		cbnz	r0, .L339
 4310              	.LVL677:
 4311              	.L338:
1337:C:/Users/lenovo/Desktop/liteos/Project2/BearPi_LiteOS/components/security/mbedtls/mbedtls-2.6.0/library\bignum.c ****         return( 0 );
 4312              		.loc 1 1337 0 is_stmt 1
 4313 0054 B8F1000F 		cmp	r8, #0
 4314 0058 00F0A481 		beq	.L354
1337:C:/Users/lenovo/Desktop/liteos/Project2/BearPi_LiteOS/components/security/mbedtls/mbedtls-2.6.0/library\bignum.c ****         return( 0 );
 4315              		.loc 1 1337 0 is_stmt 0 discriminator 1
 4316 005c 2946     		mov	r1, r5
 4317 005e 4046     		mov	r0, r8
 4318 0060 FFF7FEFF 		bl	mbedtls_mpi_copy
 4319              	.LVL678:
 4320 0064 0646     		mov	r6, r0
 4321 0066 30B9     		cbnz	r0, .L339
 4322 0068 14E0     		b	.L335
 4323              	.LVL679:
 4324              	.L337:
1341:C:/Users/lenovo/Desktop/liteos/Project2/BearPi_LiteOS/components/security/mbedtls/mbedtls-2.6.0/library\bignum.c ****     MBEDTLS_MPI_CHK( mbedtls_mpi_copy( &Y, B ) );
ARM GAS  c:\Users\lenovo\AppData\Local\Temp\ccjcyTZ0.s 			page 112


 4325              		.loc 1 1341 0 is_stmt 1
 4326 006a 2946     		mov	r1, r5
 4327 006c 13A8     		add	r0, sp, #76
 4328 006e FFF7FEFF 		bl	mbedtls_mpi_copy
 4329              	.LVL680:
 4330 0072 0646     		mov	r6, r0
 4331 0074 90B1     		cbz	r0, .L370
 4332              	.LVL681:
 4333              	.L339:
1428:C:/Users/lenovo/Desktop/liteos/Project2/BearPi_LiteOS/components/security/mbedtls/mbedtls-2.6.0/library\bignum.c ****     mbedtls_mpi_free( &T1 ); mbedtls_mpi_free( &T2 );
 4334              		.loc 1 1428 0
 4335 0076 13A8     		add	r0, sp, #76
 4336 0078 FFF7FEFF 		bl	mbedtls_mpi_free
 4337              	.LVL682:
 4338 007c 10A8     		add	r0, sp, #64
 4339 007e FFF7FEFF 		bl	mbedtls_mpi_free
 4340              	.LVL683:
 4341 0082 0DA8     		add	r0, sp, #52
 4342 0084 FFF7FEFF 		bl	mbedtls_mpi_free
 4343              	.LVL684:
1429:C:/Users/lenovo/Desktop/liteos/Project2/BearPi_LiteOS/components/security/mbedtls/mbedtls-2.6.0/library\bignum.c **** 
 4344              		.loc 1 1429 0
 4345 0088 0AA8     		add	r0, sp, #40
 4346 008a FFF7FEFF 		bl	mbedtls_mpi_free
 4347              	.LVL685:
 4348 008e 07A8     		add	r0, sp, #28
 4349 0090 FFF7FEFF 		bl	mbedtls_mpi_free
 4350              	.LVL686:
 4351              	.L335:
1432:C:/Users/lenovo/Desktop/liteos/Project2/BearPi_LiteOS/components/security/mbedtls/mbedtls-2.6.0/library\bignum.c **** 
 4352              		.loc 1 1432 0
 4353 0094 3046     		mov	r0, r6
 4354 0096 17B0     		add	sp, sp, #92
 4355              	.LCFI77:
 4356              		.cfi_remember_state
 4357              		.cfi_def_cfa_offset 36
 4358              		@ sp needed
 4359 0098 BDE8F08F 		pop	{r4, r5, r6, r7, r8, r9, r10, fp, pc}
 4360              	.LVL687:
 4361              	.L370:
 4362              	.LCFI78:
 4363              		.cfi_restore_state
1342:C:/Users/lenovo/Desktop/liteos/Project2/BearPi_LiteOS/components/security/mbedtls/mbedtls-2.6.0/library\bignum.c ****     X.s = Y.s = 1;
 4364              		.loc 1 1342 0
 4365 009c 2146     		mov	r1, r4
 4366 009e 10A8     		add	r0, sp, #64
 4367              	.LVL688:
 4368 00a0 FFF7FEFF 		bl	mbedtls_mpi_copy
 4369              	.LVL689:
 4370 00a4 0646     		mov	r6, r0
 4371 00a6 0028     		cmp	r0, #0
 4372 00a8 E5D1     		bne	.L339
1343:C:/Users/lenovo/Desktop/liteos/Project2/BearPi_LiteOS/components/security/mbedtls/mbedtls-2.6.0/library\bignum.c **** 
 4373              		.loc 1 1343 0
 4374 00aa 0123     		movs	r3, #1
 4375 00ac 1093     		str	r3, [sp, #64]
 4376 00ae 1393     		str	r3, [sp, #76]
ARM GAS  c:\Users\lenovo\AppData\Local\Temp\ccjcyTZ0.s 			page 113


1345:C:/Users/lenovo/Desktop/liteos/Project2/BearPi_LiteOS/components/security/mbedtls/mbedtls-2.6.0/library\bignum.c ****     MBEDTLS_MPI_CHK( mbedtls_mpi_lset( &Z,  0 ) );
 4377              		.loc 1 1345 0
 4378 00b0 6968     		ldr	r1, [r5, #4]
 4379 00b2 0231     		adds	r1, r1, #2
 4380 00b4 0DA8     		add	r0, sp, #52
 4381              	.LVL690:
 4382 00b6 FFF7FEFF 		bl	mbedtls_mpi_grow
 4383              	.LVL691:
 4384 00ba 0646     		mov	r6, r0
 4385 00bc 0028     		cmp	r0, #0
 4386 00be DAD1     		bne	.L339
1346:C:/Users/lenovo/Desktop/liteos/Project2/BearPi_LiteOS/components/security/mbedtls/mbedtls-2.6.0/library\bignum.c ****     MBEDTLS_MPI_CHK( mbedtls_mpi_grow( &T1, 2 ) );
 4387              		.loc 1 1346 0
 4388 00c0 0021     		movs	r1, #0
 4389 00c2 0DA8     		add	r0, sp, #52
 4390              	.LVL692:
 4391 00c4 FFF7FEFF 		bl	mbedtls_mpi_lset
 4392              	.LVL693:
 4393 00c8 0646     		mov	r6, r0
 4394 00ca 0028     		cmp	r0, #0
 4395 00cc D3D1     		bne	.L339
1347:C:/Users/lenovo/Desktop/liteos/Project2/BearPi_LiteOS/components/security/mbedtls/mbedtls-2.6.0/library\bignum.c ****     MBEDTLS_MPI_CHK( mbedtls_mpi_grow( &T2, 3 ) );
 4396              		.loc 1 1347 0
 4397 00ce 0221     		movs	r1, #2
 4398 00d0 0AA8     		add	r0, sp, #40
 4399              	.LVL694:
 4400 00d2 FFF7FEFF 		bl	mbedtls_mpi_grow
 4401              	.LVL695:
 4402 00d6 0646     		mov	r6, r0
 4403 00d8 0028     		cmp	r0, #0
 4404 00da CCD1     		bne	.L339
1348:C:/Users/lenovo/Desktop/liteos/Project2/BearPi_LiteOS/components/security/mbedtls/mbedtls-2.6.0/library\bignum.c **** 
 4405              		.loc 1 1348 0
 4406 00dc 0321     		movs	r1, #3
 4407 00de 07A8     		add	r0, sp, #28
 4408              	.LVL696:
 4409 00e0 FFF7FEFF 		bl	mbedtls_mpi_grow
 4410              	.LVL697:
 4411 00e4 0646     		mov	r6, r0
 4412 00e6 0028     		cmp	r0, #0
 4413 00e8 C5D1     		bne	.L339
1350:C:/Users/lenovo/Desktop/liteos/Project2/BearPi_LiteOS/components/security/mbedtls/mbedtls-2.6.0/library\bignum.c ****     if( k < biL - 1 )
 4414              		.loc 1 1350 0
 4415 00ea 10A8     		add	r0, sp, #64
 4416              	.LVL698:
 4417 00ec FFF7FEFF 		bl	mbedtls_mpi_bitlen
 4418              	.LVL699:
 4419 00f0 00F01F00 		and	r0, r0, #31
 4420              	.LVL700:
1351:C:/Users/lenovo/Desktop/liteos/Project2/BearPi_LiteOS/components/security/mbedtls/mbedtls-2.6.0/library\bignum.c ****     {
 4421              		.loc 1 1351 0
 4422 00f4 1E28     		cmp	r0, #30
 4423 00f6 11D8     		bhi	.L355
1353:C:/Users/lenovo/Desktop/liteos/Project2/BearPi_LiteOS/components/security/mbedtls/mbedtls-2.6.0/library\bignum.c ****         MBEDTLS_MPI_CHK( mbedtls_mpi_shift_l( &X, k ) );
 4424              		.loc 1 1353 0
 4425 00f8 C0F11F03 		rsb	r3, r0, #31
 4426 00fc 0093     		str	r3, [sp]
ARM GAS  c:\Users\lenovo\AppData\Local\Temp\ccjcyTZ0.s 			page 114


 4427              	.LVL701:
1354:C:/Users/lenovo/Desktop/liteos/Project2/BearPi_LiteOS/components/security/mbedtls/mbedtls-2.6.0/library\bignum.c ****         MBEDTLS_MPI_CHK( mbedtls_mpi_shift_l( &Y, k ) );
 4428              		.loc 1 1354 0
 4429 00fe 1946     		mov	r1, r3
 4430 0100 13A8     		add	r0, sp, #76
 4431 0102 FFF7FEFF 		bl	mbedtls_mpi_shift_l
 4432              	.LVL702:
 4433 0106 0646     		mov	r6, r0
 4434 0108 0028     		cmp	r0, #0
 4435 010a B4D1     		bne	.L339
1355:C:/Users/lenovo/Desktop/liteos/Project2/BearPi_LiteOS/components/security/mbedtls/mbedtls-2.6.0/library\bignum.c ****     }
 4436              		.loc 1 1355 0
 4437 010c 0099     		ldr	r1, [sp]
 4438 010e 10A8     		add	r0, sp, #64
 4439              	.LVL703:
 4440 0110 FFF7FEFF 		bl	mbedtls_mpi_shift_l
 4441              	.LVL704:
 4442 0114 0646     		mov	r6, r0
 4443 0116 0028     		cmp	r0, #0
 4444 0118 ADD1     		bne	.L339
 4445 011a 01E0     		b	.L340
 4446              	.LVL705:
 4447              	.L355:
1357:C:/Users/lenovo/Desktop/liteos/Project2/BearPi_LiteOS/components/security/mbedtls/mbedtls-2.6.0/library\bignum.c **** 
 4448              		.loc 1 1357 0
 4449 011c 0023     		movs	r3, #0
 4450 011e 0093     		str	r3, [sp]
 4451              	.LVL706:
 4452              	.L340:
1359:C:/Users/lenovo/Desktop/liteos/Project2/BearPi_LiteOS/components/security/mbedtls/mbedtls-2.6.0/library\bignum.c ****     t = Y.n - 1;
 4453              		.loc 1 1359 0
 4454 0120 149B     		ldr	r3, [sp, #80]
 4455 0122 03F1FF3B 		add	fp, r3, #-1
 4456              	.LVL707:
1360:C:/Users/lenovo/Desktop/liteos/Project2/BearPi_LiteOS/components/security/mbedtls/mbedtls-2.6.0/library\bignum.c ****     MBEDTLS_MPI_CHK( mbedtls_mpi_shift_l( &Y, biL * ( n - t ) ) );
 4457              		.loc 1 1360 0
 4458 0126 119B     		ldr	r3, [sp, #68]
 4459 0128 0193     		str	r3, [sp, #4]
 4460 012a 013B     		subs	r3, r3, #1
 4461 012c 0293     		str	r3, [sp, #8]
 4462              	.LVL708:
1361:C:/Users/lenovo/Desktop/liteos/Project2/BearPi_LiteOS/components/security/mbedtls/mbedtls-2.6.0/library\bignum.c **** 
 4463              		.loc 1 1361 0
 4464 012e ABEB0309 		sub	r9, fp, r3
 4465 0132 4FEA491A 		lsl	r10, r9, #5
 4466 0136 5146     		mov	r1, r10
 4467 0138 10A8     		add	r0, sp, #64
 4468 013a FFF7FEFF 		bl	mbedtls_mpi_shift_l
 4469              	.LVL709:
 4470 013e 0646     		mov	r6, r0
 4471 0140 0028     		cmp	r0, #0
 4472 0142 98D1     		bne	.L339
 4473              	.L341:
1363:C:/Users/lenovo/Desktop/liteos/Project2/BearPi_LiteOS/components/security/mbedtls/mbedtls-2.6.0/library\bignum.c ****     {
 4474              		.loc 1 1363 0
 4475 0144 10A9     		add	r1, sp, #64
 4476 0146 13A8     		add	r0, sp, #76
ARM GAS  c:\Users\lenovo\AppData\Local\Temp\ccjcyTZ0.s 			page 115


 4477              	.LVL710:
 4478 0148 FFF7FEFF 		bl	mbedtls_mpi_cmp_mpi
 4479              	.LVL711:
 4480 014c 0028     		cmp	r0, #0
 4481 014e 0EDB     		blt	.L371
1365:C:/Users/lenovo/Desktop/liteos/Project2/BearPi_LiteOS/components/security/mbedtls/mbedtls-2.6.0/library\bignum.c ****         MBEDTLS_MPI_CHK( mbedtls_mpi_sub_mpi( &X, &X, &Y ) );
 4482              		.loc 1 1365 0
 4483 0150 0F9A     		ldr	r2, [sp, #60]
 4484 0152 52F82930 		ldr	r3, [r2, r9, lsl #2]
 4485 0156 0133     		adds	r3, r3, #1
 4486 0158 42F82930 		str	r3, [r2, r9, lsl #2]
1366:C:/Users/lenovo/Desktop/liteos/Project2/BearPi_LiteOS/components/security/mbedtls/mbedtls-2.6.0/library\bignum.c ****     }
 4487              		.loc 1 1366 0
 4488 015c 10AA     		add	r2, sp, #64
 4489 015e 13A9     		add	r1, sp, #76
 4490 0160 0846     		mov	r0, r1
 4491 0162 FFF7FEFF 		bl	mbedtls_mpi_sub_mpi
 4492              	.LVL712:
 4493 0166 0646     		mov	r6, r0
 4494 0168 0028     		cmp	r0, #0
 4495 016a EBD0     		beq	.L341
1426:C:/Users/lenovo/Desktop/liteos/Project2/BearPi_LiteOS/components/security/mbedtls/mbedtls-2.6.0/library\bignum.c **** 
 4496              		.loc 1 1426 0
 4497 016c 83E7     		b	.L339
 4498              	.LVL713:
 4499              	.L371:
1368:C:/Users/lenovo/Desktop/liteos/Project2/BearPi_LiteOS/components/security/mbedtls/mbedtls-2.6.0/library\bignum.c **** 
 4500              		.loc 1 1368 0
 4501 016e 5146     		mov	r1, r10
 4502 0170 10A8     		add	r0, sp, #64
 4503 0172 FFF7FEFF 		bl	mbedtls_mpi_shift_r
 4504              	.LVL714:
 4505 0176 0646     		mov	r6, r0
 4506 0178 0028     		cmp	r0, #0
 4507 017a 7FF47CAF 		bne	.L339
 4508 017e 0495     		str	r5, [sp, #16]
 4509 0180 0594     		str	r4, [sp, #20]
 4510 0182 029C     		ldr	r4, [sp, #8]
 4511              	.LVL715:
 4512              	.L343:
1370:C:/Users/lenovo/Desktop/liteos/Project2/BearPi_LiteOS/components/security/mbedtls/mbedtls-2.6.0/library\bignum.c ****     {
 4513              		.loc 1 1370 0 discriminator 1
 4514 0184 A345     		cmp	fp, r4
 4515 0186 40F2D880 		bls	.L372
1372:C:/Users/lenovo/Desktop/liteos/Project2/BearPi_LiteOS/components/security/mbedtls/mbedtls-2.6.0/library\bignum.c ****             Z.p[i - t - 1] = ~0;
 4516              		.loc 1 1372 0
 4517 018a 1599     		ldr	r1, [sp, #84]
 4518 018c 4FEA8B03 		lsl	r3, fp, #2
 4519 0190 0293     		str	r3, [sp, #8]
 4520 0192 51F82B00 		ldr	r0, [r1, fp, lsl #2]
 4521 0196 A300     		lsls	r3, r4, #2
 4522 0198 0393     		str	r3, [sp, #12]
 4523 019a 129B     		ldr	r3, [sp, #72]
 4524 019c 53F82420 		ldr	r2, [r3, r4, lsl #2]
 4525 01a0 9042     		cmp	r0, r2
 4526 01a2 18D3     		bcc	.L344
1373:C:/Users/lenovo/Desktop/liteos/Project2/BearPi_LiteOS/components/security/mbedtls/mbedtls-2.6.0/library\bignum.c ****         else
ARM GAS  c:\Users\lenovo\AppData\Local\Temp\ccjcyTZ0.s 			page 116


 4527              		.loc 1 1373 0
 4528 01a4 ABEB0403 		sub	r3, fp, r4
 4529 01a8 03F18043 		add	r3, r3, #1073741824
 4530 01ac 013B     		subs	r3, r3, #1
 4531 01ae 0F9A     		ldr	r2, [sp, #60]
 4532 01b0 4FF0FF31 		mov	r1, #-1
 4533 01b4 42F82310 		str	r1, [r2, r3, lsl #2]
 4534              	.LVL716:
 4535              	.L345:
1380:C:/Users/lenovo/Desktop/liteos/Project2/BearPi_LiteOS/components/security/mbedtls/mbedtls-2.6.0/library\bignum.c ****         do
 4536              		.loc 1 1380 0
 4537 01b8 0F9A     		ldr	r2, [sp, #60]
 4538 01ba ABEB0405 		sub	r5, fp, r4
 4539 01be 05F18049 		add	r9, r5, #1073741824
 4540 01c2 09F1FF39 		add	r9, r9, #-1
 4541 01c6 4FEA890A 		lsl	r10, r9, #2
 4542 01ca 52F82930 		ldr	r3, [r2, r9, lsl #2]
 4543 01ce 0133     		adds	r3, r3, #1
 4544 01d0 42F82930 		str	r3, [r2, r9, lsl #2]
 4545 01d4 2AE0     		b	.L349
 4546              	.LVL717:
 4547              	.L344:
1376:C:/Users/lenovo/Desktop/liteos/Project2/BearPi_LiteOS/components/security/mbedtls/mbedtls-2.6.0/library\bignum.c ****                                                             Y.p[t], NULL);
 4548              		.loc 1 1376 0
 4549 01d6 6FF04043 		mvn	r3, #-1073741824
 4550 01da 0BEB030C 		add	ip, fp, r3
 4551 01de 0F9D     		ldr	r5, [sp, #60]
 4552 01e0 ABEB0406 		sub	r6, fp, r4
 4553              	.LVL718:
 4554 01e4 1E44     		add	r6, r6, r3
 4555 01e6 0023     		movs	r3, #0
 4556 01e8 51F82C10 		ldr	r1, [r1, ip, lsl #2]
 4557 01ec FFF7FEFF 		bl	mbedtls_int_div_int
 4558              	.LVL719:
 4559 01f0 45F82600 		str	r0, [r5, r6, lsl #2]
 4560 01f4 E0E7     		b	.L345
 4561              	.LVL720:
 4562              	.L356:
1386:C:/Users/lenovo/Desktop/liteos/Project2/BearPi_LiteOS/components/security/mbedtls/mbedtls-2.6.0/library\bignum.c ****             T1.p[1] = Y.p[t];
 4563              		.loc 1 1386 0
 4564 01f6 0023     		movs	r3, #0
 4565 01f8 2FE0     		b	.L346
 4566              	.L357:
1391:C:/Users/lenovo/Desktop/liteos/Project2/BearPi_LiteOS/components/security/mbedtls/mbedtls-2.6.0/library\bignum.c ****             T2.p[1] = ( i < 1 ) ? 0 : X.p[i - 1];
 4567              		.loc 1 1391 0
 4568 01fa 0023     		movs	r3, #0
 4569              	.L347:
1391:C:/Users/lenovo/Desktop/liteos/Project2/BearPi_LiteOS/components/security/mbedtls/mbedtls-2.6.0/library\bignum.c ****             T2.p[1] = ( i < 1 ) ? 0 : X.p[i - 1];
 4570              		.loc 1 1391 0 is_stmt 0 discriminator 4
 4571 01fc 099A     		ldr	r2, [sp, #36]
 4572 01fe 1360     		str	r3, [r2]
1392:C:/Users/lenovo/Desktop/liteos/Project2/BearPi_LiteOS/components/security/mbedtls/mbedtls-2.6.0/library\bignum.c ****             T2.p[2] = X.p[i];
 4573              		.loc 1 1392 0 is_stmt 1 discriminator 4
 4574 0200 BBF1000F 		cmp	fp, #0
 4575 0204 4DD0     		beq	.L358
1392:C:/Users/lenovo/Desktop/liteos/Project2/BearPi_LiteOS/components/security/mbedtls/mbedtls-2.6.0/library\bignum.c ****             T2.p[2] = X.p[i];
 4576              		.loc 1 1392 0 is_stmt 0 discriminator 1
ARM GAS  c:\Users\lenovo\AppData\Local\Temp\ccjcyTZ0.s 			page 117


 4577 0206 0BF18043 		add	r3, fp, #1073741824
 4578 020a 013B     		subs	r3, r3, #1
 4579 020c 159A     		ldr	r2, [sp, #84]
 4580 020e 52F82330 		ldr	r3, [r2, r3, lsl #2]
 4581              	.L348:
1392:C:/Users/lenovo/Desktop/liteos/Project2/BearPi_LiteOS/components/security/mbedtls/mbedtls-2.6.0/library\bignum.c ****             T2.p[2] = X.p[i];
 4582              		.loc 1 1392 0 discriminator 4
 4583 0212 099A     		ldr	r2, [sp, #36]
 4584 0214 5360     		str	r3, [r2, #4]
1393:C:/Users/lenovo/Desktop/liteos/Project2/BearPi_LiteOS/components/security/mbedtls/mbedtls-2.6.0/library\bignum.c ****         }
 4585              		.loc 1 1393 0 is_stmt 1 discriminator 4
 4586 0216 159B     		ldr	r3, [sp, #84]
 4587 0218 029A     		ldr	r2, [sp, #8]
 4588 021a 9A58     		ldr	r2, [r3, r2]
 4589 021c 099B     		ldr	r3, [sp, #36]
 4590 021e 9A60     		str	r2, [r3, #8]
1395:C:/Users/lenovo/Desktop/liteos/Project2/BearPi_LiteOS/components/security/mbedtls/mbedtls-2.6.0/library\bignum.c **** 
 4591              		.loc 1 1395 0 discriminator 4
 4592 0220 07A9     		add	r1, sp, #28
 4593 0222 0AA8     		add	r0, sp, #40
 4594              	.LVL721:
 4595 0224 FFF7FEFF 		bl	mbedtls_mpi_cmp_mpi
 4596              	.LVL722:
 4597 0228 0028     		cmp	r0, #0
 4598 022a 3CDD     		ble	.L373
 4599              	.LVL723:
 4600              	.L349:
1383:C:/Users/lenovo/Desktop/liteos/Project2/BearPi_LiteOS/components/security/mbedtls/mbedtls-2.6.0/library\bignum.c **** 
 4601              		.loc 1 1383 0
 4602 022c 0F9A     		ldr	r2, [sp, #60]
 4603 022e 52F80A30 		ldr	r3, [r2, r10]
 4604 0232 013B     		subs	r3, r3, #1
 4605 0234 42F80A30 		str	r3, [r2, r10]
1385:C:/Users/lenovo/Desktop/liteos/Project2/BearPi_LiteOS/components/security/mbedtls/mbedtls-2.6.0/library\bignum.c ****             T1.p[0] = ( t < 1 ) ? 0 : Y.p[t - 1];
 4606              		.loc 1 1385 0
 4607 0238 0021     		movs	r1, #0
 4608 023a 0AA8     		add	r0, sp, #40
 4609 023c FFF7FEFF 		bl	mbedtls_mpi_lset
 4610              	.LVL724:
 4611 0240 0646     		mov	r6, r0
 4612 0242 0028     		cmp	r0, #0
 4613 0244 7FF417AF 		bne	.L339
1386:C:/Users/lenovo/Desktop/liteos/Project2/BearPi_LiteOS/components/security/mbedtls/mbedtls-2.6.0/library\bignum.c ****             T1.p[1] = Y.p[t];
 4614              		.loc 1 1386 0
 4615 0248 002C     		cmp	r4, #0
 4616 024a D4D0     		beq	.L356
1386:C:/Users/lenovo/Desktop/liteos/Project2/BearPi_LiteOS/components/security/mbedtls/mbedtls-2.6.0/library\bignum.c ****             T1.p[1] = Y.p[t];
 4617              		.loc 1 1386 0 is_stmt 0 discriminator 1
 4618 024c 019B     		ldr	r3, [sp, #4]
 4619 024e 03F18043 		add	r3, r3, #1073741824
 4620 0252 023B     		subs	r3, r3, #2
 4621 0254 129A     		ldr	r2, [sp, #72]
 4622 0256 52F82330 		ldr	r3, [r2, r3, lsl #2]
 4623              	.L346:
1386:C:/Users/lenovo/Desktop/liteos/Project2/BearPi_LiteOS/components/security/mbedtls/mbedtls-2.6.0/library\bignum.c ****             T1.p[1] = Y.p[t];
 4624              		.loc 1 1386 0 discriminator 4
 4625 025a 0C9A     		ldr	r2, [sp, #48]
ARM GAS  c:\Users\lenovo\AppData\Local\Temp\ccjcyTZ0.s 			page 118


 4626 025c 1360     		str	r3, [r2]
1387:C:/Users/lenovo/Desktop/liteos/Project2/BearPi_LiteOS/components/security/mbedtls/mbedtls-2.6.0/library\bignum.c ****             MBEDTLS_MPI_CHK( mbedtls_mpi_mul_int( &T1, &T1, Z.p[i - t - 1] ) );
 4627              		.loc 1 1387 0 is_stmt 1 discriminator 4
 4628 025e 129B     		ldr	r3, [sp, #72]
 4629 0260 039A     		ldr	r2, [sp, #12]
 4630 0262 9A58     		ldr	r2, [r3, r2]
 4631 0264 0C9B     		ldr	r3, [sp, #48]
 4632 0266 5A60     		str	r2, [r3, #4]
1388:C:/Users/lenovo/Desktop/liteos/Project2/BearPi_LiteOS/components/security/mbedtls/mbedtls-2.6.0/library\bignum.c **** 
 4633              		.loc 1 1388 0 discriminator 4
 4634 0268 0F9B     		ldr	r3, [sp, #60]
 4635 026a 53F80A20 		ldr	r2, [r3, r10]
 4636 026e 0AA9     		add	r1, sp, #40
 4637 0270 0846     		mov	r0, r1
 4638              	.LVL725:
 4639 0272 FFF7FEFF 		bl	mbedtls_mpi_mul_int
 4640              	.LVL726:
 4641 0276 0646     		mov	r6, r0
 4642 0278 0028     		cmp	r0, #0
 4643 027a 7FF4FCAE 		bne	.L339
1390:C:/Users/lenovo/Desktop/liteos/Project2/BearPi_LiteOS/components/security/mbedtls/mbedtls-2.6.0/library\bignum.c ****             T2.p[0] = ( i < 2 ) ? 0 : X.p[i - 2];
 4644              		.loc 1 1390 0
 4645 027e 0021     		movs	r1, #0
 4646 0280 07A8     		add	r0, sp, #28
 4647              	.LVL727:
 4648 0282 FFF7FEFF 		bl	mbedtls_mpi_lset
 4649              	.LVL728:
 4650 0286 0646     		mov	r6, r0
 4651 0288 0028     		cmp	r0, #0
 4652 028a 7FF4F4AE 		bne	.L339
1391:C:/Users/lenovo/Desktop/liteos/Project2/BearPi_LiteOS/components/security/mbedtls/mbedtls-2.6.0/library\bignum.c ****             T2.p[1] = ( i < 1 ) ? 0 : X.p[i - 1];
 4653              		.loc 1 1391 0
 4654 028e BBF1010F 		cmp	fp, #1
 4655 0292 B2D9     		bls	.L357
1391:C:/Users/lenovo/Desktop/liteos/Project2/BearPi_LiteOS/components/security/mbedtls/mbedtls-2.6.0/library\bignum.c ****             T2.p[1] = ( i < 1 ) ? 0 : X.p[i - 1];
 4656              		.loc 1 1391 0 is_stmt 0 discriminator 1
 4657 0294 0BF18043 		add	r3, fp, #1073741824
 4658 0298 023B     		subs	r3, r3, #2
 4659 029a 159A     		ldr	r2, [sp, #84]
 4660 029c 52F82330 		ldr	r3, [r2, r3, lsl #2]
 4661 02a0 ACE7     		b	.L347
 4662              	.L358:
1392:C:/Users/lenovo/Desktop/liteos/Project2/BearPi_LiteOS/components/security/mbedtls/mbedtls-2.6.0/library\bignum.c ****             T2.p[2] = X.p[i];
 4663              		.loc 1 1392 0 is_stmt 1
 4664 02a2 0023     		movs	r3, #0
 4665 02a4 B5E7     		b	.L348
 4666              	.LVL729:
 4667              	.L373:
1397:C:/Users/lenovo/Desktop/liteos/Project2/BearPi_LiteOS/components/security/mbedtls/mbedtls-2.6.0/library\bignum.c ****         MBEDTLS_MPI_CHK( mbedtls_mpi_shift_l( &T1,  biL * ( i - t - 1 ) ) );
 4668              		.loc 1 1397 0
 4669 02a6 0F9B     		ldr	r3, [sp, #60]
 4670 02a8 53F82920 		ldr	r2, [r3, r9, lsl #2]
 4671 02ac 10A9     		add	r1, sp, #64
 4672 02ae 0AA8     		add	r0, sp, #40
 4673 02b0 FFF7FEFF 		bl	mbedtls_mpi_mul_int
 4674              	.LVL730:
 4675 02b4 0646     		mov	r6, r0
ARM GAS  c:\Users\lenovo\AppData\Local\Temp\ccjcyTZ0.s 			page 119


 4676 02b6 0028     		cmp	r0, #0
 4677 02b8 7FF4DDAE 		bne	.L339
1398:C:/Users/lenovo/Desktop/liteos/Project2/BearPi_LiteOS/components/security/mbedtls/mbedtls-2.6.0/library\bignum.c ****         MBEDTLS_MPI_CHK( mbedtls_mpi_sub_mpi( &X, &X, &T1 ) );
 4678              		.loc 1 1398 0
 4679 02bc 05F1006A 		add	r10, r5, #134217728
 4680 02c0 0AF1FF3A 		add	r10, r10, #-1
 4681 02c4 4FEA4A1A 		lsl	r10, r10, #5
 4682 02c8 5146     		mov	r1, r10
 4683 02ca 0AA8     		add	r0, sp, #40
 4684              	.LVL731:
 4685 02cc FFF7FEFF 		bl	mbedtls_mpi_shift_l
 4686              	.LVL732:
 4687 02d0 0646     		mov	r6, r0
 4688 02d2 0028     		cmp	r0, #0
 4689 02d4 7FF4CFAE 		bne	.L339
1399:C:/Users/lenovo/Desktop/liteos/Project2/BearPi_LiteOS/components/security/mbedtls/mbedtls-2.6.0/library\bignum.c **** 
 4690              		.loc 1 1399 0
 4691 02d8 0AAA     		add	r2, sp, #40
 4692 02da 13A9     		add	r1, sp, #76
 4693 02dc 0846     		mov	r0, r1
 4694              	.LVL733:
 4695 02de FFF7FEFF 		bl	mbedtls_mpi_sub_mpi
 4696              	.LVL734:
 4697 02e2 0646     		mov	r6, r0
 4698 02e4 0028     		cmp	r0, #0
 4699 02e6 7FF4C6AE 		bne	.L339
1401:C:/Users/lenovo/Desktop/liteos/Project2/BearPi_LiteOS/components/security/mbedtls/mbedtls-2.6.0/library\bignum.c ****         {
 4700              		.loc 1 1401 0
 4701 02ea 0021     		movs	r1, #0
 4702 02ec 13A8     		add	r0, sp, #76
 4703              	.LVL735:
 4704 02ee FFF7FEFF 		bl	mbedtls_mpi_cmp_int
 4705              	.LVL736:
 4706 02f2 0028     		cmp	r0, #0
 4707 02f4 1EDA     		bge	.L350
1403:C:/Users/lenovo/Desktop/liteos/Project2/BearPi_LiteOS/components/security/mbedtls/mbedtls-2.6.0/library\bignum.c ****             MBEDTLS_MPI_CHK( mbedtls_mpi_shift_l( &T1, biL * ( i - t - 1 ) ) );
 4708              		.loc 1 1403 0
 4709 02f6 10A9     		add	r1, sp, #64
 4710 02f8 0AA8     		add	r0, sp, #40
 4711 02fa FFF7FEFF 		bl	mbedtls_mpi_copy
 4712              	.LVL737:
 4713 02fe 0646     		mov	r6, r0
 4714 0300 0028     		cmp	r0, #0
 4715 0302 7FF4B8AE 		bne	.L339
1404:C:/Users/lenovo/Desktop/liteos/Project2/BearPi_LiteOS/components/security/mbedtls/mbedtls-2.6.0/library\bignum.c ****             MBEDTLS_MPI_CHK( mbedtls_mpi_add_mpi( &X, &X, &T1 ) );
 4716              		.loc 1 1404 0
 4717 0306 5146     		mov	r1, r10
 4718 0308 0AA8     		add	r0, sp, #40
 4719              	.LVL738:
 4720 030a FFF7FEFF 		bl	mbedtls_mpi_shift_l
 4721              	.LVL739:
 4722 030e 0646     		mov	r6, r0
 4723 0310 0028     		cmp	r0, #0
 4724 0312 7FF4B0AE 		bne	.L339
1405:C:/Users/lenovo/Desktop/liteos/Project2/BearPi_LiteOS/components/security/mbedtls/mbedtls-2.6.0/library\bignum.c ****             Z.p[i - t - 1]--;
 4725              		.loc 1 1405 0
 4726 0316 0AAA     		add	r2, sp, #40
ARM GAS  c:\Users\lenovo\AppData\Local\Temp\ccjcyTZ0.s 			page 120


 4727 0318 13A9     		add	r1, sp, #76
 4728 031a 0846     		mov	r0, r1
 4729              	.LVL740:
 4730 031c FFF7FEFF 		bl	mbedtls_mpi_add_mpi
 4731              	.LVL741:
 4732 0320 0646     		mov	r6, r0
 4733 0322 0028     		cmp	r0, #0
 4734 0324 7FF4A7AE 		bne	.L339
1406:C:/Users/lenovo/Desktop/liteos/Project2/BearPi_LiteOS/components/security/mbedtls/mbedtls-2.6.0/library\bignum.c ****         }
 4735              		.loc 1 1406 0
 4736 0328 0F9A     		ldr	r2, [sp, #60]
 4737 032a 52F82930 		ldr	r3, [r2, r9, lsl #2]
 4738 032e 013B     		subs	r3, r3, #1
 4739 0330 42F82930 		str	r3, [r2, r9, lsl #2]
 4740              	.LVL742:
 4741              	.L350:
1370:C:/Users/lenovo/Desktop/liteos/Project2/BearPi_LiteOS/components/security/mbedtls/mbedtls-2.6.0/library\bignum.c ****     {
 4742              		.loc 1 1370 0 discriminator 2
 4743 0334 0BF1FF3B 		add	fp, fp, #-1
 4744              	.LVL743:
 4745 0338 24E7     		b	.L343
 4746              	.L372:
 4747 033a 049D     		ldr	r5, [sp, #16]
 4748 033c 059C     		ldr	r4, [sp, #20]
1410:C:/Users/lenovo/Desktop/liteos/Project2/BearPi_LiteOS/components/security/mbedtls/mbedtls-2.6.0/library\bignum.c ****     {
 4749              		.loc 1 1410 0
 4750 033e 67B1     		cbz	r7, .L352
1412:C:/Users/lenovo/Desktop/liteos/Project2/BearPi_LiteOS/components/security/mbedtls/mbedtls-2.6.0/library\bignum.c ****         Q->s = A->s * B->s;
 4751              		.loc 1 1412 0
 4752 0340 0DA9     		add	r1, sp, #52
 4753 0342 3846     		mov	r0, r7
 4754 0344 FFF7FEFF 		bl	mbedtls_mpi_copy
 4755              	.LVL744:
 4756 0348 0646     		mov	r6, r0
 4757 034a 0028     		cmp	r0, #0
 4758 034c 7FF493AE 		bne	.L339
1413:C:/Users/lenovo/Desktop/liteos/Project2/BearPi_LiteOS/components/security/mbedtls/mbedtls-2.6.0/library\bignum.c ****     }
 4759              		.loc 1 1413 0
 4760 0350 2A68     		ldr	r2, [r5]
 4761 0352 2368     		ldr	r3, [r4]
 4762 0354 03FB02F3 		mul	r3, r3, r2
 4763 0358 3B60     		str	r3, [r7]
 4764              	.LVL745:
 4765              	.L352:
1416:C:/Users/lenovo/Desktop/liteos/Project2/BearPi_LiteOS/components/security/mbedtls/mbedtls-2.6.0/library\bignum.c ****     {
 4766              		.loc 1 1416 0
 4767 035a B8F1000F 		cmp	r8, #0
 4768 035e 3FF48AAE 		beq	.L339
1418:C:/Users/lenovo/Desktop/liteos/Project2/BearPi_LiteOS/components/security/mbedtls/mbedtls-2.6.0/library\bignum.c ****         X.s = A->s;
 4769              		.loc 1 1418 0
 4770 0362 0099     		ldr	r1, [sp]
 4771 0364 13A8     		add	r0, sp, #76
 4772 0366 FFF7FEFF 		bl	mbedtls_mpi_shift_r
 4773              	.LVL746:
 4774 036a 0646     		mov	r6, r0
 4775 036c 0028     		cmp	r0, #0
 4776 036e 7FF482AE 		bne	.L339
ARM GAS  c:\Users\lenovo\AppData\Local\Temp\ccjcyTZ0.s 			page 121


1419:C:/Users/lenovo/Desktop/liteos/Project2/BearPi_LiteOS/components/security/mbedtls/mbedtls-2.6.0/library\bignum.c ****         MBEDTLS_MPI_CHK( mbedtls_mpi_copy( R, &X ) );
 4777              		.loc 1 1419 0
 4778 0372 2B68     		ldr	r3, [r5]
 4779 0374 16A9     		add	r1, sp, #88
 4780 0376 41F80C3D 		str	r3, [r1, #-12]!
1420:C:/Users/lenovo/Desktop/liteos/Project2/BearPi_LiteOS/components/security/mbedtls/mbedtls-2.6.0/library\bignum.c **** 
 4781              		.loc 1 1420 0
 4782 037a 4046     		mov	r0, r8
 4783              	.LVL747:
 4784 037c FFF7FEFF 		bl	mbedtls_mpi_copy
 4785              	.LVL748:
 4786 0380 0646     		mov	r6, r0
 4787 0382 0028     		cmp	r0, #0
 4788 0384 7FF477AE 		bne	.L339
1422:C:/Users/lenovo/Desktop/liteos/Project2/BearPi_LiteOS/components/security/mbedtls/mbedtls-2.6.0/library\bignum.c ****             R->s = 1;
 4789              		.loc 1 1422 0
 4790 0388 0021     		movs	r1, #0
 4791 038a 4046     		mov	r0, r8
 4792              	.LVL749:
 4793 038c FFF7FEFF 		bl	mbedtls_mpi_cmp_int
 4794              	.LVL750:
 4795 0390 0028     		cmp	r0, #0
 4796 0392 7FF470AE 		bne	.L339
1423:C:/Users/lenovo/Desktop/liteos/Project2/BearPi_LiteOS/components/security/mbedtls/mbedtls-2.6.0/library\bignum.c ****     }
 4797              		.loc 1 1423 0
 4798 0396 0123     		movs	r3, #1
 4799 0398 C8F80030 		str	r3, [r8]
 4800 039c 6BE6     		b	.L339
 4801              	.LVL751:
 4802              	.L353:
1329:C:/Users/lenovo/Desktop/liteos/Project2/BearPi_LiteOS/components/security/mbedtls/mbedtls-2.6.0/library\bignum.c **** 
 4803              		.loc 1 1329 0
 4804 039e 6FF00B06 		mvn	r6, #11
 4805 03a2 77E6     		b	.L335
 4806              	.L354:
1338:C:/Users/lenovo/Desktop/liteos/Project2/BearPi_LiteOS/components/security/mbedtls/mbedtls-2.6.0/library\bignum.c ****     }
 4807              		.loc 1 1338 0
 4808 03a4 0026     		movs	r6, #0
 4809 03a6 75E6     		b	.L335
 4810              		.cfi_endproc
 4811              	.LFE41:
 4813              		.section	.text.mbedtls_mpi_div_int,"ax",%progbits
 4814              		.align	1
 4815              		.global	mbedtls_mpi_div_int
 4816              		.syntax unified
 4817              		.thumb
 4818              		.thumb_func
 4819              		.fpu fpv4-sp-d16
 4821              	mbedtls_mpi_div_int:
 4822              	.LFB42:
1438:C:/Users/lenovo/Desktop/liteos/Project2/BearPi_LiteOS/components/security/mbedtls/mbedtls-2.6.0/library\bignum.c ****     mbedtls_mpi _B;
 4823              		.loc 1 1438 0
 4824              		.cfi_startproc
 4825              		@ args = 0, pretend = 0, frame = 16
 4826              		@ frame_needed = 0, uses_anonymous_args = 0
 4827              	.LVL752:
 4828 0000 10B5     		push	{r4, lr}
ARM GAS  c:\Users\lenovo\AppData\Local\Temp\ccjcyTZ0.s 			page 122


 4829              	.LCFI79:
 4830              		.cfi_def_cfa_offset 8
 4831              		.cfi_offset 4, -8
 4832              		.cfi_offset 14, -4
 4833 0002 84B0     		sub	sp, sp, #16
 4834              	.LCFI80:
 4835              		.cfi_def_cfa_offset 24
1442:C:/Users/lenovo/Desktop/liteos/Project2/BearPi_LiteOS/components/security/mbedtls/mbedtls-2.6.0/library\bignum.c ****     _B.s = ( b < 0 ) ? -1 : 1;
 4836              		.loc 1 1442 0
 4837 0004 83EAE374 		eor	r4, r3, r3, asr #31
 4838 0008 A4EBE374 		sub	r4, r4, r3, asr #31
 4839 000c 0094     		str	r4, [sp]
1443:C:/Users/lenovo/Desktop/liteos/Project2/BearPi_LiteOS/components/security/mbedtls/mbedtls-2.6.0/library\bignum.c ****     _B.n = 1;
 4840              		.loc 1 1443 0
 4841 000e 002B     		cmp	r3, #0
 4842 0010 0ADB     		blt	.L378
 4843 0012 0123     		movs	r3, #1
 4844              	.LVL753:
 4845              	.L375:
1443:C:/Users/lenovo/Desktop/liteos/Project2/BearPi_LiteOS/components/security/mbedtls/mbedtls-2.6.0/library\bignum.c ****     _B.n = 1;
 4846              		.loc 1 1443 0 is_stmt 0 discriminator 4
 4847 0014 0193     		str	r3, [sp, #4]
1444:C:/Users/lenovo/Desktop/liteos/Project2/BearPi_LiteOS/components/security/mbedtls/mbedtls-2.6.0/library\bignum.c ****     _B.p = p;
 4848              		.loc 1 1444 0 is_stmt 1 discriminator 4
 4849 0016 0123     		movs	r3, #1
 4850 0018 0293     		str	r3, [sp, #8]
1445:C:/Users/lenovo/Desktop/liteos/Project2/BearPi_LiteOS/components/security/mbedtls/mbedtls-2.6.0/library\bignum.c **** 
 4851              		.loc 1 1445 0 discriminator 4
 4852 001a CDF80CD0 		str	sp, [sp, #12]
1447:C:/Users/lenovo/Desktop/liteos/Project2/BearPi_LiteOS/components/security/mbedtls/mbedtls-2.6.0/library\bignum.c **** }
 4853              		.loc 1 1447 0 discriminator 4
 4854 001e 01AB     		add	r3, sp, #4
 4855 0020 FFF7FEFF 		bl	mbedtls_mpi_div_mpi
 4856              	.LVL754:
1448:C:/Users/lenovo/Desktop/liteos/Project2/BearPi_LiteOS/components/security/mbedtls/mbedtls-2.6.0/library\bignum.c **** 
 4857              		.loc 1 1448 0 discriminator 4
 4858 0024 04B0     		add	sp, sp, #16
 4859              	.LCFI81:
 4860              		.cfi_remember_state
 4861              		.cfi_def_cfa_offset 8
 4862              		@ sp needed
 4863 0026 10BD     		pop	{r4, pc}
 4864              	.LVL755:
 4865              	.L378:
 4866              	.LCFI82:
 4867              		.cfi_restore_state
1443:C:/Users/lenovo/Desktop/liteos/Project2/BearPi_LiteOS/components/security/mbedtls/mbedtls-2.6.0/library\bignum.c ****     _B.n = 1;
 4868              		.loc 1 1443 0
 4869 0028 4FF0FF33 		mov	r3, #-1
 4870              	.LVL756:
 4871 002c F2E7     		b	.L375
 4872              		.cfi_endproc
 4873              	.LFE42:
 4875              		.section	.text.mbedtls_mpi_mod_mpi,"ax",%progbits
 4876              		.align	1
 4877              		.global	mbedtls_mpi_mod_mpi
 4878              		.syntax unified
ARM GAS  c:\Users\lenovo\AppData\Local\Temp\ccjcyTZ0.s 			page 123


 4879              		.thumb
 4880              		.thumb_func
 4881              		.fpu fpv4-sp-d16
 4883              	mbedtls_mpi_mod_mpi:
 4884              	.LFB43:
1454:C:/Users/lenovo/Desktop/liteos/Project2/BearPi_LiteOS/components/security/mbedtls/mbedtls-2.6.0/library\bignum.c ****     int ret;
 4885              		.loc 1 1454 0
 4886              		.cfi_startproc
 4887              		@ args = 0, pretend = 0, frame = 0
 4888              		@ frame_needed = 0, uses_anonymous_args = 0
 4889              	.LVL757:
 4890 0000 70B5     		push	{r4, r5, r6, lr}
 4891              	.LCFI83:
 4892              		.cfi_def_cfa_offset 16
 4893              		.cfi_offset 4, -16
 4894              		.cfi_offset 5, -12
 4895              		.cfi_offset 6, -8
 4896              		.cfi_offset 14, -4
 4897 0002 0446     		mov	r4, r0
 4898 0004 0E46     		mov	r6, r1
 4899 0006 1546     		mov	r5, r2
1457:C:/Users/lenovo/Desktop/liteos/Project2/BearPi_LiteOS/components/security/mbedtls/mbedtls-2.6.0/library\bignum.c ****         return( MBEDTLS_ERR_MPI_NEGATIVE_VALUE );
 4900              		.loc 1 1457 0
 4901 0008 0021     		movs	r1, #0
 4902              	.LVL758:
 4903 000a 1046     		mov	r0, r2
 4904              	.LVL759:
 4905 000c FFF7FEFF 		bl	mbedtls_mpi_cmp_int
 4906              	.LVL760:
 4907 0010 0028     		cmp	r0, #0
 4908 0012 26DB     		blt	.L385
1460:C:/Users/lenovo/Desktop/liteos/Project2/BearPi_LiteOS/components/security/mbedtls/mbedtls-2.6.0/library\bignum.c **** 
 4909              		.loc 1 1460 0
 4910 0014 2B46     		mov	r3, r5
 4911 0016 3246     		mov	r2, r6
 4912 0018 2146     		mov	r1, r4
 4913 001a 0020     		movs	r0, #0
 4914 001c FFF7FEFF 		bl	mbedtls_mpi_div_mpi
 4915              	.LVL761:
 4916 0020 0646     		mov	r6, r0
 4917              	.LVL762:
 4918 0022 68B9     		cbnz	r0, .L379
 4919              	.L381:
1462:C:/Users/lenovo/Desktop/liteos/Project2/BearPi_LiteOS/components/security/mbedtls/mbedtls-2.6.0/library\bignum.c ****       MBEDTLS_MPI_CHK( mbedtls_mpi_add_mpi( R, R, B ) );
 4920              		.loc 1 1462 0
 4921 0024 0021     		movs	r1, #0
 4922 0026 2046     		mov	r0, r4
 4923              	.LVL763:
 4924 0028 FFF7FEFF 		bl	mbedtls_mpi_cmp_int
 4925              	.LVL764:
 4926 002c 0028     		cmp	r0, #0
 4927 002e 09DA     		bge	.L383
1463:C:/Users/lenovo/Desktop/liteos/Project2/BearPi_LiteOS/components/security/mbedtls/mbedtls-2.6.0/library\bignum.c **** 
 4928              		.loc 1 1463 0
 4929 0030 2A46     		mov	r2, r5
 4930 0032 2146     		mov	r1, r4
 4931 0034 2046     		mov	r0, r4
ARM GAS  c:\Users\lenovo\AppData\Local\Temp\ccjcyTZ0.s 			page 124


 4932 0036 FFF7FEFF 		bl	mbedtls_mpi_add_mpi
 4933              	.LVL765:
 4934 003a 0646     		mov	r6, r0
 4935 003c 0028     		cmp	r0, #0
 4936 003e F1D0     		beq	.L381
 4937              	.LVL766:
 4938              	.L379:
1471:C:/Users/lenovo/Desktop/liteos/Project2/BearPi_LiteOS/components/security/mbedtls/mbedtls-2.6.0/library\bignum.c **** 
 4939              		.loc 1 1471 0
 4940 0040 3046     		mov	r0, r6
 4941 0042 70BD     		pop	{r4, r5, r6, pc}
 4942              	.LVL767:
 4943              	.L383:
1465:C:/Users/lenovo/Desktop/liteos/Project2/BearPi_LiteOS/components/security/mbedtls/mbedtls-2.6.0/library\bignum.c ****       MBEDTLS_MPI_CHK( mbedtls_mpi_sub_mpi( R, R, B ) );
 4944              		.loc 1 1465 0
 4945 0044 2946     		mov	r1, r5
 4946 0046 2046     		mov	r0, r4
 4947 0048 FFF7FEFF 		bl	mbedtls_mpi_cmp_mpi
 4948              	.LVL768:
 4949 004c 0028     		cmp	r0, #0
 4950 004e F7DB     		blt	.L379
1466:C:/Users/lenovo/Desktop/liteos/Project2/BearPi_LiteOS/components/security/mbedtls/mbedtls-2.6.0/library\bignum.c **** 
 4951              		.loc 1 1466 0
 4952 0050 2A46     		mov	r2, r5
 4953 0052 2146     		mov	r1, r4
 4954 0054 2046     		mov	r0, r4
 4955 0056 FFF7FEFF 		bl	mbedtls_mpi_sub_mpi
 4956              	.LVL769:
 4957 005a 0646     		mov	r6, r0
 4958 005c 0028     		cmp	r0, #0
 4959 005e F1D0     		beq	.L383
1468:C:/Users/lenovo/Desktop/liteos/Project2/BearPi_LiteOS/components/security/mbedtls/mbedtls-2.6.0/library\bignum.c **** 
 4960              		.loc 1 1468 0
 4961 0060 EEE7     		b	.L379
 4962              	.LVL770:
 4963              	.L385:
1458:C:/Users/lenovo/Desktop/liteos/Project2/BearPi_LiteOS/components/security/mbedtls/mbedtls-2.6.0/library\bignum.c **** 
 4964              		.loc 1 1458 0
 4965 0062 6FF00906 		mvn	r6, #9
 4966              	.LVL771:
 4967 0066 EBE7     		b	.L379
 4968              		.cfi_endproc
 4969              	.LFE43:
 4971              		.section	.text.mbedtls_mpi_mod_int,"ax",%progbits
 4972              		.align	1
 4973              		.global	mbedtls_mpi_mod_int
 4974              		.syntax unified
 4975              		.thumb
 4976              		.thumb_func
 4977              		.fpu fpv4-sp-d16
 4979              	mbedtls_mpi_mod_int:
 4980              	.LFB44:
1477:C:/Users/lenovo/Desktop/liteos/Project2/BearPi_LiteOS/components/security/mbedtls/mbedtls-2.6.0/library\bignum.c ****     size_t i;
 4981              		.loc 1 1477 0
 4982              		.cfi_startproc
 4983              		@ args = 0, pretend = 0, frame = 0
 4984              		@ frame_needed = 0, uses_anonymous_args = 0
ARM GAS  c:\Users\lenovo\AppData\Local\Temp\ccjcyTZ0.s 			page 125


 4985              		@ link register save eliminated.
 4986              	.LVL772:
1481:C:/Users/lenovo/Desktop/liteos/Project2/BearPi_LiteOS/components/security/mbedtls/mbedtls-2.6.0/library\bignum.c ****         return( MBEDTLS_ERR_MPI_DIVISION_BY_ZERO );
 4987              		.loc 1 1481 0
 4988 0000 002A     		cmp	r2, #0
 4989 0002 37D0     		beq	.L394
1477:C:/Users/lenovo/Desktop/liteos/Project2/BearPi_LiteOS/components/security/mbedtls/mbedtls-2.6.0/library\bignum.c ****     size_t i;
 4990              		.loc 1 1477 0
 4991 0004 70B4     		push	{r4, r5, r6}
 4992              	.LCFI84:
 4993              		.cfi_def_cfa_offset 12
 4994              		.cfi_offset 4, -12
 4995              		.cfi_offset 5, -8
 4996              		.cfi_offset 6, -4
 4997 0006 1446     		mov	r4, r2
1484:C:/Users/lenovo/Desktop/liteos/Project2/BearPi_LiteOS/components/security/mbedtls/mbedtls-2.6.0/library\bignum.c ****         return( MBEDTLS_ERR_MPI_NEGATIVE_VALUE );
 4998              		.loc 1 1484 0
 4999 0008 002A     		cmp	r2, #0
 5000 000a 36DB     		blt	.L395
1490:C:/Users/lenovo/Desktop/liteos/Project2/BearPi_LiteOS/components/security/mbedtls/mbedtls-2.6.0/library\bignum.c ****     {
 5001              		.loc 1 1490 0
 5002 000c 012A     		cmp	r2, #1
 5003 000e 04D0     		beq	.L400
1496:C:/Users/lenovo/Desktop/liteos/Project2/BearPi_LiteOS/components/security/mbedtls/mbedtls-2.6.0/library\bignum.c ****     {
 5004              		.loc 1 1496 0
 5005 0010 022A     		cmp	r2, #2
 5006 0012 06D0     		beq	.L401
1505:C:/Users/lenovo/Desktop/liteos/Project2/BearPi_LiteOS/components/security/mbedtls/mbedtls-2.6.0/library\bignum.c ****     {
 5007              		.loc 1 1505 0
 5008 0014 4E68     		ldr	r6, [r1, #4]
 5009              	.LVL773:
 5010 0016 0025     		movs	r5, #0
 5011 0018 1FE0     		b	.L391
 5012              	.LVL774:
 5013              	.L400:
1492:C:/Users/lenovo/Desktop/liteos/Project2/BearPi_LiteOS/components/security/mbedtls/mbedtls-2.6.0/library\bignum.c ****         return( 0 );
 5014              		.loc 1 1492 0
 5015 001a 0023     		movs	r3, #0
 5016 001c 0360     		str	r3, [r0]
1493:C:/Users/lenovo/Desktop/liteos/Project2/BearPi_LiteOS/components/security/mbedtls/mbedtls-2.6.0/library\bignum.c ****     }
 5017              		.loc 1 1493 0
 5018 001e 1846     		mov	r0, r3
 5019              	.LVL775:
 5020 0020 22E0     		b	.L387
 5021              	.LVL776:
 5022              	.L401:
1498:C:/Users/lenovo/Desktop/liteos/Project2/BearPi_LiteOS/components/security/mbedtls/mbedtls-2.6.0/library\bignum.c ****         return( 0 );
 5023              		.loc 1 1498 0
 5024 0022 8B68     		ldr	r3, [r1, #8]
 5025 0024 1B68     		ldr	r3, [r3]
 5026 0026 03F00103 		and	r3, r3, #1
 5027 002a 0360     		str	r3, [r0]
1499:C:/Users/lenovo/Desktop/liteos/Project2/BearPi_LiteOS/components/security/mbedtls/mbedtls-2.6.0/library\bignum.c ****     }
 5028              		.loc 1 1499 0
 5029 002c 0020     		movs	r0, #0
 5030              	.LVL777:
 5031 002e 1BE0     		b	.L387
ARM GAS  c:\Users\lenovo\AppData\Local\Temp\ccjcyTZ0.s 			page 126


 5032              	.LVL778:
 5033              	.L392:
1507:C:/Users/lenovo/Desktop/liteos/Project2/BearPi_LiteOS/components/security/mbedtls/mbedtls-2.6.0/library\bignum.c ****         y  = ( y << biH ) | ( x >> biH );
 5034              		.loc 1 1507 0 discriminator 3
 5035 0030 8A68     		ldr	r2, [r1, #8]
 5036 0032 06F18043 		add	r3, r6, #1073741824
 5037 0036 013B     		subs	r3, r3, #1
 5038 0038 52F82320 		ldr	r2, [r2, r3, lsl #2]
 5039              	.LVL779:
1508:C:/Users/lenovo/Desktop/liteos/Project2/BearPi_LiteOS/components/security/mbedtls/mbedtls-2.6.0/library\bignum.c ****         z  = y / b;
 5040              		.loc 1 1508 0 discriminator 3
 5041 003c 130C     		lsrs	r3, r2, #16
 5042 003e 43EA0543 		orr	r3, r3, r5, lsl #16
 5043              	.LVL780:
1509:C:/Users/lenovo/Desktop/liteos/Project2/BearPi_LiteOS/components/security/mbedtls/mbedtls-2.6.0/library\bignum.c ****         y -= z * b;
 5044              		.loc 1 1509 0 discriminator 3
 5045 0042 B3FBF4F5 		udiv	r5, r3, r4
 5046              	.LVL781:
1510:C:/Users/lenovo/Desktop/liteos/Project2/BearPi_LiteOS/components/security/mbedtls/mbedtls-2.6.0/library\bignum.c **** 
 5047              		.loc 1 1510 0 discriminator 3
 5048 0046 05FB1433 		mls	r3, r5, r4, r3
 5049              	.LVL782:
1513:C:/Users/lenovo/Desktop/liteos/Project2/BearPi_LiteOS/components/security/mbedtls/mbedtls-2.6.0/library\bignum.c ****         z  = y / b;
 5050              		.loc 1 1513 0 discriminator 3
 5051 004a 92B2     		uxth	r2, r2
 5052              	.LVL783:
 5053 004c 42EA0343 		orr	r3, r2, r3, lsl #16
 5054              	.LVL784:
1514:C:/Users/lenovo/Desktop/liteos/Project2/BearPi_LiteOS/components/security/mbedtls/mbedtls-2.6.0/library\bignum.c ****         y -= z * b;
 5055              		.loc 1 1514 0 discriminator 3
 5056 0050 B3FBF4F5 		udiv	r5, r3, r4
 5057              	.LVL785:
1515:C:/Users/lenovo/Desktop/liteos/Project2/BearPi_LiteOS/components/security/mbedtls/mbedtls-2.6.0/library\bignum.c ****     }
 5058              		.loc 1 1515 0 discriminator 3
 5059 0054 05FB1435 		mls	r5, r5, r4, r3
 5060              	.LVL786:
1505:C:/Users/lenovo/Desktop/liteos/Project2/BearPi_LiteOS/components/security/mbedtls/mbedtls-2.6.0/library\bignum.c ****     {
 5061              		.loc 1 1505 0 discriminator 3
 5062 0058 013E     		subs	r6, r6, #1
 5063              	.LVL787:
 5064              	.L391:
1505:C:/Users/lenovo/Desktop/liteos/Project2/BearPi_LiteOS/components/security/mbedtls/mbedtls-2.6.0/library\bignum.c ****     {
 5065              		.loc 1 1505 0 is_stmt 0 discriminator 1
 5066 005a 002E     		cmp	r6, #0
 5067 005c E8D1     		bne	.L392
1522:C:/Users/lenovo/Desktop/liteos/Project2/BearPi_LiteOS/components/security/mbedtls/mbedtls-2.6.0/library\bignum.c ****         y = b - y;
 5068              		.loc 1 1522 0 is_stmt 1
 5069 005e 0B68     		ldr	r3, [r1]
 5070 0060 002B     		cmp	r3, #0
 5071 0062 03DB     		blt	.L402
 5072              	.L393:
1525:C:/Users/lenovo/Desktop/liteos/Project2/BearPi_LiteOS/components/security/mbedtls/mbedtls-2.6.0/library\bignum.c **** 
 5073              		.loc 1 1525 0
 5074 0064 0560     		str	r5, [r0]
1527:C:/Users/lenovo/Desktop/liteos/Project2/BearPi_LiteOS/components/security/mbedtls/mbedtls-2.6.0/library\bignum.c **** }
 5075              		.loc 1 1527 0
 5076 0066 0020     		movs	r0, #0
ARM GAS  c:\Users\lenovo\AppData\Local\Temp\ccjcyTZ0.s 			page 127


 5077              	.LVL788:
 5078              	.L387:
1528:C:/Users/lenovo/Desktop/liteos/Project2/BearPi_LiteOS/components/security/mbedtls/mbedtls-2.6.0/library\bignum.c **** 
 5079              		.loc 1 1528 0
 5080 0068 70BC     		pop	{r4, r5, r6}
 5081              	.LCFI85:
 5082              		.cfi_remember_state
 5083              		.cfi_restore 6
 5084              		.cfi_restore 5
 5085              		.cfi_restore 4
 5086              		.cfi_def_cfa_offset 0
 5087              	.LVL789:
 5088 006a 7047     		bx	lr
 5089              	.LVL790:
 5090              	.L402:
 5091              	.LCFI86:
 5092              		.cfi_restore_state
1522:C:/Users/lenovo/Desktop/liteos/Project2/BearPi_LiteOS/components/security/mbedtls/mbedtls-2.6.0/library\bignum.c ****         y = b - y;
 5093              		.loc 1 1522 0 discriminator 1
 5094 006c 002D     		cmp	r5, #0
 5095 006e F9D0     		beq	.L393
1523:C:/Users/lenovo/Desktop/liteos/Project2/BearPi_LiteOS/components/security/mbedtls/mbedtls-2.6.0/library\bignum.c **** 
 5096              		.loc 1 1523 0
 5097 0070 651B     		subs	r5, r4, r5
 5098              	.LVL791:
 5099 0072 F7E7     		b	.L393
 5100              	.LVL792:
 5101              	.L394:
 5102              	.LCFI87:
 5103              		.cfi_def_cfa_offset 0
 5104              		.cfi_restore 4
 5105              		.cfi_restore 5
 5106              		.cfi_restore 6
1482:C:/Users/lenovo/Desktop/liteos/Project2/BearPi_LiteOS/components/security/mbedtls/mbedtls-2.6.0/library\bignum.c **** 
 5107              		.loc 1 1482 0
 5108 0074 6FF00B00 		mvn	r0, #11
 5109              	.LVL793:
1528:C:/Users/lenovo/Desktop/liteos/Project2/BearPi_LiteOS/components/security/mbedtls/mbedtls-2.6.0/library\bignum.c **** 
 5110              		.loc 1 1528 0
 5111 0078 7047     		bx	lr
 5112              	.LVL794:
 5113              	.L395:
 5114              	.LCFI88:
 5115              		.cfi_def_cfa_offset 12
 5116              		.cfi_offset 4, -12
 5117              		.cfi_offset 5, -8
 5118              		.cfi_offset 6, -4
1485:C:/Users/lenovo/Desktop/liteos/Project2/BearPi_LiteOS/components/security/mbedtls/mbedtls-2.6.0/library\bignum.c **** 
 5119              		.loc 1 1485 0
 5120 007a 6FF00900 		mvn	r0, #9
 5121              	.LVL795:
 5122 007e F3E7     		b	.L387
 5123              		.cfi_endproc
 5124              	.LFE44:
 5126              		.section	.text.mpi_write_hlp,"ax",%progbits
 5127              		.align	1
 5128              		.syntax unified
ARM GAS  c:\Users\lenovo\AppData\Local\Temp\ccjcyTZ0.s 			page 128


 5129              		.thumb
 5130              		.thumb_func
 5131              		.fpu fpv4-sp-d16
 5133              	mpi_write_hlp:
 5134              	.LFB21:
 497:C:/Users/lenovo/Desktop/liteos/Project2/BearPi_LiteOS/components/security/mbedtls/mbedtls-2.6.0/library\bignum.c ****     int ret;
 5135              		.loc 1 497 0
 5136              		.cfi_startproc
 5137              		@ args = 0, pretend = 0, frame = 8
 5138              		@ frame_needed = 0, uses_anonymous_args = 0
 5139              	.LVL796:
 5140 0000 F0B5     		push	{r4, r5, r6, r7, lr}
 5141              	.LCFI89:
 5142              		.cfi_def_cfa_offset 20
 5143              		.cfi_offset 4, -20
 5144              		.cfi_offset 5, -16
 5145              		.cfi_offset 6, -12
 5146              		.cfi_offset 7, -8
 5147              		.cfi_offset 14, -4
 5148 0002 83B0     		sub	sp, sp, #12
 5149              	.LCFI90:
 5150              		.cfi_def_cfa_offset 32
 501:C:/Users/lenovo/Desktop/liteos/Project2/BearPi_LiteOS/components/security/mbedtls/mbedtls-2.6.0/library\bignum.c ****         return( MBEDTLS_ERR_MPI_BAD_INPUT_DATA );
 5151              		.loc 1 501 0
 5152 0004 8B1E     		subs	r3, r1, #2
 5153 0006 0E2B     		cmp	r3, #14
 5154 0008 32D8     		bhi	.L407
 5155 000a 1746     		mov	r7, r2
 5156 000c 0C46     		mov	r4, r1
 5157 000e 0546     		mov	r5, r0
 504:C:/Users/lenovo/Desktop/liteos/Project2/BearPi_LiteOS/components/security/mbedtls/mbedtls-2.6.0/library\bignum.c ****     MBEDTLS_MPI_CHK( mbedtls_mpi_div_int( X, NULL, X, radix ) );
 5158              		.loc 1 504 0
 5159 0010 0A46     		mov	r2, r1
 5160              	.LVL797:
 5161 0012 0146     		mov	r1, r0
 5162              	.LVL798:
 5163 0014 01A8     		add	r0, sp, #4
 5164              	.LVL799:
 5165 0016 FFF7FEFF 		bl	mbedtls_mpi_mod_int
 5166              	.LVL800:
 5167 001a 0646     		mov	r6, r0
 5168 001c 10B1     		cbz	r0, .L409
 5169              	.LVL801:
 5170              	.L403:
 518:C:/Users/lenovo/Desktop/liteos/Project2/BearPi_LiteOS/components/security/mbedtls/mbedtls-2.6.0/library\bignum.c **** 
 5171              		.loc 1 518 0
 5172 001e 3046     		mov	r0, r6
 5173 0020 03B0     		add	sp, sp, #12
 5174              	.LCFI91:
 5175              		.cfi_remember_state
 5176              		.cfi_def_cfa_offset 20
 5177              		@ sp needed
 5178 0022 F0BD     		pop	{r4, r5, r6, r7, pc}
 5179              	.LVL802:
 5180              	.L409:
 5181              	.LCFI92:
 5182              		.cfi_restore_state
ARM GAS  c:\Users\lenovo\AppData\Local\Temp\ccjcyTZ0.s 			page 129


 505:C:/Users/lenovo/Desktop/liteos/Project2/BearPi_LiteOS/components/security/mbedtls/mbedtls-2.6.0/library\bignum.c **** 
 5183              		.loc 1 505 0
 5184 0024 2346     		mov	r3, r4
 5185 0026 2A46     		mov	r2, r5
 5186 0028 0021     		movs	r1, #0
 5187 002a 2846     		mov	r0, r5
 5188              	.LVL803:
 5189 002c FFF7FEFF 		bl	mbedtls_mpi_div_int
 5190              	.LVL804:
 5191 0030 0646     		mov	r6, r0
 5192 0032 0028     		cmp	r0, #0
 5193 0034 F3D1     		bne	.L403
 507:C:/Users/lenovo/Desktop/liteos/Project2/BearPi_LiteOS/components/security/mbedtls/mbedtls-2.6.0/library\bignum.c ****         MBEDTLS_MPI_CHK( mpi_write_hlp( X, radix, p ) );
 5194              		.loc 1 507 0
 5195 0036 0021     		movs	r1, #0
 5196 0038 2846     		mov	r0, r5
 5197              	.LVL805:
 5198 003a FFF7FEFF 		bl	mbedtls_mpi_cmp_int
 5199              	.LVL806:
 5200 003e 40B9     		cbnz	r0, .L410
 5201              	.L405:
 510:C:/Users/lenovo/Desktop/liteos/Project2/BearPi_LiteOS/components/security/mbedtls/mbedtls-2.6.0/library\bignum.c ****         *(*p)++ = (char)( r + 0x30 );
 5202              		.loc 1 510 0
 5203 0040 019B     		ldr	r3, [sp, #4]
 5204 0042 092B     		cmp	r3, #9
 5205 0044 0ED9     		bls	.L411
 513:C:/Users/lenovo/Desktop/liteos/Project2/BearPi_LiteOS/components/security/mbedtls/mbedtls-2.6.0/library\bignum.c **** 
 5206              		.loc 1 513 0
 5207 0046 3A68     		ldr	r2, [r7]
 5208 0048 511C     		adds	r1, r2, #1
 5209 004a 3960     		str	r1, [r7]
 5210 004c 3733     		adds	r3, r3, #55
 5211 004e 1370     		strb	r3, [r2]
 5212 0050 E5E7     		b	.L403
 5213              	.L410:
 508:C:/Users/lenovo/Desktop/liteos/Project2/BearPi_LiteOS/components/security/mbedtls/mbedtls-2.6.0/library\bignum.c **** 
 5214              		.loc 1 508 0
 5215 0052 3A46     		mov	r2, r7
 5216 0054 2146     		mov	r1, r4
 5217 0056 2846     		mov	r0, r5
 5218 0058 FFF7D2FF 		bl	mpi_write_hlp
 5219              	.LVL807:
 5220 005c 0646     		mov	r6, r0
 5221 005e 0028     		cmp	r0, #0
 5222 0060 EED0     		beq	.L405
 515:C:/Users/lenovo/Desktop/liteos/Project2/BearPi_LiteOS/components/security/mbedtls/mbedtls-2.6.0/library\bignum.c **** 
 5223              		.loc 1 515 0
 5224 0062 DCE7     		b	.L403
 5225              	.LVL808:
 5226              	.L411:
 511:C:/Users/lenovo/Desktop/liteos/Project2/BearPi_LiteOS/components/security/mbedtls/mbedtls-2.6.0/library\bignum.c ****     else
 5227              		.loc 1 511 0
 5228 0064 3A68     		ldr	r2, [r7]
 5229 0066 511C     		adds	r1, r2, #1
 5230 0068 3960     		str	r1, [r7]
 5231 006a 3033     		adds	r3, r3, #48
 5232 006c 1370     		strb	r3, [r2]
ARM GAS  c:\Users\lenovo\AppData\Local\Temp\ccjcyTZ0.s 			page 130


 5233 006e D6E7     		b	.L403
 5234              	.LVL809:
 5235              	.L407:
 502:C:/Users/lenovo/Desktop/liteos/Project2/BearPi_LiteOS/components/security/mbedtls/mbedtls-2.6.0/library\bignum.c **** 
 5236              		.loc 1 502 0
 5237 0070 6FF00306 		mvn	r6, #3
 5238 0074 D3E7     		b	.L403
 5239              		.cfi_endproc
 5240              	.LFE21:
 5242              		.section	.text.mbedtls_mpi_write_string,"ax",%progbits
 5243              		.align	1
 5244              		.global	mbedtls_mpi_write_string
 5245              		.syntax unified
 5246              		.thumb
 5247              		.thumb_func
 5248              		.fpu fpv4-sp-d16
 5250              	mbedtls_mpi_write_string:
 5251              	.LFB22:
 525:C:/Users/lenovo/Desktop/liteos/Project2/BearPi_LiteOS/components/security/mbedtls/mbedtls-2.6.0/library\bignum.c ****     int ret = 0;
 5252              		.loc 1 525 0
 5253              		.cfi_startproc
 5254              		@ args = 4, pretend = 0, frame = 16
 5255              		@ frame_needed = 0, uses_anonymous_args = 0
 5256              	.LVL810:
 5257 0000 F0B5     		push	{r4, r5, r6, r7, lr}
 5258              	.LCFI93:
 5259              		.cfi_def_cfa_offset 20
 5260              		.cfi_offset 4, -20
 5261              		.cfi_offset 5, -16
 5262              		.cfi_offset 6, -12
 5263              		.cfi_offset 7, -8
 5264              		.cfi_offset 14, -4
 5265 0002 85B0     		sub	sp, sp, #20
 5266              	.LCFI94:
 5267              		.cfi_def_cfa_offset 40
 5268              	.LVL811:
 531:C:/Users/lenovo/Desktop/liteos/Project2/BearPi_LiteOS/components/security/mbedtls/mbedtls-2.6.0/library\bignum.c ****         return( MBEDTLS_ERR_MPI_BAD_INPUT_DATA );
 5269              		.loc 1 531 0
 5270 0004 8C1E     		subs	r4, r1, #2
 5271 0006 0E2C     		cmp	r4, #14
 5272 0008 79D8     		bhi	.L428
 5273 000a 1F46     		mov	r7, r3
 5274 000c 1646     		mov	r6, r2
 5275 000e 0C46     		mov	r4, r1
 5276 0010 0546     		mov	r5, r0
 534:C:/Users/lenovo/Desktop/liteos/Project2/BearPi_LiteOS/components/security/mbedtls/mbedtls-2.6.0/library\bignum.c ****     if( radix >=  4 ) n >>= 1;
 5277              		.loc 1 534 0
 5278 0012 FFF7FEFF 		bl	mbedtls_mpi_bitlen
 5279              	.LVL812:
 535:C:/Users/lenovo/Desktop/liteos/Project2/BearPi_LiteOS/components/security/mbedtls/mbedtls-2.6.0/library\bignum.c ****     if( radix >= 16 ) n >>= 1;
 5280              		.loc 1 535 0
 5281 0016 032C     		cmp	r4, #3
 5282 0018 00DD     		ble	.L414
 535:C:/Users/lenovo/Desktop/liteos/Project2/BearPi_LiteOS/components/security/mbedtls/mbedtls-2.6.0/library\bignum.c ****     if( radix >= 16 ) n >>= 1;
 5283              		.loc 1 535 0 is_stmt 0 discriminator 1
 5284 001a 4008     		lsrs	r0, r0, #1
 5285              	.LVL813:
ARM GAS  c:\Users\lenovo\AppData\Local\Temp\ccjcyTZ0.s 			page 131


 5286              	.L414:
 536:C:/Users/lenovo/Desktop/liteos/Project2/BearPi_LiteOS/components/security/mbedtls/mbedtls-2.6.0/library\bignum.c ****     /*
 5287              		.loc 1 536 0 is_stmt 1
 5288 001c 0F2C     		cmp	r4, #15
 5289 001e 00DD     		ble	.L415
 536:C:/Users/lenovo/Desktop/liteos/Project2/BearPi_LiteOS/components/security/mbedtls/mbedtls-2.6.0/library\bignum.c ****     /*
 5290              		.loc 1 536 0 is_stmt 0 discriminator 1
 5291 0020 4008     		lsrs	r0, r0, #1
 5292              	.LVL814:
 5293              	.L415:
 542:C:/Users/lenovo/Desktop/liteos/Project2/BearPi_LiteOS/components/security/mbedtls/mbedtls-2.6.0/library\bignum.c **** 
 5294              		.loc 1 542 0 is_stmt 1
 5295 0022 421C     		adds	r2, r0, #1
 5296 0024 02F00102 		and	r2, r2, #1
 5297 0028 1044     		add	r0, r0, r2
 5298              	.LVL815:
 5299 002a 0330     		adds	r0, r0, #3
 5300              	.LVL816:
 544:C:/Users/lenovo/Desktop/liteos/Project2/BearPi_LiteOS/components/security/mbedtls/mbedtls-2.6.0/library\bignum.c ****     {
 5301              		.loc 1 544 0
 5302 002c B842     		cmp	r0, r7
 5303 002e 0CD8     		bhi	.L431
 550:C:/Users/lenovo/Desktop/liteos/Project2/BearPi_LiteOS/components/security/mbedtls/mbedtls-2.6.0/library\bignum.c ****     mbedtls_mpi_init( &T );
 5304              		.loc 1 550 0
 5305 0030 0396     		str	r6, [sp, #12]
 551:C:/Users/lenovo/Desktop/liteos/Project2/BearPi_LiteOS/components/security/mbedtls/mbedtls-2.6.0/library\bignum.c **** 
 5306              		.loc 1 551 0
 5307 0032 6846     		mov	r0, sp
 5308              	.LVL817:
 5309 0034 FFF7FEFF 		bl	mbedtls_mpi_init
 5310              	.LVL818:
 553:C:/Users/lenovo/Desktop/liteos/Project2/BearPi_LiteOS/components/security/mbedtls/mbedtls-2.6.0/library\bignum.c ****         *p++ = '-';
 5311              		.loc 1 553 0
 5312 0038 2B68     		ldr	r3, [r5]
 5313 003a B3F1FF3F 		cmp	r3, #-1
 5314 003e 09D0     		beq	.L432
 5315              	.L417:
 556:C:/Users/lenovo/Desktop/liteos/Project2/BearPi_LiteOS/components/security/mbedtls/mbedtls-2.6.0/library\bignum.c ****     {
 5316              		.loc 1 556 0
 5317 0040 102C     		cmp	r4, #16
 5318 0042 45D1     		bne	.L418
 5319              	.LBB9:
 561:C:/Users/lenovo/Desktop/liteos/Project2/BearPi_LiteOS/components/security/mbedtls/mbedtls-2.6.0/library\bignum.c ****         {
 5320              		.loc 1 561 0
 5321 0044 6F68     		ldr	r7, [r5, #4]
 5322              	.LVL819:
 5323 0046 0020     		movs	r0, #0
 5324 0048 2FE0     		b	.L419
 5325              	.LVL820:
 5326              	.L431:
 5327              	.LBE9:
 546:C:/Users/lenovo/Desktop/liteos/Project2/BearPi_LiteOS/components/security/mbedtls/mbedtls-2.6.0/library\bignum.c ****         return( MBEDTLS_ERR_MPI_BUFFER_TOO_SMALL );
 5328              		.loc 1 546 0
 5329 004a 0A9B     		ldr	r3, [sp, #40]
 5330 004c 1860     		str	r0, [r3]
 547:C:/Users/lenovo/Desktop/liteos/Project2/BearPi_LiteOS/components/security/mbedtls/mbedtls-2.6.0/library\bignum.c ****     }
 5331              		.loc 1 547 0
ARM GAS  c:\Users\lenovo\AppData\Local\Temp\ccjcyTZ0.s 			page 132


 5332 004e 6FF00705 		mvn	r5, #7
 5333              	.LVL821:
 5334 0052 3AE0     		b	.L412
 5335              	.LVL822:
 5336              	.L432:
 554:C:/Users/lenovo/Desktop/liteos/Project2/BearPi_LiteOS/components/security/mbedtls/mbedtls-2.6.0/library\bignum.c **** 
 5337              		.loc 1 554 0
 5338 0054 039B     		ldr	r3, [sp, #12]
 5339 0056 5A1C     		adds	r2, r3, #1
 5340 0058 0392     		str	r2, [sp, #12]
 5341 005a 2D22     		movs	r2, #45
 5342 005c 1A70     		strb	r2, [r3]
 5343 005e EFE7     		b	.L417
 5344              	.LVL823:
 5345              	.L420:
 5346              	.LBB10:
 570:C:/Users/lenovo/Desktop/liteos/Project2/BearPi_LiteOS/components/security/mbedtls/mbedtls-2.6.0/library\bignum.c ****                 *(p++) = "0123456789ABCDEF" [c % 16];
 5347              		.loc 1 570 0
 5348 0060 0911     		asrs	r1, r1, #4
 5349 0062 039C     		ldr	r4, [sp, #12]
 5350 0064 601C     		adds	r0, r4, #1
 5351              	.LVL824:
 5352 0066 0390     		str	r0, [sp, #12]
 5353 0068 2648     		ldr	r0, .L436
 5354 006a 415C     		ldrb	r1, [r0, r1]	@ zero_extendqisi2
 5355 006c 2170     		strb	r1, [r4]
 571:C:/Users/lenovo/Desktop/liteos/Project2/BearPi_LiteOS/components/security/mbedtls/mbedtls-2.6.0/library\bignum.c ****                 k = 1;
 5356              		.loc 1 571 0
 5357 006e 03F00F03 		and	r3, r3, #15
 5358              	.LVL825:
 5359 0072 0399     		ldr	r1, [sp, #12]
 5360 0074 4C1C     		adds	r4, r1, #1
 5361 0076 0394     		str	r4, [sp, #12]
 5362 0078 C35C     		ldrb	r3, [r0, r3]	@ zero_extendqisi2
 5363 007a 0B70     		strb	r3, [r1]
 5364              	.LVL826:
 572:C:/Users/lenovo/Desktop/liteos/Project2/BearPi_LiteOS/components/security/mbedtls/mbedtls-2.6.0/library\bignum.c ****             }
 5365              		.loc 1 572 0
 5366 007c 0120     		movs	r0, #1
 5367              	.LVL827:
 5368              	.L421:
 572:C:/Users/lenovo/Desktop/liteos/Project2/BearPi_LiteOS/components/security/mbedtls/mbedtls-2.6.0/library\bignum.c ****             }
 5369              		.loc 1 572 0 is_stmt 0 discriminator 1
 5370 007e 1446     		mov	r4, r2
 5371              	.LVL828:
 5372              	.L424:
 563:C:/Users/lenovo/Desktop/liteos/Project2/BearPi_LiteOS/components/security/mbedtls/mbedtls-2.6.0/library\bignum.c ****             {
 5373              		.loc 1 563 0 is_stmt 1 discriminator 1
 5374 0080 94B1     		cbz	r4, .L433
 565:C:/Users/lenovo/Desktop/liteos/Project2/BearPi_LiteOS/components/security/mbedtls/mbedtls-2.6.0/library\bignum.c **** 
 5375              		.loc 1 565 0
 5376 0082 AA68     		ldr	r2, [r5, #8]
 5377 0084 07F18043 		add	r3, r7, #1073741824
 5378 0088 013B     		subs	r3, r3, #1
 5379 008a 52F82310 		ldr	r1, [r2, r3, lsl #2]
 5380 008e 621E     		subs	r2, r4, #1
 5381 0090 D300     		lsls	r3, r2, #3
ARM GAS  c:\Users\lenovo\AppData\Local\Temp\ccjcyTZ0.s 			page 133


 5382 0092 21FA03F3 		lsr	r3, r1, r3
 5383              	.LVL829:
 567:C:/Users/lenovo/Desktop/liteos/Project2/BearPi_LiteOS/components/security/mbedtls/mbedtls-2.6.0/library\bignum.c ****                     continue;
 5384              		.loc 1 567 0
 5385 0096 13F0FF01 		ands	r1, r3, #255
 5386 009a E1D1     		bne	.L420
 567:C:/Users/lenovo/Desktop/liteos/Project2/BearPi_LiteOS/components/security/mbedtls/mbedtls-2.6.0/library\bignum.c ****                     continue;
 5387              		.loc 1 567 0 is_stmt 0 discriminator 1
 5388 009c 0028     		cmp	r0, #0
 5389 009e DFD1     		bne	.L420
 567:C:/Users/lenovo/Desktop/liteos/Project2/BearPi_LiteOS/components/security/mbedtls/mbedtls-2.6.0/library\bignum.c ****                     continue;
 5390              		.loc 1 567 0 discriminator 2
 5391 00a0 3C44     		add	r4, r4, r7
 5392              	.LVL830:
 5393 00a2 022C     		cmp	r4, #2
 5394 00a4 DCD0     		beq	.L420
 5395 00a6 EAE7     		b	.L421
 5396              	.LVL831:
 5397              	.L433:
 561:C:/Users/lenovo/Desktop/liteos/Project2/BearPi_LiteOS/components/security/mbedtls/mbedtls-2.6.0/library\bignum.c ****         {
 5398              		.loc 1 561 0 is_stmt 1 discriminator 2
 5399 00a8 013F     		subs	r7, r7, #1
 5400              	.LVL832:
 5401              	.L419:
 561:C:/Users/lenovo/Desktop/liteos/Project2/BearPi_LiteOS/components/security/mbedtls/mbedtls-2.6.0/library\bignum.c ****         {
 5402              		.loc 1 561 0 is_stmt 0 discriminator 1
 5403 00aa 0FB1     		cbz	r7, .L434
 563:C:/Users/lenovo/Desktop/liteos/Project2/BearPi_LiteOS/components/security/mbedtls/mbedtls-2.6.0/library\bignum.c ****             {
 5404              		.loc 1 563 0 is_stmt 1
 5405 00ac 0424     		movs	r4, #4
 5406 00ae E7E7     		b	.L424
 5407              	.L434:
 5408              	.LBE10:
 526:C:/Users/lenovo/Desktop/liteos/Project2/BearPi_LiteOS/components/security/mbedtls/mbedtls-2.6.0/library\bignum.c ****     size_t n;
 5409              		.loc 1 526 0
 5410 00b0 0025     		movs	r5, #0
 5411              	.LVL833:
 5412              	.L425:
 586:C:/Users/lenovo/Desktop/liteos/Project2/BearPi_LiteOS/components/security/mbedtls/mbedtls-2.6.0/library\bignum.c ****     *olen = p - buf;
 5413              		.loc 1 586 0
 5414 00b2 039B     		ldr	r3, [sp, #12]
 5415 00b4 5A1C     		adds	r2, r3, #1
 5416 00b6 0392     		str	r2, [sp, #12]
 5417 00b8 0022     		movs	r2, #0
 5418 00ba 1A70     		strb	r2, [r3]
 587:C:/Users/lenovo/Desktop/liteos/Project2/BearPi_LiteOS/components/security/mbedtls/mbedtls-2.6.0/library\bignum.c **** 
 5419              		.loc 1 587 0
 5420 00bc 039B     		ldr	r3, [sp, #12]
 5421 00be 9E1B     		subs	r6, r3, r6
 5422              	.LVL834:
 5423 00c0 0A9B     		ldr	r3, [sp, #40]
 5424 00c2 1E60     		str	r6, [r3]
 5425              	.L426:
 591:C:/Users/lenovo/Desktop/liteos/Project2/BearPi_LiteOS/components/security/mbedtls/mbedtls-2.6.0/library\bignum.c **** 
 5426              		.loc 1 591 0
 5427 00c4 6846     		mov	r0, sp
 5428 00c6 FFF7FEFF 		bl	mbedtls_mpi_free
ARM GAS  c:\Users\lenovo\AppData\Local\Temp\ccjcyTZ0.s 			page 134


 5429              	.LVL835:
 5430              	.L412:
 594:C:/Users/lenovo/Desktop/liteos/Project2/BearPi_LiteOS/components/security/mbedtls/mbedtls-2.6.0/library\bignum.c **** 
 5431              		.loc 1 594 0
 5432 00ca 2846     		mov	r0, r5
 5433 00cc 05B0     		add	sp, sp, #20
 5434              	.LCFI95:
 5435              		.cfi_remember_state
 5436              		.cfi_def_cfa_offset 20
 5437              		@ sp needed
 5438 00ce F0BD     		pop	{r4, r5, r6, r7, pc}
 5439              	.LVL836:
 5440              	.L418:
 5441              	.LCFI96:
 5442              		.cfi_restore_state
 578:C:/Users/lenovo/Desktop/liteos/Project2/BearPi_LiteOS/components/security/mbedtls/mbedtls-2.6.0/library\bignum.c **** 
 5443              		.loc 1 578 0
 5444 00d0 2946     		mov	r1, r5
 5445 00d2 6846     		mov	r0, sp
 5446 00d4 FFF7FEFF 		bl	mbedtls_mpi_copy
 5447              	.LVL837:
 5448 00d8 0546     		mov	r5, r0
 5449              	.LVL838:
 5450 00da 0028     		cmp	r0, #0
 5451 00dc F2D1     		bne	.L426
 580:C:/Users/lenovo/Desktop/liteos/Project2/BearPi_LiteOS/components/security/mbedtls/mbedtls-2.6.0/library\bignum.c ****             T.s = 1;
 5452              		.loc 1 580 0
 5453 00de 009B     		ldr	r3, [sp]
 5454 00e0 B3F1FF3F 		cmp	r3, #-1
 5455 00e4 08D0     		beq	.L435
 5456              	.L427:
 583:C:/Users/lenovo/Desktop/liteos/Project2/BearPi_LiteOS/components/security/mbedtls/mbedtls-2.6.0/library\bignum.c ****     }
 5457              		.loc 1 583 0
 5458 00e6 03AA     		add	r2, sp, #12
 5459 00e8 2146     		mov	r1, r4
 5460 00ea 6846     		mov	r0, sp
 5461              	.LVL839:
 5462 00ec FFF7FEFF 		bl	mpi_write_hlp
 5463              	.LVL840:
 5464 00f0 0546     		mov	r5, r0
 5465 00f2 0028     		cmp	r0, #0
 5466 00f4 E6D1     		bne	.L426
 5467 00f6 DCE7     		b	.L425
 5468              	.L435:
 581:C:/Users/lenovo/Desktop/liteos/Project2/BearPi_LiteOS/components/security/mbedtls/mbedtls-2.6.0/library\bignum.c **** 
 5469              		.loc 1 581 0
 5470 00f8 0123     		movs	r3, #1
 5471 00fa 0093     		str	r3, [sp]
 5472 00fc F3E7     		b	.L427
 5473              	.LVL841:
 5474              	.L428:
 532:C:/Users/lenovo/Desktop/liteos/Project2/BearPi_LiteOS/components/security/mbedtls/mbedtls-2.6.0/library\bignum.c **** 
 5475              		.loc 1 532 0
 5476 00fe 6FF00305 		mvn	r5, #3
 5477 0102 E2E7     		b	.L412
 5478              	.L437:
 5479              		.align	2
ARM GAS  c:\Users\lenovo\AppData\Local\Temp\ccjcyTZ0.s 			page 135


 5480              	.L436:
 5481 0104 00000000 		.word	.LC0
 5482              		.cfi_endproc
 5483              	.LFE22:
 5485              		.section	.text.mbedtls_mpi_exp_mod,"ax",%progbits
 5486              		.align	1
 5487              		.global	mbedtls_mpi_exp_mod
 5488              		.syntax unified
 5489              		.thumb
 5490              		.thumb_func
 5491              		.fpu fpv4-sp-d16
 5493              	mbedtls_mpi_exp_mod:
 5494              	.LFB48:
1603:C:/Users/lenovo/Desktop/liteos/Project2/BearPi_LiteOS/components/security/mbedtls/mbedtls-2.6.0/library\bignum.c **** 
1604:C:/Users/lenovo/Desktop/liteos/Project2/BearPi_LiteOS/components/security/mbedtls/mbedtls-2.6.0/library\bignum.c **** /*
1605:C:/Users/lenovo/Desktop/liteos/Project2/BearPi_LiteOS/components/security/mbedtls/mbedtls-2.6.0/library\bignum.c ****  * Sliding-window exponentiation: X = A^E mod N  (HAC 14.85)
1606:C:/Users/lenovo/Desktop/liteos/Project2/BearPi_LiteOS/components/security/mbedtls/mbedtls-2.6.0/library\bignum.c ****  */
1607:C:/Users/lenovo/Desktop/liteos/Project2/BearPi_LiteOS/components/security/mbedtls/mbedtls-2.6.0/library\bignum.c **** int mbedtls_mpi_exp_mod( mbedtls_mpi *X, const mbedtls_mpi *A, const mbedtls_mpi *E, const mbedtls_
1608:C:/Users/lenovo/Desktop/liteos/Project2/BearPi_LiteOS/components/security/mbedtls/mbedtls-2.6.0/library\bignum.c **** {
 5495              		.loc 1 1608 0
 5496              		.cfi_startproc
 5497              		@ args = 4, pretend = 0, frame = 1592
 5498              		@ frame_needed = 0, uses_anonymous_args = 0
 5499              	.LVL842:
 5500 0000 2DE9F04F 		push	{r4, r5, r6, r7, r8, r9, r10, fp, lr}
 5501              	.LCFI97:
 5502              		.cfi_def_cfa_offset 36
 5503              		.cfi_offset 4, -36
 5504              		.cfi_offset 5, -32
 5505              		.cfi_offset 6, -28
 5506              		.cfi_offset 7, -24
 5507              		.cfi_offset 8, -20
 5508              		.cfi_offset 9, -16
 5509              		.cfi_offset 10, -12
 5510              		.cfi_offset 11, -8
 5511              		.cfi_offset 14, -4
 5512 0004 ADF2446D 		subw	sp, sp, #1604
 5513              	.LCFI98:
 5514              		.cfi_def_cfa_offset 1640
 5515 0008 8146     		mov	r9, r0
 5516 000a 8B46     		mov	fp, r1
 5517 000c 1646     		mov	r6, r2
 5518 000e 1D46     		mov	r5, r3
 5519 0010 DDF86876 		ldr	r7, [sp, #1640]
 5520              	.LVL843:
1609:C:/Users/lenovo/Desktop/liteos/Project2/BearPi_LiteOS/components/security/mbedtls/mbedtls-2.6.0/library\bignum.c ****     int ret;
1610:C:/Users/lenovo/Desktop/liteos/Project2/BearPi_LiteOS/components/security/mbedtls/mbedtls-2.6.0/library\bignum.c ****     size_t wbits, wsize, one = 1;
1611:C:/Users/lenovo/Desktop/liteos/Project2/BearPi_LiteOS/components/security/mbedtls/mbedtls-2.6.0/library\bignum.c ****     size_t i, j, nblimbs;
1612:C:/Users/lenovo/Desktop/liteos/Project2/BearPi_LiteOS/components/security/mbedtls/mbedtls-2.6.0/library\bignum.c ****     size_t bufsize, nbits;
1613:C:/Users/lenovo/Desktop/liteos/Project2/BearPi_LiteOS/components/security/mbedtls/mbedtls-2.6.0/library\bignum.c ****     mbedtls_mpi_uint ei, mm, state;
1614:C:/Users/lenovo/Desktop/liteos/Project2/BearPi_LiteOS/components/security/mbedtls/mbedtls-2.6.0/library\bignum.c ****     mbedtls_mpi RR, T, W[ 2 << MBEDTLS_MPI_WINDOW_SIZE ], Apos;
1615:C:/Users/lenovo/Desktop/liteos/Project2/BearPi_LiteOS/components/security/mbedtls/mbedtls-2.6.0/library\bignum.c ****     int neg;
1616:C:/Users/lenovo/Desktop/liteos/Project2/BearPi_LiteOS/components/security/mbedtls/mbedtls-2.6.0/library\bignum.c **** 
1617:C:/Users/lenovo/Desktop/liteos/Project2/BearPi_LiteOS/components/security/mbedtls/mbedtls-2.6.0/library\bignum.c ****     if( mbedtls_mpi_cmp_int( N, 0 ) < 0 || ( N->p[0] & 1 ) == 0 )
 5521              		.loc 1 1617 0
 5522 0014 0021     		movs	r1, #0
 5523              	.LVL844:
ARM GAS  c:\Users\lenovo\AppData\Local\Temp\ccjcyTZ0.s 			page 136


 5524 0016 1846     		mov	r0, r3
 5525              	.LVL845:
 5526 0018 FFF7FEFF 		bl	mbedtls_mpi_cmp_int
 5527              	.LVL846:
 5528 001c 0028     		cmp	r0, #0
 5529 001e C0F23482 		blt	.L466
 5530              		.loc 1 1617 0 is_stmt 0 discriminator 1
 5531 0022 AB68     		ldr	r3, [r5, #8]
 5532 0024 1B68     		ldr	r3, [r3]
 5533 0026 13F0010F 		tst	r3, #1
 5534 002a 00F03182 		beq	.L467
1618:C:/Users/lenovo/Desktop/liteos/Project2/BearPi_LiteOS/components/security/mbedtls/mbedtls-2.6.0/library\bignum.c ****         return( MBEDTLS_ERR_MPI_BAD_INPUT_DATA );
1619:C:/Users/lenovo/Desktop/liteos/Project2/BearPi_LiteOS/components/security/mbedtls/mbedtls-2.6.0/library\bignum.c **** 
1620:C:/Users/lenovo/Desktop/liteos/Project2/BearPi_LiteOS/components/security/mbedtls/mbedtls-2.6.0/library\bignum.c ****     if( mbedtls_mpi_cmp_int( E, 0 ) < 0 )
 5535              		.loc 1 1620 0 is_stmt 1
 5536 002e 0021     		movs	r1, #0
 5537 0030 3046     		mov	r0, r6
 5538 0032 FFF7FEFF 		bl	mbedtls_mpi_cmp_int
 5539              	.LVL847:
 5540 0036 0028     		cmp	r0, #0
 5541 0038 C0F22D82 		blt	.L468
1621:C:/Users/lenovo/Desktop/liteos/Project2/BearPi_LiteOS/components/security/mbedtls/mbedtls-2.6.0/library\bignum.c ****         return( MBEDTLS_ERR_MPI_BAD_INPUT_DATA );
1622:C:/Users/lenovo/Desktop/liteos/Project2/BearPi_LiteOS/components/security/mbedtls/mbedtls-2.6.0/library\bignum.c **** 
1623:C:/Users/lenovo/Desktop/liteos/Project2/BearPi_LiteOS/components/security/mbedtls/mbedtls-2.6.0/library\bignum.c ****     /*
1624:C:/Users/lenovo/Desktop/liteos/Project2/BearPi_LiteOS/components/security/mbedtls/mbedtls-2.6.0/library\bignum.c ****      * Init temps and window size
1625:C:/Users/lenovo/Desktop/liteos/Project2/BearPi_LiteOS/components/security/mbedtls/mbedtls-2.6.0/library\bignum.c ****      */
1626:C:/Users/lenovo/Desktop/liteos/Project2/BearPi_LiteOS/components/security/mbedtls/mbedtls-2.6.0/library\bignum.c ****     mpi_montg_init( &mm, N );
 5542              		.loc 1 1626 0
 5543 003c 2946     		mov	r1, r5
 5544 003e 0DF23C60 		addw	r0, sp, #1596
 5545 0042 FFF7FEFF 		bl	mpi_montg_init
 5546              	.LVL848:
1627:C:/Users/lenovo/Desktop/liteos/Project2/BearPi_LiteOS/components/security/mbedtls/mbedtls-2.6.0/library\bignum.c ****     mbedtls_mpi_init( &RR ); mbedtls_mpi_init( &T );
 5547              		.loc 1 1627 0
 5548 0046 0DF5C660 		add	r0, sp, #1584
 5549 004a FFF7FEFF 		bl	mbedtls_mpi_init
 5550              	.LVL849:
 5551 004e 0DF22460 		addw	r0, sp, #1572
 5552 0052 FFF7FEFF 		bl	mbedtls_mpi_init
 5553              	.LVL850:
1628:C:/Users/lenovo/Desktop/liteos/Project2/BearPi_LiteOS/components/security/mbedtls/mbedtls-2.6.0/library\bignum.c ****     mbedtls_mpi_init( &Apos );
 5554              		.loc 1 1628 0
 5555 0056 06A8     		add	r0, sp, #24
 5556 0058 FFF7FEFF 		bl	mbedtls_mpi_init
 5557              	.LVL851:
1629:C:/Users/lenovo/Desktop/liteos/Project2/BearPi_LiteOS/components/security/mbedtls/mbedtls-2.6.0/library\bignum.c ****     memset( W, 0, sizeof( W ) );
 5558              		.loc 1 1629 0
 5559 005c 4FF4C062 		mov	r2, #1536
 5560 0060 0021     		movs	r1, #0
 5561 0062 09A8     		add	r0, sp, #36
 5562 0064 FFF7FEFF 		bl	memset
 5563              	.LVL852:
1630:C:/Users/lenovo/Desktop/liteos/Project2/BearPi_LiteOS/components/security/mbedtls/mbedtls-2.6.0/library\bignum.c **** 
1631:C:/Users/lenovo/Desktop/liteos/Project2/BearPi_LiteOS/components/security/mbedtls/mbedtls-2.6.0/library\bignum.c ****     i = mbedtls_mpi_bitlen( E );
 5564              		.loc 1 1631 0
 5565 0068 3046     		mov	r0, r6
 5566 006a FFF7FEFF 		bl	mbedtls_mpi_bitlen
ARM GAS  c:\Users\lenovo\AppData\Local\Temp\ccjcyTZ0.s 			page 137


 5567              	.LVL853:
1632:C:/Users/lenovo/Desktop/liteos/Project2/BearPi_LiteOS/components/security/mbedtls/mbedtls-2.6.0/library\bignum.c **** 
1633:C:/Users/lenovo/Desktop/liteos/Project2/BearPi_LiteOS/components/security/mbedtls/mbedtls-2.6.0/library\bignum.c ****     wsize = ( i > 671 ) ? 6 : ( i > 239 ) ? 5 :
 5568              		.loc 1 1633 0
 5569 006e B0F5287F 		cmp	r0, #672
 5570 0072 07D2     		bcs	.L469
 5571              		.loc 1 1633 0 is_stmt 0 discriminator 1
 5572 0074 EF28     		cmp	r0, #239
 5573 0076 13D8     		bhi	.L470
 5574              		.loc 1 1633 0 discriminator 3
 5575 0078 4F28     		cmp	r0, #79
 5576 007a 13D8     		bhi	.L471
 5577              		.loc 1 1633 0 discriminator 5
 5578 007c 1728     		cmp	r0, #23
 5579 007e 13D9     		bls	.L472
 5580              		.loc 1 1633 0
 5581 0080 0324     		movs	r4, #3
 5582 0082 00E0     		b	.L440
 5583              	.L469:
 5584 0084 0624     		movs	r4, #6
 5585              	.L440:
 5586              	.LVL854:
1634:C:/Users/lenovo/Desktop/liteos/Project2/BearPi_LiteOS/components/security/mbedtls/mbedtls-2.6.0/library\bignum.c ****             ( i >  79 ) ? 4 : ( i >  23 ) ? 3 : 1;
1635:C:/Users/lenovo/Desktop/liteos/Project2/BearPi_LiteOS/components/security/mbedtls/mbedtls-2.6.0/library\bignum.c **** 
1636:C:/Users/lenovo/Desktop/liteos/Project2/BearPi_LiteOS/components/security/mbedtls/mbedtls-2.6.0/library\bignum.c ****     if( wsize > MBEDTLS_MPI_WINDOW_SIZE )
1637:C:/Users/lenovo/Desktop/liteos/Project2/BearPi_LiteOS/components/security/mbedtls/mbedtls-2.6.0/library\bignum.c ****         wsize = MBEDTLS_MPI_WINDOW_SIZE;
1638:C:/Users/lenovo/Desktop/liteos/Project2/BearPi_LiteOS/components/security/mbedtls/mbedtls-2.6.0/library\bignum.c **** 
1639:C:/Users/lenovo/Desktop/liteos/Project2/BearPi_LiteOS/components/security/mbedtls/mbedtls-2.6.0/library\bignum.c ****     j = N->n + 1;
 5587              		.loc 1 1639 0 is_stmt 1
 5588 0086 6B68     		ldr	r3, [r5, #4]
 5589 0088 03F1010A 		add	r10, r3, #1
 5590              	.LVL855:
1640:C:/Users/lenovo/Desktop/liteos/Project2/BearPi_LiteOS/components/security/mbedtls/mbedtls-2.6.0/library\bignum.c ****     MBEDTLS_MPI_CHK( mbedtls_mpi_grow( X, j ) );
 5591              		.loc 1 1640 0
 5592 008c 5146     		mov	r1, r10
 5593 008e 4846     		mov	r0, r9
 5594              	.LVL856:
 5595 0090 FFF7FEFF 		bl	mbedtls_mpi_grow
 5596              	.LVL857:
 5597 0094 8046     		mov	r8, r0
 5598 0096 48B1     		cbz	r0, .L485
 5599              	.LVL858:
 5600              	.L441:
1641:C:/Users/lenovo/Desktop/liteos/Project2/BearPi_LiteOS/components/security/mbedtls/mbedtls-2.6.0/library\bignum.c ****     MBEDTLS_MPI_CHK( mbedtls_mpi_grow( &W[1],  j ) );
1642:C:/Users/lenovo/Desktop/liteos/Project2/BearPi_LiteOS/components/security/mbedtls/mbedtls-2.6.0/library\bignum.c ****     MBEDTLS_MPI_CHK( mbedtls_mpi_grow( &T, j * 2 ) );
1643:C:/Users/lenovo/Desktop/liteos/Project2/BearPi_LiteOS/components/security/mbedtls/mbedtls-2.6.0/library\bignum.c **** 
1644:C:/Users/lenovo/Desktop/liteos/Project2/BearPi_LiteOS/components/security/mbedtls/mbedtls-2.6.0/library\bignum.c ****     /*
1645:C:/Users/lenovo/Desktop/liteos/Project2/BearPi_LiteOS/components/security/mbedtls/mbedtls-2.6.0/library\bignum.c ****      * Compensate for negative A (and correct at the end)
1646:C:/Users/lenovo/Desktop/liteos/Project2/BearPi_LiteOS/components/security/mbedtls/mbedtls-2.6.0/library\bignum.c ****      */
1647:C:/Users/lenovo/Desktop/liteos/Project2/BearPi_LiteOS/components/security/mbedtls/mbedtls-2.6.0/library\bignum.c ****     neg = ( A->s == -1 );
1648:C:/Users/lenovo/Desktop/liteos/Project2/BearPi_LiteOS/components/security/mbedtls/mbedtls-2.6.0/library\bignum.c ****     if( neg )
1649:C:/Users/lenovo/Desktop/liteos/Project2/BearPi_LiteOS/components/security/mbedtls/mbedtls-2.6.0/library\bignum.c ****     {
1650:C:/Users/lenovo/Desktop/liteos/Project2/BearPi_LiteOS/components/security/mbedtls/mbedtls-2.6.0/library\bignum.c ****         MBEDTLS_MPI_CHK( mbedtls_mpi_copy( &Apos, A ) );
1651:C:/Users/lenovo/Desktop/liteos/Project2/BearPi_LiteOS/components/security/mbedtls/mbedtls-2.6.0/library\bignum.c ****         Apos.s = 1;
1652:C:/Users/lenovo/Desktop/liteos/Project2/BearPi_LiteOS/components/security/mbedtls/mbedtls-2.6.0/library\bignum.c ****         A = &Apos;
1653:C:/Users/lenovo/Desktop/liteos/Project2/BearPi_LiteOS/components/security/mbedtls/mbedtls-2.6.0/library\bignum.c ****     }
1654:C:/Users/lenovo/Desktop/liteos/Project2/BearPi_LiteOS/components/security/mbedtls/mbedtls-2.6.0/library\bignum.c **** 
ARM GAS  c:\Users\lenovo\AppData\Local\Temp\ccjcyTZ0.s 			page 138


1655:C:/Users/lenovo/Desktop/liteos/Project2/BearPi_LiteOS/components/security/mbedtls/mbedtls-2.6.0/library\bignum.c ****     /*
1656:C:/Users/lenovo/Desktop/liteos/Project2/BearPi_LiteOS/components/security/mbedtls/mbedtls-2.6.0/library\bignum.c ****      * If 1st call, pre-compute R^2 mod N
1657:C:/Users/lenovo/Desktop/liteos/Project2/BearPi_LiteOS/components/security/mbedtls/mbedtls-2.6.0/library\bignum.c ****      */
1658:C:/Users/lenovo/Desktop/liteos/Project2/BearPi_LiteOS/components/security/mbedtls/mbedtls-2.6.0/library\bignum.c ****     if( _RR == NULL || _RR->p == NULL )
1659:C:/Users/lenovo/Desktop/liteos/Project2/BearPi_LiteOS/components/security/mbedtls/mbedtls-2.6.0/library\bignum.c ****     {
1660:C:/Users/lenovo/Desktop/liteos/Project2/BearPi_LiteOS/components/security/mbedtls/mbedtls-2.6.0/library\bignum.c ****         MBEDTLS_MPI_CHK( mbedtls_mpi_lset( &RR, 1 ) );
1661:C:/Users/lenovo/Desktop/liteos/Project2/BearPi_LiteOS/components/security/mbedtls/mbedtls-2.6.0/library\bignum.c ****         MBEDTLS_MPI_CHK( mbedtls_mpi_shift_l( &RR, N->n * 2 * biL ) );
1662:C:/Users/lenovo/Desktop/liteos/Project2/BearPi_LiteOS/components/security/mbedtls/mbedtls-2.6.0/library\bignum.c ****         MBEDTLS_MPI_CHK( mbedtls_mpi_mod_mpi( &RR, &RR, N ) );
1663:C:/Users/lenovo/Desktop/liteos/Project2/BearPi_LiteOS/components/security/mbedtls/mbedtls-2.6.0/library\bignum.c **** 
1664:C:/Users/lenovo/Desktop/liteos/Project2/BearPi_LiteOS/components/security/mbedtls/mbedtls-2.6.0/library\bignum.c ****         if( _RR != NULL )
1665:C:/Users/lenovo/Desktop/liteos/Project2/BearPi_LiteOS/components/security/mbedtls/mbedtls-2.6.0/library\bignum.c ****             memcpy( _RR, &RR, sizeof( mbedtls_mpi ) );
1666:C:/Users/lenovo/Desktop/liteos/Project2/BearPi_LiteOS/components/security/mbedtls/mbedtls-2.6.0/library\bignum.c ****     }
1667:C:/Users/lenovo/Desktop/liteos/Project2/BearPi_LiteOS/components/security/mbedtls/mbedtls-2.6.0/library\bignum.c ****     else
1668:C:/Users/lenovo/Desktop/liteos/Project2/BearPi_LiteOS/components/security/mbedtls/mbedtls-2.6.0/library\bignum.c ****         memcpy( &RR, _RR, sizeof( mbedtls_mpi ) );
1669:C:/Users/lenovo/Desktop/liteos/Project2/BearPi_LiteOS/components/security/mbedtls/mbedtls-2.6.0/library\bignum.c **** 
1670:C:/Users/lenovo/Desktop/liteos/Project2/BearPi_LiteOS/components/security/mbedtls/mbedtls-2.6.0/library\bignum.c ****     /*
1671:C:/Users/lenovo/Desktop/liteos/Project2/BearPi_LiteOS/components/security/mbedtls/mbedtls-2.6.0/library\bignum.c ****      * W[1] = A * R^2 * R^-1 mod N = A * R mod N
1672:C:/Users/lenovo/Desktop/liteos/Project2/BearPi_LiteOS/components/security/mbedtls/mbedtls-2.6.0/library\bignum.c ****      */
1673:C:/Users/lenovo/Desktop/liteos/Project2/BearPi_LiteOS/components/security/mbedtls/mbedtls-2.6.0/library\bignum.c ****     if( mbedtls_mpi_cmp_mpi( A, N ) >= 0 )
1674:C:/Users/lenovo/Desktop/liteos/Project2/BearPi_LiteOS/components/security/mbedtls/mbedtls-2.6.0/library\bignum.c ****         MBEDTLS_MPI_CHK( mbedtls_mpi_mod_mpi( &W[1], A, N ) );
1675:C:/Users/lenovo/Desktop/liteos/Project2/BearPi_LiteOS/components/security/mbedtls/mbedtls-2.6.0/library\bignum.c ****     else
1676:C:/Users/lenovo/Desktop/liteos/Project2/BearPi_LiteOS/components/security/mbedtls/mbedtls-2.6.0/library\bignum.c ****         MBEDTLS_MPI_CHK( mbedtls_mpi_copy( &W[1], A ) );
1677:C:/Users/lenovo/Desktop/liteos/Project2/BearPi_LiteOS/components/security/mbedtls/mbedtls-2.6.0/library\bignum.c **** 
1678:C:/Users/lenovo/Desktop/liteos/Project2/BearPi_LiteOS/components/security/mbedtls/mbedtls-2.6.0/library\bignum.c ****     MBEDTLS_MPI_CHK( mpi_montmul( &W[1], &RR, N, mm, &T ) );
1679:C:/Users/lenovo/Desktop/liteos/Project2/BearPi_LiteOS/components/security/mbedtls/mbedtls-2.6.0/library\bignum.c **** 
1680:C:/Users/lenovo/Desktop/liteos/Project2/BearPi_LiteOS/components/security/mbedtls/mbedtls-2.6.0/library\bignum.c ****     /*
1681:C:/Users/lenovo/Desktop/liteos/Project2/BearPi_LiteOS/components/security/mbedtls/mbedtls-2.6.0/library\bignum.c ****      * X = R^2 * R^-1 mod N = R mod N
1682:C:/Users/lenovo/Desktop/liteos/Project2/BearPi_LiteOS/components/security/mbedtls/mbedtls-2.6.0/library\bignum.c ****      */
1683:C:/Users/lenovo/Desktop/liteos/Project2/BearPi_LiteOS/components/security/mbedtls/mbedtls-2.6.0/library\bignum.c ****     MBEDTLS_MPI_CHK( mbedtls_mpi_copy( X, &RR ) );
1684:C:/Users/lenovo/Desktop/liteos/Project2/BearPi_LiteOS/components/security/mbedtls/mbedtls-2.6.0/library\bignum.c ****     MBEDTLS_MPI_CHK( mpi_montred( X, N, mm, &T ) );
1685:C:/Users/lenovo/Desktop/liteos/Project2/BearPi_LiteOS/components/security/mbedtls/mbedtls-2.6.0/library\bignum.c **** 
1686:C:/Users/lenovo/Desktop/liteos/Project2/BearPi_LiteOS/components/security/mbedtls/mbedtls-2.6.0/library\bignum.c ****     if( wsize > 1 )
1687:C:/Users/lenovo/Desktop/liteos/Project2/BearPi_LiteOS/components/security/mbedtls/mbedtls-2.6.0/library\bignum.c ****     {
1688:C:/Users/lenovo/Desktop/liteos/Project2/BearPi_LiteOS/components/security/mbedtls/mbedtls-2.6.0/library\bignum.c ****         /*
1689:C:/Users/lenovo/Desktop/liteos/Project2/BearPi_LiteOS/components/security/mbedtls/mbedtls-2.6.0/library\bignum.c ****          * W[1 << (wsize - 1)] = W[1] ^ (wsize - 1)
1690:C:/Users/lenovo/Desktop/liteos/Project2/BearPi_LiteOS/components/security/mbedtls/mbedtls-2.6.0/library\bignum.c ****          */
1691:C:/Users/lenovo/Desktop/liteos/Project2/BearPi_LiteOS/components/security/mbedtls/mbedtls-2.6.0/library\bignum.c ****         j =  one << ( wsize - 1 );
1692:C:/Users/lenovo/Desktop/liteos/Project2/BearPi_LiteOS/components/security/mbedtls/mbedtls-2.6.0/library\bignum.c **** 
1693:C:/Users/lenovo/Desktop/liteos/Project2/BearPi_LiteOS/components/security/mbedtls/mbedtls-2.6.0/library\bignum.c ****         MBEDTLS_MPI_CHK( mbedtls_mpi_grow( &W[j], N->n + 1 ) );
1694:C:/Users/lenovo/Desktop/liteos/Project2/BearPi_LiteOS/components/security/mbedtls/mbedtls-2.6.0/library\bignum.c ****         MBEDTLS_MPI_CHK( mbedtls_mpi_copy( &W[j], &W[1]    ) );
1695:C:/Users/lenovo/Desktop/liteos/Project2/BearPi_LiteOS/components/security/mbedtls/mbedtls-2.6.0/library\bignum.c **** 
1696:C:/Users/lenovo/Desktop/liteos/Project2/BearPi_LiteOS/components/security/mbedtls/mbedtls-2.6.0/library\bignum.c ****         for( i = 0; i < wsize - 1; i++ )
1697:C:/Users/lenovo/Desktop/liteos/Project2/BearPi_LiteOS/components/security/mbedtls/mbedtls-2.6.0/library\bignum.c ****             MBEDTLS_MPI_CHK( mpi_montmul( &W[j], &W[j], N, mm, &T ) );
1698:C:/Users/lenovo/Desktop/liteos/Project2/BearPi_LiteOS/components/security/mbedtls/mbedtls-2.6.0/library\bignum.c **** 
1699:C:/Users/lenovo/Desktop/liteos/Project2/BearPi_LiteOS/components/security/mbedtls/mbedtls-2.6.0/library\bignum.c ****         /*
1700:C:/Users/lenovo/Desktop/liteos/Project2/BearPi_LiteOS/components/security/mbedtls/mbedtls-2.6.0/library\bignum.c ****          * W[i] = W[i - 1] * W[1]
1701:C:/Users/lenovo/Desktop/liteos/Project2/BearPi_LiteOS/components/security/mbedtls/mbedtls-2.6.0/library\bignum.c ****          */
1702:C:/Users/lenovo/Desktop/liteos/Project2/BearPi_LiteOS/components/security/mbedtls/mbedtls-2.6.0/library\bignum.c ****         for( i = j + 1; i < ( one << wsize ); i++ )
1703:C:/Users/lenovo/Desktop/liteos/Project2/BearPi_LiteOS/components/security/mbedtls/mbedtls-2.6.0/library\bignum.c ****         {
1704:C:/Users/lenovo/Desktop/liteos/Project2/BearPi_LiteOS/components/security/mbedtls/mbedtls-2.6.0/library\bignum.c ****             MBEDTLS_MPI_CHK( mbedtls_mpi_grow( &W[i], N->n + 1 ) );
1705:C:/Users/lenovo/Desktop/liteos/Project2/BearPi_LiteOS/components/security/mbedtls/mbedtls-2.6.0/library\bignum.c ****             MBEDTLS_MPI_CHK( mbedtls_mpi_copy( &W[i], &W[i - 1] ) );
1706:C:/Users/lenovo/Desktop/liteos/Project2/BearPi_LiteOS/components/security/mbedtls/mbedtls-2.6.0/library\bignum.c **** 
1707:C:/Users/lenovo/Desktop/liteos/Project2/BearPi_LiteOS/components/security/mbedtls/mbedtls-2.6.0/library\bignum.c ****             MBEDTLS_MPI_CHK( mpi_montmul( &W[i], &W[1], N, mm, &T ) );
1708:C:/Users/lenovo/Desktop/liteos/Project2/BearPi_LiteOS/components/security/mbedtls/mbedtls-2.6.0/library\bignum.c ****         }
1709:C:/Users/lenovo/Desktop/liteos/Project2/BearPi_LiteOS/components/security/mbedtls/mbedtls-2.6.0/library\bignum.c ****     }
1710:C:/Users/lenovo/Desktop/liteos/Project2/BearPi_LiteOS/components/security/mbedtls/mbedtls-2.6.0/library\bignum.c **** 
1711:C:/Users/lenovo/Desktop/liteos/Project2/BearPi_LiteOS/components/security/mbedtls/mbedtls-2.6.0/library\bignum.c ****     nblimbs = E->n;
ARM GAS  c:\Users\lenovo\AppData\Local\Temp\ccjcyTZ0.s 			page 139


1712:C:/Users/lenovo/Desktop/liteos/Project2/BearPi_LiteOS/components/security/mbedtls/mbedtls-2.6.0/library\bignum.c ****     bufsize = 0;
1713:C:/Users/lenovo/Desktop/liteos/Project2/BearPi_LiteOS/components/security/mbedtls/mbedtls-2.6.0/library\bignum.c ****     nbits   = 0;
1714:C:/Users/lenovo/Desktop/liteos/Project2/BearPi_LiteOS/components/security/mbedtls/mbedtls-2.6.0/library\bignum.c ****     wbits   = 0;
1715:C:/Users/lenovo/Desktop/liteos/Project2/BearPi_LiteOS/components/security/mbedtls/mbedtls-2.6.0/library\bignum.c ****     state   = 0;
1716:C:/Users/lenovo/Desktop/liteos/Project2/BearPi_LiteOS/components/security/mbedtls/mbedtls-2.6.0/library\bignum.c **** 
1717:C:/Users/lenovo/Desktop/liteos/Project2/BearPi_LiteOS/components/security/mbedtls/mbedtls-2.6.0/library\bignum.c ****     while( 1 )
1718:C:/Users/lenovo/Desktop/liteos/Project2/BearPi_LiteOS/components/security/mbedtls/mbedtls-2.6.0/library\bignum.c ****     {
1719:C:/Users/lenovo/Desktop/liteos/Project2/BearPi_LiteOS/components/security/mbedtls/mbedtls-2.6.0/library\bignum.c ****         if( bufsize == 0 )
1720:C:/Users/lenovo/Desktop/liteos/Project2/BearPi_LiteOS/components/security/mbedtls/mbedtls-2.6.0/library\bignum.c ****         {
1721:C:/Users/lenovo/Desktop/liteos/Project2/BearPi_LiteOS/components/security/mbedtls/mbedtls-2.6.0/library\bignum.c ****             if( nblimbs == 0 )
1722:C:/Users/lenovo/Desktop/liteos/Project2/BearPi_LiteOS/components/security/mbedtls/mbedtls-2.6.0/library\bignum.c ****                 break;
1723:C:/Users/lenovo/Desktop/liteos/Project2/BearPi_LiteOS/components/security/mbedtls/mbedtls-2.6.0/library\bignum.c **** 
1724:C:/Users/lenovo/Desktop/liteos/Project2/BearPi_LiteOS/components/security/mbedtls/mbedtls-2.6.0/library\bignum.c ****             nblimbs--;
1725:C:/Users/lenovo/Desktop/liteos/Project2/BearPi_LiteOS/components/security/mbedtls/mbedtls-2.6.0/library\bignum.c **** 
1726:C:/Users/lenovo/Desktop/liteos/Project2/BearPi_LiteOS/components/security/mbedtls/mbedtls-2.6.0/library\bignum.c ****             bufsize = sizeof( mbedtls_mpi_uint ) << 3;
1727:C:/Users/lenovo/Desktop/liteos/Project2/BearPi_LiteOS/components/security/mbedtls/mbedtls-2.6.0/library\bignum.c ****         }
1728:C:/Users/lenovo/Desktop/liteos/Project2/BearPi_LiteOS/components/security/mbedtls/mbedtls-2.6.0/library\bignum.c **** 
1729:C:/Users/lenovo/Desktop/liteos/Project2/BearPi_LiteOS/components/security/mbedtls/mbedtls-2.6.0/library\bignum.c ****         bufsize--;
1730:C:/Users/lenovo/Desktop/liteos/Project2/BearPi_LiteOS/components/security/mbedtls/mbedtls-2.6.0/library\bignum.c **** 
1731:C:/Users/lenovo/Desktop/liteos/Project2/BearPi_LiteOS/components/security/mbedtls/mbedtls-2.6.0/library\bignum.c ****         ei = (E->p[nblimbs] >> bufsize) & 1;
1732:C:/Users/lenovo/Desktop/liteos/Project2/BearPi_LiteOS/components/security/mbedtls/mbedtls-2.6.0/library\bignum.c **** 
1733:C:/Users/lenovo/Desktop/liteos/Project2/BearPi_LiteOS/components/security/mbedtls/mbedtls-2.6.0/library\bignum.c ****         /*
1734:C:/Users/lenovo/Desktop/liteos/Project2/BearPi_LiteOS/components/security/mbedtls/mbedtls-2.6.0/library\bignum.c ****          * skip leading 0s
1735:C:/Users/lenovo/Desktop/liteos/Project2/BearPi_LiteOS/components/security/mbedtls/mbedtls-2.6.0/library\bignum.c ****          */
1736:C:/Users/lenovo/Desktop/liteos/Project2/BearPi_LiteOS/components/security/mbedtls/mbedtls-2.6.0/library\bignum.c ****         if( ei == 0 && state == 0 )
1737:C:/Users/lenovo/Desktop/liteos/Project2/BearPi_LiteOS/components/security/mbedtls/mbedtls-2.6.0/library\bignum.c ****             continue;
1738:C:/Users/lenovo/Desktop/liteos/Project2/BearPi_LiteOS/components/security/mbedtls/mbedtls-2.6.0/library\bignum.c **** 
1739:C:/Users/lenovo/Desktop/liteos/Project2/BearPi_LiteOS/components/security/mbedtls/mbedtls-2.6.0/library\bignum.c ****         if( ei == 0 && state == 1 )
1740:C:/Users/lenovo/Desktop/liteos/Project2/BearPi_LiteOS/components/security/mbedtls/mbedtls-2.6.0/library\bignum.c ****         {
1741:C:/Users/lenovo/Desktop/liteos/Project2/BearPi_LiteOS/components/security/mbedtls/mbedtls-2.6.0/library\bignum.c ****             /*
1742:C:/Users/lenovo/Desktop/liteos/Project2/BearPi_LiteOS/components/security/mbedtls/mbedtls-2.6.0/library\bignum.c ****              * out of window, square X
1743:C:/Users/lenovo/Desktop/liteos/Project2/BearPi_LiteOS/components/security/mbedtls/mbedtls-2.6.0/library\bignum.c ****              */
1744:C:/Users/lenovo/Desktop/liteos/Project2/BearPi_LiteOS/components/security/mbedtls/mbedtls-2.6.0/library\bignum.c ****             MBEDTLS_MPI_CHK( mpi_montmul( X, X, N, mm, &T ) );
1745:C:/Users/lenovo/Desktop/liteos/Project2/BearPi_LiteOS/components/security/mbedtls/mbedtls-2.6.0/library\bignum.c ****             continue;
1746:C:/Users/lenovo/Desktop/liteos/Project2/BearPi_LiteOS/components/security/mbedtls/mbedtls-2.6.0/library\bignum.c ****         }
1747:C:/Users/lenovo/Desktop/liteos/Project2/BearPi_LiteOS/components/security/mbedtls/mbedtls-2.6.0/library\bignum.c **** 
1748:C:/Users/lenovo/Desktop/liteos/Project2/BearPi_LiteOS/components/security/mbedtls/mbedtls-2.6.0/library\bignum.c ****         /*
1749:C:/Users/lenovo/Desktop/liteos/Project2/BearPi_LiteOS/components/security/mbedtls/mbedtls-2.6.0/library\bignum.c ****          * add ei to current window
1750:C:/Users/lenovo/Desktop/liteos/Project2/BearPi_LiteOS/components/security/mbedtls/mbedtls-2.6.0/library\bignum.c ****          */
1751:C:/Users/lenovo/Desktop/liteos/Project2/BearPi_LiteOS/components/security/mbedtls/mbedtls-2.6.0/library\bignum.c ****         state = 2;
1752:C:/Users/lenovo/Desktop/liteos/Project2/BearPi_LiteOS/components/security/mbedtls/mbedtls-2.6.0/library\bignum.c **** 
1753:C:/Users/lenovo/Desktop/liteos/Project2/BearPi_LiteOS/components/security/mbedtls/mbedtls-2.6.0/library\bignum.c ****         nbits++;
1754:C:/Users/lenovo/Desktop/liteos/Project2/BearPi_LiteOS/components/security/mbedtls/mbedtls-2.6.0/library\bignum.c ****         wbits |= ( ei << ( wsize - nbits ) );
1755:C:/Users/lenovo/Desktop/liteos/Project2/BearPi_LiteOS/components/security/mbedtls/mbedtls-2.6.0/library\bignum.c **** 
1756:C:/Users/lenovo/Desktop/liteos/Project2/BearPi_LiteOS/components/security/mbedtls/mbedtls-2.6.0/library\bignum.c ****         if( nbits == wsize )
1757:C:/Users/lenovo/Desktop/liteos/Project2/BearPi_LiteOS/components/security/mbedtls/mbedtls-2.6.0/library\bignum.c ****         {
1758:C:/Users/lenovo/Desktop/liteos/Project2/BearPi_LiteOS/components/security/mbedtls/mbedtls-2.6.0/library\bignum.c ****             /*
1759:C:/Users/lenovo/Desktop/liteos/Project2/BearPi_LiteOS/components/security/mbedtls/mbedtls-2.6.0/library\bignum.c ****              * X = X^wsize R^-1 mod N
1760:C:/Users/lenovo/Desktop/liteos/Project2/BearPi_LiteOS/components/security/mbedtls/mbedtls-2.6.0/library\bignum.c ****              */
1761:C:/Users/lenovo/Desktop/liteos/Project2/BearPi_LiteOS/components/security/mbedtls/mbedtls-2.6.0/library\bignum.c ****             for( i = 0; i < wsize; i++ )
1762:C:/Users/lenovo/Desktop/liteos/Project2/BearPi_LiteOS/components/security/mbedtls/mbedtls-2.6.0/library\bignum.c ****                 MBEDTLS_MPI_CHK( mpi_montmul( X, X, N, mm, &T ) );
1763:C:/Users/lenovo/Desktop/liteos/Project2/BearPi_LiteOS/components/security/mbedtls/mbedtls-2.6.0/library\bignum.c **** 
1764:C:/Users/lenovo/Desktop/liteos/Project2/BearPi_LiteOS/components/security/mbedtls/mbedtls-2.6.0/library\bignum.c ****             /*
1765:C:/Users/lenovo/Desktop/liteos/Project2/BearPi_LiteOS/components/security/mbedtls/mbedtls-2.6.0/library\bignum.c ****              * X = X * W[wbits] R^-1 mod N
1766:C:/Users/lenovo/Desktop/liteos/Project2/BearPi_LiteOS/components/security/mbedtls/mbedtls-2.6.0/library\bignum.c ****              */
1767:C:/Users/lenovo/Desktop/liteos/Project2/BearPi_LiteOS/components/security/mbedtls/mbedtls-2.6.0/library\bignum.c ****             MBEDTLS_MPI_CHK( mpi_montmul( X, &W[wbits], N, mm, &T ) );
1768:C:/Users/lenovo/Desktop/liteos/Project2/BearPi_LiteOS/components/security/mbedtls/mbedtls-2.6.0/library\bignum.c **** 
ARM GAS  c:\Users\lenovo\AppData\Local\Temp\ccjcyTZ0.s 			page 140


1769:C:/Users/lenovo/Desktop/liteos/Project2/BearPi_LiteOS/components/security/mbedtls/mbedtls-2.6.0/library\bignum.c ****             state--;
1770:C:/Users/lenovo/Desktop/liteos/Project2/BearPi_LiteOS/components/security/mbedtls/mbedtls-2.6.0/library\bignum.c ****             nbits = 0;
1771:C:/Users/lenovo/Desktop/liteos/Project2/BearPi_LiteOS/components/security/mbedtls/mbedtls-2.6.0/library\bignum.c ****             wbits = 0;
1772:C:/Users/lenovo/Desktop/liteos/Project2/BearPi_LiteOS/components/security/mbedtls/mbedtls-2.6.0/library\bignum.c ****         }
1773:C:/Users/lenovo/Desktop/liteos/Project2/BearPi_LiteOS/components/security/mbedtls/mbedtls-2.6.0/library\bignum.c ****     }
1774:C:/Users/lenovo/Desktop/liteos/Project2/BearPi_LiteOS/components/security/mbedtls/mbedtls-2.6.0/library\bignum.c **** 
1775:C:/Users/lenovo/Desktop/liteos/Project2/BearPi_LiteOS/components/security/mbedtls/mbedtls-2.6.0/library\bignum.c ****     /*
1776:C:/Users/lenovo/Desktop/liteos/Project2/BearPi_LiteOS/components/security/mbedtls/mbedtls-2.6.0/library\bignum.c ****      * process the remaining bits
1777:C:/Users/lenovo/Desktop/liteos/Project2/BearPi_LiteOS/components/security/mbedtls/mbedtls-2.6.0/library\bignum.c ****      */
1778:C:/Users/lenovo/Desktop/liteos/Project2/BearPi_LiteOS/components/security/mbedtls/mbedtls-2.6.0/library\bignum.c ****     for( i = 0; i < nbits; i++ )
1779:C:/Users/lenovo/Desktop/liteos/Project2/BearPi_LiteOS/components/security/mbedtls/mbedtls-2.6.0/library\bignum.c ****     {
1780:C:/Users/lenovo/Desktop/liteos/Project2/BearPi_LiteOS/components/security/mbedtls/mbedtls-2.6.0/library\bignum.c ****         MBEDTLS_MPI_CHK( mpi_montmul( X, X, N, mm, &T ) );
1781:C:/Users/lenovo/Desktop/liteos/Project2/BearPi_LiteOS/components/security/mbedtls/mbedtls-2.6.0/library\bignum.c **** 
1782:C:/Users/lenovo/Desktop/liteos/Project2/BearPi_LiteOS/components/security/mbedtls/mbedtls-2.6.0/library\bignum.c ****         wbits <<= 1;
1783:C:/Users/lenovo/Desktop/liteos/Project2/BearPi_LiteOS/components/security/mbedtls/mbedtls-2.6.0/library\bignum.c **** 
1784:C:/Users/lenovo/Desktop/liteos/Project2/BearPi_LiteOS/components/security/mbedtls/mbedtls-2.6.0/library\bignum.c ****         if( ( wbits & ( one << wsize ) ) != 0 )
1785:C:/Users/lenovo/Desktop/liteos/Project2/BearPi_LiteOS/components/security/mbedtls/mbedtls-2.6.0/library\bignum.c ****             MBEDTLS_MPI_CHK( mpi_montmul( X, &W[1], N, mm, &T ) );
1786:C:/Users/lenovo/Desktop/liteos/Project2/BearPi_LiteOS/components/security/mbedtls/mbedtls-2.6.0/library\bignum.c ****     }
1787:C:/Users/lenovo/Desktop/liteos/Project2/BearPi_LiteOS/components/security/mbedtls/mbedtls-2.6.0/library\bignum.c **** 
1788:C:/Users/lenovo/Desktop/liteos/Project2/BearPi_LiteOS/components/security/mbedtls/mbedtls-2.6.0/library\bignum.c ****     /*
1789:C:/Users/lenovo/Desktop/liteos/Project2/BearPi_LiteOS/components/security/mbedtls/mbedtls-2.6.0/library\bignum.c ****      * X = A^E * R * R^-1 mod N = A^E mod N
1790:C:/Users/lenovo/Desktop/liteos/Project2/BearPi_LiteOS/components/security/mbedtls/mbedtls-2.6.0/library\bignum.c ****      */
1791:C:/Users/lenovo/Desktop/liteos/Project2/BearPi_LiteOS/components/security/mbedtls/mbedtls-2.6.0/library\bignum.c ****     MBEDTLS_MPI_CHK( mpi_montred( X, N, mm, &T ) );
1792:C:/Users/lenovo/Desktop/liteos/Project2/BearPi_LiteOS/components/security/mbedtls/mbedtls-2.6.0/library\bignum.c **** 
1793:C:/Users/lenovo/Desktop/liteos/Project2/BearPi_LiteOS/components/security/mbedtls/mbedtls-2.6.0/library\bignum.c ****     if( neg && E->n != 0 && ( E->p[0] & 1 ) != 0 )
1794:C:/Users/lenovo/Desktop/liteos/Project2/BearPi_LiteOS/components/security/mbedtls/mbedtls-2.6.0/library\bignum.c ****     {
1795:C:/Users/lenovo/Desktop/liteos/Project2/BearPi_LiteOS/components/security/mbedtls/mbedtls-2.6.0/library\bignum.c ****         X->s = -1;
1796:C:/Users/lenovo/Desktop/liteos/Project2/BearPi_LiteOS/components/security/mbedtls/mbedtls-2.6.0/library\bignum.c ****         MBEDTLS_MPI_CHK( mbedtls_mpi_add_mpi( X, N, X ) );
1797:C:/Users/lenovo/Desktop/liteos/Project2/BearPi_LiteOS/components/security/mbedtls/mbedtls-2.6.0/library\bignum.c ****     }
1798:C:/Users/lenovo/Desktop/liteos/Project2/BearPi_LiteOS/components/security/mbedtls/mbedtls-2.6.0/library\bignum.c **** 
1799:C:/Users/lenovo/Desktop/liteos/Project2/BearPi_LiteOS/components/security/mbedtls/mbedtls-2.6.0/library\bignum.c **** cleanup:
1800:C:/Users/lenovo/Desktop/liteos/Project2/BearPi_LiteOS/components/security/mbedtls/mbedtls-2.6.0/library\bignum.c **** 
1801:C:/Users/lenovo/Desktop/liteos/Project2/BearPi_LiteOS/components/security/mbedtls/mbedtls-2.6.0/library\bignum.c ****     for( i = ( one << ( wsize - 1 ) ); i < ( one << wsize ); i++ )
 5601              		.loc 1 1801 0
 5602 0098 631E     		subs	r3, r4, #1
 5603 009a 0125     		movs	r5, #1
 5604 009c 9D40     		lsls	r5, r5, r3
 5605              	.LVL859:
 5606 009e D9E1     		b	.L463
 5607              	.LVL860:
 5608              	.L470:
1633:C:/Users/lenovo/Desktop/liteos/Project2/BearPi_LiteOS/components/security/mbedtls/mbedtls-2.6.0/library\bignum.c ****             ( i >  79 ) ? 4 : ( i >  23 ) ? 3 : 1;
 5609              		.loc 1 1633 0
 5610 00a0 0524     		movs	r4, #5
 5611 00a2 F0E7     		b	.L440
 5612              	.L471:
 5613 00a4 0424     		movs	r4, #4
 5614 00a6 EEE7     		b	.L440
 5615              	.L472:
 5616 00a8 0124     		movs	r4, #1
 5617 00aa ECE7     		b	.L440
 5618              	.LVL861:
 5619              	.L485:
1641:C:/Users/lenovo/Desktop/liteos/Project2/BearPi_LiteOS/components/security/mbedtls/mbedtls-2.6.0/library\bignum.c ****     MBEDTLS_MPI_CHK( mbedtls_mpi_grow( &W[1],  j ) );
 5620              		.loc 1 1641 0
 5621 00ac 5146     		mov	r1, r10
 5622 00ae 0CA8     		add	r0, sp, #48
ARM GAS  c:\Users\lenovo\AppData\Local\Temp\ccjcyTZ0.s 			page 141


 5623              	.LVL862:
 5624 00b0 FFF7FEFF 		bl	mbedtls_mpi_grow
 5625              	.LVL863:
 5626 00b4 8046     		mov	r8, r0
 5627 00b6 0028     		cmp	r0, #0
 5628 00b8 EED1     		bne	.L441
1642:C:/Users/lenovo/Desktop/liteos/Project2/BearPi_LiteOS/components/security/mbedtls/mbedtls-2.6.0/library\bignum.c **** 
 5629              		.loc 1 1642 0
 5630 00ba 4FEA4A01 		lsl	r1, r10, #1
 5631 00be 0DF22460 		addw	r0, sp, #1572
 5632              	.LVL864:
 5633 00c2 FFF7FEFF 		bl	mbedtls_mpi_grow
 5634              	.LVL865:
 5635 00c6 8046     		mov	r8, r0
 5636 00c8 0028     		cmp	r0, #0
 5637 00ca E5D1     		bne	.L441
1647:C:/Users/lenovo/Desktop/liteos/Project2/BearPi_LiteOS/components/security/mbedtls/mbedtls-2.6.0/library\bignum.c ****     if( neg )
 5638              		.loc 1 1647 0
 5639 00cc DBF800A0 		ldr	r10, [fp]
 5640              	.LVL866:
1648:C:/Users/lenovo/Desktop/liteos/Project2/BearPi_LiteOS/components/security/mbedtls/mbedtls-2.6.0/library\bignum.c ****     {
 5641              		.loc 1 1648 0
 5642 00d0 BAF1FF3F 		cmp	r10, #-1
 5643 00d4 47D0     		beq	.L486
 5644              	.L442:
1658:C:/Users/lenovo/Desktop/liteos/Project2/BearPi_LiteOS/components/security/mbedtls/mbedtls-2.6.0/library\bignum.c ****     {
 5645              		.loc 1 1658 0
 5646 00d6 002F     		cmp	r7, #0
 5647 00d8 51D0     		beq	.L443
1658:C:/Users/lenovo/Desktop/liteos/Project2/BearPi_LiteOS/components/security/mbedtls/mbedtls-2.6.0/library\bignum.c ****     {
 5648              		.loc 1 1658 0 is_stmt 0 discriminator 1
 5649 00da BB68     		ldr	r3, [r7, #8]
 5650 00dc 002B     		cmp	r3, #0
 5651 00de 4ED0     		beq	.L443
1668:C:/Users/lenovo/Desktop/liteos/Project2/BearPi_LiteOS/components/security/mbedtls/mbedtls-2.6.0/library\bignum.c **** 
 5652              		.loc 1 1668 0 is_stmt 1
 5653 00e0 0DF5C663 		add	r3, sp, #1584
 5654 00e4 3868     		ldr	r0, [r7]	@ unaligned
 5655              	.LVL867:
 5656 00e6 7968     		ldr	r1, [r7, #4]	@ unaligned
 5657 00e8 BA68     		ldr	r2, [r7, #8]	@ unaligned
 5658 00ea 07C3     		stmia	r3!, {r0, r1, r2}
 5659              	.L445:
1673:C:/Users/lenovo/Desktop/liteos/Project2/BearPi_LiteOS/components/security/mbedtls/mbedtls-2.6.0/library\bignum.c ****         MBEDTLS_MPI_CHK( mbedtls_mpi_mod_mpi( &W[1], A, N ) );
 5660              		.loc 1 1673 0
 5661 00ec 2946     		mov	r1, r5
 5662 00ee 5846     		mov	r0, fp
 5663 00f0 FFF7FEFF 		bl	mbedtls_mpi_cmp_mpi
 5664              	.LVL868:
 5665 00f4 0028     		cmp	r0, #0
 5666 00f6 67DB     		blt	.L446
1674:C:/Users/lenovo/Desktop/liteos/Project2/BearPi_LiteOS/components/security/mbedtls/mbedtls-2.6.0/library\bignum.c ****     else
 5667              		.loc 1 1674 0
 5668 00f8 2A46     		mov	r2, r5
 5669 00fa 5946     		mov	r1, fp
 5670 00fc 0CA8     		add	r0, sp, #48
 5671 00fe FFF7FEFF 		bl	mbedtls_mpi_mod_mpi
ARM GAS  c:\Users\lenovo\AppData\Local\Temp\ccjcyTZ0.s 			page 142


 5672              	.LVL869:
 5673 0102 8046     		mov	r8, r0
 5674 0104 0028     		cmp	r0, #0
 5675 0106 C7D1     		bne	.L441
 5676              	.L447:
1678:C:/Users/lenovo/Desktop/liteos/Project2/BearPi_LiteOS/components/security/mbedtls/mbedtls-2.6.0/library\bignum.c **** 
 5677              		.loc 1 1678 0
 5678 0108 0DF22463 		addw	r3, sp, #1572
 5679 010c 0093     		str	r3, [sp]
 5680 010e DDF83C36 		ldr	r3, [sp, #1596]
 5681 0112 2A46     		mov	r2, r5
 5682 0114 0DF5C661 		add	r1, sp, #1584
 5683 0118 0CA8     		add	r0, sp, #48
 5684              	.LVL870:
 5685 011a FFF7FEFF 		bl	mpi_montmul
 5686              	.LVL871:
 5687 011e 8046     		mov	r8, r0
 5688 0120 0028     		cmp	r0, #0
 5689 0122 B9D1     		bne	.L441
1683:C:/Users/lenovo/Desktop/liteos/Project2/BearPi_LiteOS/components/security/mbedtls/mbedtls-2.6.0/library\bignum.c ****     MBEDTLS_MPI_CHK( mpi_montred( X, N, mm, &T ) );
 5690              		.loc 1 1683 0
 5691 0124 0DF5C661 		add	r1, sp, #1584
 5692 0128 4846     		mov	r0, r9
 5693              	.LVL872:
 5694 012a FFF7FEFF 		bl	mbedtls_mpi_copy
 5695              	.LVL873:
 5696 012e 8046     		mov	r8, r0
 5697 0130 0028     		cmp	r0, #0
 5698 0132 B1D1     		bne	.L441
1684:C:/Users/lenovo/Desktop/liteos/Project2/BearPi_LiteOS/components/security/mbedtls/mbedtls-2.6.0/library\bignum.c **** 
 5699              		.loc 1 1684 0
 5700 0134 0DF22463 		addw	r3, sp, #1572
 5701 0138 DDF83C26 		ldr	r2, [sp, #1596]
 5702 013c 2946     		mov	r1, r5
 5703 013e 4846     		mov	r0, r9
 5704              	.LVL874:
 5705 0140 FFF7FEFF 		bl	mpi_montred
 5706              	.LVL875:
 5707 0144 8046     		mov	r8, r0
 5708 0146 0028     		cmp	r0, #0
 5709 0148 A6D1     		bne	.L441
1686:C:/Users/lenovo/Desktop/liteos/Project2/BearPi_LiteOS/components/security/mbedtls/mbedtls-2.6.0/library\bignum.c ****     {
 5710              		.loc 1 1686 0
 5711 014a 012C     		cmp	r4, #1
 5712 014c 45D8     		bhi	.L487
 5713              	.LVL876:
 5714              	.L448:
1711:C:/Users/lenovo/Desktop/liteos/Project2/BearPi_LiteOS/components/security/mbedtls/mbedtls-2.6.0/library\bignum.c ****     bufsize = 0;
 5715              		.loc 1 1711 0
 5716 014e 7368     		ldr	r3, [r6, #4]
 5717 0150 0493     		str	r3, [sp, #16]
 5718              	.LVL877:
1715:C:/Users/lenovo/Desktop/liteos/Project2/BearPi_LiteOS/components/security/mbedtls/mbedtls-2.6.0/library\bignum.c **** 
 5719              		.loc 1 1715 0
 5720 0152 0023     		movs	r3, #0
 5721              	.LVL878:
 5722 0154 0593     		str	r3, [sp, #20]
ARM GAS  c:\Users\lenovo\AppData\Local\Temp\ccjcyTZ0.s 			page 143


1713:C:/Users/lenovo/Desktop/liteos/Project2/BearPi_LiteOS/components/security/mbedtls/mbedtls-2.6.0/library\bignum.c ****     wbits   = 0;
 5723              		.loc 1 1713 0
 5724 0156 9B46     		mov	fp, r3
1714:C:/Users/lenovo/Desktop/liteos/Project2/BearPi_LiteOS/components/security/mbedtls/mbedtls-2.6.0/library\bignum.c ****     state   = 0;
 5725              		.loc 1 1714 0
 5726 0158 0393     		str	r3, [sp, #12]
 5727 015a B846     		mov	r8, r7
 5728 015c 3746     		mov	r7, r6
 5729 015e 2E46     		mov	r6, r5
 5730              	.LVL879:
 5731 0160 2546     		mov	r5, r4
 5732              	.LVL880:
 5733 0162 1C46     		mov	r4, r3
 5734              	.LVL881:
 5735 0164 AFE0     		b	.L453
 5736              	.LVL882:
 5737              	.L486:
1650:C:/Users/lenovo/Desktop/liteos/Project2/BearPi_LiteOS/components/security/mbedtls/mbedtls-2.6.0/library\bignum.c ****         Apos.s = 1;
 5738              		.loc 1 1650 0
 5739 0166 5946     		mov	r1, fp
 5740 0168 06A8     		add	r0, sp, #24
 5741              	.LVL883:
 5742 016a FFF7FEFF 		bl	mbedtls_mpi_copy
 5743              	.LVL884:
 5744 016e 8046     		mov	r8, r0
 5745 0170 0028     		cmp	r0, #0
 5746 0172 91D1     		bne	.L441
1651:C:/Users/lenovo/Desktop/liteos/Project2/BearPi_LiteOS/components/security/mbedtls/mbedtls-2.6.0/library\bignum.c ****         A = &Apos;
 5747              		.loc 1 1651 0
 5748 0174 0123     		movs	r3, #1
 5749 0176 0693     		str	r3, [sp, #24]
 5750              	.LVL885:
1652:C:/Users/lenovo/Desktop/liteos/Project2/BearPi_LiteOS/components/security/mbedtls/mbedtls-2.6.0/library\bignum.c ****     }
 5751              		.loc 1 1652 0
 5752 0178 0DF1180B 		add	fp, sp, #24
 5753              	.LVL886:
 5754 017c ABE7     		b	.L442
 5755              	.L443:
1660:C:/Users/lenovo/Desktop/liteos/Project2/BearPi_LiteOS/components/security/mbedtls/mbedtls-2.6.0/library\bignum.c ****         MBEDTLS_MPI_CHK( mbedtls_mpi_shift_l( &RR, N->n * 2 * biL ) );
 5756              		.loc 1 1660 0
 5757 017e 0121     		movs	r1, #1
 5758 0180 0DF5C660 		add	r0, sp, #1584
 5759              	.LVL887:
 5760 0184 FFF7FEFF 		bl	mbedtls_mpi_lset
 5761              	.LVL888:
 5762 0188 8046     		mov	r8, r0
 5763 018a 0028     		cmp	r0, #0
 5764 018c 84D1     		bne	.L441
1661:C:/Users/lenovo/Desktop/liteos/Project2/BearPi_LiteOS/components/security/mbedtls/mbedtls-2.6.0/library\bignum.c ****         MBEDTLS_MPI_CHK( mbedtls_mpi_mod_mpi( &RR, &RR, N ) );
 5765              		.loc 1 1661 0
 5766 018e 6968     		ldr	r1, [r5, #4]
 5767 0190 8901     		lsls	r1, r1, #6
 5768 0192 0DF5C660 		add	r0, sp, #1584
 5769              	.LVL889:
 5770 0196 FFF7FEFF 		bl	mbedtls_mpi_shift_l
 5771              	.LVL890:
 5772 019a 8046     		mov	r8, r0
ARM GAS  c:\Users\lenovo\AppData\Local\Temp\ccjcyTZ0.s 			page 144


 5773 019c 0028     		cmp	r0, #0
 5774 019e 7FF47BAF 		bne	.L441
1662:C:/Users/lenovo/Desktop/liteos/Project2/BearPi_LiteOS/components/security/mbedtls/mbedtls-2.6.0/library\bignum.c **** 
 5775              		.loc 1 1662 0
 5776 01a2 2A46     		mov	r2, r5
 5777 01a4 0DF5C661 		add	r1, sp, #1584
 5778 01a8 0846     		mov	r0, r1
 5779              	.LVL891:
 5780 01aa FFF7FEFF 		bl	mbedtls_mpi_mod_mpi
 5781              	.LVL892:
 5782 01ae 8046     		mov	r8, r0
 5783 01b0 0028     		cmp	r0, #0
 5784 01b2 7FF471AF 		bne	.L441
1664:C:/Users/lenovo/Desktop/liteos/Project2/BearPi_LiteOS/components/security/mbedtls/mbedtls-2.6.0/library\bignum.c ****             memcpy( _RR, &RR, sizeof( mbedtls_mpi ) );
 5785              		.loc 1 1664 0
 5786 01b6 002F     		cmp	r7, #0
 5787 01b8 98D0     		beq	.L445
1665:C:/Users/lenovo/Desktop/liteos/Project2/BearPi_LiteOS/components/security/mbedtls/mbedtls-2.6.0/library\bignum.c ****     }
 5788              		.loc 1 1665 0
 5789 01ba 0DF5C663 		add	r3, sp, #1584
 5790 01be 07CB     		ldmia	r3!, {r0, r1, r2}
 5791              	.LVL893:
 5792 01c0 3860     		str	r0, [r7]	@ unaligned
 5793 01c2 7960     		str	r1, [r7, #4]	@ unaligned
 5794 01c4 BA60     		str	r2, [r7, #8]	@ unaligned
 5795 01c6 91E7     		b	.L445
 5796              	.L446:
1676:C:/Users/lenovo/Desktop/liteos/Project2/BearPi_LiteOS/components/security/mbedtls/mbedtls-2.6.0/library\bignum.c **** 
 5797              		.loc 1 1676 0
 5798 01c8 5946     		mov	r1, fp
 5799 01ca 0CA8     		add	r0, sp, #48
 5800 01cc FFF7FEFF 		bl	mbedtls_mpi_copy
 5801              	.LVL894:
 5802 01d0 8046     		mov	r8, r0
 5803 01d2 0028     		cmp	r0, #0
 5804 01d4 7FF460AF 		bne	.L441
 5805 01d8 96E7     		b	.L447
 5806              	.L487:
1691:C:/Users/lenovo/Desktop/liteos/Project2/BearPi_LiteOS/components/security/mbedtls/mbedtls-2.6.0/library\bignum.c **** 
 5807              		.loc 1 1691 0
 5808 01da 631E     		subs	r3, r4, #1
 5809 01dc 0493     		str	r3, [sp, #16]
 5810 01de 4FF0010B 		mov	fp, #1
 5811              	.LVL895:
 5812 01e2 0BFA03F3 		lsl	r3, fp, r3
 5813 01e6 1A46     		mov	r2, r3
 5814 01e8 0593     		str	r3, [sp, #20]
 5815              	.LVL896:
1693:C:/Users/lenovo/Desktop/liteos/Project2/BearPi_LiteOS/components/security/mbedtls/mbedtls-2.6.0/library\bignum.c ****         MBEDTLS_MPI_CHK( mbedtls_mpi_copy( &W[j], &W[1]    ) );
 5816              		.loc 1 1693 0
 5817 01ea 0C23     		movs	r3, #12
 5818 01ec 09A9     		add	r1, sp, #36
 5819 01ee 03FB0213 		mla	r3, r3, r2, r1
 5820 01f2 0393     		str	r3, [sp, #12]
 5821 01f4 6968     		ldr	r1, [r5, #4]
 5822 01f6 5944     		add	r1, r1, fp
 5823 01f8 1846     		mov	r0, r3
ARM GAS  c:\Users\lenovo\AppData\Local\Temp\ccjcyTZ0.s 			page 145


 5824              	.LVL897:
 5825 01fa FFF7FEFF 		bl	mbedtls_mpi_grow
 5826              	.LVL898:
 5827 01fe 8046     		mov	r8, r0
 5828 0200 0028     		cmp	r0, #0
 5829 0202 7FF449AF 		bne	.L441
1694:C:/Users/lenovo/Desktop/liteos/Project2/BearPi_LiteOS/components/security/mbedtls/mbedtls-2.6.0/library\bignum.c **** 
 5830              		.loc 1 1694 0
 5831 0206 0CA9     		add	r1, sp, #48
 5832 0208 0398     		ldr	r0, [sp, #12]
 5833              	.LVL899:
 5834 020a FFF7FEFF 		bl	mbedtls_mpi_copy
 5835              	.LVL900:
 5836 020e 8046     		mov	r8, r0
 5837 0210 0028     		cmp	r0, #0
 5838 0212 7FF441AF 		bne	.L441
1696:C:/Users/lenovo/Desktop/liteos/Project2/BearPi_LiteOS/components/security/mbedtls/mbedtls-2.6.0/library\bignum.c ****             MBEDTLS_MPI_CHK( mpi_montmul( &W[j], &W[j], N, mm, &T ) );
 5839              		.loc 1 1696 0
 5840 0216 4FF0000B 		mov	fp, #0
 5841              	.L449:
 5842              	.LVL901:
1696:C:/Users/lenovo/Desktop/liteos/Project2/BearPi_LiteOS/components/security/mbedtls/mbedtls-2.6.0/library\bignum.c ****             MBEDTLS_MPI_CHK( mpi_montmul( &W[j], &W[j], N, mm, &T ) );
 5843              		.loc 1 1696 0 is_stmt 0 discriminator 1
 5844 021a 049B     		ldr	r3, [sp, #16]
 5845 021c 5B45     		cmp	r3, fp
 5846 021e 10D9     		bls	.L488
1697:C:/Users/lenovo/Desktop/liteos/Project2/BearPi_LiteOS/components/security/mbedtls/mbedtls-2.6.0/library\bignum.c **** 
 5847              		.loc 1 1697 0 is_stmt 1
 5848 0220 0DF22463 		addw	r3, sp, #1572
 5849 0224 0093     		str	r3, [sp]
 5850 0226 DDF83C36 		ldr	r3, [sp, #1596]
 5851 022a 2A46     		mov	r2, r5
 5852 022c 0398     		ldr	r0, [sp, #12]
 5853              	.LVL902:
 5854 022e 0146     		mov	r1, r0
 5855 0230 FFF7FEFF 		bl	mpi_montmul
 5856              	.LVL903:
 5857 0234 8046     		mov	r8, r0
 5858 0236 0028     		cmp	r0, #0
 5859 0238 7FF42EAF 		bne	.L441
1696:C:/Users/lenovo/Desktop/liteos/Project2/BearPi_LiteOS/components/security/mbedtls/mbedtls-2.6.0/library\bignum.c ****             MBEDTLS_MPI_CHK( mpi_montmul( &W[j], &W[j], N, mm, &T ) );
 5860              		.loc 1 1696 0 discriminator 2
 5861 023c 0BF1010B 		add	fp, fp, #1
 5862              	.LVL904:
 5863 0240 EBE7     		b	.L449
 5864              	.L488:
1702:C:/Users/lenovo/Desktop/liteos/Project2/BearPi_LiteOS/components/security/mbedtls/mbedtls-2.6.0/library\bignum.c ****         {
 5865              		.loc 1 1702 0
 5866 0242 059B     		ldr	r3, [sp, #20]
 5867 0244 03F1010B 		add	fp, r3, #1
 5868              	.LVL905:
 5869 0248 B846     		mov	r8, r7
 5870 024a 3746     		mov	r7, r6
 5871 024c 2646     		mov	r6, r4
 5872              	.LVL906:
 5873              	.L451:
1702:C:/Users/lenovo/Desktop/liteos/Project2/BearPi_LiteOS/components/security/mbedtls/mbedtls-2.6.0/library\bignum.c ****         {
ARM GAS  c:\Users\lenovo\AppData\Local\Temp\ccjcyTZ0.s 			page 146


 5874              		.loc 1 1702 0 is_stmt 0 discriminator 1
 5875 024e 0123     		movs	r3, #1
 5876 0250 B340     		lsls	r3, r3, r6
 5877 0252 5B45     		cmp	r3, fp
 5878 0254 03D8     		bhi	.L452
 5879 0256 3446     		mov	r4, r6
 5880 0258 3E46     		mov	r6, r7
 5881              	.LVL907:
 5882 025a 4746     		mov	r7, r8
 5883              	.LVL908:
 5884 025c 77E7     		b	.L448
 5885              	.LVL909:
 5886              	.L452:
1704:C:/Users/lenovo/Desktop/liteos/Project2/BearPi_LiteOS/components/security/mbedtls/mbedtls-2.6.0/library\bignum.c ****             MBEDTLS_MPI_CHK( mbedtls_mpi_copy( &W[i], &W[i - 1] ) );
 5887              		.loc 1 1704 0 is_stmt 1
 5888 025e 0C24     		movs	r4, #12
 5889 0260 09AB     		add	r3, sp, #36
 5890 0262 04FB0B34 		mla	r4, r4, fp, r3
 5891 0266 6968     		ldr	r1, [r5, #4]
 5892 0268 0131     		adds	r1, r1, #1
 5893 026a 2046     		mov	r0, r4
 5894              	.LVL910:
 5895 026c FFF7FEFF 		bl	mbedtls_mpi_grow
 5896              	.LVL911:
 5897 0270 0028     		cmp	r0, #0
 5898 0272 40F0CF80 		bne	.L475
1705:C:/Users/lenovo/Desktop/liteos/Project2/BearPi_LiteOS/components/security/mbedtls/mbedtls-2.6.0/library\bignum.c **** 
 5899              		.loc 1 1705 0
 5900 0276 0BF1FF33 		add	r3, fp, #-1
 5901 027a 0C21     		movs	r1, #12
 5902 027c 09AA     		add	r2, sp, #36
 5903 027e 01FB0321 		mla	r1, r1, r3, r2
 5904 0282 2046     		mov	r0, r4
 5905              	.LVL912:
 5906 0284 FFF7FEFF 		bl	mbedtls_mpi_copy
 5907              	.LVL913:
 5908 0288 0028     		cmp	r0, #0
 5909 028a 40F0C780 		bne	.L476
1707:C:/Users/lenovo/Desktop/liteos/Project2/BearPi_LiteOS/components/security/mbedtls/mbedtls-2.6.0/library\bignum.c ****         }
 5910              		.loc 1 1707 0
 5911 028e 0DF22463 		addw	r3, sp, #1572
 5912 0292 0093     		str	r3, [sp]
 5913 0294 DDF83C36 		ldr	r3, [sp, #1596]
 5914 0298 2A46     		mov	r2, r5
 5915 029a 0CA9     		add	r1, sp, #48
 5916 029c 2046     		mov	r0, r4
 5917              	.LVL914:
 5918 029e FFF7FEFF 		bl	mpi_montmul
 5919              	.LVL915:
 5920 02a2 0028     		cmp	r0, #0
 5921 02a4 40F0BE80 		bne	.L477
1702:C:/Users/lenovo/Desktop/liteos/Project2/BearPi_LiteOS/components/security/mbedtls/mbedtls-2.6.0/library\bignum.c ****         {
 5922              		.loc 1 1702 0 discriminator 2
 5923 02a8 0BF1010B 		add	fp, fp, #1
 5924              	.LVL916:
 5925 02ac CFE7     		b	.L451
 5926              	.LVL917:
ARM GAS  c:\Users\lenovo\AppData\Local\Temp\ccjcyTZ0.s 			page 147


 5927              	.L458:
1753:C:/Users/lenovo/Desktop/liteos/Project2/BearPi_LiteOS/components/security/mbedtls/mbedtls-2.6.0/library\bignum.c ****         wbits |= ( ei << ( wsize - nbits ) );
 5928              		.loc 1 1753 0
 5929 02ae 0BF1010B 		add	fp, fp, #1
 5930              	.LVL918:
1754:C:/Users/lenovo/Desktop/liteos/Project2/BearPi_LiteOS/components/security/mbedtls/mbedtls-2.6.0/library\bignum.c **** 
 5931              		.loc 1 1754 0
 5932 02b2 A5EB0B02 		sub	r2, r5, fp
 5933 02b6 9340     		lsls	r3, r3, r2
 5934              	.LVL919:
 5935 02b8 039A     		ldr	r2, [sp, #12]
 5936 02ba 1A43     		orrs	r2, r2, r3
 5937 02bc 0392     		str	r2, [sp, #12]
 5938              	.LVL920:
1756:C:/Users/lenovo/Desktop/liteos/Project2/BearPi_LiteOS/components/security/mbedtls/mbedtls-2.6.0/library\bignum.c ****         {
 5939              		.loc 1 1756 0
 5940 02be 5D45     		cmp	r5, fp
 5941 02c0 2AD0     		beq	.L473
1751:C:/Users/lenovo/Desktop/liteos/Project2/BearPi_LiteOS/components/security/mbedtls/mbedtls-2.6.0/library\bignum.c **** 
 5942              		.loc 1 1751 0
 5943 02c2 0223     		movs	r3, #2
 5944 02c4 0593     		str	r3, [sp, #20]
 5945              	.LVL921:
 5946              	.L453:
1719:C:/Users/lenovo/Desktop/liteos/Project2/BearPi_LiteOS/components/security/mbedtls/mbedtls-2.6.0/library\bignum.c ****         {
 5947              		.loc 1 1719 0
 5948 02c6 34B9     		cbnz	r4, .L454
1721:C:/Users/lenovo/Desktop/liteos/Project2/BearPi_LiteOS/components/security/mbedtls/mbedtls-2.6.0/library\bignum.c ****                 break;
 5949              		.loc 1 1721 0
 5950 02c8 049B     		ldr	r3, [sp, #16]
 5951 02ca 002B     		cmp	r3, #0
 5952 02cc 00F09D80 		beq	.L478
1724:C:/Users/lenovo/Desktop/liteos/Project2/BearPi_LiteOS/components/security/mbedtls/mbedtls-2.6.0/library\bignum.c **** 
 5953              		.loc 1 1724 0
 5954 02d0 013B     		subs	r3, r3, #1
 5955 02d2 0493     		str	r3, [sp, #16]
 5956              	.LVL922:
1726:C:/Users/lenovo/Desktop/liteos/Project2/BearPi_LiteOS/components/security/mbedtls/mbedtls-2.6.0/library\bignum.c ****         }
 5957              		.loc 1 1726 0
 5958 02d4 2024     		movs	r4, #32
 5959              	.LVL923:
 5960              	.L454:
1729:C:/Users/lenovo/Desktop/liteos/Project2/BearPi_LiteOS/components/security/mbedtls/mbedtls-2.6.0/library\bignum.c **** 
 5961              		.loc 1 1729 0
 5962 02d6 013C     		subs	r4, r4, #1
 5963              	.LVL924:
1731:C:/Users/lenovo/Desktop/liteos/Project2/BearPi_LiteOS/components/security/mbedtls/mbedtls-2.6.0/library\bignum.c **** 
 5964              		.loc 1 1731 0
 5965 02d8 BB68     		ldr	r3, [r7, #8]
 5966 02da 049A     		ldr	r2, [sp, #16]
 5967 02dc 53F82230 		ldr	r3, [r3, r2, lsl #2]
 5968 02e0 E340     		lsrs	r3, r3, r4
 5969              	.LVL925:
1736:C:/Users/lenovo/Desktop/liteos/Project2/BearPi_LiteOS/components/security/mbedtls/mbedtls-2.6.0/library\bignum.c ****             continue;
 5970              		.loc 1 1736 0
 5971 02e2 13F00103 		ands	r3, r3, #1
 5972              	.LVL926:
ARM GAS  c:\Users\lenovo\AppData\Local\Temp\ccjcyTZ0.s 			page 148


 5973 02e6 02D1     		bne	.L456
1736:C:/Users/lenovo/Desktop/liteos/Project2/BearPi_LiteOS/components/security/mbedtls/mbedtls-2.6.0/library\bignum.c ****             continue;
 5974              		.loc 1 1736 0 is_stmt 0 discriminator 1
 5975 02e8 059A     		ldr	r2, [sp, #20]
 5976 02ea 002A     		cmp	r2, #0
 5977 02ec EBD0     		beq	.L453
 5978              	.L456:
1739:C:/Users/lenovo/Desktop/liteos/Project2/BearPi_LiteOS/components/security/mbedtls/mbedtls-2.6.0/library\bignum.c ****         {
 5979              		.loc 1 1739 0 is_stmt 1
 5980 02ee 002B     		cmp	r3, #0
 5981 02f0 DDD1     		bne	.L458
1739:C:/Users/lenovo/Desktop/liteos/Project2/BearPi_LiteOS/components/security/mbedtls/mbedtls-2.6.0/library\bignum.c ****         {
 5982              		.loc 1 1739 0 is_stmt 0 discriminator 1
 5983 02f2 059A     		ldr	r2, [sp, #20]
 5984 02f4 012A     		cmp	r2, #1
 5985 02f6 DAD1     		bne	.L458
1744:C:/Users/lenovo/Desktop/liteos/Project2/BearPi_LiteOS/components/security/mbedtls/mbedtls-2.6.0/library\bignum.c ****             continue;
 5986              		.loc 1 1744 0 is_stmt 1
 5987 02f8 0DF22463 		addw	r3, sp, #1572
 5988              	.LVL927:
 5989 02fc 0093     		str	r3, [sp]
 5990              	.LVL928:
 5991 02fe DDF83C36 		ldr	r3, [sp, #1596]
 5992 0302 3246     		mov	r2, r6
 5993 0304 4946     		mov	r1, r9
 5994 0306 4846     		mov	r0, r9
 5995              	.LVL929:
 5996 0308 FFF7FEFF 		bl	mpi_montmul
 5997              	.LVL930:
 5998 030c 0028     		cmp	r0, #0
 5999 030e DAD0     		beq	.L453
 6000 0310 2C46     		mov	r4, r5
 6001              	.LVL931:
 6002 0312 4746     		mov	r7, r8
 6003              	.LVL932:
 6004 0314 8046     		mov	r8, r0
 6005 0316 BFE6     		b	.L441
 6006              	.LVL933:
 6007              	.L473:
1761:C:/Users/lenovo/Desktop/liteos/Project2/BearPi_LiteOS/components/security/mbedtls/mbedtls-2.6.0/library\bignum.c ****                 MBEDTLS_MPI_CHK( mpi_montmul( X, X, N, mm, &T ) );
 6008              		.loc 1 1761 0
 6009 0318 4FF0000B 		mov	fp, #0
 6010              	.LVL934:
 6011              	.L459:
1761:C:/Users/lenovo/Desktop/liteos/Project2/BearPi_LiteOS/components/security/mbedtls/mbedtls-2.6.0/library\bignum.c ****                 MBEDTLS_MPI_CHK( mpi_montmul( X, X, N, mm, &T ) );
 6012              		.loc 1 1761 0 is_stmt 0 discriminator 1
 6013 031c 5D45     		cmp	r5, fp
 6014 031e 0ED9     		bls	.L489
1762:C:/Users/lenovo/Desktop/liteos/Project2/BearPi_LiteOS/components/security/mbedtls/mbedtls-2.6.0/library\bignum.c **** 
 6015              		.loc 1 1762 0 is_stmt 1
 6016 0320 0DF22463 		addw	r3, sp, #1572
 6017 0324 0093     		str	r3, [sp]
 6018 0326 DDF83C36 		ldr	r3, [sp, #1596]
 6019 032a 3246     		mov	r2, r6
 6020 032c 4946     		mov	r1, r9
 6021 032e 4846     		mov	r0, r9
 6022              	.LVL935:
ARM GAS  c:\Users\lenovo\AppData\Local\Temp\ccjcyTZ0.s 			page 149


 6023 0330 FFF7FEFF 		bl	mpi_montmul
 6024              	.LVL936:
 6025 0334 0028     		cmp	r0, #0
 6026 0336 79D1     		bne	.L480
1761:C:/Users/lenovo/Desktop/liteos/Project2/BearPi_LiteOS/components/security/mbedtls/mbedtls-2.6.0/library\bignum.c ****                 MBEDTLS_MPI_CHK( mpi_montmul( X, X, N, mm, &T ) );
 6027              		.loc 1 1761 0 discriminator 2
 6028 0338 0BF1010B 		add	fp, fp, #1
 6029              	.LVL937:
 6030 033c EEE7     		b	.L459
 6031              	.L489:
1767:C:/Users/lenovo/Desktop/liteos/Project2/BearPi_LiteOS/components/security/mbedtls/mbedtls-2.6.0/library\bignum.c **** 
 6032              		.loc 1 1767 0
 6033 033e 0DF22463 		addw	r3, sp, #1572
 6034 0342 0093     		str	r3, [sp]
 6035 0344 DDF83C36 		ldr	r3, [sp, #1596]
 6036 0348 3246     		mov	r2, r6
 6037 034a 0C21     		movs	r1, #12
 6038 034c 0398     		ldr	r0, [sp, #12]
 6039              	.LVL938:
 6040 034e 0DF1240C 		add	ip, sp, #36
 6041 0352 01FB00C1 		mla	r1, r1, r0, ip
 6042 0356 4846     		mov	r0, r9
 6043 0358 FFF7FEFF 		bl	mpi_montmul
 6044              	.LVL939:
 6045 035c 0028     		cmp	r0, #0
 6046 035e 69D1     		bne	.L481
1769:C:/Users/lenovo/Desktop/liteos/Project2/BearPi_LiteOS/components/security/mbedtls/mbedtls-2.6.0/library\bignum.c ****             nbits = 0;
 6047              		.loc 1 1769 0
 6048 0360 0123     		movs	r3, #1
 6049 0362 0593     		str	r3, [sp, #20]
1770:C:/Users/lenovo/Desktop/liteos/Project2/BearPi_LiteOS/components/security/mbedtls/mbedtls-2.6.0/library\bignum.c ****             wbits = 0;
 6050              		.loc 1 1770 0
 6051 0364 4FF0000B 		mov	fp, #0
 6052              	.LVL940:
1771:C:/Users/lenovo/Desktop/liteos/Project2/BearPi_LiteOS/components/security/mbedtls/mbedtls-2.6.0/library\bignum.c ****         }
 6053              		.loc 1 1771 0
 6054 0368 CDF80CB0 		str	fp, [sp, #12]
 6055              	.LVL941:
 6056 036c ABE7     		b	.L453
 6057              	.LVL942:
 6058              	.L462:
1780:C:/Users/lenovo/Desktop/liteos/Project2/BearPi_LiteOS/components/security/mbedtls/mbedtls-2.6.0/library\bignum.c **** 
 6059              		.loc 1 1780 0
 6060 036e 0DF22463 		addw	r3, sp, #1572
 6061 0372 0093     		str	r3, [sp]
 6062 0374 DDF83C36 		ldr	r3, [sp, #1596]
 6063 0378 2A46     		mov	r2, r5
 6064 037a 4946     		mov	r1, r9
 6065 037c 4846     		mov	r0, r9
 6066              	.LVL943:
 6067 037e FFF7FEFF 		bl	mpi_montmul
 6068              	.LVL944:
 6069 0382 0028     		cmp	r0, #0
 6070 0384 5AD1     		bne	.L482
1782:C:/Users/lenovo/Desktop/liteos/Project2/BearPi_LiteOS/components/security/mbedtls/mbedtls-2.6.0/library\bignum.c **** 
 6071              		.loc 1 1782 0
 6072 0386 039B     		ldr	r3, [sp, #12]
ARM GAS  c:\Users\lenovo\AppData\Local\Temp\ccjcyTZ0.s 			page 150


 6073 0388 5A00     		lsls	r2, r3, #1
 6074 038a 0392     		str	r2, [sp, #12]
 6075              	.LVL945:
1784:C:/Users/lenovo/Desktop/liteos/Project2/BearPi_LiteOS/components/security/mbedtls/mbedtls-2.6.0/library\bignum.c ****             MBEDTLS_MPI_CHK( mpi_montmul( X, &W[1], N, mm, &T ) );
 6076              		.loc 1 1784 0
 6077 038c 0123     		movs	r3, #1
 6078 038e B340     		lsls	r3, r3, r6
 6079 0390 1342     		tst	r3, r2
 6080 0392 2AD1     		bne	.L490
 6081              	.LVL946:
 6082              	.L461:
1778:C:/Users/lenovo/Desktop/liteos/Project2/BearPi_LiteOS/components/security/mbedtls/mbedtls-2.6.0/library\bignum.c ****     {
 6083              		.loc 1 1778 0 discriminator 2
 6084 0394 0134     		adds	r4, r4, #1
 6085              	.LVL947:
 6086              	.L455:
1778:C:/Users/lenovo/Desktop/liteos/Project2/BearPi_LiteOS/components/security/mbedtls/mbedtls-2.6.0/library\bignum.c ****     {
 6087              		.loc 1 1778 0 is_stmt 0 discriminator 1
 6088 0396 5C45     		cmp	r4, fp
 6089 0398 E9D3     		bcc	.L462
 6090 039a 3446     		mov	r4, r6
 6091              	.LVL948:
 6092 039c 3E46     		mov	r6, r7
 6093              	.LVL949:
 6094 039e 4746     		mov	r7, r8
 6095              	.LVL950:
1791:C:/Users/lenovo/Desktop/liteos/Project2/BearPi_LiteOS/components/security/mbedtls/mbedtls-2.6.0/library\bignum.c **** 
 6096              		.loc 1 1791 0 is_stmt 1
 6097 03a0 0DF22463 		addw	r3, sp, #1572
 6098 03a4 DDF83C26 		ldr	r2, [sp, #1596]
 6099 03a8 2946     		mov	r1, r5
 6100 03aa 4846     		mov	r0, r9
 6101              	.LVL951:
 6102 03ac FFF7FEFF 		bl	mpi_montred
 6103              	.LVL952:
 6104 03b0 8046     		mov	r8, r0
 6105 03b2 0028     		cmp	r0, #0
 6106 03b4 7FF470AE 		bne	.L441
1793:C:/Users/lenovo/Desktop/liteos/Project2/BearPi_LiteOS/components/security/mbedtls/mbedtls-2.6.0/library\bignum.c ****     {
 6107              		.loc 1 1793 0
 6108 03b8 BAF1FF3F 		cmp	r10, #-1
 6109 03bc 7FF46CAE 		bne	.L441
1793:C:/Users/lenovo/Desktop/liteos/Project2/BearPi_LiteOS/components/security/mbedtls/mbedtls-2.6.0/library\bignum.c ****     {
 6110              		.loc 1 1793 0 is_stmt 0 discriminator 1
 6111 03c0 7368     		ldr	r3, [r6, #4]
 6112 03c2 002B     		cmp	r3, #0
 6113 03c4 3FF468AE 		beq	.L441
1793:C:/Users/lenovo/Desktop/liteos/Project2/BearPi_LiteOS/components/security/mbedtls/mbedtls-2.6.0/library\bignum.c ****     {
 6114              		.loc 1 1793 0 discriminator 2
 6115 03c8 B368     		ldr	r3, [r6, #8]
 6116 03ca 1B68     		ldr	r3, [r3]
 6117 03cc 13F0010F 		tst	r3, #1
 6118 03d0 3FF462AE 		beq	.L441
1795:C:/Users/lenovo/Desktop/liteos/Project2/BearPi_LiteOS/components/security/mbedtls/mbedtls-2.6.0/library\bignum.c ****         MBEDTLS_MPI_CHK( mbedtls_mpi_add_mpi( X, N, X ) );
 6119              		.loc 1 1795 0 is_stmt 1
 6120 03d4 4FF0FF33 		mov	r3, #-1
 6121 03d8 C9F80030 		str	r3, [r9]
ARM GAS  c:\Users\lenovo\AppData\Local\Temp\ccjcyTZ0.s 			page 151


1796:C:/Users/lenovo/Desktop/liteos/Project2/BearPi_LiteOS/components/security/mbedtls/mbedtls-2.6.0/library\bignum.c ****     }
 6122              		.loc 1 1796 0
 6123 03dc 4A46     		mov	r2, r9
 6124 03de 2946     		mov	r1, r5
 6125 03e0 4846     		mov	r0, r9
 6126              	.LVL953:
 6127 03e2 FFF7FEFF 		bl	mbedtls_mpi_add_mpi
 6128              	.LVL954:
 6129 03e6 8046     		mov	r8, r0
 6130              	.LVL955:
1799:C:/Users/lenovo/Desktop/liteos/Project2/BearPi_LiteOS/components/security/mbedtls/mbedtls-2.6.0/library\bignum.c **** 
 6131              		.loc 1 1799 0
 6132 03e8 56E6     		b	.L441
 6133              	.LVL956:
 6134              	.L490:
1785:C:/Users/lenovo/Desktop/liteos/Project2/BearPi_LiteOS/components/security/mbedtls/mbedtls-2.6.0/library\bignum.c ****     }
 6135              		.loc 1 1785 0
 6136 03ea 0DF22463 		addw	r3, sp, #1572
 6137 03ee 0093     		str	r3, [sp]
 6138 03f0 DDF83C36 		ldr	r3, [sp, #1596]
 6139 03f4 2A46     		mov	r2, r5
 6140              	.LVL957:
 6141 03f6 0CA9     		add	r1, sp, #48
 6142 03f8 4846     		mov	r0, r9
 6143              	.LVL958:
 6144 03fa FFF7FEFF 		bl	mpi_montmul
 6145              	.LVL959:
 6146 03fe 0028     		cmp	r0, #0
 6147 0400 C8D0     		beq	.L461
 6148 0402 3446     		mov	r4, r6
 6149              	.LVL960:
 6150 0404 4746     		mov	r7, r8
 6151              	.LVL961:
 6152 0406 8046     		mov	r8, r0
 6153 0408 46E6     		b	.L441
 6154              	.LVL962:
 6155              	.L478:
 6156 040a 049C     		ldr	r4, [sp, #16]
 6157              	.LVL963:
 6158 040c 3346     		mov	r3, r6
 6159              	.LVL964:
 6160 040e 2E46     		mov	r6, r5
 6161              	.LVL965:
 6162 0410 1D46     		mov	r5, r3
 6163              	.LVL966:
 6164 0412 C0E7     		b	.L455
 6165              	.LVL967:
 6166              	.L475:
 6167 0414 3446     		mov	r4, r6
 6168 0416 4746     		mov	r7, r8
 6169              	.LVL968:
 6170 0418 8046     		mov	r8, r0
 6171 041a 3DE6     		b	.L441
 6172              	.LVL969:
 6173              	.L476:
 6174 041c 3446     		mov	r4, r6
 6175 041e 4746     		mov	r7, r8
ARM GAS  c:\Users\lenovo\AppData\Local\Temp\ccjcyTZ0.s 			page 152


 6176              	.LVL970:
 6177 0420 8046     		mov	r8, r0
 6178 0422 39E6     		b	.L441
 6179              	.LVL971:
 6180              	.L477:
 6181 0424 3446     		mov	r4, r6
 6182 0426 4746     		mov	r7, r8
 6183              	.LVL972:
 6184 0428 8046     		mov	r8, r0
 6185 042a 35E6     		b	.L441
 6186              	.LVL973:
 6187              	.L480:
 6188 042c 2C46     		mov	r4, r5
 6189              	.LVL974:
 6190 042e 4746     		mov	r7, r8
 6191              	.LVL975:
 6192 0430 8046     		mov	r8, r0
 6193 0432 31E6     		b	.L441
 6194              	.LVL976:
 6195              	.L481:
 6196 0434 2C46     		mov	r4, r5
 6197              	.LVL977:
 6198 0436 4746     		mov	r7, r8
 6199              	.LVL978:
 6200 0438 8046     		mov	r8, r0
 6201 043a 2DE6     		b	.L441
 6202              	.LVL979:
 6203              	.L482:
 6204 043c 3446     		mov	r4, r6
 6205              	.LVL980:
 6206 043e 4746     		mov	r7, r8
 6207              	.LVL981:
 6208 0440 8046     		mov	r8, r0
 6209 0442 29E6     		b	.L441
 6210              	.LVL982:
 6211              	.L464:
1802:C:/Users/lenovo/Desktop/liteos/Project2/BearPi_LiteOS/components/security/mbedtls/mbedtls-2.6.0/library\bignum.c ****         mbedtls_mpi_free( &W[i] );
 6212              		.loc 1 1802 0 discriminator 3
 6213 0444 05EB4503 		add	r3, r5, r5, lsl #1
 6214 0448 9800     		lsls	r0, r3, #2
 6215 044a 09AB     		add	r3, sp, #36
 6216 044c 1844     		add	r0, r0, r3
 6217 044e FFF7FEFF 		bl	mbedtls_mpi_free
 6218              	.LVL983:
1801:C:/Users/lenovo/Desktop/liteos/Project2/BearPi_LiteOS/components/security/mbedtls/mbedtls-2.6.0/library\bignum.c ****         mbedtls_mpi_free( &W[i] );
 6219              		.loc 1 1801 0 discriminator 3
 6220 0452 0135     		adds	r5, r5, #1
 6221              	.LVL984:
 6222              	.L463:
1801:C:/Users/lenovo/Desktop/liteos/Project2/BearPi_LiteOS/components/security/mbedtls/mbedtls-2.6.0/library\bignum.c ****         mbedtls_mpi_free( &W[i] );
 6223              		.loc 1 1801 0 is_stmt 0 discriminator 1
 6224 0454 0123     		movs	r3, #1
 6225 0456 A340     		lsls	r3, r3, r4
 6226 0458 AB42     		cmp	r3, r5
 6227 045a F3D8     		bhi	.L464
1803:C:/Users/lenovo/Desktop/liteos/Project2/BearPi_LiteOS/components/security/mbedtls/mbedtls-2.6.0/library\bignum.c **** 
1804:C:/Users/lenovo/Desktop/liteos/Project2/BearPi_LiteOS/components/security/mbedtls/mbedtls-2.6.0/library\bignum.c ****     mbedtls_mpi_free( &W[1] ); mbedtls_mpi_free( &T ); mbedtls_mpi_free( &Apos );
ARM GAS  c:\Users\lenovo\AppData\Local\Temp\ccjcyTZ0.s 			page 153


 6228              		.loc 1 1804 0 is_stmt 1
 6229 045c 0CA8     		add	r0, sp, #48
 6230 045e FFF7FEFF 		bl	mbedtls_mpi_free
 6231              	.LVL985:
 6232 0462 0DF22460 		addw	r0, sp, #1572
 6233 0466 FFF7FEFF 		bl	mbedtls_mpi_free
 6234              	.LVL986:
 6235 046a 06A8     		add	r0, sp, #24
 6236 046c FFF7FEFF 		bl	mbedtls_mpi_free
 6237              	.LVL987:
1805:C:/Users/lenovo/Desktop/liteos/Project2/BearPi_LiteOS/components/security/mbedtls/mbedtls-2.6.0/library\bignum.c **** 
1806:C:/Users/lenovo/Desktop/liteos/Project2/BearPi_LiteOS/components/security/mbedtls/mbedtls-2.6.0/library\bignum.c ****     if( _RR == NULL || _RR->p == NULL )
 6238              		.loc 1 1806 0
 6239 0470 37B1     		cbz	r7, .L465
 6240              		.loc 1 1806 0 is_stmt 0 discriminator 1
 6241 0472 BB68     		ldr	r3, [r7, #8]
 6242 0474 23B1     		cbz	r3, .L465
 6243              	.LVL988:
 6244              	.L438:
1807:C:/Users/lenovo/Desktop/liteos/Project2/BearPi_LiteOS/components/security/mbedtls/mbedtls-2.6.0/library\bignum.c ****         mbedtls_mpi_free( &RR );
1808:C:/Users/lenovo/Desktop/liteos/Project2/BearPi_LiteOS/components/security/mbedtls/mbedtls-2.6.0/library\bignum.c **** 
1809:C:/Users/lenovo/Desktop/liteos/Project2/BearPi_LiteOS/components/security/mbedtls/mbedtls-2.6.0/library\bignum.c ****     return( ret );
1810:C:/Users/lenovo/Desktop/liteos/Project2/BearPi_LiteOS/components/security/mbedtls/mbedtls-2.6.0/library\bignum.c **** }
 6245              		.loc 1 1810 0 is_stmt 1
 6246 0476 4046     		mov	r0, r8
 6247 0478 0DF2446D 		addw	sp, sp, #1604
 6248              	.LCFI99:
 6249              		.cfi_remember_state
 6250              		.cfi_def_cfa_offset 36
 6251              		@ sp needed
 6252 047c BDE8F08F 		pop	{r4, r5, r6, r7, r8, r9, r10, fp, pc}
 6253              	.LVL989:
 6254              	.L465:
 6255              	.LCFI100:
 6256              		.cfi_restore_state
1807:C:/Users/lenovo/Desktop/liteos/Project2/BearPi_LiteOS/components/security/mbedtls/mbedtls-2.6.0/library\bignum.c ****         mbedtls_mpi_free( &RR );
 6257              		.loc 1 1807 0
 6258 0480 0DF5C660 		add	r0, sp, #1584
 6259 0484 FFF7FEFF 		bl	mbedtls_mpi_free
 6260              	.LVL990:
 6261 0488 F5E7     		b	.L438
 6262              	.LVL991:
 6263              	.L466:
1618:C:/Users/lenovo/Desktop/liteos/Project2/BearPi_LiteOS/components/security/mbedtls/mbedtls-2.6.0/library\bignum.c **** 
 6264              		.loc 1 1618 0
 6265 048a 6FF00308 		mvn	r8, #3
 6266 048e F2E7     		b	.L438
 6267              	.L467:
 6268 0490 6FF00308 		mvn	r8, #3
 6269 0494 EFE7     		b	.L438
 6270              	.L468:
1621:C:/Users/lenovo/Desktop/liteos/Project2/BearPi_LiteOS/components/security/mbedtls/mbedtls-2.6.0/library\bignum.c **** 
 6271              		.loc 1 1621 0
 6272 0496 6FF00308 		mvn	r8, #3
 6273 049a ECE7     		b	.L438
 6274              		.cfi_endproc
 6275              	.LFE48:
ARM GAS  c:\Users\lenovo\AppData\Local\Temp\ccjcyTZ0.s 			page 154


 6277              		.section	.text.mbedtls_mpi_gcd,"ax",%progbits
 6278              		.align	1
 6279              		.global	mbedtls_mpi_gcd
 6280              		.syntax unified
 6281              		.thumb
 6282              		.thumb_func
 6283              		.fpu fpv4-sp-d16
 6285              	mbedtls_mpi_gcd:
 6286              	.LFB49:
1811:C:/Users/lenovo/Desktop/liteos/Project2/BearPi_LiteOS/components/security/mbedtls/mbedtls-2.6.0/library\bignum.c **** 
1812:C:/Users/lenovo/Desktop/liteos/Project2/BearPi_LiteOS/components/security/mbedtls/mbedtls-2.6.0/library\bignum.c **** /*
1813:C:/Users/lenovo/Desktop/liteos/Project2/BearPi_LiteOS/components/security/mbedtls/mbedtls-2.6.0/library\bignum.c ****  * Greatest common divisor: G = gcd(A, B)  (HAC 14.54)
1814:C:/Users/lenovo/Desktop/liteos/Project2/BearPi_LiteOS/components/security/mbedtls/mbedtls-2.6.0/library\bignum.c ****  */
1815:C:/Users/lenovo/Desktop/liteos/Project2/BearPi_LiteOS/components/security/mbedtls/mbedtls-2.6.0/library\bignum.c **** int mbedtls_mpi_gcd( mbedtls_mpi *G, const mbedtls_mpi *A, const mbedtls_mpi *B )
1816:C:/Users/lenovo/Desktop/liteos/Project2/BearPi_LiteOS/components/security/mbedtls/mbedtls-2.6.0/library\bignum.c **** {
 6287              		.loc 1 1816 0
 6288              		.cfi_startproc
 6289              		@ args = 0, pretend = 0, frame = 40
 6290              		@ frame_needed = 0, uses_anonymous_args = 0
 6291              	.LVL992:
 6292 0000 70B5     		push	{r4, r5, r6, lr}
 6293              	.LCFI101:
 6294              		.cfi_def_cfa_offset 16
 6295              		.cfi_offset 4, -16
 6296              		.cfi_offset 5, -12
 6297              		.cfi_offset 6, -8
 6298              		.cfi_offset 14, -4
 6299 0002 8AB0     		sub	sp, sp, #40
 6300              	.LCFI102:
 6301              		.cfi_def_cfa_offset 56
 6302 0004 0646     		mov	r6, r0
 6303 0006 0C46     		mov	r4, r1
 6304 0008 1546     		mov	r5, r2
1817:C:/Users/lenovo/Desktop/liteos/Project2/BearPi_LiteOS/components/security/mbedtls/mbedtls-2.6.0/library\bignum.c ****     int ret;
1818:C:/Users/lenovo/Desktop/liteos/Project2/BearPi_LiteOS/components/security/mbedtls/mbedtls-2.6.0/library\bignum.c ****     size_t lz, lzt;
1819:C:/Users/lenovo/Desktop/liteos/Project2/BearPi_LiteOS/components/security/mbedtls/mbedtls-2.6.0/library\bignum.c ****     mbedtls_mpi TG, TA, TB;
1820:C:/Users/lenovo/Desktop/liteos/Project2/BearPi_LiteOS/components/security/mbedtls/mbedtls-2.6.0/library\bignum.c **** 
1821:C:/Users/lenovo/Desktop/liteos/Project2/BearPi_LiteOS/components/security/mbedtls/mbedtls-2.6.0/library\bignum.c ****     mbedtls_mpi_init( &TG ); mbedtls_mpi_init( &TA ); mbedtls_mpi_init( &TB );
 6305              		.loc 1 1821 0
 6306 000a 07A8     		add	r0, sp, #28
 6307              	.LVL993:
 6308 000c FFF7FEFF 		bl	mbedtls_mpi_init
 6309              	.LVL994:
 6310 0010 04A8     		add	r0, sp, #16
 6311 0012 FFF7FEFF 		bl	mbedtls_mpi_init
 6312              	.LVL995:
 6313 0016 01A8     		add	r0, sp, #4
 6314 0018 FFF7FEFF 		bl	mbedtls_mpi_init
 6315              	.LVL996:
1822:C:/Users/lenovo/Desktop/liteos/Project2/BearPi_LiteOS/components/security/mbedtls/mbedtls-2.6.0/library\bignum.c **** 
1823:C:/Users/lenovo/Desktop/liteos/Project2/BearPi_LiteOS/components/security/mbedtls/mbedtls-2.6.0/library\bignum.c ****     MBEDTLS_MPI_CHK( mbedtls_mpi_copy( &TA, A ) );
 6316              		.loc 1 1823 0
 6317 001c 2146     		mov	r1, r4
 6318 001e 04A8     		add	r0, sp, #16
 6319 0020 FFF7FEFF 		bl	mbedtls_mpi_copy
 6320              	.LVL997:
 6321 0024 0446     		mov	r4, r0
ARM GAS  c:\Users\lenovo\AppData\Local\Temp\ccjcyTZ0.s 			page 155


 6322              	.LVL998:
 6323 0026 58B1     		cbz	r0, .L499
 6324              	.LVL999:
 6325              	.L492:
1824:C:/Users/lenovo/Desktop/liteos/Project2/BearPi_LiteOS/components/security/mbedtls/mbedtls-2.6.0/library\bignum.c ****     MBEDTLS_MPI_CHK( mbedtls_mpi_copy( &TB, B ) );
1825:C:/Users/lenovo/Desktop/liteos/Project2/BearPi_LiteOS/components/security/mbedtls/mbedtls-2.6.0/library\bignum.c **** 
1826:C:/Users/lenovo/Desktop/liteos/Project2/BearPi_LiteOS/components/security/mbedtls/mbedtls-2.6.0/library\bignum.c ****     lz = mbedtls_mpi_lsb( &TA );
1827:C:/Users/lenovo/Desktop/liteos/Project2/BearPi_LiteOS/components/security/mbedtls/mbedtls-2.6.0/library\bignum.c ****     lzt = mbedtls_mpi_lsb( &TB );
1828:C:/Users/lenovo/Desktop/liteos/Project2/BearPi_LiteOS/components/security/mbedtls/mbedtls-2.6.0/library\bignum.c **** 
1829:C:/Users/lenovo/Desktop/liteos/Project2/BearPi_LiteOS/components/security/mbedtls/mbedtls-2.6.0/library\bignum.c ****     if( lzt < lz )
1830:C:/Users/lenovo/Desktop/liteos/Project2/BearPi_LiteOS/components/security/mbedtls/mbedtls-2.6.0/library\bignum.c ****         lz = lzt;
1831:C:/Users/lenovo/Desktop/liteos/Project2/BearPi_LiteOS/components/security/mbedtls/mbedtls-2.6.0/library\bignum.c **** 
1832:C:/Users/lenovo/Desktop/liteos/Project2/BearPi_LiteOS/components/security/mbedtls/mbedtls-2.6.0/library\bignum.c ****     MBEDTLS_MPI_CHK( mbedtls_mpi_shift_r( &TA, lz ) );
1833:C:/Users/lenovo/Desktop/liteos/Project2/BearPi_LiteOS/components/security/mbedtls/mbedtls-2.6.0/library\bignum.c ****     MBEDTLS_MPI_CHK( mbedtls_mpi_shift_r( &TB, lz ) );
1834:C:/Users/lenovo/Desktop/liteos/Project2/BearPi_LiteOS/components/security/mbedtls/mbedtls-2.6.0/library\bignum.c **** 
1835:C:/Users/lenovo/Desktop/liteos/Project2/BearPi_LiteOS/components/security/mbedtls/mbedtls-2.6.0/library\bignum.c ****     TA.s = TB.s = 1;
1836:C:/Users/lenovo/Desktop/liteos/Project2/BearPi_LiteOS/components/security/mbedtls/mbedtls-2.6.0/library\bignum.c **** 
1837:C:/Users/lenovo/Desktop/liteos/Project2/BearPi_LiteOS/components/security/mbedtls/mbedtls-2.6.0/library\bignum.c ****     while( mbedtls_mpi_cmp_int( &TA, 0 ) != 0 )
1838:C:/Users/lenovo/Desktop/liteos/Project2/BearPi_LiteOS/components/security/mbedtls/mbedtls-2.6.0/library\bignum.c ****     {
1839:C:/Users/lenovo/Desktop/liteos/Project2/BearPi_LiteOS/components/security/mbedtls/mbedtls-2.6.0/library\bignum.c ****         MBEDTLS_MPI_CHK( mbedtls_mpi_shift_r( &TA, mbedtls_mpi_lsb( &TA ) ) );
1840:C:/Users/lenovo/Desktop/liteos/Project2/BearPi_LiteOS/components/security/mbedtls/mbedtls-2.6.0/library\bignum.c ****         MBEDTLS_MPI_CHK( mbedtls_mpi_shift_r( &TB, mbedtls_mpi_lsb( &TB ) ) );
1841:C:/Users/lenovo/Desktop/liteos/Project2/BearPi_LiteOS/components/security/mbedtls/mbedtls-2.6.0/library\bignum.c **** 
1842:C:/Users/lenovo/Desktop/liteos/Project2/BearPi_LiteOS/components/security/mbedtls/mbedtls-2.6.0/library\bignum.c ****         if( mbedtls_mpi_cmp_mpi( &TA, &TB ) >= 0 )
1843:C:/Users/lenovo/Desktop/liteos/Project2/BearPi_LiteOS/components/security/mbedtls/mbedtls-2.6.0/library\bignum.c ****         {
1844:C:/Users/lenovo/Desktop/liteos/Project2/BearPi_LiteOS/components/security/mbedtls/mbedtls-2.6.0/library\bignum.c ****             MBEDTLS_MPI_CHK( mbedtls_mpi_sub_abs( &TA, &TA, &TB ) );
1845:C:/Users/lenovo/Desktop/liteos/Project2/BearPi_LiteOS/components/security/mbedtls/mbedtls-2.6.0/library\bignum.c ****             MBEDTLS_MPI_CHK( mbedtls_mpi_shift_r( &TA, 1 ) );
1846:C:/Users/lenovo/Desktop/liteos/Project2/BearPi_LiteOS/components/security/mbedtls/mbedtls-2.6.0/library\bignum.c ****         }
1847:C:/Users/lenovo/Desktop/liteos/Project2/BearPi_LiteOS/components/security/mbedtls/mbedtls-2.6.0/library\bignum.c ****         else
1848:C:/Users/lenovo/Desktop/liteos/Project2/BearPi_LiteOS/components/security/mbedtls/mbedtls-2.6.0/library\bignum.c ****         {
1849:C:/Users/lenovo/Desktop/liteos/Project2/BearPi_LiteOS/components/security/mbedtls/mbedtls-2.6.0/library\bignum.c ****             MBEDTLS_MPI_CHK( mbedtls_mpi_sub_abs( &TB, &TB, &TA ) );
1850:C:/Users/lenovo/Desktop/liteos/Project2/BearPi_LiteOS/components/security/mbedtls/mbedtls-2.6.0/library\bignum.c ****             MBEDTLS_MPI_CHK( mbedtls_mpi_shift_r( &TB, 1 ) );
1851:C:/Users/lenovo/Desktop/liteos/Project2/BearPi_LiteOS/components/security/mbedtls/mbedtls-2.6.0/library\bignum.c ****         }
1852:C:/Users/lenovo/Desktop/liteos/Project2/BearPi_LiteOS/components/security/mbedtls/mbedtls-2.6.0/library\bignum.c ****     }
1853:C:/Users/lenovo/Desktop/liteos/Project2/BearPi_LiteOS/components/security/mbedtls/mbedtls-2.6.0/library\bignum.c **** 
1854:C:/Users/lenovo/Desktop/liteos/Project2/BearPi_LiteOS/components/security/mbedtls/mbedtls-2.6.0/library\bignum.c ****     MBEDTLS_MPI_CHK( mbedtls_mpi_shift_l( &TB, lz ) );
1855:C:/Users/lenovo/Desktop/liteos/Project2/BearPi_LiteOS/components/security/mbedtls/mbedtls-2.6.0/library\bignum.c ****     MBEDTLS_MPI_CHK( mbedtls_mpi_copy( G, &TB ) );
1856:C:/Users/lenovo/Desktop/liteos/Project2/BearPi_LiteOS/components/security/mbedtls/mbedtls-2.6.0/library\bignum.c **** 
1857:C:/Users/lenovo/Desktop/liteos/Project2/BearPi_LiteOS/components/security/mbedtls/mbedtls-2.6.0/library\bignum.c **** cleanup:
1858:C:/Users/lenovo/Desktop/liteos/Project2/BearPi_LiteOS/components/security/mbedtls/mbedtls-2.6.0/library\bignum.c **** 
1859:C:/Users/lenovo/Desktop/liteos/Project2/BearPi_LiteOS/components/security/mbedtls/mbedtls-2.6.0/library\bignum.c ****     mbedtls_mpi_free( &TG ); mbedtls_mpi_free( &TA ); mbedtls_mpi_free( &TB );
 6326              		.loc 1 1859 0
 6327 0028 07A8     		add	r0, sp, #28
 6328              	.LVL1000:
 6329 002a FFF7FEFF 		bl	mbedtls_mpi_free
 6330              	.LVL1001:
 6331 002e 04A8     		add	r0, sp, #16
 6332 0030 FFF7FEFF 		bl	mbedtls_mpi_free
 6333              	.LVL1002:
 6334 0034 01A8     		add	r0, sp, #4
 6335 0036 FFF7FEFF 		bl	mbedtls_mpi_free
 6336              	.LVL1003:
1860:C:/Users/lenovo/Desktop/liteos/Project2/BearPi_LiteOS/components/security/mbedtls/mbedtls-2.6.0/library\bignum.c **** 
1861:C:/Users/lenovo/Desktop/liteos/Project2/BearPi_LiteOS/components/security/mbedtls/mbedtls-2.6.0/library\bignum.c ****     return( ret );
1862:C:/Users/lenovo/Desktop/liteos/Project2/BearPi_LiteOS/components/security/mbedtls/mbedtls-2.6.0/library\bignum.c **** }
 6337              		.loc 1 1862 0
 6338 003a 2046     		mov	r0, r4
 6339 003c 0AB0     		add	sp, sp, #40
ARM GAS  c:\Users\lenovo\AppData\Local\Temp\ccjcyTZ0.s 			page 156


 6340              	.LCFI103:
 6341              		.cfi_remember_state
 6342              		.cfi_def_cfa_offset 16
 6343              		@ sp needed
 6344 003e 70BD     		pop	{r4, r5, r6, pc}
 6345              	.LVL1004:
 6346              	.L499:
 6347              	.LCFI104:
 6348              		.cfi_restore_state
1824:C:/Users/lenovo/Desktop/liteos/Project2/BearPi_LiteOS/components/security/mbedtls/mbedtls-2.6.0/library\bignum.c ****     MBEDTLS_MPI_CHK( mbedtls_mpi_copy( &TB, B ) );
 6349              		.loc 1 1824 0
 6350 0040 2946     		mov	r1, r5
 6351 0042 01A8     		add	r0, sp, #4
 6352              	.LVL1005:
 6353 0044 FFF7FEFF 		bl	mbedtls_mpi_copy
 6354              	.LVL1006:
 6355 0048 0446     		mov	r4, r0
 6356 004a 0028     		cmp	r0, #0
 6357 004c ECD1     		bne	.L492
1826:C:/Users/lenovo/Desktop/liteos/Project2/BearPi_LiteOS/components/security/mbedtls/mbedtls-2.6.0/library\bignum.c ****     lzt = mbedtls_mpi_lsb( &TB );
 6358              		.loc 1 1826 0
 6359 004e 04A8     		add	r0, sp, #16
 6360              	.LVL1007:
 6361 0050 FFF7FEFF 		bl	mbedtls_mpi_lsb
 6362              	.LVL1008:
 6363 0054 0446     		mov	r4, r0
 6364              	.LVL1009:
1827:C:/Users/lenovo/Desktop/liteos/Project2/BearPi_LiteOS/components/security/mbedtls/mbedtls-2.6.0/library\bignum.c **** 
 6365              		.loc 1 1827 0
 6366 0056 01A8     		add	r0, sp, #4
 6367              	.LVL1010:
 6368 0058 FFF7FEFF 		bl	mbedtls_mpi_lsb
 6369              	.LVL1011:
 6370 005c 0546     		mov	r5, r0
 6371              	.LVL1012:
1829:C:/Users/lenovo/Desktop/liteos/Project2/BearPi_LiteOS/components/security/mbedtls/mbedtls-2.6.0/library\bignum.c ****         lz = lzt;
 6372              		.loc 1 1829 0
 6373 005e 8442     		cmp	r4, r0
 6374 0060 00D8     		bhi	.L493
1826:C:/Users/lenovo/Desktop/liteos/Project2/BearPi_LiteOS/components/security/mbedtls/mbedtls-2.6.0/library\bignum.c ****     lzt = mbedtls_mpi_lsb( &TB );
 6375              		.loc 1 1826 0
 6376 0062 2546     		mov	r5, r4
 6377              	.L493:
 6378              	.LVL1013:
1832:C:/Users/lenovo/Desktop/liteos/Project2/BearPi_LiteOS/components/security/mbedtls/mbedtls-2.6.0/library\bignum.c ****     MBEDTLS_MPI_CHK( mbedtls_mpi_shift_r( &TB, lz ) );
 6379              		.loc 1 1832 0
 6380 0064 2946     		mov	r1, r5
 6381 0066 04A8     		add	r0, sp, #16
 6382              	.LVL1014:
 6383 0068 FFF7FEFF 		bl	mbedtls_mpi_shift_r
 6384              	.LVL1015:
 6385 006c 0446     		mov	r4, r0
 6386 006e 0028     		cmp	r0, #0
 6387 0070 DAD1     		bne	.L492
1833:C:/Users/lenovo/Desktop/liteos/Project2/BearPi_LiteOS/components/security/mbedtls/mbedtls-2.6.0/library\bignum.c **** 
 6388              		.loc 1 1833 0
 6389 0072 2946     		mov	r1, r5
ARM GAS  c:\Users\lenovo\AppData\Local\Temp\ccjcyTZ0.s 			page 157


 6390 0074 01A8     		add	r0, sp, #4
 6391              	.LVL1016:
 6392 0076 FFF7FEFF 		bl	mbedtls_mpi_shift_r
 6393              	.LVL1017:
 6394 007a 0446     		mov	r4, r0
 6395 007c 0028     		cmp	r0, #0
 6396 007e D3D1     		bne	.L492
1835:C:/Users/lenovo/Desktop/liteos/Project2/BearPi_LiteOS/components/security/mbedtls/mbedtls-2.6.0/library\bignum.c **** 
 6397              		.loc 1 1835 0
 6398 0080 0123     		movs	r3, #1
 6399 0082 0193     		str	r3, [sp, #4]
 6400 0084 0493     		str	r3, [sp, #16]
1837:C:/Users/lenovo/Desktop/liteos/Project2/BearPi_LiteOS/components/security/mbedtls/mbedtls-2.6.0/library\bignum.c ****     {
 6401              		.loc 1 1837 0
 6402 0086 0EE0     		b	.L494
 6403              	.LVL1018:
 6404              	.L495:
1849:C:/Users/lenovo/Desktop/liteos/Project2/BearPi_LiteOS/components/security/mbedtls/mbedtls-2.6.0/library\bignum.c ****             MBEDTLS_MPI_CHK( mbedtls_mpi_shift_r( &TB, 1 ) );
 6405              		.loc 1 1849 0
 6406 0088 04AA     		add	r2, sp, #16
 6407 008a 01A9     		add	r1, sp, #4
 6408 008c 0846     		mov	r0, r1
 6409 008e FFF7FEFF 		bl	mbedtls_mpi_sub_abs
 6410              	.LVL1019:
 6411 0092 0446     		mov	r4, r0
 6412 0094 0028     		cmp	r0, #0
 6413 0096 C7D1     		bne	.L492
1850:C:/Users/lenovo/Desktop/liteos/Project2/BearPi_LiteOS/components/security/mbedtls/mbedtls-2.6.0/library\bignum.c ****         }
 6414              		.loc 1 1850 0
 6415 0098 0121     		movs	r1, #1
 6416 009a 01A8     		add	r0, sp, #4
 6417              	.LVL1020:
 6418 009c FFF7FEFF 		bl	mbedtls_mpi_shift_r
 6419              	.LVL1021:
 6420 00a0 0446     		mov	r4, r0
 6421 00a2 0028     		cmp	r0, #0
 6422 00a4 C0D1     		bne	.L492
 6423              	.L494:
1837:C:/Users/lenovo/Desktop/liteos/Project2/BearPi_LiteOS/components/security/mbedtls/mbedtls-2.6.0/library\bignum.c ****     {
 6424              		.loc 1 1837 0
 6425 00a6 0021     		movs	r1, #0
 6426 00a8 04A8     		add	r0, sp, #16
 6427              	.LVL1022:
 6428 00aa FFF7FEFF 		bl	mbedtls_mpi_cmp_int
 6429              	.LVL1023:
 6430 00ae 48B3     		cbz	r0, .L500
1839:C:/Users/lenovo/Desktop/liteos/Project2/BearPi_LiteOS/components/security/mbedtls/mbedtls-2.6.0/library\bignum.c ****         MBEDTLS_MPI_CHK( mbedtls_mpi_shift_r( &TB, mbedtls_mpi_lsb( &TB ) ) );
 6431              		.loc 1 1839 0
 6432 00b0 04A8     		add	r0, sp, #16
 6433 00b2 FFF7FEFF 		bl	mbedtls_mpi_lsb
 6434              	.LVL1024:
 6435 00b6 0146     		mov	r1, r0
 6436 00b8 04A8     		add	r0, sp, #16
 6437 00ba FFF7FEFF 		bl	mbedtls_mpi_shift_r
 6438              	.LVL1025:
 6439 00be 0446     		mov	r4, r0
 6440 00c0 0028     		cmp	r0, #0
ARM GAS  c:\Users\lenovo\AppData\Local\Temp\ccjcyTZ0.s 			page 158


 6441 00c2 B1D1     		bne	.L492
1840:C:/Users/lenovo/Desktop/liteos/Project2/BearPi_LiteOS/components/security/mbedtls/mbedtls-2.6.0/library\bignum.c **** 
 6442              		.loc 1 1840 0
 6443 00c4 01A8     		add	r0, sp, #4
 6444              	.LVL1026:
 6445 00c6 FFF7FEFF 		bl	mbedtls_mpi_lsb
 6446              	.LVL1027:
 6447 00ca 0146     		mov	r1, r0
 6448 00cc 01A8     		add	r0, sp, #4
 6449 00ce FFF7FEFF 		bl	mbedtls_mpi_shift_r
 6450              	.LVL1028:
 6451 00d2 0446     		mov	r4, r0
 6452 00d4 0028     		cmp	r0, #0
 6453 00d6 A7D1     		bne	.L492
1842:C:/Users/lenovo/Desktop/liteos/Project2/BearPi_LiteOS/components/security/mbedtls/mbedtls-2.6.0/library\bignum.c ****         {
 6454              		.loc 1 1842 0
 6455 00d8 01A9     		add	r1, sp, #4
 6456 00da 04A8     		add	r0, sp, #16
 6457              	.LVL1029:
 6458 00dc FFF7FEFF 		bl	mbedtls_mpi_cmp_mpi
 6459              	.LVL1030:
 6460 00e0 0028     		cmp	r0, #0
 6461 00e2 D1DB     		blt	.L495
1844:C:/Users/lenovo/Desktop/liteos/Project2/BearPi_LiteOS/components/security/mbedtls/mbedtls-2.6.0/library\bignum.c ****             MBEDTLS_MPI_CHK( mbedtls_mpi_shift_r( &TA, 1 ) );
 6462              		.loc 1 1844 0
 6463 00e4 01AA     		add	r2, sp, #4
 6464 00e6 04A9     		add	r1, sp, #16
 6465 00e8 0846     		mov	r0, r1
 6466 00ea FFF7FEFF 		bl	mbedtls_mpi_sub_abs
 6467              	.LVL1031:
 6468 00ee 0446     		mov	r4, r0
 6469 00f0 0028     		cmp	r0, #0
 6470 00f2 99D1     		bne	.L492
1845:C:/Users/lenovo/Desktop/liteos/Project2/BearPi_LiteOS/components/security/mbedtls/mbedtls-2.6.0/library\bignum.c ****         }
 6471              		.loc 1 1845 0
 6472 00f4 0121     		movs	r1, #1
 6473 00f6 04A8     		add	r0, sp, #16
 6474              	.LVL1032:
 6475 00f8 FFF7FEFF 		bl	mbedtls_mpi_shift_r
 6476              	.LVL1033:
 6477 00fc 0446     		mov	r4, r0
 6478 00fe 0028     		cmp	r0, #0
 6479 0100 D1D0     		beq	.L494
 6480 0102 91E7     		b	.L492
 6481              	.LVL1034:
 6482              	.L500:
1854:C:/Users/lenovo/Desktop/liteos/Project2/BearPi_LiteOS/components/security/mbedtls/mbedtls-2.6.0/library\bignum.c ****     MBEDTLS_MPI_CHK( mbedtls_mpi_copy( G, &TB ) );
 6483              		.loc 1 1854 0
 6484 0104 2946     		mov	r1, r5
 6485 0106 01A8     		add	r0, sp, #4
 6486 0108 FFF7FEFF 		bl	mbedtls_mpi_shift_l
 6487              	.LVL1035:
 6488 010c 0446     		mov	r4, r0
 6489 010e 0028     		cmp	r0, #0
 6490 0110 8AD1     		bne	.L492
1855:C:/Users/lenovo/Desktop/liteos/Project2/BearPi_LiteOS/components/security/mbedtls/mbedtls-2.6.0/library\bignum.c **** 
 6491              		.loc 1 1855 0
ARM GAS  c:\Users\lenovo\AppData\Local\Temp\ccjcyTZ0.s 			page 159


 6492 0112 01A9     		add	r1, sp, #4
 6493 0114 3046     		mov	r0, r6
 6494              	.LVL1036:
 6495 0116 FFF7FEFF 		bl	mbedtls_mpi_copy
 6496              	.LVL1037:
 6497 011a 0446     		mov	r4, r0
 6498              	.LVL1038:
1857:C:/Users/lenovo/Desktop/liteos/Project2/BearPi_LiteOS/components/security/mbedtls/mbedtls-2.6.0/library\bignum.c **** 
 6499              		.loc 1 1857 0
 6500 011c 84E7     		b	.L492
 6501              		.cfi_endproc
 6502              	.LFE49:
 6504              		.section	.text.mbedtls_mpi_fill_random,"ax",%progbits
 6505              		.align	1
 6506              		.global	mbedtls_mpi_fill_random
 6507              		.syntax unified
 6508              		.thumb
 6509              		.thumb_func
 6510              		.fpu fpv4-sp-d16
 6512              	mbedtls_mpi_fill_random:
 6513              	.LFB50:
1863:C:/Users/lenovo/Desktop/liteos/Project2/BearPi_LiteOS/components/security/mbedtls/mbedtls-2.6.0/library\bignum.c **** 
1864:C:/Users/lenovo/Desktop/liteos/Project2/BearPi_LiteOS/components/security/mbedtls/mbedtls-2.6.0/library\bignum.c **** /*
1865:C:/Users/lenovo/Desktop/liteos/Project2/BearPi_LiteOS/components/security/mbedtls/mbedtls-2.6.0/library\bignum.c ****  * Fill X with size bytes of random.
1866:C:/Users/lenovo/Desktop/liteos/Project2/BearPi_LiteOS/components/security/mbedtls/mbedtls-2.6.0/library\bignum.c ****  *
1867:C:/Users/lenovo/Desktop/liteos/Project2/BearPi_LiteOS/components/security/mbedtls/mbedtls-2.6.0/library\bignum.c ****  * Use a temporary bytes representation to make sure the result is the same
1868:C:/Users/lenovo/Desktop/liteos/Project2/BearPi_LiteOS/components/security/mbedtls/mbedtls-2.6.0/library\bignum.c ****  * regardless of the platform endianness (useful when f_rng is actually
1869:C:/Users/lenovo/Desktop/liteos/Project2/BearPi_LiteOS/components/security/mbedtls/mbedtls-2.6.0/library\bignum.c ****  * deterministic, eg for tests).
1870:C:/Users/lenovo/Desktop/liteos/Project2/BearPi_LiteOS/components/security/mbedtls/mbedtls-2.6.0/library\bignum.c ****  */
1871:C:/Users/lenovo/Desktop/liteos/Project2/BearPi_LiteOS/components/security/mbedtls/mbedtls-2.6.0/library\bignum.c **** int mbedtls_mpi_fill_random( mbedtls_mpi *X, size_t size,
1872:C:/Users/lenovo/Desktop/liteos/Project2/BearPi_LiteOS/components/security/mbedtls/mbedtls-2.6.0/library\bignum.c ****                      int (*f_rng)(void *, unsigned char *, size_t),
1873:C:/Users/lenovo/Desktop/liteos/Project2/BearPi_LiteOS/components/security/mbedtls/mbedtls-2.6.0/library\bignum.c ****                      void *p_rng )
1874:C:/Users/lenovo/Desktop/liteos/Project2/BearPi_LiteOS/components/security/mbedtls/mbedtls-2.6.0/library\bignum.c **** {
 6514              		.loc 1 1874 0
 6515              		.cfi_startproc
 6516              		@ args = 0, pretend = 0, frame = 1024
 6517              		@ frame_needed = 0, uses_anonymous_args = 0
 6518              	.LVL1039:
1875:C:/Users/lenovo/Desktop/liteos/Project2/BearPi_LiteOS/components/security/mbedtls/mbedtls-2.6.0/library\bignum.c ****     int ret;
1876:C:/Users/lenovo/Desktop/liteos/Project2/BearPi_LiteOS/components/security/mbedtls/mbedtls-2.6.0/library\bignum.c ****     unsigned char buf[MBEDTLS_MPI_MAX_SIZE];
1877:C:/Users/lenovo/Desktop/liteos/Project2/BearPi_LiteOS/components/security/mbedtls/mbedtls-2.6.0/library\bignum.c **** 
1878:C:/Users/lenovo/Desktop/liteos/Project2/BearPi_LiteOS/components/security/mbedtls/mbedtls-2.6.0/library\bignum.c ****     if( size > MBEDTLS_MPI_MAX_SIZE )
 6519              		.loc 1 1878 0
 6520 0000 B1F5806F 		cmp	r1, #1024
 6521 0004 16D8     		bhi	.L503
1874:C:/Users/lenovo/Desktop/liteos/Project2/BearPi_LiteOS/components/security/mbedtls/mbedtls-2.6.0/library\bignum.c ****     int ret;
 6522              		.loc 1 1874 0
 6523 0006 70B5     		push	{r4, r5, r6, lr}
 6524              	.LCFI105:
 6525              		.cfi_def_cfa_offset 16
 6526              		.cfi_offset 4, -16
 6527              		.cfi_offset 5, -12
 6528              		.cfi_offset 6, -8
 6529              		.cfi_offset 14, -4
 6530 0008 ADF5806D 		sub	sp, sp, #1024
 6531              	.LCFI106:
 6532              		.cfi_def_cfa_offset 1040
ARM GAS  c:\Users\lenovo\AppData\Local\Temp\ccjcyTZ0.s 			page 160


 6533 000c 1546     		mov	r5, r2
 6534 000e 0C46     		mov	r4, r1
 6535 0010 0646     		mov	r6, r0
1879:C:/Users/lenovo/Desktop/liteos/Project2/BearPi_LiteOS/components/security/mbedtls/mbedtls-2.6.0/library\bignum.c ****         return( MBEDTLS_ERR_MPI_BAD_INPUT_DATA );
1880:C:/Users/lenovo/Desktop/liteos/Project2/BearPi_LiteOS/components/security/mbedtls/mbedtls-2.6.0/library\bignum.c **** 
1881:C:/Users/lenovo/Desktop/liteos/Project2/BearPi_LiteOS/components/security/mbedtls/mbedtls-2.6.0/library\bignum.c ****     MBEDTLS_MPI_CHK( f_rng( p_rng, buf, size ) );
 6536              		.loc 1 1881 0
 6537 0012 0A46     		mov	r2, r1
 6538              	.LVL1040:
 6539 0014 6946     		mov	r1, sp
 6540              	.LVL1041:
 6541 0016 1846     		mov	r0, r3
 6542              	.LVL1042:
 6543 0018 A847     		blx	r5
 6544              	.LVL1043:
 6545 001a 0346     		mov	r3, r0
 6546 001c 18B1     		cbz	r0, .L508
 6547              	.L501:
1882:C:/Users/lenovo/Desktop/liteos/Project2/BearPi_LiteOS/components/security/mbedtls/mbedtls-2.6.0/library\bignum.c ****     MBEDTLS_MPI_CHK( mbedtls_mpi_read_binary( X, buf, size ) );
1883:C:/Users/lenovo/Desktop/liteos/Project2/BearPi_LiteOS/components/security/mbedtls/mbedtls-2.6.0/library\bignum.c **** 
1884:C:/Users/lenovo/Desktop/liteos/Project2/BearPi_LiteOS/components/security/mbedtls/mbedtls-2.6.0/library\bignum.c **** cleanup:
1885:C:/Users/lenovo/Desktop/liteos/Project2/BearPi_LiteOS/components/security/mbedtls/mbedtls-2.6.0/library\bignum.c ****     return( ret );
1886:C:/Users/lenovo/Desktop/liteos/Project2/BearPi_LiteOS/components/security/mbedtls/mbedtls-2.6.0/library\bignum.c **** }
 6548              		.loc 1 1886 0
 6549 001e 1846     		mov	r0, r3
 6550              	.LVL1044:
 6551 0020 0DF5806D 		add	sp, sp, #1024
 6552              	.LCFI107:
 6553              		.cfi_remember_state
 6554              		.cfi_def_cfa_offset 16
 6555              		@ sp needed
 6556 0024 70BD     		pop	{r4, r5, r6, pc}
 6557              	.LVL1045:
 6558              	.L508:
 6559              	.LCFI108:
 6560              		.cfi_restore_state
1882:C:/Users/lenovo/Desktop/liteos/Project2/BearPi_LiteOS/components/security/mbedtls/mbedtls-2.6.0/library\bignum.c ****     MBEDTLS_MPI_CHK( mbedtls_mpi_read_binary( X, buf, size ) );
 6561              		.loc 1 1882 0
 6562 0026 2246     		mov	r2, r4
 6563 0028 6946     		mov	r1, sp
 6564 002a 3046     		mov	r0, r6
 6565              	.LVL1046:
 6566 002c FFF7FEFF 		bl	mbedtls_mpi_read_binary
 6567              	.LVL1047:
 6568 0030 0346     		mov	r3, r0
 6569              	.LVL1048:
1884:C:/Users/lenovo/Desktop/liteos/Project2/BearPi_LiteOS/components/security/mbedtls/mbedtls-2.6.0/library\bignum.c ****     return( ret );
 6570              		.loc 1 1884 0
 6571 0032 F4E7     		b	.L501
 6572              	.LVL1049:
 6573              	.L503:
 6574              	.LCFI109:
 6575              		.cfi_def_cfa_offset 0
 6576              		.cfi_restore 4
 6577              		.cfi_restore 5
 6578              		.cfi_restore 6
 6579              		.cfi_restore 14
ARM GAS  c:\Users\lenovo\AppData\Local\Temp\ccjcyTZ0.s 			page 161


1879:C:/Users/lenovo/Desktop/liteos/Project2/BearPi_LiteOS/components/security/mbedtls/mbedtls-2.6.0/library\bignum.c ****         return( MBEDTLS_ERR_MPI_BAD_INPUT_DATA );
 6580              		.loc 1 1879 0
 6581 0034 6FF00303 		mvn	r3, #3
 6582              	.LVL1050:
 6583              		.loc 1 1886 0
 6584 0038 1846     		mov	r0, r3
 6585              	.LVL1051:
 6586 003a 7047     		bx	lr
 6587              		.cfi_endproc
 6588              	.LFE50:
 6590              		.section	.text.mbedtls_mpi_inv_mod,"ax",%progbits
 6591              		.align	1
 6592              		.global	mbedtls_mpi_inv_mod
 6593              		.syntax unified
 6594              		.thumb
 6595              		.thumb_func
 6596              		.fpu fpv4-sp-d16
 6598              	mbedtls_mpi_inv_mod:
 6599              	.LFB51:
1887:C:/Users/lenovo/Desktop/liteos/Project2/BearPi_LiteOS/components/security/mbedtls/mbedtls-2.6.0/library\bignum.c **** 
1888:C:/Users/lenovo/Desktop/liteos/Project2/BearPi_LiteOS/components/security/mbedtls/mbedtls-2.6.0/library\bignum.c **** /*
1889:C:/Users/lenovo/Desktop/liteos/Project2/BearPi_LiteOS/components/security/mbedtls/mbedtls-2.6.0/library\bignum.c ****  * Modular inverse: X = A^-1 mod N  (HAC 14.61 / 14.64)
1890:C:/Users/lenovo/Desktop/liteos/Project2/BearPi_LiteOS/components/security/mbedtls/mbedtls-2.6.0/library\bignum.c ****  */
1891:C:/Users/lenovo/Desktop/liteos/Project2/BearPi_LiteOS/components/security/mbedtls/mbedtls-2.6.0/library\bignum.c **** int mbedtls_mpi_inv_mod( mbedtls_mpi *X, const mbedtls_mpi *A, const mbedtls_mpi *N )
1892:C:/Users/lenovo/Desktop/liteos/Project2/BearPi_LiteOS/components/security/mbedtls/mbedtls-2.6.0/library\bignum.c **** {
 6600              		.loc 1 1892 0
 6601              		.cfi_startproc
 6602              		@ args = 0, pretend = 0, frame = 112
 6603              		@ frame_needed = 0, uses_anonymous_args = 0
 6604              	.LVL1052:
 6605 0000 F0B5     		push	{r4, r5, r6, r7, lr}
 6606              	.LCFI110:
 6607              		.cfi_def_cfa_offset 20
 6608              		.cfi_offset 4, -20
 6609              		.cfi_offset 5, -16
 6610              		.cfi_offset 6, -12
 6611              		.cfi_offset 7, -8
 6612              		.cfi_offset 14, -4
 6613 0002 9DB0     		sub	sp, sp, #116
 6614              	.LCFI111:
 6615              		.cfi_def_cfa_offset 136
 6616 0004 0746     		mov	r7, r0
 6617 0006 0E46     		mov	r6, r1
 6618 0008 1446     		mov	r4, r2
1893:C:/Users/lenovo/Desktop/liteos/Project2/BearPi_LiteOS/components/security/mbedtls/mbedtls-2.6.0/library\bignum.c ****     int ret;
1894:C:/Users/lenovo/Desktop/liteos/Project2/BearPi_LiteOS/components/security/mbedtls/mbedtls-2.6.0/library\bignum.c ****     mbedtls_mpi G, TA, TU, U1, U2, TB, TV, V1, V2;
1895:C:/Users/lenovo/Desktop/liteos/Project2/BearPi_LiteOS/components/security/mbedtls/mbedtls-2.6.0/library\bignum.c **** 
1896:C:/Users/lenovo/Desktop/liteos/Project2/BearPi_LiteOS/components/security/mbedtls/mbedtls-2.6.0/library\bignum.c ****     if( mbedtls_mpi_cmp_int( N, 1 ) <= 0 )
 6619              		.loc 1 1896 0
 6620 000a 0121     		movs	r1, #1
 6621              	.LVL1053:
 6622 000c 1046     		mov	r0, r2
 6623              	.LVL1054:
 6624 000e FFF7FEFF 		bl	mbedtls_mpi_cmp_int
 6625              	.LVL1055:
 6626 0012 0028     		cmp	r0, #0
 6627 0014 40F35781 		ble	.L527
ARM GAS  c:\Users\lenovo\AppData\Local\Temp\ccjcyTZ0.s 			page 162


1897:C:/Users/lenovo/Desktop/liteos/Project2/BearPi_LiteOS/components/security/mbedtls/mbedtls-2.6.0/library\bignum.c ****         return( MBEDTLS_ERR_MPI_BAD_INPUT_DATA );
1898:C:/Users/lenovo/Desktop/liteos/Project2/BearPi_LiteOS/components/security/mbedtls/mbedtls-2.6.0/library\bignum.c **** 
1899:C:/Users/lenovo/Desktop/liteos/Project2/BearPi_LiteOS/components/security/mbedtls/mbedtls-2.6.0/library\bignum.c ****     mbedtls_mpi_init( &TA ); mbedtls_mpi_init( &TU ); mbedtls_mpi_init( &U1 ); mbedtls_mpi_init( &U
 6628              		.loc 1 1899 0
 6629 0018 16A8     		add	r0, sp, #88
 6630 001a FFF7FEFF 		bl	mbedtls_mpi_init
 6631              	.LVL1056:
 6632 001e 13A8     		add	r0, sp, #76
 6633 0020 FFF7FEFF 		bl	mbedtls_mpi_init
 6634              	.LVL1057:
 6635 0024 10A8     		add	r0, sp, #64
 6636 0026 FFF7FEFF 		bl	mbedtls_mpi_init
 6637              	.LVL1058:
 6638 002a 0DA8     		add	r0, sp, #52
 6639 002c FFF7FEFF 		bl	mbedtls_mpi_init
 6640              	.LVL1059:
1900:C:/Users/lenovo/Desktop/liteos/Project2/BearPi_LiteOS/components/security/mbedtls/mbedtls-2.6.0/library\bignum.c ****     mbedtls_mpi_init( &G ); mbedtls_mpi_init( &TB ); mbedtls_mpi_init( &TV );
 6641              		.loc 1 1900 0
 6642 0030 19A8     		add	r0, sp, #100
 6643 0032 FFF7FEFF 		bl	mbedtls_mpi_init
 6644              	.LVL1060:
 6645 0036 0AA8     		add	r0, sp, #40
 6646 0038 FFF7FEFF 		bl	mbedtls_mpi_init
 6647              	.LVL1061:
 6648 003c 07A8     		add	r0, sp, #28
 6649 003e FFF7FEFF 		bl	mbedtls_mpi_init
 6650              	.LVL1062:
1901:C:/Users/lenovo/Desktop/liteos/Project2/BearPi_LiteOS/components/security/mbedtls/mbedtls-2.6.0/library\bignum.c ****     mbedtls_mpi_init( &V1 ); mbedtls_mpi_init( &V2 );
 6651              		.loc 1 1901 0
 6652 0042 04A8     		add	r0, sp, #16
 6653 0044 FFF7FEFF 		bl	mbedtls_mpi_init
 6654              	.LVL1063:
 6655 0048 01A8     		add	r0, sp, #4
 6656 004a FFF7FEFF 		bl	mbedtls_mpi_init
 6657              	.LVL1064:
1902:C:/Users/lenovo/Desktop/liteos/Project2/BearPi_LiteOS/components/security/mbedtls/mbedtls-2.6.0/library\bignum.c **** 
1903:C:/Users/lenovo/Desktop/liteos/Project2/BearPi_LiteOS/components/security/mbedtls/mbedtls-2.6.0/library\bignum.c ****     MBEDTLS_MPI_CHK( mbedtls_mpi_gcd( &G, A, N ) );
 6658              		.loc 1 1903 0
 6659 004e 2246     		mov	r2, r4
 6660 0050 3146     		mov	r1, r6
 6661 0052 19A8     		add	r0, sp, #100
 6662 0054 FFF7FEFF 		bl	mbedtls_mpi_gcd
 6663              	.LVL1065:
 6664 0058 0546     		mov	r5, r0
 6665 005a 30B9     		cbnz	r0, .L511
1904:C:/Users/lenovo/Desktop/liteos/Project2/BearPi_LiteOS/components/security/mbedtls/mbedtls-2.6.0/library\bignum.c **** 
1905:C:/Users/lenovo/Desktop/liteos/Project2/BearPi_LiteOS/components/security/mbedtls/mbedtls-2.6.0/library\bignum.c ****     if( mbedtls_mpi_cmp_int( &G, 1 ) != 0 )
 6666              		.loc 1 1905 0
 6667 005c 0121     		movs	r1, #1
 6668 005e 19A8     		add	r0, sp, #100
 6669              	.LVL1066:
 6670 0060 FFF7FEFF 		bl	mbedtls_mpi_cmp_int
 6671              	.LVL1067:
 6672 0064 F8B1     		cbz	r0, .L530
1906:C:/Users/lenovo/Desktop/liteos/Project2/BearPi_LiteOS/components/security/mbedtls/mbedtls-2.6.0/library\bignum.c ****     {
1907:C:/Users/lenovo/Desktop/liteos/Project2/BearPi_LiteOS/components/security/mbedtls/mbedtls-2.6.0/library\bignum.c ****         ret = MBEDTLS_ERR_MPI_NOT_ACCEPTABLE;
 6673              		.loc 1 1907 0
ARM GAS  c:\Users\lenovo\AppData\Local\Temp\ccjcyTZ0.s 			page 163


 6674 0066 6FF00D05 		mvn	r5, #13
 6675              	.LVL1068:
 6676              	.L511:
1908:C:/Users/lenovo/Desktop/liteos/Project2/BearPi_LiteOS/components/security/mbedtls/mbedtls-2.6.0/library\bignum.c ****         goto cleanup;
1909:C:/Users/lenovo/Desktop/liteos/Project2/BearPi_LiteOS/components/security/mbedtls/mbedtls-2.6.0/library\bignum.c ****     }
1910:C:/Users/lenovo/Desktop/liteos/Project2/BearPi_LiteOS/components/security/mbedtls/mbedtls-2.6.0/library\bignum.c **** 
1911:C:/Users/lenovo/Desktop/liteos/Project2/BearPi_LiteOS/components/security/mbedtls/mbedtls-2.6.0/library\bignum.c ****     MBEDTLS_MPI_CHK( mbedtls_mpi_mod_mpi( &TA, A, N ) );
1912:C:/Users/lenovo/Desktop/liteos/Project2/BearPi_LiteOS/components/security/mbedtls/mbedtls-2.6.0/library\bignum.c ****     MBEDTLS_MPI_CHK( mbedtls_mpi_copy( &TU, &TA ) );
1913:C:/Users/lenovo/Desktop/liteos/Project2/BearPi_LiteOS/components/security/mbedtls/mbedtls-2.6.0/library\bignum.c ****     MBEDTLS_MPI_CHK( mbedtls_mpi_copy( &TB, N ) );
1914:C:/Users/lenovo/Desktop/liteos/Project2/BearPi_LiteOS/components/security/mbedtls/mbedtls-2.6.0/library\bignum.c ****     MBEDTLS_MPI_CHK( mbedtls_mpi_copy( &TV, N ) );
1915:C:/Users/lenovo/Desktop/liteos/Project2/BearPi_LiteOS/components/security/mbedtls/mbedtls-2.6.0/library\bignum.c **** 
1916:C:/Users/lenovo/Desktop/liteos/Project2/BearPi_LiteOS/components/security/mbedtls/mbedtls-2.6.0/library\bignum.c ****     MBEDTLS_MPI_CHK( mbedtls_mpi_lset( &U1, 1 ) );
1917:C:/Users/lenovo/Desktop/liteos/Project2/BearPi_LiteOS/components/security/mbedtls/mbedtls-2.6.0/library\bignum.c ****     MBEDTLS_MPI_CHK( mbedtls_mpi_lset( &U2, 0 ) );
1918:C:/Users/lenovo/Desktop/liteos/Project2/BearPi_LiteOS/components/security/mbedtls/mbedtls-2.6.0/library\bignum.c ****     MBEDTLS_MPI_CHK( mbedtls_mpi_lset( &V1, 0 ) );
1919:C:/Users/lenovo/Desktop/liteos/Project2/BearPi_LiteOS/components/security/mbedtls/mbedtls-2.6.0/library\bignum.c ****     MBEDTLS_MPI_CHK( mbedtls_mpi_lset( &V2, 1 ) );
1920:C:/Users/lenovo/Desktop/liteos/Project2/BearPi_LiteOS/components/security/mbedtls/mbedtls-2.6.0/library\bignum.c **** 
1921:C:/Users/lenovo/Desktop/liteos/Project2/BearPi_LiteOS/components/security/mbedtls/mbedtls-2.6.0/library\bignum.c ****     do
1922:C:/Users/lenovo/Desktop/liteos/Project2/BearPi_LiteOS/components/security/mbedtls/mbedtls-2.6.0/library\bignum.c ****     {
1923:C:/Users/lenovo/Desktop/liteos/Project2/BearPi_LiteOS/components/security/mbedtls/mbedtls-2.6.0/library\bignum.c ****         while( ( TU.p[0] & 1 ) == 0 )
1924:C:/Users/lenovo/Desktop/liteos/Project2/BearPi_LiteOS/components/security/mbedtls/mbedtls-2.6.0/library\bignum.c ****         {
1925:C:/Users/lenovo/Desktop/liteos/Project2/BearPi_LiteOS/components/security/mbedtls/mbedtls-2.6.0/library\bignum.c ****             MBEDTLS_MPI_CHK( mbedtls_mpi_shift_r( &TU, 1 ) );
1926:C:/Users/lenovo/Desktop/liteos/Project2/BearPi_LiteOS/components/security/mbedtls/mbedtls-2.6.0/library\bignum.c **** 
1927:C:/Users/lenovo/Desktop/liteos/Project2/BearPi_LiteOS/components/security/mbedtls/mbedtls-2.6.0/library\bignum.c ****             if( ( U1.p[0] & 1 ) != 0 || ( U2.p[0] & 1 ) != 0 )
1928:C:/Users/lenovo/Desktop/liteos/Project2/BearPi_LiteOS/components/security/mbedtls/mbedtls-2.6.0/library\bignum.c ****             {
1929:C:/Users/lenovo/Desktop/liteos/Project2/BearPi_LiteOS/components/security/mbedtls/mbedtls-2.6.0/library\bignum.c ****                 MBEDTLS_MPI_CHK( mbedtls_mpi_add_mpi( &U1, &U1, &TB ) );
1930:C:/Users/lenovo/Desktop/liteos/Project2/BearPi_LiteOS/components/security/mbedtls/mbedtls-2.6.0/library\bignum.c ****                 MBEDTLS_MPI_CHK( mbedtls_mpi_sub_mpi( &U2, &U2, &TA ) );
1931:C:/Users/lenovo/Desktop/liteos/Project2/BearPi_LiteOS/components/security/mbedtls/mbedtls-2.6.0/library\bignum.c ****             }
1932:C:/Users/lenovo/Desktop/liteos/Project2/BearPi_LiteOS/components/security/mbedtls/mbedtls-2.6.0/library\bignum.c **** 
1933:C:/Users/lenovo/Desktop/liteos/Project2/BearPi_LiteOS/components/security/mbedtls/mbedtls-2.6.0/library\bignum.c ****             MBEDTLS_MPI_CHK( mbedtls_mpi_shift_r( &U1, 1 ) );
1934:C:/Users/lenovo/Desktop/liteos/Project2/BearPi_LiteOS/components/security/mbedtls/mbedtls-2.6.0/library\bignum.c ****             MBEDTLS_MPI_CHK( mbedtls_mpi_shift_r( &U2, 1 ) );
1935:C:/Users/lenovo/Desktop/liteos/Project2/BearPi_LiteOS/components/security/mbedtls/mbedtls-2.6.0/library\bignum.c ****         }
1936:C:/Users/lenovo/Desktop/liteos/Project2/BearPi_LiteOS/components/security/mbedtls/mbedtls-2.6.0/library\bignum.c **** 
1937:C:/Users/lenovo/Desktop/liteos/Project2/BearPi_LiteOS/components/security/mbedtls/mbedtls-2.6.0/library\bignum.c ****         while( ( TV.p[0] & 1 ) == 0 )
1938:C:/Users/lenovo/Desktop/liteos/Project2/BearPi_LiteOS/components/security/mbedtls/mbedtls-2.6.0/library\bignum.c ****         {
1939:C:/Users/lenovo/Desktop/liteos/Project2/BearPi_LiteOS/components/security/mbedtls/mbedtls-2.6.0/library\bignum.c ****             MBEDTLS_MPI_CHK( mbedtls_mpi_shift_r( &TV, 1 ) );
1940:C:/Users/lenovo/Desktop/liteos/Project2/BearPi_LiteOS/components/security/mbedtls/mbedtls-2.6.0/library\bignum.c **** 
1941:C:/Users/lenovo/Desktop/liteos/Project2/BearPi_LiteOS/components/security/mbedtls/mbedtls-2.6.0/library\bignum.c ****             if( ( V1.p[0] & 1 ) != 0 || ( V2.p[0] & 1 ) != 0 )
1942:C:/Users/lenovo/Desktop/liteos/Project2/BearPi_LiteOS/components/security/mbedtls/mbedtls-2.6.0/library\bignum.c ****             {
1943:C:/Users/lenovo/Desktop/liteos/Project2/BearPi_LiteOS/components/security/mbedtls/mbedtls-2.6.0/library\bignum.c ****                 MBEDTLS_MPI_CHK( mbedtls_mpi_add_mpi( &V1, &V1, &TB ) );
1944:C:/Users/lenovo/Desktop/liteos/Project2/BearPi_LiteOS/components/security/mbedtls/mbedtls-2.6.0/library\bignum.c ****                 MBEDTLS_MPI_CHK( mbedtls_mpi_sub_mpi( &V2, &V2, &TA ) );
1945:C:/Users/lenovo/Desktop/liteos/Project2/BearPi_LiteOS/components/security/mbedtls/mbedtls-2.6.0/library\bignum.c ****             }
1946:C:/Users/lenovo/Desktop/liteos/Project2/BearPi_LiteOS/components/security/mbedtls/mbedtls-2.6.0/library\bignum.c **** 
1947:C:/Users/lenovo/Desktop/liteos/Project2/BearPi_LiteOS/components/security/mbedtls/mbedtls-2.6.0/library\bignum.c ****             MBEDTLS_MPI_CHK( mbedtls_mpi_shift_r( &V1, 1 ) );
1948:C:/Users/lenovo/Desktop/liteos/Project2/BearPi_LiteOS/components/security/mbedtls/mbedtls-2.6.0/library\bignum.c ****             MBEDTLS_MPI_CHK( mbedtls_mpi_shift_r( &V2, 1 ) );
1949:C:/Users/lenovo/Desktop/liteos/Project2/BearPi_LiteOS/components/security/mbedtls/mbedtls-2.6.0/library\bignum.c ****         }
1950:C:/Users/lenovo/Desktop/liteos/Project2/BearPi_LiteOS/components/security/mbedtls/mbedtls-2.6.0/library\bignum.c **** 
1951:C:/Users/lenovo/Desktop/liteos/Project2/BearPi_LiteOS/components/security/mbedtls/mbedtls-2.6.0/library\bignum.c ****         if( mbedtls_mpi_cmp_mpi( &TU, &TV ) >= 0 )
1952:C:/Users/lenovo/Desktop/liteos/Project2/BearPi_LiteOS/components/security/mbedtls/mbedtls-2.6.0/library\bignum.c ****         {
1953:C:/Users/lenovo/Desktop/liteos/Project2/BearPi_LiteOS/components/security/mbedtls/mbedtls-2.6.0/library\bignum.c ****             MBEDTLS_MPI_CHK( mbedtls_mpi_sub_mpi( &TU, &TU, &TV ) );
1954:C:/Users/lenovo/Desktop/liteos/Project2/BearPi_LiteOS/components/security/mbedtls/mbedtls-2.6.0/library\bignum.c ****             MBEDTLS_MPI_CHK( mbedtls_mpi_sub_mpi( &U1, &U1, &V1 ) );
1955:C:/Users/lenovo/Desktop/liteos/Project2/BearPi_LiteOS/components/security/mbedtls/mbedtls-2.6.0/library\bignum.c ****             MBEDTLS_MPI_CHK( mbedtls_mpi_sub_mpi( &U2, &U2, &V2 ) );
1956:C:/Users/lenovo/Desktop/liteos/Project2/BearPi_LiteOS/components/security/mbedtls/mbedtls-2.6.0/library\bignum.c ****         }
1957:C:/Users/lenovo/Desktop/liteos/Project2/BearPi_LiteOS/components/security/mbedtls/mbedtls-2.6.0/library\bignum.c ****         else
1958:C:/Users/lenovo/Desktop/liteos/Project2/BearPi_LiteOS/components/security/mbedtls/mbedtls-2.6.0/library\bignum.c ****         {
1959:C:/Users/lenovo/Desktop/liteos/Project2/BearPi_LiteOS/components/security/mbedtls/mbedtls-2.6.0/library\bignum.c ****             MBEDTLS_MPI_CHK( mbedtls_mpi_sub_mpi( &TV, &TV, &TU ) );
1960:C:/Users/lenovo/Desktop/liteos/Project2/BearPi_LiteOS/components/security/mbedtls/mbedtls-2.6.0/library\bignum.c ****             MBEDTLS_MPI_CHK( mbedtls_mpi_sub_mpi( &V1, &V1, &U1 ) );
1961:C:/Users/lenovo/Desktop/liteos/Project2/BearPi_LiteOS/components/security/mbedtls/mbedtls-2.6.0/library\bignum.c ****             MBEDTLS_MPI_CHK( mbedtls_mpi_sub_mpi( &V2, &V2, &U2 ) );
ARM GAS  c:\Users\lenovo\AppData\Local\Temp\ccjcyTZ0.s 			page 164


1962:C:/Users/lenovo/Desktop/liteos/Project2/BearPi_LiteOS/components/security/mbedtls/mbedtls-2.6.0/library\bignum.c ****         }
1963:C:/Users/lenovo/Desktop/liteos/Project2/BearPi_LiteOS/components/security/mbedtls/mbedtls-2.6.0/library\bignum.c ****     }
1964:C:/Users/lenovo/Desktop/liteos/Project2/BearPi_LiteOS/components/security/mbedtls/mbedtls-2.6.0/library\bignum.c ****     while( mbedtls_mpi_cmp_int( &TU, 0 ) != 0 );
1965:C:/Users/lenovo/Desktop/liteos/Project2/BearPi_LiteOS/components/security/mbedtls/mbedtls-2.6.0/library\bignum.c **** 
1966:C:/Users/lenovo/Desktop/liteos/Project2/BearPi_LiteOS/components/security/mbedtls/mbedtls-2.6.0/library\bignum.c ****     while( mbedtls_mpi_cmp_int( &V1, 0 ) < 0 )
1967:C:/Users/lenovo/Desktop/liteos/Project2/BearPi_LiteOS/components/security/mbedtls/mbedtls-2.6.0/library\bignum.c ****         MBEDTLS_MPI_CHK( mbedtls_mpi_add_mpi( &V1, &V1, N ) );
1968:C:/Users/lenovo/Desktop/liteos/Project2/BearPi_LiteOS/components/security/mbedtls/mbedtls-2.6.0/library\bignum.c **** 
1969:C:/Users/lenovo/Desktop/liteos/Project2/BearPi_LiteOS/components/security/mbedtls/mbedtls-2.6.0/library\bignum.c ****     while( mbedtls_mpi_cmp_mpi( &V1, N ) >= 0 )
1970:C:/Users/lenovo/Desktop/liteos/Project2/BearPi_LiteOS/components/security/mbedtls/mbedtls-2.6.0/library\bignum.c ****         MBEDTLS_MPI_CHK( mbedtls_mpi_sub_mpi( &V1, &V1, N ) );
1971:C:/Users/lenovo/Desktop/liteos/Project2/BearPi_LiteOS/components/security/mbedtls/mbedtls-2.6.0/library\bignum.c **** 
1972:C:/Users/lenovo/Desktop/liteos/Project2/BearPi_LiteOS/components/security/mbedtls/mbedtls-2.6.0/library\bignum.c ****     MBEDTLS_MPI_CHK( mbedtls_mpi_copy( X, &V1 ) );
1973:C:/Users/lenovo/Desktop/liteos/Project2/BearPi_LiteOS/components/security/mbedtls/mbedtls-2.6.0/library\bignum.c **** 
1974:C:/Users/lenovo/Desktop/liteos/Project2/BearPi_LiteOS/components/security/mbedtls/mbedtls-2.6.0/library\bignum.c **** cleanup:
1975:C:/Users/lenovo/Desktop/liteos/Project2/BearPi_LiteOS/components/security/mbedtls/mbedtls-2.6.0/library\bignum.c **** 
1976:C:/Users/lenovo/Desktop/liteos/Project2/BearPi_LiteOS/components/security/mbedtls/mbedtls-2.6.0/library\bignum.c ****     mbedtls_mpi_free( &TA ); mbedtls_mpi_free( &TU ); mbedtls_mpi_free( &U1 ); mbedtls_mpi_free( &U
 6677              		.loc 1 1976 0
 6678 006a 16A8     		add	r0, sp, #88
 6679 006c FFF7FEFF 		bl	mbedtls_mpi_free
 6680              	.LVL1069:
 6681 0070 13A8     		add	r0, sp, #76
 6682 0072 FFF7FEFF 		bl	mbedtls_mpi_free
 6683              	.LVL1070:
 6684 0076 10A8     		add	r0, sp, #64
 6685 0078 FFF7FEFF 		bl	mbedtls_mpi_free
 6686              	.LVL1071:
 6687 007c 0DA8     		add	r0, sp, #52
 6688 007e FFF7FEFF 		bl	mbedtls_mpi_free
 6689              	.LVL1072:
1977:C:/Users/lenovo/Desktop/liteos/Project2/BearPi_LiteOS/components/security/mbedtls/mbedtls-2.6.0/library\bignum.c ****     mbedtls_mpi_free( &G ); mbedtls_mpi_free( &TB ); mbedtls_mpi_free( &TV );
 6690              		.loc 1 1977 0
 6691 0082 19A8     		add	r0, sp, #100
 6692 0084 FFF7FEFF 		bl	mbedtls_mpi_free
 6693              	.LVL1073:
 6694 0088 0AA8     		add	r0, sp, #40
 6695 008a FFF7FEFF 		bl	mbedtls_mpi_free
 6696              	.LVL1074:
 6697 008e 07A8     		add	r0, sp, #28
 6698 0090 FFF7FEFF 		bl	mbedtls_mpi_free
 6699              	.LVL1075:
1978:C:/Users/lenovo/Desktop/liteos/Project2/BearPi_LiteOS/components/security/mbedtls/mbedtls-2.6.0/library\bignum.c ****     mbedtls_mpi_free( &V1 ); mbedtls_mpi_free( &V2 );
 6700              		.loc 1 1978 0
 6701 0094 04A8     		add	r0, sp, #16
 6702 0096 FFF7FEFF 		bl	mbedtls_mpi_free
 6703              	.LVL1076:
 6704 009a 01A8     		add	r0, sp, #4
 6705 009c FFF7FEFF 		bl	mbedtls_mpi_free
 6706              	.LVL1077:
 6707              	.L509:
1979:C:/Users/lenovo/Desktop/liteos/Project2/BearPi_LiteOS/components/security/mbedtls/mbedtls-2.6.0/library\bignum.c **** 
1980:C:/Users/lenovo/Desktop/liteos/Project2/BearPi_LiteOS/components/security/mbedtls/mbedtls-2.6.0/library\bignum.c ****     return( ret );
1981:C:/Users/lenovo/Desktop/liteos/Project2/BearPi_LiteOS/components/security/mbedtls/mbedtls-2.6.0/library\bignum.c **** }
 6708              		.loc 1 1981 0
 6709 00a0 2846     		mov	r0, r5
 6710 00a2 1DB0     		add	sp, sp, #116
 6711              	.LCFI112:
 6712              		.cfi_remember_state
 6713              		.cfi_def_cfa_offset 20
ARM GAS  c:\Users\lenovo\AppData\Local\Temp\ccjcyTZ0.s 			page 165


 6714              		@ sp needed
 6715 00a4 F0BD     		pop	{r4, r5, r6, r7, pc}
 6716              	.LVL1078:
 6717              	.L530:
 6718              	.LCFI113:
 6719              		.cfi_restore_state
1911:C:/Users/lenovo/Desktop/liteos/Project2/BearPi_LiteOS/components/security/mbedtls/mbedtls-2.6.0/library\bignum.c ****     MBEDTLS_MPI_CHK( mbedtls_mpi_copy( &TU, &TA ) );
 6720              		.loc 1 1911 0
 6721 00a6 2246     		mov	r2, r4
 6722 00a8 3146     		mov	r1, r6
 6723 00aa 16A8     		add	r0, sp, #88
 6724 00ac FFF7FEFF 		bl	mbedtls_mpi_mod_mpi
 6725              	.LVL1079:
 6726 00b0 0546     		mov	r5, r0
 6727 00b2 0028     		cmp	r0, #0
 6728 00b4 D9D1     		bne	.L511
1912:C:/Users/lenovo/Desktop/liteos/Project2/BearPi_LiteOS/components/security/mbedtls/mbedtls-2.6.0/library\bignum.c ****     MBEDTLS_MPI_CHK( mbedtls_mpi_copy( &TB, N ) );
 6729              		.loc 1 1912 0
 6730 00b6 16A9     		add	r1, sp, #88
 6731 00b8 13A8     		add	r0, sp, #76
 6732              	.LVL1080:
 6733 00ba FFF7FEFF 		bl	mbedtls_mpi_copy
 6734              	.LVL1081:
 6735 00be 0546     		mov	r5, r0
 6736 00c0 0028     		cmp	r0, #0
 6737 00c2 D2D1     		bne	.L511
1913:C:/Users/lenovo/Desktop/liteos/Project2/BearPi_LiteOS/components/security/mbedtls/mbedtls-2.6.0/library\bignum.c ****     MBEDTLS_MPI_CHK( mbedtls_mpi_copy( &TV, N ) );
 6738              		.loc 1 1913 0
 6739 00c4 2146     		mov	r1, r4
 6740 00c6 0AA8     		add	r0, sp, #40
 6741              	.LVL1082:
 6742 00c8 FFF7FEFF 		bl	mbedtls_mpi_copy
 6743              	.LVL1083:
 6744 00cc 0546     		mov	r5, r0
 6745 00ce 0028     		cmp	r0, #0
 6746 00d0 CBD1     		bne	.L511
1914:C:/Users/lenovo/Desktop/liteos/Project2/BearPi_LiteOS/components/security/mbedtls/mbedtls-2.6.0/library\bignum.c **** 
 6747              		.loc 1 1914 0
 6748 00d2 2146     		mov	r1, r4
 6749 00d4 07A8     		add	r0, sp, #28
 6750              	.LVL1084:
 6751 00d6 FFF7FEFF 		bl	mbedtls_mpi_copy
 6752              	.LVL1085:
 6753 00da 0546     		mov	r5, r0
 6754 00dc 0028     		cmp	r0, #0
 6755 00de C4D1     		bne	.L511
1916:C:/Users/lenovo/Desktop/liteos/Project2/BearPi_LiteOS/components/security/mbedtls/mbedtls-2.6.0/library\bignum.c ****     MBEDTLS_MPI_CHK( mbedtls_mpi_lset( &U2, 0 ) );
 6756              		.loc 1 1916 0
 6757 00e0 0121     		movs	r1, #1
 6758 00e2 10A8     		add	r0, sp, #64
 6759              	.LVL1086:
 6760 00e4 FFF7FEFF 		bl	mbedtls_mpi_lset
 6761              	.LVL1087:
 6762 00e8 0546     		mov	r5, r0
 6763 00ea 0028     		cmp	r0, #0
 6764 00ec BDD1     		bne	.L511
1917:C:/Users/lenovo/Desktop/liteos/Project2/BearPi_LiteOS/components/security/mbedtls/mbedtls-2.6.0/library\bignum.c ****     MBEDTLS_MPI_CHK( mbedtls_mpi_lset( &V1, 0 ) );
ARM GAS  c:\Users\lenovo\AppData\Local\Temp\ccjcyTZ0.s 			page 166


 6765              		.loc 1 1917 0
 6766 00ee 0021     		movs	r1, #0
 6767 00f0 0DA8     		add	r0, sp, #52
 6768              	.LVL1088:
 6769 00f2 FFF7FEFF 		bl	mbedtls_mpi_lset
 6770              	.LVL1089:
 6771 00f6 0546     		mov	r5, r0
 6772 00f8 0028     		cmp	r0, #0
 6773 00fa B6D1     		bne	.L511
1918:C:/Users/lenovo/Desktop/liteos/Project2/BearPi_LiteOS/components/security/mbedtls/mbedtls-2.6.0/library\bignum.c ****     MBEDTLS_MPI_CHK( mbedtls_mpi_lset( &V2, 1 ) );
 6774              		.loc 1 1918 0
 6775 00fc 0021     		movs	r1, #0
 6776 00fe 04A8     		add	r0, sp, #16
 6777              	.LVL1090:
 6778 0100 FFF7FEFF 		bl	mbedtls_mpi_lset
 6779              	.LVL1091:
 6780 0104 0546     		mov	r5, r0
 6781 0106 0028     		cmp	r0, #0
 6782 0108 AFD1     		bne	.L511
1919:C:/Users/lenovo/Desktop/liteos/Project2/BearPi_LiteOS/components/security/mbedtls/mbedtls-2.6.0/library\bignum.c **** 
 6783              		.loc 1 1919 0
 6784 010a 0121     		movs	r1, #1
 6785 010c 01A8     		add	r0, sp, #4
 6786              	.LVL1092:
 6787 010e FFF7FEFF 		bl	mbedtls_mpi_lset
 6788              	.LVL1093:
 6789 0112 0546     		mov	r5, r0
 6790 0114 0028     		cmp	r0, #0
 6791 0116 A8D1     		bne	.L511
 6792              	.LVL1094:
 6793              	.L512:
1923:C:/Users/lenovo/Desktop/liteos/Project2/BearPi_LiteOS/components/security/mbedtls/mbedtls-2.6.0/library\bignum.c ****         {
 6794              		.loc 1 1923 0
 6795 0118 159B     		ldr	r3, [sp, #84]
 6796 011a 1B68     		ldr	r3, [r3]
 6797 011c 13F0010F 		tst	r3, #1
 6798 0120 52D1     		bne	.L516
1925:C:/Users/lenovo/Desktop/liteos/Project2/BearPi_LiteOS/components/security/mbedtls/mbedtls-2.6.0/library\bignum.c **** 
 6799              		.loc 1 1925 0
 6800 0122 0121     		movs	r1, #1
 6801 0124 13A8     		add	r0, sp, #76
 6802 0126 FFF7FEFF 		bl	mbedtls_mpi_shift_r
 6803              	.LVL1095:
 6804 012a 0546     		mov	r5, r0
 6805 012c 0028     		cmp	r0, #0
 6806 012e 9CD1     		bne	.L511
1927:C:/Users/lenovo/Desktop/liteos/Project2/BearPi_LiteOS/components/security/mbedtls/mbedtls-2.6.0/library\bignum.c ****             {
 6807              		.loc 1 1927 0
 6808 0130 129B     		ldr	r3, [sp, #72]
 6809 0132 1B68     		ldr	r3, [r3]
 6810 0134 13F0010F 		tst	r3, #1
 6811 0138 04D1     		bne	.L513
1927:C:/Users/lenovo/Desktop/liteos/Project2/BearPi_LiteOS/components/security/mbedtls/mbedtls-2.6.0/library\bignum.c ****             {
 6812              		.loc 1 1927 0 is_stmt 0 discriminator 1
 6813 013a 0F9B     		ldr	r3, [sp, #60]
 6814 013c 1B68     		ldr	r3, [r3]
 6815 013e 13F0010F 		tst	r3, #1
ARM GAS  c:\Users\lenovo\AppData\Local\Temp\ccjcyTZ0.s 			page 167


 6816 0142 0FD0     		beq	.L514
 6817              	.L513:
1929:C:/Users/lenovo/Desktop/liteos/Project2/BearPi_LiteOS/components/security/mbedtls/mbedtls-2.6.0/library\bignum.c ****                 MBEDTLS_MPI_CHK( mbedtls_mpi_sub_mpi( &U2, &U2, &TA ) );
 6818              		.loc 1 1929 0 is_stmt 1
 6819 0144 0AAA     		add	r2, sp, #40
 6820 0146 10A9     		add	r1, sp, #64
 6821 0148 0846     		mov	r0, r1
 6822              	.LVL1096:
 6823 014a FFF7FEFF 		bl	mbedtls_mpi_add_mpi
 6824              	.LVL1097:
 6825 014e 0546     		mov	r5, r0
 6826 0150 0028     		cmp	r0, #0
 6827 0152 8AD1     		bne	.L511
1930:C:/Users/lenovo/Desktop/liteos/Project2/BearPi_LiteOS/components/security/mbedtls/mbedtls-2.6.0/library\bignum.c ****             }
 6828              		.loc 1 1930 0
 6829 0154 16AA     		add	r2, sp, #88
 6830 0156 0DA9     		add	r1, sp, #52
 6831 0158 0846     		mov	r0, r1
 6832              	.LVL1098:
 6833 015a FFF7FEFF 		bl	mbedtls_mpi_sub_mpi
 6834              	.LVL1099:
 6835 015e 0546     		mov	r5, r0
 6836 0160 0028     		cmp	r0, #0
 6837 0162 82D1     		bne	.L511
 6838              	.L514:
1933:C:/Users/lenovo/Desktop/liteos/Project2/BearPi_LiteOS/components/security/mbedtls/mbedtls-2.6.0/library\bignum.c ****             MBEDTLS_MPI_CHK( mbedtls_mpi_shift_r( &U2, 1 ) );
 6839              		.loc 1 1933 0
 6840 0164 0121     		movs	r1, #1
 6841 0166 10A8     		add	r0, sp, #64
 6842              	.LVL1100:
 6843 0168 FFF7FEFF 		bl	mbedtls_mpi_shift_r
 6844              	.LVL1101:
 6845 016c 0546     		mov	r5, r0
 6846 016e 0028     		cmp	r0, #0
 6847 0170 7FF47BAF 		bne	.L511
1934:C:/Users/lenovo/Desktop/liteos/Project2/BearPi_LiteOS/components/security/mbedtls/mbedtls-2.6.0/library\bignum.c ****         }
 6848              		.loc 1 1934 0
 6849 0174 0121     		movs	r1, #1
 6850 0176 0DA8     		add	r0, sp, #52
 6851              	.LVL1102:
 6852 0178 FFF7FEFF 		bl	mbedtls_mpi_shift_r
 6853              	.LVL1103:
 6854 017c 0546     		mov	r5, r0
 6855 017e 0028     		cmp	r0, #0
 6856 0180 CAD0     		beq	.L512
1974:C:/Users/lenovo/Desktop/liteos/Project2/BearPi_LiteOS/components/security/mbedtls/mbedtls-2.6.0/library\bignum.c **** 
 6857              		.loc 1 1974 0
 6858 0182 72E7     		b	.L511
 6859              	.L517:
1943:C:/Users/lenovo/Desktop/liteos/Project2/BearPi_LiteOS/components/security/mbedtls/mbedtls-2.6.0/library\bignum.c ****                 MBEDTLS_MPI_CHK( mbedtls_mpi_sub_mpi( &V2, &V2, &TA ) );
 6860              		.loc 1 1943 0
 6861 0184 0AAA     		add	r2, sp, #40
 6862 0186 04A9     		add	r1, sp, #16
 6863 0188 0846     		mov	r0, r1
 6864              	.LVL1104:
 6865 018a FFF7FEFF 		bl	mbedtls_mpi_add_mpi
 6866              	.LVL1105:
ARM GAS  c:\Users\lenovo\AppData\Local\Temp\ccjcyTZ0.s 			page 168


 6867 018e 0546     		mov	r5, r0
 6868 0190 0028     		cmp	r0, #0
 6869 0192 7FF46AAF 		bne	.L511
1944:C:/Users/lenovo/Desktop/liteos/Project2/BearPi_LiteOS/components/security/mbedtls/mbedtls-2.6.0/library\bignum.c ****             }
 6870              		.loc 1 1944 0
 6871 0196 16AA     		add	r2, sp, #88
 6872 0198 01A9     		add	r1, sp, #4
 6873 019a 0846     		mov	r0, r1
 6874              	.LVL1106:
 6875 019c FFF7FEFF 		bl	mbedtls_mpi_sub_mpi
 6876              	.LVL1107:
 6877 01a0 0546     		mov	r5, r0
 6878 01a2 0028     		cmp	r0, #0
 6879 01a4 7FF461AF 		bne	.L511
 6880              	.L518:
1947:C:/Users/lenovo/Desktop/liteos/Project2/BearPi_LiteOS/components/security/mbedtls/mbedtls-2.6.0/library\bignum.c ****             MBEDTLS_MPI_CHK( mbedtls_mpi_shift_r( &V2, 1 ) );
 6881              		.loc 1 1947 0
 6882 01a8 0121     		movs	r1, #1
 6883 01aa 04A8     		add	r0, sp, #16
 6884              	.LVL1108:
 6885 01ac FFF7FEFF 		bl	mbedtls_mpi_shift_r
 6886              	.LVL1109:
 6887 01b0 0546     		mov	r5, r0
 6888 01b2 0028     		cmp	r0, #0
 6889 01b4 7FF459AF 		bne	.L511
1948:C:/Users/lenovo/Desktop/liteos/Project2/BearPi_LiteOS/components/security/mbedtls/mbedtls-2.6.0/library\bignum.c ****         }
 6890              		.loc 1 1948 0
 6891 01b8 0121     		movs	r1, #1
 6892 01ba 01A8     		add	r0, sp, #4
 6893              	.LVL1110:
 6894 01bc FFF7FEFF 		bl	mbedtls_mpi_shift_r
 6895              	.LVL1111:
 6896 01c0 0546     		mov	r5, r0
 6897 01c2 0028     		cmp	r0, #0
 6898 01c4 7FF451AF 		bne	.L511
 6899              	.LVL1112:
 6900              	.L516:
1937:C:/Users/lenovo/Desktop/liteos/Project2/BearPi_LiteOS/components/security/mbedtls/mbedtls-2.6.0/library\bignum.c ****         {
 6901              		.loc 1 1937 0
 6902 01c8 099B     		ldr	r3, [sp, #36]
 6903 01ca 1B68     		ldr	r3, [r3]
 6904 01cc 13F0010F 		tst	r3, #1
 6905 01d0 12D1     		bne	.L531
1939:C:/Users/lenovo/Desktop/liteos/Project2/BearPi_LiteOS/components/security/mbedtls/mbedtls-2.6.0/library\bignum.c **** 
 6906              		.loc 1 1939 0
 6907 01d2 0121     		movs	r1, #1
 6908 01d4 07A8     		add	r0, sp, #28
 6909 01d6 FFF7FEFF 		bl	mbedtls_mpi_shift_r
 6910              	.LVL1113:
 6911 01da 0546     		mov	r5, r0
 6912 01dc 0028     		cmp	r0, #0
 6913 01de 7FF444AF 		bne	.L511
1941:C:/Users/lenovo/Desktop/liteos/Project2/BearPi_LiteOS/components/security/mbedtls/mbedtls-2.6.0/library\bignum.c ****             {
 6914              		.loc 1 1941 0
 6915 01e2 069B     		ldr	r3, [sp, #24]
 6916 01e4 1B68     		ldr	r3, [r3]
 6917 01e6 13F0010F 		tst	r3, #1
ARM GAS  c:\Users\lenovo\AppData\Local\Temp\ccjcyTZ0.s 			page 169


 6918 01ea CBD1     		bne	.L517
1941:C:/Users/lenovo/Desktop/liteos/Project2/BearPi_LiteOS/components/security/mbedtls/mbedtls-2.6.0/library\bignum.c ****             {
 6919              		.loc 1 1941 0 is_stmt 0 discriminator 1
 6920 01ec 039B     		ldr	r3, [sp, #12]
 6921 01ee 1B68     		ldr	r3, [r3]
 6922 01f0 13F0010F 		tst	r3, #1
 6923 01f4 D8D0     		beq	.L518
 6924 01f6 C5E7     		b	.L517
 6925              	.LVL1114:
 6926              	.L531:
1951:C:/Users/lenovo/Desktop/liteos/Project2/BearPi_LiteOS/components/security/mbedtls/mbedtls-2.6.0/library\bignum.c ****         {
 6927              		.loc 1 1951 0 is_stmt 1
 6928 01f8 07A9     		add	r1, sp, #28
 6929 01fa 13A8     		add	r0, sp, #76
 6930 01fc FFF7FEFF 		bl	mbedtls_mpi_cmp_mpi
 6931              	.LVL1115:
 6932 0200 0028     		cmp	r0, #0
 6933 0202 33DB     		blt	.L520
1953:C:/Users/lenovo/Desktop/liteos/Project2/BearPi_LiteOS/components/security/mbedtls/mbedtls-2.6.0/library\bignum.c ****             MBEDTLS_MPI_CHK( mbedtls_mpi_sub_mpi( &U1, &U1, &V1 ) );
 6934              		.loc 1 1953 0
 6935 0204 07AA     		add	r2, sp, #28
 6936 0206 13A9     		add	r1, sp, #76
 6937 0208 0846     		mov	r0, r1
 6938 020a FFF7FEFF 		bl	mbedtls_mpi_sub_mpi
 6939              	.LVL1116:
 6940 020e 0546     		mov	r5, r0
 6941 0210 0028     		cmp	r0, #0
 6942 0212 7FF42AAF 		bne	.L511
1954:C:/Users/lenovo/Desktop/liteos/Project2/BearPi_LiteOS/components/security/mbedtls/mbedtls-2.6.0/library\bignum.c ****             MBEDTLS_MPI_CHK( mbedtls_mpi_sub_mpi( &U2, &U2, &V2 ) );
 6943              		.loc 1 1954 0
 6944 0216 04AA     		add	r2, sp, #16
 6945 0218 10A9     		add	r1, sp, #64
 6946 021a 0846     		mov	r0, r1
 6947              	.LVL1117:
 6948 021c FFF7FEFF 		bl	mbedtls_mpi_sub_mpi
 6949              	.LVL1118:
 6950 0220 0546     		mov	r5, r0
 6951 0222 0028     		cmp	r0, #0
 6952 0224 7FF421AF 		bne	.L511
1955:C:/Users/lenovo/Desktop/liteos/Project2/BearPi_LiteOS/components/security/mbedtls/mbedtls-2.6.0/library\bignum.c ****         }
 6953              		.loc 1 1955 0
 6954 0228 01AA     		add	r2, sp, #4
 6955 022a 0DA9     		add	r1, sp, #52
 6956 022c 0846     		mov	r0, r1
 6957              	.LVL1119:
 6958 022e FFF7FEFF 		bl	mbedtls_mpi_sub_mpi
 6959              	.LVL1120:
 6960 0232 0546     		mov	r5, r0
 6961 0234 0028     		cmp	r0, #0
 6962 0236 7FF418AF 		bne	.L511
 6963              	.L521:
1964:C:/Users/lenovo/Desktop/liteos/Project2/BearPi_LiteOS/components/security/mbedtls/mbedtls-2.6.0/library\bignum.c **** 
 6964              		.loc 1 1964 0
 6965 023a 0021     		movs	r1, #0
 6966 023c 13A8     		add	r0, sp, #76
 6967              	.LVL1121:
 6968 023e FFF7FEFF 		bl	mbedtls_mpi_cmp_int
ARM GAS  c:\Users\lenovo\AppData\Local\Temp\ccjcyTZ0.s 			page 170


 6969              	.LVL1122:
 6970 0242 0028     		cmp	r0, #0
 6971 0244 7FF468AF 		bne	.L512
 6972              	.L523:
1966:C:/Users/lenovo/Desktop/liteos/Project2/BearPi_LiteOS/components/security/mbedtls/mbedtls-2.6.0/library\bignum.c ****         MBEDTLS_MPI_CHK( mbedtls_mpi_add_mpi( &V1, &V1, N ) );
 6973              		.loc 1 1966 0
 6974 0248 0021     		movs	r1, #0
 6975 024a 04A8     		add	r0, sp, #16
 6976 024c FFF7FEFF 		bl	mbedtls_mpi_cmp_int
 6977              	.LVL1123:
 6978 0250 0028     		cmp	r0, #0
 6979 0252 26DB     		blt	.L524
 6980              	.L525:
1969:C:/Users/lenovo/Desktop/liteos/Project2/BearPi_LiteOS/components/security/mbedtls/mbedtls-2.6.0/library\bignum.c ****         MBEDTLS_MPI_CHK( mbedtls_mpi_sub_mpi( &V1, &V1, N ) );
 6981              		.loc 1 1969 0
 6982 0254 2146     		mov	r1, r4
 6983 0256 04A8     		add	r0, sp, #16
 6984 0258 FFF7FEFF 		bl	mbedtls_mpi_cmp_mpi
 6985              	.LVL1124:
 6986 025c 0028     		cmp	r0, #0
 6987 025e 29DA     		bge	.L526
1972:C:/Users/lenovo/Desktop/liteos/Project2/BearPi_LiteOS/components/security/mbedtls/mbedtls-2.6.0/library\bignum.c **** 
 6988              		.loc 1 1972 0
 6989 0260 04A9     		add	r1, sp, #16
 6990 0262 3846     		mov	r0, r7
 6991 0264 FFF7FEFF 		bl	mbedtls_mpi_copy
 6992              	.LVL1125:
 6993 0268 0546     		mov	r5, r0
 6994              	.LVL1126:
1974:C:/Users/lenovo/Desktop/liteos/Project2/BearPi_LiteOS/components/security/mbedtls/mbedtls-2.6.0/library\bignum.c **** 
 6995              		.loc 1 1974 0
 6996 026a FEE6     		b	.L511
 6997              	.LVL1127:
 6998              	.L520:
1959:C:/Users/lenovo/Desktop/liteos/Project2/BearPi_LiteOS/components/security/mbedtls/mbedtls-2.6.0/library\bignum.c ****             MBEDTLS_MPI_CHK( mbedtls_mpi_sub_mpi( &V1, &V1, &U1 ) );
 6999              		.loc 1 1959 0
 7000 026c 13AA     		add	r2, sp, #76
 7001 026e 07A9     		add	r1, sp, #28
 7002 0270 0846     		mov	r0, r1
 7003 0272 FFF7FEFF 		bl	mbedtls_mpi_sub_mpi
 7004              	.LVL1128:
 7005 0276 0546     		mov	r5, r0
 7006 0278 0028     		cmp	r0, #0
 7007 027a 7FF4F6AE 		bne	.L511
1960:C:/Users/lenovo/Desktop/liteos/Project2/BearPi_LiteOS/components/security/mbedtls/mbedtls-2.6.0/library\bignum.c ****             MBEDTLS_MPI_CHK( mbedtls_mpi_sub_mpi( &V2, &V2, &U2 ) );
 7008              		.loc 1 1960 0
 7009 027e 10AA     		add	r2, sp, #64
 7010 0280 04A9     		add	r1, sp, #16
 7011 0282 0846     		mov	r0, r1
 7012              	.LVL1129:
 7013 0284 FFF7FEFF 		bl	mbedtls_mpi_sub_mpi
 7014              	.LVL1130:
 7015 0288 0546     		mov	r5, r0
 7016 028a 0028     		cmp	r0, #0
 7017 028c 7FF4EDAE 		bne	.L511
1961:C:/Users/lenovo/Desktop/liteos/Project2/BearPi_LiteOS/components/security/mbedtls/mbedtls-2.6.0/library\bignum.c ****         }
 7018              		.loc 1 1961 0
ARM GAS  c:\Users\lenovo\AppData\Local\Temp\ccjcyTZ0.s 			page 171


 7019 0290 0DAA     		add	r2, sp, #52
 7020 0292 01A9     		add	r1, sp, #4
 7021 0294 0846     		mov	r0, r1
 7022              	.LVL1131:
 7023 0296 FFF7FEFF 		bl	mbedtls_mpi_sub_mpi
 7024              	.LVL1132:
 7025 029a 0546     		mov	r5, r0
 7026 029c 0028     		cmp	r0, #0
 7027 029e CCD0     		beq	.L521
1974:C:/Users/lenovo/Desktop/liteos/Project2/BearPi_LiteOS/components/security/mbedtls/mbedtls-2.6.0/library\bignum.c **** 
 7028              		.loc 1 1974 0
 7029 02a0 E3E6     		b	.L511
 7030              	.LVL1133:
 7031              	.L524:
1967:C:/Users/lenovo/Desktop/liteos/Project2/BearPi_LiteOS/components/security/mbedtls/mbedtls-2.6.0/library\bignum.c **** 
 7032              		.loc 1 1967 0
 7033 02a2 2246     		mov	r2, r4
 7034 02a4 04A9     		add	r1, sp, #16
 7035 02a6 0846     		mov	r0, r1
 7036 02a8 FFF7FEFF 		bl	mbedtls_mpi_add_mpi
 7037              	.LVL1134:
 7038 02ac 0546     		mov	r5, r0
 7039 02ae 0028     		cmp	r0, #0
 7040 02b0 CAD0     		beq	.L523
1974:C:/Users/lenovo/Desktop/liteos/Project2/BearPi_LiteOS/components/security/mbedtls/mbedtls-2.6.0/library\bignum.c **** 
 7041              		.loc 1 1974 0
 7042 02b2 DAE6     		b	.L511
 7043              	.LVL1135:
 7044              	.L526:
1970:C:/Users/lenovo/Desktop/liteos/Project2/BearPi_LiteOS/components/security/mbedtls/mbedtls-2.6.0/library\bignum.c **** 
 7045              		.loc 1 1970 0
 7046 02b4 2246     		mov	r2, r4
 7047 02b6 04A9     		add	r1, sp, #16
 7048 02b8 0846     		mov	r0, r1
 7049 02ba FFF7FEFF 		bl	mbedtls_mpi_sub_mpi
 7050              	.LVL1136:
 7051 02be 0546     		mov	r5, r0
 7052 02c0 0028     		cmp	r0, #0
 7053 02c2 C7D0     		beq	.L525
1974:C:/Users/lenovo/Desktop/liteos/Project2/BearPi_LiteOS/components/security/mbedtls/mbedtls-2.6.0/library\bignum.c **** 
 7054              		.loc 1 1974 0
 7055 02c4 D1E6     		b	.L511
 7056              	.LVL1137:
 7057              	.L527:
1897:C:/Users/lenovo/Desktop/liteos/Project2/BearPi_LiteOS/components/security/mbedtls/mbedtls-2.6.0/library\bignum.c **** 
 7058              		.loc 1 1897 0
 7059 02c6 6FF00305 		mvn	r5, #3
 7060 02ca E9E6     		b	.L509
 7061              		.cfi_endproc
 7062              	.LFE51:
 7064              		.section	.rodata.mbedtls_mpi_write_string.str1.4,"aMS",%progbits,1
 7065              		.align	2
 7066              	.LC0:
 7067 0000 30313233 		.ascii	"0123456789ABCDEF\000"
 7067      34353637 
 7067      38394142 
 7067      43444546 
ARM GAS  c:\Users\lenovo\AppData\Local\Temp\ccjcyTZ0.s 			page 172


 7067      00
 7068              		.text
 7069              	.Letext0:
 7070              		.file 2 "c:\\program files (x86)\\liteos studio\\resources\\arm-none-eabi\\arm-none-eabi\\include\
 7071              		.file 3 "c:\\program files (x86)\\liteos studio\\resources\\arm-none-eabi\\lib\\gcc\\arm-none-eabi
 7072              		.file 4 "c:\\program files (x86)\\liteos studio\\resources\\arm-none-eabi\\arm-none-eabi\\include\
 7073              		.file 5 "C:/Users/lenovo/Desktop/liteos/Project2/BearPi_LiteOS/components/security/mbedtls/mbedtls
 7074              		.file 6 "c:\\program files (x86)\\liteos studio\\resources\\arm-none-eabi\\arm-none-eabi\\include\
 7075              		.file 7 "c:\\program files (x86)\\liteos studio\\resources\\arm-none-eabi\\arm-none-eabi\\include\
 7076              		.file 8 "c:\\program files (x86)\\liteos studio\\resources\\arm-none-eabi\\arm-none-eabi\\include\
 7077              		.file 9 "c:\\program files (x86)\\liteos studio\\resources\\arm-none-eabi\\arm-none-eabi\\include\
 7078              		.file 10 "c:\\program files (x86)\\liteos studio\\resources\\arm-none-eabi\\arm-none-eabi\\include
 7079              		.file 11 "C:/Users/lenovo/Desktop/liteos/Project2/BearPi_LiteOS/components/security/mbedtls/mbedtl
 7080              		.file 12 "<built-in>"
 7081              		.file 13 "c:\\program files (x86)\\liteos studio\\resources\\arm-none-eabi\\arm-none-eabi\\include
ARM GAS  c:\Users\lenovo\AppData\Local\Temp\ccjcyTZ0.s 			page 173


DEFINED SYMBOLS
                            *ABS*:00000000 bignum.c
c:\Users\lenovo\AppData\Local\Temp\ccjcyTZ0.s:18     .text.mbedtls_mpi_zeroize:00000000 $t
c:\Users\lenovo\AppData\Local\Temp\ccjcyTZ0.s:24     .text.mbedtls_mpi_zeroize:00000000 mbedtls_mpi_zeroize
c:\Users\lenovo\AppData\Local\Temp\ccjcyTZ0.s:56     .text.mbedtls_clz:00000000 $t
c:\Users\lenovo\AppData\Local\Temp\ccjcyTZ0.s:62     .text.mbedtls_clz:00000000 mbedtls_clz
c:\Users\lenovo\AppData\Local\Temp\ccjcyTZ0.s:98     .text.mpi_get_digit:00000000 $t
c:\Users\lenovo\AppData\Local\Temp\ccjcyTZ0.s:104    .text.mpi_get_digit:00000000 mpi_get_digit
c:\Users\lenovo\AppData\Local\Temp\ccjcyTZ0.s:162    .text.mpi_sub_hlp:00000000 $t
c:\Users\lenovo\AppData\Local\Temp\ccjcyTZ0.s:168    .text.mpi_sub_hlp:00000000 mpi_sub_hlp
c:\Users\lenovo\AppData\Local\Temp\ccjcyTZ0.s:250    .text.mpi_mul_hlp:00000000 $t
c:\Users\lenovo\AppData\Local\Temp\ccjcyTZ0.s:256    .text.mpi_mul_hlp:00000000 mpi_mul_hlp
c:\Users\lenovo\AppData\Local\Temp\ccjcyTZ0.s:904    .text.mbedtls_int_div_int:00000000 $t
c:\Users\lenovo\AppData\Local\Temp\ccjcyTZ0.s:910    .text.mbedtls_int_div_int:00000000 mbedtls_int_div_int
c:\Users\lenovo\AppData\Local\Temp\ccjcyTZ0.s:1017   .text.mpi_montg_init:00000000 $t
c:\Users\lenovo\AppData\Local\Temp\ccjcyTZ0.s:1023   .text.mpi_montg_init:00000000 mpi_montg_init
c:\Users\lenovo\AppData\Local\Temp\ccjcyTZ0.s:1078   .text.mbedtls_mpi_init:00000000 $t
c:\Users\lenovo\AppData\Local\Temp\ccjcyTZ0.s:1085   .text.mbedtls_mpi_init:00000000 mbedtls_mpi_init
c:\Users\lenovo\AppData\Local\Temp\ccjcyTZ0.s:1110   .text.mbedtls_mpi_free:00000000 $t
c:\Users\lenovo\AppData\Local\Temp\ccjcyTZ0.s:1117   .text.mbedtls_mpi_free:00000000 mbedtls_mpi_free
c:\Users\lenovo\AppData\Local\Temp\ccjcyTZ0.s:1168   .text.mbedtls_mpi_free:00000028 $d
c:\Users\lenovo\AppData\Local\Temp\ccjcyTZ0.s:1173   .text.mbedtls_mpi_grow:00000000 $t
c:\Users\lenovo\AppData\Local\Temp\ccjcyTZ0.s:1180   .text.mbedtls_mpi_grow:00000000 mbedtls_mpi_grow
c:\Users\lenovo\AppData\Local\Temp\ccjcyTZ0.s:1279   .text.mbedtls_mpi_grow:00000058 $d
c:\Users\lenovo\AppData\Local\Temp\ccjcyTZ0.s:1285   .text.mbedtls_mpi_shrink:00000000 $t
c:\Users\lenovo\AppData\Local\Temp\ccjcyTZ0.s:1292   .text.mbedtls_mpi_shrink:00000000 mbedtls_mpi_shrink
c:\Users\lenovo\AppData\Local\Temp\ccjcyTZ0.s:1393   .text.mbedtls_mpi_shrink:00000060 $d
c:\Users\lenovo\AppData\Local\Temp\ccjcyTZ0.s:1399   .text.mbedtls_mpi_copy:00000000 $t
c:\Users\lenovo\AppData\Local\Temp\ccjcyTZ0.s:1406   .text.mbedtls_mpi_copy:00000000 mbedtls_mpi_copy
c:\Users\lenovo\AppData\Local\Temp\ccjcyTZ0.s:1500   .text.mbedtls_mpi_swap:00000000 $t
c:\Users\lenovo\AppData\Local\Temp\ccjcyTZ0.s:1507   .text.mbedtls_mpi_swap:00000000 mbedtls_mpi_swap
c:\Users\lenovo\AppData\Local\Temp\ccjcyTZ0.s:1563   .text.mbedtls_mpi_safe_cond_assign:00000000 $t
c:\Users\lenovo\AppData\Local\Temp\ccjcyTZ0.s:1570   .text.mbedtls_mpi_safe_cond_assign:00000000 mbedtls_mpi_safe_cond_assign
c:\Users\lenovo\AppData\Local\Temp\ccjcyTZ0.s:1658   .text.mbedtls_mpi_safe_cond_swap:00000000 $t
c:\Users\lenovo\AppData\Local\Temp\ccjcyTZ0.s:1665   .text.mbedtls_mpi_safe_cond_swap:00000000 mbedtls_mpi_safe_cond_swap
c:\Users\lenovo\AppData\Local\Temp\ccjcyTZ0.s:1767   .text.mbedtls_mpi_lset:00000000 $t
c:\Users\lenovo\AppData\Local\Temp\ccjcyTZ0.s:1774   .text.mbedtls_mpi_lset:00000000 mbedtls_mpi_lset
c:\Users\lenovo\AppData\Local\Temp\ccjcyTZ0.s:1835   .text.mbedtls_mpi_get_bit:00000000 $t
c:\Users\lenovo\AppData\Local\Temp\ccjcyTZ0.s:1842   .text.mbedtls_mpi_get_bit:00000000 mbedtls_mpi_get_bit
c:\Users\lenovo\AppData\Local\Temp\ccjcyTZ0.s:1875   .text.mbedtls_mpi_set_bit:00000000 $t
c:\Users\lenovo\AppData\Local\Temp\ccjcyTZ0.s:1882   .text.mbedtls_mpi_set_bit:00000000 mbedtls_mpi_set_bit
c:\Users\lenovo\AppData\Local\Temp\ccjcyTZ0.s:1973   .text.mbedtls_mpi_lsb:00000000 $t
c:\Users\lenovo\AppData\Local\Temp\ccjcyTZ0.s:1980   .text.mbedtls_mpi_lsb:00000000 mbedtls_mpi_lsb
c:\Users\lenovo\AppData\Local\Temp\ccjcyTZ0.s:2046   .text.mbedtls_mpi_bitlen:00000000 $t
c:\Users\lenovo\AppData\Local\Temp\ccjcyTZ0.s:2053   .text.mbedtls_mpi_bitlen:00000000 mbedtls_mpi_bitlen
c:\Users\lenovo\AppData\Local\Temp\ccjcyTZ0.s:2107   .text.mbedtls_mpi_size:00000000 $t
c:\Users\lenovo\AppData\Local\Temp\ccjcyTZ0.s:2114   .text.mbedtls_mpi_size:00000000 mbedtls_mpi_size
c:\Users\lenovo\AppData\Local\Temp\ccjcyTZ0.s:2137   .text.mbedtls_mpi_read_binary:00000000 $t
c:\Users\lenovo\AppData\Local\Temp\ccjcyTZ0.s:2144   .text.mbedtls_mpi_read_binary:00000000 mbedtls_mpi_read_binary
c:\Users\lenovo\AppData\Local\Temp\ccjcyTZ0.s:2240   .text.mbedtls_mpi_write_binary:00000000 $t
c:\Users\lenovo\AppData\Local\Temp\ccjcyTZ0.s:2247   .text.mbedtls_mpi_write_binary:00000000 mbedtls_mpi_write_binary
c:\Users\lenovo\AppData\Local\Temp\ccjcyTZ0.s:2322   .text.mbedtls_mpi_shift_l:00000000 $t
c:\Users\lenovo\AppData\Local\Temp\ccjcyTZ0.s:2329   .text.mbedtls_mpi_shift_l:00000000 mbedtls_mpi_shift_l
c:\Users\lenovo\AppData\Local\Temp\ccjcyTZ0.s:2469   .text.mbedtls_mpi_shift_r:00000000 $t
c:\Users\lenovo\AppData\Local\Temp\ccjcyTZ0.s:2476   .text.mbedtls_mpi_shift_r:00000000 mbedtls_mpi_shift_r
c:\Users\lenovo\AppData\Local\Temp\ccjcyTZ0.s:2611   .text.mbedtls_mpi_cmp_abs:00000000 $t
c:\Users\lenovo\AppData\Local\Temp\ccjcyTZ0.s:2618   .text.mbedtls_mpi_cmp_abs:00000000 mbedtls_mpi_cmp_abs
ARM GAS  c:\Users\lenovo\AppData\Local\Temp\ccjcyTZ0.s 			page 174


c:\Users\lenovo\AppData\Local\Temp\ccjcyTZ0.s:2743   .text.mpi_montmul:00000000 $t
c:\Users\lenovo\AppData\Local\Temp\ccjcyTZ0.s:2749   .text.mpi_montmul:00000000 mpi_montmul
c:\Users\lenovo\AppData\Local\Temp\ccjcyTZ0.s:2917   .text.mpi_montred:00000000 $t
c:\Users\lenovo\AppData\Local\Temp\ccjcyTZ0.s:2923   .text.mpi_montred:00000000 mpi_montred
c:\Users\lenovo\AppData\Local\Temp\ccjcyTZ0.s:2967   .text.mbedtls_mpi_cmp_mpi:00000000 $t
c:\Users\lenovo\AppData\Local\Temp\ccjcyTZ0.s:2974   .text.mbedtls_mpi_cmp_mpi:00000000 mbedtls_mpi_cmp_mpi
c:\Users\lenovo\AppData\Local\Temp\ccjcyTZ0.s:3118   .text.mbedtls_mpi_cmp_int:00000000 $t
c:\Users\lenovo\AppData\Local\Temp\ccjcyTZ0.s:3125   .text.mbedtls_mpi_cmp_int:00000000 mbedtls_mpi_cmp_int
c:\Users\lenovo\AppData\Local\Temp\ccjcyTZ0.s:3178   .text.mbedtls_mpi_add_abs:00000000 $t
c:\Users\lenovo\AppData\Local\Temp\ccjcyTZ0.s:3185   .text.mbedtls_mpi_add_abs:00000000 mbedtls_mpi_add_abs
c:\Users\lenovo\AppData\Local\Temp\ccjcyTZ0.s:3343   .text.mbedtls_mpi_sub_abs:00000000 $t
c:\Users\lenovo\AppData\Local\Temp\ccjcyTZ0.s:3350   .text.mbedtls_mpi_sub_abs:00000000 mbedtls_mpi_sub_abs
c:\Users\lenovo\AppData\Local\Temp\ccjcyTZ0.s:3469   .text.mbedtls_mpi_add_mpi:00000000 $t
c:\Users\lenovo\AppData\Local\Temp\ccjcyTZ0.s:3476   .text.mbedtls_mpi_add_mpi:00000000 mbedtls_mpi_add_mpi
c:\Users\lenovo\AppData\Local\Temp\ccjcyTZ0.s:3558   .text.mbedtls_mpi_sub_mpi:00000000 $t
c:\Users\lenovo\AppData\Local\Temp\ccjcyTZ0.s:3565   .text.mbedtls_mpi_sub_mpi:00000000 mbedtls_mpi_sub_mpi
c:\Users\lenovo\AppData\Local\Temp\ccjcyTZ0.s:3650   .text.mbedtls_mpi_add_int:00000000 $t
c:\Users\lenovo\AppData\Local\Temp\ccjcyTZ0.s:3657   .text.mbedtls_mpi_add_int:00000000 mbedtls_mpi_add_int
c:\Users\lenovo\AppData\Local\Temp\ccjcyTZ0.s:3710   .text.mbedtls_mpi_sub_int:00000000 $t
c:\Users\lenovo\AppData\Local\Temp\ccjcyTZ0.s:3717   .text.mbedtls_mpi_sub_int:00000000 mbedtls_mpi_sub_int
c:\Users\lenovo\AppData\Local\Temp\ccjcyTZ0.s:3770   .text.mbedtls_mpi_mul_mpi:00000000 $t
c:\Users\lenovo\AppData\Local\Temp\ccjcyTZ0.s:3777   .text.mbedtls_mpi_mul_mpi:00000000 mbedtls_mpi_mul_mpi
c:\Users\lenovo\AppData\Local\Temp\ccjcyTZ0.s:3946   .text.mbedtls_mpi_mul_int:00000000 $t
c:\Users\lenovo\AppData\Local\Temp\ccjcyTZ0.s:3953   .text.mbedtls_mpi_mul_int:00000000 mbedtls_mpi_mul_int
c:\Users\lenovo\AppData\Local\Temp\ccjcyTZ0.s:3991   .text.mbedtls_mpi_read_string:00000000 $t
c:\Users\lenovo\AppData\Local\Temp\ccjcyTZ0.s:3998   .text.mbedtls_mpi_read_string:00000000 mbedtls_mpi_read_string
c:\Users\lenovo\AppData\Local\Temp\ccjcyTZ0.s:4235   .text.mbedtls_mpi_div_mpi:00000000 $t
c:\Users\lenovo\AppData\Local\Temp\ccjcyTZ0.s:4242   .text.mbedtls_mpi_div_mpi:00000000 mbedtls_mpi_div_mpi
c:\Users\lenovo\AppData\Local\Temp\ccjcyTZ0.s:4814   .text.mbedtls_mpi_div_int:00000000 $t
c:\Users\lenovo\AppData\Local\Temp\ccjcyTZ0.s:4821   .text.mbedtls_mpi_div_int:00000000 mbedtls_mpi_div_int
c:\Users\lenovo\AppData\Local\Temp\ccjcyTZ0.s:4876   .text.mbedtls_mpi_mod_mpi:00000000 $t
c:\Users\lenovo\AppData\Local\Temp\ccjcyTZ0.s:4883   .text.mbedtls_mpi_mod_mpi:00000000 mbedtls_mpi_mod_mpi
c:\Users\lenovo\AppData\Local\Temp\ccjcyTZ0.s:4972   .text.mbedtls_mpi_mod_int:00000000 $t
c:\Users\lenovo\AppData\Local\Temp\ccjcyTZ0.s:4979   .text.mbedtls_mpi_mod_int:00000000 mbedtls_mpi_mod_int
c:\Users\lenovo\AppData\Local\Temp\ccjcyTZ0.s:5127   .text.mpi_write_hlp:00000000 $t
c:\Users\lenovo\AppData\Local\Temp\ccjcyTZ0.s:5133   .text.mpi_write_hlp:00000000 mpi_write_hlp
c:\Users\lenovo\AppData\Local\Temp\ccjcyTZ0.s:5243   .text.mbedtls_mpi_write_string:00000000 $t
c:\Users\lenovo\AppData\Local\Temp\ccjcyTZ0.s:5250   .text.mbedtls_mpi_write_string:00000000 mbedtls_mpi_write_string
c:\Users\lenovo\AppData\Local\Temp\ccjcyTZ0.s:5481   .text.mbedtls_mpi_write_string:00000104 $d
c:\Users\lenovo\AppData\Local\Temp\ccjcyTZ0.s:5486   .text.mbedtls_mpi_exp_mod:00000000 $t
c:\Users\lenovo\AppData\Local\Temp\ccjcyTZ0.s:5493   .text.mbedtls_mpi_exp_mod:00000000 mbedtls_mpi_exp_mod
c:\Users\lenovo\AppData\Local\Temp\ccjcyTZ0.s:6278   .text.mbedtls_mpi_gcd:00000000 $t
c:\Users\lenovo\AppData\Local\Temp\ccjcyTZ0.s:6285   .text.mbedtls_mpi_gcd:00000000 mbedtls_mpi_gcd
c:\Users\lenovo\AppData\Local\Temp\ccjcyTZ0.s:6505   .text.mbedtls_mpi_fill_random:00000000 $t
c:\Users\lenovo\AppData\Local\Temp\ccjcyTZ0.s:6512   .text.mbedtls_mpi_fill_random:00000000 mbedtls_mpi_fill_random
c:\Users\lenovo\AppData\Local\Temp\ccjcyTZ0.s:6591   .text.mbedtls_mpi_inv_mod:00000000 $t
c:\Users\lenovo\AppData\Local\Temp\ccjcyTZ0.s:6598   .text.mbedtls_mpi_inv_mod:00000000 mbedtls_mpi_inv_mod
c:\Users\lenovo\AppData\Local\Temp\ccjcyTZ0.s:7065   .rodata.mbedtls_mpi_write_string.str1.4:00000000 $d

UNDEFINED SYMBOLS
__aeabi_uldivmod
mbedtls_free
memcpy
mbedtls_calloc
memset
strlen
