ARM GAS  c:\Users\lenovo\AppData\Local\Temp\ccjcyTZ0.s 			page 1


   1              		.cpu cortex-m4
   2              		.eabi_attribute 27, 1
   3              		.eabi_attribute 28, 1
   4              		.eabi_attribute 20, 1
   5              		.eabi_attribute 21, 1
   6              		.eabi_attribute 23, 3
   7              		.eabi_attribute 24, 1
   8              		.eabi_attribute 25, 1
   9              		.eabi_attribute 26, 1
  10              		.eabi_attribute 30, 1
  11              		.eabi_attribute 34, 1
  12              		.eabi_attribute 18, 4
  13              		.file	"bignum.c"
  14              		.text
  15              	.Ltext0:
  16              		.cfi_sections	.debug_frame
  17              		.section	.text.mbedtls_mpi_zeroize,"ax",%progbits
  18              		.align	1
  19              		.syntax unified
  20              		.thumb
  21              		.thumb_func
  22              		.fpu fpv4-sp-d16
  24              	mbedtls_mpi_zeroize:
  25              	.LFB3:
  26              		.file 1 "C:/Users/lenovo/Desktop/liteos/Project2/BearPi_LiteOS/components/security/mbedtls/mbedtls
   1:C:/Users/lenovo/Desktop/liteos/Project2/BearPi_LiteOS/components/security/mbedtls/mbedtls-2.6.0/library\bignum.c **** /*
   2:C:/Users/lenovo/Desktop/liteos/Project2/BearPi_LiteOS/components/security/mbedtls/mbedtls-2.6.0/library\bignum.c ****  *  Multi-precision integer library
   3:C:/Users/lenovo/Desktop/liteos/Project2/BearPi_LiteOS/components/security/mbedtls/mbedtls-2.6.0/library\bignum.c ****  *
   4:C:/Users/lenovo/Desktop/liteos/Project2/BearPi_LiteOS/components/security/mbedtls/mbedtls-2.6.0/library\bignum.c ****  *  Copyright (C) 2006-2015, ARM Limited, All Rights Reserved
   5:C:/Users/lenovo/Desktop/liteos/Project2/BearPi_LiteOS/components/security/mbedtls/mbedtls-2.6.0/library\bignum.c ****  *  SPDX-License-Identifier: Apache-2.0
   6:C:/Users/lenovo/Desktop/liteos/Project2/BearPi_LiteOS/components/security/mbedtls/mbedtls-2.6.0/library\bignum.c ****  *
   7:C:/Users/lenovo/Desktop/liteos/Project2/BearPi_LiteOS/components/security/mbedtls/mbedtls-2.6.0/library\bignum.c ****  *  Licensed under the Apache License, Version 2.0 (the "License"); you may
   8:C:/Users/lenovo/Desktop/liteos/Project2/BearPi_LiteOS/components/security/mbedtls/mbedtls-2.6.0/library\bignum.c ****  *  not use this file except in compliance with the License.
   9:C:/Users/lenovo/Desktop/liteos/Project2/BearPi_LiteOS/components/security/mbedtls/mbedtls-2.6.0/library\bignum.c ****  *  You may obtain a copy of the License at
  10:C:/Users/lenovo/Desktop/liteos/Project2/BearPi_LiteOS/components/security/mbedtls/mbedtls-2.6.0/library\bignum.c ****  *
  11:C:/Users/lenovo/Desktop/liteos/Project2/BearPi_LiteOS/components/security/mbedtls/mbedtls-2.6.0/library\bignum.c ****  *  http://www.apache.org/licenses/LICENSE-2.0
  12:C:/Users/lenovo/Desktop/liteos/Project2/BearPi_LiteOS/components/security/mbedtls/mbedtls-2.6.0/library\bignum.c ****  *
  13:C:/Users/lenovo/Desktop/liteos/Project2/BearPi_LiteOS/components/security/mbedtls/mbedtls-2.6.0/library\bignum.c ****  *  Unless required by applicable law or agreed to in writing, software
  14:C:/Users/lenovo/Desktop/liteos/Project2/BearPi_LiteOS/components/security/mbedtls/mbedtls-2.6.0/library\bignum.c ****  *  distributed under the License is distributed on an "AS IS" BASIS, WITHOUT
  15:C:/Users/lenovo/Desktop/liteos/Project2/BearPi_LiteOS/components/security/mbedtls/mbedtls-2.6.0/library\bignum.c ****  *  WARRANTIES OR CONDITIONS OF ANY KIND, either express or implied.
  16:C:/Users/lenovo/Desktop/liteos/Project2/BearPi_LiteOS/components/security/mbedtls/mbedtls-2.6.0/library\bignum.c ****  *  See the License for the specific language governing permissions and
  17:C:/Users/lenovo/Desktop/liteos/Project2/BearPi_LiteOS/components/security/mbedtls/mbedtls-2.6.0/library\bignum.c ****  *  limitations under the License.
  18:C:/Users/lenovo/Desktop/liteos/Project2/BearPi_LiteOS/components/security/mbedtls/mbedtls-2.6.0/library\bignum.c ****  *
  19:C:/Users/lenovo/Desktop/liteos/Project2/BearPi_LiteOS/components/security/mbedtls/mbedtls-2.6.0/library\bignum.c ****  *  This file is part of mbed TLS (https://tls.mbed.org)
  20:C:/Users/lenovo/Desktop/liteos/Project2/BearPi_LiteOS/components/security/mbedtls/mbedtls-2.6.0/library\bignum.c ****  */
  21:C:/Users/lenovo/Desktop/liteos/Project2/BearPi_LiteOS/components/security/mbedtls/mbedtls-2.6.0/library\bignum.c **** 
  22:C:/Users/lenovo/Desktop/liteos/Project2/BearPi_LiteOS/components/security/mbedtls/mbedtls-2.6.0/library\bignum.c **** /*
  23:C:/Users/lenovo/Desktop/liteos/Project2/BearPi_LiteOS/components/security/mbedtls/mbedtls-2.6.0/library\bignum.c ****  *  The following sources were referenced in the design of this Multi-precision
  24:C:/Users/lenovo/Desktop/liteos/Project2/BearPi_LiteOS/components/security/mbedtls/mbedtls-2.6.0/library\bignum.c ****  *  Integer library:
  25:C:/Users/lenovo/Desktop/liteos/Project2/BearPi_LiteOS/components/security/mbedtls/mbedtls-2.6.0/library\bignum.c ****  *
  26:C:/Users/lenovo/Desktop/liteos/Project2/BearPi_LiteOS/components/security/mbedtls/mbedtls-2.6.0/library\bignum.c ****  *  [1] Handbook of Applied Cryptography - 1997
  27:C:/Users/lenovo/Desktop/liteos/Project2/BearPi_LiteOS/components/security/mbedtls/mbedtls-2.6.0/library\bignum.c ****  *      Menezes, van Oorschot and Vanstone
  28:C:/Users/lenovo/Desktop/liteos/Project2/BearPi_LiteOS/components/security/mbedtls/mbedtls-2.6.0/library\bignum.c ****  *
  29:C:/Users/lenovo/Desktop/liteos/Project2/BearPi_LiteOS/components/security/mbedtls/mbedtls-2.6.0/library\bignum.c ****  *  [2] Multi-Precision Math
  30:C:/Users/lenovo/Desktop/liteos/Project2/BearPi_LiteOS/components/security/mbedtls/mbedtls-2.6.0/library\bignum.c ****  *      Tom St Denis
  31:C:/Users/lenovo/Desktop/liteos/Project2/BearPi_LiteOS/components/security/mbedtls/mbedtls-2.6.0/library\bignum.c ****  *      https://github.com/libtom/libtommath/blob/develop/tommath.pdf
  32:C:/Users/lenovo/Desktop/liteos/Project2/BearPi_LiteOS/components/security/mbedtls/mbedtls-2.6.0/library\bignum.c ****  *
ARM GAS  c:\Users\lenovo\AppData\Local\Temp\ccjcyTZ0.s 			page 2


  33:C:/Users/lenovo/Desktop/liteos/Project2/BearPi_LiteOS/components/security/mbedtls/mbedtls-2.6.0/library\bignum.c ****  *  [3] GNU Multi-Precision Arithmetic Library
  34:C:/Users/lenovo/Desktop/liteos/Project2/BearPi_LiteOS/components/security/mbedtls/mbedtls-2.6.0/library\bignum.c ****  *      https://gmplib.org/manual/index.html
  35:C:/Users/lenovo/Desktop/liteos/Project2/BearPi_LiteOS/components/security/mbedtls/mbedtls-2.6.0/library\bignum.c ****  *
  36:C:/Users/lenovo/Desktop/liteos/Project2/BearPi_LiteOS/components/security/mbedtls/mbedtls-2.6.0/library\bignum.c ****  */
  37:C:/Users/lenovo/Desktop/liteos/Project2/BearPi_LiteOS/components/security/mbedtls/mbedtls-2.6.0/library\bignum.c **** 
  38:C:/Users/lenovo/Desktop/liteos/Project2/BearPi_LiteOS/components/security/mbedtls/mbedtls-2.6.0/library\bignum.c **** #if !defined(MBEDTLS_CONFIG_FILE)
  39:C:/Users/lenovo/Desktop/liteos/Project2/BearPi_LiteOS/components/security/mbedtls/mbedtls-2.6.0/library\bignum.c **** #include "mbedtls/config.h"
  40:C:/Users/lenovo/Desktop/liteos/Project2/BearPi_LiteOS/components/security/mbedtls/mbedtls-2.6.0/library\bignum.c **** #else
  41:C:/Users/lenovo/Desktop/liteos/Project2/BearPi_LiteOS/components/security/mbedtls/mbedtls-2.6.0/library\bignum.c **** #include MBEDTLS_CONFIG_FILE
  42:C:/Users/lenovo/Desktop/liteos/Project2/BearPi_LiteOS/components/security/mbedtls/mbedtls-2.6.0/library\bignum.c **** #endif
  43:C:/Users/lenovo/Desktop/liteos/Project2/BearPi_LiteOS/components/security/mbedtls/mbedtls-2.6.0/library\bignum.c **** 
  44:C:/Users/lenovo/Desktop/liteos/Project2/BearPi_LiteOS/components/security/mbedtls/mbedtls-2.6.0/library\bignum.c **** #if defined(MBEDTLS_BIGNUM_C)
  45:C:/Users/lenovo/Desktop/liteos/Project2/BearPi_LiteOS/components/security/mbedtls/mbedtls-2.6.0/library\bignum.c **** 
  46:C:/Users/lenovo/Desktop/liteos/Project2/BearPi_LiteOS/components/security/mbedtls/mbedtls-2.6.0/library\bignum.c **** #include "mbedtls/bignum.h"
  47:C:/Users/lenovo/Desktop/liteos/Project2/BearPi_LiteOS/components/security/mbedtls/mbedtls-2.6.0/library\bignum.c **** #include "mbedtls/bn_mul.h"
  48:C:/Users/lenovo/Desktop/liteos/Project2/BearPi_LiteOS/components/security/mbedtls/mbedtls-2.6.0/library\bignum.c **** 
  49:C:/Users/lenovo/Desktop/liteos/Project2/BearPi_LiteOS/components/security/mbedtls/mbedtls-2.6.0/library\bignum.c **** #include <string.h>
  50:C:/Users/lenovo/Desktop/liteos/Project2/BearPi_LiteOS/components/security/mbedtls/mbedtls-2.6.0/library\bignum.c **** 
  51:C:/Users/lenovo/Desktop/liteos/Project2/BearPi_LiteOS/components/security/mbedtls/mbedtls-2.6.0/library\bignum.c **** #if defined(MBEDTLS_PLATFORM_C)
  52:C:/Users/lenovo/Desktop/liteos/Project2/BearPi_LiteOS/components/security/mbedtls/mbedtls-2.6.0/library\bignum.c **** #include "mbedtls/platform.h"
  53:C:/Users/lenovo/Desktop/liteos/Project2/BearPi_LiteOS/components/security/mbedtls/mbedtls-2.6.0/library\bignum.c **** #else
  54:C:/Users/lenovo/Desktop/liteos/Project2/BearPi_LiteOS/components/security/mbedtls/mbedtls-2.6.0/library\bignum.c **** #include <stdio.h>
  55:C:/Users/lenovo/Desktop/liteos/Project2/BearPi_LiteOS/components/security/mbedtls/mbedtls-2.6.0/library\bignum.c **** #include <stdlib.h>
  56:C:/Users/lenovo/Desktop/liteos/Project2/BearPi_LiteOS/components/security/mbedtls/mbedtls-2.6.0/library\bignum.c **** #define mbedtls_printf     printf
  57:C:/Users/lenovo/Desktop/liteos/Project2/BearPi_LiteOS/components/security/mbedtls/mbedtls-2.6.0/library\bignum.c **** #define mbedtls_calloc    calloc
  58:C:/Users/lenovo/Desktop/liteos/Project2/BearPi_LiteOS/components/security/mbedtls/mbedtls-2.6.0/library\bignum.c **** #define mbedtls_free       free
  59:C:/Users/lenovo/Desktop/liteos/Project2/BearPi_LiteOS/components/security/mbedtls/mbedtls-2.6.0/library\bignum.c **** #endif
  60:C:/Users/lenovo/Desktop/liteos/Project2/BearPi_LiteOS/components/security/mbedtls/mbedtls-2.6.0/library\bignum.c **** 
  61:C:/Users/lenovo/Desktop/liteos/Project2/BearPi_LiteOS/components/security/mbedtls/mbedtls-2.6.0/library\bignum.c **** /* Implementation that should never be optimized out by the compiler */
  62:C:/Users/lenovo/Desktop/liteos/Project2/BearPi_LiteOS/components/security/mbedtls/mbedtls-2.6.0/library\bignum.c **** static void mbedtls_mpi_zeroize( mbedtls_mpi_uint *v, size_t n ) {
  27              		.loc 1 62 0
  28              		.cfi_startproc
  29              		@ args = 0, pretend = 0, frame = 0
  30              		@ frame_needed = 0, uses_anonymous_args = 0
  31              		@ link register save eliminated.
  32              	.LVL0:
  63:C:/Users/lenovo/Desktop/liteos/Project2/BearPi_LiteOS/components/security/mbedtls/mbedtls-2.6.0/library\bignum.c ****     volatile mbedtls_mpi_uint *p = v; while( n-- ) *p++ = 0;
  33              		.loc 1 63 0
  34 0000 03E0     		b	.L2
  35              	.LVL1:
  36              	.L3:
  37              		.loc 1 63 0 is_stmt 0 discriminator 3
  38 0002 0022     		movs	r2, #0
  39 0004 0260     		str	r2, [r0]
  40 0006 0430     		adds	r0, r0, #4
  41              	.LVL2:
  42 0008 1946     		mov	r1, r3
  43              	.LVL3:
  44              	.L2:
  45              		.loc 1 63 0 discriminator 1
  46 000a 4B1E     		subs	r3, r1, #1
  47              	.LVL4:
  48 000c 0029     		cmp	r1, #0
  49 000e F8D1     		bne	.L3
  64:C:/Users/lenovo/Desktop/liteos/Project2/BearPi_LiteOS/components/security/mbedtls/mbedtls-2.6.0/library\bignum.c **** }
  50              		.loc 1 64 0 is_stmt 1
  51 0010 7047     		bx	lr
ARM GAS  c:\Users\lenovo\AppData\Local\Temp\ccjcyTZ0.s 			page 3


  52              		.cfi_endproc
  53              	.LFE3:
  55              		.section	.text.mbedtls_clz,"ax",%progbits
  56              		.align	1
  57              		.syntax unified
  58              		.thumb
  59              		.thumb_func
  60              		.fpu fpv4-sp-d16
  62              	mbedtls_clz:
  63              	.LFB16:
  65:C:/Users/lenovo/Desktop/liteos/Project2/BearPi_LiteOS/components/security/mbedtls/mbedtls-2.6.0/library\bignum.c **** 
  66:C:/Users/lenovo/Desktop/liteos/Project2/BearPi_LiteOS/components/security/mbedtls/mbedtls-2.6.0/library\bignum.c **** #define ciL    (sizeof(mbedtls_mpi_uint))         /* chars in limb  */
  67:C:/Users/lenovo/Desktop/liteos/Project2/BearPi_LiteOS/components/security/mbedtls/mbedtls-2.6.0/library\bignum.c **** #define biL    (ciL << 3)               /* bits  in limb  */
  68:C:/Users/lenovo/Desktop/liteos/Project2/BearPi_LiteOS/components/security/mbedtls/mbedtls-2.6.0/library\bignum.c **** #define biH    (ciL << 2)               /* half limb size */
  69:C:/Users/lenovo/Desktop/liteos/Project2/BearPi_LiteOS/components/security/mbedtls/mbedtls-2.6.0/library\bignum.c **** 
  70:C:/Users/lenovo/Desktop/liteos/Project2/BearPi_LiteOS/components/security/mbedtls/mbedtls-2.6.0/library\bignum.c **** #define MPI_SIZE_T_MAX  ( (size_t) -1 ) /* SIZE_T_MAX is not standard */
  71:C:/Users/lenovo/Desktop/liteos/Project2/BearPi_LiteOS/components/security/mbedtls/mbedtls-2.6.0/library\bignum.c **** 
  72:C:/Users/lenovo/Desktop/liteos/Project2/BearPi_LiteOS/components/security/mbedtls/mbedtls-2.6.0/library\bignum.c **** /*
  73:C:/Users/lenovo/Desktop/liteos/Project2/BearPi_LiteOS/components/security/mbedtls/mbedtls-2.6.0/library\bignum.c ****  * Convert between bits/chars and number of limbs
  74:C:/Users/lenovo/Desktop/liteos/Project2/BearPi_LiteOS/components/security/mbedtls/mbedtls-2.6.0/library\bignum.c ****  * Divide first in order to avoid potential overflows
  75:C:/Users/lenovo/Desktop/liteos/Project2/BearPi_LiteOS/components/security/mbedtls/mbedtls-2.6.0/library\bignum.c ****  */
  76:C:/Users/lenovo/Desktop/liteos/Project2/BearPi_LiteOS/components/security/mbedtls/mbedtls-2.6.0/library\bignum.c **** #define BITS_TO_LIMBS(i)  ( (i) / biL + ( (i) % biL != 0 ) )
  77:C:/Users/lenovo/Desktop/liteos/Project2/BearPi_LiteOS/components/security/mbedtls/mbedtls-2.6.0/library\bignum.c **** #define CHARS_TO_LIMBS(i) ( (i) / ciL + ( (i) % ciL != 0 ) )
  78:C:/Users/lenovo/Desktop/liteos/Project2/BearPi_LiteOS/components/security/mbedtls/mbedtls-2.6.0/library\bignum.c **** 
  79:C:/Users/lenovo/Desktop/liteos/Project2/BearPi_LiteOS/components/security/mbedtls/mbedtls-2.6.0/library\bignum.c **** /*
  80:C:/Users/lenovo/Desktop/liteos/Project2/BearPi_LiteOS/components/security/mbedtls/mbedtls-2.6.0/library\bignum.c ****  * Initialize one MPI
  81:C:/Users/lenovo/Desktop/liteos/Project2/BearPi_LiteOS/components/security/mbedtls/mbedtls-2.6.0/library\bignum.c ****  */
  82:C:/Users/lenovo/Desktop/liteos/Project2/BearPi_LiteOS/components/security/mbedtls/mbedtls-2.6.0/library\bignum.c **** void mbedtls_mpi_init( mbedtls_mpi *X )
  83:C:/Users/lenovo/Desktop/liteos/Project2/BearPi_LiteOS/components/security/mbedtls/mbedtls-2.6.0/library\bignum.c **** {
  84:C:/Users/lenovo/Desktop/liteos/Project2/BearPi_LiteOS/components/security/mbedtls/mbedtls-2.6.0/library\bignum.c ****     if( X == NULL )
  85:C:/Users/lenovo/Desktop/liteos/Project2/BearPi_LiteOS/components/security/mbedtls/mbedtls-2.6.0/library\bignum.c ****         return;
  86:C:/Users/lenovo/Desktop/liteos/Project2/BearPi_LiteOS/components/security/mbedtls/mbedtls-2.6.0/library\bignum.c **** 
  87:C:/Users/lenovo/Desktop/liteos/Project2/BearPi_LiteOS/components/security/mbedtls/mbedtls-2.6.0/library\bignum.c ****     X->s = 1;
  88:C:/Users/lenovo/Desktop/liteos/Project2/BearPi_LiteOS/components/security/mbedtls/mbedtls-2.6.0/library\bignum.c ****     X->n = 0;
  89:C:/Users/lenovo/Desktop/liteos/Project2/BearPi_LiteOS/components/security/mbedtls/mbedtls-2.6.0/library\bignum.c ****     X->p = NULL;
  90:C:/Users/lenovo/Desktop/liteos/Project2/BearPi_LiteOS/components/security/mbedtls/mbedtls-2.6.0/library\bignum.c **** }
  91:C:/Users/lenovo/Desktop/liteos/Project2/BearPi_LiteOS/components/security/mbedtls/mbedtls-2.6.0/library\bignum.c **** 
  92:C:/Users/lenovo/Desktop/liteos/Project2/BearPi_LiteOS/components/security/mbedtls/mbedtls-2.6.0/library\bignum.c **** /*
  93:C:/Users/lenovo/Desktop/liteos/Project2/BearPi_LiteOS/components/security/mbedtls/mbedtls-2.6.0/library\bignum.c ****  * Unallocate one MPI
  94:C:/Users/lenovo/Desktop/liteos/Project2/BearPi_LiteOS/components/security/mbedtls/mbedtls-2.6.0/library\bignum.c ****  */
  95:C:/Users/lenovo/Desktop/liteos/Project2/BearPi_LiteOS/components/security/mbedtls/mbedtls-2.6.0/library\bignum.c **** void mbedtls_mpi_free( mbedtls_mpi *X )
  96:C:/Users/lenovo/Desktop/liteos/Project2/BearPi_LiteOS/components/security/mbedtls/mbedtls-2.6.0/library\bignum.c **** {
  97:C:/Users/lenovo/Desktop/liteos/Project2/BearPi_LiteOS/components/security/mbedtls/mbedtls-2.6.0/library\bignum.c ****     if( X == NULL )
  98:C:/Users/lenovo/Desktop/liteos/Project2/BearPi_LiteOS/components/security/mbedtls/mbedtls-2.6.0/library\bignum.c ****         return;
  99:C:/Users/lenovo/Desktop/liteos/Project2/BearPi_LiteOS/components/security/mbedtls/mbedtls-2.6.0/library\bignum.c **** 
 100:C:/Users/lenovo/Desktop/liteos/Project2/BearPi_LiteOS/components/security/mbedtls/mbedtls-2.6.0/library\bignum.c ****     if( X->p != NULL )
 101:C:/Users/lenovo/Desktop/liteos/Project2/BearPi_LiteOS/components/security/mbedtls/mbedtls-2.6.0/library\bignum.c ****     {
 102:C:/Users/lenovo/Desktop/liteos/Project2/BearPi_LiteOS/components/security/mbedtls/mbedtls-2.6.0/library\bignum.c ****         mbedtls_mpi_zeroize( X->p, X->n );
 103:C:/Users/lenovo/Desktop/liteos/Project2/BearPi_LiteOS/components/security/mbedtls/mbedtls-2.6.0/library\bignum.c ****         mbedtls_free( X->p );
 104:C:/Users/lenovo/Desktop/liteos/Project2/BearPi_LiteOS/components/security/mbedtls/mbedtls-2.6.0/library\bignum.c ****     }
 105:C:/Users/lenovo/Desktop/liteos/Project2/BearPi_LiteOS/components/security/mbedtls/mbedtls-2.6.0/library\bignum.c **** 
 106:C:/Users/lenovo/Desktop/liteos/Project2/BearPi_LiteOS/components/security/mbedtls/mbedtls-2.6.0/library\bignum.c ****     X->s = 1;
 107:C:/Users/lenovo/Desktop/liteos/Project2/BearPi_LiteOS/components/security/mbedtls/mbedtls-2.6.0/library\bignum.c ****     X->n = 0;
 108:C:/Users/lenovo/Desktop/liteos/Project2/BearPi_LiteOS/components/security/mbedtls/mbedtls-2.6.0/library\bignum.c ****     X->p = NULL;
 109:C:/Users/lenovo/Desktop/liteos/Project2/BearPi_LiteOS/components/security/mbedtls/mbedtls-2.6.0/library\bignum.c **** }
 110:C:/Users/lenovo/Desktop/liteos/Project2/BearPi_LiteOS/components/security/mbedtls/mbedtls-2.6.0/library\bignum.c **** 
 111:C:/Users/lenovo/Desktop/liteos/Project2/BearPi_LiteOS/components/security/mbedtls/mbedtls-2.6.0/library\bignum.c **** /*
ARM GAS  c:\Users\lenovo\AppData\Local\Temp\ccjcyTZ0.s 			page 4


 112:C:/Users/lenovo/Desktop/liteos/Project2/BearPi_LiteOS/components/security/mbedtls/mbedtls-2.6.0/library\bignum.c ****  * Enlarge to the specified number of limbs
 113:C:/Users/lenovo/Desktop/liteos/Project2/BearPi_LiteOS/components/security/mbedtls/mbedtls-2.6.0/library\bignum.c ****  */
 114:C:/Users/lenovo/Desktop/liteos/Project2/BearPi_LiteOS/components/security/mbedtls/mbedtls-2.6.0/library\bignum.c **** int mbedtls_mpi_grow( mbedtls_mpi *X, size_t nblimbs )
 115:C:/Users/lenovo/Desktop/liteos/Project2/BearPi_LiteOS/components/security/mbedtls/mbedtls-2.6.0/library\bignum.c **** {
 116:C:/Users/lenovo/Desktop/liteos/Project2/BearPi_LiteOS/components/security/mbedtls/mbedtls-2.6.0/library\bignum.c ****     mbedtls_mpi_uint *p;
 117:C:/Users/lenovo/Desktop/liteos/Project2/BearPi_LiteOS/components/security/mbedtls/mbedtls-2.6.0/library\bignum.c **** 
 118:C:/Users/lenovo/Desktop/liteos/Project2/BearPi_LiteOS/components/security/mbedtls/mbedtls-2.6.0/library\bignum.c ****     if( nblimbs > MBEDTLS_MPI_MAX_LIMBS )
 119:C:/Users/lenovo/Desktop/liteos/Project2/BearPi_LiteOS/components/security/mbedtls/mbedtls-2.6.0/library\bignum.c ****         return( MBEDTLS_ERR_MPI_ALLOC_FAILED );
 120:C:/Users/lenovo/Desktop/liteos/Project2/BearPi_LiteOS/components/security/mbedtls/mbedtls-2.6.0/library\bignum.c **** 
 121:C:/Users/lenovo/Desktop/liteos/Project2/BearPi_LiteOS/components/security/mbedtls/mbedtls-2.6.0/library\bignum.c ****     if( X->n < nblimbs )
 122:C:/Users/lenovo/Desktop/liteos/Project2/BearPi_LiteOS/components/security/mbedtls/mbedtls-2.6.0/library\bignum.c ****     {
 123:C:/Users/lenovo/Desktop/liteos/Project2/BearPi_LiteOS/components/security/mbedtls/mbedtls-2.6.0/library\bignum.c ****         if( ( p = (mbedtls_mpi_uint*)mbedtls_calloc( nblimbs, ciL ) ) == NULL )
 124:C:/Users/lenovo/Desktop/liteos/Project2/BearPi_LiteOS/components/security/mbedtls/mbedtls-2.6.0/library\bignum.c ****             return( MBEDTLS_ERR_MPI_ALLOC_FAILED );
 125:C:/Users/lenovo/Desktop/liteos/Project2/BearPi_LiteOS/components/security/mbedtls/mbedtls-2.6.0/library\bignum.c **** 
 126:C:/Users/lenovo/Desktop/liteos/Project2/BearPi_LiteOS/components/security/mbedtls/mbedtls-2.6.0/library\bignum.c ****         if( X->p != NULL )
 127:C:/Users/lenovo/Desktop/liteos/Project2/BearPi_LiteOS/components/security/mbedtls/mbedtls-2.6.0/library\bignum.c ****         {
 128:C:/Users/lenovo/Desktop/liteos/Project2/BearPi_LiteOS/components/security/mbedtls/mbedtls-2.6.0/library\bignum.c ****             memcpy( p, X->p, X->n * ciL );
 129:C:/Users/lenovo/Desktop/liteos/Project2/BearPi_LiteOS/components/security/mbedtls/mbedtls-2.6.0/library\bignum.c ****             mbedtls_mpi_zeroize( X->p, X->n );
 130:C:/Users/lenovo/Desktop/liteos/Project2/BearPi_LiteOS/components/security/mbedtls/mbedtls-2.6.0/library\bignum.c ****             mbedtls_free( X->p );
 131:C:/Users/lenovo/Desktop/liteos/Project2/BearPi_LiteOS/components/security/mbedtls/mbedtls-2.6.0/library\bignum.c ****         }
 132:C:/Users/lenovo/Desktop/liteos/Project2/BearPi_LiteOS/components/security/mbedtls/mbedtls-2.6.0/library\bignum.c **** 
 133:C:/Users/lenovo/Desktop/liteos/Project2/BearPi_LiteOS/components/security/mbedtls/mbedtls-2.6.0/library\bignum.c ****         X->n = nblimbs;
 134:C:/Users/lenovo/Desktop/liteos/Project2/BearPi_LiteOS/components/security/mbedtls/mbedtls-2.6.0/library\bignum.c ****         X->p = p;
 135:C:/Users/lenovo/Desktop/liteos/Project2/BearPi_LiteOS/components/security/mbedtls/mbedtls-2.6.0/library\bignum.c ****     }
 136:C:/Users/lenovo/Desktop/liteos/Project2/BearPi_LiteOS/components/security/mbedtls/mbedtls-2.6.0/library\bignum.c **** 
 137:C:/Users/lenovo/Desktop/liteos/Project2/BearPi_LiteOS/components/security/mbedtls/mbedtls-2.6.0/library\bignum.c ****     return( 0 );
 138:C:/Users/lenovo/Desktop/liteos/Project2/BearPi_LiteOS/components/security/mbedtls/mbedtls-2.6.0/library\bignum.c **** }
 139:C:/Users/lenovo/Desktop/liteos/Project2/BearPi_LiteOS/components/security/mbedtls/mbedtls-2.6.0/library\bignum.c **** 
 140:C:/Users/lenovo/Desktop/liteos/Project2/BearPi_LiteOS/components/security/mbedtls/mbedtls-2.6.0/library\bignum.c **** /*
 141:C:/Users/lenovo/Desktop/liteos/Project2/BearPi_LiteOS/components/security/mbedtls/mbedtls-2.6.0/library\bignum.c ****  * Resize down as much as possible,
 142:C:/Users/lenovo/Desktop/liteos/Project2/BearPi_LiteOS/components/security/mbedtls/mbedtls-2.6.0/library\bignum.c ****  * while keeping at least the specified number of limbs
 143:C:/Users/lenovo/Desktop/liteos/Project2/BearPi_LiteOS/components/security/mbedtls/mbedtls-2.6.0/library\bignum.c ****  */
 144:C:/Users/lenovo/Desktop/liteos/Project2/BearPi_LiteOS/components/security/mbedtls/mbedtls-2.6.0/library\bignum.c **** int mbedtls_mpi_shrink( mbedtls_mpi *X, size_t nblimbs )
 145:C:/Users/lenovo/Desktop/liteos/Project2/BearPi_LiteOS/components/security/mbedtls/mbedtls-2.6.0/library\bignum.c **** {
 146:C:/Users/lenovo/Desktop/liteos/Project2/BearPi_LiteOS/components/security/mbedtls/mbedtls-2.6.0/library\bignum.c ****     mbedtls_mpi_uint *p;
 147:C:/Users/lenovo/Desktop/liteos/Project2/BearPi_LiteOS/components/security/mbedtls/mbedtls-2.6.0/library\bignum.c ****     size_t i;
 148:C:/Users/lenovo/Desktop/liteos/Project2/BearPi_LiteOS/components/security/mbedtls/mbedtls-2.6.0/library\bignum.c **** 
 149:C:/Users/lenovo/Desktop/liteos/Project2/BearPi_LiteOS/components/security/mbedtls/mbedtls-2.6.0/library\bignum.c ****     /* Actually resize up in this case */
 150:C:/Users/lenovo/Desktop/liteos/Project2/BearPi_LiteOS/components/security/mbedtls/mbedtls-2.6.0/library\bignum.c ****     if( X->n <= nblimbs )
 151:C:/Users/lenovo/Desktop/liteos/Project2/BearPi_LiteOS/components/security/mbedtls/mbedtls-2.6.0/library\bignum.c ****         return( mbedtls_mpi_grow( X, nblimbs ) );
 152:C:/Users/lenovo/Desktop/liteos/Project2/BearPi_LiteOS/components/security/mbedtls/mbedtls-2.6.0/library\bignum.c **** 
 153:C:/Users/lenovo/Desktop/liteos/Project2/BearPi_LiteOS/components/security/mbedtls/mbedtls-2.6.0/library\bignum.c ****     for( i = X->n - 1; i > 0; i-- )
 154:C:/Users/lenovo/Desktop/liteos/Project2/BearPi_LiteOS/components/security/mbedtls/mbedtls-2.6.0/library\bignum.c ****         if( X->p[i] != 0 )
 155:C:/Users/lenovo/Desktop/liteos/Project2/BearPi_LiteOS/components/security/mbedtls/mbedtls-2.6.0/library\bignum.c ****             break;
 156:C:/Users/lenovo/Desktop/liteos/Project2/BearPi_LiteOS/components/security/mbedtls/mbedtls-2.6.0/library\bignum.c ****     i++;
 157:C:/Users/lenovo/Desktop/liteos/Project2/BearPi_LiteOS/components/security/mbedtls/mbedtls-2.6.0/library\bignum.c **** 
 158:C:/Users/lenovo/Desktop/liteos/Project2/BearPi_LiteOS/components/security/mbedtls/mbedtls-2.6.0/library\bignum.c ****     if( i < nblimbs )
 159:C:/Users/lenovo/Desktop/liteos/Project2/BearPi_LiteOS/components/security/mbedtls/mbedtls-2.6.0/library\bignum.c ****         i = nblimbs;
 160:C:/Users/lenovo/Desktop/liteos/Project2/BearPi_LiteOS/components/security/mbedtls/mbedtls-2.6.0/library\bignum.c **** 
 161:C:/Users/lenovo/Desktop/liteos/Project2/BearPi_LiteOS/components/security/mbedtls/mbedtls-2.6.0/library\bignum.c ****     if( ( p = (mbedtls_mpi_uint*)mbedtls_calloc( i, ciL ) ) == NULL )
 162:C:/Users/lenovo/Desktop/liteos/Project2/BearPi_LiteOS/components/security/mbedtls/mbedtls-2.6.0/library\bignum.c ****         return( MBEDTLS_ERR_MPI_ALLOC_FAILED );
 163:C:/Users/lenovo/Desktop/liteos/Project2/BearPi_LiteOS/components/security/mbedtls/mbedtls-2.6.0/library\bignum.c **** 
 164:C:/Users/lenovo/Desktop/liteos/Project2/BearPi_LiteOS/components/security/mbedtls/mbedtls-2.6.0/library\bignum.c ****     if( X->p != NULL )
 165:C:/Users/lenovo/Desktop/liteos/Project2/BearPi_LiteOS/components/security/mbedtls/mbedtls-2.6.0/library\bignum.c ****     {
 166:C:/Users/lenovo/Desktop/liteos/Project2/BearPi_LiteOS/components/security/mbedtls/mbedtls-2.6.0/library\bignum.c ****         memcpy( p, X->p, i * ciL );
 167:C:/Users/lenovo/Desktop/liteos/Project2/BearPi_LiteOS/components/security/mbedtls/mbedtls-2.6.0/library\bignum.c ****         mbedtls_mpi_zeroize( X->p, X->n );
 168:C:/Users/lenovo/Desktop/liteos/Project2/BearPi_LiteOS/components/security/mbedtls/mbedtls-2.6.0/library\bignum.c ****         mbedtls_free( X->p );
ARM GAS  c:\Users\lenovo\AppData\Local\Temp\ccjcyTZ0.s 			page 5


 169:C:/Users/lenovo/Desktop/liteos/Project2/BearPi_LiteOS/components/security/mbedtls/mbedtls-2.6.0/library\bignum.c ****     }
 170:C:/Users/lenovo/Desktop/liteos/Project2/BearPi_LiteOS/components/security/mbedtls/mbedtls-2.6.0/library\bignum.c **** 
 171:C:/Users/lenovo/Desktop/liteos/Project2/BearPi_LiteOS/components/security/mbedtls/mbedtls-2.6.0/library\bignum.c ****     X->n = i;
 172:C:/Users/lenovo/Desktop/liteos/Project2/BearPi_LiteOS/components/security/mbedtls/mbedtls-2.6.0/library\bignum.c ****     X->p = p;
 173:C:/Users/lenovo/Desktop/liteos/Project2/BearPi_LiteOS/components/security/mbedtls/mbedtls-2.6.0/library\bignum.c **** 
 174:C:/Users/lenovo/Desktop/liteos/Project2/BearPi_LiteOS/components/security/mbedtls/mbedtls-2.6.0/library\bignum.c ****     return( 0 );
 175:C:/Users/lenovo/Desktop/liteos/Project2/BearPi_LiteOS/components/security/mbedtls/mbedtls-2.6.0/library\bignum.c **** }
 176:C:/Users/lenovo/Desktop/liteos/Project2/BearPi_LiteOS/components/security/mbedtls/mbedtls-2.6.0/library\bignum.c **** 
 177:C:/Users/lenovo/Desktop/liteos/Project2/BearPi_LiteOS/components/security/mbedtls/mbedtls-2.6.0/library\bignum.c **** /*
 178:C:/Users/lenovo/Desktop/liteos/Project2/BearPi_LiteOS/components/security/mbedtls/mbedtls-2.6.0/library\bignum.c ****  * Copy the contents of Y into X
 179:C:/Users/lenovo/Desktop/liteos/Project2/BearPi_LiteOS/components/security/mbedtls/mbedtls-2.6.0/library\bignum.c ****  */
 180:C:/Users/lenovo/Desktop/liteos/Project2/BearPi_LiteOS/components/security/mbedtls/mbedtls-2.6.0/library\bignum.c **** int mbedtls_mpi_copy( mbedtls_mpi *X, const mbedtls_mpi *Y )
 181:C:/Users/lenovo/Desktop/liteos/Project2/BearPi_LiteOS/components/security/mbedtls/mbedtls-2.6.0/library\bignum.c **** {
 182:C:/Users/lenovo/Desktop/liteos/Project2/BearPi_LiteOS/components/security/mbedtls/mbedtls-2.6.0/library\bignum.c ****     int ret;
 183:C:/Users/lenovo/Desktop/liteos/Project2/BearPi_LiteOS/components/security/mbedtls/mbedtls-2.6.0/library\bignum.c ****     size_t i;
 184:C:/Users/lenovo/Desktop/liteos/Project2/BearPi_LiteOS/components/security/mbedtls/mbedtls-2.6.0/library\bignum.c **** 
 185:C:/Users/lenovo/Desktop/liteos/Project2/BearPi_LiteOS/components/security/mbedtls/mbedtls-2.6.0/library\bignum.c ****     if( X == Y )
 186:C:/Users/lenovo/Desktop/liteos/Project2/BearPi_LiteOS/components/security/mbedtls/mbedtls-2.6.0/library\bignum.c ****         return( 0 );
 187:C:/Users/lenovo/Desktop/liteos/Project2/BearPi_LiteOS/components/security/mbedtls/mbedtls-2.6.0/library\bignum.c **** 
 188:C:/Users/lenovo/Desktop/liteos/Project2/BearPi_LiteOS/components/security/mbedtls/mbedtls-2.6.0/library\bignum.c ****     if( Y->p == NULL )
 189:C:/Users/lenovo/Desktop/liteos/Project2/BearPi_LiteOS/components/security/mbedtls/mbedtls-2.6.0/library\bignum.c ****     {
 190:C:/Users/lenovo/Desktop/liteos/Project2/BearPi_LiteOS/components/security/mbedtls/mbedtls-2.6.0/library\bignum.c ****         mbedtls_mpi_free( X );
 191:C:/Users/lenovo/Desktop/liteos/Project2/BearPi_LiteOS/components/security/mbedtls/mbedtls-2.6.0/library\bignum.c ****         return( 0 );
 192:C:/Users/lenovo/Desktop/liteos/Project2/BearPi_LiteOS/components/security/mbedtls/mbedtls-2.6.0/library\bignum.c ****     }
 193:C:/Users/lenovo/Desktop/liteos/Project2/BearPi_LiteOS/components/security/mbedtls/mbedtls-2.6.0/library\bignum.c **** 
 194:C:/Users/lenovo/Desktop/liteos/Project2/BearPi_LiteOS/components/security/mbedtls/mbedtls-2.6.0/library\bignum.c ****     for( i = Y->n - 1; i > 0; i-- )
 195:C:/Users/lenovo/Desktop/liteos/Project2/BearPi_LiteOS/components/security/mbedtls/mbedtls-2.6.0/library\bignum.c ****         if( Y->p[i] != 0 )
 196:C:/Users/lenovo/Desktop/liteos/Project2/BearPi_LiteOS/components/security/mbedtls/mbedtls-2.6.0/library\bignum.c ****             break;
 197:C:/Users/lenovo/Desktop/liteos/Project2/BearPi_LiteOS/components/security/mbedtls/mbedtls-2.6.0/library\bignum.c ****     i++;
 198:C:/Users/lenovo/Desktop/liteos/Project2/BearPi_LiteOS/components/security/mbedtls/mbedtls-2.6.0/library\bignum.c **** 
 199:C:/Users/lenovo/Desktop/liteos/Project2/BearPi_LiteOS/components/security/mbedtls/mbedtls-2.6.0/library\bignum.c ****     X->s = Y->s;
 200:C:/Users/lenovo/Desktop/liteos/Project2/BearPi_LiteOS/components/security/mbedtls/mbedtls-2.6.0/library\bignum.c **** 
 201:C:/Users/lenovo/Desktop/liteos/Project2/BearPi_LiteOS/components/security/mbedtls/mbedtls-2.6.0/library\bignum.c ****     MBEDTLS_MPI_CHK( mbedtls_mpi_grow( X, i ) );
 202:C:/Users/lenovo/Desktop/liteos/Project2/BearPi_LiteOS/components/security/mbedtls/mbedtls-2.6.0/library\bignum.c **** 
 203:C:/Users/lenovo/Desktop/liteos/Project2/BearPi_LiteOS/components/security/mbedtls/mbedtls-2.6.0/library\bignum.c ****     memset( X->p, 0, X->n * ciL );
 204:C:/Users/lenovo/Desktop/liteos/Project2/BearPi_LiteOS/components/security/mbedtls/mbedtls-2.6.0/library\bignum.c ****     memcpy( X->p, Y->p, i * ciL );
 205:C:/Users/lenovo/Desktop/liteos/Project2/BearPi_LiteOS/components/security/mbedtls/mbedtls-2.6.0/library\bignum.c **** 
 206:C:/Users/lenovo/Desktop/liteos/Project2/BearPi_LiteOS/components/security/mbedtls/mbedtls-2.6.0/library\bignum.c **** cleanup:
 207:C:/Users/lenovo/Desktop/liteos/Project2/BearPi_LiteOS/components/security/mbedtls/mbedtls-2.6.0/library\bignum.c **** 
 208:C:/Users/lenovo/Desktop/liteos/Project2/BearPi_LiteOS/components/security/mbedtls/mbedtls-2.6.0/library\bignum.c ****     return( ret );
 209:C:/Users/lenovo/Desktop/liteos/Project2/BearPi_LiteOS/components/security/mbedtls/mbedtls-2.6.0/library\bignum.c **** }
 210:C:/Users/lenovo/Desktop/liteos/Project2/BearPi_LiteOS/components/security/mbedtls/mbedtls-2.6.0/library\bignum.c **** 
 211:C:/Users/lenovo/Desktop/liteos/Project2/BearPi_LiteOS/components/security/mbedtls/mbedtls-2.6.0/library\bignum.c **** /*
 212:C:/Users/lenovo/Desktop/liteos/Project2/BearPi_LiteOS/components/security/mbedtls/mbedtls-2.6.0/library\bignum.c ****  * Swap the contents of X and Y
 213:C:/Users/lenovo/Desktop/liteos/Project2/BearPi_LiteOS/components/security/mbedtls/mbedtls-2.6.0/library\bignum.c ****  */
 214:C:/Users/lenovo/Desktop/liteos/Project2/BearPi_LiteOS/components/security/mbedtls/mbedtls-2.6.0/library\bignum.c **** void mbedtls_mpi_swap( mbedtls_mpi *X, mbedtls_mpi *Y )
 215:C:/Users/lenovo/Desktop/liteos/Project2/BearPi_LiteOS/components/security/mbedtls/mbedtls-2.6.0/library\bignum.c **** {
 216:C:/Users/lenovo/Desktop/liteos/Project2/BearPi_LiteOS/components/security/mbedtls/mbedtls-2.6.0/library\bignum.c ****     mbedtls_mpi T;
 217:C:/Users/lenovo/Desktop/liteos/Project2/BearPi_LiteOS/components/security/mbedtls/mbedtls-2.6.0/library\bignum.c **** 
 218:C:/Users/lenovo/Desktop/liteos/Project2/BearPi_LiteOS/components/security/mbedtls/mbedtls-2.6.0/library\bignum.c ****     memcpy( &T,  X, sizeof( mbedtls_mpi ) );
 219:C:/Users/lenovo/Desktop/liteos/Project2/BearPi_LiteOS/components/security/mbedtls/mbedtls-2.6.0/library\bignum.c ****     memcpy(  X,  Y, sizeof( mbedtls_mpi ) );
 220:C:/Users/lenovo/Desktop/liteos/Project2/BearPi_LiteOS/components/security/mbedtls/mbedtls-2.6.0/library\bignum.c ****     memcpy(  Y, &T, sizeof( mbedtls_mpi ) );
 221:C:/Users/lenovo/Desktop/liteos/Project2/BearPi_LiteOS/components/security/mbedtls/mbedtls-2.6.0/library\bignum.c **** }
 222:C:/Users/lenovo/Desktop/liteos/Project2/BearPi_LiteOS/components/security/mbedtls/mbedtls-2.6.0/library\bignum.c **** 
 223:C:/Users/lenovo/Desktop/liteos/Project2/BearPi_LiteOS/components/security/mbedtls/mbedtls-2.6.0/library\bignum.c **** /*
 224:C:/Users/lenovo/Desktop/liteos/Project2/BearPi_LiteOS/components/security/mbedtls/mbedtls-2.6.0/library\bignum.c ****  * Conditionally assign X = Y, without leaking information
 225:C:/Users/lenovo/Desktop/liteos/Project2/BearPi_LiteOS/components/security/mbedtls/mbedtls-2.6.0/library\bignum.c ****  * about whether the assignment was made or not.
ARM GAS  c:\Users\lenovo\AppData\Local\Temp\ccjcyTZ0.s 			page 6


 226:C:/Users/lenovo/Desktop/liteos/Project2/BearPi_LiteOS/components/security/mbedtls/mbedtls-2.6.0/library\bignum.c ****  * (Leaking information about the respective sizes of X and Y is ok however.)
 227:C:/Users/lenovo/Desktop/liteos/Project2/BearPi_LiteOS/components/security/mbedtls/mbedtls-2.6.0/library\bignum.c ****  */
 228:C:/Users/lenovo/Desktop/liteos/Project2/BearPi_LiteOS/components/security/mbedtls/mbedtls-2.6.0/library\bignum.c **** int mbedtls_mpi_safe_cond_assign( mbedtls_mpi *X, const mbedtls_mpi *Y, unsigned char assign )
 229:C:/Users/lenovo/Desktop/liteos/Project2/BearPi_LiteOS/components/security/mbedtls/mbedtls-2.6.0/library\bignum.c **** {
 230:C:/Users/lenovo/Desktop/liteos/Project2/BearPi_LiteOS/components/security/mbedtls/mbedtls-2.6.0/library\bignum.c ****     int ret = 0;
 231:C:/Users/lenovo/Desktop/liteos/Project2/BearPi_LiteOS/components/security/mbedtls/mbedtls-2.6.0/library\bignum.c ****     size_t i;
 232:C:/Users/lenovo/Desktop/liteos/Project2/BearPi_LiteOS/components/security/mbedtls/mbedtls-2.6.0/library\bignum.c **** 
 233:C:/Users/lenovo/Desktop/liteos/Project2/BearPi_LiteOS/components/security/mbedtls/mbedtls-2.6.0/library\bignum.c ****     /* make sure assign is 0 or 1 in a time-constant manner */
 234:C:/Users/lenovo/Desktop/liteos/Project2/BearPi_LiteOS/components/security/mbedtls/mbedtls-2.6.0/library\bignum.c ****     assign = (assign | (unsigned char)-assign) >> 7;
 235:C:/Users/lenovo/Desktop/liteos/Project2/BearPi_LiteOS/components/security/mbedtls/mbedtls-2.6.0/library\bignum.c **** 
 236:C:/Users/lenovo/Desktop/liteos/Project2/BearPi_LiteOS/components/security/mbedtls/mbedtls-2.6.0/library\bignum.c ****     MBEDTLS_MPI_CHK( mbedtls_mpi_grow( X, Y->n ) );
 237:C:/Users/lenovo/Desktop/liteos/Project2/BearPi_LiteOS/components/security/mbedtls/mbedtls-2.6.0/library\bignum.c **** 
 238:C:/Users/lenovo/Desktop/liteos/Project2/BearPi_LiteOS/components/security/mbedtls/mbedtls-2.6.0/library\bignum.c ****     X->s = X->s * ( 1 - assign ) + Y->s * assign;
 239:C:/Users/lenovo/Desktop/liteos/Project2/BearPi_LiteOS/components/security/mbedtls/mbedtls-2.6.0/library\bignum.c **** 
 240:C:/Users/lenovo/Desktop/liteos/Project2/BearPi_LiteOS/components/security/mbedtls/mbedtls-2.6.0/library\bignum.c ****     for( i = 0; i < Y->n; i++ )
 241:C:/Users/lenovo/Desktop/liteos/Project2/BearPi_LiteOS/components/security/mbedtls/mbedtls-2.6.0/library\bignum.c ****         X->p[i] = X->p[i] * ( 1 - assign ) + Y->p[i] * assign;
 242:C:/Users/lenovo/Desktop/liteos/Project2/BearPi_LiteOS/components/security/mbedtls/mbedtls-2.6.0/library\bignum.c **** 
 243:C:/Users/lenovo/Desktop/liteos/Project2/BearPi_LiteOS/components/security/mbedtls/mbedtls-2.6.0/library\bignum.c ****     for( ; i < X->n; i++ )
 244:C:/Users/lenovo/Desktop/liteos/Project2/BearPi_LiteOS/components/security/mbedtls/mbedtls-2.6.0/library\bignum.c ****         X->p[i] *= ( 1 - assign );
 245:C:/Users/lenovo/Desktop/liteos/Project2/BearPi_LiteOS/components/security/mbedtls/mbedtls-2.6.0/library\bignum.c **** 
 246:C:/Users/lenovo/Desktop/liteos/Project2/BearPi_LiteOS/components/security/mbedtls/mbedtls-2.6.0/library\bignum.c **** cleanup:
 247:C:/Users/lenovo/Desktop/liteos/Project2/BearPi_LiteOS/components/security/mbedtls/mbedtls-2.6.0/library\bignum.c ****     return( ret );
 248:C:/Users/lenovo/Desktop/liteos/Project2/BearPi_LiteOS/components/security/mbedtls/mbedtls-2.6.0/library\bignum.c **** }
 249:C:/Users/lenovo/Desktop/liteos/Project2/BearPi_LiteOS/components/security/mbedtls/mbedtls-2.6.0/library\bignum.c **** 
 250:C:/Users/lenovo/Desktop/liteos/Project2/BearPi_LiteOS/components/security/mbedtls/mbedtls-2.6.0/library\bignum.c **** /*
 251:C:/Users/lenovo/Desktop/liteos/Project2/BearPi_LiteOS/components/security/mbedtls/mbedtls-2.6.0/library\bignum.c ****  * Conditionally swap X and Y, without leaking information
 252:C:/Users/lenovo/Desktop/liteos/Project2/BearPi_LiteOS/components/security/mbedtls/mbedtls-2.6.0/library\bignum.c ****  * about whether the swap was made or not.
 253:C:/Users/lenovo/Desktop/liteos/Project2/BearPi_LiteOS/components/security/mbedtls/mbedtls-2.6.0/library\bignum.c ****  * Here it is not ok to simply swap the pointers, which whould lead to
 254:C:/Users/lenovo/Desktop/liteos/Project2/BearPi_LiteOS/components/security/mbedtls/mbedtls-2.6.0/library\bignum.c ****  * different memory access patterns when X and Y are used afterwards.
 255:C:/Users/lenovo/Desktop/liteos/Project2/BearPi_LiteOS/components/security/mbedtls/mbedtls-2.6.0/library\bignum.c ****  */
 256:C:/Users/lenovo/Desktop/liteos/Project2/BearPi_LiteOS/components/security/mbedtls/mbedtls-2.6.0/library\bignum.c **** int mbedtls_mpi_safe_cond_swap( mbedtls_mpi *X, mbedtls_mpi *Y, unsigned char swap )
 257:C:/Users/lenovo/Desktop/liteos/Project2/BearPi_LiteOS/components/security/mbedtls/mbedtls-2.6.0/library\bignum.c **** {
 258:C:/Users/lenovo/Desktop/liteos/Project2/BearPi_LiteOS/components/security/mbedtls/mbedtls-2.6.0/library\bignum.c ****     int ret, s;
 259:C:/Users/lenovo/Desktop/liteos/Project2/BearPi_LiteOS/components/security/mbedtls/mbedtls-2.6.0/library\bignum.c ****     size_t i;
 260:C:/Users/lenovo/Desktop/liteos/Project2/BearPi_LiteOS/components/security/mbedtls/mbedtls-2.6.0/library\bignum.c ****     mbedtls_mpi_uint tmp;
 261:C:/Users/lenovo/Desktop/liteos/Project2/BearPi_LiteOS/components/security/mbedtls/mbedtls-2.6.0/library\bignum.c **** 
 262:C:/Users/lenovo/Desktop/liteos/Project2/BearPi_LiteOS/components/security/mbedtls/mbedtls-2.6.0/library\bignum.c ****     if( X == Y )
 263:C:/Users/lenovo/Desktop/liteos/Project2/BearPi_LiteOS/components/security/mbedtls/mbedtls-2.6.0/library\bignum.c ****         return( 0 );
 264:C:/Users/lenovo/Desktop/liteos/Project2/BearPi_LiteOS/components/security/mbedtls/mbedtls-2.6.0/library\bignum.c **** 
 265:C:/Users/lenovo/Desktop/liteos/Project2/BearPi_LiteOS/components/security/mbedtls/mbedtls-2.6.0/library\bignum.c ****     /* make sure swap is 0 or 1 in a time-constant manner */
 266:C:/Users/lenovo/Desktop/liteos/Project2/BearPi_LiteOS/components/security/mbedtls/mbedtls-2.6.0/library\bignum.c ****     swap = (swap | (unsigned char)-swap) >> 7;
 267:C:/Users/lenovo/Desktop/liteos/Project2/BearPi_LiteOS/components/security/mbedtls/mbedtls-2.6.0/library\bignum.c **** 
 268:C:/Users/lenovo/Desktop/liteos/Project2/BearPi_LiteOS/components/security/mbedtls/mbedtls-2.6.0/library\bignum.c ****     MBEDTLS_MPI_CHK( mbedtls_mpi_grow( X, Y->n ) );
 269:C:/Users/lenovo/Desktop/liteos/Project2/BearPi_LiteOS/components/security/mbedtls/mbedtls-2.6.0/library\bignum.c ****     MBEDTLS_MPI_CHK( mbedtls_mpi_grow( Y, X->n ) );
 270:C:/Users/lenovo/Desktop/liteos/Project2/BearPi_LiteOS/components/security/mbedtls/mbedtls-2.6.0/library\bignum.c **** 
 271:C:/Users/lenovo/Desktop/liteos/Project2/BearPi_LiteOS/components/security/mbedtls/mbedtls-2.6.0/library\bignum.c ****     s = X->s;
 272:C:/Users/lenovo/Desktop/liteos/Project2/BearPi_LiteOS/components/security/mbedtls/mbedtls-2.6.0/library\bignum.c ****     X->s = X->s * ( 1 - swap ) + Y->s * swap;
 273:C:/Users/lenovo/Desktop/liteos/Project2/BearPi_LiteOS/components/security/mbedtls/mbedtls-2.6.0/library\bignum.c ****     Y->s = Y->s * ( 1 - swap ) +    s * swap;
 274:C:/Users/lenovo/Desktop/liteos/Project2/BearPi_LiteOS/components/security/mbedtls/mbedtls-2.6.0/library\bignum.c **** 
 275:C:/Users/lenovo/Desktop/liteos/Project2/BearPi_LiteOS/components/security/mbedtls/mbedtls-2.6.0/library\bignum.c **** 
 276:C:/Users/lenovo/Desktop/liteos/Project2/BearPi_LiteOS/components/security/mbedtls/mbedtls-2.6.0/library\bignum.c ****     for( i = 0; i < X->n; i++ )
 277:C:/Users/lenovo/Desktop/liteos/Project2/BearPi_LiteOS/components/security/mbedtls/mbedtls-2.6.0/library\bignum.c ****     {
 278:C:/Users/lenovo/Desktop/liteos/Project2/BearPi_LiteOS/components/security/mbedtls/mbedtls-2.6.0/library\bignum.c ****         tmp = X->p[i];
 279:C:/Users/lenovo/Desktop/liteos/Project2/BearPi_LiteOS/components/security/mbedtls/mbedtls-2.6.0/library\bignum.c ****         X->p[i] = X->p[i] * ( 1 - swap ) + Y->p[i] * swap;
 280:C:/Users/lenovo/Desktop/liteos/Project2/BearPi_LiteOS/components/security/mbedtls/mbedtls-2.6.0/library\bignum.c ****         Y->p[i] = Y->p[i] * ( 1 - swap ) +     tmp * swap;
 281:C:/Users/lenovo/Desktop/liteos/Project2/BearPi_LiteOS/components/security/mbedtls/mbedtls-2.6.0/library\bignum.c ****     }
 282:C:/Users/lenovo/Desktop/liteos/Project2/BearPi_LiteOS/components/security/mbedtls/mbedtls-2.6.0/library\bignum.c **** 
ARM GAS  c:\Users\lenovo\AppData\Local\Temp\ccjcyTZ0.s 			page 7


 283:C:/Users/lenovo/Desktop/liteos/Project2/BearPi_LiteOS/components/security/mbedtls/mbedtls-2.6.0/library\bignum.c **** cleanup:
 284:C:/Users/lenovo/Desktop/liteos/Project2/BearPi_LiteOS/components/security/mbedtls/mbedtls-2.6.0/library\bignum.c ****     return( ret );
 285:C:/Users/lenovo/Desktop/liteos/Project2/BearPi_LiteOS/components/security/mbedtls/mbedtls-2.6.0/library\bignum.c **** }
 286:C:/Users/lenovo/Desktop/liteos/Project2/BearPi_LiteOS/components/security/mbedtls/mbedtls-2.6.0/library\bignum.c **** 
 287:C:/Users/lenovo/Desktop/liteos/Project2/BearPi_LiteOS/components/security/mbedtls/mbedtls-2.6.0/library\bignum.c **** /*
 288:C:/Users/lenovo/Desktop/liteos/Project2/BearPi_LiteOS/components/security/mbedtls/mbedtls-2.6.0/library\bignum.c ****  * Set value from integer
 289:C:/Users/lenovo/Desktop/liteos/Project2/BearPi_LiteOS/components/security/mbedtls/mbedtls-2.6.0/library\bignum.c ****  */
 290:C:/Users/lenovo/Desktop/liteos/Project2/BearPi_LiteOS/components/security/mbedtls/mbedtls-2.6.0/library\bignum.c **** int mbedtls_mpi_lset( mbedtls_mpi *X, mbedtls_mpi_sint z )
 291:C:/Users/lenovo/Desktop/liteos/Project2/BearPi_LiteOS/components/security/mbedtls/mbedtls-2.6.0/library\bignum.c **** {
 292:C:/Users/lenovo/Desktop/liteos/Project2/BearPi_LiteOS/components/security/mbedtls/mbedtls-2.6.0/library\bignum.c ****     int ret;
 293:C:/Users/lenovo/Desktop/liteos/Project2/BearPi_LiteOS/components/security/mbedtls/mbedtls-2.6.0/library\bignum.c **** 
 294:C:/Users/lenovo/Desktop/liteos/Project2/BearPi_LiteOS/components/security/mbedtls/mbedtls-2.6.0/library\bignum.c ****     MBEDTLS_MPI_CHK( mbedtls_mpi_grow( X, 1 ) );
 295:C:/Users/lenovo/Desktop/liteos/Project2/BearPi_LiteOS/components/security/mbedtls/mbedtls-2.6.0/library\bignum.c ****     memset( X->p, 0, X->n * ciL );
 296:C:/Users/lenovo/Desktop/liteos/Project2/BearPi_LiteOS/components/security/mbedtls/mbedtls-2.6.0/library\bignum.c **** 
 297:C:/Users/lenovo/Desktop/liteos/Project2/BearPi_LiteOS/components/security/mbedtls/mbedtls-2.6.0/library\bignum.c ****     X->p[0] = ( z < 0 ) ? -z : z;
 298:C:/Users/lenovo/Desktop/liteos/Project2/BearPi_LiteOS/components/security/mbedtls/mbedtls-2.6.0/library\bignum.c ****     X->s    = ( z < 0 ) ? -1 : 1;
 299:C:/Users/lenovo/Desktop/liteos/Project2/BearPi_LiteOS/components/security/mbedtls/mbedtls-2.6.0/library\bignum.c **** 
 300:C:/Users/lenovo/Desktop/liteos/Project2/BearPi_LiteOS/components/security/mbedtls/mbedtls-2.6.0/library\bignum.c **** cleanup:
 301:C:/Users/lenovo/Desktop/liteos/Project2/BearPi_LiteOS/components/security/mbedtls/mbedtls-2.6.0/library\bignum.c **** 
 302:C:/Users/lenovo/Desktop/liteos/Project2/BearPi_LiteOS/components/security/mbedtls/mbedtls-2.6.0/library\bignum.c ****     return( ret );
 303:C:/Users/lenovo/Desktop/liteos/Project2/BearPi_LiteOS/components/security/mbedtls/mbedtls-2.6.0/library\bignum.c **** }
 304:C:/Users/lenovo/Desktop/liteos/Project2/BearPi_LiteOS/components/security/mbedtls/mbedtls-2.6.0/library\bignum.c **** 
 305:C:/Users/lenovo/Desktop/liteos/Project2/BearPi_LiteOS/components/security/mbedtls/mbedtls-2.6.0/library\bignum.c **** /*
 306:C:/Users/lenovo/Desktop/liteos/Project2/BearPi_LiteOS/components/security/mbedtls/mbedtls-2.6.0/library\bignum.c ****  * Get a specific bit
 307:C:/Users/lenovo/Desktop/liteos/Project2/BearPi_LiteOS/components/security/mbedtls/mbedtls-2.6.0/library\bignum.c ****  */
 308:C:/Users/lenovo/Desktop/liteos/Project2/BearPi_LiteOS/components/security/mbedtls/mbedtls-2.6.0/library\bignum.c **** int mbedtls_mpi_get_bit( const mbedtls_mpi *X, size_t pos )
 309:C:/Users/lenovo/Desktop/liteos/Project2/BearPi_LiteOS/components/security/mbedtls/mbedtls-2.6.0/library\bignum.c **** {
 310:C:/Users/lenovo/Desktop/liteos/Project2/BearPi_LiteOS/components/security/mbedtls/mbedtls-2.6.0/library\bignum.c ****     if( X->n * biL <= pos )
 311:C:/Users/lenovo/Desktop/liteos/Project2/BearPi_LiteOS/components/security/mbedtls/mbedtls-2.6.0/library\bignum.c ****         return( 0 );
 312:C:/Users/lenovo/Desktop/liteos/Project2/BearPi_LiteOS/components/security/mbedtls/mbedtls-2.6.0/library\bignum.c **** 
 313:C:/Users/lenovo/Desktop/liteos/Project2/BearPi_LiteOS/components/security/mbedtls/mbedtls-2.6.0/library\bignum.c ****     return( ( X->p[pos / biL] >> ( pos % biL ) ) & 0x01 );
 314:C:/Users/lenovo/Desktop/liteos/Project2/BearPi_LiteOS/components/security/mbedtls/mbedtls-2.6.0/library\bignum.c **** }
 315:C:/Users/lenovo/Desktop/liteos/Project2/BearPi_LiteOS/components/security/mbedtls/mbedtls-2.6.0/library\bignum.c **** 
 316:C:/Users/lenovo/Desktop/liteos/Project2/BearPi_LiteOS/components/security/mbedtls/mbedtls-2.6.0/library\bignum.c **** /*
 317:C:/Users/lenovo/Desktop/liteos/Project2/BearPi_LiteOS/components/security/mbedtls/mbedtls-2.6.0/library\bignum.c ****  * Set a bit to a specific value of 0 or 1
 318:C:/Users/lenovo/Desktop/liteos/Project2/BearPi_LiteOS/components/security/mbedtls/mbedtls-2.6.0/library\bignum.c ****  */
 319:C:/Users/lenovo/Desktop/liteos/Project2/BearPi_LiteOS/components/security/mbedtls/mbedtls-2.6.0/library\bignum.c **** int mbedtls_mpi_set_bit( mbedtls_mpi *X, size_t pos, unsigned char val )
 320:C:/Users/lenovo/Desktop/liteos/Project2/BearPi_LiteOS/components/security/mbedtls/mbedtls-2.6.0/library\bignum.c **** {
 321:C:/Users/lenovo/Desktop/liteos/Project2/BearPi_LiteOS/components/security/mbedtls/mbedtls-2.6.0/library\bignum.c ****     int ret = 0;
 322:C:/Users/lenovo/Desktop/liteos/Project2/BearPi_LiteOS/components/security/mbedtls/mbedtls-2.6.0/library\bignum.c ****     size_t off = pos / biL;
 323:C:/Users/lenovo/Desktop/liteos/Project2/BearPi_LiteOS/components/security/mbedtls/mbedtls-2.6.0/library\bignum.c ****     size_t idx = pos % biL;
 324:C:/Users/lenovo/Desktop/liteos/Project2/BearPi_LiteOS/components/security/mbedtls/mbedtls-2.6.0/library\bignum.c **** 
 325:C:/Users/lenovo/Desktop/liteos/Project2/BearPi_LiteOS/components/security/mbedtls/mbedtls-2.6.0/library\bignum.c ****     if( val != 0 && val != 1 )
 326:C:/Users/lenovo/Desktop/liteos/Project2/BearPi_LiteOS/components/security/mbedtls/mbedtls-2.6.0/library\bignum.c ****         return( MBEDTLS_ERR_MPI_BAD_INPUT_DATA );
 327:C:/Users/lenovo/Desktop/liteos/Project2/BearPi_LiteOS/components/security/mbedtls/mbedtls-2.6.0/library\bignum.c **** 
 328:C:/Users/lenovo/Desktop/liteos/Project2/BearPi_LiteOS/components/security/mbedtls/mbedtls-2.6.0/library\bignum.c ****     if( X->n * biL <= pos )
 329:C:/Users/lenovo/Desktop/liteos/Project2/BearPi_LiteOS/components/security/mbedtls/mbedtls-2.6.0/library\bignum.c ****     {
 330:C:/Users/lenovo/Desktop/liteos/Project2/BearPi_LiteOS/components/security/mbedtls/mbedtls-2.6.0/library\bignum.c ****         if( val == 0 )
 331:C:/Users/lenovo/Desktop/liteos/Project2/BearPi_LiteOS/components/security/mbedtls/mbedtls-2.6.0/library\bignum.c ****             return( 0 );
 332:C:/Users/lenovo/Desktop/liteos/Project2/BearPi_LiteOS/components/security/mbedtls/mbedtls-2.6.0/library\bignum.c **** 
 333:C:/Users/lenovo/Desktop/liteos/Project2/BearPi_LiteOS/components/security/mbedtls/mbedtls-2.6.0/library\bignum.c ****         MBEDTLS_MPI_CHK( mbedtls_mpi_grow( X, off + 1 ) );
 334:C:/Users/lenovo/Desktop/liteos/Project2/BearPi_LiteOS/components/security/mbedtls/mbedtls-2.6.0/library\bignum.c ****     }
 335:C:/Users/lenovo/Desktop/liteos/Project2/BearPi_LiteOS/components/security/mbedtls/mbedtls-2.6.0/library\bignum.c **** 
 336:C:/Users/lenovo/Desktop/liteos/Project2/BearPi_LiteOS/components/security/mbedtls/mbedtls-2.6.0/library\bignum.c ****     X->p[off] &= ~( (mbedtls_mpi_uint) 0x01 << idx );
 337:C:/Users/lenovo/Desktop/liteos/Project2/BearPi_LiteOS/components/security/mbedtls/mbedtls-2.6.0/library\bignum.c ****     X->p[off] |= (mbedtls_mpi_uint) val << idx;
 338:C:/Users/lenovo/Desktop/liteos/Project2/BearPi_LiteOS/components/security/mbedtls/mbedtls-2.6.0/library\bignum.c **** 
 339:C:/Users/lenovo/Desktop/liteos/Project2/BearPi_LiteOS/components/security/mbedtls/mbedtls-2.6.0/library\bignum.c **** cleanup:
ARM GAS  c:\Users\lenovo\AppData\Local\Temp\ccjcyTZ0.s 			page 8


 340:C:/Users/lenovo/Desktop/liteos/Project2/BearPi_LiteOS/components/security/mbedtls/mbedtls-2.6.0/library\bignum.c **** 
 341:C:/Users/lenovo/Desktop/liteos/Project2/BearPi_LiteOS/components/security/mbedtls/mbedtls-2.6.0/library\bignum.c ****     return( ret );
 342:C:/Users/lenovo/Desktop/liteos/Project2/BearPi_LiteOS/components/security/mbedtls/mbedtls-2.6.0/library\bignum.c **** }
 343:C:/Users/lenovo/Desktop/liteos/Project2/BearPi_LiteOS/components/security/mbedtls/mbedtls-2.6.0/library\bignum.c **** 
 344:C:/Users/lenovo/Desktop/liteos/Project2/BearPi_LiteOS/components/security/mbedtls/mbedtls-2.6.0/library\bignum.c **** /*
 345:C:/Users/lenovo/Desktop/liteos/Project2/BearPi_LiteOS/components/security/mbedtls/mbedtls-2.6.0/library\bignum.c ****  * Return the number of less significant zero-bits
 346:C:/Users/lenovo/Desktop/liteos/Project2/BearPi_LiteOS/components/security/mbedtls/mbedtls-2.6.0/library\bignum.c ****  */
 347:C:/Users/lenovo/Desktop/liteos/Project2/BearPi_LiteOS/components/security/mbedtls/mbedtls-2.6.0/library\bignum.c **** size_t mbedtls_mpi_lsb( const mbedtls_mpi *X )
 348:C:/Users/lenovo/Desktop/liteos/Project2/BearPi_LiteOS/components/security/mbedtls/mbedtls-2.6.0/library\bignum.c **** {
 349:C:/Users/lenovo/Desktop/liteos/Project2/BearPi_LiteOS/components/security/mbedtls/mbedtls-2.6.0/library\bignum.c ****     size_t i, j, count = 0;
 350:C:/Users/lenovo/Desktop/liteos/Project2/BearPi_LiteOS/components/security/mbedtls/mbedtls-2.6.0/library\bignum.c **** 
 351:C:/Users/lenovo/Desktop/liteos/Project2/BearPi_LiteOS/components/security/mbedtls/mbedtls-2.6.0/library\bignum.c ****     for( i = 0; i < X->n; i++ )
 352:C:/Users/lenovo/Desktop/liteos/Project2/BearPi_LiteOS/components/security/mbedtls/mbedtls-2.6.0/library\bignum.c ****         for( j = 0; j < biL; j++, count++ )
 353:C:/Users/lenovo/Desktop/liteos/Project2/BearPi_LiteOS/components/security/mbedtls/mbedtls-2.6.0/library\bignum.c ****             if( ( ( X->p[i] >> j ) & 1 ) != 0 )
 354:C:/Users/lenovo/Desktop/liteos/Project2/BearPi_LiteOS/components/security/mbedtls/mbedtls-2.6.0/library\bignum.c ****                 return( count );
 355:C:/Users/lenovo/Desktop/liteos/Project2/BearPi_LiteOS/components/security/mbedtls/mbedtls-2.6.0/library\bignum.c **** 
 356:C:/Users/lenovo/Desktop/liteos/Project2/BearPi_LiteOS/components/security/mbedtls/mbedtls-2.6.0/library\bignum.c ****     return( 0 );
 357:C:/Users/lenovo/Desktop/liteos/Project2/BearPi_LiteOS/components/security/mbedtls/mbedtls-2.6.0/library\bignum.c **** }
 358:C:/Users/lenovo/Desktop/liteos/Project2/BearPi_LiteOS/components/security/mbedtls/mbedtls-2.6.0/library\bignum.c **** 
 359:C:/Users/lenovo/Desktop/liteos/Project2/BearPi_LiteOS/components/security/mbedtls/mbedtls-2.6.0/library\bignum.c **** /*
 360:C:/Users/lenovo/Desktop/liteos/Project2/BearPi_LiteOS/components/security/mbedtls/mbedtls-2.6.0/library\bignum.c ****  * Count leading zero bits in a given integer
 361:C:/Users/lenovo/Desktop/liteos/Project2/BearPi_LiteOS/components/security/mbedtls/mbedtls-2.6.0/library\bignum.c ****  */
 362:C:/Users/lenovo/Desktop/liteos/Project2/BearPi_LiteOS/components/security/mbedtls/mbedtls-2.6.0/library\bignum.c **** static size_t mbedtls_clz( const mbedtls_mpi_uint x )
 363:C:/Users/lenovo/Desktop/liteos/Project2/BearPi_LiteOS/components/security/mbedtls/mbedtls-2.6.0/library\bignum.c **** {
  64              		.loc 1 363 0
  65              		.cfi_startproc
  66              		@ args = 0, pretend = 0, frame = 0
  67              		@ frame_needed = 0, uses_anonymous_args = 0
  68              		@ link register save eliminated.
  69              	.LVL5:
 364:C:/Users/lenovo/Desktop/liteos/Project2/BearPi_LiteOS/components/security/mbedtls/mbedtls-2.6.0/library\bignum.c ****     size_t j;
 365:C:/Users/lenovo/Desktop/liteos/Project2/BearPi_LiteOS/components/security/mbedtls/mbedtls-2.6.0/library\bignum.c ****     mbedtls_mpi_uint mask = (mbedtls_mpi_uint) 1 << (biL - 1);
  70              		.loc 1 365 0
  71 0000 4FF00042 		mov	r2, #-2147483648
 366:C:/Users/lenovo/Desktop/liteos/Project2/BearPi_LiteOS/components/security/mbedtls/mbedtls-2.6.0/library\bignum.c **** 
 367:C:/Users/lenovo/Desktop/liteos/Project2/BearPi_LiteOS/components/security/mbedtls/mbedtls-2.6.0/library\bignum.c ****     for( j = 0; j < biL; j++ )
  72              		.loc 1 367 0
  73 0004 0023     		movs	r3, #0
  74              	.LVL6:
  75              	.L5:
  76              		.loc 1 367 0 is_stmt 0 discriminator 1
  77 0006 1F2B     		cmp	r3, #31
  78 0008 04D8     		bhi	.L4
 368:C:/Users/lenovo/Desktop/liteos/Project2/BearPi_LiteOS/components/security/mbedtls/mbedtls-2.6.0/library\bignum.c ****     {
 369:C:/Users/lenovo/Desktop/liteos/Project2/BearPi_LiteOS/components/security/mbedtls/mbedtls-2.6.0/library\bignum.c ****         if( x & mask ) break;
  79              		.loc 1 369 0 is_stmt 1
  80 000a 0242     		tst	r2, r0
  81 000c 02D1     		bne	.L4
 370:C:/Users/lenovo/Desktop/liteos/Project2/BearPi_LiteOS/components/security/mbedtls/mbedtls-2.6.0/library\bignum.c **** 
 371:C:/Users/lenovo/Desktop/liteos/Project2/BearPi_LiteOS/components/security/mbedtls/mbedtls-2.6.0/library\bignum.c ****         mask >>= 1;
  82              		.loc 1 371 0 discriminator 2
  83 000e 5208     		lsrs	r2, r2, #1
  84              	.LVL7:
 367:C:/Users/lenovo/Desktop/liteos/Project2/BearPi_LiteOS/components/security/mbedtls/mbedtls-2.6.0/library\bignum.c ****     {
  85              		.loc 1 367 0 discriminator 2
  86 0010 0133     		adds	r3, r3, #1
  87              	.LVL8:
ARM GAS  c:\Users\lenovo\AppData\Local\Temp\ccjcyTZ0.s 			page 9


  88 0012 F8E7     		b	.L5
  89              	.L4:
 372:C:/Users/lenovo/Desktop/liteos/Project2/BearPi_LiteOS/components/security/mbedtls/mbedtls-2.6.0/library\bignum.c ****     }
 373:C:/Users/lenovo/Desktop/liteos/Project2/BearPi_LiteOS/components/security/mbedtls/mbedtls-2.6.0/library\bignum.c **** 
 374:C:/Users/lenovo/Desktop/liteos/Project2/BearPi_LiteOS/components/security/mbedtls/mbedtls-2.6.0/library\bignum.c ****     return j;
 375:C:/Users/lenovo/Desktop/liteos/Project2/BearPi_LiteOS/components/security/mbedtls/mbedtls-2.6.0/library\bignum.c **** }
  90              		.loc 1 375 0
  91 0014 1846     		mov	r0, r3
  92              	.LVL9:
  93 0016 7047     		bx	lr
  94              		.cfi_endproc
  95              	.LFE16:
  97              		.section	.text.mpi_get_digit,"ax",%progbits
  98              		.align	1
  99              		.syntax unified
 100              		.thumb
 101              		.thumb_func
 102              		.fpu fpv4-sp-d16
 104              	mpi_get_digit:
 105              	.LFB19:
 376:C:/Users/lenovo/Desktop/liteos/Project2/BearPi_LiteOS/components/security/mbedtls/mbedtls-2.6.0/library\bignum.c **** 
 377:C:/Users/lenovo/Desktop/liteos/Project2/BearPi_LiteOS/components/security/mbedtls/mbedtls-2.6.0/library\bignum.c **** /*
 378:C:/Users/lenovo/Desktop/liteos/Project2/BearPi_LiteOS/components/security/mbedtls/mbedtls-2.6.0/library\bignum.c ****  * Return the number of bits
 379:C:/Users/lenovo/Desktop/liteos/Project2/BearPi_LiteOS/components/security/mbedtls/mbedtls-2.6.0/library\bignum.c ****  */
 380:C:/Users/lenovo/Desktop/liteos/Project2/BearPi_LiteOS/components/security/mbedtls/mbedtls-2.6.0/library\bignum.c **** size_t mbedtls_mpi_bitlen( const mbedtls_mpi *X )
 381:C:/Users/lenovo/Desktop/liteos/Project2/BearPi_LiteOS/components/security/mbedtls/mbedtls-2.6.0/library\bignum.c **** {
 382:C:/Users/lenovo/Desktop/liteos/Project2/BearPi_LiteOS/components/security/mbedtls/mbedtls-2.6.0/library\bignum.c ****     size_t i, j;
 383:C:/Users/lenovo/Desktop/liteos/Project2/BearPi_LiteOS/components/security/mbedtls/mbedtls-2.6.0/library\bignum.c **** 
 384:C:/Users/lenovo/Desktop/liteos/Project2/BearPi_LiteOS/components/security/mbedtls/mbedtls-2.6.0/library\bignum.c ****     if( X->n == 0 )
 385:C:/Users/lenovo/Desktop/liteos/Project2/BearPi_LiteOS/components/security/mbedtls/mbedtls-2.6.0/library\bignum.c ****         return( 0 );
 386:C:/Users/lenovo/Desktop/liteos/Project2/BearPi_LiteOS/components/security/mbedtls/mbedtls-2.6.0/library\bignum.c **** 
 387:C:/Users/lenovo/Desktop/liteos/Project2/BearPi_LiteOS/components/security/mbedtls/mbedtls-2.6.0/library\bignum.c ****     for( i = X->n - 1; i > 0; i-- )
 388:C:/Users/lenovo/Desktop/liteos/Project2/BearPi_LiteOS/components/security/mbedtls/mbedtls-2.6.0/library\bignum.c ****         if( X->p[i] != 0 )
 389:C:/Users/lenovo/Desktop/liteos/Project2/BearPi_LiteOS/components/security/mbedtls/mbedtls-2.6.0/library\bignum.c ****             break;
 390:C:/Users/lenovo/Desktop/liteos/Project2/BearPi_LiteOS/components/security/mbedtls/mbedtls-2.6.0/library\bignum.c **** 
 391:C:/Users/lenovo/Desktop/liteos/Project2/BearPi_LiteOS/components/security/mbedtls/mbedtls-2.6.0/library\bignum.c ****     j = biL - mbedtls_clz( X->p[i] );
 392:C:/Users/lenovo/Desktop/liteos/Project2/BearPi_LiteOS/components/security/mbedtls/mbedtls-2.6.0/library\bignum.c **** 
 393:C:/Users/lenovo/Desktop/liteos/Project2/BearPi_LiteOS/components/security/mbedtls/mbedtls-2.6.0/library\bignum.c ****     return( ( i * biL ) + j );
 394:C:/Users/lenovo/Desktop/liteos/Project2/BearPi_LiteOS/components/security/mbedtls/mbedtls-2.6.0/library\bignum.c **** }
 395:C:/Users/lenovo/Desktop/liteos/Project2/BearPi_LiteOS/components/security/mbedtls/mbedtls-2.6.0/library\bignum.c **** 
 396:C:/Users/lenovo/Desktop/liteos/Project2/BearPi_LiteOS/components/security/mbedtls/mbedtls-2.6.0/library\bignum.c **** /*
 397:C:/Users/lenovo/Desktop/liteos/Project2/BearPi_LiteOS/components/security/mbedtls/mbedtls-2.6.0/library\bignum.c ****  * Return the total size in bytes
 398:C:/Users/lenovo/Desktop/liteos/Project2/BearPi_LiteOS/components/security/mbedtls/mbedtls-2.6.0/library\bignum.c ****  */
 399:C:/Users/lenovo/Desktop/liteos/Project2/BearPi_LiteOS/components/security/mbedtls/mbedtls-2.6.0/library\bignum.c **** size_t mbedtls_mpi_size( const mbedtls_mpi *X )
 400:C:/Users/lenovo/Desktop/liteos/Project2/BearPi_LiteOS/components/security/mbedtls/mbedtls-2.6.0/library\bignum.c **** {
 401:C:/Users/lenovo/Desktop/liteos/Project2/BearPi_LiteOS/components/security/mbedtls/mbedtls-2.6.0/library\bignum.c ****     return( ( mbedtls_mpi_bitlen( X ) + 7 ) >> 3 );
 402:C:/Users/lenovo/Desktop/liteos/Project2/BearPi_LiteOS/components/security/mbedtls/mbedtls-2.6.0/library\bignum.c **** }
 403:C:/Users/lenovo/Desktop/liteos/Project2/BearPi_LiteOS/components/security/mbedtls/mbedtls-2.6.0/library\bignum.c **** 
 404:C:/Users/lenovo/Desktop/liteos/Project2/BearPi_LiteOS/components/security/mbedtls/mbedtls-2.6.0/library\bignum.c **** /*
 405:C:/Users/lenovo/Desktop/liteos/Project2/BearPi_LiteOS/components/security/mbedtls/mbedtls-2.6.0/library\bignum.c ****  * Convert an ASCII character to digit value
 406:C:/Users/lenovo/Desktop/liteos/Project2/BearPi_LiteOS/components/security/mbedtls/mbedtls-2.6.0/library\bignum.c ****  */
 407:C:/Users/lenovo/Desktop/liteos/Project2/BearPi_LiteOS/components/security/mbedtls/mbedtls-2.6.0/library\bignum.c **** static int mpi_get_digit( mbedtls_mpi_uint *d, int radix, char c )
 408:C:/Users/lenovo/Desktop/liteos/Project2/BearPi_LiteOS/components/security/mbedtls/mbedtls-2.6.0/library\bignum.c **** {
 106              		.loc 1 408 0
 107              		.cfi_startproc
 108              		@ args = 0, pretend = 0, frame = 0
 109              		@ frame_needed = 0, uses_anonymous_args = 0
ARM GAS  c:\Users\lenovo\AppData\Local\Temp\ccjcyTZ0.s 			page 10


 110              		@ link register save eliminated.
 111              	.LVL10:
 409:C:/Users/lenovo/Desktop/liteos/Project2/BearPi_LiteOS/components/security/mbedtls/mbedtls-2.6.0/library\bignum.c ****     *d = 255;
 112              		.loc 1 409 0
 113 0000 FF23     		movs	r3, #255
 114 0002 0360     		str	r3, [r0]
 410:C:/Users/lenovo/Desktop/liteos/Project2/BearPi_LiteOS/components/security/mbedtls/mbedtls-2.6.0/library\bignum.c **** 
 411:C:/Users/lenovo/Desktop/liteos/Project2/BearPi_LiteOS/components/security/mbedtls/mbedtls-2.6.0/library\bignum.c ****     if( c >= 0x30 && c <= 0x39 ) *d = c - 0x30;
 115              		.loc 1 411 0
 116 0004 A2F13003 		sub	r3, r2, #48
 117 0008 DBB2     		uxtb	r3, r3
 118 000a 092B     		cmp	r3, #9
 119 000c 02D8     		bhi	.L9
 120              		.loc 1 411 0 is_stmt 0 discriminator 1
 121 000e A2F13003 		sub	r3, r2, #48
 122 0012 0360     		str	r3, [r0]
 123              	.L9:
 412:C:/Users/lenovo/Desktop/liteos/Project2/BearPi_LiteOS/components/security/mbedtls/mbedtls-2.6.0/library\bignum.c ****     if( c >= 0x41 && c <= 0x46 ) *d = c - 0x37;
 124              		.loc 1 412 0 is_stmt 1
 125 0014 A2F14103 		sub	r3, r2, #65
 126 0018 DBB2     		uxtb	r3, r3
 127 001a 052B     		cmp	r3, #5
 128 001c 02D8     		bhi	.L10
 129              		.loc 1 412 0 is_stmt 0 discriminator 1
 130 001e A2F13703 		sub	r3, r2, #55
 131 0022 0360     		str	r3, [r0]
 132              	.L10:
 413:C:/Users/lenovo/Desktop/liteos/Project2/BearPi_LiteOS/components/security/mbedtls/mbedtls-2.6.0/library\bignum.c ****     if( c >= 0x61 && c <= 0x66 ) *d = c - 0x57;
 133              		.loc 1 413 0 is_stmt 1
 134 0024 A2F16103 		sub	r3, r2, #97
 135 0028 DBB2     		uxtb	r3, r3
 136 002a 052B     		cmp	r3, #5
 137 002c 01D8     		bhi	.L11
 138              		.loc 1 413 0 is_stmt 0 discriminator 1
 139 002e 573A     		subs	r2, r2, #87
 140              	.LVL11:
 141 0030 0260     		str	r2, [r0]
 142              	.L11:
 414:C:/Users/lenovo/Desktop/liteos/Project2/BearPi_LiteOS/components/security/mbedtls/mbedtls-2.6.0/library\bignum.c **** 
 415:C:/Users/lenovo/Desktop/liteos/Project2/BearPi_LiteOS/components/security/mbedtls/mbedtls-2.6.0/library\bignum.c ****     if( *d >= (mbedtls_mpi_uint) radix )
 143              		.loc 1 415 0 is_stmt 1
 144 0032 0368     		ldr	r3, [r0]
 145 0034 8B42     		cmp	r3, r1
 146 0036 01D2     		bcs	.L14
 416:C:/Users/lenovo/Desktop/liteos/Project2/BearPi_LiteOS/components/security/mbedtls/mbedtls-2.6.0/library\bignum.c ****         return( MBEDTLS_ERR_MPI_INVALID_CHARACTER );
 417:C:/Users/lenovo/Desktop/liteos/Project2/BearPi_LiteOS/components/security/mbedtls/mbedtls-2.6.0/library\bignum.c **** 
 418:C:/Users/lenovo/Desktop/liteos/Project2/BearPi_LiteOS/components/security/mbedtls/mbedtls-2.6.0/library\bignum.c ****     return( 0 );
 147              		.loc 1 418 0
 148 0038 0020     		movs	r0, #0
 149              	.LVL12:
 419:C:/Users/lenovo/Desktop/liteos/Project2/BearPi_LiteOS/components/security/mbedtls/mbedtls-2.6.0/library\bignum.c **** }
 150              		.loc 1 419 0
 151 003a 7047     		bx	lr
 152              	.LVL13:
 153              	.L14:
 416:C:/Users/lenovo/Desktop/liteos/Project2/BearPi_LiteOS/components/security/mbedtls/mbedtls-2.6.0/library\bignum.c ****         return( MBEDTLS_ERR_MPI_INVALID_CHARACTER );
 154              		.loc 1 416 0
ARM GAS  c:\Users\lenovo\AppData\Local\Temp\ccjcyTZ0.s 			page 11


 155 003c 6FF00500 		mvn	r0, #5
 156              	.LVL14:
 157 0040 7047     		bx	lr
 158              		.cfi_endproc
 159              	.LFE19:
 161              		.section	.text.mpi_sub_hlp,"ax",%progbits
 162              		.align	1
 163              		.syntax unified
 164              		.thumb
 165              		.thumb_func
 166              		.fpu fpv4-sp-d16
 168              	mpi_sub_hlp:
 169              	.LFB31:
 420:C:/Users/lenovo/Desktop/liteos/Project2/BearPi_LiteOS/components/security/mbedtls/mbedtls-2.6.0/library\bignum.c **** 
 421:C:/Users/lenovo/Desktop/liteos/Project2/BearPi_LiteOS/components/security/mbedtls/mbedtls-2.6.0/library\bignum.c **** /*
 422:C:/Users/lenovo/Desktop/liteos/Project2/BearPi_LiteOS/components/security/mbedtls/mbedtls-2.6.0/library\bignum.c ****  * Import from an ASCII string
 423:C:/Users/lenovo/Desktop/liteos/Project2/BearPi_LiteOS/components/security/mbedtls/mbedtls-2.6.0/library\bignum.c ****  */
 424:C:/Users/lenovo/Desktop/liteos/Project2/BearPi_LiteOS/components/security/mbedtls/mbedtls-2.6.0/library\bignum.c **** int mbedtls_mpi_read_string( mbedtls_mpi *X, int radix, const char *s )
 425:C:/Users/lenovo/Desktop/liteos/Project2/BearPi_LiteOS/components/security/mbedtls/mbedtls-2.6.0/library\bignum.c **** {
 426:C:/Users/lenovo/Desktop/liteos/Project2/BearPi_LiteOS/components/security/mbedtls/mbedtls-2.6.0/library\bignum.c ****     int ret;
 427:C:/Users/lenovo/Desktop/liteos/Project2/BearPi_LiteOS/components/security/mbedtls/mbedtls-2.6.0/library\bignum.c ****     size_t i, j, slen, n;
 428:C:/Users/lenovo/Desktop/liteos/Project2/BearPi_LiteOS/components/security/mbedtls/mbedtls-2.6.0/library\bignum.c ****     mbedtls_mpi_uint d;
 429:C:/Users/lenovo/Desktop/liteos/Project2/BearPi_LiteOS/components/security/mbedtls/mbedtls-2.6.0/library\bignum.c ****     mbedtls_mpi T;
 430:C:/Users/lenovo/Desktop/liteos/Project2/BearPi_LiteOS/components/security/mbedtls/mbedtls-2.6.0/library\bignum.c **** 
 431:C:/Users/lenovo/Desktop/liteos/Project2/BearPi_LiteOS/components/security/mbedtls/mbedtls-2.6.0/library\bignum.c ****     if( radix < 2 || radix > 16 )
 432:C:/Users/lenovo/Desktop/liteos/Project2/BearPi_LiteOS/components/security/mbedtls/mbedtls-2.6.0/library\bignum.c ****         return( MBEDTLS_ERR_MPI_BAD_INPUT_DATA );
 433:C:/Users/lenovo/Desktop/liteos/Project2/BearPi_LiteOS/components/security/mbedtls/mbedtls-2.6.0/library\bignum.c **** 
 434:C:/Users/lenovo/Desktop/liteos/Project2/BearPi_LiteOS/components/security/mbedtls/mbedtls-2.6.0/library\bignum.c ****     mbedtls_mpi_init( &T );
 435:C:/Users/lenovo/Desktop/liteos/Project2/BearPi_LiteOS/components/security/mbedtls/mbedtls-2.6.0/library\bignum.c **** 
 436:C:/Users/lenovo/Desktop/liteos/Project2/BearPi_LiteOS/components/security/mbedtls/mbedtls-2.6.0/library\bignum.c ****     slen = strlen( s );
 437:C:/Users/lenovo/Desktop/liteos/Project2/BearPi_LiteOS/components/security/mbedtls/mbedtls-2.6.0/library\bignum.c **** 
 438:C:/Users/lenovo/Desktop/liteos/Project2/BearPi_LiteOS/components/security/mbedtls/mbedtls-2.6.0/library\bignum.c ****     if( radix == 16 )
 439:C:/Users/lenovo/Desktop/liteos/Project2/BearPi_LiteOS/components/security/mbedtls/mbedtls-2.6.0/library\bignum.c ****     {
 440:C:/Users/lenovo/Desktop/liteos/Project2/BearPi_LiteOS/components/security/mbedtls/mbedtls-2.6.0/library\bignum.c ****         if( slen > MPI_SIZE_T_MAX >> 2 )
 441:C:/Users/lenovo/Desktop/liteos/Project2/BearPi_LiteOS/components/security/mbedtls/mbedtls-2.6.0/library\bignum.c ****             return( MBEDTLS_ERR_MPI_BAD_INPUT_DATA );
 442:C:/Users/lenovo/Desktop/liteos/Project2/BearPi_LiteOS/components/security/mbedtls/mbedtls-2.6.0/library\bignum.c **** 
 443:C:/Users/lenovo/Desktop/liteos/Project2/BearPi_LiteOS/components/security/mbedtls/mbedtls-2.6.0/library\bignum.c ****         n = BITS_TO_LIMBS( slen << 2 );
 444:C:/Users/lenovo/Desktop/liteos/Project2/BearPi_LiteOS/components/security/mbedtls/mbedtls-2.6.0/library\bignum.c **** 
 445:C:/Users/lenovo/Desktop/liteos/Project2/BearPi_LiteOS/components/security/mbedtls/mbedtls-2.6.0/library\bignum.c ****         MBEDTLS_MPI_CHK( mbedtls_mpi_grow( X, n ) );
 446:C:/Users/lenovo/Desktop/liteos/Project2/BearPi_LiteOS/components/security/mbedtls/mbedtls-2.6.0/library\bignum.c ****         MBEDTLS_MPI_CHK( mbedtls_mpi_lset( X, 0 ) );
 447:C:/Users/lenovo/Desktop/liteos/Project2/BearPi_LiteOS/components/security/mbedtls/mbedtls-2.6.0/library\bignum.c **** 
 448:C:/Users/lenovo/Desktop/liteos/Project2/BearPi_LiteOS/components/security/mbedtls/mbedtls-2.6.0/library\bignum.c ****         for( i = slen, j = 0; i > 0; i--, j++ )
 449:C:/Users/lenovo/Desktop/liteos/Project2/BearPi_LiteOS/components/security/mbedtls/mbedtls-2.6.0/library\bignum.c ****         {
 450:C:/Users/lenovo/Desktop/liteos/Project2/BearPi_LiteOS/components/security/mbedtls/mbedtls-2.6.0/library\bignum.c ****             if( i == 1 && s[i - 1] == '-' )
 451:C:/Users/lenovo/Desktop/liteos/Project2/BearPi_LiteOS/components/security/mbedtls/mbedtls-2.6.0/library\bignum.c ****             {
 452:C:/Users/lenovo/Desktop/liteos/Project2/BearPi_LiteOS/components/security/mbedtls/mbedtls-2.6.0/library\bignum.c ****                 X->s = -1;
 453:C:/Users/lenovo/Desktop/liteos/Project2/BearPi_LiteOS/components/security/mbedtls/mbedtls-2.6.0/library\bignum.c ****                 break;
 454:C:/Users/lenovo/Desktop/liteos/Project2/BearPi_LiteOS/components/security/mbedtls/mbedtls-2.6.0/library\bignum.c ****             }
 455:C:/Users/lenovo/Desktop/liteos/Project2/BearPi_LiteOS/components/security/mbedtls/mbedtls-2.6.0/library\bignum.c **** 
 456:C:/Users/lenovo/Desktop/liteos/Project2/BearPi_LiteOS/components/security/mbedtls/mbedtls-2.6.0/library\bignum.c ****             MBEDTLS_MPI_CHK( mpi_get_digit( &d, radix, s[i - 1] ) );
 457:C:/Users/lenovo/Desktop/liteos/Project2/BearPi_LiteOS/components/security/mbedtls/mbedtls-2.6.0/library\bignum.c ****             X->p[j / ( 2 * ciL )] |= d << ( ( j % ( 2 * ciL ) ) << 2 );
 458:C:/Users/lenovo/Desktop/liteos/Project2/BearPi_LiteOS/components/security/mbedtls/mbedtls-2.6.0/library\bignum.c ****         }
 459:C:/Users/lenovo/Desktop/liteos/Project2/BearPi_LiteOS/components/security/mbedtls/mbedtls-2.6.0/library\bignum.c ****     }
 460:C:/Users/lenovo/Desktop/liteos/Project2/BearPi_LiteOS/components/security/mbedtls/mbedtls-2.6.0/library\bignum.c ****     else
 461:C:/Users/lenovo/Desktop/liteos/Project2/BearPi_LiteOS/components/security/mbedtls/mbedtls-2.6.0/library\bignum.c ****     {
 462:C:/Users/lenovo/Desktop/liteos/Project2/BearPi_LiteOS/components/security/mbedtls/mbedtls-2.6.0/library\bignum.c ****         MBEDTLS_MPI_CHK( mbedtls_mpi_lset( X, 0 ) );
 463:C:/Users/lenovo/Desktop/liteos/Project2/BearPi_LiteOS/components/security/mbedtls/mbedtls-2.6.0/library\bignum.c **** 
ARM GAS  c:\Users\lenovo\AppData\Local\Temp\ccjcyTZ0.s 			page 12


 464:C:/Users/lenovo/Desktop/liteos/Project2/BearPi_LiteOS/components/security/mbedtls/mbedtls-2.6.0/library\bignum.c ****         for( i = 0; i < slen; i++ )
 465:C:/Users/lenovo/Desktop/liteos/Project2/BearPi_LiteOS/components/security/mbedtls/mbedtls-2.6.0/library\bignum.c ****         {
 466:C:/Users/lenovo/Desktop/liteos/Project2/BearPi_LiteOS/components/security/mbedtls/mbedtls-2.6.0/library\bignum.c ****             if( i == 0 && s[i] == '-' )
 467:C:/Users/lenovo/Desktop/liteos/Project2/BearPi_LiteOS/components/security/mbedtls/mbedtls-2.6.0/library\bignum.c ****             {
 468:C:/Users/lenovo/Desktop/liteos/Project2/BearPi_LiteOS/components/security/mbedtls/mbedtls-2.6.0/library\bignum.c ****                 X->s = -1;
 469:C:/Users/lenovo/Desktop/liteos/Project2/BearPi_LiteOS/components/security/mbedtls/mbedtls-2.6.0/library\bignum.c ****                 continue;
 470:C:/Users/lenovo/Desktop/liteos/Project2/BearPi_LiteOS/components/security/mbedtls/mbedtls-2.6.0/library\bignum.c ****             }
 471:C:/Users/lenovo/Desktop/liteos/Project2/BearPi_LiteOS/components/security/mbedtls/mbedtls-2.6.0/library\bignum.c **** 
 472:C:/Users/lenovo/Desktop/liteos/Project2/BearPi_LiteOS/components/security/mbedtls/mbedtls-2.6.0/library\bignum.c ****             MBEDTLS_MPI_CHK( mpi_get_digit( &d, radix, s[i] ) );
 473:C:/Users/lenovo/Desktop/liteos/Project2/BearPi_LiteOS/components/security/mbedtls/mbedtls-2.6.0/library\bignum.c ****             MBEDTLS_MPI_CHK( mbedtls_mpi_mul_int( &T, X, radix ) );
 474:C:/Users/lenovo/Desktop/liteos/Project2/BearPi_LiteOS/components/security/mbedtls/mbedtls-2.6.0/library\bignum.c **** 
 475:C:/Users/lenovo/Desktop/liteos/Project2/BearPi_LiteOS/components/security/mbedtls/mbedtls-2.6.0/library\bignum.c ****             if( X->s == 1 )
 476:C:/Users/lenovo/Desktop/liteos/Project2/BearPi_LiteOS/components/security/mbedtls/mbedtls-2.6.0/library\bignum.c ****             {
 477:C:/Users/lenovo/Desktop/liteos/Project2/BearPi_LiteOS/components/security/mbedtls/mbedtls-2.6.0/library\bignum.c ****                 MBEDTLS_MPI_CHK( mbedtls_mpi_add_int( X, &T, d ) );
 478:C:/Users/lenovo/Desktop/liteos/Project2/BearPi_LiteOS/components/security/mbedtls/mbedtls-2.6.0/library\bignum.c ****             }
 479:C:/Users/lenovo/Desktop/liteos/Project2/BearPi_LiteOS/components/security/mbedtls/mbedtls-2.6.0/library\bignum.c ****             else
 480:C:/Users/lenovo/Desktop/liteos/Project2/BearPi_LiteOS/components/security/mbedtls/mbedtls-2.6.0/library\bignum.c ****             {
 481:C:/Users/lenovo/Desktop/liteos/Project2/BearPi_LiteOS/components/security/mbedtls/mbedtls-2.6.0/library\bignum.c ****                 MBEDTLS_MPI_CHK( mbedtls_mpi_sub_int( X, &T, d ) );
 482:C:/Users/lenovo/Desktop/liteos/Project2/BearPi_LiteOS/components/security/mbedtls/mbedtls-2.6.0/library\bignum.c ****             }
 483:C:/Users/lenovo/Desktop/liteos/Project2/BearPi_LiteOS/components/security/mbedtls/mbedtls-2.6.0/library\bignum.c ****         }
 484:C:/Users/lenovo/Desktop/liteos/Project2/BearPi_LiteOS/components/security/mbedtls/mbedtls-2.6.0/library\bignum.c ****     }
 485:C:/Users/lenovo/Desktop/liteos/Project2/BearPi_LiteOS/components/security/mbedtls/mbedtls-2.6.0/library\bignum.c **** 
 486:C:/Users/lenovo/Desktop/liteos/Project2/BearPi_LiteOS/components/security/mbedtls/mbedtls-2.6.0/library\bignum.c **** cleanup:
 487:C:/Users/lenovo/Desktop/liteos/Project2/BearPi_LiteOS/components/security/mbedtls/mbedtls-2.6.0/library\bignum.c **** 
 488:C:/Users/lenovo/Desktop/liteos/Project2/BearPi_LiteOS/components/security/mbedtls/mbedtls-2.6.0/library\bignum.c ****     mbedtls_mpi_free( &T );
 489:C:/Users/lenovo/Desktop/liteos/Project2/BearPi_LiteOS/components/security/mbedtls/mbedtls-2.6.0/library\bignum.c **** 
 490:C:/Users/lenovo/Desktop/liteos/Project2/BearPi_LiteOS/components/security/mbedtls/mbedtls-2.6.0/library\bignum.c ****     return( ret );
 491:C:/Users/lenovo/Desktop/liteos/Project2/BearPi_LiteOS/components/security/mbedtls/mbedtls-2.6.0/library\bignum.c **** }
 492:C:/Users/lenovo/Desktop/liteos/Project2/BearPi_LiteOS/components/security/mbedtls/mbedtls-2.6.0/library\bignum.c **** 
 493:C:/Users/lenovo/Desktop/liteos/Project2/BearPi_LiteOS/components/security/mbedtls/mbedtls-2.6.0/library\bignum.c **** /*
 494:C:/Users/lenovo/Desktop/liteos/Project2/BearPi_LiteOS/components/security/mbedtls/mbedtls-2.6.0/library\bignum.c ****  * Helper to write the digits high-order first
 495:C:/Users/lenovo/Desktop/liteos/Project2/BearPi_LiteOS/components/security/mbedtls/mbedtls-2.6.0/library\bignum.c ****  */
 496:C:/Users/lenovo/Desktop/liteos/Project2/BearPi_LiteOS/components/security/mbedtls/mbedtls-2.6.0/library\bignum.c **** static int mpi_write_hlp( mbedtls_mpi *X, int radix, char **p )
 497:C:/Users/lenovo/Desktop/liteos/Project2/BearPi_LiteOS/components/security/mbedtls/mbedtls-2.6.0/library\bignum.c **** {
 498:C:/Users/lenovo/Desktop/liteos/Project2/BearPi_LiteOS/components/security/mbedtls/mbedtls-2.6.0/library\bignum.c ****     int ret;
 499:C:/Users/lenovo/Desktop/liteos/Project2/BearPi_LiteOS/components/security/mbedtls/mbedtls-2.6.0/library\bignum.c ****     mbedtls_mpi_uint r;
 500:C:/Users/lenovo/Desktop/liteos/Project2/BearPi_LiteOS/components/security/mbedtls/mbedtls-2.6.0/library\bignum.c **** 
 501:C:/Users/lenovo/Desktop/liteos/Project2/BearPi_LiteOS/components/security/mbedtls/mbedtls-2.6.0/library\bignum.c ****     if( radix < 2 || radix > 16 )
 502:C:/Users/lenovo/Desktop/liteos/Project2/BearPi_LiteOS/components/security/mbedtls/mbedtls-2.6.0/library\bignum.c ****         return( MBEDTLS_ERR_MPI_BAD_INPUT_DATA );
 503:C:/Users/lenovo/Desktop/liteos/Project2/BearPi_LiteOS/components/security/mbedtls/mbedtls-2.6.0/library\bignum.c **** 
 504:C:/Users/lenovo/Desktop/liteos/Project2/BearPi_LiteOS/components/security/mbedtls/mbedtls-2.6.0/library\bignum.c ****     MBEDTLS_MPI_CHK( mbedtls_mpi_mod_int( &r, X, radix ) );
 505:C:/Users/lenovo/Desktop/liteos/Project2/BearPi_LiteOS/components/security/mbedtls/mbedtls-2.6.0/library\bignum.c ****     MBEDTLS_MPI_CHK( mbedtls_mpi_div_int( X, NULL, X, radix ) );
 506:C:/Users/lenovo/Desktop/liteos/Project2/BearPi_LiteOS/components/security/mbedtls/mbedtls-2.6.0/library\bignum.c **** 
 507:C:/Users/lenovo/Desktop/liteos/Project2/BearPi_LiteOS/components/security/mbedtls/mbedtls-2.6.0/library\bignum.c ****     if( mbedtls_mpi_cmp_int( X, 0 ) != 0 )
 508:C:/Users/lenovo/Desktop/liteos/Project2/BearPi_LiteOS/components/security/mbedtls/mbedtls-2.6.0/library\bignum.c ****         MBEDTLS_MPI_CHK( mpi_write_hlp( X, radix, p ) );
 509:C:/Users/lenovo/Desktop/liteos/Project2/BearPi_LiteOS/components/security/mbedtls/mbedtls-2.6.0/library\bignum.c **** 
 510:C:/Users/lenovo/Desktop/liteos/Project2/BearPi_LiteOS/components/security/mbedtls/mbedtls-2.6.0/library\bignum.c ****     if( r < 10 )
 511:C:/Users/lenovo/Desktop/liteos/Project2/BearPi_LiteOS/components/security/mbedtls/mbedtls-2.6.0/library\bignum.c ****         *(*p)++ = (char)( r + 0x30 );
 512:C:/Users/lenovo/Desktop/liteos/Project2/BearPi_LiteOS/components/security/mbedtls/mbedtls-2.6.0/library\bignum.c ****     else
 513:C:/Users/lenovo/Desktop/liteos/Project2/BearPi_LiteOS/components/security/mbedtls/mbedtls-2.6.0/library\bignum.c ****         *(*p)++ = (char)( r + 0x37 );
 514:C:/Users/lenovo/Desktop/liteos/Project2/BearPi_LiteOS/components/security/mbedtls/mbedtls-2.6.0/library\bignum.c **** 
 515:C:/Users/lenovo/Desktop/liteos/Project2/BearPi_LiteOS/components/security/mbedtls/mbedtls-2.6.0/library\bignum.c **** cleanup:
 516:C:/Users/lenovo/Desktop/liteos/Project2/BearPi_LiteOS/components/security/mbedtls/mbedtls-2.6.0/library\bignum.c **** 
 517:C:/Users/lenovo/Desktop/liteos/Project2/BearPi_LiteOS/components/security/mbedtls/mbedtls-2.6.0/library\bignum.c ****     return( ret );
 518:C:/Users/lenovo/Desktop/liteos/Project2/BearPi_LiteOS/components/security/mbedtls/mbedtls-2.6.0/library\bignum.c **** }
 519:C:/Users/lenovo/Desktop/liteos/Project2/BearPi_LiteOS/components/security/mbedtls/mbedtls-2.6.0/library\bignum.c **** 
 520:C:/Users/lenovo/Desktop/liteos/Project2/BearPi_LiteOS/components/security/mbedtls/mbedtls-2.6.0/library\bignum.c **** /*
ARM GAS  c:\Users\lenovo\AppData\Local\Temp\ccjcyTZ0.s 			page 13


 521:C:/Users/lenovo/Desktop/liteos/Project2/BearPi_LiteOS/components/security/mbedtls/mbedtls-2.6.0/library\bignum.c ****  * Export into an ASCII string
 522:C:/Users/lenovo/Desktop/liteos/Project2/BearPi_LiteOS/components/security/mbedtls/mbedtls-2.6.0/library\bignum.c ****  */
 523:C:/Users/lenovo/Desktop/liteos/Project2/BearPi_LiteOS/components/security/mbedtls/mbedtls-2.6.0/library\bignum.c **** int mbedtls_mpi_write_string( const mbedtls_mpi *X, int radix,
 524:C:/Users/lenovo/Desktop/liteos/Project2/BearPi_LiteOS/components/security/mbedtls/mbedtls-2.6.0/library\bignum.c ****                               char *buf, size_t buflen, size_t *olen )
 525:C:/Users/lenovo/Desktop/liteos/Project2/BearPi_LiteOS/components/security/mbedtls/mbedtls-2.6.0/library\bignum.c **** {
 526:C:/Users/lenovo/Desktop/liteos/Project2/BearPi_LiteOS/components/security/mbedtls/mbedtls-2.6.0/library\bignum.c ****     int ret = 0;
 527:C:/Users/lenovo/Desktop/liteos/Project2/BearPi_LiteOS/components/security/mbedtls/mbedtls-2.6.0/library\bignum.c ****     size_t n;
 528:C:/Users/lenovo/Desktop/liteos/Project2/BearPi_LiteOS/components/security/mbedtls/mbedtls-2.6.0/library\bignum.c ****     char *p;
 529:C:/Users/lenovo/Desktop/liteos/Project2/BearPi_LiteOS/components/security/mbedtls/mbedtls-2.6.0/library\bignum.c ****     mbedtls_mpi T;
 530:C:/Users/lenovo/Desktop/liteos/Project2/BearPi_LiteOS/components/security/mbedtls/mbedtls-2.6.0/library\bignum.c **** 
 531:C:/Users/lenovo/Desktop/liteos/Project2/BearPi_LiteOS/components/security/mbedtls/mbedtls-2.6.0/library\bignum.c ****     if( radix < 2 || radix > 16 )
 532:C:/Users/lenovo/Desktop/liteos/Project2/BearPi_LiteOS/components/security/mbedtls/mbedtls-2.6.0/library\bignum.c ****         return( MBEDTLS_ERR_MPI_BAD_INPUT_DATA );
 533:C:/Users/lenovo/Desktop/liteos/Project2/BearPi_LiteOS/components/security/mbedtls/mbedtls-2.6.0/library\bignum.c **** 
 534:C:/Users/lenovo/Desktop/liteos/Project2/BearPi_LiteOS/components/security/mbedtls/mbedtls-2.6.0/library\bignum.c ****     n = mbedtls_mpi_bitlen( X );
 535:C:/Users/lenovo/Desktop/liteos/Project2/BearPi_LiteOS/components/security/mbedtls/mbedtls-2.6.0/library\bignum.c ****     if( radix >=  4 ) n >>= 1;
 536:C:/Users/lenovo/Desktop/liteos/Project2/BearPi_LiteOS/components/security/mbedtls/mbedtls-2.6.0/library\bignum.c ****     if( radix >= 16 ) n >>= 1;
 537:C:/Users/lenovo/Desktop/liteos/Project2/BearPi_LiteOS/components/security/mbedtls/mbedtls-2.6.0/library\bignum.c ****     /*
 538:C:/Users/lenovo/Desktop/liteos/Project2/BearPi_LiteOS/components/security/mbedtls/mbedtls-2.6.0/library\bignum.c ****      * Round up the buffer length to an even value to ensure that there is
 539:C:/Users/lenovo/Desktop/liteos/Project2/BearPi_LiteOS/components/security/mbedtls/mbedtls-2.6.0/library\bignum.c ****      * enough room for hexadecimal values that can be represented in an odd
 540:C:/Users/lenovo/Desktop/liteos/Project2/BearPi_LiteOS/components/security/mbedtls/mbedtls-2.6.0/library\bignum.c ****      * number of digits.
 541:C:/Users/lenovo/Desktop/liteos/Project2/BearPi_LiteOS/components/security/mbedtls/mbedtls-2.6.0/library\bignum.c ****      */
 542:C:/Users/lenovo/Desktop/liteos/Project2/BearPi_LiteOS/components/security/mbedtls/mbedtls-2.6.0/library\bignum.c ****     n += 3 + ( ( n + 1 ) & 1 );
 543:C:/Users/lenovo/Desktop/liteos/Project2/BearPi_LiteOS/components/security/mbedtls/mbedtls-2.6.0/library\bignum.c **** 
 544:C:/Users/lenovo/Desktop/liteos/Project2/BearPi_LiteOS/components/security/mbedtls/mbedtls-2.6.0/library\bignum.c ****     if( buflen < n )
 545:C:/Users/lenovo/Desktop/liteos/Project2/BearPi_LiteOS/components/security/mbedtls/mbedtls-2.6.0/library\bignum.c ****     {
 546:C:/Users/lenovo/Desktop/liteos/Project2/BearPi_LiteOS/components/security/mbedtls/mbedtls-2.6.0/library\bignum.c ****         *olen = n;
 547:C:/Users/lenovo/Desktop/liteos/Project2/BearPi_LiteOS/components/security/mbedtls/mbedtls-2.6.0/library\bignum.c ****         return( MBEDTLS_ERR_MPI_BUFFER_TOO_SMALL );
 548:C:/Users/lenovo/Desktop/liteos/Project2/BearPi_LiteOS/components/security/mbedtls/mbedtls-2.6.0/library\bignum.c ****     }
 549:C:/Users/lenovo/Desktop/liteos/Project2/BearPi_LiteOS/components/security/mbedtls/mbedtls-2.6.0/library\bignum.c **** 
 550:C:/Users/lenovo/Desktop/liteos/Project2/BearPi_LiteOS/components/security/mbedtls/mbedtls-2.6.0/library\bignum.c ****     p = buf;
 551:C:/Users/lenovo/Desktop/liteos/Project2/BearPi_LiteOS/components/security/mbedtls/mbedtls-2.6.0/library\bignum.c ****     mbedtls_mpi_init( &T );
 552:C:/Users/lenovo/Desktop/liteos/Project2/BearPi_LiteOS/components/security/mbedtls/mbedtls-2.6.0/library\bignum.c **** 
 553:C:/Users/lenovo/Desktop/liteos/Project2/BearPi_LiteOS/components/security/mbedtls/mbedtls-2.6.0/library\bignum.c ****     if( X->s == -1 )
 554:C:/Users/lenovo/Desktop/liteos/Project2/BearPi_LiteOS/components/security/mbedtls/mbedtls-2.6.0/library\bignum.c ****         *p++ = '-';
 555:C:/Users/lenovo/Desktop/liteos/Project2/BearPi_LiteOS/components/security/mbedtls/mbedtls-2.6.0/library\bignum.c **** 
 556:C:/Users/lenovo/Desktop/liteos/Project2/BearPi_LiteOS/components/security/mbedtls/mbedtls-2.6.0/library\bignum.c ****     if( radix == 16 )
 557:C:/Users/lenovo/Desktop/liteos/Project2/BearPi_LiteOS/components/security/mbedtls/mbedtls-2.6.0/library\bignum.c ****     {
 558:C:/Users/lenovo/Desktop/liteos/Project2/BearPi_LiteOS/components/security/mbedtls/mbedtls-2.6.0/library\bignum.c ****         int c;
 559:C:/Users/lenovo/Desktop/liteos/Project2/BearPi_LiteOS/components/security/mbedtls/mbedtls-2.6.0/library\bignum.c ****         size_t i, j, k;
 560:C:/Users/lenovo/Desktop/liteos/Project2/BearPi_LiteOS/components/security/mbedtls/mbedtls-2.6.0/library\bignum.c **** 
 561:C:/Users/lenovo/Desktop/liteos/Project2/BearPi_LiteOS/components/security/mbedtls/mbedtls-2.6.0/library\bignum.c ****         for( i = X->n, k = 0; i > 0; i-- )
 562:C:/Users/lenovo/Desktop/liteos/Project2/BearPi_LiteOS/components/security/mbedtls/mbedtls-2.6.0/library\bignum.c ****         {
 563:C:/Users/lenovo/Desktop/liteos/Project2/BearPi_LiteOS/components/security/mbedtls/mbedtls-2.6.0/library\bignum.c ****             for( j = ciL; j > 0; j-- )
 564:C:/Users/lenovo/Desktop/liteos/Project2/BearPi_LiteOS/components/security/mbedtls/mbedtls-2.6.0/library\bignum.c ****             {
 565:C:/Users/lenovo/Desktop/liteos/Project2/BearPi_LiteOS/components/security/mbedtls/mbedtls-2.6.0/library\bignum.c ****                 c = ( X->p[i - 1] >> ( ( j - 1 ) << 3) ) & 0xFF;
 566:C:/Users/lenovo/Desktop/liteos/Project2/BearPi_LiteOS/components/security/mbedtls/mbedtls-2.6.0/library\bignum.c **** 
 567:C:/Users/lenovo/Desktop/liteos/Project2/BearPi_LiteOS/components/security/mbedtls/mbedtls-2.6.0/library\bignum.c ****                 if( c == 0 && k == 0 && ( i + j ) != 2 )
 568:C:/Users/lenovo/Desktop/liteos/Project2/BearPi_LiteOS/components/security/mbedtls/mbedtls-2.6.0/library\bignum.c ****                     continue;
 569:C:/Users/lenovo/Desktop/liteos/Project2/BearPi_LiteOS/components/security/mbedtls/mbedtls-2.6.0/library\bignum.c **** 
 570:C:/Users/lenovo/Desktop/liteos/Project2/BearPi_LiteOS/components/security/mbedtls/mbedtls-2.6.0/library\bignum.c ****                 *(p++) = "0123456789ABCDEF" [c / 16];
 571:C:/Users/lenovo/Desktop/liteos/Project2/BearPi_LiteOS/components/security/mbedtls/mbedtls-2.6.0/library\bignum.c ****                 *(p++) = "0123456789ABCDEF" [c % 16];
 572:C:/Users/lenovo/Desktop/liteos/Project2/BearPi_LiteOS/components/security/mbedtls/mbedtls-2.6.0/library\bignum.c ****                 k = 1;
 573:C:/Users/lenovo/Desktop/liteos/Project2/BearPi_LiteOS/components/security/mbedtls/mbedtls-2.6.0/library\bignum.c ****             }
 574:C:/Users/lenovo/Desktop/liteos/Project2/BearPi_LiteOS/components/security/mbedtls/mbedtls-2.6.0/library\bignum.c ****         }
 575:C:/Users/lenovo/Desktop/liteos/Project2/BearPi_LiteOS/components/security/mbedtls/mbedtls-2.6.0/library\bignum.c ****     }
 576:C:/Users/lenovo/Desktop/liteos/Project2/BearPi_LiteOS/components/security/mbedtls/mbedtls-2.6.0/library\bignum.c ****     else
 577:C:/Users/lenovo/Desktop/liteos/Project2/BearPi_LiteOS/components/security/mbedtls/mbedtls-2.6.0/library\bignum.c ****     {
ARM GAS  c:\Users\lenovo\AppData\Local\Temp\ccjcyTZ0.s 			page 14


 578:C:/Users/lenovo/Desktop/liteos/Project2/BearPi_LiteOS/components/security/mbedtls/mbedtls-2.6.0/library\bignum.c ****         MBEDTLS_MPI_CHK( mbedtls_mpi_copy( &T, X ) );
 579:C:/Users/lenovo/Desktop/liteos/Project2/BearPi_LiteOS/components/security/mbedtls/mbedtls-2.6.0/library\bignum.c **** 
 580:C:/Users/lenovo/Desktop/liteos/Project2/BearPi_LiteOS/components/security/mbedtls/mbedtls-2.6.0/library\bignum.c ****         if( T.s == -1 )
 581:C:/Users/lenovo/Desktop/liteos/Project2/BearPi_LiteOS/components/security/mbedtls/mbedtls-2.6.0/library\bignum.c ****             T.s = 1;
 582:C:/Users/lenovo/Desktop/liteos/Project2/BearPi_LiteOS/components/security/mbedtls/mbedtls-2.6.0/library\bignum.c **** 
 583:C:/Users/lenovo/Desktop/liteos/Project2/BearPi_LiteOS/components/security/mbedtls/mbedtls-2.6.0/library\bignum.c ****         MBEDTLS_MPI_CHK( mpi_write_hlp( &T, radix, &p ) );
 584:C:/Users/lenovo/Desktop/liteos/Project2/BearPi_LiteOS/components/security/mbedtls/mbedtls-2.6.0/library\bignum.c ****     }
 585:C:/Users/lenovo/Desktop/liteos/Project2/BearPi_LiteOS/components/security/mbedtls/mbedtls-2.6.0/library\bignum.c **** 
 586:C:/Users/lenovo/Desktop/liteos/Project2/BearPi_LiteOS/components/security/mbedtls/mbedtls-2.6.0/library\bignum.c ****     *p++ = '\0';
 587:C:/Users/lenovo/Desktop/liteos/Project2/BearPi_LiteOS/components/security/mbedtls/mbedtls-2.6.0/library\bignum.c ****     *olen = p - buf;
 588:C:/Users/lenovo/Desktop/liteos/Project2/BearPi_LiteOS/components/security/mbedtls/mbedtls-2.6.0/library\bignum.c **** 
 589:C:/Users/lenovo/Desktop/liteos/Project2/BearPi_LiteOS/components/security/mbedtls/mbedtls-2.6.0/library\bignum.c **** cleanup:
 590:C:/Users/lenovo/Desktop/liteos/Project2/BearPi_LiteOS/components/security/mbedtls/mbedtls-2.6.0/library\bignum.c **** 
 591:C:/Users/lenovo/Desktop/liteos/Project2/BearPi_LiteOS/components/security/mbedtls/mbedtls-2.6.0/library\bignum.c ****     mbedtls_mpi_free( &T );
 592:C:/Users/lenovo/Desktop/liteos/Project2/BearPi_LiteOS/components/security/mbedtls/mbedtls-2.6.0/library\bignum.c **** 
 593:C:/Users/lenovo/Desktop/liteos/Project2/BearPi_LiteOS/components/security/mbedtls/mbedtls-2.6.0/library\bignum.c ****     return( ret );
 594:C:/Users/lenovo/Desktop/liteos/Project2/BearPi_LiteOS/components/security/mbedtls/mbedtls-2.6.0/library\bignum.c **** }
 595:C:/Users/lenovo/Desktop/liteos/Project2/BearPi_LiteOS/components/security/mbedtls/mbedtls-2.6.0/library\bignum.c **** 
 596:C:/Users/lenovo/Desktop/liteos/Project2/BearPi_LiteOS/components/security/mbedtls/mbedtls-2.6.0/library\bignum.c **** #if defined(MBEDTLS_FS_IO)
 597:C:/Users/lenovo/Desktop/liteos/Project2/BearPi_LiteOS/components/security/mbedtls/mbedtls-2.6.0/library\bignum.c **** /*
 598:C:/Users/lenovo/Desktop/liteos/Project2/BearPi_LiteOS/components/security/mbedtls/mbedtls-2.6.0/library\bignum.c ****  * Read X from an opened file
 599:C:/Users/lenovo/Desktop/liteos/Project2/BearPi_LiteOS/components/security/mbedtls/mbedtls-2.6.0/library\bignum.c ****  */
 600:C:/Users/lenovo/Desktop/liteos/Project2/BearPi_LiteOS/components/security/mbedtls/mbedtls-2.6.0/library\bignum.c **** int mbedtls_mpi_read_file( mbedtls_mpi *X, int radix, FILE *fin )
 601:C:/Users/lenovo/Desktop/liteos/Project2/BearPi_LiteOS/components/security/mbedtls/mbedtls-2.6.0/library\bignum.c **** {
 602:C:/Users/lenovo/Desktop/liteos/Project2/BearPi_LiteOS/components/security/mbedtls/mbedtls-2.6.0/library\bignum.c ****     mbedtls_mpi_uint d;
 603:C:/Users/lenovo/Desktop/liteos/Project2/BearPi_LiteOS/components/security/mbedtls/mbedtls-2.6.0/library\bignum.c ****     size_t slen;
 604:C:/Users/lenovo/Desktop/liteos/Project2/BearPi_LiteOS/components/security/mbedtls/mbedtls-2.6.0/library\bignum.c ****     char *p;
 605:C:/Users/lenovo/Desktop/liteos/Project2/BearPi_LiteOS/components/security/mbedtls/mbedtls-2.6.0/library\bignum.c ****     /*
 606:C:/Users/lenovo/Desktop/liteos/Project2/BearPi_LiteOS/components/security/mbedtls/mbedtls-2.6.0/library\bignum.c ****      * Buffer should have space for (short) label and decimal formatted MPI,
 607:C:/Users/lenovo/Desktop/liteos/Project2/BearPi_LiteOS/components/security/mbedtls/mbedtls-2.6.0/library\bignum.c ****      * newline characters and '\0'
 608:C:/Users/lenovo/Desktop/liteos/Project2/BearPi_LiteOS/components/security/mbedtls/mbedtls-2.6.0/library\bignum.c ****      */
 609:C:/Users/lenovo/Desktop/liteos/Project2/BearPi_LiteOS/components/security/mbedtls/mbedtls-2.6.0/library\bignum.c ****     char s[ MBEDTLS_MPI_RW_BUFFER_SIZE ];
 610:C:/Users/lenovo/Desktop/liteos/Project2/BearPi_LiteOS/components/security/mbedtls/mbedtls-2.6.0/library\bignum.c **** 
 611:C:/Users/lenovo/Desktop/liteos/Project2/BearPi_LiteOS/components/security/mbedtls/mbedtls-2.6.0/library\bignum.c ****     memset( s, 0, sizeof( s ) );
 612:C:/Users/lenovo/Desktop/liteos/Project2/BearPi_LiteOS/components/security/mbedtls/mbedtls-2.6.0/library\bignum.c ****     if( fgets( s, sizeof( s ) - 1, fin ) == NULL )
 613:C:/Users/lenovo/Desktop/liteos/Project2/BearPi_LiteOS/components/security/mbedtls/mbedtls-2.6.0/library\bignum.c ****         return( MBEDTLS_ERR_MPI_FILE_IO_ERROR );
 614:C:/Users/lenovo/Desktop/liteos/Project2/BearPi_LiteOS/components/security/mbedtls/mbedtls-2.6.0/library\bignum.c **** 
 615:C:/Users/lenovo/Desktop/liteos/Project2/BearPi_LiteOS/components/security/mbedtls/mbedtls-2.6.0/library\bignum.c ****     slen = strlen( s );
 616:C:/Users/lenovo/Desktop/liteos/Project2/BearPi_LiteOS/components/security/mbedtls/mbedtls-2.6.0/library\bignum.c ****     if( slen == sizeof( s ) - 2 )
 617:C:/Users/lenovo/Desktop/liteos/Project2/BearPi_LiteOS/components/security/mbedtls/mbedtls-2.6.0/library\bignum.c ****         return( MBEDTLS_ERR_MPI_BUFFER_TOO_SMALL );
 618:C:/Users/lenovo/Desktop/liteos/Project2/BearPi_LiteOS/components/security/mbedtls/mbedtls-2.6.0/library\bignum.c **** 
 619:C:/Users/lenovo/Desktop/liteos/Project2/BearPi_LiteOS/components/security/mbedtls/mbedtls-2.6.0/library\bignum.c ****     if( slen > 0 && s[slen - 1] == '\n' ) { slen--; s[slen] = '\0'; }
 620:C:/Users/lenovo/Desktop/liteos/Project2/BearPi_LiteOS/components/security/mbedtls/mbedtls-2.6.0/library\bignum.c ****     if( slen > 0 && s[slen - 1] == '\r' ) { slen--; s[slen] = '\0'; }
 621:C:/Users/lenovo/Desktop/liteos/Project2/BearPi_LiteOS/components/security/mbedtls/mbedtls-2.6.0/library\bignum.c **** 
 622:C:/Users/lenovo/Desktop/liteos/Project2/BearPi_LiteOS/components/security/mbedtls/mbedtls-2.6.0/library\bignum.c ****     p = s + slen;
 623:C:/Users/lenovo/Desktop/liteos/Project2/BearPi_LiteOS/components/security/mbedtls/mbedtls-2.6.0/library\bignum.c ****     while( p-- > s )
 624:C:/Users/lenovo/Desktop/liteos/Project2/BearPi_LiteOS/components/security/mbedtls/mbedtls-2.6.0/library\bignum.c ****         if( mpi_get_digit( &d, radix, *p ) != 0 )
 625:C:/Users/lenovo/Desktop/liteos/Project2/BearPi_LiteOS/components/security/mbedtls/mbedtls-2.6.0/library\bignum.c ****             break;
 626:C:/Users/lenovo/Desktop/liteos/Project2/BearPi_LiteOS/components/security/mbedtls/mbedtls-2.6.0/library\bignum.c **** 
 627:C:/Users/lenovo/Desktop/liteos/Project2/BearPi_LiteOS/components/security/mbedtls/mbedtls-2.6.0/library\bignum.c ****     return( mbedtls_mpi_read_string( X, radix, p + 1 ) );
 628:C:/Users/lenovo/Desktop/liteos/Project2/BearPi_LiteOS/components/security/mbedtls/mbedtls-2.6.0/library\bignum.c **** }
 629:C:/Users/lenovo/Desktop/liteos/Project2/BearPi_LiteOS/components/security/mbedtls/mbedtls-2.6.0/library\bignum.c **** 
 630:C:/Users/lenovo/Desktop/liteos/Project2/BearPi_LiteOS/components/security/mbedtls/mbedtls-2.6.0/library\bignum.c **** /*
 631:C:/Users/lenovo/Desktop/liteos/Project2/BearPi_LiteOS/components/security/mbedtls/mbedtls-2.6.0/library\bignum.c ****  * Write X into an opened file (or stdout if fout == NULL)
 632:C:/Users/lenovo/Desktop/liteos/Project2/BearPi_LiteOS/components/security/mbedtls/mbedtls-2.6.0/library\bignum.c ****  */
 633:C:/Users/lenovo/Desktop/liteos/Project2/BearPi_LiteOS/components/security/mbedtls/mbedtls-2.6.0/library\bignum.c **** int mbedtls_mpi_write_file( const char *p, const mbedtls_mpi *X, int radix, FILE *fout )
 634:C:/Users/lenovo/Desktop/liteos/Project2/BearPi_LiteOS/components/security/mbedtls/mbedtls-2.6.0/library\bignum.c **** {
ARM GAS  c:\Users\lenovo\AppData\Local\Temp\ccjcyTZ0.s 			page 15


 635:C:/Users/lenovo/Desktop/liteos/Project2/BearPi_LiteOS/components/security/mbedtls/mbedtls-2.6.0/library\bignum.c ****     int ret;
 636:C:/Users/lenovo/Desktop/liteos/Project2/BearPi_LiteOS/components/security/mbedtls/mbedtls-2.6.0/library\bignum.c ****     size_t n, slen, plen;
 637:C:/Users/lenovo/Desktop/liteos/Project2/BearPi_LiteOS/components/security/mbedtls/mbedtls-2.6.0/library\bignum.c ****     /*
 638:C:/Users/lenovo/Desktop/liteos/Project2/BearPi_LiteOS/components/security/mbedtls/mbedtls-2.6.0/library\bignum.c ****      * Buffer should have space for (short) label and decimal formatted MPI,
 639:C:/Users/lenovo/Desktop/liteos/Project2/BearPi_LiteOS/components/security/mbedtls/mbedtls-2.6.0/library\bignum.c ****      * newline characters and '\0'
 640:C:/Users/lenovo/Desktop/liteos/Project2/BearPi_LiteOS/components/security/mbedtls/mbedtls-2.6.0/library\bignum.c ****      */
 641:C:/Users/lenovo/Desktop/liteos/Project2/BearPi_LiteOS/components/security/mbedtls/mbedtls-2.6.0/library\bignum.c ****     char s[ MBEDTLS_MPI_RW_BUFFER_SIZE ];
 642:C:/Users/lenovo/Desktop/liteos/Project2/BearPi_LiteOS/components/security/mbedtls/mbedtls-2.6.0/library\bignum.c **** 
 643:C:/Users/lenovo/Desktop/liteos/Project2/BearPi_LiteOS/components/security/mbedtls/mbedtls-2.6.0/library\bignum.c ****     memset( s, 0, sizeof( s ) );
 644:C:/Users/lenovo/Desktop/liteos/Project2/BearPi_LiteOS/components/security/mbedtls/mbedtls-2.6.0/library\bignum.c **** 
 645:C:/Users/lenovo/Desktop/liteos/Project2/BearPi_LiteOS/components/security/mbedtls/mbedtls-2.6.0/library\bignum.c ****     MBEDTLS_MPI_CHK( mbedtls_mpi_write_string( X, radix, s, sizeof( s ) - 2, &n ) );
 646:C:/Users/lenovo/Desktop/liteos/Project2/BearPi_LiteOS/components/security/mbedtls/mbedtls-2.6.0/library\bignum.c **** 
 647:C:/Users/lenovo/Desktop/liteos/Project2/BearPi_LiteOS/components/security/mbedtls/mbedtls-2.6.0/library\bignum.c ****     if( p == NULL ) p = "";
 648:C:/Users/lenovo/Desktop/liteos/Project2/BearPi_LiteOS/components/security/mbedtls/mbedtls-2.6.0/library\bignum.c **** 
 649:C:/Users/lenovo/Desktop/liteos/Project2/BearPi_LiteOS/components/security/mbedtls/mbedtls-2.6.0/library\bignum.c ****     plen = strlen( p );
 650:C:/Users/lenovo/Desktop/liteos/Project2/BearPi_LiteOS/components/security/mbedtls/mbedtls-2.6.0/library\bignum.c ****     slen = strlen( s );
 651:C:/Users/lenovo/Desktop/liteos/Project2/BearPi_LiteOS/components/security/mbedtls/mbedtls-2.6.0/library\bignum.c ****     s[slen++] = '\r';
 652:C:/Users/lenovo/Desktop/liteos/Project2/BearPi_LiteOS/components/security/mbedtls/mbedtls-2.6.0/library\bignum.c ****     s[slen++] = '\n';
 653:C:/Users/lenovo/Desktop/liteos/Project2/BearPi_LiteOS/components/security/mbedtls/mbedtls-2.6.0/library\bignum.c **** 
 654:C:/Users/lenovo/Desktop/liteos/Project2/BearPi_LiteOS/components/security/mbedtls/mbedtls-2.6.0/library\bignum.c ****     if( fout != NULL )
 655:C:/Users/lenovo/Desktop/liteos/Project2/BearPi_LiteOS/components/security/mbedtls/mbedtls-2.6.0/library\bignum.c ****     {
 656:C:/Users/lenovo/Desktop/liteos/Project2/BearPi_LiteOS/components/security/mbedtls/mbedtls-2.6.0/library\bignum.c ****         if( fwrite( p, 1, plen, fout ) != plen ||
 657:C:/Users/lenovo/Desktop/liteos/Project2/BearPi_LiteOS/components/security/mbedtls/mbedtls-2.6.0/library\bignum.c ****             fwrite( s, 1, slen, fout ) != slen )
 658:C:/Users/lenovo/Desktop/liteos/Project2/BearPi_LiteOS/components/security/mbedtls/mbedtls-2.6.0/library\bignum.c ****             return( MBEDTLS_ERR_MPI_FILE_IO_ERROR );
 659:C:/Users/lenovo/Desktop/liteos/Project2/BearPi_LiteOS/components/security/mbedtls/mbedtls-2.6.0/library\bignum.c ****     }
 660:C:/Users/lenovo/Desktop/liteos/Project2/BearPi_LiteOS/components/security/mbedtls/mbedtls-2.6.0/library\bignum.c ****     else
 661:C:/Users/lenovo/Desktop/liteos/Project2/BearPi_LiteOS/components/security/mbedtls/mbedtls-2.6.0/library\bignum.c ****         mbedtls_printf( "%s%s", p, s );
 662:C:/Users/lenovo/Desktop/liteos/Project2/BearPi_LiteOS/components/security/mbedtls/mbedtls-2.6.0/library\bignum.c **** 
 663:C:/Users/lenovo/Desktop/liteos/Project2/BearPi_LiteOS/components/security/mbedtls/mbedtls-2.6.0/library\bignum.c **** cleanup:
 664:C:/Users/lenovo/Desktop/liteos/Project2/BearPi_LiteOS/components/security/mbedtls/mbedtls-2.6.0/library\bignum.c **** 
 665:C:/Users/lenovo/Desktop/liteos/Project2/BearPi_LiteOS/components/security/mbedtls/mbedtls-2.6.0/library\bignum.c ****     return( ret );
 666:C:/Users/lenovo/Desktop/liteos/Project2/BearPi_LiteOS/components/security/mbedtls/mbedtls-2.6.0/library\bignum.c **** }
 667:C:/Users/lenovo/Desktop/liteos/Project2/BearPi_LiteOS/components/security/mbedtls/mbedtls-2.6.0/library\bignum.c **** #endif /* MBEDTLS_FS_IO */
 668:C:/Users/lenovo/Desktop/liteos/Project2/BearPi_LiteOS/components/security/mbedtls/mbedtls-2.6.0/library\bignum.c **** 
 669:C:/Users/lenovo/Desktop/liteos/Project2/BearPi_LiteOS/components/security/mbedtls/mbedtls-2.6.0/library\bignum.c **** /*
 670:C:/Users/lenovo/Desktop/liteos/Project2/BearPi_LiteOS/components/security/mbedtls/mbedtls-2.6.0/library\bignum.c ****  * Import X from unsigned binary data, big endian
 671:C:/Users/lenovo/Desktop/liteos/Project2/BearPi_LiteOS/components/security/mbedtls/mbedtls-2.6.0/library\bignum.c ****  */
 672:C:/Users/lenovo/Desktop/liteos/Project2/BearPi_LiteOS/components/security/mbedtls/mbedtls-2.6.0/library\bignum.c **** int mbedtls_mpi_read_binary( mbedtls_mpi *X, const unsigned char *buf, size_t buflen )
 673:C:/Users/lenovo/Desktop/liteos/Project2/BearPi_LiteOS/components/security/mbedtls/mbedtls-2.6.0/library\bignum.c **** {
 674:C:/Users/lenovo/Desktop/liteos/Project2/BearPi_LiteOS/components/security/mbedtls/mbedtls-2.6.0/library\bignum.c ****     int ret;
 675:C:/Users/lenovo/Desktop/liteos/Project2/BearPi_LiteOS/components/security/mbedtls/mbedtls-2.6.0/library\bignum.c ****     size_t i, j, n;
 676:C:/Users/lenovo/Desktop/liteos/Project2/BearPi_LiteOS/components/security/mbedtls/mbedtls-2.6.0/library\bignum.c **** 
 677:C:/Users/lenovo/Desktop/liteos/Project2/BearPi_LiteOS/components/security/mbedtls/mbedtls-2.6.0/library\bignum.c ****     for( n = 0; n < buflen; n++ )
 678:C:/Users/lenovo/Desktop/liteos/Project2/BearPi_LiteOS/components/security/mbedtls/mbedtls-2.6.0/library\bignum.c ****         if( buf[n] != 0 )
 679:C:/Users/lenovo/Desktop/liteos/Project2/BearPi_LiteOS/components/security/mbedtls/mbedtls-2.6.0/library\bignum.c ****             break;
 680:C:/Users/lenovo/Desktop/liteos/Project2/BearPi_LiteOS/components/security/mbedtls/mbedtls-2.6.0/library\bignum.c **** 
 681:C:/Users/lenovo/Desktop/liteos/Project2/BearPi_LiteOS/components/security/mbedtls/mbedtls-2.6.0/library\bignum.c ****     MBEDTLS_MPI_CHK( mbedtls_mpi_grow( X, CHARS_TO_LIMBS( buflen - n ) ) );
 682:C:/Users/lenovo/Desktop/liteos/Project2/BearPi_LiteOS/components/security/mbedtls/mbedtls-2.6.0/library\bignum.c ****     MBEDTLS_MPI_CHK( mbedtls_mpi_lset( X, 0 ) );
 683:C:/Users/lenovo/Desktop/liteos/Project2/BearPi_LiteOS/components/security/mbedtls/mbedtls-2.6.0/library\bignum.c **** 
 684:C:/Users/lenovo/Desktop/liteos/Project2/BearPi_LiteOS/components/security/mbedtls/mbedtls-2.6.0/library\bignum.c ****     for( i = buflen, j = 0; i > n; i--, j++ )
 685:C:/Users/lenovo/Desktop/liteos/Project2/BearPi_LiteOS/components/security/mbedtls/mbedtls-2.6.0/library\bignum.c ****         X->p[j / ciL] |= ((mbedtls_mpi_uint) buf[i - 1]) << ((j % ciL) << 3);
 686:C:/Users/lenovo/Desktop/liteos/Project2/BearPi_LiteOS/components/security/mbedtls/mbedtls-2.6.0/library\bignum.c **** 
 687:C:/Users/lenovo/Desktop/liteos/Project2/BearPi_LiteOS/components/security/mbedtls/mbedtls-2.6.0/library\bignum.c **** cleanup:
 688:C:/Users/lenovo/Desktop/liteos/Project2/BearPi_LiteOS/components/security/mbedtls/mbedtls-2.6.0/library\bignum.c **** 
 689:C:/Users/lenovo/Desktop/liteos/Project2/BearPi_LiteOS/components/security/mbedtls/mbedtls-2.6.0/library\bignum.c ****     return( ret );
 690:C:/Users/lenovo/Desktop/liteos/Project2/BearPi_LiteOS/components/security/mbedtls/mbedtls-2.6.0/library\bignum.c **** }
 691:C:/Users/lenovo/Desktop/liteos/Project2/BearPi_LiteOS/components/security/mbedtls/mbedtls-2.6.0/library\bignum.c **** 
ARM GAS  c:\Users\lenovo\AppData\Local\Temp\ccjcyTZ0.s 			page 16


 692:C:/Users/lenovo/Desktop/liteos/Project2/BearPi_LiteOS/components/security/mbedtls/mbedtls-2.6.0/library\bignum.c **** /*
 693:C:/Users/lenovo/Desktop/liteos/Project2/BearPi_LiteOS/components/security/mbedtls/mbedtls-2.6.0/library\bignum.c ****  * Export X into unsigned binary data, big endian
 694:C:/Users/lenovo/Desktop/liteos/Project2/BearPi_LiteOS/components/security/mbedtls/mbedtls-2.6.0/library\bignum.c ****  */
 695:C:/Users/lenovo/Desktop/liteos/Project2/BearPi_LiteOS/components/security/mbedtls/mbedtls-2.6.0/library\bignum.c **** int mbedtls_mpi_write_binary( const mbedtls_mpi *X, unsigned char *buf, size_t buflen )
 696:C:/Users/lenovo/Desktop/liteos/Project2/BearPi_LiteOS/components/security/mbedtls/mbedtls-2.6.0/library\bignum.c **** {
 697:C:/Users/lenovo/Desktop/liteos/Project2/BearPi_LiteOS/components/security/mbedtls/mbedtls-2.6.0/library\bignum.c ****     size_t i, j, n;
 698:C:/Users/lenovo/Desktop/liteos/Project2/BearPi_LiteOS/components/security/mbedtls/mbedtls-2.6.0/library\bignum.c **** 
 699:C:/Users/lenovo/Desktop/liteos/Project2/BearPi_LiteOS/components/security/mbedtls/mbedtls-2.6.0/library\bignum.c ****     n = mbedtls_mpi_size( X );
 700:C:/Users/lenovo/Desktop/liteos/Project2/BearPi_LiteOS/components/security/mbedtls/mbedtls-2.6.0/library\bignum.c **** 
 701:C:/Users/lenovo/Desktop/liteos/Project2/BearPi_LiteOS/components/security/mbedtls/mbedtls-2.6.0/library\bignum.c ****     if( buflen < n )
 702:C:/Users/lenovo/Desktop/liteos/Project2/BearPi_LiteOS/components/security/mbedtls/mbedtls-2.6.0/library\bignum.c ****         return( MBEDTLS_ERR_MPI_BUFFER_TOO_SMALL );
 703:C:/Users/lenovo/Desktop/liteos/Project2/BearPi_LiteOS/components/security/mbedtls/mbedtls-2.6.0/library\bignum.c **** 
 704:C:/Users/lenovo/Desktop/liteos/Project2/BearPi_LiteOS/components/security/mbedtls/mbedtls-2.6.0/library\bignum.c ****     memset( buf, 0, buflen );
 705:C:/Users/lenovo/Desktop/liteos/Project2/BearPi_LiteOS/components/security/mbedtls/mbedtls-2.6.0/library\bignum.c **** 
 706:C:/Users/lenovo/Desktop/liteos/Project2/BearPi_LiteOS/components/security/mbedtls/mbedtls-2.6.0/library\bignum.c ****     for( i = buflen - 1, j = 0; n > 0; i--, j++, n-- )
 707:C:/Users/lenovo/Desktop/liteos/Project2/BearPi_LiteOS/components/security/mbedtls/mbedtls-2.6.0/library\bignum.c ****         buf[i] = (unsigned char)( X->p[j / ciL] >> ((j % ciL) << 3) );
 708:C:/Users/lenovo/Desktop/liteos/Project2/BearPi_LiteOS/components/security/mbedtls/mbedtls-2.6.0/library\bignum.c **** 
 709:C:/Users/lenovo/Desktop/liteos/Project2/BearPi_LiteOS/components/security/mbedtls/mbedtls-2.6.0/library\bignum.c ****     return( 0 );
 710:C:/Users/lenovo/Desktop/liteos/Project2/BearPi_LiteOS/components/security/mbedtls/mbedtls-2.6.0/library\bignum.c **** }
 711:C:/Users/lenovo/Desktop/liteos/Project2/BearPi_LiteOS/components/security/mbedtls/mbedtls-2.6.0/library\bignum.c **** 
 712:C:/Users/lenovo/Desktop/liteos/Project2/BearPi_LiteOS/components/security/mbedtls/mbedtls-2.6.0/library\bignum.c **** /*
 713:C:/Users/lenovo/Desktop/liteos/Project2/BearPi_LiteOS/components/security/mbedtls/mbedtls-2.6.0/library\bignum.c ****  * Left-shift: X <<= count
 714:C:/Users/lenovo/Desktop/liteos/Project2/BearPi_LiteOS/components/security/mbedtls/mbedtls-2.6.0/library\bignum.c ****  */
 715:C:/Users/lenovo/Desktop/liteos/Project2/BearPi_LiteOS/components/security/mbedtls/mbedtls-2.6.0/library\bignum.c **** int mbedtls_mpi_shift_l( mbedtls_mpi *X, size_t count )
 716:C:/Users/lenovo/Desktop/liteos/Project2/BearPi_LiteOS/components/security/mbedtls/mbedtls-2.6.0/library\bignum.c **** {
 717:C:/Users/lenovo/Desktop/liteos/Project2/BearPi_LiteOS/components/security/mbedtls/mbedtls-2.6.0/library\bignum.c ****     int ret;
 718:C:/Users/lenovo/Desktop/liteos/Project2/BearPi_LiteOS/components/security/mbedtls/mbedtls-2.6.0/library\bignum.c ****     size_t i, v0, t1;
 719:C:/Users/lenovo/Desktop/liteos/Project2/BearPi_LiteOS/components/security/mbedtls/mbedtls-2.6.0/library\bignum.c ****     mbedtls_mpi_uint r0 = 0, r1;
 720:C:/Users/lenovo/Desktop/liteos/Project2/BearPi_LiteOS/components/security/mbedtls/mbedtls-2.6.0/library\bignum.c **** 
 721:C:/Users/lenovo/Desktop/liteos/Project2/BearPi_LiteOS/components/security/mbedtls/mbedtls-2.6.0/library\bignum.c ****     v0 = count / (biL    );
 722:C:/Users/lenovo/Desktop/liteos/Project2/BearPi_LiteOS/components/security/mbedtls/mbedtls-2.6.0/library\bignum.c ****     t1 = count & (biL - 1);
 723:C:/Users/lenovo/Desktop/liteos/Project2/BearPi_LiteOS/components/security/mbedtls/mbedtls-2.6.0/library\bignum.c **** 
 724:C:/Users/lenovo/Desktop/liteos/Project2/BearPi_LiteOS/components/security/mbedtls/mbedtls-2.6.0/library\bignum.c ****     i = mbedtls_mpi_bitlen( X ) + count;
 725:C:/Users/lenovo/Desktop/liteos/Project2/BearPi_LiteOS/components/security/mbedtls/mbedtls-2.6.0/library\bignum.c **** 
 726:C:/Users/lenovo/Desktop/liteos/Project2/BearPi_LiteOS/components/security/mbedtls/mbedtls-2.6.0/library\bignum.c ****     if( X->n * biL < i )
 727:C:/Users/lenovo/Desktop/liteos/Project2/BearPi_LiteOS/components/security/mbedtls/mbedtls-2.6.0/library\bignum.c ****         MBEDTLS_MPI_CHK( mbedtls_mpi_grow( X, BITS_TO_LIMBS( i ) ) );
 728:C:/Users/lenovo/Desktop/liteos/Project2/BearPi_LiteOS/components/security/mbedtls/mbedtls-2.6.0/library\bignum.c **** 
 729:C:/Users/lenovo/Desktop/liteos/Project2/BearPi_LiteOS/components/security/mbedtls/mbedtls-2.6.0/library\bignum.c ****     ret = 0;
 730:C:/Users/lenovo/Desktop/liteos/Project2/BearPi_LiteOS/components/security/mbedtls/mbedtls-2.6.0/library\bignum.c **** 
 731:C:/Users/lenovo/Desktop/liteos/Project2/BearPi_LiteOS/components/security/mbedtls/mbedtls-2.6.0/library\bignum.c ****     /*
 732:C:/Users/lenovo/Desktop/liteos/Project2/BearPi_LiteOS/components/security/mbedtls/mbedtls-2.6.0/library\bignum.c ****      * shift by count / limb_size
 733:C:/Users/lenovo/Desktop/liteos/Project2/BearPi_LiteOS/components/security/mbedtls/mbedtls-2.6.0/library\bignum.c ****      */
 734:C:/Users/lenovo/Desktop/liteos/Project2/BearPi_LiteOS/components/security/mbedtls/mbedtls-2.6.0/library\bignum.c ****     if( v0 > 0 )
 735:C:/Users/lenovo/Desktop/liteos/Project2/BearPi_LiteOS/components/security/mbedtls/mbedtls-2.6.0/library\bignum.c ****     {
 736:C:/Users/lenovo/Desktop/liteos/Project2/BearPi_LiteOS/components/security/mbedtls/mbedtls-2.6.0/library\bignum.c ****         for( i = X->n; i > v0; i-- )
 737:C:/Users/lenovo/Desktop/liteos/Project2/BearPi_LiteOS/components/security/mbedtls/mbedtls-2.6.0/library\bignum.c ****             X->p[i - 1] = X->p[i - v0 - 1];
 738:C:/Users/lenovo/Desktop/liteos/Project2/BearPi_LiteOS/components/security/mbedtls/mbedtls-2.6.0/library\bignum.c **** 
 739:C:/Users/lenovo/Desktop/liteos/Project2/BearPi_LiteOS/components/security/mbedtls/mbedtls-2.6.0/library\bignum.c ****         for( ; i > 0; i-- )
 740:C:/Users/lenovo/Desktop/liteos/Project2/BearPi_LiteOS/components/security/mbedtls/mbedtls-2.6.0/library\bignum.c ****             X->p[i - 1] = 0;
 741:C:/Users/lenovo/Desktop/liteos/Project2/BearPi_LiteOS/components/security/mbedtls/mbedtls-2.6.0/library\bignum.c ****     }
 742:C:/Users/lenovo/Desktop/liteos/Project2/BearPi_LiteOS/components/security/mbedtls/mbedtls-2.6.0/library\bignum.c **** 
 743:C:/Users/lenovo/Desktop/liteos/Project2/BearPi_LiteOS/components/security/mbedtls/mbedtls-2.6.0/library\bignum.c ****     /*
 744:C:/Users/lenovo/Desktop/liteos/Project2/BearPi_LiteOS/components/security/mbedtls/mbedtls-2.6.0/library\bignum.c ****      * shift by count % limb_size
 745:C:/Users/lenovo/Desktop/liteos/Project2/BearPi_LiteOS/components/security/mbedtls/mbedtls-2.6.0/library\bignum.c ****      */
 746:C:/Users/lenovo/Desktop/liteos/Project2/BearPi_LiteOS/components/security/mbedtls/mbedtls-2.6.0/library\bignum.c ****     if( t1 > 0 )
 747:C:/Users/lenovo/Desktop/liteos/Project2/BearPi_LiteOS/components/security/mbedtls/mbedtls-2.6.0/library\bignum.c ****     {
 748:C:/Users/lenovo/Desktop/liteos/Project2/BearPi_LiteOS/components/security/mbedtls/mbedtls-2.6.0/library\bignum.c ****         for( i = v0; i < X->n; i++ )
ARM GAS  c:\Users\lenovo\AppData\Local\Temp\ccjcyTZ0.s 			page 17


 749:C:/Users/lenovo/Desktop/liteos/Project2/BearPi_LiteOS/components/security/mbedtls/mbedtls-2.6.0/library\bignum.c ****         {
 750:C:/Users/lenovo/Desktop/liteos/Project2/BearPi_LiteOS/components/security/mbedtls/mbedtls-2.6.0/library\bignum.c ****             r1 = X->p[i] >> (biL - t1);
 751:C:/Users/lenovo/Desktop/liteos/Project2/BearPi_LiteOS/components/security/mbedtls/mbedtls-2.6.0/library\bignum.c ****             X->p[i] <<= t1;
 752:C:/Users/lenovo/Desktop/liteos/Project2/BearPi_LiteOS/components/security/mbedtls/mbedtls-2.6.0/library\bignum.c ****             X->p[i] |= r0;
 753:C:/Users/lenovo/Desktop/liteos/Project2/BearPi_LiteOS/components/security/mbedtls/mbedtls-2.6.0/library\bignum.c ****             r0 = r1;
 754:C:/Users/lenovo/Desktop/liteos/Project2/BearPi_LiteOS/components/security/mbedtls/mbedtls-2.6.0/library\bignum.c ****         }
 755:C:/Users/lenovo/Desktop/liteos/Project2/BearPi_LiteOS/components/security/mbedtls/mbedtls-2.6.0/library\bignum.c ****     }
 756:C:/Users/lenovo/Desktop/liteos/Project2/BearPi_LiteOS/components/security/mbedtls/mbedtls-2.6.0/library\bignum.c **** 
 757:C:/Users/lenovo/Desktop/liteos/Project2/BearPi_LiteOS/components/security/mbedtls/mbedtls-2.6.0/library\bignum.c **** cleanup:
 758:C:/Users/lenovo/Desktop/liteos/Project2/BearPi_LiteOS/components/security/mbedtls/mbedtls-2.6.0/library\bignum.c **** 
 759:C:/Users/lenovo/Desktop/liteos/Project2/BearPi_LiteOS/components/security/mbedtls/mbedtls-2.6.0/library\bignum.c ****     return( ret );
 760:C:/Users/lenovo/Desktop/liteos/Project2/BearPi_LiteOS/components/security/mbedtls/mbedtls-2.6.0/library\bignum.c **** }
 761:C:/Users/lenovo/Desktop/liteos/Project2/BearPi_LiteOS/components/security/mbedtls/mbedtls-2.6.0/library\bignum.c **** 
 762:C:/Users/lenovo/Desktop/liteos/Project2/BearPi_LiteOS/components/security/mbedtls/mbedtls-2.6.0/library\bignum.c **** /*
 763:C:/Users/lenovo/Desktop/liteos/Project2/BearPi_LiteOS/components/security/mbedtls/mbedtls-2.6.0/library\bignum.c ****  * Right-shift: X >>= count
 764:C:/Users/lenovo/Desktop/liteos/Project2/BearPi_LiteOS/components/security/mbedtls/mbedtls-2.6.0/library\bignum.c ****  */
 765:C:/Users/lenovo/Desktop/liteos/Project2/BearPi_LiteOS/components/security/mbedtls/mbedtls-2.6.0/library\bignum.c **** int mbedtls_mpi_shift_r( mbedtls_mpi *X, size_t count )
 766:C:/Users/lenovo/Desktop/liteos/Project2/BearPi_LiteOS/components/security/mbedtls/mbedtls-2.6.0/library\bignum.c **** {
 767:C:/Users/lenovo/Desktop/liteos/Project2/BearPi_LiteOS/components/security/mbedtls/mbedtls-2.6.0/library\bignum.c ****     size_t i, v0, v1;
 768:C:/Users/lenovo/Desktop/liteos/Project2/BearPi_LiteOS/components/security/mbedtls/mbedtls-2.6.0/library\bignum.c ****     mbedtls_mpi_uint r0 = 0, r1;
 769:C:/Users/lenovo/Desktop/liteos/Project2/BearPi_LiteOS/components/security/mbedtls/mbedtls-2.6.0/library\bignum.c **** 
 770:C:/Users/lenovo/Desktop/liteos/Project2/BearPi_LiteOS/components/security/mbedtls/mbedtls-2.6.0/library\bignum.c ****     v0 = count /  biL;
 771:C:/Users/lenovo/Desktop/liteos/Project2/BearPi_LiteOS/components/security/mbedtls/mbedtls-2.6.0/library\bignum.c ****     v1 = count & (biL - 1);
 772:C:/Users/lenovo/Desktop/liteos/Project2/BearPi_LiteOS/components/security/mbedtls/mbedtls-2.6.0/library\bignum.c **** 
 773:C:/Users/lenovo/Desktop/liteos/Project2/BearPi_LiteOS/components/security/mbedtls/mbedtls-2.6.0/library\bignum.c ****     if( v0 > X->n || ( v0 == X->n && v1 > 0 ) )
 774:C:/Users/lenovo/Desktop/liteos/Project2/BearPi_LiteOS/components/security/mbedtls/mbedtls-2.6.0/library\bignum.c ****         return mbedtls_mpi_lset( X, 0 );
 775:C:/Users/lenovo/Desktop/liteos/Project2/BearPi_LiteOS/components/security/mbedtls/mbedtls-2.6.0/library\bignum.c **** 
 776:C:/Users/lenovo/Desktop/liteos/Project2/BearPi_LiteOS/components/security/mbedtls/mbedtls-2.6.0/library\bignum.c ****     /*
 777:C:/Users/lenovo/Desktop/liteos/Project2/BearPi_LiteOS/components/security/mbedtls/mbedtls-2.6.0/library\bignum.c ****      * shift by count / limb_size
 778:C:/Users/lenovo/Desktop/liteos/Project2/BearPi_LiteOS/components/security/mbedtls/mbedtls-2.6.0/library\bignum.c ****      */
 779:C:/Users/lenovo/Desktop/liteos/Project2/BearPi_LiteOS/components/security/mbedtls/mbedtls-2.6.0/library\bignum.c ****     if( v0 > 0 )
 780:C:/Users/lenovo/Desktop/liteos/Project2/BearPi_LiteOS/components/security/mbedtls/mbedtls-2.6.0/library\bignum.c ****     {
 781:C:/Users/lenovo/Desktop/liteos/Project2/BearPi_LiteOS/components/security/mbedtls/mbedtls-2.6.0/library\bignum.c ****         for( i = 0; i < X->n - v0; i++ )
 782:C:/Users/lenovo/Desktop/liteos/Project2/BearPi_LiteOS/components/security/mbedtls/mbedtls-2.6.0/library\bignum.c ****             X->p[i] = X->p[i + v0];
 783:C:/Users/lenovo/Desktop/liteos/Project2/BearPi_LiteOS/components/security/mbedtls/mbedtls-2.6.0/library\bignum.c **** 
 784:C:/Users/lenovo/Desktop/liteos/Project2/BearPi_LiteOS/components/security/mbedtls/mbedtls-2.6.0/library\bignum.c ****         for( ; i < X->n; i++ )
 785:C:/Users/lenovo/Desktop/liteos/Project2/BearPi_LiteOS/components/security/mbedtls/mbedtls-2.6.0/library\bignum.c ****             X->p[i] = 0;
 786:C:/Users/lenovo/Desktop/liteos/Project2/BearPi_LiteOS/components/security/mbedtls/mbedtls-2.6.0/library\bignum.c ****     }
 787:C:/Users/lenovo/Desktop/liteos/Project2/BearPi_LiteOS/components/security/mbedtls/mbedtls-2.6.0/library\bignum.c **** 
 788:C:/Users/lenovo/Desktop/liteos/Project2/BearPi_LiteOS/components/security/mbedtls/mbedtls-2.6.0/library\bignum.c ****     /*
 789:C:/Users/lenovo/Desktop/liteos/Project2/BearPi_LiteOS/components/security/mbedtls/mbedtls-2.6.0/library\bignum.c ****      * shift by count % limb_size
 790:C:/Users/lenovo/Desktop/liteos/Project2/BearPi_LiteOS/components/security/mbedtls/mbedtls-2.6.0/library\bignum.c ****      */
 791:C:/Users/lenovo/Desktop/liteos/Project2/BearPi_LiteOS/components/security/mbedtls/mbedtls-2.6.0/library\bignum.c ****     if( v1 > 0 )
 792:C:/Users/lenovo/Desktop/liteos/Project2/BearPi_LiteOS/components/security/mbedtls/mbedtls-2.6.0/library\bignum.c ****     {
 793:C:/Users/lenovo/Desktop/liteos/Project2/BearPi_LiteOS/components/security/mbedtls/mbedtls-2.6.0/library\bignum.c ****         for( i = X->n; i > 0; i-- )
 794:C:/Users/lenovo/Desktop/liteos/Project2/BearPi_LiteOS/components/security/mbedtls/mbedtls-2.6.0/library\bignum.c ****         {
 795:C:/Users/lenovo/Desktop/liteos/Project2/BearPi_LiteOS/components/security/mbedtls/mbedtls-2.6.0/library\bignum.c ****             r1 = X->p[i - 1] << (biL - v1);
 796:C:/Users/lenovo/Desktop/liteos/Project2/BearPi_LiteOS/components/security/mbedtls/mbedtls-2.6.0/library\bignum.c ****             X->p[i - 1] >>= v1;
 797:C:/Users/lenovo/Desktop/liteos/Project2/BearPi_LiteOS/components/security/mbedtls/mbedtls-2.6.0/library\bignum.c ****             X->p[i - 1] |= r0;
 798:C:/Users/lenovo/Desktop/liteos/Project2/BearPi_LiteOS/components/security/mbedtls/mbedtls-2.6.0/library\bignum.c ****             r0 = r1;
 799:C:/Users/lenovo/Desktop/liteos/Project2/BearPi_LiteOS/components/security/mbedtls/mbedtls-2.6.0/library\bignum.c ****         }
 800:C:/Users/lenovo/Desktop/liteos/Project2/BearPi_LiteOS/components/security/mbedtls/mbedtls-2.6.0/library\bignum.c ****     }
 801:C:/Users/lenovo/Desktop/liteos/Project2/BearPi_LiteOS/components/security/mbedtls/mbedtls-2.6.0/library\bignum.c **** 
 802:C:/Users/lenovo/Desktop/liteos/Project2/BearPi_LiteOS/components/security/mbedtls/mbedtls-2.6.0/library\bignum.c ****     return( 0 );
 803:C:/Users/lenovo/Desktop/liteos/Project2/BearPi_LiteOS/components/security/mbedtls/mbedtls-2.6.0/library\bignum.c **** }
 804:C:/Users/lenovo/Desktop/liteos/Project2/BearPi_LiteOS/components/security/mbedtls/mbedtls-2.6.0/library\bignum.c **** 
 805:C:/Users/lenovo/Desktop/liteos/Project2/BearPi_LiteOS/components/security/mbedtls/mbedtls-2.6.0/library\bignum.c **** /*
ARM GAS  c:\Users\lenovo\AppData\Local\Temp\ccjcyTZ0.s 			page 18


 806:C:/Users/lenovo/Desktop/liteos/Project2/BearPi_LiteOS/components/security/mbedtls/mbedtls-2.6.0/library\bignum.c ****  * Compare unsigned values
 807:C:/Users/lenovo/Desktop/liteos/Project2/BearPi_LiteOS/components/security/mbedtls/mbedtls-2.6.0/library\bignum.c ****  */
 808:C:/Users/lenovo/Desktop/liteos/Project2/BearPi_LiteOS/components/security/mbedtls/mbedtls-2.6.0/library\bignum.c **** int mbedtls_mpi_cmp_abs( const mbedtls_mpi *X, const mbedtls_mpi *Y )
 809:C:/Users/lenovo/Desktop/liteos/Project2/BearPi_LiteOS/components/security/mbedtls/mbedtls-2.6.0/library\bignum.c **** {
 810:C:/Users/lenovo/Desktop/liteos/Project2/BearPi_LiteOS/components/security/mbedtls/mbedtls-2.6.0/library\bignum.c ****     size_t i, j;
 811:C:/Users/lenovo/Desktop/liteos/Project2/BearPi_LiteOS/components/security/mbedtls/mbedtls-2.6.0/library\bignum.c **** 
 812:C:/Users/lenovo/Desktop/liteos/Project2/BearPi_LiteOS/components/security/mbedtls/mbedtls-2.6.0/library\bignum.c ****     for( i = X->n; i > 0; i-- )
 813:C:/Users/lenovo/Desktop/liteos/Project2/BearPi_LiteOS/components/security/mbedtls/mbedtls-2.6.0/library\bignum.c ****         if( X->p[i - 1] != 0 )
 814:C:/Users/lenovo/Desktop/liteos/Project2/BearPi_LiteOS/components/security/mbedtls/mbedtls-2.6.0/library\bignum.c ****             break;
 815:C:/Users/lenovo/Desktop/liteos/Project2/BearPi_LiteOS/components/security/mbedtls/mbedtls-2.6.0/library\bignum.c **** 
 816:C:/Users/lenovo/Desktop/liteos/Project2/BearPi_LiteOS/components/security/mbedtls/mbedtls-2.6.0/library\bignum.c ****     for( j = Y->n; j > 0; j-- )
 817:C:/Users/lenovo/Desktop/liteos/Project2/BearPi_LiteOS/components/security/mbedtls/mbedtls-2.6.0/library\bignum.c ****         if( Y->p[j - 1] != 0 )
 818:C:/Users/lenovo/Desktop/liteos/Project2/BearPi_LiteOS/components/security/mbedtls/mbedtls-2.6.0/library\bignum.c ****             break;
 819:C:/Users/lenovo/Desktop/liteos/Project2/BearPi_LiteOS/components/security/mbedtls/mbedtls-2.6.0/library\bignum.c **** 
 820:C:/Users/lenovo/Desktop/liteos/Project2/BearPi_LiteOS/components/security/mbedtls/mbedtls-2.6.0/library\bignum.c ****     if( i == 0 && j == 0 )
 821:C:/Users/lenovo/Desktop/liteos/Project2/BearPi_LiteOS/components/security/mbedtls/mbedtls-2.6.0/library\bignum.c ****         return( 0 );
 822:C:/Users/lenovo/Desktop/liteos/Project2/BearPi_LiteOS/components/security/mbedtls/mbedtls-2.6.0/library\bignum.c **** 
 823:C:/Users/lenovo/Desktop/liteos/Project2/BearPi_LiteOS/components/security/mbedtls/mbedtls-2.6.0/library\bignum.c ****     if( i > j ) return(  1 );
 824:C:/Users/lenovo/Desktop/liteos/Project2/BearPi_LiteOS/components/security/mbedtls/mbedtls-2.6.0/library\bignum.c ****     if( j > i ) return( -1 );
 825:C:/Users/lenovo/Desktop/liteos/Project2/BearPi_LiteOS/components/security/mbedtls/mbedtls-2.6.0/library\bignum.c **** 
 826:C:/Users/lenovo/Desktop/liteos/Project2/BearPi_LiteOS/components/security/mbedtls/mbedtls-2.6.0/library\bignum.c ****     for( ; i > 0; i-- )
 827:C:/Users/lenovo/Desktop/liteos/Project2/BearPi_LiteOS/components/security/mbedtls/mbedtls-2.6.0/library\bignum.c ****     {
 828:C:/Users/lenovo/Desktop/liteos/Project2/BearPi_LiteOS/components/security/mbedtls/mbedtls-2.6.0/library\bignum.c ****         if( X->p[i - 1] > Y->p[i - 1] ) return(  1 );
 829:C:/Users/lenovo/Desktop/liteos/Project2/BearPi_LiteOS/components/security/mbedtls/mbedtls-2.6.0/library\bignum.c ****         if( X->p[i - 1] < Y->p[i - 1] ) return( -1 );
 830:C:/Users/lenovo/Desktop/liteos/Project2/BearPi_LiteOS/components/security/mbedtls/mbedtls-2.6.0/library\bignum.c ****     }
 831:C:/Users/lenovo/Desktop/liteos/Project2/BearPi_LiteOS/components/security/mbedtls/mbedtls-2.6.0/library\bignum.c **** 
 832:C:/Users/lenovo/Desktop/liteos/Project2/BearPi_LiteOS/components/security/mbedtls/mbedtls-2.6.0/library\bignum.c ****     return( 0 );
 833:C:/Users/lenovo/Desktop/liteos/Project2/BearPi_LiteOS/components/security/mbedtls/mbedtls-2.6.0/library\bignum.c **** }
 834:C:/Users/lenovo/Desktop/liteos/Project2/BearPi_LiteOS/components/security/mbedtls/mbedtls-2.6.0/library\bignum.c **** 
 835:C:/Users/lenovo/Desktop/liteos/Project2/BearPi_LiteOS/components/security/mbedtls/mbedtls-2.6.0/library\bignum.c **** /*
 836:C:/Users/lenovo/Desktop/liteos/Project2/BearPi_LiteOS/components/security/mbedtls/mbedtls-2.6.0/library\bignum.c ****  * Compare signed values
 837:C:/Users/lenovo/Desktop/liteos/Project2/BearPi_LiteOS/components/security/mbedtls/mbedtls-2.6.0/library\bignum.c ****  */
 838:C:/Users/lenovo/Desktop/liteos/Project2/BearPi_LiteOS/components/security/mbedtls/mbedtls-2.6.0/library\bignum.c **** int mbedtls_mpi_cmp_mpi( const mbedtls_mpi *X, const mbedtls_mpi *Y )
 839:C:/Users/lenovo/Desktop/liteos/Project2/BearPi_LiteOS/components/security/mbedtls/mbedtls-2.6.0/library\bignum.c **** {
 840:C:/Users/lenovo/Desktop/liteos/Project2/BearPi_LiteOS/components/security/mbedtls/mbedtls-2.6.0/library\bignum.c ****     size_t i, j;
 841:C:/Users/lenovo/Desktop/liteos/Project2/BearPi_LiteOS/components/security/mbedtls/mbedtls-2.6.0/library\bignum.c **** 
 842:C:/Users/lenovo/Desktop/liteos/Project2/BearPi_LiteOS/components/security/mbedtls/mbedtls-2.6.0/library\bignum.c ****     for( i = X->n; i > 0; i-- )
 843:C:/Users/lenovo/Desktop/liteos/Project2/BearPi_LiteOS/components/security/mbedtls/mbedtls-2.6.0/library\bignum.c ****         if( X->p[i - 1] != 0 )
 844:C:/Users/lenovo/Desktop/liteos/Project2/BearPi_LiteOS/components/security/mbedtls/mbedtls-2.6.0/library\bignum.c ****             break;
 845:C:/Users/lenovo/Desktop/liteos/Project2/BearPi_LiteOS/components/security/mbedtls/mbedtls-2.6.0/library\bignum.c **** 
 846:C:/Users/lenovo/Desktop/liteos/Project2/BearPi_LiteOS/components/security/mbedtls/mbedtls-2.6.0/library\bignum.c ****     for( j = Y->n; j > 0; j-- )
 847:C:/Users/lenovo/Desktop/liteos/Project2/BearPi_LiteOS/components/security/mbedtls/mbedtls-2.6.0/library\bignum.c ****         if( Y->p[j - 1] != 0 )
 848:C:/Users/lenovo/Desktop/liteos/Project2/BearPi_LiteOS/components/security/mbedtls/mbedtls-2.6.0/library\bignum.c ****             break;
 849:C:/Users/lenovo/Desktop/liteos/Project2/BearPi_LiteOS/components/security/mbedtls/mbedtls-2.6.0/library\bignum.c **** 
 850:C:/Users/lenovo/Desktop/liteos/Project2/BearPi_LiteOS/components/security/mbedtls/mbedtls-2.6.0/library\bignum.c ****     if( i == 0 && j == 0 )
 851:C:/Users/lenovo/Desktop/liteos/Project2/BearPi_LiteOS/components/security/mbedtls/mbedtls-2.6.0/library\bignum.c ****         return( 0 );
 852:C:/Users/lenovo/Desktop/liteos/Project2/BearPi_LiteOS/components/security/mbedtls/mbedtls-2.6.0/library\bignum.c **** 
 853:C:/Users/lenovo/Desktop/liteos/Project2/BearPi_LiteOS/components/security/mbedtls/mbedtls-2.6.0/library\bignum.c ****     if( i > j ) return(  X->s );
 854:C:/Users/lenovo/Desktop/liteos/Project2/BearPi_LiteOS/components/security/mbedtls/mbedtls-2.6.0/library\bignum.c ****     if( j > i ) return( -Y->s );
 855:C:/Users/lenovo/Desktop/liteos/Project2/BearPi_LiteOS/components/security/mbedtls/mbedtls-2.6.0/library\bignum.c **** 
 856:C:/Users/lenovo/Desktop/liteos/Project2/BearPi_LiteOS/components/security/mbedtls/mbedtls-2.6.0/library\bignum.c ****     if( X->s > 0 && Y->s < 0 ) return(  1 );
 857:C:/Users/lenovo/Desktop/liteos/Project2/BearPi_LiteOS/components/security/mbedtls/mbedtls-2.6.0/library\bignum.c ****     if( Y->s > 0 && X->s < 0 ) return( -1 );
 858:C:/Users/lenovo/Desktop/liteos/Project2/BearPi_LiteOS/components/security/mbedtls/mbedtls-2.6.0/library\bignum.c **** 
 859:C:/Users/lenovo/Desktop/liteos/Project2/BearPi_LiteOS/components/security/mbedtls/mbedtls-2.6.0/library\bignum.c ****     for( ; i > 0; i-- )
 860:C:/Users/lenovo/Desktop/liteos/Project2/BearPi_LiteOS/components/security/mbedtls/mbedtls-2.6.0/library\bignum.c ****     {
 861:C:/Users/lenovo/Desktop/liteos/Project2/BearPi_LiteOS/components/security/mbedtls/mbedtls-2.6.0/library\bignum.c ****         if( X->p[i - 1] > Y->p[i - 1] ) return(  X->s );
 862:C:/Users/lenovo/Desktop/liteos/Project2/BearPi_LiteOS/components/security/mbedtls/mbedtls-2.6.0/library\bignum.c ****         if( X->p[i - 1] < Y->p[i - 1] ) return( -X->s );
ARM GAS  c:\Users\lenovo\AppData\Local\Temp\ccjcyTZ0.s 			page 19


 863:C:/Users/lenovo/Desktop/liteos/Project2/BearPi_LiteOS/components/security/mbedtls/mbedtls-2.6.0/library\bignum.c ****     }
 864:C:/Users/lenovo/Desktop/liteos/Project2/BearPi_LiteOS/components/security/mbedtls/mbedtls-2.6.0/library\bignum.c **** 
 865:C:/Users/lenovo/Desktop/liteos/Project2/BearPi_LiteOS/components/security/mbedtls/mbedtls-2.6.0/library\bignum.c ****     return( 0 );
 866:C:/Users/lenovo/Desktop/liteos/Project2/BearPi_LiteOS/components/security/mbedtls/mbedtls-2.6.0/library\bignum.c **** }
 867:C:/Users/lenovo/Desktop/liteos/Project2/BearPi_LiteOS/components/security/mbedtls/mbedtls-2.6.0/library\bignum.c **** 
 868:C:/Users/lenovo/Desktop/liteos/Project2/BearPi_LiteOS/components/security/mbedtls/mbedtls-2.6.0/library\bignum.c **** /*
 869:C:/Users/lenovo/Desktop/liteos/Project2/BearPi_LiteOS/components/security/mbedtls/mbedtls-2.6.0/library\bignum.c ****  * Compare signed values
 870:C:/Users/lenovo/Desktop/liteos/Project2/BearPi_LiteOS/components/security/mbedtls/mbedtls-2.6.0/library\bignum.c ****  */
 871:C:/Users/lenovo/Desktop/liteos/Project2/BearPi_LiteOS/components/security/mbedtls/mbedtls-2.6.0/library\bignum.c **** int mbedtls_mpi_cmp_int( const mbedtls_mpi *X, mbedtls_mpi_sint z )
 872:C:/Users/lenovo/Desktop/liteos/Project2/BearPi_LiteOS/components/security/mbedtls/mbedtls-2.6.0/library\bignum.c **** {
 873:C:/Users/lenovo/Desktop/liteos/Project2/BearPi_LiteOS/components/security/mbedtls/mbedtls-2.6.0/library\bignum.c ****     mbedtls_mpi Y;
 874:C:/Users/lenovo/Desktop/liteos/Project2/BearPi_LiteOS/components/security/mbedtls/mbedtls-2.6.0/library\bignum.c ****     mbedtls_mpi_uint p[1];
 875:C:/Users/lenovo/Desktop/liteos/Project2/BearPi_LiteOS/components/security/mbedtls/mbedtls-2.6.0/library\bignum.c **** 
 876:C:/Users/lenovo/Desktop/liteos/Project2/BearPi_LiteOS/components/security/mbedtls/mbedtls-2.6.0/library\bignum.c ****     *p  = ( z < 0 ) ? -z : z;
 877:C:/Users/lenovo/Desktop/liteos/Project2/BearPi_LiteOS/components/security/mbedtls/mbedtls-2.6.0/library\bignum.c ****     Y.s = ( z < 0 ) ? -1 : 1;
 878:C:/Users/lenovo/Desktop/liteos/Project2/BearPi_LiteOS/components/security/mbedtls/mbedtls-2.6.0/library\bignum.c ****     Y.n = 1;
 879:C:/Users/lenovo/Desktop/liteos/Project2/BearPi_LiteOS/components/security/mbedtls/mbedtls-2.6.0/library\bignum.c ****     Y.p = p;
 880:C:/Users/lenovo/Desktop/liteos/Project2/BearPi_LiteOS/components/security/mbedtls/mbedtls-2.6.0/library\bignum.c **** 
 881:C:/Users/lenovo/Desktop/liteos/Project2/BearPi_LiteOS/components/security/mbedtls/mbedtls-2.6.0/library\bignum.c ****     return( mbedtls_mpi_cmp_mpi( X, &Y ) );
 882:C:/Users/lenovo/Desktop/liteos/Project2/BearPi_LiteOS/components/security/mbedtls/mbedtls-2.6.0/library\bignum.c **** }
 883:C:/Users/lenovo/Desktop/liteos/Project2/BearPi_LiteOS/components/security/mbedtls/mbedtls-2.6.0/library\bignum.c **** 
 884:C:/Users/lenovo/Desktop/liteos/Project2/BearPi_LiteOS/components/security/mbedtls/mbedtls-2.6.0/library\bignum.c **** /*
 885:C:/Users/lenovo/Desktop/liteos/Project2/BearPi_LiteOS/components/security/mbedtls/mbedtls-2.6.0/library\bignum.c ****  * Unsigned addition: X = |A| + |B|  (HAC 14.7)
 886:C:/Users/lenovo/Desktop/liteos/Project2/BearPi_LiteOS/components/security/mbedtls/mbedtls-2.6.0/library\bignum.c ****  */
 887:C:/Users/lenovo/Desktop/liteos/Project2/BearPi_LiteOS/components/security/mbedtls/mbedtls-2.6.0/library\bignum.c **** int mbedtls_mpi_add_abs( mbedtls_mpi *X, const mbedtls_mpi *A, const mbedtls_mpi *B )
 888:C:/Users/lenovo/Desktop/liteos/Project2/BearPi_LiteOS/components/security/mbedtls/mbedtls-2.6.0/library\bignum.c **** {
 889:C:/Users/lenovo/Desktop/liteos/Project2/BearPi_LiteOS/components/security/mbedtls/mbedtls-2.6.0/library\bignum.c ****     int ret;
 890:C:/Users/lenovo/Desktop/liteos/Project2/BearPi_LiteOS/components/security/mbedtls/mbedtls-2.6.0/library\bignum.c ****     size_t i, j;
 891:C:/Users/lenovo/Desktop/liteos/Project2/BearPi_LiteOS/components/security/mbedtls/mbedtls-2.6.0/library\bignum.c ****     mbedtls_mpi_uint *o, *p, c, tmp;
 892:C:/Users/lenovo/Desktop/liteos/Project2/BearPi_LiteOS/components/security/mbedtls/mbedtls-2.6.0/library\bignum.c **** 
 893:C:/Users/lenovo/Desktop/liteos/Project2/BearPi_LiteOS/components/security/mbedtls/mbedtls-2.6.0/library\bignum.c ****     if( X == B )
 894:C:/Users/lenovo/Desktop/liteos/Project2/BearPi_LiteOS/components/security/mbedtls/mbedtls-2.6.0/library\bignum.c ****     {
 895:C:/Users/lenovo/Desktop/liteos/Project2/BearPi_LiteOS/components/security/mbedtls/mbedtls-2.6.0/library\bignum.c ****         const mbedtls_mpi *T = A; A = X; B = T;
 896:C:/Users/lenovo/Desktop/liteos/Project2/BearPi_LiteOS/components/security/mbedtls/mbedtls-2.6.0/library\bignum.c ****     }
 897:C:/Users/lenovo/Desktop/liteos/Project2/BearPi_LiteOS/components/security/mbedtls/mbedtls-2.6.0/library\bignum.c **** 
 898:C:/Users/lenovo/Desktop/liteos/Project2/BearPi_LiteOS/components/security/mbedtls/mbedtls-2.6.0/library\bignum.c ****     if( X != A )
 899:C:/Users/lenovo/Desktop/liteos/Project2/BearPi_LiteOS/components/security/mbedtls/mbedtls-2.6.0/library\bignum.c ****         MBEDTLS_MPI_CHK( mbedtls_mpi_copy( X, A ) );
 900:C:/Users/lenovo/Desktop/liteos/Project2/BearPi_LiteOS/components/security/mbedtls/mbedtls-2.6.0/library\bignum.c **** 
 901:C:/Users/lenovo/Desktop/liteos/Project2/BearPi_LiteOS/components/security/mbedtls/mbedtls-2.6.0/library\bignum.c ****     /*
 902:C:/Users/lenovo/Desktop/liteos/Project2/BearPi_LiteOS/components/security/mbedtls/mbedtls-2.6.0/library\bignum.c ****      * X should always be positive as a result of unsigned additions.
 903:C:/Users/lenovo/Desktop/liteos/Project2/BearPi_LiteOS/components/security/mbedtls/mbedtls-2.6.0/library\bignum.c ****      */
 904:C:/Users/lenovo/Desktop/liteos/Project2/BearPi_LiteOS/components/security/mbedtls/mbedtls-2.6.0/library\bignum.c ****     X->s = 1;
 905:C:/Users/lenovo/Desktop/liteos/Project2/BearPi_LiteOS/components/security/mbedtls/mbedtls-2.6.0/library\bignum.c **** 
 906:C:/Users/lenovo/Desktop/liteos/Project2/BearPi_LiteOS/components/security/mbedtls/mbedtls-2.6.0/library\bignum.c ****     for( j = B->n; j > 0; j-- )
 907:C:/Users/lenovo/Desktop/liteos/Project2/BearPi_LiteOS/components/security/mbedtls/mbedtls-2.6.0/library\bignum.c ****         if( B->p[j - 1] != 0 )
 908:C:/Users/lenovo/Desktop/liteos/Project2/BearPi_LiteOS/components/security/mbedtls/mbedtls-2.6.0/library\bignum.c ****             break;
 909:C:/Users/lenovo/Desktop/liteos/Project2/BearPi_LiteOS/components/security/mbedtls/mbedtls-2.6.0/library\bignum.c **** 
 910:C:/Users/lenovo/Desktop/liteos/Project2/BearPi_LiteOS/components/security/mbedtls/mbedtls-2.6.0/library\bignum.c ****     MBEDTLS_MPI_CHK( mbedtls_mpi_grow( X, j ) );
 911:C:/Users/lenovo/Desktop/liteos/Project2/BearPi_LiteOS/components/security/mbedtls/mbedtls-2.6.0/library\bignum.c **** 
 912:C:/Users/lenovo/Desktop/liteos/Project2/BearPi_LiteOS/components/security/mbedtls/mbedtls-2.6.0/library\bignum.c ****     o = B->p; p = X->p; c = 0;
 913:C:/Users/lenovo/Desktop/liteos/Project2/BearPi_LiteOS/components/security/mbedtls/mbedtls-2.6.0/library\bignum.c **** 
 914:C:/Users/lenovo/Desktop/liteos/Project2/BearPi_LiteOS/components/security/mbedtls/mbedtls-2.6.0/library\bignum.c ****     /*
 915:C:/Users/lenovo/Desktop/liteos/Project2/BearPi_LiteOS/components/security/mbedtls/mbedtls-2.6.0/library\bignum.c ****      * tmp is used because it might happen that p == o
 916:C:/Users/lenovo/Desktop/liteos/Project2/BearPi_LiteOS/components/security/mbedtls/mbedtls-2.6.0/library\bignum.c ****      */
 917:C:/Users/lenovo/Desktop/liteos/Project2/BearPi_LiteOS/components/security/mbedtls/mbedtls-2.6.0/library\bignum.c ****     for( i = 0; i < j; i++, o++, p++ )
 918:C:/Users/lenovo/Desktop/liteos/Project2/BearPi_LiteOS/components/security/mbedtls/mbedtls-2.6.0/library\bignum.c ****     {
 919:C:/Users/lenovo/Desktop/liteos/Project2/BearPi_LiteOS/components/security/mbedtls/mbedtls-2.6.0/library\bignum.c ****         tmp= *o;
ARM GAS  c:\Users\lenovo\AppData\Local\Temp\ccjcyTZ0.s 			page 20


 920:C:/Users/lenovo/Desktop/liteos/Project2/BearPi_LiteOS/components/security/mbedtls/mbedtls-2.6.0/library\bignum.c ****         *p +=  c; c  = ( *p <  c );
 921:C:/Users/lenovo/Desktop/liteos/Project2/BearPi_LiteOS/components/security/mbedtls/mbedtls-2.6.0/library\bignum.c ****         *p += tmp; c += ( *p < tmp );
 922:C:/Users/lenovo/Desktop/liteos/Project2/BearPi_LiteOS/components/security/mbedtls/mbedtls-2.6.0/library\bignum.c ****     }
 923:C:/Users/lenovo/Desktop/liteos/Project2/BearPi_LiteOS/components/security/mbedtls/mbedtls-2.6.0/library\bignum.c **** 
 924:C:/Users/lenovo/Desktop/liteos/Project2/BearPi_LiteOS/components/security/mbedtls/mbedtls-2.6.0/library\bignum.c ****     while( c != 0 )
 925:C:/Users/lenovo/Desktop/liteos/Project2/BearPi_LiteOS/components/security/mbedtls/mbedtls-2.6.0/library\bignum.c ****     {
 926:C:/Users/lenovo/Desktop/liteos/Project2/BearPi_LiteOS/components/security/mbedtls/mbedtls-2.6.0/library\bignum.c ****         if( i >= X->n )
 927:C:/Users/lenovo/Desktop/liteos/Project2/BearPi_LiteOS/components/security/mbedtls/mbedtls-2.6.0/library\bignum.c ****         {
 928:C:/Users/lenovo/Desktop/liteos/Project2/BearPi_LiteOS/components/security/mbedtls/mbedtls-2.6.0/library\bignum.c ****             MBEDTLS_MPI_CHK( mbedtls_mpi_grow( X, i + 1 ) );
 929:C:/Users/lenovo/Desktop/liteos/Project2/BearPi_LiteOS/components/security/mbedtls/mbedtls-2.6.0/library\bignum.c ****             p = X->p + i;
 930:C:/Users/lenovo/Desktop/liteos/Project2/BearPi_LiteOS/components/security/mbedtls/mbedtls-2.6.0/library\bignum.c ****         }
 931:C:/Users/lenovo/Desktop/liteos/Project2/BearPi_LiteOS/components/security/mbedtls/mbedtls-2.6.0/library\bignum.c **** 
 932:C:/Users/lenovo/Desktop/liteos/Project2/BearPi_LiteOS/components/security/mbedtls/mbedtls-2.6.0/library\bignum.c ****         *p += c; c = ( *p < c ); i++; p++;
 933:C:/Users/lenovo/Desktop/liteos/Project2/BearPi_LiteOS/components/security/mbedtls/mbedtls-2.6.0/library\bignum.c ****     }
 934:C:/Users/lenovo/Desktop/liteos/Project2/BearPi_LiteOS/components/security/mbedtls/mbedtls-2.6.0/library\bignum.c **** 
 935:C:/Users/lenovo/Desktop/liteos/Project2/BearPi_LiteOS/components/security/mbedtls/mbedtls-2.6.0/library\bignum.c **** cleanup:
 936:C:/Users/lenovo/Desktop/liteos/Project2/BearPi_LiteOS/components/security/mbedtls/mbedtls-2.6.0/library\bignum.c **** 
 937:C:/Users/lenovo/Desktop/liteos/Project2/BearPi_LiteOS/components/security/mbedtls/mbedtls-2.6.0/library\bignum.c ****     return( ret );
 938:C:/Users/lenovo/Desktop/liteos/Project2/BearPi_LiteOS/components/security/mbedtls/mbedtls-2.6.0/library\bignum.c **** }
 939:C:/Users/lenovo/Desktop/liteos/Project2/BearPi_LiteOS/components/security/mbedtls/mbedtls-2.6.0/library\bignum.c **** 
 940:C:/Users/lenovo/Desktop/liteos/Project2/BearPi_LiteOS/components/security/mbedtls/mbedtls-2.6.0/library\bignum.c **** /*
 941:C:/Users/lenovo/Desktop/liteos/Project2/BearPi_LiteOS/components/security/mbedtls/mbedtls-2.6.0/library\bignum.c ****  * Helper for mbedtls_mpi subtraction
 942:C:/Users/lenovo/Desktop/liteos/Project2/BearPi_LiteOS/components/security/mbedtls/mbedtls-2.6.0/library\bignum.c ****  */
 943:C:/Users/lenovo/Desktop/liteos/Project2/BearPi_LiteOS/components/security/mbedtls/mbedtls-2.6.0/library\bignum.c **** static void mpi_sub_hlp( size_t n, mbedtls_mpi_uint *s, mbedtls_mpi_uint *d )
 944:C:/Users/lenovo/Desktop/liteos/Project2/BearPi_LiteOS/components/security/mbedtls/mbedtls-2.6.0/library\bignum.c **** {
 170              		.loc 1 944 0
 171              		.cfi_startproc
 172              		@ args = 0, pretend = 0, frame = 0
 173              		@ frame_needed = 0, uses_anonymous_args = 0
 174              		@ link register save eliminated.
 175              	.LVL15:
 176 0000 F0B4     		push	{r4, r5, r6, r7}
 177              	.LCFI0:
 178              		.cfi_def_cfa_offset 16
 179              		.cfi_offset 4, -16
 180              		.cfi_offset 5, -12
 181              		.cfi_offset 6, -8
 182              		.cfi_offset 7, -4
 183              	.LVL16:
 945:C:/Users/lenovo/Desktop/liteos/Project2/BearPi_LiteOS/components/security/mbedtls/mbedtls-2.6.0/library\bignum.c ****     size_t i;
 946:C:/Users/lenovo/Desktop/liteos/Project2/BearPi_LiteOS/components/security/mbedtls/mbedtls-2.6.0/library\bignum.c ****     mbedtls_mpi_uint c, z;
 947:C:/Users/lenovo/Desktop/liteos/Project2/BearPi_LiteOS/components/security/mbedtls/mbedtls-2.6.0/library\bignum.c **** 
 948:C:/Users/lenovo/Desktop/liteos/Project2/BearPi_LiteOS/components/security/mbedtls/mbedtls-2.6.0/library\bignum.c ****     for( i = c = 0; i < n; i++, s++, d++ )
 184              		.loc 1 948 0
 185 0002 0023     		movs	r3, #0
 186 0004 1D46     		mov	r5, r3
 187 0006 13E0     		b	.L16
 188              	.LVL17:
 189              	.L17:
 949:C:/Users/lenovo/Desktop/liteos/Project2/BearPi_LiteOS/components/security/mbedtls/mbedtls-2.6.0/library\bignum.c ****     {
 950:C:/Users/lenovo/Desktop/liteos/Project2/BearPi_LiteOS/components/security/mbedtls/mbedtls-2.6.0/library\bignum.c ****         z = ( *d <  c );     *d -=  c;
 190              		.loc 1 950 0 discriminator 3
 191 0008 1768     		ldr	r7, [r2]
 192              	.LVL18:
 193 000a FC1A     		subs	r4, r7, r3
 194 000c 1460     		str	r4, [r2]
 951:C:/Users/lenovo/Desktop/liteos/Project2/BearPi_LiteOS/components/security/mbedtls/mbedtls-2.6.0/library\bignum.c ****         c = ( *d < *s ) + z; *d -= *s;
ARM GAS  c:\Users\lenovo\AppData\Local\Temp\ccjcyTZ0.s 			page 21


 195              		.loc 1 951 0 discriminator 3
 196 000e 51F8046B 		ldr	r6, [r1], #4
 197              	.LVL19:
 198 0012 B442     		cmp	r4, r6
 199 0014 2CBF     		ite	cs
 200 0016 4FF0000C 		movcs	ip, #0
 201 001a 4FF0010C 		movcc	ip, #1
 202 001e 9F42     		cmp	r7, r3
 203 0020 2CBF     		ite	cs
 204 0022 6346     		movcs	r3, ip
 205 0024 0CF10103 		addcc	r3, ip, #1
 206              	.LVL20:
 207 0028 A41B     		subs	r4, r4, r6
 208 002a 42F8044B 		str	r4, [r2], #4
 209              	.LVL21:
 948:C:/Users/lenovo/Desktop/liteos/Project2/BearPi_LiteOS/components/security/mbedtls/mbedtls-2.6.0/library\bignum.c ****     {
 210              		.loc 1 948 0 discriminator 3
 211 002e 0135     		adds	r5, r5, #1
 212              	.LVL22:
 213              	.L16:
 948:C:/Users/lenovo/Desktop/liteos/Project2/BearPi_LiteOS/components/security/mbedtls/mbedtls-2.6.0/library\bignum.c ****     {
 214              		.loc 1 948 0 is_stmt 0 discriminator 1
 215 0030 8542     		cmp	r5, r0
 216 0032 E9D3     		bcc	.L17
 217 0034 07E0     		b	.L18
 218              	.LVL23:
 219              	.L19:
 952:C:/Users/lenovo/Desktop/liteos/Project2/BearPi_LiteOS/components/security/mbedtls/mbedtls-2.6.0/library\bignum.c ****     }
 953:C:/Users/lenovo/Desktop/liteos/Project2/BearPi_LiteOS/components/security/mbedtls/mbedtls-2.6.0/library\bignum.c **** 
 954:C:/Users/lenovo/Desktop/liteos/Project2/BearPi_LiteOS/components/security/mbedtls/mbedtls-2.6.0/library\bignum.c ****     while( c != 0 )
 955:C:/Users/lenovo/Desktop/liteos/Project2/BearPi_LiteOS/components/security/mbedtls/mbedtls-2.6.0/library\bignum.c ****     {
 956:C:/Users/lenovo/Desktop/liteos/Project2/BearPi_LiteOS/components/security/mbedtls/mbedtls-2.6.0/library\bignum.c ****         z = ( *d < c ); *d -= c;
 220              		.loc 1 956 0 is_stmt 1
 221 0036 1168     		ldr	r1, [r2]
 222              	.LVL24:
 223 0038 C81A     		subs	r0, r1, r3
 224 003a 42F8040B 		str	r0, [r2], #4
 225              	.LVL25:
 957:C:/Users/lenovo/Desktop/liteos/Project2/BearPi_LiteOS/components/security/mbedtls/mbedtls-2.6.0/library\bignum.c ****         c = z; i++; d++;
 226              		.loc 1 957 0
 227 003e 9942     		cmp	r1, r3
 228 0040 2CBF     		ite	cs
 229 0042 0023     		movcs	r3, #0
 230              	.LVL26:
 231 0044 0123     		movcc	r3, #1
 232              	.L18:
 233              	.LVL27:
 954:C:/Users/lenovo/Desktop/liteos/Project2/BearPi_LiteOS/components/security/mbedtls/mbedtls-2.6.0/library\bignum.c ****     {
 234              		.loc 1 954 0
 235 0046 002B     		cmp	r3, #0
 236 0048 F5D1     		bne	.L19
 958:C:/Users/lenovo/Desktop/liteos/Project2/BearPi_LiteOS/components/security/mbedtls/mbedtls-2.6.0/library\bignum.c ****     }
 959:C:/Users/lenovo/Desktop/liteos/Project2/BearPi_LiteOS/components/security/mbedtls/mbedtls-2.6.0/library\bignum.c **** }
 237              		.loc 1 959 0
 238 004a F0BC     		pop	{r4, r5, r6, r7}
 239              	.LCFI1:
 240              		.cfi_restore 7
ARM GAS  c:\Users\lenovo\AppData\Local\Temp\ccjcyTZ0.s 			page 22


 241              		.cfi_restore 6
 242              		.cfi_restore 5
 243              		.cfi_restore 4
 244              		.cfi_def_cfa_offset 0
 245 004c 7047     		bx	lr
 246              		.cfi_endproc
 247              	.LFE31:
 249              		.section	.text.mpi_mul_hlp,"ax",%progbits
 250              		.align	1
 251              		.syntax unified
 252              		.thumb
 253              		.thumb_func
 254              		.fpu fpv4-sp-d16
 256              	mpi_mul_hlp:
 257              	.LFB37:
 960:C:/Users/lenovo/Desktop/liteos/Project2/BearPi_LiteOS/components/security/mbedtls/mbedtls-2.6.0/library\bignum.c **** 
 961:C:/Users/lenovo/Desktop/liteos/Project2/BearPi_LiteOS/components/security/mbedtls/mbedtls-2.6.0/library\bignum.c **** /*
 962:C:/Users/lenovo/Desktop/liteos/Project2/BearPi_LiteOS/components/security/mbedtls/mbedtls-2.6.0/library\bignum.c ****  * Unsigned subtraction: X = |A| - |B|  (HAC 14.9)
 963:C:/Users/lenovo/Desktop/liteos/Project2/BearPi_LiteOS/components/security/mbedtls/mbedtls-2.6.0/library\bignum.c ****  */
 964:C:/Users/lenovo/Desktop/liteos/Project2/BearPi_LiteOS/components/security/mbedtls/mbedtls-2.6.0/library\bignum.c **** int mbedtls_mpi_sub_abs( mbedtls_mpi *X, const mbedtls_mpi *A, const mbedtls_mpi *B )
 965:C:/Users/lenovo/Desktop/liteos/Project2/BearPi_LiteOS/components/security/mbedtls/mbedtls-2.6.0/library\bignum.c **** {
 966:C:/Users/lenovo/Desktop/liteos/Project2/BearPi_LiteOS/components/security/mbedtls/mbedtls-2.6.0/library\bignum.c ****     mbedtls_mpi TB;
 967:C:/Users/lenovo/Desktop/liteos/Project2/BearPi_LiteOS/components/security/mbedtls/mbedtls-2.6.0/library\bignum.c ****     int ret;
 968:C:/Users/lenovo/Desktop/liteos/Project2/BearPi_LiteOS/components/security/mbedtls/mbedtls-2.6.0/library\bignum.c ****     size_t n;
 969:C:/Users/lenovo/Desktop/liteos/Project2/BearPi_LiteOS/components/security/mbedtls/mbedtls-2.6.0/library\bignum.c **** 
 970:C:/Users/lenovo/Desktop/liteos/Project2/BearPi_LiteOS/components/security/mbedtls/mbedtls-2.6.0/library\bignum.c ****     if( mbedtls_mpi_cmp_abs( A, B ) < 0 )
 971:C:/Users/lenovo/Desktop/liteos/Project2/BearPi_LiteOS/components/security/mbedtls/mbedtls-2.6.0/library\bignum.c ****         return( MBEDTLS_ERR_MPI_NEGATIVE_VALUE );
 972:C:/Users/lenovo/Desktop/liteos/Project2/BearPi_LiteOS/components/security/mbedtls/mbedtls-2.6.0/library\bignum.c **** 
 973:C:/Users/lenovo/Desktop/liteos/Project2/BearPi_LiteOS/components/security/mbedtls/mbedtls-2.6.0/library\bignum.c ****     mbedtls_mpi_init( &TB );
 974:C:/Users/lenovo/Desktop/liteos/Project2/BearPi_LiteOS/components/security/mbedtls/mbedtls-2.6.0/library\bignum.c **** 
 975:C:/Users/lenovo/Desktop/liteos/Project2/BearPi_LiteOS/components/security/mbedtls/mbedtls-2.6.0/library\bignum.c ****     if( X == B )
 976:C:/Users/lenovo/Desktop/liteos/Project2/BearPi_LiteOS/components/security/mbedtls/mbedtls-2.6.0/library\bignum.c ****     {
 977:C:/Users/lenovo/Desktop/liteos/Project2/BearPi_LiteOS/components/security/mbedtls/mbedtls-2.6.0/library\bignum.c ****         MBEDTLS_MPI_CHK( mbedtls_mpi_copy( &TB, B ) );
 978:C:/Users/lenovo/Desktop/liteos/Project2/BearPi_LiteOS/components/security/mbedtls/mbedtls-2.6.0/library\bignum.c ****         B = &TB;
 979:C:/Users/lenovo/Desktop/liteos/Project2/BearPi_LiteOS/components/security/mbedtls/mbedtls-2.6.0/library\bignum.c ****     }
 980:C:/Users/lenovo/Desktop/liteos/Project2/BearPi_LiteOS/components/security/mbedtls/mbedtls-2.6.0/library\bignum.c **** 
 981:C:/Users/lenovo/Desktop/liteos/Project2/BearPi_LiteOS/components/security/mbedtls/mbedtls-2.6.0/library\bignum.c ****     if( X != A )
 982:C:/Users/lenovo/Desktop/liteos/Project2/BearPi_LiteOS/components/security/mbedtls/mbedtls-2.6.0/library\bignum.c ****         MBEDTLS_MPI_CHK( mbedtls_mpi_copy( X, A ) );
 983:C:/Users/lenovo/Desktop/liteos/Project2/BearPi_LiteOS/components/security/mbedtls/mbedtls-2.6.0/library\bignum.c **** 
 984:C:/Users/lenovo/Desktop/liteos/Project2/BearPi_LiteOS/components/security/mbedtls/mbedtls-2.6.0/library\bignum.c ****     /*
 985:C:/Users/lenovo/Desktop/liteos/Project2/BearPi_LiteOS/components/security/mbedtls/mbedtls-2.6.0/library\bignum.c ****      * X should always be positive as a result of unsigned subtractions.
 986:C:/Users/lenovo/Desktop/liteos/Project2/BearPi_LiteOS/components/security/mbedtls/mbedtls-2.6.0/library\bignum.c ****      */
 987:C:/Users/lenovo/Desktop/liteos/Project2/BearPi_LiteOS/components/security/mbedtls/mbedtls-2.6.0/library\bignum.c ****     X->s = 1;
 988:C:/Users/lenovo/Desktop/liteos/Project2/BearPi_LiteOS/components/security/mbedtls/mbedtls-2.6.0/library\bignum.c **** 
 989:C:/Users/lenovo/Desktop/liteos/Project2/BearPi_LiteOS/components/security/mbedtls/mbedtls-2.6.0/library\bignum.c ****     ret = 0;
 990:C:/Users/lenovo/Desktop/liteos/Project2/BearPi_LiteOS/components/security/mbedtls/mbedtls-2.6.0/library\bignum.c **** 
 991:C:/Users/lenovo/Desktop/liteos/Project2/BearPi_LiteOS/components/security/mbedtls/mbedtls-2.6.0/library\bignum.c ****     for( n = B->n; n > 0; n-- )
 992:C:/Users/lenovo/Desktop/liteos/Project2/BearPi_LiteOS/components/security/mbedtls/mbedtls-2.6.0/library\bignum.c ****         if( B->p[n - 1] != 0 )
 993:C:/Users/lenovo/Desktop/liteos/Project2/BearPi_LiteOS/components/security/mbedtls/mbedtls-2.6.0/library\bignum.c ****             break;
 994:C:/Users/lenovo/Desktop/liteos/Project2/BearPi_LiteOS/components/security/mbedtls/mbedtls-2.6.0/library\bignum.c **** 
 995:C:/Users/lenovo/Desktop/liteos/Project2/BearPi_LiteOS/components/security/mbedtls/mbedtls-2.6.0/library\bignum.c ****     mpi_sub_hlp( n, B->p, X->p );
 996:C:/Users/lenovo/Desktop/liteos/Project2/BearPi_LiteOS/components/security/mbedtls/mbedtls-2.6.0/library\bignum.c **** 
 997:C:/Users/lenovo/Desktop/liteos/Project2/BearPi_LiteOS/components/security/mbedtls/mbedtls-2.6.0/library\bignum.c **** cleanup:
 998:C:/Users/lenovo/Desktop/liteos/Project2/BearPi_LiteOS/components/security/mbedtls/mbedtls-2.6.0/library\bignum.c **** 
 999:C:/Users/lenovo/Desktop/liteos/Project2/BearPi_LiteOS/components/security/mbedtls/mbedtls-2.6.0/library\bignum.c ****     mbedtls_mpi_free( &TB );
1000:C:/Users/lenovo/Desktop/liteos/Project2/BearPi_LiteOS/components/security/mbedtls/mbedtls-2.6.0/library\bignum.c **** 
1001:C:/Users/lenovo/Desktop/liteos/Project2/BearPi_LiteOS/components/security/mbedtls/mbedtls-2.6.0/library\bignum.c ****     return( ret );
ARM GAS  c:\Users\lenovo\AppData\Local\Temp\ccjcyTZ0.s 			page 23


1002:C:/Users/lenovo/Desktop/liteos/Project2/BearPi_LiteOS/components/security/mbedtls/mbedtls-2.6.0/library\bignum.c **** }
1003:C:/Users/lenovo/Desktop/liteos/Project2/BearPi_LiteOS/components/security/mbedtls/mbedtls-2.6.0/library\bignum.c **** 
1004:C:/Users/lenovo/Desktop/liteos/Project2/BearPi_LiteOS/components/security/mbedtls/mbedtls-2.6.0/library\bignum.c **** /*
1005:C:/Users/lenovo/Desktop/liteos/Project2/BearPi_LiteOS/components/security/mbedtls/mbedtls-2.6.0/library\bignum.c ****  * Signed addition: X = A + B
1006:C:/Users/lenovo/Desktop/liteos/Project2/BearPi_LiteOS/components/security/mbedtls/mbedtls-2.6.0/library\bignum.c ****  */
1007:C:/Users/lenovo/Desktop/liteos/Project2/BearPi_LiteOS/components/security/mbedtls/mbedtls-2.6.0/library\bignum.c **** int mbedtls_mpi_add_mpi( mbedtls_mpi *X, const mbedtls_mpi *A, const mbedtls_mpi *B )
1008:C:/Users/lenovo/Desktop/liteos/Project2/BearPi_LiteOS/components/security/mbedtls/mbedtls-2.6.0/library\bignum.c **** {
1009:C:/Users/lenovo/Desktop/liteos/Project2/BearPi_LiteOS/components/security/mbedtls/mbedtls-2.6.0/library\bignum.c ****     int ret, s = A->s;
1010:C:/Users/lenovo/Desktop/liteos/Project2/BearPi_LiteOS/components/security/mbedtls/mbedtls-2.6.0/library\bignum.c **** 
1011:C:/Users/lenovo/Desktop/liteos/Project2/BearPi_LiteOS/components/security/mbedtls/mbedtls-2.6.0/library\bignum.c ****     if( A->s * B->s < 0 )
1012:C:/Users/lenovo/Desktop/liteos/Project2/BearPi_LiteOS/components/security/mbedtls/mbedtls-2.6.0/library\bignum.c ****     {
1013:C:/Users/lenovo/Desktop/liteos/Project2/BearPi_LiteOS/components/security/mbedtls/mbedtls-2.6.0/library\bignum.c ****         if( mbedtls_mpi_cmp_abs( A, B ) >= 0 )
1014:C:/Users/lenovo/Desktop/liteos/Project2/BearPi_LiteOS/components/security/mbedtls/mbedtls-2.6.0/library\bignum.c ****         {
1015:C:/Users/lenovo/Desktop/liteos/Project2/BearPi_LiteOS/components/security/mbedtls/mbedtls-2.6.0/library\bignum.c ****             MBEDTLS_MPI_CHK( mbedtls_mpi_sub_abs( X, A, B ) );
1016:C:/Users/lenovo/Desktop/liteos/Project2/BearPi_LiteOS/components/security/mbedtls/mbedtls-2.6.0/library\bignum.c ****             X->s =  s;
1017:C:/Users/lenovo/Desktop/liteos/Project2/BearPi_LiteOS/components/security/mbedtls/mbedtls-2.6.0/library\bignum.c ****         }
1018:C:/Users/lenovo/Desktop/liteos/Project2/BearPi_LiteOS/components/security/mbedtls/mbedtls-2.6.0/library\bignum.c ****         else
1019:C:/Users/lenovo/Desktop/liteos/Project2/BearPi_LiteOS/components/security/mbedtls/mbedtls-2.6.0/library\bignum.c ****         {
1020:C:/Users/lenovo/Desktop/liteos/Project2/BearPi_LiteOS/components/security/mbedtls/mbedtls-2.6.0/library\bignum.c ****             MBEDTLS_MPI_CHK( mbedtls_mpi_sub_abs( X, B, A ) );
1021:C:/Users/lenovo/Desktop/liteos/Project2/BearPi_LiteOS/components/security/mbedtls/mbedtls-2.6.0/library\bignum.c ****             X->s = -s;
1022:C:/Users/lenovo/Desktop/liteos/Project2/BearPi_LiteOS/components/security/mbedtls/mbedtls-2.6.0/library\bignum.c ****         }
1023:C:/Users/lenovo/Desktop/liteos/Project2/BearPi_LiteOS/components/security/mbedtls/mbedtls-2.6.0/library\bignum.c ****     }
1024:C:/Users/lenovo/Desktop/liteos/Project2/BearPi_LiteOS/components/security/mbedtls/mbedtls-2.6.0/library\bignum.c ****     else
1025:C:/Users/lenovo/Desktop/liteos/Project2/BearPi_LiteOS/components/security/mbedtls/mbedtls-2.6.0/library\bignum.c ****     {
1026:C:/Users/lenovo/Desktop/liteos/Project2/BearPi_LiteOS/components/security/mbedtls/mbedtls-2.6.0/library\bignum.c ****         MBEDTLS_MPI_CHK( mbedtls_mpi_add_abs( X, A, B ) );
1027:C:/Users/lenovo/Desktop/liteos/Project2/BearPi_LiteOS/components/security/mbedtls/mbedtls-2.6.0/library\bignum.c ****         X->s = s;
1028:C:/Users/lenovo/Desktop/liteos/Project2/BearPi_LiteOS/components/security/mbedtls/mbedtls-2.6.0/library\bignum.c ****     }
1029:C:/Users/lenovo/Desktop/liteos/Project2/BearPi_LiteOS/components/security/mbedtls/mbedtls-2.6.0/library\bignum.c **** 
1030:C:/Users/lenovo/Desktop/liteos/Project2/BearPi_LiteOS/components/security/mbedtls/mbedtls-2.6.0/library\bignum.c **** cleanup:
1031:C:/Users/lenovo/Desktop/liteos/Project2/BearPi_LiteOS/components/security/mbedtls/mbedtls-2.6.0/library\bignum.c **** 
1032:C:/Users/lenovo/Desktop/liteos/Project2/BearPi_LiteOS/components/security/mbedtls/mbedtls-2.6.0/library\bignum.c ****     return( ret );
1033:C:/Users/lenovo/Desktop/liteos/Project2/BearPi_LiteOS/components/security/mbedtls/mbedtls-2.6.0/library\bignum.c **** }
1034:C:/Users/lenovo/Desktop/liteos/Project2/BearPi_LiteOS/components/security/mbedtls/mbedtls-2.6.0/library\bignum.c **** 
1035:C:/Users/lenovo/Desktop/liteos/Project2/BearPi_LiteOS/components/security/mbedtls/mbedtls-2.6.0/library\bignum.c **** /*
1036:C:/Users/lenovo/Desktop/liteos/Project2/BearPi_LiteOS/components/security/mbedtls/mbedtls-2.6.0/library\bignum.c ****  * Signed subtraction: X = A - B
1037:C:/Users/lenovo/Desktop/liteos/Project2/BearPi_LiteOS/components/security/mbedtls/mbedtls-2.6.0/library\bignum.c ****  */
1038:C:/Users/lenovo/Desktop/liteos/Project2/BearPi_LiteOS/components/security/mbedtls/mbedtls-2.6.0/library\bignum.c **** int mbedtls_mpi_sub_mpi( mbedtls_mpi *X, const mbedtls_mpi *A, const mbedtls_mpi *B )
1039:C:/Users/lenovo/Desktop/liteos/Project2/BearPi_LiteOS/components/security/mbedtls/mbedtls-2.6.0/library\bignum.c **** {
1040:C:/Users/lenovo/Desktop/liteos/Project2/BearPi_LiteOS/components/security/mbedtls/mbedtls-2.6.0/library\bignum.c ****     int ret, s = A->s;
1041:C:/Users/lenovo/Desktop/liteos/Project2/BearPi_LiteOS/components/security/mbedtls/mbedtls-2.6.0/library\bignum.c **** 
1042:C:/Users/lenovo/Desktop/liteos/Project2/BearPi_LiteOS/components/security/mbedtls/mbedtls-2.6.0/library\bignum.c ****     if( A->s * B->s > 0 )
1043:C:/Users/lenovo/Desktop/liteos/Project2/BearPi_LiteOS/components/security/mbedtls/mbedtls-2.6.0/library\bignum.c ****     {
1044:C:/Users/lenovo/Desktop/liteos/Project2/BearPi_LiteOS/components/security/mbedtls/mbedtls-2.6.0/library\bignum.c ****         if( mbedtls_mpi_cmp_abs( A, B ) >= 0 )
1045:C:/Users/lenovo/Desktop/liteos/Project2/BearPi_LiteOS/components/security/mbedtls/mbedtls-2.6.0/library\bignum.c ****         {
1046:C:/Users/lenovo/Desktop/liteos/Project2/BearPi_LiteOS/components/security/mbedtls/mbedtls-2.6.0/library\bignum.c ****             MBEDTLS_MPI_CHK( mbedtls_mpi_sub_abs( X, A, B ) );
1047:C:/Users/lenovo/Desktop/liteos/Project2/BearPi_LiteOS/components/security/mbedtls/mbedtls-2.6.0/library\bignum.c ****             X->s =  s;
1048:C:/Users/lenovo/Desktop/liteos/Project2/BearPi_LiteOS/components/security/mbedtls/mbedtls-2.6.0/library\bignum.c ****         }
1049:C:/Users/lenovo/Desktop/liteos/Project2/BearPi_LiteOS/components/security/mbedtls/mbedtls-2.6.0/library\bignum.c ****         else
1050:C:/Users/lenovo/Desktop/liteos/Project2/BearPi_LiteOS/components/security/mbedtls/mbedtls-2.6.0/library\bignum.c ****         {
1051:C:/Users/lenovo/Desktop/liteos/Project2/BearPi_LiteOS/components/security/mbedtls/mbedtls-2.6.0/library\bignum.c ****             MBEDTLS_MPI_CHK( mbedtls_mpi_sub_abs( X, B, A ) );
1052:C:/Users/lenovo/Desktop/liteos/Project2/BearPi_LiteOS/components/security/mbedtls/mbedtls-2.6.0/library\bignum.c ****             X->s = -s;
1053:C:/Users/lenovo/Desktop/liteos/Project2/BearPi_LiteOS/components/security/mbedtls/mbedtls-2.6.0/library\bignum.c ****         }
1054:C:/Users/lenovo/Desktop/liteos/Project2/BearPi_LiteOS/components/security/mbedtls/mbedtls-2.6.0/library\bignum.c ****     }
1055:C:/Users/lenovo/Desktop/liteos/Project2/BearPi_LiteOS/components/security/mbedtls/mbedtls-2.6.0/library\bignum.c ****     else
1056:C:/Users/lenovo/Desktop/liteos/Project2/BearPi_LiteOS/components/security/mbedtls/mbedtls-2.6.0/library\bignum.c ****     {
1057:C:/Users/lenovo/Desktop/liteos/Project2/BearPi_LiteOS/components/security/mbedtls/mbedtls-2.6.0/library\bignum.c ****         MBEDTLS_MPI_CHK( mbedtls_mpi_add_abs( X, A, B ) );
1058:C:/Users/lenovo/Desktop/liteos/Project2/BearPi_LiteOS/components/security/mbedtls/mbedtls-2.6.0/library\bignum.c ****         X->s = s;
ARM GAS  c:\Users\lenovo\AppData\Local\Temp\ccjcyTZ0.s 			page 24


1059:C:/Users/lenovo/Desktop/liteos/Project2/BearPi_LiteOS/components/security/mbedtls/mbedtls-2.6.0/library\bignum.c ****     }
1060:C:/Users/lenovo/Desktop/liteos/Project2/BearPi_LiteOS/components/security/mbedtls/mbedtls-2.6.0/library\bignum.c **** 
1061:C:/Users/lenovo/Desktop/liteos/Project2/BearPi_LiteOS/components/security/mbedtls/mbedtls-2.6.0/library\bignum.c **** cleanup:
1062:C:/Users/lenovo/Desktop/liteos/Project2/BearPi_LiteOS/components/security/mbedtls/mbedtls-2.6.0/library\bignum.c **** 
1063:C:/Users/lenovo/Desktop/liteos/Project2/BearPi_LiteOS/components/security/mbedtls/mbedtls-2.6.0/library\bignum.c ****     return( ret );
1064:C:/Users/lenovo/Desktop/liteos/Project2/BearPi_LiteOS/components/security/mbedtls/mbedtls-2.6.0/library\bignum.c **** }
1065:C:/Users/lenovo/Desktop/liteos/Project2/BearPi_LiteOS/components/security/mbedtls/mbedtls-2.6.0/library\bignum.c **** 
1066:C:/Users/lenovo/Desktop/liteos/Project2/BearPi_LiteOS/components/security/mbedtls/mbedtls-2.6.0/library\bignum.c **** /*
1067:C:/Users/lenovo/Desktop/liteos/Project2/BearPi_LiteOS/components/security/mbedtls/mbedtls-2.6.0/library\bignum.c ****  * Signed addition: X = A + b
1068:C:/Users/lenovo/Desktop/liteos/Project2/BearPi_LiteOS/components/security/mbedtls/mbedtls-2.6.0/library\bignum.c ****  */
1069:C:/Users/lenovo/Desktop/liteos/Project2/BearPi_LiteOS/components/security/mbedtls/mbedtls-2.6.0/library\bignum.c **** int mbedtls_mpi_add_int( mbedtls_mpi *X, const mbedtls_mpi *A, mbedtls_mpi_sint b )
1070:C:/Users/lenovo/Desktop/liteos/Project2/BearPi_LiteOS/components/security/mbedtls/mbedtls-2.6.0/library\bignum.c **** {
1071:C:/Users/lenovo/Desktop/liteos/Project2/BearPi_LiteOS/components/security/mbedtls/mbedtls-2.6.0/library\bignum.c ****     mbedtls_mpi _B;
1072:C:/Users/lenovo/Desktop/liteos/Project2/BearPi_LiteOS/components/security/mbedtls/mbedtls-2.6.0/library\bignum.c ****     mbedtls_mpi_uint p[1];
1073:C:/Users/lenovo/Desktop/liteos/Project2/BearPi_LiteOS/components/security/mbedtls/mbedtls-2.6.0/library\bignum.c **** 
1074:C:/Users/lenovo/Desktop/liteos/Project2/BearPi_LiteOS/components/security/mbedtls/mbedtls-2.6.0/library\bignum.c ****     p[0] = ( b < 0 ) ? -b : b;
1075:C:/Users/lenovo/Desktop/liteos/Project2/BearPi_LiteOS/components/security/mbedtls/mbedtls-2.6.0/library\bignum.c ****     _B.s = ( b < 0 ) ? -1 : 1;
1076:C:/Users/lenovo/Desktop/liteos/Project2/BearPi_LiteOS/components/security/mbedtls/mbedtls-2.6.0/library\bignum.c ****     _B.n = 1;
1077:C:/Users/lenovo/Desktop/liteos/Project2/BearPi_LiteOS/components/security/mbedtls/mbedtls-2.6.0/library\bignum.c ****     _B.p = p;
1078:C:/Users/lenovo/Desktop/liteos/Project2/BearPi_LiteOS/components/security/mbedtls/mbedtls-2.6.0/library\bignum.c **** 
1079:C:/Users/lenovo/Desktop/liteos/Project2/BearPi_LiteOS/components/security/mbedtls/mbedtls-2.6.0/library\bignum.c ****     return( mbedtls_mpi_add_mpi( X, A, &_B ) );
1080:C:/Users/lenovo/Desktop/liteos/Project2/BearPi_LiteOS/components/security/mbedtls/mbedtls-2.6.0/library\bignum.c **** }
1081:C:/Users/lenovo/Desktop/liteos/Project2/BearPi_LiteOS/components/security/mbedtls/mbedtls-2.6.0/library\bignum.c **** 
1082:C:/Users/lenovo/Desktop/liteos/Project2/BearPi_LiteOS/components/security/mbedtls/mbedtls-2.6.0/library\bignum.c **** /*
1083:C:/Users/lenovo/Desktop/liteos/Project2/BearPi_LiteOS/components/security/mbedtls/mbedtls-2.6.0/library\bignum.c ****  * Signed subtraction: X = A - b
1084:C:/Users/lenovo/Desktop/liteos/Project2/BearPi_LiteOS/components/security/mbedtls/mbedtls-2.6.0/library\bignum.c ****  */
1085:C:/Users/lenovo/Desktop/liteos/Project2/BearPi_LiteOS/components/security/mbedtls/mbedtls-2.6.0/library\bignum.c **** int mbedtls_mpi_sub_int( mbedtls_mpi *X, const mbedtls_mpi *A, mbedtls_mpi_sint b )
1086:C:/Users/lenovo/Desktop/liteos/Project2/BearPi_LiteOS/components/security/mbedtls/mbedtls-2.6.0/library\bignum.c **** {
1087:C:/Users/lenovo/Desktop/liteos/Project2/BearPi_LiteOS/components/security/mbedtls/mbedtls-2.6.0/library\bignum.c ****     mbedtls_mpi _B;
1088:C:/Users/lenovo/Desktop/liteos/Project2/BearPi_LiteOS/components/security/mbedtls/mbedtls-2.6.0/library\bignum.c ****     mbedtls_mpi_uint p[1];
1089:C:/Users/lenovo/Desktop/liteos/Project2/BearPi_LiteOS/components/security/mbedtls/mbedtls-2.6.0/library\bignum.c **** 
1090:C:/Users/lenovo/Desktop/liteos/Project2/BearPi_LiteOS/components/security/mbedtls/mbedtls-2.6.0/library\bignum.c ****     p[0] = ( b < 0 ) ? -b : b;
1091:C:/Users/lenovo/Desktop/liteos/Project2/BearPi_LiteOS/components/security/mbedtls/mbedtls-2.6.0/library\bignum.c ****     _B.s = ( b < 0 ) ? -1 : 1;
1092:C:/Users/lenovo/Desktop/liteos/Project2/BearPi_LiteOS/components/security/mbedtls/mbedtls-2.6.0/library\bignum.c ****     _B.n = 1;
1093:C:/Users/lenovo/Desktop/liteos/Project2/BearPi_LiteOS/components/security/mbedtls/mbedtls-2.6.0/library\bignum.c ****     _B.p = p;
1094:C:/Users/lenovo/Desktop/liteos/Project2/BearPi_LiteOS/components/security/mbedtls/mbedtls-2.6.0/library\bignum.c **** 
1095:C:/Users/lenovo/Desktop/liteos/Project2/BearPi_LiteOS/components/security/mbedtls/mbedtls-2.6.0/library\bignum.c ****     return( mbedtls_mpi_sub_mpi( X, A, &_B ) );
1096:C:/Users/lenovo/Desktop/liteos/Project2/BearPi_LiteOS/components/security/mbedtls/mbedtls-2.6.0/library\bignum.c **** }
1097:C:/Users/lenovo/Desktop/liteos/Project2/BearPi_LiteOS/components/security/mbedtls/mbedtls-2.6.0/library\bignum.c **** 
1098:C:/Users/lenovo/Desktop/liteos/Project2/BearPi_LiteOS/components/security/mbedtls/mbedtls-2.6.0/library\bignum.c **** /*
1099:C:/Users/lenovo/Desktop/liteos/Project2/BearPi_LiteOS/components/security/mbedtls/mbedtls-2.6.0/library\bignum.c ****  * Helper for mbedtls_mpi multiplication
1100:C:/Users/lenovo/Desktop/liteos/Project2/BearPi_LiteOS/components/security/mbedtls/mbedtls-2.6.0/library\bignum.c ****  */
1101:C:/Users/lenovo/Desktop/liteos/Project2/BearPi_LiteOS/components/security/mbedtls/mbedtls-2.6.0/library\bignum.c **** static
1102:C:/Users/lenovo/Desktop/liteos/Project2/BearPi_LiteOS/components/security/mbedtls/mbedtls-2.6.0/library\bignum.c **** #if defined(__APPLE__) && defined(__arm__)
1103:C:/Users/lenovo/Desktop/liteos/Project2/BearPi_LiteOS/components/security/mbedtls/mbedtls-2.6.0/library\bignum.c **** /*
1104:C:/Users/lenovo/Desktop/liteos/Project2/BearPi_LiteOS/components/security/mbedtls/mbedtls-2.6.0/library\bignum.c ****  * Apple LLVM version 4.2 (clang-425.0.24) (based on LLVM 3.2svn)
1105:C:/Users/lenovo/Desktop/liteos/Project2/BearPi_LiteOS/components/security/mbedtls/mbedtls-2.6.0/library\bignum.c ****  * appears to need this to prevent bad ARM code generation at -O3.
1106:C:/Users/lenovo/Desktop/liteos/Project2/BearPi_LiteOS/components/security/mbedtls/mbedtls-2.6.0/library\bignum.c ****  */
1107:C:/Users/lenovo/Desktop/liteos/Project2/BearPi_LiteOS/components/security/mbedtls/mbedtls-2.6.0/library\bignum.c **** __attribute__ ((noinline))
1108:C:/Users/lenovo/Desktop/liteos/Project2/BearPi_LiteOS/components/security/mbedtls/mbedtls-2.6.0/library\bignum.c **** #endif
1109:C:/Users/lenovo/Desktop/liteos/Project2/BearPi_LiteOS/components/security/mbedtls/mbedtls-2.6.0/library\bignum.c **** void mpi_mul_hlp( size_t i, mbedtls_mpi_uint *s, mbedtls_mpi_uint *d, mbedtls_mpi_uint b )
1110:C:/Users/lenovo/Desktop/liteos/Project2/BearPi_LiteOS/components/security/mbedtls/mbedtls-2.6.0/library\bignum.c **** {
 258              		.loc 1 1110 0
 259              		.cfi_startproc
 260              		@ args = 0, pretend = 0, frame = 0
 261              		@ frame_needed = 0, uses_anonymous_args = 0
 262              		@ link register save eliminated.
ARM GAS  c:\Users\lenovo\AppData\Local\Temp\ccjcyTZ0.s 			page 25


 263              	.LVL28:
 264 0000 2DE9F003 		push	{r4, r5, r6, r7, r8, r9}
 265              	.LCFI2:
 266              		.cfi_def_cfa_offset 24
 267              		.cfi_offset 4, -24
 268              		.cfi_offset 5, -20
 269              		.cfi_offset 6, -16
 270              		.cfi_offset 7, -12
 271              		.cfi_offset 8, -8
 272              		.cfi_offset 9, -4
 273              	.LVL29:
1111:C:/Users/lenovo/Desktop/liteos/Project2/BearPi_LiteOS/components/security/mbedtls/mbedtls-2.6.0/library\bignum.c ****     mbedtls_mpi_uint c = 0, t = 0;
 274              		.loc 1 1111 0
 275 0004 0024     		movs	r4, #0
1112:C:/Users/lenovo/Desktop/liteos/Project2/BearPi_LiteOS/components/security/mbedtls/mbedtls-2.6.0/library\bignum.c **** 
1113:C:/Users/lenovo/Desktop/liteos/Project2/BearPi_LiteOS/components/security/mbedtls/mbedtls-2.6.0/library\bignum.c **** #if defined(MULADDC_HUIT)
1114:C:/Users/lenovo/Desktop/liteos/Project2/BearPi_LiteOS/components/security/mbedtls/mbedtls-2.6.0/library\bignum.c ****     for( ; i >= 8; i -= 8 )
1115:C:/Users/lenovo/Desktop/liteos/Project2/BearPi_LiteOS/components/security/mbedtls/mbedtls-2.6.0/library\bignum.c ****     {
1116:C:/Users/lenovo/Desktop/liteos/Project2/BearPi_LiteOS/components/security/mbedtls/mbedtls-2.6.0/library\bignum.c ****         MULADDC_INIT
1117:C:/Users/lenovo/Desktop/liteos/Project2/BearPi_LiteOS/components/security/mbedtls/mbedtls-2.6.0/library\bignum.c ****         MULADDC_HUIT
1118:C:/Users/lenovo/Desktop/liteos/Project2/BearPi_LiteOS/components/security/mbedtls/mbedtls-2.6.0/library\bignum.c ****         MULADDC_STOP
1119:C:/Users/lenovo/Desktop/liteos/Project2/BearPi_LiteOS/components/security/mbedtls/mbedtls-2.6.0/library\bignum.c ****     }
1120:C:/Users/lenovo/Desktop/liteos/Project2/BearPi_LiteOS/components/security/mbedtls/mbedtls-2.6.0/library\bignum.c **** 
1121:C:/Users/lenovo/Desktop/liteos/Project2/BearPi_LiteOS/components/security/mbedtls/mbedtls-2.6.0/library\bignum.c ****     for( ; i > 0; i-- )
1122:C:/Users/lenovo/Desktop/liteos/Project2/BearPi_LiteOS/components/security/mbedtls/mbedtls-2.6.0/library\bignum.c ****     {
1123:C:/Users/lenovo/Desktop/liteos/Project2/BearPi_LiteOS/components/security/mbedtls/mbedtls-2.6.0/library\bignum.c ****         MULADDC_INIT
1124:C:/Users/lenovo/Desktop/liteos/Project2/BearPi_LiteOS/components/security/mbedtls/mbedtls-2.6.0/library\bignum.c ****         MULADDC_CORE
1125:C:/Users/lenovo/Desktop/liteos/Project2/BearPi_LiteOS/components/security/mbedtls/mbedtls-2.6.0/library\bignum.c ****         MULADDC_STOP
1126:C:/Users/lenovo/Desktop/liteos/Project2/BearPi_LiteOS/components/security/mbedtls/mbedtls-2.6.0/library\bignum.c ****     }
1127:C:/Users/lenovo/Desktop/liteos/Project2/BearPi_LiteOS/components/security/mbedtls/mbedtls-2.6.0/library\bignum.c **** #else /* MULADDC_HUIT */
1128:C:/Users/lenovo/Desktop/liteos/Project2/BearPi_LiteOS/components/security/mbedtls/mbedtls-2.6.0/library\bignum.c ****     for( ; i >= 16; i -= 16 )
 276              		.loc 1 1128 0
 277 0006 F4E0     		b	.L22
 278              	.LVL30:
 279              	.L23:
 280              	.LBB2:
1129:C:/Users/lenovo/Desktop/liteos/Project2/BearPi_LiteOS/components/security/mbedtls/mbedtls-2.6.0/library\bignum.c ****     {
1130:C:/Users/lenovo/Desktop/liteos/Project2/BearPi_LiteOS/components/security/mbedtls/mbedtls-2.6.0/library\bignum.c ****         MULADDC_INIT
1131:C:/Users/lenovo/Desktop/liteos/Project2/BearPi_LiteOS/components/security/mbedtls/mbedtls-2.6.0/library\bignum.c ****         MULADDC_CORE   MULADDC_CORE
 281              		.loc 1 1131 0 discriminator 2
 282 0008 0D68     		ldr	r5, [r1]
 283 000a A5FB0389 		umull	r8, r9, r5, r3
 284              	.LVL31:
 285 000e 14EB0804 		adds	r4, r4, r8
 286              	.LVL32:
 287 0012 2CBF     		ite	cs
 288 0014 0125     		movcs	r5, #1
 289 0016 0025     		movcc	r5, #0
 290 0018 05EB0907 		add	r7, r5, r9
 291              	.LVL33:
 292 001c 1668     		ldr	r6, [r2]
 293              	.LVL34:
 294 001e 3619     		adds	r6, r6, r4
 295              	.LVL35:
 296 0020 2CBF     		ite	cs
 297 0022 0125     		movcs	r5, #1
 298 0024 0025     		movcc	r5, #0
ARM GAS  c:\Users\lenovo\AppData\Local\Temp\ccjcyTZ0.s 			page 26


 299 0026 3D44     		add	r5, r5, r7
 300              	.LVL36:
 301 0028 1660     		str	r6, [r2]
 302              	.LVL37:
 303 002a 4E68     		ldr	r6, [r1, #4]
 304              	.LVL38:
 305 002c A3FB0667 		umull	r6, r7, r3, r6
 306              	.LVL39:
 307 0030 AD19     		adds	r5, r5, r6
 308              	.LVL40:
 309 0032 2CBF     		ite	cs
 310 0034 0124     		movcs	r4, #1
 311 0036 0024     		movcc	r4, #0
 312 0038 2744     		add	r7, r7, r4
 313              	.LVL41:
 314 003a 5668     		ldr	r6, [r2, #4]
 315              	.LVL42:
 316 003c 7519     		adds	r5, r6, r5
 317              	.LVL43:
 318 003e 2CBF     		ite	cs
 319 0040 0124     		movcs	r4, #1
 320 0042 0024     		movcc	r4, #0
 321 0044 3C44     		add	r4, r4, r7
 322              	.LVL44:
 323 0046 5560     		str	r5, [r2, #4]
 324              	.LVL45:
1132:C:/Users/lenovo/Desktop/liteos/Project2/BearPi_LiteOS/components/security/mbedtls/mbedtls-2.6.0/library\bignum.c ****         MULADDC_CORE   MULADDC_CORE
 325              		.loc 1 1132 0 discriminator 2
 326 0048 8E68     		ldr	r6, [r1, #8]
 327 004a A3FB0678 		umull	r7, r8, r3, r6
 328              	.LVL46:
 329 004e E419     		adds	r4, r4, r7
 330              	.LVL47:
 331 0050 2CBF     		ite	cs
 332 0052 0126     		movcs	r6, #1
 333 0054 0026     		movcc	r6, #0
 334 0056 4644     		add	r6, r6, r8
 335              	.LVL48:
 336 0058 9568     		ldr	r5, [r2, #8]
 337              	.LVL49:
 338 005a 2D19     		adds	r5, r5, r4
 339              	.LVL50:
 340 005c 2CBF     		ite	cs
 341 005e 0124     		movcs	r4, #1
 342 0060 0024     		movcc	r4, #0
 343 0062 3444     		add	r4, r4, r6
 344              	.LVL51:
 345 0064 9560     		str	r5, [r2, #8]
 346              	.LVL52:
 347 0066 CE68     		ldr	r6, [r1, #12]
 348 0068 A3FB0678 		umull	r7, r8, r3, r6
 349              	.LVL53:
 350 006c E419     		adds	r4, r4, r7
 351              	.LVL54:
 352 006e 2CBF     		ite	cs
 353 0070 0126     		movcs	r6, #1
 354 0072 0026     		movcc	r6, #0
ARM GAS  c:\Users\lenovo\AppData\Local\Temp\ccjcyTZ0.s 			page 27


 355 0074 4644     		add	r6, r6, r8
 356              	.LVL55:
 357 0076 D568     		ldr	r5, [r2, #12]
 358              	.LVL56:
 359 0078 2D19     		adds	r5, r5, r4
 360              	.LVL57:
 361 007a 2CBF     		ite	cs
 362 007c 0124     		movcs	r4, #1
 363 007e 0024     		movcc	r4, #0
 364 0080 3444     		add	r4, r4, r6
 365              	.LVL58:
 366 0082 D560     		str	r5, [r2, #12]
 367              	.LVL59:
1133:C:/Users/lenovo/Desktop/liteos/Project2/BearPi_LiteOS/components/security/mbedtls/mbedtls-2.6.0/library\bignum.c ****         MULADDC_CORE   MULADDC_CORE
 368              		.loc 1 1133 0 discriminator 2
 369 0084 0E69     		ldr	r6, [r1, #16]
 370 0086 A3FB0678 		umull	r7, r8, r3, r6
 371              	.LVL60:
 372 008a E419     		adds	r4, r4, r7
 373              	.LVL61:
 374 008c 2CBF     		ite	cs
 375 008e 0126     		movcs	r6, #1
 376 0090 0026     		movcc	r6, #0
 377 0092 4644     		add	r6, r6, r8
 378              	.LVL62:
 379 0094 1569     		ldr	r5, [r2, #16]
 380              	.LVL63:
 381 0096 2D19     		adds	r5, r5, r4
 382              	.LVL64:
 383 0098 2CBF     		ite	cs
 384 009a 0124     		movcs	r4, #1
 385 009c 0024     		movcc	r4, #0
 386 009e 3444     		add	r4, r4, r6
 387              	.LVL65:
 388 00a0 1561     		str	r5, [r2, #16]
 389              	.LVL66:
 390 00a2 4E69     		ldr	r6, [r1, #20]
 391 00a4 A3FB0678 		umull	r7, r8, r3, r6
 392              	.LVL67:
 393 00a8 E419     		adds	r4, r4, r7
 394              	.LVL68:
 395 00aa 2CBF     		ite	cs
 396 00ac 0126     		movcs	r6, #1
 397 00ae 0026     		movcc	r6, #0
 398 00b0 4644     		add	r6, r6, r8
 399              	.LVL69:
 400 00b2 5569     		ldr	r5, [r2, #20]
 401              	.LVL70:
 402 00b4 2D19     		adds	r5, r5, r4
 403              	.LVL71:
 404 00b6 2CBF     		ite	cs
 405 00b8 0124     		movcs	r4, #1
 406 00ba 0024     		movcc	r4, #0
 407 00bc 3444     		add	r4, r4, r6
 408              	.LVL72:
 409 00be 5561     		str	r5, [r2, #20]
 410              	.LVL73:
ARM GAS  c:\Users\lenovo\AppData\Local\Temp\ccjcyTZ0.s 			page 28


1134:C:/Users/lenovo/Desktop/liteos/Project2/BearPi_LiteOS/components/security/mbedtls/mbedtls-2.6.0/library\bignum.c ****         MULADDC_CORE   MULADDC_CORE
 411              		.loc 1 1134 0 discriminator 2
 412 00c0 8E69     		ldr	r6, [r1, #24]
 413 00c2 A3FB0678 		umull	r7, r8, r3, r6
 414              	.LVL74:
 415 00c6 E419     		adds	r4, r4, r7
 416              	.LVL75:
 417 00c8 2CBF     		ite	cs
 418 00ca 0126     		movcs	r6, #1
 419 00cc 0026     		movcc	r6, #0
 420 00ce 4644     		add	r6, r6, r8
 421              	.LVL76:
 422 00d0 9569     		ldr	r5, [r2, #24]
 423              	.LVL77:
 424 00d2 2D19     		adds	r5, r5, r4
 425              	.LVL78:
 426 00d4 2CBF     		ite	cs
 427 00d6 0124     		movcs	r4, #1
 428 00d8 0024     		movcc	r4, #0
 429 00da 3444     		add	r4, r4, r6
 430              	.LVL79:
 431 00dc 9561     		str	r5, [r2, #24]
 432              	.LVL80:
 433 00de CE69     		ldr	r6, [r1, #28]
 434 00e0 A3FB0678 		umull	r7, r8, r3, r6
 435              	.LVL81:
 436 00e4 E419     		adds	r4, r4, r7
 437              	.LVL82:
 438 00e6 2CBF     		ite	cs
 439 00e8 0126     		movcs	r6, #1
 440 00ea 0026     		movcc	r6, #0
 441 00ec 4644     		add	r6, r6, r8
 442              	.LVL83:
 443 00ee D569     		ldr	r5, [r2, #28]
 444              	.LVL84:
 445 00f0 2D19     		adds	r5, r5, r4
 446              	.LVL85:
 447 00f2 2CBF     		ite	cs
 448 00f4 0124     		movcs	r4, #1
 449 00f6 0024     		movcc	r4, #0
 450 00f8 3444     		add	r4, r4, r6
 451              	.LVL86:
 452 00fa D561     		str	r5, [r2, #28]
 453              	.LVL87:
1135:C:/Users/lenovo/Desktop/liteos/Project2/BearPi_LiteOS/components/security/mbedtls/mbedtls-2.6.0/library\bignum.c **** 
1136:C:/Users/lenovo/Desktop/liteos/Project2/BearPi_LiteOS/components/security/mbedtls/mbedtls-2.6.0/library\bignum.c ****         MULADDC_CORE   MULADDC_CORE
 454              		.loc 1 1136 0 discriminator 2
 455 00fc 0E6A     		ldr	r6, [r1, #32]
 456 00fe A3FB0678 		umull	r7, r8, r3, r6
 457              	.LVL88:
 458 0102 E419     		adds	r4, r4, r7
 459              	.LVL89:
 460 0104 2CBF     		ite	cs
 461 0106 0126     		movcs	r6, #1
 462 0108 0026     		movcc	r6, #0
 463 010a 4644     		add	r6, r6, r8
 464              	.LVL90:
ARM GAS  c:\Users\lenovo\AppData\Local\Temp\ccjcyTZ0.s 			page 29


 465 010c 156A     		ldr	r5, [r2, #32]
 466              	.LVL91:
 467 010e 2D19     		adds	r5, r5, r4
 468              	.LVL92:
 469 0110 2CBF     		ite	cs
 470 0112 0124     		movcs	r4, #1
 471 0114 0024     		movcc	r4, #0
 472 0116 3444     		add	r4, r4, r6
 473              	.LVL93:
 474 0118 1562     		str	r5, [r2, #32]
 475              	.LVL94:
 476 011a 4E6A     		ldr	r6, [r1, #36]
 477 011c A3FB0678 		umull	r7, r8, r3, r6
 478              	.LVL95:
 479 0120 E419     		adds	r4, r4, r7
 480              	.LVL96:
 481 0122 2CBF     		ite	cs
 482 0124 0126     		movcs	r6, #1
 483 0126 0026     		movcc	r6, #0
 484 0128 4644     		add	r6, r6, r8
 485              	.LVL97:
 486 012a 556A     		ldr	r5, [r2, #36]
 487              	.LVL98:
 488 012c 2D19     		adds	r5, r5, r4
 489              	.LVL99:
 490 012e 2CBF     		ite	cs
 491 0130 0124     		movcs	r4, #1
 492 0132 0024     		movcc	r4, #0
 493 0134 3444     		add	r4, r4, r6
 494              	.LVL100:
 495 0136 5562     		str	r5, [r2, #36]
 496              	.LVL101:
1137:C:/Users/lenovo/Desktop/liteos/Project2/BearPi_LiteOS/components/security/mbedtls/mbedtls-2.6.0/library\bignum.c ****         MULADDC_CORE   MULADDC_CORE
 497              		.loc 1 1137 0 discriminator 2
 498 0138 8E6A     		ldr	r6, [r1, #40]
 499 013a A3FB0678 		umull	r7, r8, r3, r6
 500              	.LVL102:
 501 013e E419     		adds	r4, r4, r7
 502              	.LVL103:
 503 0140 2CBF     		ite	cs
 504 0142 0126     		movcs	r6, #1
 505 0144 0026     		movcc	r6, #0
 506 0146 4644     		add	r6, r6, r8
 507              	.LVL104:
 508 0148 956A     		ldr	r5, [r2, #40]
 509              	.LVL105:
 510 014a 2D19     		adds	r5, r5, r4
 511              	.LVL106:
 512 014c 2CBF     		ite	cs
 513 014e 0124     		movcs	r4, #1
 514 0150 0024     		movcc	r4, #0
 515 0152 3444     		add	r4, r4, r6
 516              	.LVL107:
 517 0154 9562     		str	r5, [r2, #40]
 518              	.LVL108:
 519 0156 CE6A     		ldr	r6, [r1, #44]
 520 0158 A3FB0678 		umull	r7, r8, r3, r6
ARM GAS  c:\Users\lenovo\AppData\Local\Temp\ccjcyTZ0.s 			page 30


 521              	.LVL109:
 522 015c E419     		adds	r4, r4, r7
 523              	.LVL110:
 524 015e 2CBF     		ite	cs
 525 0160 0126     		movcs	r6, #1
 526 0162 0026     		movcc	r6, #0
 527 0164 4644     		add	r6, r6, r8
 528              	.LVL111:
 529 0166 D56A     		ldr	r5, [r2, #44]
 530              	.LVL112:
 531 0168 2D19     		adds	r5, r5, r4
 532              	.LVL113:
 533 016a 2CBF     		ite	cs
 534 016c 0124     		movcs	r4, #1
 535 016e 0024     		movcc	r4, #0
 536 0170 3444     		add	r4, r4, r6
 537              	.LVL114:
 538 0172 D562     		str	r5, [r2, #44]
 539              	.LVL115:
1138:C:/Users/lenovo/Desktop/liteos/Project2/BearPi_LiteOS/components/security/mbedtls/mbedtls-2.6.0/library\bignum.c ****         MULADDC_CORE   MULADDC_CORE
 540              		.loc 1 1138 0 discriminator 2
 541 0174 0E6B     		ldr	r6, [r1, #48]
 542 0176 A3FB0678 		umull	r7, r8, r3, r6
 543              	.LVL116:
 544 017a E419     		adds	r4, r4, r7
 545              	.LVL117:
 546 017c 2CBF     		ite	cs
 547 017e 0126     		movcs	r6, #1
 548 0180 0026     		movcc	r6, #0
 549 0182 4644     		add	r6, r6, r8
 550              	.LVL118:
 551 0184 156B     		ldr	r5, [r2, #48]
 552              	.LVL119:
 553 0186 2D19     		adds	r5, r5, r4
 554              	.LVL120:
 555 0188 2CBF     		ite	cs
 556 018a 0124     		movcs	r4, #1
 557 018c 0024     		movcc	r4, #0
 558 018e 3444     		add	r4, r4, r6
 559              	.LVL121:
 560 0190 1563     		str	r5, [r2, #48]
 561              	.LVL122:
 562 0192 4E6B     		ldr	r6, [r1, #52]
 563 0194 A3FB0678 		umull	r7, r8, r3, r6
 564              	.LVL123:
 565 0198 E419     		adds	r4, r4, r7
 566              	.LVL124:
 567 019a 2CBF     		ite	cs
 568 019c 0126     		movcs	r6, #1
 569 019e 0026     		movcc	r6, #0
 570 01a0 4644     		add	r6, r6, r8
 571              	.LVL125:
 572 01a2 556B     		ldr	r5, [r2, #52]
 573              	.LVL126:
 574 01a4 2D19     		adds	r5, r5, r4
 575              	.LVL127:
 576 01a6 2CBF     		ite	cs
ARM GAS  c:\Users\lenovo\AppData\Local\Temp\ccjcyTZ0.s 			page 31


 577 01a8 0124     		movcs	r4, #1
 578 01aa 0024     		movcc	r4, #0
 579 01ac 3444     		add	r4, r4, r6
 580              	.LVL128:
 581 01ae 5563     		str	r5, [r2, #52]
 582              	.LVL129:
1139:C:/Users/lenovo/Desktop/liteos/Project2/BearPi_LiteOS/components/security/mbedtls/mbedtls-2.6.0/library\bignum.c ****         MULADDC_CORE   MULADDC_CORE
 583              		.loc 1 1139 0 discriminator 2
 584 01b0 8E6B     		ldr	r6, [r1, #56]
 585 01b2 A3FB0678 		umull	r7, r8, r3, r6
 586              	.LVL130:
 587 01b6 E419     		adds	r4, r4, r7
 588              	.LVL131:
 589 01b8 2CBF     		ite	cs
 590 01ba 0126     		movcs	r6, #1
 591 01bc 0026     		movcc	r6, #0
 592 01be 4644     		add	r6, r6, r8
 593              	.LVL132:
 594 01c0 956B     		ldr	r5, [r2, #56]
 595              	.LVL133:
 596 01c2 2D19     		adds	r5, r5, r4
 597              	.LVL134:
 598 01c4 2CBF     		ite	cs
 599 01c6 0124     		movcs	r4, #1
 600 01c8 0024     		movcc	r4, #0
 601 01ca 3444     		add	r4, r4, r6
 602              	.LVL135:
 603 01cc 9563     		str	r5, [r2, #56]
 604              	.LVL136:
 605 01ce CE6B     		ldr	r6, [r1, #60]
 606 01d0 A3FB0678 		umull	r7, r8, r3, r6
 607              	.LVL137:
 608 01d4 E419     		adds	r4, r4, r7
 609              	.LVL138:
 610 01d6 2CBF     		ite	cs
 611 01d8 0126     		movcs	r6, #1
 612 01da 0026     		movcc	r6, #0
 613 01dc 4644     		add	r6, r6, r8
 614              	.LVL139:
 615 01de D56B     		ldr	r5, [r2, #60]
 616              	.LVL140:
 617 01e0 2D19     		adds	r5, r5, r4
 618              	.LVL141:
 619 01e2 2CBF     		ite	cs
 620 01e4 0124     		movcs	r4, #1
 621 01e6 0024     		movcc	r4, #0
 622 01e8 3444     		add	r4, r4, r6
 623              	.LVL142:
 624 01ea D563     		str	r5, [r2, #60]
 625              	.LBE2:
1128:C:/Users/lenovo/Desktop/liteos/Project2/BearPi_LiteOS/components/security/mbedtls/mbedtls-2.6.0/library\bignum.c ****     {
 626              		.loc 1 1128 0 discriminator 2
 627 01ec 1038     		subs	r0, r0, #16
 628              	.LVL143:
 629              	.LBB3:
 630              		.loc 1 1139 0 discriminator 2
 631 01ee 4032     		adds	r2, r2, #64
ARM GAS  c:\Users\lenovo\AppData\Local\Temp\ccjcyTZ0.s 			page 32


 632              	.LVL144:
 633 01f0 4031     		adds	r1, r1, #64
 634              	.LVL145:
 635              	.L22:
 636              	.LBE3:
1128:C:/Users/lenovo/Desktop/liteos/Project2/BearPi_LiteOS/components/security/mbedtls/mbedtls-2.6.0/library\bignum.c ****     {
 637              		.loc 1 1128 0 discriminator 1
 638 01f2 0F28     		cmp	r0, #15
 639 01f4 3FF608AF 		bhi	.L23
 640              	.L24:
1140:C:/Users/lenovo/Desktop/liteos/Project2/BearPi_LiteOS/components/security/mbedtls/mbedtls-2.6.0/library\bignum.c ****         MULADDC_STOP
1141:C:/Users/lenovo/Desktop/liteos/Project2/BearPi_LiteOS/components/security/mbedtls/mbedtls-2.6.0/library\bignum.c ****     }
1142:C:/Users/lenovo/Desktop/liteos/Project2/BearPi_LiteOS/components/security/mbedtls/mbedtls-2.6.0/library\bignum.c **** 
1143:C:/Users/lenovo/Desktop/liteos/Project2/BearPi_LiteOS/components/security/mbedtls/mbedtls-2.6.0/library\bignum.c ****     for( ; i >= 8; i -= 8 )
 641              		.loc 1 1143 0 discriminator 1
 642 01f8 0728     		cmp	r0, #7
 643 01fa 40F29480 		bls	.L26
 644              	.LVL146:
 645              	.LBB4:
1144:C:/Users/lenovo/Desktop/liteos/Project2/BearPi_LiteOS/components/security/mbedtls/mbedtls-2.6.0/library\bignum.c ****     {
1145:C:/Users/lenovo/Desktop/liteos/Project2/BearPi_LiteOS/components/security/mbedtls/mbedtls-2.6.0/library\bignum.c ****         MULADDC_INIT
1146:C:/Users/lenovo/Desktop/liteos/Project2/BearPi_LiteOS/components/security/mbedtls/mbedtls-2.6.0/library\bignum.c ****         MULADDC_CORE   MULADDC_CORE
 646              		.loc 1 1146 0 discriminator 2
 647 01fe 0D68     		ldr	r5, [r1]
 648 0200 A5FB0389 		umull	r8, r9, r5, r3
 649              	.LVL147:
 650 0204 14EB0804 		adds	r4, r4, r8
 651              	.LVL148:
 652 0208 2CBF     		ite	cs
 653 020a 0125     		movcs	r5, #1
 654 020c 0025     		movcc	r5, #0
 655 020e 05EB0907 		add	r7, r5, r9
 656              	.LVL149:
 657 0212 1668     		ldr	r6, [r2]
 658              	.LVL150:
 659 0214 3619     		adds	r6, r6, r4
 660              	.LVL151:
 661 0216 2CBF     		ite	cs
 662 0218 0125     		movcs	r5, #1
 663 021a 0025     		movcc	r5, #0
 664 021c 3D44     		add	r5, r5, r7
 665              	.LVL152:
 666 021e 1660     		str	r6, [r2]
 667              	.LVL153:
 668 0220 4E68     		ldr	r6, [r1, #4]
 669              	.LVL154:
 670 0222 A3FB0667 		umull	r6, r7, r3, r6
 671              	.LVL155:
 672 0226 AD19     		adds	r5, r5, r6
 673              	.LVL156:
 674 0228 2CBF     		ite	cs
 675 022a 0124     		movcs	r4, #1
 676 022c 0024     		movcc	r4, #0
 677 022e 2744     		add	r7, r7, r4
 678              	.LVL157:
 679 0230 5668     		ldr	r6, [r2, #4]
 680              	.LVL158:
ARM GAS  c:\Users\lenovo\AppData\Local\Temp\ccjcyTZ0.s 			page 33


 681 0232 7519     		adds	r5, r6, r5
 682              	.LVL159:
 683 0234 2CBF     		ite	cs
 684 0236 0124     		movcs	r4, #1
 685 0238 0024     		movcc	r4, #0
 686 023a 3C44     		add	r4, r4, r7
 687              	.LVL160:
 688 023c 5560     		str	r5, [r2, #4]
 689              	.LVL161:
1147:C:/Users/lenovo/Desktop/liteos/Project2/BearPi_LiteOS/components/security/mbedtls/mbedtls-2.6.0/library\bignum.c ****         MULADDC_CORE   MULADDC_CORE
 690              		.loc 1 1147 0 discriminator 2
 691 023e 8E68     		ldr	r6, [r1, #8]
 692 0240 A3FB0678 		umull	r7, r8, r3, r6
 693              	.LVL162:
 694 0244 E419     		adds	r4, r4, r7
 695              	.LVL163:
 696 0246 2CBF     		ite	cs
 697 0248 0126     		movcs	r6, #1
 698 024a 0026     		movcc	r6, #0
 699 024c 4644     		add	r6, r6, r8
 700              	.LVL164:
 701 024e 9568     		ldr	r5, [r2, #8]
 702              	.LVL165:
 703 0250 2D19     		adds	r5, r5, r4
 704              	.LVL166:
 705 0252 2CBF     		ite	cs
 706 0254 0124     		movcs	r4, #1
 707 0256 0024     		movcc	r4, #0
 708 0258 3444     		add	r4, r4, r6
 709              	.LVL167:
 710 025a 9560     		str	r5, [r2, #8]
 711              	.LVL168:
 712 025c CE68     		ldr	r6, [r1, #12]
 713 025e A3FB0678 		umull	r7, r8, r3, r6
 714              	.LVL169:
 715 0262 E419     		adds	r4, r4, r7
 716              	.LVL170:
 717 0264 2CBF     		ite	cs
 718 0266 0126     		movcs	r6, #1
 719 0268 0026     		movcc	r6, #0
 720 026a 4644     		add	r6, r6, r8
 721              	.LVL171:
 722 026c D568     		ldr	r5, [r2, #12]
 723              	.LVL172:
 724 026e 2D19     		adds	r5, r5, r4
 725              	.LVL173:
 726 0270 2CBF     		ite	cs
 727 0272 0124     		movcs	r4, #1
 728 0274 0024     		movcc	r4, #0
 729 0276 3444     		add	r4, r4, r6
 730              	.LVL174:
 731 0278 D560     		str	r5, [r2, #12]
 732              	.LVL175:
1148:C:/Users/lenovo/Desktop/liteos/Project2/BearPi_LiteOS/components/security/mbedtls/mbedtls-2.6.0/library\bignum.c **** 
1149:C:/Users/lenovo/Desktop/liteos/Project2/BearPi_LiteOS/components/security/mbedtls/mbedtls-2.6.0/library\bignum.c ****         MULADDC_CORE   MULADDC_CORE
 733              		.loc 1 1149 0 discriminator 2
 734 027a 0E69     		ldr	r6, [r1, #16]
ARM GAS  c:\Users\lenovo\AppData\Local\Temp\ccjcyTZ0.s 			page 34


 735 027c A3FB0678 		umull	r7, r8, r3, r6
 736              	.LVL176:
 737 0280 E419     		adds	r4, r4, r7
 738              	.LVL177:
 739 0282 2CBF     		ite	cs
 740 0284 0126     		movcs	r6, #1
 741 0286 0026     		movcc	r6, #0
 742 0288 4644     		add	r6, r6, r8
 743              	.LVL178:
 744 028a 1569     		ldr	r5, [r2, #16]
 745              	.LVL179:
 746 028c 2D19     		adds	r5, r5, r4
 747              	.LVL180:
 748 028e 2CBF     		ite	cs
 749 0290 0124     		movcs	r4, #1
 750 0292 0024     		movcc	r4, #0
 751 0294 3444     		add	r4, r4, r6
 752              	.LVL181:
 753 0296 1561     		str	r5, [r2, #16]
 754              	.LVL182:
 755 0298 4E69     		ldr	r6, [r1, #20]
 756 029a A3FB0678 		umull	r7, r8, r3, r6
 757              	.LVL183:
 758 029e E419     		adds	r4, r4, r7
 759              	.LVL184:
 760 02a0 2CBF     		ite	cs
 761 02a2 0126     		movcs	r6, #1
 762 02a4 0026     		movcc	r6, #0
 763 02a6 4644     		add	r6, r6, r8
 764              	.LVL185:
 765 02a8 5569     		ldr	r5, [r2, #20]
 766              	.LVL186:
 767 02aa 2D19     		adds	r5, r5, r4
 768              	.LVL187:
 769 02ac 2CBF     		ite	cs
 770 02ae 0124     		movcs	r4, #1
 771 02b0 0024     		movcc	r4, #0
 772 02b2 3444     		add	r4, r4, r6
 773              	.LVL188:
 774 02b4 5561     		str	r5, [r2, #20]
 775              	.LVL189:
1150:C:/Users/lenovo/Desktop/liteos/Project2/BearPi_LiteOS/components/security/mbedtls/mbedtls-2.6.0/library\bignum.c ****         MULADDC_CORE   MULADDC_CORE
 776              		.loc 1 1150 0 discriminator 2
 777 02b6 8E69     		ldr	r6, [r1, #24]
 778 02b8 A3FB0678 		umull	r7, r8, r3, r6
 779              	.LVL190:
 780 02bc E419     		adds	r4, r4, r7
 781              	.LVL191:
 782 02be 2CBF     		ite	cs
 783 02c0 0126     		movcs	r6, #1
 784 02c2 0026     		movcc	r6, #0
 785 02c4 4644     		add	r6, r6, r8
 786              	.LVL192:
 787 02c6 9569     		ldr	r5, [r2, #24]
 788              	.LVL193:
 789 02c8 2D19     		adds	r5, r5, r4
 790              	.LVL194:
ARM GAS  c:\Users\lenovo\AppData\Local\Temp\ccjcyTZ0.s 			page 35


 791 02ca 2CBF     		ite	cs
 792 02cc 0124     		movcs	r4, #1
 793 02ce 0024     		movcc	r4, #0
 794 02d0 3444     		add	r4, r4, r6
 795              	.LVL195:
 796 02d2 9561     		str	r5, [r2, #24]
 797              	.LVL196:
 798 02d4 CE69     		ldr	r6, [r1, #28]
 799 02d6 A3FB0678 		umull	r7, r8, r3, r6
 800              	.LVL197:
 801 02da E419     		adds	r4, r4, r7
 802              	.LVL198:
 803 02dc 2CBF     		ite	cs
 804 02de 0126     		movcs	r6, #1
 805 02e0 0026     		movcc	r6, #0
 806 02e2 4644     		add	r6, r6, r8
 807              	.LVL199:
 808 02e4 D569     		ldr	r5, [r2, #28]
 809              	.LVL200:
 810 02e6 2D19     		adds	r5, r5, r4
 811              	.LVL201:
 812 02e8 2CBF     		ite	cs
 813 02ea 0124     		movcs	r4, #1
 814 02ec 0024     		movcc	r4, #0
 815 02ee 3444     		add	r4, r4, r6
 816              	.LVL202:
 817 02f0 D561     		str	r5, [r2, #28]
 818              	.LBE4:
1143:C:/Users/lenovo/Desktop/liteos/Project2/BearPi_LiteOS/components/security/mbedtls/mbedtls-2.6.0/library\bignum.c ****     {
 819              		.loc 1 1143 0 discriminator 2
 820 02f2 0838     		subs	r0, r0, #8
 821              	.LVL203:
 822              	.LBB5:
 823              		.loc 1 1150 0 discriminator 2
 824 02f4 2032     		adds	r2, r2, #32
 825              	.LVL204:
 826 02f6 2031     		adds	r1, r1, #32
 827              	.LVL205:
 828 02f8 7EE7     		b	.L24
 829              	.LVL206:
 830              	.L27:
 831              	.LBE5:
 832              	.LBB6:
1151:C:/Users/lenovo/Desktop/liteos/Project2/BearPi_LiteOS/components/security/mbedtls/mbedtls-2.6.0/library\bignum.c ****         MULADDC_STOP
1152:C:/Users/lenovo/Desktop/liteos/Project2/BearPi_LiteOS/components/security/mbedtls/mbedtls-2.6.0/library\bignum.c ****     }
1153:C:/Users/lenovo/Desktop/liteos/Project2/BearPi_LiteOS/components/security/mbedtls/mbedtls-2.6.0/library\bignum.c **** 
1154:C:/Users/lenovo/Desktop/liteos/Project2/BearPi_LiteOS/components/security/mbedtls/mbedtls-2.6.0/library\bignum.c ****     for( ; i > 0; i-- )
1155:C:/Users/lenovo/Desktop/liteos/Project2/BearPi_LiteOS/components/security/mbedtls/mbedtls-2.6.0/library\bignum.c ****     {
1156:C:/Users/lenovo/Desktop/liteos/Project2/BearPi_LiteOS/components/security/mbedtls/mbedtls-2.6.0/library\bignum.c ****         MULADDC_INIT
1157:C:/Users/lenovo/Desktop/liteos/Project2/BearPi_LiteOS/components/security/mbedtls/mbedtls-2.6.0/library\bignum.c ****         MULADDC_CORE
 833              		.loc 1 1157 0 discriminator 2
 834 02fa 0E68     		ldr	r6, [r1]
 835 02fc A6FB0367 		umull	r6, r7, r6, r3
 836              	.LVL207:
 837 0300 14EB060C 		adds	ip, r4, r6
 838              	.LVL208:
 839 0304 2CBF     		ite	cs
ARM GAS  c:\Users\lenovo\AppData\Local\Temp\ccjcyTZ0.s 			page 36


 840 0306 0124     		movcs	r4, #1
 841              	.LVL209:
 842 0308 0024     		movcc	r4, #0
 843 030a 2744     		add	r7, r7, r4
 844              	.LVL210:
 845 030c 1646     		mov	r6, r2
 846              	.LVL211:
 847 030e 56F8045B 		ldr	r5, [r6], #4
 848              	.LVL212:
 849 0312 15EB0C05 		adds	r5, r5, ip
 850              	.LVL213:
 851 0316 2CBF     		ite	cs
 852 0318 0124     		movcs	r4, #1
 853 031a 0024     		movcc	r4, #0
 854 031c 3C44     		add	r4, r4, r7
 855              	.LVL214:
 856 031e 1560     		str	r5, [r2]
 857              	.LVL215:
 858              	.LBE6:
1154:C:/Users/lenovo/Desktop/liteos/Project2/BearPi_LiteOS/components/security/mbedtls/mbedtls-2.6.0/library\bignum.c ****     {
 859              		.loc 1 1154 0 discriminator 2
 860 0320 0138     		subs	r0, r0, #1
 861              	.LVL216:
 862              	.LBB7:
 863              		.loc 1 1157 0 discriminator 2
 864 0322 3246     		mov	r2, r6
 865 0324 0431     		adds	r1, r1, #4
 866              	.LVL217:
 867              	.L26:
 868              	.LBE7:
1154:C:/Users/lenovo/Desktop/liteos/Project2/BearPi_LiteOS/components/security/mbedtls/mbedtls-2.6.0/library\bignum.c ****     {
 869              		.loc 1 1154 0 discriminator 1
 870 0326 0028     		cmp	r0, #0
 871 0328 E7D1     		bne	.L27
 872              	.LVL218:
 873              	.L28:
1158:C:/Users/lenovo/Desktop/liteos/Project2/BearPi_LiteOS/components/security/mbedtls/mbedtls-2.6.0/library\bignum.c ****         MULADDC_STOP
1159:C:/Users/lenovo/Desktop/liteos/Project2/BearPi_LiteOS/components/security/mbedtls/mbedtls-2.6.0/library\bignum.c ****     }
1160:C:/Users/lenovo/Desktop/liteos/Project2/BearPi_LiteOS/components/security/mbedtls/mbedtls-2.6.0/library\bignum.c **** #endif /* MULADDC_HUIT */
1161:C:/Users/lenovo/Desktop/liteos/Project2/BearPi_LiteOS/components/security/mbedtls/mbedtls-2.6.0/library\bignum.c **** 
1162:C:/Users/lenovo/Desktop/liteos/Project2/BearPi_LiteOS/components/security/mbedtls/mbedtls-2.6.0/library\bignum.c ****     t++;
1163:C:/Users/lenovo/Desktop/liteos/Project2/BearPi_LiteOS/components/security/mbedtls/mbedtls-2.6.0/library\bignum.c **** 
1164:C:/Users/lenovo/Desktop/liteos/Project2/BearPi_LiteOS/components/security/mbedtls/mbedtls-2.6.0/library\bignum.c ****     do {
1165:C:/Users/lenovo/Desktop/liteos/Project2/BearPi_LiteOS/components/security/mbedtls/mbedtls-2.6.0/library\bignum.c ****         *d += c; c = ( *d < c ); d++;
 874              		.loc 1 1165 0 discriminator 1
 875 032a 1368     		ldr	r3, [r2]
 876 032c 2344     		add	r3, r3, r4
 877 032e 42F8043B 		str	r3, [r2], #4
 878              	.LVL219:
 879 0332 A342     		cmp	r3, r4
 880 0334 34BF     		ite	cc
 881 0336 0124     		movcc	r4, #1
 882              	.LVL220:
 883 0338 0024     		movcs	r4, #0
 884              	.LVL221:
1166:C:/Users/lenovo/Desktop/liteos/Project2/BearPi_LiteOS/components/security/mbedtls/mbedtls-2.6.0/library\bignum.c ****     }
1167:C:/Users/lenovo/Desktop/liteos/Project2/BearPi_LiteOS/components/security/mbedtls/mbedtls-2.6.0/library\bignum.c ****     while( c != 0 );
ARM GAS  c:\Users\lenovo\AppData\Local\Temp\ccjcyTZ0.s 			page 37


 885              		.loc 1 1167 0 discriminator 1
 886 033a F6D3     		bcc	.L28
1168:C:/Users/lenovo/Desktop/liteos/Project2/BearPi_LiteOS/components/security/mbedtls/mbedtls-2.6.0/library\bignum.c **** }
 887              		.loc 1 1168 0
 888 033c BDE8F003 		pop	{r4, r5, r6, r7, r8, r9}
 889              	.LCFI3:
 890              		.cfi_restore 9
 891              		.cfi_restore 8
 892              		.cfi_restore 7
 893              		.cfi_restore 6
 894              		.cfi_restore 5
 895              		.cfi_restore 4
 896              		.cfi_def_cfa_offset 0
 897              	.LVL222:
 898 0340 7047     		bx	lr
 899              		.cfi_endproc
 900              	.LFE37:
 902              		.global	__aeabi_uldivmod
 903              		.section	.text.mbedtls_int_div_int,"ax",%progbits
 904              		.align	1
 905              		.syntax unified
 906              		.thumb
 907              		.thumb_func
 908              		.fpu fpv4-sp-d16
 910              	mbedtls_int_div_int:
 911              	.LFB40:
1169:C:/Users/lenovo/Desktop/liteos/Project2/BearPi_LiteOS/components/security/mbedtls/mbedtls-2.6.0/library\bignum.c **** 
1170:C:/Users/lenovo/Desktop/liteos/Project2/BearPi_LiteOS/components/security/mbedtls/mbedtls-2.6.0/library\bignum.c **** /*
1171:C:/Users/lenovo/Desktop/liteos/Project2/BearPi_LiteOS/components/security/mbedtls/mbedtls-2.6.0/library\bignum.c ****  * Baseline multiplication: X = A * B  (HAC 14.12)
1172:C:/Users/lenovo/Desktop/liteos/Project2/BearPi_LiteOS/components/security/mbedtls/mbedtls-2.6.0/library\bignum.c ****  */
1173:C:/Users/lenovo/Desktop/liteos/Project2/BearPi_LiteOS/components/security/mbedtls/mbedtls-2.6.0/library\bignum.c **** int mbedtls_mpi_mul_mpi( mbedtls_mpi *X, const mbedtls_mpi *A, const mbedtls_mpi *B )
1174:C:/Users/lenovo/Desktop/liteos/Project2/BearPi_LiteOS/components/security/mbedtls/mbedtls-2.6.0/library\bignum.c **** {
1175:C:/Users/lenovo/Desktop/liteos/Project2/BearPi_LiteOS/components/security/mbedtls/mbedtls-2.6.0/library\bignum.c ****     int ret;
1176:C:/Users/lenovo/Desktop/liteos/Project2/BearPi_LiteOS/components/security/mbedtls/mbedtls-2.6.0/library\bignum.c ****     size_t i, j;
1177:C:/Users/lenovo/Desktop/liteos/Project2/BearPi_LiteOS/components/security/mbedtls/mbedtls-2.6.0/library\bignum.c ****     mbedtls_mpi TA, TB;
1178:C:/Users/lenovo/Desktop/liteos/Project2/BearPi_LiteOS/components/security/mbedtls/mbedtls-2.6.0/library\bignum.c **** 
1179:C:/Users/lenovo/Desktop/liteos/Project2/BearPi_LiteOS/components/security/mbedtls/mbedtls-2.6.0/library\bignum.c ****     mbedtls_mpi_init( &TA ); mbedtls_mpi_init( &TB );
1180:C:/Users/lenovo/Desktop/liteos/Project2/BearPi_LiteOS/components/security/mbedtls/mbedtls-2.6.0/library\bignum.c **** 
1181:C:/Users/lenovo/Desktop/liteos/Project2/BearPi_LiteOS/components/security/mbedtls/mbedtls-2.6.0/library\bignum.c ****     if( X == A ) { MBEDTLS_MPI_CHK( mbedtls_mpi_copy( &TA, A ) ); A = &TA; }
1182:C:/Users/lenovo/Desktop/liteos/Project2/BearPi_LiteOS/components/security/mbedtls/mbedtls-2.6.0/library\bignum.c ****     if( X == B ) { MBEDTLS_MPI_CHK( mbedtls_mpi_copy( &TB, B ) ); B = &TB; }
1183:C:/Users/lenovo/Desktop/liteos/Project2/BearPi_LiteOS/components/security/mbedtls/mbedtls-2.6.0/library\bignum.c **** 
1184:C:/Users/lenovo/Desktop/liteos/Project2/BearPi_LiteOS/components/security/mbedtls/mbedtls-2.6.0/library\bignum.c ****     for( i = A->n; i > 0; i-- )
1185:C:/Users/lenovo/Desktop/liteos/Project2/BearPi_LiteOS/components/security/mbedtls/mbedtls-2.6.0/library\bignum.c ****         if( A->p[i - 1] != 0 )
1186:C:/Users/lenovo/Desktop/liteos/Project2/BearPi_LiteOS/components/security/mbedtls/mbedtls-2.6.0/library\bignum.c ****             break;
1187:C:/Users/lenovo/Desktop/liteos/Project2/BearPi_LiteOS/components/security/mbedtls/mbedtls-2.6.0/library\bignum.c **** 
1188:C:/Users/lenovo/Desktop/liteos/Project2/BearPi_LiteOS/components/security/mbedtls/mbedtls-2.6.0/library\bignum.c ****     for( j = B->n; j > 0; j-- )
1189:C:/Users/lenovo/Desktop/liteos/Project2/BearPi_LiteOS/components/security/mbedtls/mbedtls-2.6.0/library\bignum.c ****         if( B->p[j - 1] != 0 )
1190:C:/Users/lenovo/Desktop/liteos/Project2/BearPi_LiteOS/components/security/mbedtls/mbedtls-2.6.0/library\bignum.c ****             break;
1191:C:/Users/lenovo/Desktop/liteos/Project2/BearPi_LiteOS/components/security/mbedtls/mbedtls-2.6.0/library\bignum.c **** 
1192:C:/Users/lenovo/Desktop/liteos/Project2/BearPi_LiteOS/components/security/mbedtls/mbedtls-2.6.0/library\bignum.c ****     MBEDTLS_MPI_CHK( mbedtls_mpi_grow( X, i + j ) );
1193:C:/Users/lenovo/Desktop/liteos/Project2/BearPi_LiteOS/components/security/mbedtls/mbedtls-2.6.0/library\bignum.c ****     MBEDTLS_MPI_CHK( mbedtls_mpi_lset( X, 0 ) );
1194:C:/Users/lenovo/Desktop/liteos/Project2/BearPi_LiteOS/components/security/mbedtls/mbedtls-2.6.0/library\bignum.c **** 
1195:C:/Users/lenovo/Desktop/liteos/Project2/BearPi_LiteOS/components/security/mbedtls/mbedtls-2.6.0/library\bignum.c ****     for( i++; j > 0; j-- )
1196:C:/Users/lenovo/Desktop/liteos/Project2/BearPi_LiteOS/components/security/mbedtls/mbedtls-2.6.0/library\bignum.c ****         mpi_mul_hlp( i - 1, A->p, X->p + j - 1, B->p[j - 1] );
1197:C:/Users/lenovo/Desktop/liteos/Project2/BearPi_LiteOS/components/security/mbedtls/mbedtls-2.6.0/library\bignum.c **** 
1198:C:/Users/lenovo/Desktop/liteos/Project2/BearPi_LiteOS/components/security/mbedtls/mbedtls-2.6.0/library\bignum.c ****     X->s = A->s * B->s;
1199:C:/Users/lenovo/Desktop/liteos/Project2/BearPi_LiteOS/components/security/mbedtls/mbedtls-2.6.0/library\bignum.c **** 
ARM GAS  c:\Users\lenovo\AppData\Local\Temp\ccjcyTZ0.s 			page 38


1200:C:/Users/lenovo/Desktop/liteos/Project2/BearPi_LiteOS/components/security/mbedtls/mbedtls-2.6.0/library\bignum.c **** cleanup:
1201:C:/Users/lenovo/Desktop/liteos/Project2/BearPi_LiteOS/components/security/mbedtls/mbedtls-2.6.0/library\bignum.c **** 
1202:C:/Users/lenovo/Desktop/liteos/Project2/BearPi_LiteOS/components/security/mbedtls/mbedtls-2.6.0/library\bignum.c ****     mbedtls_mpi_free( &TB ); mbedtls_mpi_free( &TA );
1203:C:/Users/lenovo/Desktop/liteos/Project2/BearPi_LiteOS/components/security/mbedtls/mbedtls-2.6.0/library\bignum.c **** 
1204:C:/Users/lenovo/Desktop/liteos/Project2/BearPi_LiteOS/components/security/mbedtls/mbedtls-2.6.0/library\bignum.c ****     return( ret );
1205:C:/Users/lenovo/Desktop/liteos/Project2/BearPi_LiteOS/components/security/mbedtls/mbedtls-2.6.0/library\bignum.c **** }
1206:C:/Users/lenovo/Desktop/liteos/Project2/BearPi_LiteOS/components/security/mbedtls/mbedtls-2.6.0/library\bignum.c **** 
1207:C:/Users/lenovo/Desktop/liteos/Project2/BearPi_LiteOS/components/security/mbedtls/mbedtls-2.6.0/library\bignum.c **** /*
1208:C:/Users/lenovo/Desktop/liteos/Project2/BearPi_LiteOS/components/security/mbedtls/mbedtls-2.6.0/library\bignum.c ****  * Baseline multiplication: X = A * b
1209:C:/Users/lenovo/Desktop/liteos/Project2/BearPi_LiteOS/components/security/mbedtls/mbedtls-2.6.0/library\bignum.c ****  */
1210:C:/Users/lenovo/Desktop/liteos/Project2/BearPi_LiteOS/components/security/mbedtls/mbedtls-2.6.0/library\bignum.c **** int mbedtls_mpi_mul_int( mbedtls_mpi *X, const mbedtls_mpi *A, mbedtls_mpi_uint b )
1211:C:/Users/lenovo/Desktop/liteos/Project2/BearPi_LiteOS/components/security/mbedtls/mbedtls-2.6.0/library\bignum.c **** {
1212:C:/Users/lenovo/Desktop/liteos/Project2/BearPi_LiteOS/components/security/mbedtls/mbedtls-2.6.0/library\bignum.c ****     mbedtls_mpi _B;
1213:C:/Users/lenovo/Desktop/liteos/Project2/BearPi_LiteOS/components/security/mbedtls/mbedtls-2.6.0/library\bignum.c ****     mbedtls_mpi_uint p[1];
1214:C:/Users/lenovo/Desktop/liteos/Project2/BearPi_LiteOS/components/security/mbedtls/mbedtls-2.6.0/library\bignum.c **** 
1215:C:/Users/lenovo/Desktop/liteos/Project2/BearPi_LiteOS/components/security/mbedtls/mbedtls-2.6.0/library\bignum.c ****     _B.s = 1;
1216:C:/Users/lenovo/Desktop/liteos/Project2/BearPi_LiteOS/components/security/mbedtls/mbedtls-2.6.0/library\bignum.c ****     _B.n = 1;
1217:C:/Users/lenovo/Desktop/liteos/Project2/BearPi_LiteOS/components/security/mbedtls/mbedtls-2.6.0/library\bignum.c ****     _B.p = p;
1218:C:/Users/lenovo/Desktop/liteos/Project2/BearPi_LiteOS/components/security/mbedtls/mbedtls-2.6.0/library\bignum.c ****     p[0] = b;
1219:C:/Users/lenovo/Desktop/liteos/Project2/BearPi_LiteOS/components/security/mbedtls/mbedtls-2.6.0/library\bignum.c **** 
1220:C:/Users/lenovo/Desktop/liteos/Project2/BearPi_LiteOS/components/security/mbedtls/mbedtls-2.6.0/library\bignum.c ****     return( mbedtls_mpi_mul_mpi( X, A, &_B ) );
1221:C:/Users/lenovo/Desktop/liteos/Project2/BearPi_LiteOS/components/security/mbedtls/mbedtls-2.6.0/library\bignum.c **** }
1222:C:/Users/lenovo/Desktop/liteos/Project2/BearPi_LiteOS/components/security/mbedtls/mbedtls-2.6.0/library\bignum.c **** 
1223:C:/Users/lenovo/Desktop/liteos/Project2/BearPi_LiteOS/components/security/mbedtls/mbedtls-2.6.0/library\bignum.c **** /*
1224:C:/Users/lenovo/Desktop/liteos/Project2/BearPi_LiteOS/components/security/mbedtls/mbedtls-2.6.0/library\bignum.c ****  * Unsigned integer divide - double mbedtls_mpi_uint dividend, u1/u0, and
1225:C:/Users/lenovo/Desktop/liteos/Project2/BearPi_LiteOS/components/security/mbedtls/mbedtls-2.6.0/library\bignum.c ****  * mbedtls_mpi_uint divisor, d
1226:C:/Users/lenovo/Desktop/liteos/Project2/BearPi_LiteOS/components/security/mbedtls/mbedtls-2.6.0/library\bignum.c ****  */
1227:C:/Users/lenovo/Desktop/liteos/Project2/BearPi_LiteOS/components/security/mbedtls/mbedtls-2.6.0/library\bignum.c **** static mbedtls_mpi_uint mbedtls_int_div_int( mbedtls_mpi_uint u1,
1228:C:/Users/lenovo/Desktop/liteos/Project2/BearPi_LiteOS/components/security/mbedtls/mbedtls-2.6.0/library\bignum.c ****             mbedtls_mpi_uint u0, mbedtls_mpi_uint d, mbedtls_mpi_uint *r )
1229:C:/Users/lenovo/Desktop/liteos/Project2/BearPi_LiteOS/components/security/mbedtls/mbedtls-2.6.0/library\bignum.c **** {
 912              		.loc 1 1229 0
 913              		.cfi_startproc
 914              		@ args = 0, pretend = 0, frame = 0
 915              		@ frame_needed = 0, uses_anonymous_args = 0
 916              	.LVL223:
1230:C:/Users/lenovo/Desktop/liteos/Project2/BearPi_LiteOS/components/security/mbedtls/mbedtls-2.6.0/library\bignum.c **** #if defined(MBEDTLS_HAVE_UDBL)
1231:C:/Users/lenovo/Desktop/liteos/Project2/BearPi_LiteOS/components/security/mbedtls/mbedtls-2.6.0/library\bignum.c ****     mbedtls_t_udbl dividend, quotient;
1232:C:/Users/lenovo/Desktop/liteos/Project2/BearPi_LiteOS/components/security/mbedtls/mbedtls-2.6.0/library\bignum.c **** #else
1233:C:/Users/lenovo/Desktop/liteos/Project2/BearPi_LiteOS/components/security/mbedtls/mbedtls-2.6.0/library\bignum.c ****     const mbedtls_mpi_uint radix = (mbedtls_mpi_uint) 1 << biH;
1234:C:/Users/lenovo/Desktop/liteos/Project2/BearPi_LiteOS/components/security/mbedtls/mbedtls-2.6.0/library\bignum.c ****     const mbedtls_mpi_uint uint_halfword_mask = ( (mbedtls_mpi_uint) 1 << biH ) - 1;
1235:C:/Users/lenovo/Desktop/liteos/Project2/BearPi_LiteOS/components/security/mbedtls/mbedtls-2.6.0/library\bignum.c ****     mbedtls_mpi_uint d0, d1, q0, q1, rAX, r0, quotient;
1236:C:/Users/lenovo/Desktop/liteos/Project2/BearPi_LiteOS/components/security/mbedtls/mbedtls-2.6.0/library\bignum.c ****     mbedtls_mpi_uint u0_msw, u0_lsw;
1237:C:/Users/lenovo/Desktop/liteos/Project2/BearPi_LiteOS/components/security/mbedtls/mbedtls-2.6.0/library\bignum.c ****     size_t s;
1238:C:/Users/lenovo/Desktop/liteos/Project2/BearPi_LiteOS/components/security/mbedtls/mbedtls-2.6.0/library\bignum.c **** #endif
1239:C:/Users/lenovo/Desktop/liteos/Project2/BearPi_LiteOS/components/security/mbedtls/mbedtls-2.6.0/library\bignum.c **** 
1240:C:/Users/lenovo/Desktop/liteos/Project2/BearPi_LiteOS/components/security/mbedtls/mbedtls-2.6.0/library\bignum.c ****     /*
1241:C:/Users/lenovo/Desktop/liteos/Project2/BearPi_LiteOS/components/security/mbedtls/mbedtls-2.6.0/library\bignum.c ****      * Check for overflow
1242:C:/Users/lenovo/Desktop/liteos/Project2/BearPi_LiteOS/components/security/mbedtls/mbedtls-2.6.0/library\bignum.c ****      */
1243:C:/Users/lenovo/Desktop/liteos/Project2/BearPi_LiteOS/components/security/mbedtls/mbedtls-2.6.0/library\bignum.c ****     if( 0 == d || u1 >= d )
 917              		.loc 1 1243 0
 918 0000 22B3     		cbz	r2, .L40
1229:C:/Users/lenovo/Desktop/liteos/Project2/BearPi_LiteOS/components/security/mbedtls/mbedtls-2.6.0/library\bignum.c **** #if defined(MBEDTLS_HAVE_UDBL)
 919              		.loc 1 1229 0 discriminator 1
 920 0002 2DE9F843 		push	{r3, r4, r5, r6, r7, r8, r9, lr}
 921              	.LCFI4:
 922              		.cfi_def_cfa_offset 32
 923              		.cfi_offset 3, -32
ARM GAS  c:\Users\lenovo\AppData\Local\Temp\ccjcyTZ0.s 			page 39


 924              		.cfi_offset 4, -28
 925              		.cfi_offset 5, -24
 926              		.cfi_offset 6, -20
 927              		.cfi_offset 7, -16
 928              		.cfi_offset 8, -12
 929              		.cfi_offset 9, -8
 930              		.cfi_offset 14, -4
 931 0006 1446     		mov	r4, r2
 932              		.loc 1 1243 0 discriminator 1
 933 0008 8242     		cmp	r2, r0
 934 000a 05D8     		bhi	.L33
1244:C:/Users/lenovo/Desktop/liteos/Project2/BearPi_LiteOS/components/security/mbedtls/mbedtls-2.6.0/library\bignum.c ****     {
1245:C:/Users/lenovo/Desktop/liteos/Project2/BearPi_LiteOS/components/security/mbedtls/mbedtls-2.6.0/library\bignum.c ****         if (r != NULL) *r = ~0;
 935              		.loc 1 1245 0
 936 000c DBB1     		cbz	r3, .L37
 937              		.loc 1 1245 0 is_stmt 0 discriminator 1
 938 000e 4FF0FF30 		mov	r0, #-1
 939              	.LVL224:
 940 0012 1860     		str	r0, [r3]
 941              	.LVL225:
 942              	.L31:
1246:C:/Users/lenovo/Desktop/liteos/Project2/BearPi_LiteOS/components/security/mbedtls/mbedtls-2.6.0/library\bignum.c **** 
1247:C:/Users/lenovo/Desktop/liteos/Project2/BearPi_LiteOS/components/security/mbedtls/mbedtls-2.6.0/library\bignum.c ****         return ( ~0 );
1248:C:/Users/lenovo/Desktop/liteos/Project2/BearPi_LiteOS/components/security/mbedtls/mbedtls-2.6.0/library\bignum.c ****     }
1249:C:/Users/lenovo/Desktop/liteos/Project2/BearPi_LiteOS/components/security/mbedtls/mbedtls-2.6.0/library\bignum.c **** 
1250:C:/Users/lenovo/Desktop/liteos/Project2/BearPi_LiteOS/components/security/mbedtls/mbedtls-2.6.0/library\bignum.c **** #if defined(MBEDTLS_HAVE_UDBL)
1251:C:/Users/lenovo/Desktop/liteos/Project2/BearPi_LiteOS/components/security/mbedtls/mbedtls-2.6.0/library\bignum.c ****     dividend  = (mbedtls_t_udbl) u1 << biL;
1252:C:/Users/lenovo/Desktop/liteos/Project2/BearPi_LiteOS/components/security/mbedtls/mbedtls-2.6.0/library\bignum.c ****     dividend |= (mbedtls_t_udbl) u0;
1253:C:/Users/lenovo/Desktop/liteos/Project2/BearPi_LiteOS/components/security/mbedtls/mbedtls-2.6.0/library\bignum.c ****     quotient = dividend / d;
1254:C:/Users/lenovo/Desktop/liteos/Project2/BearPi_LiteOS/components/security/mbedtls/mbedtls-2.6.0/library\bignum.c ****     if( quotient > ( (mbedtls_t_udbl) 1 << biL ) - 1 )
1255:C:/Users/lenovo/Desktop/liteos/Project2/BearPi_LiteOS/components/security/mbedtls/mbedtls-2.6.0/library\bignum.c ****         quotient = ( (mbedtls_t_udbl) 1 << biL ) - 1;
1256:C:/Users/lenovo/Desktop/liteos/Project2/BearPi_LiteOS/components/security/mbedtls/mbedtls-2.6.0/library\bignum.c **** 
1257:C:/Users/lenovo/Desktop/liteos/Project2/BearPi_LiteOS/components/security/mbedtls/mbedtls-2.6.0/library\bignum.c ****     if( r != NULL )
1258:C:/Users/lenovo/Desktop/liteos/Project2/BearPi_LiteOS/components/security/mbedtls/mbedtls-2.6.0/library\bignum.c ****         *r = (mbedtls_mpi_uint)( dividend - (quotient * d ) );
1259:C:/Users/lenovo/Desktop/liteos/Project2/BearPi_LiteOS/components/security/mbedtls/mbedtls-2.6.0/library\bignum.c **** 
1260:C:/Users/lenovo/Desktop/liteos/Project2/BearPi_LiteOS/components/security/mbedtls/mbedtls-2.6.0/library\bignum.c ****     return (mbedtls_mpi_uint) quotient;
1261:C:/Users/lenovo/Desktop/liteos/Project2/BearPi_LiteOS/components/security/mbedtls/mbedtls-2.6.0/library\bignum.c **** #else
1262:C:/Users/lenovo/Desktop/liteos/Project2/BearPi_LiteOS/components/security/mbedtls/mbedtls-2.6.0/library\bignum.c **** 
1263:C:/Users/lenovo/Desktop/liteos/Project2/BearPi_LiteOS/components/security/mbedtls/mbedtls-2.6.0/library\bignum.c ****     /*
1264:C:/Users/lenovo/Desktop/liteos/Project2/BearPi_LiteOS/components/security/mbedtls/mbedtls-2.6.0/library\bignum.c ****      * Algorithm D, Section 4.3.1 - The Art of Computer Programming
1265:C:/Users/lenovo/Desktop/liteos/Project2/BearPi_LiteOS/components/security/mbedtls/mbedtls-2.6.0/library\bignum.c ****      *   Vol. 2 - Seminumerical Algorithms, Knuth
1266:C:/Users/lenovo/Desktop/liteos/Project2/BearPi_LiteOS/components/security/mbedtls/mbedtls-2.6.0/library\bignum.c ****      */
1267:C:/Users/lenovo/Desktop/liteos/Project2/BearPi_LiteOS/components/security/mbedtls/mbedtls-2.6.0/library\bignum.c **** 
1268:C:/Users/lenovo/Desktop/liteos/Project2/BearPi_LiteOS/components/security/mbedtls/mbedtls-2.6.0/library\bignum.c ****     /*
1269:C:/Users/lenovo/Desktop/liteos/Project2/BearPi_LiteOS/components/security/mbedtls/mbedtls-2.6.0/library\bignum.c ****      * Normalize the divisor, d, and dividend, u0, u1
1270:C:/Users/lenovo/Desktop/liteos/Project2/BearPi_LiteOS/components/security/mbedtls/mbedtls-2.6.0/library\bignum.c ****      */
1271:C:/Users/lenovo/Desktop/liteos/Project2/BearPi_LiteOS/components/security/mbedtls/mbedtls-2.6.0/library\bignum.c ****     s = mbedtls_clz( d );
1272:C:/Users/lenovo/Desktop/liteos/Project2/BearPi_LiteOS/components/security/mbedtls/mbedtls-2.6.0/library\bignum.c ****     d = d << s;
1273:C:/Users/lenovo/Desktop/liteos/Project2/BearPi_LiteOS/components/security/mbedtls/mbedtls-2.6.0/library\bignum.c **** 
1274:C:/Users/lenovo/Desktop/liteos/Project2/BearPi_LiteOS/components/security/mbedtls/mbedtls-2.6.0/library\bignum.c ****     u1 = u1 << s;
1275:C:/Users/lenovo/Desktop/liteos/Project2/BearPi_LiteOS/components/security/mbedtls/mbedtls-2.6.0/library\bignum.c ****     u1 |= ( u0 >> ( biL - s ) ) & ( -(mbedtls_mpi_sint)s >> ( biL - 1 ) );
1276:C:/Users/lenovo/Desktop/liteos/Project2/BearPi_LiteOS/components/security/mbedtls/mbedtls-2.6.0/library\bignum.c ****     u0 =  u0 << s;
1277:C:/Users/lenovo/Desktop/liteos/Project2/BearPi_LiteOS/components/security/mbedtls/mbedtls-2.6.0/library\bignum.c **** 
1278:C:/Users/lenovo/Desktop/liteos/Project2/BearPi_LiteOS/components/security/mbedtls/mbedtls-2.6.0/library\bignum.c ****     d1 = d >> biH;
1279:C:/Users/lenovo/Desktop/liteos/Project2/BearPi_LiteOS/components/security/mbedtls/mbedtls-2.6.0/library\bignum.c ****     d0 = d & uint_halfword_mask;
1280:C:/Users/lenovo/Desktop/liteos/Project2/BearPi_LiteOS/components/security/mbedtls/mbedtls-2.6.0/library\bignum.c **** 
1281:C:/Users/lenovo/Desktop/liteos/Project2/BearPi_LiteOS/components/security/mbedtls/mbedtls-2.6.0/library\bignum.c ****     u0_msw = u0 >> biH;
ARM GAS  c:\Users\lenovo\AppData\Local\Temp\ccjcyTZ0.s 			page 40


1282:C:/Users/lenovo/Desktop/liteos/Project2/BearPi_LiteOS/components/security/mbedtls/mbedtls-2.6.0/library\bignum.c ****     u0_lsw = u0 & uint_halfword_mask;
1283:C:/Users/lenovo/Desktop/liteos/Project2/BearPi_LiteOS/components/security/mbedtls/mbedtls-2.6.0/library\bignum.c **** 
1284:C:/Users/lenovo/Desktop/liteos/Project2/BearPi_LiteOS/components/security/mbedtls/mbedtls-2.6.0/library\bignum.c ****     /*
1285:C:/Users/lenovo/Desktop/liteos/Project2/BearPi_LiteOS/components/security/mbedtls/mbedtls-2.6.0/library\bignum.c ****      * Find the first quotient and remainder
1286:C:/Users/lenovo/Desktop/liteos/Project2/BearPi_LiteOS/components/security/mbedtls/mbedtls-2.6.0/library\bignum.c ****      */
1287:C:/Users/lenovo/Desktop/liteos/Project2/BearPi_LiteOS/components/security/mbedtls/mbedtls-2.6.0/library\bignum.c ****     q1 = u1 / d1;
1288:C:/Users/lenovo/Desktop/liteos/Project2/BearPi_LiteOS/components/security/mbedtls/mbedtls-2.6.0/library\bignum.c ****     r0 = u1 - d1 * q1;
1289:C:/Users/lenovo/Desktop/liteos/Project2/BearPi_LiteOS/components/security/mbedtls/mbedtls-2.6.0/library\bignum.c **** 
1290:C:/Users/lenovo/Desktop/liteos/Project2/BearPi_LiteOS/components/security/mbedtls/mbedtls-2.6.0/library\bignum.c ****     while( q1 >= radix || ( q1 * d0 > radix * r0 + u0_msw ) )
1291:C:/Users/lenovo/Desktop/liteos/Project2/BearPi_LiteOS/components/security/mbedtls/mbedtls-2.6.0/library\bignum.c ****     {
1292:C:/Users/lenovo/Desktop/liteos/Project2/BearPi_LiteOS/components/security/mbedtls/mbedtls-2.6.0/library\bignum.c ****         q1 -= 1;
1293:C:/Users/lenovo/Desktop/liteos/Project2/BearPi_LiteOS/components/security/mbedtls/mbedtls-2.6.0/library\bignum.c ****         r0 += d1;
1294:C:/Users/lenovo/Desktop/liteos/Project2/BearPi_LiteOS/components/security/mbedtls/mbedtls-2.6.0/library\bignum.c **** 
1295:C:/Users/lenovo/Desktop/liteos/Project2/BearPi_LiteOS/components/security/mbedtls/mbedtls-2.6.0/library\bignum.c ****         if ( r0 >= radix ) break;
1296:C:/Users/lenovo/Desktop/liteos/Project2/BearPi_LiteOS/components/security/mbedtls/mbedtls-2.6.0/library\bignum.c ****     }
1297:C:/Users/lenovo/Desktop/liteos/Project2/BearPi_LiteOS/components/security/mbedtls/mbedtls-2.6.0/library\bignum.c **** 
1298:C:/Users/lenovo/Desktop/liteos/Project2/BearPi_LiteOS/components/security/mbedtls/mbedtls-2.6.0/library\bignum.c ****     rAX = ( u1 * radix ) + ( u0_msw - q1 * d );
1299:C:/Users/lenovo/Desktop/liteos/Project2/BearPi_LiteOS/components/security/mbedtls/mbedtls-2.6.0/library\bignum.c ****     q0 = rAX / d1;
1300:C:/Users/lenovo/Desktop/liteos/Project2/BearPi_LiteOS/components/security/mbedtls/mbedtls-2.6.0/library\bignum.c ****     r0 = rAX - q0 * d1;
1301:C:/Users/lenovo/Desktop/liteos/Project2/BearPi_LiteOS/components/security/mbedtls/mbedtls-2.6.0/library\bignum.c **** 
1302:C:/Users/lenovo/Desktop/liteos/Project2/BearPi_LiteOS/components/security/mbedtls/mbedtls-2.6.0/library\bignum.c ****     while( q0 >= radix || ( q0 * d0 > radix * r0 + u0_lsw ) )
1303:C:/Users/lenovo/Desktop/liteos/Project2/BearPi_LiteOS/components/security/mbedtls/mbedtls-2.6.0/library\bignum.c ****     {
1304:C:/Users/lenovo/Desktop/liteos/Project2/BearPi_LiteOS/components/security/mbedtls/mbedtls-2.6.0/library\bignum.c ****         q0 -= 1;
1305:C:/Users/lenovo/Desktop/liteos/Project2/BearPi_LiteOS/components/security/mbedtls/mbedtls-2.6.0/library\bignum.c ****         r0 += d1;
1306:C:/Users/lenovo/Desktop/liteos/Project2/BearPi_LiteOS/components/security/mbedtls/mbedtls-2.6.0/library\bignum.c **** 
1307:C:/Users/lenovo/Desktop/liteos/Project2/BearPi_LiteOS/components/security/mbedtls/mbedtls-2.6.0/library\bignum.c ****         if ( r0 >= radix ) break;
1308:C:/Users/lenovo/Desktop/liteos/Project2/BearPi_LiteOS/components/security/mbedtls/mbedtls-2.6.0/library\bignum.c ****     }
1309:C:/Users/lenovo/Desktop/liteos/Project2/BearPi_LiteOS/components/security/mbedtls/mbedtls-2.6.0/library\bignum.c **** 
1310:C:/Users/lenovo/Desktop/liteos/Project2/BearPi_LiteOS/components/security/mbedtls/mbedtls-2.6.0/library\bignum.c ****     if (r != NULL)
1311:C:/Users/lenovo/Desktop/liteos/Project2/BearPi_LiteOS/components/security/mbedtls/mbedtls-2.6.0/library\bignum.c ****         *r = ( rAX * radix + u0_lsw - q0 * d ) >> s;
1312:C:/Users/lenovo/Desktop/liteos/Project2/BearPi_LiteOS/components/security/mbedtls/mbedtls-2.6.0/library\bignum.c **** 
1313:C:/Users/lenovo/Desktop/liteos/Project2/BearPi_LiteOS/components/security/mbedtls/mbedtls-2.6.0/library\bignum.c ****     quotient = q1 * radix + q0;
1314:C:/Users/lenovo/Desktop/liteos/Project2/BearPi_LiteOS/components/security/mbedtls/mbedtls-2.6.0/library\bignum.c **** 
1315:C:/Users/lenovo/Desktop/liteos/Project2/BearPi_LiteOS/components/security/mbedtls/mbedtls-2.6.0/library\bignum.c ****     return quotient;
1316:C:/Users/lenovo/Desktop/liteos/Project2/BearPi_LiteOS/components/security/mbedtls/mbedtls-2.6.0/library\bignum.c **** #endif
1317:C:/Users/lenovo/Desktop/liteos/Project2/BearPi_LiteOS/components/security/mbedtls/mbedtls-2.6.0/library\bignum.c **** }
 943              		.loc 1 1317 0 is_stmt 1
 944 0014 BDE8F883 		pop	{r3, r4, r5, r6, r7, r8, r9, pc}
 945              	.LVL226:
 946              	.L33:
 947 0018 1D46     		mov	r5, r3
1251:C:/Users/lenovo/Desktop/liteos/Project2/BearPi_LiteOS/components/security/mbedtls/mbedtls-2.6.0/library\bignum.c ****     dividend |= (mbedtls_t_udbl) u0;
 948              		.loc 1 1251 0
 949 001a 4FF00008 		mov	r8, #0
 950 001e 8146     		mov	r9, r0
 951              	.LVL227:
1252:C:/Users/lenovo/Desktop/liteos/Project2/BearPi_LiteOS/components/security/mbedtls/mbedtls-2.6.0/library\bignum.c ****     quotient = dividend / d;
 952              		.loc 1 1252 0
 953 0020 48EA0106 		orr	r6, r8, r1
 954              	.LVL228:
1253:C:/Users/lenovo/Desktop/liteos/Project2/BearPi_LiteOS/components/security/mbedtls/mbedtls-2.6.0/library\bignum.c ****     if( quotient > ( (mbedtls_t_udbl) 1 << biL ) - 1 )
 955              		.loc 1 1253 0
 956 0024 4346     		mov	r3, r8
 957              	.LVL229:
 958 0026 3046     		mov	r0, r6
 959              	.LVL230:
 960 0028 4946     		mov	r1, r9
ARM GAS  c:\Users\lenovo\AppData\Local\Temp\ccjcyTZ0.s 			page 41


 961              	.LVL231:
 962 002a FFF7FEFF 		bl	__aeabi_uldivmod
 963              	.LVL232:
1254:C:/Users/lenovo/Desktop/liteos/Project2/BearPi_LiteOS/components/security/mbedtls/mbedtls-2.6.0/library\bignum.c ****         quotient = ( (mbedtls_t_udbl) 1 << biL ) - 1;
 964              		.loc 1 1254 0
 965 002e 0129     		cmp	r1, #1
 966 0030 08BF     		it	eq
 967 0032 0028     		cmpeq	r0, #0
 968 0034 01D3     		bcc	.L35
1255:C:/Users/lenovo/Desktop/liteos/Project2/BearPi_LiteOS/components/security/mbedtls/mbedtls-2.6.0/library\bignum.c **** 
 969              		.loc 1 1255 0
 970 0036 4FF0FF30 		mov	r0, #-1
 971              	.LVL233:
 972              	.L35:
1257:C:/Users/lenovo/Desktop/liteos/Project2/BearPi_LiteOS/components/security/mbedtls/mbedtls-2.6.0/library\bignum.c ****         *r = (mbedtls_mpi_uint)( dividend - (quotient * d ) );
 973              		.loc 1 1257 0
 974 003a 002D     		cmp	r5, #0
 975 003c EAD0     		beq	.L31
1258:C:/Users/lenovo/Desktop/liteos/Project2/BearPi_LiteOS/components/security/mbedtls/mbedtls-2.6.0/library\bignum.c **** 
 976              		.loc 1 1258 0
 977 003e 04FB1064 		mls	r4, r4, r0, r6
 978              	.LVL234:
 979 0042 2C60     		str	r4, [r5]
1260:C:/Users/lenovo/Desktop/liteos/Project2/BearPi_LiteOS/components/security/mbedtls/mbedtls-2.6.0/library\bignum.c **** #else
 980              		.loc 1 1260 0
 981 0044 E6E7     		b	.L31
 982              	.LVL235:
 983              	.L37:
1247:C:/Users/lenovo/Desktop/liteos/Project2/BearPi_LiteOS/components/security/mbedtls/mbedtls-2.6.0/library\bignum.c ****     }
 984              		.loc 1 1247 0
 985 0046 4FF0FF30 		mov	r0, #-1
 986              	.LVL236:
 987 004a E3E7     		b	.L31
 988              	.LVL237:
 989              	.L40:
 990              	.LCFI5:
 991              		.cfi_def_cfa_offset 0
 992              		.cfi_restore 3
 993              		.cfi_restore 4
 994              		.cfi_restore 5
 995              		.cfi_restore 6
 996              		.cfi_restore 7
 997              		.cfi_restore 8
 998              		.cfi_restore 9
 999              		.cfi_restore 14
1245:C:/Users/lenovo/Desktop/liteos/Project2/BearPi_LiteOS/components/security/mbedtls/mbedtls-2.6.0/library\bignum.c **** 
 1000              		.loc 1 1245 0
 1001 004c 1BB1     		cbz	r3, .L42
 1002 004e 4FF0FF30 		mov	r0, #-1
 1003              	.LVL238:
 1004 0052 1860     		str	r0, [r3]
 1005 0054 7047     		bx	lr
 1006              	.LVL239:
 1007              	.L42:
1247:C:/Users/lenovo/Desktop/liteos/Project2/BearPi_LiteOS/components/security/mbedtls/mbedtls-2.6.0/library\bignum.c ****     }
 1008              		.loc 1 1247 0
 1009 0056 4FF0FF30 		mov	r0, #-1
ARM GAS  c:\Users\lenovo\AppData\Local\Temp\ccjcyTZ0.s 			page 42


 1010              	.LVL240:
 1011              		.loc 1 1317 0
 1012 005a 7047     		bx	lr
 1013              		.cfi_endproc
 1014              	.LFE40:
 1016              		.section	.text.mpi_montg_init,"ax",%progbits
 1017              		.align	1
 1018              		.syntax unified
 1019              		.thumb
 1020              		.thumb_func
 1021              		.fpu fpv4-sp-d16
 1023              	mpi_montg_init:
 1024              	.LFB45:
1318:C:/Users/lenovo/Desktop/liteos/Project2/BearPi_LiteOS/components/security/mbedtls/mbedtls-2.6.0/library\bignum.c **** 
1319:C:/Users/lenovo/Desktop/liteos/Project2/BearPi_LiteOS/components/security/mbedtls/mbedtls-2.6.0/library\bignum.c **** /*
1320:C:/Users/lenovo/Desktop/liteos/Project2/BearPi_LiteOS/components/security/mbedtls/mbedtls-2.6.0/library\bignum.c ****  * Division by mbedtls_mpi: A = Q * B + R  (HAC 14.20)
1321:C:/Users/lenovo/Desktop/liteos/Project2/BearPi_LiteOS/components/security/mbedtls/mbedtls-2.6.0/library\bignum.c ****  */
1322:C:/Users/lenovo/Desktop/liteos/Project2/BearPi_LiteOS/components/security/mbedtls/mbedtls-2.6.0/library\bignum.c **** int mbedtls_mpi_div_mpi( mbedtls_mpi *Q, mbedtls_mpi *R, const mbedtls_mpi *A, const mbedtls_mpi *B
1323:C:/Users/lenovo/Desktop/liteos/Project2/BearPi_LiteOS/components/security/mbedtls/mbedtls-2.6.0/library\bignum.c **** {
1324:C:/Users/lenovo/Desktop/liteos/Project2/BearPi_LiteOS/components/security/mbedtls/mbedtls-2.6.0/library\bignum.c ****     int ret;
1325:C:/Users/lenovo/Desktop/liteos/Project2/BearPi_LiteOS/components/security/mbedtls/mbedtls-2.6.0/library\bignum.c ****     size_t i, n, t, k;
1326:C:/Users/lenovo/Desktop/liteos/Project2/BearPi_LiteOS/components/security/mbedtls/mbedtls-2.6.0/library\bignum.c ****     mbedtls_mpi X, Y, Z, T1, T2;
1327:C:/Users/lenovo/Desktop/liteos/Project2/BearPi_LiteOS/components/security/mbedtls/mbedtls-2.6.0/library\bignum.c **** 
1328:C:/Users/lenovo/Desktop/liteos/Project2/BearPi_LiteOS/components/security/mbedtls/mbedtls-2.6.0/library\bignum.c ****     if( mbedtls_mpi_cmp_int( B, 0 ) == 0 )
1329:C:/Users/lenovo/Desktop/liteos/Project2/BearPi_LiteOS/components/security/mbedtls/mbedtls-2.6.0/library\bignum.c ****         return( MBEDTLS_ERR_MPI_DIVISION_BY_ZERO );
1330:C:/Users/lenovo/Desktop/liteos/Project2/BearPi_LiteOS/components/security/mbedtls/mbedtls-2.6.0/library\bignum.c **** 
1331:C:/Users/lenovo/Desktop/liteos/Project2/BearPi_LiteOS/components/security/mbedtls/mbedtls-2.6.0/library\bignum.c ****     mbedtls_mpi_init( &X ); mbedtls_mpi_init( &Y ); mbedtls_mpi_init( &Z );
1332:C:/Users/lenovo/Desktop/liteos/Project2/BearPi_LiteOS/components/security/mbedtls/mbedtls-2.6.0/library\bignum.c ****     mbedtls_mpi_init( &T1 ); mbedtls_mpi_init( &T2 );
1333:C:/Users/lenovo/Desktop/liteos/Project2/BearPi_LiteOS/components/security/mbedtls/mbedtls-2.6.0/library\bignum.c **** 
1334:C:/Users/lenovo/Desktop/liteos/Project2/BearPi_LiteOS/components/security/mbedtls/mbedtls-2.6.0/library\bignum.c ****     if( mbedtls_mpi_cmp_abs( A, B ) < 0 )
1335:C:/Users/lenovo/Desktop/liteos/Project2/BearPi_LiteOS/components/security/mbedtls/mbedtls-2.6.0/library\bignum.c ****     {
1336:C:/Users/lenovo/Desktop/liteos/Project2/BearPi_LiteOS/components/security/mbedtls/mbedtls-2.6.0/library\bignum.c ****         if( Q != NULL ) MBEDTLS_MPI_CHK( mbedtls_mpi_lset( Q, 0 ) );
1337:C:/Users/lenovo/Desktop/liteos/Project2/BearPi_LiteOS/components/security/mbedtls/mbedtls-2.6.0/library\bignum.c ****         if( R != NULL ) MBEDTLS_MPI_CHK( mbedtls_mpi_copy( R, A ) );
1338:C:/Users/lenovo/Desktop/liteos/Project2/BearPi_LiteOS/components/security/mbedtls/mbedtls-2.6.0/library\bignum.c ****         return( 0 );
1339:C:/Users/lenovo/Desktop/liteos/Project2/BearPi_LiteOS/components/security/mbedtls/mbedtls-2.6.0/library\bignum.c ****     }
1340:C:/Users/lenovo/Desktop/liteos/Project2/BearPi_LiteOS/components/security/mbedtls/mbedtls-2.6.0/library\bignum.c **** 
1341:C:/Users/lenovo/Desktop/liteos/Project2/BearPi_LiteOS/components/security/mbedtls/mbedtls-2.6.0/library\bignum.c ****     MBEDTLS_MPI_CHK( mbedtls_mpi_copy( &X, A ) );
1342:C:/Users/lenovo/Desktop/liteos/Project2/BearPi_LiteOS/components/security/mbedtls/mbedtls-2.6.0/library\bignum.c ****     MBEDTLS_MPI_CHK( mbedtls_mpi_copy( &Y, B ) );
1343:C:/Users/lenovo/Desktop/liteos/Project2/BearPi_LiteOS/components/security/mbedtls/mbedtls-2.6.0/library\bignum.c ****     X.s = Y.s = 1;
1344:C:/Users/lenovo/Desktop/liteos/Project2/BearPi_LiteOS/components/security/mbedtls/mbedtls-2.6.0/library\bignum.c **** 
1345:C:/Users/lenovo/Desktop/liteos/Project2/BearPi_LiteOS/components/security/mbedtls/mbedtls-2.6.0/library\bignum.c ****     MBEDTLS_MPI_CHK( mbedtls_mpi_grow( &Z, A->n + 2 ) );
1346:C:/Users/lenovo/Desktop/liteos/Project2/BearPi_LiteOS/components/security/mbedtls/mbedtls-2.6.0/library\bignum.c ****     MBEDTLS_MPI_CHK( mbedtls_mpi_lset( &Z,  0 ) );
1347:C:/Users/lenovo/Desktop/liteos/Project2/BearPi_LiteOS/components/security/mbedtls/mbedtls-2.6.0/library\bignum.c ****     MBEDTLS_MPI_CHK( mbedtls_mpi_grow( &T1, 2 ) );
1348:C:/Users/lenovo/Desktop/liteos/Project2/BearPi_LiteOS/components/security/mbedtls/mbedtls-2.6.0/library\bignum.c ****     MBEDTLS_MPI_CHK( mbedtls_mpi_grow( &T2, 3 ) );
1349:C:/Users/lenovo/Desktop/liteos/Project2/BearPi_LiteOS/components/security/mbedtls/mbedtls-2.6.0/library\bignum.c **** 
1350:C:/Users/lenovo/Desktop/liteos/Project2/BearPi_LiteOS/components/security/mbedtls/mbedtls-2.6.0/library\bignum.c ****     k = mbedtls_mpi_bitlen( &Y ) % biL;
1351:C:/Users/lenovo/Desktop/liteos/Project2/BearPi_LiteOS/components/security/mbedtls/mbedtls-2.6.0/library\bignum.c ****     if( k < biL - 1 )
1352:C:/Users/lenovo/Desktop/liteos/Project2/BearPi_LiteOS/components/security/mbedtls/mbedtls-2.6.0/library\bignum.c ****     {
1353:C:/Users/lenovo/Desktop/liteos/Project2/BearPi_LiteOS/components/security/mbedtls/mbedtls-2.6.0/library\bignum.c ****         k = biL - 1 - k;
1354:C:/Users/lenovo/Desktop/liteos/Project2/BearPi_LiteOS/components/security/mbedtls/mbedtls-2.6.0/library\bignum.c ****         MBEDTLS_MPI_CHK( mbedtls_mpi_shift_l( &X, k ) );
1355:C:/Users/lenovo/Desktop/liteos/Project2/BearPi_LiteOS/components/security/mbedtls/mbedtls-2.6.0/library\bignum.c ****         MBEDTLS_MPI_CHK( mbedtls_mpi_shift_l( &Y, k ) );
1356:C:/Users/lenovo/Desktop/liteos/Project2/BearPi_LiteOS/components/security/mbedtls/mbedtls-2.6.0/library\bignum.c ****     }
1357:C:/Users/lenovo/Desktop/liteos/Project2/BearPi_LiteOS/components/security/mbedtls/mbedtls-2.6.0/library\bignum.c ****     else k = 0;
1358:C:/Users/lenovo/Desktop/liteos/Project2/BearPi_LiteOS/components/security/mbedtls/mbedtls-2.6.0/library\bignum.c **** 
1359:C:/Users/lenovo/Desktop/liteos/Project2/BearPi_LiteOS/components/security/mbedtls/mbedtls-2.6.0/library\bignum.c ****     n = X.n - 1;
1360:C:/Users/lenovo/Desktop/liteos/Project2/BearPi_LiteOS/components/security/mbedtls/mbedtls-2.6.0/library\bignum.c ****     t = Y.n - 1;
1361:C:/Users/lenovo/Desktop/liteos/Project2/BearPi_LiteOS/components/security/mbedtls/mbedtls-2.6.0/library\bignum.c ****     MBEDTLS_MPI_CHK( mbedtls_mpi_shift_l( &Y, biL * ( n - t ) ) );
ARM GAS  c:\Users\lenovo\AppData\Local\Temp\ccjcyTZ0.s 			page 43


1362:C:/Users/lenovo/Desktop/liteos/Project2/BearPi_LiteOS/components/security/mbedtls/mbedtls-2.6.0/library\bignum.c **** 
1363:C:/Users/lenovo/Desktop/liteos/Project2/BearPi_LiteOS/components/security/mbedtls/mbedtls-2.6.0/library\bignum.c ****     while( mbedtls_mpi_cmp_mpi( &X, &Y ) >= 0 )
1364:C:/Users/lenovo/Desktop/liteos/Project2/BearPi_LiteOS/components/security/mbedtls/mbedtls-2.6.0/library\bignum.c ****     {
1365:C:/Users/lenovo/Desktop/liteos/Project2/BearPi_LiteOS/components/security/mbedtls/mbedtls-2.6.0/library\bignum.c ****         Z.p[n - t]++;
1366:C:/Users/lenovo/Desktop/liteos/Project2/BearPi_LiteOS/components/security/mbedtls/mbedtls-2.6.0/library\bignum.c ****         MBEDTLS_MPI_CHK( mbedtls_mpi_sub_mpi( &X, &X, &Y ) );
1367:C:/Users/lenovo/Desktop/liteos/Project2/BearPi_LiteOS/components/security/mbedtls/mbedtls-2.6.0/library\bignum.c ****     }
1368:C:/Users/lenovo/Desktop/liteos/Project2/BearPi_LiteOS/components/security/mbedtls/mbedtls-2.6.0/library\bignum.c ****     MBEDTLS_MPI_CHK( mbedtls_mpi_shift_r( &Y, biL * ( n - t ) ) );
1369:C:/Users/lenovo/Desktop/liteos/Project2/BearPi_LiteOS/components/security/mbedtls/mbedtls-2.6.0/library\bignum.c **** 
1370:C:/Users/lenovo/Desktop/liteos/Project2/BearPi_LiteOS/components/security/mbedtls/mbedtls-2.6.0/library\bignum.c ****     for( i = n; i > t ; i-- )
1371:C:/Users/lenovo/Desktop/liteos/Project2/BearPi_LiteOS/components/security/mbedtls/mbedtls-2.6.0/library\bignum.c ****     {
1372:C:/Users/lenovo/Desktop/liteos/Project2/BearPi_LiteOS/components/security/mbedtls/mbedtls-2.6.0/library\bignum.c ****         if( X.p[i] >= Y.p[t] )
1373:C:/Users/lenovo/Desktop/liteos/Project2/BearPi_LiteOS/components/security/mbedtls/mbedtls-2.6.0/library\bignum.c ****             Z.p[i - t - 1] = ~0;
1374:C:/Users/lenovo/Desktop/liteos/Project2/BearPi_LiteOS/components/security/mbedtls/mbedtls-2.6.0/library\bignum.c ****         else
1375:C:/Users/lenovo/Desktop/liteos/Project2/BearPi_LiteOS/components/security/mbedtls/mbedtls-2.6.0/library\bignum.c ****         {
1376:C:/Users/lenovo/Desktop/liteos/Project2/BearPi_LiteOS/components/security/mbedtls/mbedtls-2.6.0/library\bignum.c ****             Z.p[i - t - 1] = mbedtls_int_div_int( X.p[i], X.p[i - 1],
1377:C:/Users/lenovo/Desktop/liteos/Project2/BearPi_LiteOS/components/security/mbedtls/mbedtls-2.6.0/library\bignum.c ****                                                             Y.p[t], NULL);
1378:C:/Users/lenovo/Desktop/liteos/Project2/BearPi_LiteOS/components/security/mbedtls/mbedtls-2.6.0/library\bignum.c ****         }
1379:C:/Users/lenovo/Desktop/liteos/Project2/BearPi_LiteOS/components/security/mbedtls/mbedtls-2.6.0/library\bignum.c **** 
1380:C:/Users/lenovo/Desktop/liteos/Project2/BearPi_LiteOS/components/security/mbedtls/mbedtls-2.6.0/library\bignum.c ****         Z.p[i - t - 1]++;
1381:C:/Users/lenovo/Desktop/liteos/Project2/BearPi_LiteOS/components/security/mbedtls/mbedtls-2.6.0/library\bignum.c ****         do
1382:C:/Users/lenovo/Desktop/liteos/Project2/BearPi_LiteOS/components/security/mbedtls/mbedtls-2.6.0/library\bignum.c ****         {
1383:C:/Users/lenovo/Desktop/liteos/Project2/BearPi_LiteOS/components/security/mbedtls/mbedtls-2.6.0/library\bignum.c ****             Z.p[i - t - 1]--;
1384:C:/Users/lenovo/Desktop/liteos/Project2/BearPi_LiteOS/components/security/mbedtls/mbedtls-2.6.0/library\bignum.c **** 
1385:C:/Users/lenovo/Desktop/liteos/Project2/BearPi_LiteOS/components/security/mbedtls/mbedtls-2.6.0/library\bignum.c ****             MBEDTLS_MPI_CHK( mbedtls_mpi_lset( &T1, 0 ) );
1386:C:/Users/lenovo/Desktop/liteos/Project2/BearPi_LiteOS/components/security/mbedtls/mbedtls-2.6.0/library\bignum.c ****             T1.p[0] = ( t < 1 ) ? 0 : Y.p[t - 1];
1387:C:/Users/lenovo/Desktop/liteos/Project2/BearPi_LiteOS/components/security/mbedtls/mbedtls-2.6.0/library\bignum.c ****             T1.p[1] = Y.p[t];
1388:C:/Users/lenovo/Desktop/liteos/Project2/BearPi_LiteOS/components/security/mbedtls/mbedtls-2.6.0/library\bignum.c ****             MBEDTLS_MPI_CHK( mbedtls_mpi_mul_int( &T1, &T1, Z.p[i - t - 1] ) );
1389:C:/Users/lenovo/Desktop/liteos/Project2/BearPi_LiteOS/components/security/mbedtls/mbedtls-2.6.0/library\bignum.c **** 
1390:C:/Users/lenovo/Desktop/liteos/Project2/BearPi_LiteOS/components/security/mbedtls/mbedtls-2.6.0/library\bignum.c ****             MBEDTLS_MPI_CHK( mbedtls_mpi_lset( &T2, 0 ) );
1391:C:/Users/lenovo/Desktop/liteos/Project2/BearPi_LiteOS/components/security/mbedtls/mbedtls-2.6.0/library\bignum.c ****             T2.p[0] = ( i < 2 ) ? 0 : X.p[i - 2];
1392:C:/Users/lenovo/Desktop/liteos/Project2/BearPi_LiteOS/components/security/mbedtls/mbedtls-2.6.0/library\bignum.c ****             T2.p[1] = ( i < 1 ) ? 0 : X.p[i - 1];
1393:C:/Users/lenovo/Desktop/liteos/Project2/BearPi_LiteOS/components/security/mbedtls/mbedtls-2.6.0/library\bignum.c ****             T2.p[2] = X.p[i];
1394:C:/Users/lenovo/Desktop/liteos/Project2/BearPi_LiteOS/components/security/mbedtls/mbedtls-2.6.0/library\bignum.c ****         }
1395:C:/Users/lenovo/Desktop/liteos/Project2/BearPi_LiteOS/components/security/mbedtls/mbedtls-2.6.0/library\bignum.c ****         while( mbedtls_mpi_cmp_mpi( &T1, &T2 ) > 0 );
1396:C:/Users/lenovo/Desktop/liteos/Project2/BearPi_LiteOS/components/security/mbedtls/mbedtls-2.6.0/library\bignum.c **** 
1397:C:/Users/lenovo/Desktop/liteos/Project2/BearPi_LiteOS/components/security/mbedtls/mbedtls-2.6.0/library\bignum.c ****         MBEDTLS_MPI_CHK( mbedtls_mpi_mul_int( &T1, &Y, Z.p[i - t - 1] ) );
1398:C:/Users/lenovo/Desktop/liteos/Project2/BearPi_LiteOS/components/security/mbedtls/mbedtls-2.6.0/library\bignum.c ****         MBEDTLS_MPI_CHK( mbedtls_mpi_shift_l( &T1,  biL * ( i - t - 1 ) ) );
1399:C:/Users/lenovo/Desktop/liteos/Project2/BearPi_LiteOS/components/security/mbedtls/mbedtls-2.6.0/library\bignum.c ****         MBEDTLS_MPI_CHK( mbedtls_mpi_sub_mpi( &X, &X, &T1 ) );
1400:C:/Users/lenovo/Desktop/liteos/Project2/BearPi_LiteOS/components/security/mbedtls/mbedtls-2.6.0/library\bignum.c **** 
1401:C:/Users/lenovo/Desktop/liteos/Project2/BearPi_LiteOS/components/security/mbedtls/mbedtls-2.6.0/library\bignum.c ****         if( mbedtls_mpi_cmp_int( &X, 0 ) < 0 )
1402:C:/Users/lenovo/Desktop/liteos/Project2/BearPi_LiteOS/components/security/mbedtls/mbedtls-2.6.0/library\bignum.c ****         {
1403:C:/Users/lenovo/Desktop/liteos/Project2/BearPi_LiteOS/components/security/mbedtls/mbedtls-2.6.0/library\bignum.c ****             MBEDTLS_MPI_CHK( mbedtls_mpi_copy( &T1, &Y ) );
1404:C:/Users/lenovo/Desktop/liteos/Project2/BearPi_LiteOS/components/security/mbedtls/mbedtls-2.6.0/library\bignum.c ****             MBEDTLS_MPI_CHK( mbedtls_mpi_shift_l( &T1, biL * ( i - t - 1 ) ) );
1405:C:/Users/lenovo/Desktop/liteos/Project2/BearPi_LiteOS/components/security/mbedtls/mbedtls-2.6.0/library\bignum.c ****             MBEDTLS_MPI_CHK( mbedtls_mpi_add_mpi( &X, &X, &T1 ) );
1406:C:/Users/lenovo/Desktop/liteos/Project2/BearPi_LiteOS/components/security/mbedtls/mbedtls-2.6.0/library\bignum.c ****             Z.p[i - t - 1]--;
1407:C:/Users/lenovo/Desktop/liteos/Project2/BearPi_LiteOS/components/security/mbedtls/mbedtls-2.6.0/library\bignum.c ****         }
1408:C:/Users/lenovo/Desktop/liteos/Project2/BearPi_LiteOS/components/security/mbedtls/mbedtls-2.6.0/library\bignum.c ****     }
1409:C:/Users/lenovo/Desktop/liteos/Project2/BearPi_LiteOS/components/security/mbedtls/mbedtls-2.6.0/library\bignum.c **** 
1410:C:/Users/lenovo/Desktop/liteos/Project2/BearPi_LiteOS/components/security/mbedtls/mbedtls-2.6.0/library\bignum.c ****     if( Q != NULL )
1411:C:/Users/lenovo/Desktop/liteos/Project2/BearPi_LiteOS/components/security/mbedtls/mbedtls-2.6.0/library\bignum.c ****     {
1412:C:/Users/lenovo/Desktop/liteos/Project2/BearPi_LiteOS/components/security/mbedtls/mbedtls-2.6.0/library\bignum.c ****         MBEDTLS_MPI_CHK( mbedtls_mpi_copy( Q, &Z ) );
1413:C:/Users/lenovo/Desktop/liteos/Project2/BearPi_LiteOS/components/security/mbedtls/mbedtls-2.6.0/library\bignum.c ****         Q->s = A->s * B->s;
1414:C:/Users/lenovo/Desktop/liteos/Project2/BearPi_LiteOS/components/security/mbedtls/mbedtls-2.6.0/library\bignum.c ****     }
1415:C:/Users/lenovo/Desktop/liteos/Project2/BearPi_LiteOS/components/security/mbedtls/mbedtls-2.6.0/library\bignum.c **** 
1416:C:/Users/lenovo/Desktop/liteos/Project2/BearPi_LiteOS/components/security/mbedtls/mbedtls-2.6.0/library\bignum.c ****     if( R != NULL )
1417:C:/Users/lenovo/Desktop/liteos/Project2/BearPi_LiteOS/components/security/mbedtls/mbedtls-2.6.0/library\bignum.c ****     {
1418:C:/Users/lenovo/Desktop/liteos/Project2/BearPi_LiteOS/components/security/mbedtls/mbedtls-2.6.0/library\bignum.c ****         MBEDTLS_MPI_CHK( mbedtls_mpi_shift_r( &X, k ) );
ARM GAS  c:\Users\lenovo\AppData\Local\Temp\ccjcyTZ0.s 			page 44


1419:C:/Users/lenovo/Desktop/liteos/Project2/BearPi_LiteOS/components/security/mbedtls/mbedtls-2.6.0/library\bignum.c ****         X.s = A->s;
1420:C:/Users/lenovo/Desktop/liteos/Project2/BearPi_LiteOS/components/security/mbedtls/mbedtls-2.6.0/library\bignum.c ****         MBEDTLS_MPI_CHK( mbedtls_mpi_copy( R, &X ) );
1421:C:/Users/lenovo/Desktop/liteos/Project2/BearPi_LiteOS/components/security/mbedtls/mbedtls-2.6.0/library\bignum.c **** 
1422:C:/Users/lenovo/Desktop/liteos/Project2/BearPi_LiteOS/components/security/mbedtls/mbedtls-2.6.0/library\bignum.c ****         if( mbedtls_mpi_cmp_int( R, 0 ) == 0 )
1423:C:/Users/lenovo/Desktop/liteos/Project2/BearPi_LiteOS/components/security/mbedtls/mbedtls-2.6.0/library\bignum.c ****             R->s = 1;
1424:C:/Users/lenovo/Desktop/liteos/Project2/BearPi_LiteOS/components/security/mbedtls/mbedtls-2.6.0/library\bignum.c ****     }
1425:C:/Users/lenovo/Desktop/liteos/Project2/BearPi_LiteOS/components/security/mbedtls/mbedtls-2.6.0/library\bignum.c **** 
1426:C:/Users/lenovo/Desktop/liteos/Project2/BearPi_LiteOS/components/security/mbedtls/mbedtls-2.6.0/library\bignum.c **** cleanup:
1427:C:/Users/lenovo/Desktop/liteos/Project2/BearPi_LiteOS/components/security/mbedtls/mbedtls-2.6.0/library\bignum.c **** 
1428:C:/Users/lenovo/Desktop/liteos/Project2/BearPi_LiteOS/components/security/mbedtls/mbedtls-2.6.0/library\bignum.c ****     mbedtls_mpi_free( &X ); mbedtls_mpi_free( &Y ); mbedtls_mpi_free( &Z );
1429:C:/Users/lenovo/Desktop/liteos/Project2/BearPi_LiteOS/components/security/mbedtls/mbedtls-2.6.0/library\bignum.c ****     mbedtls_mpi_free( &T1 ); mbedtls_mpi_free( &T2 );
1430:C:/Users/lenovo/Desktop/liteos/Project2/BearPi_LiteOS/components/security/mbedtls/mbedtls-2.6.0/library\bignum.c **** 
1431:C:/Users/lenovo/Desktop/liteos/Project2/BearPi_LiteOS/components/security/mbedtls/mbedtls-2.6.0/library\bignum.c ****     return( ret );
1432:C:/Users/lenovo/Desktop/liteos/Project2/BearPi_LiteOS/components/security/mbedtls/mbedtls-2.6.0/library\bignum.c **** }
1433:C:/Users/lenovo/Desktop/liteos/Project2/BearPi_LiteOS/components/security/mbedtls/mbedtls-2.6.0/library\bignum.c **** 
1434:C:/Users/lenovo/Desktop/liteos/Project2/BearPi_LiteOS/components/security/mbedtls/mbedtls-2.6.0/library\bignum.c **** /*
1435:C:/Users/lenovo/Desktop/liteos/Project2/BearPi_LiteOS/components/security/mbedtls/mbedtls-2.6.0/library\bignum.c ****  * Division by int: A = Q * b + R
1436:C:/Users/lenovo/Desktop/liteos/Project2/BearPi_LiteOS/components/security/mbedtls/mbedtls-2.6.0/library\bignum.c ****  */
1437:C:/Users/lenovo/Desktop/liteos/Project2/BearPi_LiteOS/components/security/mbedtls/mbedtls-2.6.0/library\bignum.c **** int mbedtls_mpi_div_int( mbedtls_mpi *Q, mbedtls_mpi *R, const mbedtls_mpi *A, mbedtls_mpi_sint b )
1438:C:/Users/lenovo/Desktop/liteos/Project2/BearPi_LiteOS/components/security/mbedtls/mbedtls-2.6.0/library\bignum.c **** {
1439:C:/Users/lenovo/Desktop/liteos/Project2/BearPi_LiteOS/components/security/mbedtls/mbedtls-2.6.0/library\bignum.c ****     mbedtls_mpi _B;
1440:C:/Users/lenovo/Desktop/liteos/Project2/BearPi_LiteOS/components/security/mbedtls/mbedtls-2.6.0/library\bignum.c ****     mbedtls_mpi_uint p[1];
1441:C:/Users/lenovo/Desktop/liteos/Project2/BearPi_LiteOS/components/security/mbedtls/mbedtls-2.6.0/library\bignum.c **** 
1442:C:/Users/lenovo/Desktop/liteos/Project2/BearPi_LiteOS/components/security/mbedtls/mbedtls-2.6.0/library\bignum.c ****     p[0] = ( b < 0 ) ? -b : b;
1443:C:/Users/lenovo/Desktop/liteos/Project2/BearPi_LiteOS/components/security/mbedtls/mbedtls-2.6.0/library\bignum.c ****     _B.s = ( b < 0 ) ? -1 : 1;
1444:C:/Users/lenovo/Desktop/liteos/Project2/BearPi_LiteOS/components/security/mbedtls/mbedtls-2.6.0/library\bignum.c ****     _B.n = 1;
1445:C:/Users/lenovo/Desktop/liteos/Project2/BearPi_LiteOS/components/security/mbedtls/mbedtls-2.6.0/library\bignum.c ****     _B.p = p;
