ARM GAS  c:\Users\lenovo\AppData\Local\Temp\ccnbuj3h.s 			page 1


   1              		.cpu cortex-m4
   2              		.eabi_attribute 27, 1
   3              		.eabi_attribute 28, 1
   4              		.eabi_attribute 20, 1
   5              		.eabi_attribute 21, 1
   6              		.eabi_attribute 23, 3
   7              		.eabi_attribute 24, 1
   8              		.eabi_attribute 25, 1
   9              		.eabi_attribute 26, 1
  10              		.eabi_attribute 30, 1
  11              		.eabi_attribute 34, 1
  12              		.eabi_attribute 18, 4
  13              		.file	"cmsis_liteos.c"
  14              		.text
  15              	.Ltext0:
  16              		.cfi_sections	.debug_frame
  17              		.section	.text.osKernelInitialize,"ax",%progbits
  18              		.align	1
  19              		.global	osKernelInitialize
  20              		.syntax unified
  21              		.thumb
  22              		.thumb_func
  23              		.fpu fpv4-sp-d16
  25              	osKernelInitialize:
  26              	.LFB135:
  27              		.file 1 "C:/Users/lenovo/Desktop/liteos/Project2/BearPi_LiteOS/osdepends/liteos/cmsis/2.0/cmsis_li
   1:C:/Users/lenovo/Desktop/liteos/Project2/BearPi_LiteOS/osdepends/liteos/cmsis/2.0\cmsis_liteos2.c **** /*----------------------------------------------------------------------------
   2:C:/Users/lenovo/Desktop/liteos/Project2/BearPi_LiteOS/osdepends/liteos/cmsis/2.0\cmsis_liteos2.c ****  * Copyright (c) <2013-2015>, <Huawei Technologies Co., Ltd>
   3:C:/Users/lenovo/Desktop/liteos/Project2/BearPi_LiteOS/osdepends/liteos/cmsis/2.0\cmsis_liteos2.c ****  * All rights reserved.
   4:C:/Users/lenovo/Desktop/liteos/Project2/BearPi_LiteOS/osdepends/liteos/cmsis/2.0\cmsis_liteos2.c ****  * Redistribution and use in source and binary forms, with or without modification,
   5:C:/Users/lenovo/Desktop/liteos/Project2/BearPi_LiteOS/osdepends/liteos/cmsis/2.0\cmsis_liteos2.c ****  * are permitted provided that the following conditions are met:
   6:C:/Users/lenovo/Desktop/liteos/Project2/BearPi_LiteOS/osdepends/liteos/cmsis/2.0\cmsis_liteos2.c ****  * 1. Redistributions of source code must retain the above copyright notice, this list of
   7:C:/Users/lenovo/Desktop/liteos/Project2/BearPi_LiteOS/osdepends/liteos/cmsis/2.0\cmsis_liteos2.c ****  * conditions and the following disclaimer.
   8:C:/Users/lenovo/Desktop/liteos/Project2/BearPi_LiteOS/osdepends/liteos/cmsis/2.0\cmsis_liteos2.c ****  * 2. Redistributions in binary form must reproduce the above copyright notice, this list
   9:C:/Users/lenovo/Desktop/liteos/Project2/BearPi_LiteOS/osdepends/liteos/cmsis/2.0\cmsis_liteos2.c ****  * of conditions and the following disclaimer in the documentation and/or other materials
  10:C:/Users/lenovo/Desktop/liteos/Project2/BearPi_LiteOS/osdepends/liteos/cmsis/2.0\cmsis_liteos2.c ****  * provided with the distribution.
  11:C:/Users/lenovo/Desktop/liteos/Project2/BearPi_LiteOS/osdepends/liteos/cmsis/2.0\cmsis_liteos2.c ****  * 3. Neither the name of the copyright holder nor the names of its contributors may be used
  12:C:/Users/lenovo/Desktop/liteos/Project2/BearPi_LiteOS/osdepends/liteos/cmsis/2.0\cmsis_liteos2.c ****  * to endorse or promote products derived from this software without specific prior written
  13:C:/Users/lenovo/Desktop/liteos/Project2/BearPi_LiteOS/osdepends/liteos/cmsis/2.0\cmsis_liteos2.c ****  * permission.
  14:C:/Users/lenovo/Desktop/liteos/Project2/BearPi_LiteOS/osdepends/liteos/cmsis/2.0\cmsis_liteos2.c ****  * THIS SOFTWARE IS PROVIDED BY THE COPYRIGHT HOLDERS AND CONTRIBUTORS
  15:C:/Users/lenovo/Desktop/liteos/Project2/BearPi_LiteOS/osdepends/liteos/cmsis/2.0\cmsis_liteos2.c ****  * "AS IS" AND ANY EXPRESS OR IMPLIED WARRANTIES, INCLUDING, BUT NOT LIMITED TO,
  16:C:/Users/lenovo/Desktop/liteos/Project2/BearPi_LiteOS/osdepends/liteos/cmsis/2.0\cmsis_liteos2.c ****  * THE IMPLIED WARRANTIES OF MERCHANTABILITY AND FITNESS FOR A PARTICULAR
  17:C:/Users/lenovo/Desktop/liteos/Project2/BearPi_LiteOS/osdepends/liteos/cmsis/2.0\cmsis_liteos2.c ****  * PURPOSE ARE DISCLAIMED. IN NO EVENT SHALL THE COPYRIGHT HOLDER OR
  18:C:/Users/lenovo/Desktop/liteos/Project2/BearPi_LiteOS/osdepends/liteos/cmsis/2.0\cmsis_liteos2.c ****  * CONTRIBUTORS BE LIABLE FOR ANY DIRECT, INDIRECT, INCIDENTAL, SPECIAL,
  19:C:/Users/lenovo/Desktop/liteos/Project2/BearPi_LiteOS/osdepends/liteos/cmsis/2.0\cmsis_liteos2.c ****  * EXEMPLARY, OR CONSEQUENTIAL DAMAGES (INCLUDING, BUT NOT LIMITED TO,
  20:C:/Users/lenovo/Desktop/liteos/Project2/BearPi_LiteOS/osdepends/liteos/cmsis/2.0\cmsis_liteos2.c ****  * PROCUREMENT OF SUBSTITUTE GOODS OR SERVICES; LOSS OF USE, DATA, OR PROFITS;
  21:C:/Users/lenovo/Desktop/liteos/Project2/BearPi_LiteOS/osdepends/liteos/cmsis/2.0\cmsis_liteos2.c ****  * OR BUSINESS INTERRUPTION) HOWEVER CAUSED AND ON ANY THEORY OF LIABILITY,
  22:C:/Users/lenovo/Desktop/liteos/Project2/BearPi_LiteOS/osdepends/liteos/cmsis/2.0\cmsis_liteos2.c ****  * WHETHER IN CONTRACT, STRICT LIABILITY, OR TORT (INCLUDING NEGLIGENCE OR
  23:C:/Users/lenovo/Desktop/liteos/Project2/BearPi_LiteOS/osdepends/liteos/cmsis/2.0\cmsis_liteos2.c ****  * OTHERWISE) ARISING IN ANY WAY OUT OF THE USE OF THIS SOFTWARE, EVEN IF
  24:C:/Users/lenovo/Desktop/liteos/Project2/BearPi_LiteOS/osdepends/liteos/cmsis/2.0\cmsis_liteos2.c ****  * ADVISED OF THE POSSIBILITY OF SUCH DAMAGE.
  25:C:/Users/lenovo/Desktop/liteos/Project2/BearPi_LiteOS/osdepends/liteos/cmsis/2.0\cmsis_liteos2.c ****  *---------------------------------------------------------------------------*/
  26:C:/Users/lenovo/Desktop/liteos/Project2/BearPi_LiteOS/osdepends/liteos/cmsis/2.0\cmsis_liteos2.c **** /*----------------------------------------------------------------------------
  27:C:/Users/lenovo/Desktop/liteos/Project2/BearPi_LiteOS/osdepends/liteos/cmsis/2.0\cmsis_liteos2.c ****  * Notice of Export Control Law
  28:C:/Users/lenovo/Desktop/liteos/Project2/BearPi_LiteOS/osdepends/liteos/cmsis/2.0\cmsis_liteos2.c ****  * ===============================================
  29:C:/Users/lenovo/Desktop/liteos/Project2/BearPi_LiteOS/osdepends/liteos/cmsis/2.0\cmsis_liteos2.c ****  * Huawei LiteOS may be subject to applicable export control laws and regulations, which might
  30:C:/Users/lenovo/Desktop/liteos/Project2/BearPi_LiteOS/osdepends/liteos/cmsis/2.0\cmsis_liteos2.c ****  * include those applicable to Huawei LiteOS of U.S. and the country in which you are located.
  31:C:/Users/lenovo/Desktop/liteos/Project2/BearPi_LiteOS/osdepends/liteos/cmsis/2.0\cmsis_liteos2.c ****  * Import, export and usage of Huawei LiteOS in any manner by you shall be in compliance with such
ARM GAS  c:\Users\lenovo\AppData\Local\Temp\ccnbuj3h.s 			page 2


  32:C:/Users/lenovo/Desktop/liteos/Project2/BearPi_LiteOS/osdepends/liteos/cmsis/2.0\cmsis_liteos2.c ****  * applicable export control laws and regulations.
  33:C:/Users/lenovo/Desktop/liteos/Project2/BearPi_LiteOS/osdepends/liteos/cmsis/2.0\cmsis_liteos2.c ****  *---------------------------------------------------------------------------*/
  34:C:/Users/lenovo/Desktop/liteos/Project2/BearPi_LiteOS/osdepends/liteos/cmsis/2.0\cmsis_liteos2.c **** #include "cmsis_os.h"
  35:C:/Users/lenovo/Desktop/liteos/Project2/BearPi_LiteOS/osdepends/liteos/cmsis/2.0\cmsis_liteos2.c **** #include "los_typedef.h"
  36:C:/Users/lenovo/Desktop/liteos/Project2/BearPi_LiteOS/osdepends/liteos/cmsis/2.0\cmsis_liteos2.c **** #include "los_printf.h"
  37:C:/Users/lenovo/Desktop/liteos/Project2/BearPi_LiteOS/osdepends/liteos/cmsis/2.0\cmsis_liteos2.c **** 
  38:C:/Users/lenovo/Desktop/liteos/Project2/BearPi_LiteOS/osdepends/liteos/cmsis/2.0\cmsis_liteos2.c **** #include "los_event.h"
  39:C:/Users/lenovo/Desktop/liteos/Project2/BearPi_LiteOS/osdepends/liteos/cmsis/2.0\cmsis_liteos2.c **** #include "los_membox.h"
  40:C:/Users/lenovo/Desktop/liteos/Project2/BearPi_LiteOS/osdepends/liteos/cmsis/2.0\cmsis_liteos2.c **** #include "los_hwi.h"
  41:C:/Users/lenovo/Desktop/liteos/Project2/BearPi_LiteOS/osdepends/liteos/cmsis/2.0\cmsis_liteos2.c **** 
  42:C:/Users/lenovo/Desktop/liteos/Project2/BearPi_LiteOS/osdepends/liteos/cmsis/2.0\cmsis_liteos2.c **** #include "los_mux.ph"
  43:C:/Users/lenovo/Desktop/liteos/Project2/BearPi_LiteOS/osdepends/liteos/cmsis/2.0\cmsis_liteos2.c **** #include "los_queue.ph"
  44:C:/Users/lenovo/Desktop/liteos/Project2/BearPi_LiteOS/osdepends/liteos/cmsis/2.0\cmsis_liteos2.c **** #include "los_sem.ph"
  45:C:/Users/lenovo/Desktop/liteos/Project2/BearPi_LiteOS/osdepends/liteos/cmsis/2.0\cmsis_liteos2.c **** #include "los_memory.ph"
  46:C:/Users/lenovo/Desktop/liteos/Project2/BearPi_LiteOS/osdepends/liteos/cmsis/2.0\cmsis_liteos2.c **** #include "los_swtmr.ph"
  47:C:/Users/lenovo/Desktop/liteos/Project2/BearPi_LiteOS/osdepends/liteos/cmsis/2.0\cmsis_liteos2.c **** #include "los_sys.ph"
  48:C:/Users/lenovo/Desktop/liteos/Project2/BearPi_LiteOS/osdepends/liteos/cmsis/2.0\cmsis_liteos2.c **** #include "los_task.ph"
  49:C:/Users/lenovo/Desktop/liteos/Project2/BearPi_LiteOS/osdepends/liteos/cmsis/2.0\cmsis_liteos2.c **** #include "los_tick.ph"
  50:C:/Users/lenovo/Desktop/liteos/Project2/BearPi_LiteOS/osdepends/liteos/cmsis/2.0\cmsis_liteos2.c **** //#include "los_sleep.h"
  51:C:/Users/lenovo/Desktop/liteos/Project2/BearPi_LiteOS/osdepends/liteos/cmsis/2.0\cmsis_liteos2.c **** 
  52:C:/Users/lenovo/Desktop/liteos/Project2/BearPi_LiteOS/osdepends/liteos/cmsis/2.0\cmsis_liteos2.c **** //#include "hal_clocks.h"
  53:C:/Users/lenovo/Desktop/liteos/Project2/BearPi_LiteOS/osdepends/liteos/cmsis/2.0\cmsis_liteos2.c **** #include "string.h"
  54:C:/Users/lenovo/Desktop/liteos/Project2/BearPi_LiteOS/osdepends/liteos/cmsis/2.0\cmsis_liteos2.c **** 
  55:C:/Users/lenovo/Desktop/liteos/Project2/BearPi_LiteOS/osdepends/liteos/cmsis/2.0\cmsis_liteos2.c **** #ifdef __cplusplus
  56:C:/Users/lenovo/Desktop/liteos/Project2/BearPi_LiteOS/osdepends/liteos/cmsis/2.0\cmsis_liteos2.c **** #if __cplusplus
  57:C:/Users/lenovo/Desktop/liteos/Project2/BearPi_LiteOS/osdepends/liteos/cmsis/2.0\cmsis_liteos2.c **** extern "C" {
  58:C:/Users/lenovo/Desktop/liteos/Project2/BearPi_LiteOS/osdepends/liteos/cmsis/2.0\cmsis_liteos2.c **** #endif /* __cplusplus */
  59:C:/Users/lenovo/Desktop/liteos/Project2/BearPi_LiteOS/osdepends/liteos/cmsis/2.0\cmsis_liteos2.c **** #endif /* __cplusplus */
  60:C:/Users/lenovo/Desktop/liteos/Project2/BearPi_LiteOS/osdepends/liteos/cmsis/2.0\cmsis_liteos2.c **** #if (CMSIS_OS_VER == 2)
  61:C:/Users/lenovo/Desktop/liteos/Project2/BearPi_LiteOS/osdepends/liteos/cmsis/2.0\cmsis_liteos2.c **** 
  62:C:/Users/lenovo/Desktop/liteos/Project2/BearPi_LiteOS/osdepends/liteos/cmsis/2.0\cmsis_liteos2.c **** /* Kernel initialization state */
  63:C:/Users/lenovo/Desktop/liteos/Project2/BearPi_LiteOS/osdepends/liteos/cmsis/2.0\cmsis_liteos2.c **** static osKernelState_t KernelState;
  64:C:/Users/lenovo/Desktop/liteos/Project2/BearPi_LiteOS/osdepends/liteos/cmsis/2.0\cmsis_liteos2.c **** 
  65:C:/Users/lenovo/Desktop/liteos/Project2/BearPi_LiteOS/osdepends/liteos/cmsis/2.0\cmsis_liteos2.c **** extern BOOL g_bTaskScheduled;
  66:C:/Users/lenovo/Desktop/liteos/Project2/BearPi_LiteOS/osdepends/liteos/cmsis/2.0\cmsis_liteos2.c **** 
  67:C:/Users/lenovo/Desktop/liteos/Project2/BearPi_LiteOS/osdepends/liteos/cmsis/2.0\cmsis_liteos2.c **** #ifdef LOS_RUNSTOP
  68:C:/Users/lenovo/Desktop/liteos/Project2/BearPi_LiteOS/osdepends/liteos/cmsis/2.0\cmsis_liteos2.c **** cb_uart_is_need_awake_fn uart_is_need_awake_callback = NULL;
  69:C:/Users/lenovo/Desktop/liteos/Project2/BearPi_LiteOS/osdepends/liteos/cmsis/2.0\cmsis_liteos2.c **** #endif
  70:C:/Users/lenovo/Desktop/liteos/Project2/BearPi_LiteOS/osdepends/liteos/cmsis/2.0\cmsis_liteos2.c **** #define LOS_PRIORITY_WIN 8
  71:C:/Users/lenovo/Desktop/liteos/Project2/BearPi_LiteOS/osdepends/liteos/cmsis/2.0\cmsis_liteos2.c **** 
  72:C:/Users/lenovo/Desktop/liteos/Project2/BearPi_LiteOS/osdepends/liteos/cmsis/2.0\cmsis_liteos2.c **** const osVersion_t g_stLosVersion = {001, 001};
  73:C:/Users/lenovo/Desktop/liteos/Project2/BearPi_LiteOS/osdepends/liteos/cmsis/2.0\cmsis_liteos2.c **** 
  74:C:/Users/lenovo/Desktop/liteos/Project2/BearPi_LiteOS/osdepends/liteos/cmsis/2.0\cmsis_liteos2.c **** #define LITEOS_VERSION_MAJOR    1
  75:C:/Users/lenovo/Desktop/liteos/Project2/BearPi_LiteOS/osdepends/liteos/cmsis/2.0\cmsis_liteos2.c **** #define LITEOS_VERSION_MINOR    0
  76:C:/Users/lenovo/Desktop/liteos/Project2/BearPi_LiteOS/osdepends/liteos/cmsis/2.0\cmsis_liteos2.c **** #define LITEOS_VERSION_BUILD    0
  77:C:/Users/lenovo/Desktop/liteos/Project2/BearPi_LiteOS/osdepends/liteos/cmsis/2.0\cmsis_liteos2.c **** 
  78:C:/Users/lenovo/Desktop/liteos/Project2/BearPi_LiteOS/osdepends/liteos/cmsis/2.0\cmsis_liteos2.c **** /* Kernel version and identification string definition */
  79:C:/Users/lenovo/Desktop/liteos/Project2/BearPi_LiteOS/osdepends/liteos/cmsis/2.0\cmsis_liteos2.c **** #define KERNEL_VERSION            (((UINT32)LITEOS_VERSION_MAJOR * 10000000UL) | \
  80:C:/Users/lenovo/Desktop/liteos/Project2/BearPi_LiteOS/osdepends/liteos/cmsis/2.0\cmsis_liteos2.c ****                                    ((UINT32)LITEOS_VERSION_MINOR *    10000UL) | \
  81:C:/Users/lenovo/Desktop/liteos/Project2/BearPi_LiteOS/osdepends/liteos/cmsis/2.0\cmsis_liteos2.c ****                                    ((UINT32)LITEOS_VERSION_BUILD *        1UL))
  82:C:/Users/lenovo/Desktop/liteos/Project2/BearPi_LiteOS/osdepends/liteos/cmsis/2.0\cmsis_liteos2.c **** 
  83:C:/Users/lenovo/Desktop/liteos/Project2/BearPi_LiteOS/osdepends/liteos/cmsis/2.0\cmsis_liteos2.c **** #define KERNEL_ID   "HUAWEI-LiteOS"
  84:C:/Users/lenovo/Desktop/liteos/Project2/BearPi_LiteOS/osdepends/liteos/cmsis/2.0\cmsis_liteos2.c **** 
  85:C:/Users/lenovo/Desktop/liteos/Project2/BearPi_LiteOS/osdepends/liteos/cmsis/2.0\cmsis_liteos2.c **** #ifndef UNUSED
  86:C:/Users/lenovo/Desktop/liteos/Project2/BearPi_LiteOS/osdepends/liteos/cmsis/2.0\cmsis_liteos2.c **** #define UNUSED(var) do { (void)var; } while(0)
  87:C:/Users/lenovo/Desktop/liteos/Project2/BearPi_LiteOS/osdepends/liteos/cmsis/2.0\cmsis_liteos2.c **** #endif
  88:C:/Users/lenovo/Desktop/liteos/Project2/BearPi_LiteOS/osdepends/liteos/cmsis/2.0\cmsis_liteos2.c **** //  ==== Kernel Management Functions ====
ARM GAS  c:\Users\lenovo\AppData\Local\Temp\ccnbuj3h.s 			page 3


  89:C:/Users/lenovo/Desktop/liteos/Project2/BearPi_LiteOS/osdepends/liteos/cmsis/2.0\cmsis_liteos2.c **** uint32_t osTaskStackWaterMarkGet(UINT32 uwTaskID);
  90:C:/Users/lenovo/Desktop/liteos/Project2/BearPi_LiteOS/osdepends/liteos/cmsis/2.0\cmsis_liteos2.c **** 
  91:C:/Users/lenovo/Desktop/liteos/Project2/BearPi_LiteOS/osdepends/liteos/cmsis/2.0\cmsis_liteos2.c **** extern VOID LOS_GetSystickCycle(UINT32 *puwCntHi, UINT32 *puwCntLo);
  92:C:/Users/lenovo/Desktop/liteos/Project2/BearPi_LiteOS/osdepends/liteos/cmsis/2.0\cmsis_liteos2.c **** 
  93:C:/Users/lenovo/Desktop/liteos/Project2/BearPi_LiteOS/osdepends/liteos/cmsis/2.0\cmsis_liteos2.c **** osStatus_t osKernelInitialize (void)
  94:C:/Users/lenovo/Desktop/liteos/Project2/BearPi_LiteOS/osdepends/liteos/cmsis/2.0\cmsis_liteos2.c **** {
  28              		.loc 1 94 0
  29              		.cfi_startproc
  30              		@ args = 0, pretend = 0, frame = 0
  31              		@ frame_needed = 0, uses_anonymous_args = 0
  32 0000 08B5     		push	{r3, lr}
  33              	.LCFI0:
  34              		.cfi_def_cfa_offset 8
  35              		.cfi_offset 3, -8
  36              		.cfi_offset 14, -4
  95:C:/Users/lenovo/Desktop/liteos/Project2/BearPi_LiteOS/osdepends/liteos/cmsis/2.0\cmsis_liteos2.c ****     if (OS_INT_ACTIVE)
  37              		.loc 1 95 0
  38 0002 FFF7FEFF 		bl	osIntNumGet
  39              	.LVL0:
  40 0006 48B9     		cbnz	r0, .L3
  96:C:/Users/lenovo/Desktop/liteos/Project2/BearPi_LiteOS/osdepends/liteos/cmsis/2.0\cmsis_liteos2.c ****     {
  97:C:/Users/lenovo/Desktop/liteos/Project2/BearPi_LiteOS/osdepends/liteos/cmsis/2.0\cmsis_liteos2.c ****         return osErrorISR;
  98:C:/Users/lenovo/Desktop/liteos/Project2/BearPi_LiteOS/osdepends/liteos/cmsis/2.0\cmsis_liteos2.c ****     }
  99:C:/Users/lenovo/Desktop/liteos/Project2/BearPi_LiteOS/osdepends/liteos/cmsis/2.0\cmsis_liteos2.c **** 
 100:C:/Users/lenovo/Desktop/liteos/Project2/BearPi_LiteOS/osdepends/liteos/cmsis/2.0\cmsis_liteos2.c ****     if (KernelState != osKernelInactive)
  41              		.loc 1 100 0
  42 0008 094B     		ldr	r3, .L7
  43 000a 1B68     		ldr	r3, [r3]
  44 000c 4BB9     		cbnz	r3, .L4
 101:C:/Users/lenovo/Desktop/liteos/Project2/BearPi_LiteOS/osdepends/liteos/cmsis/2.0\cmsis_liteos2.c ****     {
 102:C:/Users/lenovo/Desktop/liteos/Project2/BearPi_LiteOS/osdepends/liteos/cmsis/2.0\cmsis_liteos2.c ****         return osError;
 103:C:/Users/lenovo/Desktop/liteos/Project2/BearPi_LiteOS/osdepends/liteos/cmsis/2.0\cmsis_liteos2.c ****     }
 104:C:/Users/lenovo/Desktop/liteos/Project2/BearPi_LiteOS/osdepends/liteos/cmsis/2.0\cmsis_liteos2.c **** 
 105:C:/Users/lenovo/Desktop/liteos/Project2/BearPi_LiteOS/osdepends/liteos/cmsis/2.0\cmsis_liteos2.c ****     if(LOS_OK == LOS_KernelInit())
  45              		.loc 1 105 0
  46 000e FFF7FEFF 		bl	LOS_KernelInit
  47              	.LVL1:
  48 0012 48B9     		cbnz	r0, .L5
 106:C:/Users/lenovo/Desktop/liteos/Project2/BearPi_LiteOS/osdepends/liteos/cmsis/2.0\cmsis_liteos2.c ****     {
 107:C:/Users/lenovo/Desktop/liteos/Project2/BearPi_LiteOS/osdepends/liteos/cmsis/2.0\cmsis_liteos2.c ****         KernelState = osKernelReady;
  49              		.loc 1 107 0
  50 0014 064B     		ldr	r3, .L7
  51 0016 0122     		movs	r2, #1
  52 0018 1A60     		str	r2, [r3]
  53              	.L1:
 108:C:/Users/lenovo/Desktop/liteos/Project2/BearPi_LiteOS/osdepends/liteos/cmsis/2.0\cmsis_liteos2.c ****         return osOK;
 109:C:/Users/lenovo/Desktop/liteos/Project2/BearPi_LiteOS/osdepends/liteos/cmsis/2.0\cmsis_liteos2.c ****     }
 110:C:/Users/lenovo/Desktop/liteos/Project2/BearPi_LiteOS/osdepends/liteos/cmsis/2.0\cmsis_liteos2.c ****     else
 111:C:/Users/lenovo/Desktop/liteos/Project2/BearPi_LiteOS/osdepends/liteos/cmsis/2.0\cmsis_liteos2.c ****     {
 112:C:/Users/lenovo/Desktop/liteos/Project2/BearPi_LiteOS/osdepends/liteos/cmsis/2.0\cmsis_liteos2.c ****         return osError;
 113:C:/Users/lenovo/Desktop/liteos/Project2/BearPi_LiteOS/osdepends/liteos/cmsis/2.0\cmsis_liteos2.c ****     }
 114:C:/Users/lenovo/Desktop/liteos/Project2/BearPi_LiteOS/osdepends/liteos/cmsis/2.0\cmsis_liteos2.c **** }
  54              		.loc 1 114 0
  55 001a 08BD     		pop	{r3, pc}
  56              	.L3:
  97:C:/Users/lenovo/Desktop/liteos/Project2/BearPi_LiteOS/osdepends/liteos/cmsis/2.0\cmsis_liteos2.c ****     }
  57              		.loc 1 97 0
ARM GAS  c:\Users\lenovo\AppData\Local\Temp\ccnbuj3h.s 			page 4


  58 001c 6FF00500 		mvn	r0, #5
  59 0020 FBE7     		b	.L1
  60              	.L4:
 102:C:/Users/lenovo/Desktop/liteos/Project2/BearPi_LiteOS/osdepends/liteos/cmsis/2.0\cmsis_liteos2.c ****     }
  61              		.loc 1 102 0
  62 0022 4FF0FF30 		mov	r0, #-1
  63 0026 F8E7     		b	.L1
  64              	.L5:
 112:C:/Users/lenovo/Desktop/liteos/Project2/BearPi_LiteOS/osdepends/liteos/cmsis/2.0\cmsis_liteos2.c ****     }
  65              		.loc 1 112 0
  66 0028 4FF0FF30 		mov	r0, #-1
  67 002c F5E7     		b	.L1
  68              	.L8:
  69 002e 00BF     		.align	2
  70              	.L7:
  71 0030 00000000 		.word	.LANCHOR0
  72              		.cfi_endproc
  73              	.LFE135:
  75              		.section	.text.osKernelGetInfo,"ax",%progbits
  76              		.align	1
  77              		.global	osKernelGetInfo
  78              		.syntax unified
  79              		.thumb
  80              		.thumb_func
  81              		.fpu fpv4-sp-d16
  83              	osKernelGetInfo:
  84              	.LFB136:
 115:C:/Users/lenovo/Desktop/liteos/Project2/BearPi_LiteOS/osdepends/liteos/cmsis/2.0\cmsis_liteos2.c **** 
 116:C:/Users/lenovo/Desktop/liteos/Project2/BearPi_LiteOS/osdepends/liteos/cmsis/2.0\cmsis_liteos2.c **** 
 117:C:/Users/lenovo/Desktop/liteos/Project2/BearPi_LiteOS/osdepends/liteos/cmsis/2.0\cmsis_liteos2.c **** osStatus_t osKernelGetInfo (osVersion_t *version, char *id_buf, uint32_t id_size)
 118:C:/Users/lenovo/Desktop/liteos/Project2/BearPi_LiteOS/osdepends/liteos/cmsis/2.0\cmsis_liteos2.c **** {
  85              		.loc 1 118 0
  86              		.cfi_startproc
  87              		@ args = 0, pretend = 0, frame = 0
  88              		@ frame_needed = 0, uses_anonymous_args = 0
  89              	.LVL2:
  90 0000 70B5     		push	{r4, r5, r6, lr}
  91              	.LCFI1:
  92              		.cfi_def_cfa_offset 16
  93              		.cfi_offset 4, -16
  94              		.cfi_offset 5, -12
  95              		.cfi_offset 6, -8
  96              		.cfi_offset 14, -4
  97 0002 0446     		mov	r4, r0
  98 0004 0E46     		mov	r6, r1
  99 0006 1546     		mov	r5, r2
 119:C:/Users/lenovo/Desktop/liteos/Project2/BearPi_LiteOS/osdepends/liteos/cmsis/2.0\cmsis_liteos2.c ****     if (OS_INT_ACTIVE)
 100              		.loc 1 119 0
 101 0008 FFF7FEFF 		bl	osIntNumGet
 102              	.LVL3:
 103 000c 78B9     		cbnz	r0, .L13
 120:C:/Users/lenovo/Desktop/liteos/Project2/BearPi_LiteOS/osdepends/liteos/cmsis/2.0\cmsis_liteos2.c ****     {
 121:C:/Users/lenovo/Desktop/liteos/Project2/BearPi_LiteOS/osdepends/liteos/cmsis/2.0\cmsis_liteos2.c ****         return osErrorISR;
 122:C:/Users/lenovo/Desktop/liteos/Project2/BearPi_LiteOS/osdepends/liteos/cmsis/2.0\cmsis_liteos2.c ****     }
 123:C:/Users/lenovo/Desktop/liteos/Project2/BearPi_LiteOS/osdepends/liteos/cmsis/2.0\cmsis_liteos2.c **** 
 124:C:/Users/lenovo/Desktop/liteos/Project2/BearPi_LiteOS/osdepends/liteos/cmsis/2.0\cmsis_liteos2.c ****     if (version != NULL)
 104              		.loc 1 124 0
ARM GAS  c:\Users\lenovo\AppData\Local\Temp\ccnbuj3h.s 			page 5


 105 000e 14B1     		cbz	r4, .L11
 125:C:/Users/lenovo/Desktop/liteos/Project2/BearPi_LiteOS/osdepends/liteos/cmsis/2.0\cmsis_liteos2.c ****     {
 126:C:/Users/lenovo/Desktop/liteos/Project2/BearPi_LiteOS/osdepends/liteos/cmsis/2.0\cmsis_liteos2.c ****         version->api = g_stLosVersion.api;
 106              		.loc 1 126 0
 107 0010 0123     		movs	r3, #1
 108 0012 2360     		str	r3, [r4]
 127:C:/Users/lenovo/Desktop/liteos/Project2/BearPi_LiteOS/osdepends/liteos/cmsis/2.0\cmsis_liteos2.c ****         version->kernel = g_stLosVersion.kernel;
 109              		.loc 1 127 0
 110 0014 6360     		str	r3, [r4, #4]
 111              	.L11:
 128:C:/Users/lenovo/Desktop/liteos/Project2/BearPi_LiteOS/osdepends/liteos/cmsis/2.0\cmsis_liteos2.c ****     }
 129:C:/Users/lenovo/Desktop/liteos/Project2/BearPi_LiteOS/osdepends/liteos/cmsis/2.0\cmsis_liteos2.c **** 
 130:C:/Users/lenovo/Desktop/liteos/Project2/BearPi_LiteOS/osdepends/liteos/cmsis/2.0\cmsis_liteos2.c ****     if ((id_buf != NULL) && (id_size != 0U))
 112              		.loc 1 130 0
 113 0016 6EB1     		cbz	r6, .L14
 114              		.loc 1 130 0 is_stmt 0 discriminator 1
 115 0018 75B1     		cbz	r5, .L15
 131:C:/Users/lenovo/Desktop/liteos/Project2/BearPi_LiteOS/osdepends/liteos/cmsis/2.0\cmsis_liteos2.c ****     {
 132:C:/Users/lenovo/Desktop/liteos/Project2/BearPi_LiteOS/osdepends/liteos/cmsis/2.0\cmsis_liteos2.c ****         if (id_size > sizeof(KERNEL_ID))
 116              		.loc 1 132 0 is_stmt 1
 117 001a 0E2D     		cmp	r5, #14
 118 001c 00D9     		bls	.L12
 133:C:/Users/lenovo/Desktop/liteos/Project2/BearPi_LiteOS/osdepends/liteos/cmsis/2.0\cmsis_liteos2.c ****         {
 134:C:/Users/lenovo/Desktop/liteos/Project2/BearPi_LiteOS/osdepends/liteos/cmsis/2.0\cmsis_liteos2.c ****             id_size = sizeof(KERNEL_ID);
 119              		.loc 1 134 0
 120 001e 0E25     		movs	r5, #14
 121              	.LVL4:
 122              	.L12:
 135:C:/Users/lenovo/Desktop/liteos/Project2/BearPi_LiteOS/osdepends/liteos/cmsis/2.0\cmsis_liteos2.c ****         }
 136:C:/Users/lenovo/Desktop/liteos/Project2/BearPi_LiteOS/osdepends/liteos/cmsis/2.0\cmsis_liteos2.c ****         memcpy(id_buf, KERNEL_ID, id_size);
 123              		.loc 1 136 0
 124 0020 2A46     		mov	r2, r5
 125 0022 0649     		ldr	r1, .L18
 126 0024 3046     		mov	r0, r6
 127 0026 FFF7FEFF 		bl	memcpy
 128              	.LVL5:
 137:C:/Users/lenovo/Desktop/liteos/Project2/BearPi_LiteOS/osdepends/liteos/cmsis/2.0\cmsis_liteos2.c ****     }
 138:C:/Users/lenovo/Desktop/liteos/Project2/BearPi_LiteOS/osdepends/liteos/cmsis/2.0\cmsis_liteos2.c **** 
 139:C:/Users/lenovo/Desktop/liteos/Project2/BearPi_LiteOS/osdepends/liteos/cmsis/2.0\cmsis_liteos2.c ****     return osOK;
 129              		.loc 1 139 0
 130 002a 0020     		movs	r0, #0
 131              	.L9:
 140:C:/Users/lenovo/Desktop/liteos/Project2/BearPi_LiteOS/osdepends/liteos/cmsis/2.0\cmsis_liteos2.c **** }
 132              		.loc 1 140 0
 133 002c 70BD     		pop	{r4, r5, r6, pc}
 134              	.LVL6:
 135              	.L13:
 121:C:/Users/lenovo/Desktop/liteos/Project2/BearPi_LiteOS/osdepends/liteos/cmsis/2.0\cmsis_liteos2.c ****     }
 136              		.loc 1 121 0
 137 002e 6FF00500 		mvn	r0, #5
 138 0032 FBE7     		b	.L9
 139              	.L14:
 139:C:/Users/lenovo/Desktop/liteos/Project2/BearPi_LiteOS/osdepends/liteos/cmsis/2.0\cmsis_liteos2.c **** }
 140              		.loc 1 139 0
 141 0034 0020     		movs	r0, #0
 142 0036 F9E7     		b	.L9
 143              	.L15:
ARM GAS  c:\Users\lenovo\AppData\Local\Temp\ccnbuj3h.s 			page 6


 144 0038 0020     		movs	r0, #0
 145 003a F7E7     		b	.L9
 146              	.L19:
 147              		.align	2
 148              	.L18:
 149 003c 00000000 		.word	.LC0
 150              		.cfi_endproc
 151              	.LFE136:
 153              		.section	.text.osKernelGetState,"ax",%progbits
 154              		.align	1
 155              		.global	osKernelGetState
 156              		.syntax unified
 157              		.thumb
 158              		.thumb_func
 159              		.fpu fpv4-sp-d16
 161              	osKernelGetState:
 162              	.LFB137:
 141:C:/Users/lenovo/Desktop/liteos/Project2/BearPi_LiteOS/osdepends/liteos/cmsis/2.0\cmsis_liteos2.c **** 
 142:C:/Users/lenovo/Desktop/liteos/Project2/BearPi_LiteOS/osdepends/liteos/cmsis/2.0\cmsis_liteos2.c **** 
 143:C:/Users/lenovo/Desktop/liteos/Project2/BearPi_LiteOS/osdepends/liteos/cmsis/2.0\cmsis_liteos2.c **** osKernelState_t osKernelGetState (void)
 144:C:/Users/lenovo/Desktop/liteos/Project2/BearPi_LiteOS/osdepends/liteos/cmsis/2.0\cmsis_liteos2.c **** {
 163              		.loc 1 144 0
 164              		.cfi_startproc
 165              		@ args = 0, pretend = 0, frame = 0
 166              		@ frame_needed = 0, uses_anonymous_args = 0
 167 0000 08B5     		push	{r3, lr}
 168              	.LCFI2:
 169              		.cfi_def_cfa_offset 8
 170              		.cfi_offset 3, -8
 171              		.cfi_offset 14, -4
 145:C:/Users/lenovo/Desktop/liteos/Project2/BearPi_LiteOS/osdepends/liteos/cmsis/2.0\cmsis_liteos2.c ****     if (OS_INT_ACTIVE)
 172              		.loc 1 145 0
 173 0002 FFF7FEFF 		bl	osIntNumGet
 174              	.LVL7:
 175 0006 68B9     		cbnz	r0, .L23
 146:C:/Users/lenovo/Desktop/liteos/Project2/BearPi_LiteOS/osdepends/liteos/cmsis/2.0\cmsis_liteos2.c ****     {
 147:C:/Users/lenovo/Desktop/liteos/Project2/BearPi_LiteOS/osdepends/liteos/cmsis/2.0\cmsis_liteos2.c ****         return osKernelError;
 148:C:/Users/lenovo/Desktop/liteos/Project2/BearPi_LiteOS/osdepends/liteos/cmsis/2.0\cmsis_liteos2.c ****     }
 149:C:/Users/lenovo/Desktop/liteos/Project2/BearPi_LiteOS/osdepends/liteos/cmsis/2.0\cmsis_liteos2.c **** 
 150:C:/Users/lenovo/Desktop/liteos/Project2/BearPi_LiteOS/osdepends/liteos/cmsis/2.0\cmsis_liteos2.c ****     if(!g_bTaskScheduled)
 176              		.loc 1 150 0
 177 0008 094B     		ldr	r3, .L27
 178 000a 1B68     		ldr	r3, [r3]
 179 000c 2BB9     		cbnz	r3, .L22
 151:C:/Users/lenovo/Desktop/liteos/Project2/BearPi_LiteOS/osdepends/liteos/cmsis/2.0\cmsis_liteos2.c ****     {
 152:C:/Users/lenovo/Desktop/liteos/Project2/BearPi_LiteOS/osdepends/liteos/cmsis/2.0\cmsis_liteos2.c ****         if (KernelState == osKernelReady)
 180              		.loc 1 152 0
 181 000e 094B     		ldr	r3, .L27+4
 182 0010 1868     		ldr	r0, [r3]
 183 0012 0128     		cmp	r0, #1
 184 0014 00D0     		beq	.L20
 153:C:/Users/lenovo/Desktop/liteos/Project2/BearPi_LiteOS/osdepends/liteos/cmsis/2.0\cmsis_liteos2.c ****         {
 154:C:/Users/lenovo/Desktop/liteos/Project2/BearPi_LiteOS/osdepends/liteos/cmsis/2.0\cmsis_liteos2.c ****             return osKernelReady;
 155:C:/Users/lenovo/Desktop/liteos/Project2/BearPi_LiteOS/osdepends/liteos/cmsis/2.0\cmsis_liteos2.c ****         }
 156:C:/Users/lenovo/Desktop/liteos/Project2/BearPi_LiteOS/osdepends/liteos/cmsis/2.0\cmsis_liteos2.c ****         else
 157:C:/Users/lenovo/Desktop/liteos/Project2/BearPi_LiteOS/osdepends/liteos/cmsis/2.0\cmsis_liteos2.c ****         {
 158:C:/Users/lenovo/Desktop/liteos/Project2/BearPi_LiteOS/osdepends/liteos/cmsis/2.0\cmsis_liteos2.c ****             return osKernelInactive;
ARM GAS  c:\Users\lenovo\AppData\Local\Temp\ccnbuj3h.s 			page 7


 185              		.loc 1 158 0
 186 0016 0020     		movs	r0, #0
 187              	.L20:
 159:C:/Users/lenovo/Desktop/liteos/Project2/BearPi_LiteOS/osdepends/liteos/cmsis/2.0\cmsis_liteos2.c ****         }
 160:C:/Users/lenovo/Desktop/liteos/Project2/BearPi_LiteOS/osdepends/liteos/cmsis/2.0\cmsis_liteos2.c ****     }
 161:C:/Users/lenovo/Desktop/liteos/Project2/BearPi_LiteOS/osdepends/liteos/cmsis/2.0\cmsis_liteos2.c ****     else if(g_usLosTaskLock > 0)
 162:C:/Users/lenovo/Desktop/liteos/Project2/BearPi_LiteOS/osdepends/liteos/cmsis/2.0\cmsis_liteos2.c ****     {
 163:C:/Users/lenovo/Desktop/liteos/Project2/BearPi_LiteOS/osdepends/liteos/cmsis/2.0\cmsis_liteos2.c ****         return osKernelLocked;
 164:C:/Users/lenovo/Desktop/liteos/Project2/BearPi_LiteOS/osdepends/liteos/cmsis/2.0\cmsis_liteos2.c ****     }
 165:C:/Users/lenovo/Desktop/liteos/Project2/BearPi_LiteOS/osdepends/liteos/cmsis/2.0\cmsis_liteos2.c ****     else
 166:C:/Users/lenovo/Desktop/liteos/Project2/BearPi_LiteOS/osdepends/liteos/cmsis/2.0\cmsis_liteos2.c ****     {
 167:C:/Users/lenovo/Desktop/liteos/Project2/BearPi_LiteOS/osdepends/liteos/cmsis/2.0\cmsis_liteos2.c ****         return osKernelRunning;
 168:C:/Users/lenovo/Desktop/liteos/Project2/BearPi_LiteOS/osdepends/liteos/cmsis/2.0\cmsis_liteos2.c ****     }
 169:C:/Users/lenovo/Desktop/liteos/Project2/BearPi_LiteOS/osdepends/liteos/cmsis/2.0\cmsis_liteos2.c **** }
 188              		.loc 1 169 0
 189 0018 08BD     		pop	{r3, pc}
 190              	.L22:
 161:C:/Users/lenovo/Desktop/liteos/Project2/BearPi_LiteOS/osdepends/liteos/cmsis/2.0\cmsis_liteos2.c ****     {
 191              		.loc 1 161 0
 192 001a 074B     		ldr	r3, .L27+8
 193 001c 1B88     		ldrh	r3, [r3]
 194 001e 23B1     		cbz	r3, .L25
 163:C:/Users/lenovo/Desktop/liteos/Project2/BearPi_LiteOS/osdepends/liteos/cmsis/2.0\cmsis_liteos2.c ****     }
 195              		.loc 1 163 0
 196 0020 0320     		movs	r0, #3
 197 0022 F9E7     		b	.L20
 198              	.L23:
 147:C:/Users/lenovo/Desktop/liteos/Project2/BearPi_LiteOS/osdepends/liteos/cmsis/2.0\cmsis_liteos2.c ****     }
 199              		.loc 1 147 0
 200 0024 4FF0FF30 		mov	r0, #-1
 201 0028 F6E7     		b	.L20
 202              	.L25:
 167:C:/Users/lenovo/Desktop/liteos/Project2/BearPi_LiteOS/osdepends/liteos/cmsis/2.0\cmsis_liteos2.c ****     }
 203              		.loc 1 167 0
 204 002a 0220     		movs	r0, #2
 205 002c F4E7     		b	.L20
 206              	.L28:
 207 002e 00BF     		.align	2
 208              	.L27:
 209 0030 00000000 		.word	g_bTaskScheduled
 210 0034 00000000 		.word	.LANCHOR0
 211 0038 00000000 		.word	g_usLosTaskLock
 212              		.cfi_endproc
 213              	.LFE137:
 215              		.section	.text.osKernelStart,"ax",%progbits
 216              		.align	1
 217              		.global	osKernelStart
 218              		.syntax unified
 219              		.thumb
 220              		.thumb_func
 221              		.fpu fpv4-sp-d16
 223              	osKernelStart:
 224              	.LFB138:
 170:C:/Users/lenovo/Desktop/liteos/Project2/BearPi_LiteOS/osdepends/liteos/cmsis/2.0\cmsis_liteos2.c **** 
 171:C:/Users/lenovo/Desktop/liteos/Project2/BearPi_LiteOS/osdepends/liteos/cmsis/2.0\cmsis_liteos2.c **** 
 172:C:/Users/lenovo/Desktop/liteos/Project2/BearPi_LiteOS/osdepends/liteos/cmsis/2.0\cmsis_liteos2.c **** osStatus_t osKernelStart (void)
 173:C:/Users/lenovo/Desktop/liteos/Project2/BearPi_LiteOS/osdepends/liteos/cmsis/2.0\cmsis_liteos2.c **** {
ARM GAS  c:\Users\lenovo\AppData\Local\Temp\ccnbuj3h.s 			page 8


 225              		.loc 1 173 0
 226              		.cfi_startproc
 227              		@ args = 0, pretend = 0, frame = 0
 228              		@ frame_needed = 0, uses_anonymous_args = 0
 229 0000 08B5     		push	{r3, lr}
 230              	.LCFI3:
 231              		.cfi_def_cfa_offset 8
 232              		.cfi_offset 3, -8
 233              		.cfi_offset 14, -4
 174:C:/Users/lenovo/Desktop/liteos/Project2/BearPi_LiteOS/osdepends/liteos/cmsis/2.0\cmsis_liteos2.c ****     if(OS_INT_ACTIVE)
 234              		.loc 1 174 0
 235 0002 FFF7FEFF 		bl	osIntNumGet
 236              	.LVL8:
 237 0006 50B9     		cbnz	r0, .L31
 175:C:/Users/lenovo/Desktop/liteos/Project2/BearPi_LiteOS/osdepends/liteos/cmsis/2.0\cmsis_liteos2.c ****     {
 176:C:/Users/lenovo/Desktop/liteos/Project2/BearPi_LiteOS/osdepends/liteos/cmsis/2.0\cmsis_liteos2.c ****         return osErrorISR;
 177:C:/Users/lenovo/Desktop/liteos/Project2/BearPi_LiteOS/osdepends/liteos/cmsis/2.0\cmsis_liteos2.c ****     }
 178:C:/Users/lenovo/Desktop/liteos/Project2/BearPi_LiteOS/osdepends/liteos/cmsis/2.0\cmsis_liteos2.c **** 
 179:C:/Users/lenovo/Desktop/liteos/Project2/BearPi_LiteOS/osdepends/liteos/cmsis/2.0\cmsis_liteos2.c ****     if(KernelState == osKernelReady)
 238              		.loc 1 179 0
 239 0008 094B     		ldr	r3, .L35
 240 000a 1B68     		ldr	r3, [r3]
 241 000c 012B     		cmp	r3, #1
 242 000e 09D1     		bne	.L32
 180:C:/Users/lenovo/Desktop/liteos/Project2/BearPi_LiteOS/osdepends/liteos/cmsis/2.0\cmsis_liteos2.c ****     {
 181:C:/Users/lenovo/Desktop/liteos/Project2/BearPi_LiteOS/osdepends/liteos/cmsis/2.0\cmsis_liteos2.c ****         if(LOS_OK == LOS_Start())
 243              		.loc 1 181 0
 244 0010 FFF7FEFF 		bl	LOS_Start
 245              	.LVL9:
 246 0014 48B9     		cbnz	r0, .L33
 182:C:/Users/lenovo/Desktop/liteos/Project2/BearPi_LiteOS/osdepends/liteos/cmsis/2.0\cmsis_liteos2.c ****         {
 183:C:/Users/lenovo/Desktop/liteos/Project2/BearPi_LiteOS/osdepends/liteos/cmsis/2.0\cmsis_liteos2.c ****             KernelState = osKernelRunning;
 247              		.loc 1 183 0
 248 0016 064B     		ldr	r3, .L35
 249 0018 0222     		movs	r2, #2
 250 001a 1A60     		str	r2, [r3]
 251              	.L29:
 184:C:/Users/lenovo/Desktop/liteos/Project2/BearPi_LiteOS/osdepends/liteos/cmsis/2.0\cmsis_liteos2.c ****             return osOK;
 185:C:/Users/lenovo/Desktop/liteos/Project2/BearPi_LiteOS/osdepends/liteos/cmsis/2.0\cmsis_liteos2.c ****         }
 186:C:/Users/lenovo/Desktop/liteos/Project2/BearPi_LiteOS/osdepends/liteos/cmsis/2.0\cmsis_liteos2.c ****         else
 187:C:/Users/lenovo/Desktop/liteos/Project2/BearPi_LiteOS/osdepends/liteos/cmsis/2.0\cmsis_liteos2.c ****         {
 188:C:/Users/lenovo/Desktop/liteos/Project2/BearPi_LiteOS/osdepends/liteos/cmsis/2.0\cmsis_liteos2.c ****             return osError;
 189:C:/Users/lenovo/Desktop/liteos/Project2/BearPi_LiteOS/osdepends/liteos/cmsis/2.0\cmsis_liteos2.c ****         }
 190:C:/Users/lenovo/Desktop/liteos/Project2/BearPi_LiteOS/osdepends/liteos/cmsis/2.0\cmsis_liteos2.c ****     }
 191:C:/Users/lenovo/Desktop/liteos/Project2/BearPi_LiteOS/osdepends/liteos/cmsis/2.0\cmsis_liteos2.c ****     else
 192:C:/Users/lenovo/Desktop/liteos/Project2/BearPi_LiteOS/osdepends/liteos/cmsis/2.0\cmsis_liteos2.c ****     {
 193:C:/Users/lenovo/Desktop/liteos/Project2/BearPi_LiteOS/osdepends/liteos/cmsis/2.0\cmsis_liteos2.c ****         return osError;
 194:C:/Users/lenovo/Desktop/liteos/Project2/BearPi_LiteOS/osdepends/liteos/cmsis/2.0\cmsis_liteos2.c ****     }
 195:C:/Users/lenovo/Desktop/liteos/Project2/BearPi_LiteOS/osdepends/liteos/cmsis/2.0\cmsis_liteos2.c **** }
 252              		.loc 1 195 0
 253 001c 08BD     		pop	{r3, pc}
 254              	.L31:
 176:C:/Users/lenovo/Desktop/liteos/Project2/BearPi_LiteOS/osdepends/liteos/cmsis/2.0\cmsis_liteos2.c ****     }
 255              		.loc 1 176 0
 256 001e 6FF00500 		mvn	r0, #5
 257 0022 FBE7     		b	.L29
 258              	.L32:
ARM GAS  c:\Users\lenovo\AppData\Local\Temp\ccnbuj3h.s 			page 9


 193:C:/Users/lenovo/Desktop/liteos/Project2/BearPi_LiteOS/osdepends/liteos/cmsis/2.0\cmsis_liteos2.c ****     }
 259              		.loc 1 193 0
 260 0024 4FF0FF30 		mov	r0, #-1
 261 0028 F8E7     		b	.L29
 262              	.L33:
 188:C:/Users/lenovo/Desktop/liteos/Project2/BearPi_LiteOS/osdepends/liteos/cmsis/2.0\cmsis_liteos2.c ****         }
 263              		.loc 1 188 0
 264 002a 4FF0FF30 		mov	r0, #-1
 265 002e F5E7     		b	.L29
 266              	.L36:
 267              		.align	2
 268              	.L35:
 269 0030 00000000 		.word	.LANCHOR0
 270              		.cfi_endproc
 271              	.LFE138:
 273              		.section	.text.osKernelLock,"ax",%progbits
 274              		.align	1
 275              		.global	osKernelLock
 276              		.syntax unified
 277              		.thumb
 278              		.thumb_func
 279              		.fpu fpv4-sp-d16
 281              	osKernelLock:
 282              	.LFB139:
 196:C:/Users/lenovo/Desktop/liteos/Project2/BearPi_LiteOS/osdepends/liteos/cmsis/2.0\cmsis_liteos2.c **** 
 197:C:/Users/lenovo/Desktop/liteos/Project2/BearPi_LiteOS/osdepends/liteos/cmsis/2.0\cmsis_liteos2.c **** 
 198:C:/Users/lenovo/Desktop/liteos/Project2/BearPi_LiteOS/osdepends/liteos/cmsis/2.0\cmsis_liteos2.c **** int32_t osKernelLock (void)
 199:C:/Users/lenovo/Desktop/liteos/Project2/BearPi_LiteOS/osdepends/liteos/cmsis/2.0\cmsis_liteos2.c **** {
 283              		.loc 1 199 0
 284              		.cfi_startproc
 285              		@ args = 0, pretend = 0, frame = 0
 286              		@ frame_needed = 0, uses_anonymous_args = 0
 287 0000 08B5     		push	{r3, lr}
 288              	.LCFI4:
 289              		.cfi_def_cfa_offset 8
 290              		.cfi_offset 3, -8
 291              		.cfi_offset 14, -4
 200:C:/Users/lenovo/Desktop/liteos/Project2/BearPi_LiteOS/osdepends/liteos/cmsis/2.0\cmsis_liteos2.c ****     int32_t lock;
 201:C:/Users/lenovo/Desktop/liteos/Project2/BearPi_LiteOS/osdepends/liteos/cmsis/2.0\cmsis_liteos2.c **** 
 202:C:/Users/lenovo/Desktop/liteos/Project2/BearPi_LiteOS/osdepends/liteos/cmsis/2.0\cmsis_liteos2.c ****     if(OS_INT_ACTIVE)
 292              		.loc 1 202 0
 293 0002 FFF7FEFF 		bl	osIntNumGet
 294              	.LVL10:
 295 0006 58B9     		cbnz	r0, .L39
 203:C:/Users/lenovo/Desktop/liteos/Project2/BearPi_LiteOS/osdepends/liteos/cmsis/2.0\cmsis_liteos2.c ****     {
 204:C:/Users/lenovo/Desktop/liteos/Project2/BearPi_LiteOS/osdepends/liteos/cmsis/2.0\cmsis_liteos2.c ****         return (int32_t)osErrorISR;
 205:C:/Users/lenovo/Desktop/liteos/Project2/BearPi_LiteOS/osdepends/liteos/cmsis/2.0\cmsis_liteos2.c ****     }
 206:C:/Users/lenovo/Desktop/liteos/Project2/BearPi_LiteOS/osdepends/liteos/cmsis/2.0\cmsis_liteos2.c **** 
 207:C:/Users/lenovo/Desktop/liteos/Project2/BearPi_LiteOS/osdepends/liteos/cmsis/2.0\cmsis_liteos2.c ****     if(!g_bTaskScheduled)
 296              		.loc 1 207 0
 297 0008 084B     		ldr	r3, .L44
 298 000a 1B68     		ldr	r3, [r3]
 299 000c 5BB1     		cbz	r3, .L40
 208:C:/Users/lenovo/Desktop/liteos/Project2/BearPi_LiteOS/osdepends/liteos/cmsis/2.0\cmsis_liteos2.c ****     {
 209:C:/Users/lenovo/Desktop/liteos/Project2/BearPi_LiteOS/osdepends/liteos/cmsis/2.0\cmsis_liteos2.c ****         return (int32_t)osError;
 210:C:/Users/lenovo/Desktop/liteos/Project2/BearPi_LiteOS/osdepends/liteos/cmsis/2.0\cmsis_liteos2.c ****     }
 211:C:/Users/lenovo/Desktop/liteos/Project2/BearPi_LiteOS/osdepends/liteos/cmsis/2.0\cmsis_liteos2.c **** 
ARM GAS  c:\Users\lenovo\AppData\Local\Temp\ccnbuj3h.s 			page 10


 212:C:/Users/lenovo/Desktop/liteos/Project2/BearPi_LiteOS/osdepends/liteos/cmsis/2.0\cmsis_liteos2.c ****     if(g_usLosTaskLock > 0)
 300              		.loc 1 212 0
 301 000e 084B     		ldr	r3, .L44+4
 302 0010 1B88     		ldrh	r3, [r3]
 303 0012 0BB1     		cbz	r3, .L43
 213:C:/Users/lenovo/Desktop/liteos/Project2/BearPi_LiteOS/osdepends/liteos/cmsis/2.0\cmsis_liteos2.c ****     {
 214:C:/Users/lenovo/Desktop/liteos/Project2/BearPi_LiteOS/osdepends/liteos/cmsis/2.0\cmsis_liteos2.c ****         lock = 1;
 304              		.loc 1 214 0
 305 0014 0120     		movs	r0, #1
 306              	.L37:
 215:C:/Users/lenovo/Desktop/liteos/Project2/BearPi_LiteOS/osdepends/liteos/cmsis/2.0\cmsis_liteos2.c ****     }
 216:C:/Users/lenovo/Desktop/liteos/Project2/BearPi_LiteOS/osdepends/liteos/cmsis/2.0\cmsis_liteos2.c ****     else
 217:C:/Users/lenovo/Desktop/liteos/Project2/BearPi_LiteOS/osdepends/liteos/cmsis/2.0\cmsis_liteos2.c ****     {
 218:C:/Users/lenovo/Desktop/liteos/Project2/BearPi_LiteOS/osdepends/liteos/cmsis/2.0\cmsis_liteos2.c ****         LOS_TaskLock();
 219:C:/Users/lenovo/Desktop/liteos/Project2/BearPi_LiteOS/osdepends/liteos/cmsis/2.0\cmsis_liteos2.c ****         lock = 0;
 220:C:/Users/lenovo/Desktop/liteos/Project2/BearPi_LiteOS/osdepends/liteos/cmsis/2.0\cmsis_liteos2.c ****     }
 221:C:/Users/lenovo/Desktop/liteos/Project2/BearPi_LiteOS/osdepends/liteos/cmsis/2.0\cmsis_liteos2.c **** 
 222:C:/Users/lenovo/Desktop/liteos/Project2/BearPi_LiteOS/osdepends/liteos/cmsis/2.0\cmsis_liteos2.c ****     return lock;
 223:C:/Users/lenovo/Desktop/liteos/Project2/BearPi_LiteOS/osdepends/liteos/cmsis/2.0\cmsis_liteos2.c **** }
 307              		.loc 1 223 0
 308 0016 08BD     		pop	{r3, pc}
 309              	.L43:
 218:C:/Users/lenovo/Desktop/liteos/Project2/BearPi_LiteOS/osdepends/liteos/cmsis/2.0\cmsis_liteos2.c ****         lock = 0;
 310              		.loc 1 218 0
 311 0018 FFF7FEFF 		bl	LOS_TaskLock
 312              	.LVL11:
 219:C:/Users/lenovo/Desktop/liteos/Project2/BearPi_LiteOS/osdepends/liteos/cmsis/2.0\cmsis_liteos2.c ****     }
 313              		.loc 1 219 0
 314 001c 0020     		movs	r0, #0
 315 001e FAE7     		b	.L37
 316              	.LVL12:
 317              	.L39:
 204:C:/Users/lenovo/Desktop/liteos/Project2/BearPi_LiteOS/osdepends/liteos/cmsis/2.0\cmsis_liteos2.c ****     }
 318              		.loc 1 204 0
 319 0020 6FF00500 		mvn	r0, #5
 320 0024 F7E7     		b	.L37
 321              	.L40:
 209:C:/Users/lenovo/Desktop/liteos/Project2/BearPi_LiteOS/osdepends/liteos/cmsis/2.0\cmsis_liteos2.c ****     }
 322              		.loc 1 209 0
 323 0026 4FF0FF30 		mov	r0, #-1
 324 002a F4E7     		b	.L37
 325              	.L45:
 326              		.align	2
 327              	.L44:
 328 002c 00000000 		.word	g_bTaskScheduled
 329 0030 00000000 		.word	g_usLosTaskLock
 330              		.cfi_endproc
 331              	.LFE139:
 333              		.section	.text.osKernelUnlock,"ax",%progbits
 334              		.align	1
 335              		.global	osKernelUnlock
 336              		.syntax unified
 337              		.thumb
 338              		.thumb_func
 339              		.fpu fpv4-sp-d16
 341              	osKernelUnlock:
 342              	.LFB140:
ARM GAS  c:\Users\lenovo\AppData\Local\Temp\ccnbuj3h.s 			page 11


 224:C:/Users/lenovo/Desktop/liteos/Project2/BearPi_LiteOS/osdepends/liteos/cmsis/2.0\cmsis_liteos2.c **** 
 225:C:/Users/lenovo/Desktop/liteos/Project2/BearPi_LiteOS/osdepends/liteos/cmsis/2.0\cmsis_liteos2.c **** 
 226:C:/Users/lenovo/Desktop/liteos/Project2/BearPi_LiteOS/osdepends/liteos/cmsis/2.0\cmsis_liteos2.c **** int32_t osKernelUnlock (void)
 227:C:/Users/lenovo/Desktop/liteos/Project2/BearPi_LiteOS/osdepends/liteos/cmsis/2.0\cmsis_liteos2.c **** {
 343              		.loc 1 227 0
 344              		.cfi_startproc
 345              		@ args = 0, pretend = 0, frame = 0
 346              		@ frame_needed = 0, uses_anonymous_args = 0
 347 0000 08B5     		push	{r3, lr}
 348              	.LCFI5:
 349              		.cfi_def_cfa_offset 8
 350              		.cfi_offset 3, -8
 351              		.cfi_offset 14, -4
 228:C:/Users/lenovo/Desktop/liteos/Project2/BearPi_LiteOS/osdepends/liteos/cmsis/2.0\cmsis_liteos2.c ****     int32_t lock;
 229:C:/Users/lenovo/Desktop/liteos/Project2/BearPi_LiteOS/osdepends/liteos/cmsis/2.0\cmsis_liteos2.c **** 
 230:C:/Users/lenovo/Desktop/liteos/Project2/BearPi_LiteOS/osdepends/liteos/cmsis/2.0\cmsis_liteos2.c ****     if(OS_INT_ACTIVE)
 352              		.loc 1 230 0
 353 0002 FFF7FEFF 		bl	osIntNumGet
 354              	.LVL13:
 355 0006 88B9     		cbnz	r0, .L48
 231:C:/Users/lenovo/Desktop/liteos/Project2/BearPi_LiteOS/osdepends/liteos/cmsis/2.0\cmsis_liteos2.c ****     {
 232:C:/Users/lenovo/Desktop/liteos/Project2/BearPi_LiteOS/osdepends/liteos/cmsis/2.0\cmsis_liteos2.c ****         return (int32_t)osErrorISR;
 233:C:/Users/lenovo/Desktop/liteos/Project2/BearPi_LiteOS/osdepends/liteos/cmsis/2.0\cmsis_liteos2.c ****     }
 234:C:/Users/lenovo/Desktop/liteos/Project2/BearPi_LiteOS/osdepends/liteos/cmsis/2.0\cmsis_liteos2.c **** 
 235:C:/Users/lenovo/Desktop/liteos/Project2/BearPi_LiteOS/osdepends/liteos/cmsis/2.0\cmsis_liteos2.c ****     if(!g_bTaskScheduled)
 356              		.loc 1 235 0
 357 0008 0B4B     		ldr	r3, .L55
 358 000a 1B68     		ldr	r3, [r3]
 359 000c 8BB1     		cbz	r3, .L49
 236:C:/Users/lenovo/Desktop/liteos/Project2/BearPi_LiteOS/osdepends/liteos/cmsis/2.0\cmsis_liteos2.c ****     {
 237:C:/Users/lenovo/Desktop/liteos/Project2/BearPi_LiteOS/osdepends/liteos/cmsis/2.0\cmsis_liteos2.c ****         return (int32_t)osError;
 238:C:/Users/lenovo/Desktop/liteos/Project2/BearPi_LiteOS/osdepends/liteos/cmsis/2.0\cmsis_liteos2.c ****     }
 239:C:/Users/lenovo/Desktop/liteos/Project2/BearPi_LiteOS/osdepends/liteos/cmsis/2.0\cmsis_liteos2.c **** 
 240:C:/Users/lenovo/Desktop/liteos/Project2/BearPi_LiteOS/osdepends/liteos/cmsis/2.0\cmsis_liteos2.c ****     if(g_usLosTaskLock > 0)
 360              		.loc 1 240 0
 361 000e 0B4B     		ldr	r3, .L55+4
 362 0010 1B88     		ldrh	r3, [r3]
 363 0012 0BB9     		cbnz	r3, .L53
 241:C:/Users/lenovo/Desktop/liteos/Project2/BearPi_LiteOS/osdepends/liteos/cmsis/2.0\cmsis_liteos2.c ****     {
 242:C:/Users/lenovo/Desktop/liteos/Project2/BearPi_LiteOS/osdepends/liteos/cmsis/2.0\cmsis_liteos2.c ****         LOS_TaskUnlock();
 243:C:/Users/lenovo/Desktop/liteos/Project2/BearPi_LiteOS/osdepends/liteos/cmsis/2.0\cmsis_liteos2.c ****         if (g_usLosTaskLock != 0)
 244:C:/Users/lenovo/Desktop/liteos/Project2/BearPi_LiteOS/osdepends/liteos/cmsis/2.0\cmsis_liteos2.c ****         {
 245:C:/Users/lenovo/Desktop/liteos/Project2/BearPi_LiteOS/osdepends/liteos/cmsis/2.0\cmsis_liteos2.c ****             return (int32_t)osError;
 246:C:/Users/lenovo/Desktop/liteos/Project2/BearPi_LiteOS/osdepends/liteos/cmsis/2.0\cmsis_liteos2.c ****         }
 247:C:/Users/lenovo/Desktop/liteos/Project2/BearPi_LiteOS/osdepends/liteos/cmsis/2.0\cmsis_liteos2.c ****         lock = 1;
 248:C:/Users/lenovo/Desktop/liteos/Project2/BearPi_LiteOS/osdepends/liteos/cmsis/2.0\cmsis_liteos2.c ****     }
 249:C:/Users/lenovo/Desktop/liteos/Project2/BearPi_LiteOS/osdepends/liteos/cmsis/2.0\cmsis_liteos2.c ****     else
 250:C:/Users/lenovo/Desktop/liteos/Project2/BearPi_LiteOS/osdepends/liteos/cmsis/2.0\cmsis_liteos2.c ****     {
 251:C:/Users/lenovo/Desktop/liteos/Project2/BearPi_LiteOS/osdepends/liteos/cmsis/2.0\cmsis_liteos2.c ****         lock = 0;
 364              		.loc 1 251 0
 365 0014 0020     		movs	r0, #0
 366              	.L46:
 252:C:/Users/lenovo/Desktop/liteos/Project2/BearPi_LiteOS/osdepends/liteos/cmsis/2.0\cmsis_liteos2.c ****     }
 253:C:/Users/lenovo/Desktop/liteos/Project2/BearPi_LiteOS/osdepends/liteos/cmsis/2.0\cmsis_liteos2.c **** 
 254:C:/Users/lenovo/Desktop/liteos/Project2/BearPi_LiteOS/osdepends/liteos/cmsis/2.0\cmsis_liteos2.c ****     return lock;
 255:C:/Users/lenovo/Desktop/liteos/Project2/BearPi_LiteOS/osdepends/liteos/cmsis/2.0\cmsis_liteos2.c **** }
 367              		.loc 1 255 0
ARM GAS  c:\Users\lenovo\AppData\Local\Temp\ccnbuj3h.s 			page 12


 368 0016 08BD     		pop	{r3, pc}
 369              	.L53:
 242:C:/Users/lenovo/Desktop/liteos/Project2/BearPi_LiteOS/osdepends/liteos/cmsis/2.0\cmsis_liteos2.c ****         if (g_usLosTaskLock != 0)
 370              		.loc 1 242 0
 371 0018 FFF7FEFF 		bl	LOS_TaskUnlock
 372              	.LVL14:
 243:C:/Users/lenovo/Desktop/liteos/Project2/BearPi_LiteOS/osdepends/liteos/cmsis/2.0\cmsis_liteos2.c ****         {
 373              		.loc 1 243 0
 374 001c 074B     		ldr	r3, .L55+4
 375 001e 1B88     		ldrh	r3, [r3]
 376 0020 0BB9     		cbnz	r3, .L54
 247:C:/Users/lenovo/Desktop/liteos/Project2/BearPi_LiteOS/osdepends/liteos/cmsis/2.0\cmsis_liteos2.c ****     }
 377              		.loc 1 247 0
 378 0022 0120     		movs	r0, #1
 379 0024 F7E7     		b	.L46
 380              	.L54:
 245:C:/Users/lenovo/Desktop/liteos/Project2/BearPi_LiteOS/osdepends/liteos/cmsis/2.0\cmsis_liteos2.c ****         }
 381              		.loc 1 245 0
 382 0026 4FF0FF30 		mov	r0, #-1
 383 002a F4E7     		b	.L46
 384              	.L48:
 232:C:/Users/lenovo/Desktop/liteos/Project2/BearPi_LiteOS/osdepends/liteos/cmsis/2.0\cmsis_liteos2.c ****     }
 385              		.loc 1 232 0
 386 002c 6FF00500 		mvn	r0, #5
 387 0030 F1E7     		b	.L46
 388              	.L49:
 237:C:/Users/lenovo/Desktop/liteos/Project2/BearPi_LiteOS/osdepends/liteos/cmsis/2.0\cmsis_liteos2.c ****     }
 389              		.loc 1 237 0
 390 0032 4FF0FF30 		mov	r0, #-1
 391 0036 EEE7     		b	.L46
 392              	.L56:
 393              		.align	2
 394              	.L55:
 395 0038 00000000 		.word	g_bTaskScheduled
 396 003c 00000000 		.word	g_usLosTaskLock
 397              		.cfi_endproc
 398              	.LFE140:
 400              		.section	.text.osKernelRestoreLock,"ax",%progbits
 401              		.align	1
 402              		.global	osKernelRestoreLock
 403              		.syntax unified
 404              		.thumb
 405              		.thumb_func
 406              		.fpu fpv4-sp-d16
 408              	osKernelRestoreLock:
 409              	.LFB141:
 256:C:/Users/lenovo/Desktop/liteos/Project2/BearPi_LiteOS/osdepends/liteos/cmsis/2.0\cmsis_liteos2.c **** 
 257:C:/Users/lenovo/Desktop/liteos/Project2/BearPi_LiteOS/osdepends/liteos/cmsis/2.0\cmsis_liteos2.c **** 
 258:C:/Users/lenovo/Desktop/liteos/Project2/BearPi_LiteOS/osdepends/liteos/cmsis/2.0\cmsis_liteos2.c **** int32_t osKernelRestoreLock (int32_t lock)
 259:C:/Users/lenovo/Desktop/liteos/Project2/BearPi_LiteOS/osdepends/liteos/cmsis/2.0\cmsis_liteos2.c **** {
 410              		.loc 1 259 0
 411              		.cfi_startproc
 412              		@ args = 0, pretend = 0, frame = 0
 413              		@ frame_needed = 0, uses_anonymous_args = 0
 414              	.LVL15:
 415 0000 10B5     		push	{r4, lr}
 416              	.LCFI6:
ARM GAS  c:\Users\lenovo\AppData\Local\Temp\ccnbuj3h.s 			page 13


 417              		.cfi_def_cfa_offset 8
 418              		.cfi_offset 4, -8
 419              		.cfi_offset 14, -4
 420 0002 0446     		mov	r4, r0
 260:C:/Users/lenovo/Desktop/liteos/Project2/BearPi_LiteOS/osdepends/liteos/cmsis/2.0\cmsis_liteos2.c ****     if(OS_INT_ACTIVE)
 421              		.loc 1 260 0
 422 0004 FFF7FEFF 		bl	osIntNumGet
 423              	.LVL16:
 424 0008 98B9     		cbnz	r0, .L61
 261:C:/Users/lenovo/Desktop/liteos/Project2/BearPi_LiteOS/osdepends/liteos/cmsis/2.0\cmsis_liteos2.c ****     {
 262:C:/Users/lenovo/Desktop/liteos/Project2/BearPi_LiteOS/osdepends/liteos/cmsis/2.0\cmsis_liteos2.c ****         return (int32_t)osErrorISR;
 263:C:/Users/lenovo/Desktop/liteos/Project2/BearPi_LiteOS/osdepends/liteos/cmsis/2.0\cmsis_liteos2.c ****     }
 264:C:/Users/lenovo/Desktop/liteos/Project2/BearPi_LiteOS/osdepends/liteos/cmsis/2.0\cmsis_liteos2.c **** 
 265:C:/Users/lenovo/Desktop/liteos/Project2/BearPi_LiteOS/osdepends/liteos/cmsis/2.0\cmsis_liteos2.c ****     if(!g_bTaskScheduled)
 425              		.loc 1 265 0
 426 000a 0E4B     		ldr	r3, .L67
 427 000c 1B68     		ldr	r3, [r3]
 428 000e 9BB1     		cbz	r3, .L62
 266:C:/Users/lenovo/Desktop/liteos/Project2/BearPi_LiteOS/osdepends/liteos/cmsis/2.0\cmsis_liteos2.c ****     {
 267:C:/Users/lenovo/Desktop/liteos/Project2/BearPi_LiteOS/osdepends/liteos/cmsis/2.0\cmsis_liteos2.c ****         return (int32_t)osError;
 268:C:/Users/lenovo/Desktop/liteos/Project2/BearPi_LiteOS/osdepends/liteos/cmsis/2.0\cmsis_liteos2.c ****     }
 269:C:/Users/lenovo/Desktop/liteos/Project2/BearPi_LiteOS/osdepends/liteos/cmsis/2.0\cmsis_liteos2.c **** 
 270:C:/Users/lenovo/Desktop/liteos/Project2/BearPi_LiteOS/osdepends/liteos/cmsis/2.0\cmsis_liteos2.c ****     switch (lock)
 429              		.loc 1 270 0
 430 0010 24B1     		cbz	r4, .L59
 431 0012 012C     		cmp	r4, #1
 432 0014 09D0     		beq	.L60
 271:C:/Users/lenovo/Desktop/liteos/Project2/BearPi_LiteOS/osdepends/liteos/cmsis/2.0\cmsis_liteos2.c ****     {
 272:C:/Users/lenovo/Desktop/liteos/Project2/BearPi_LiteOS/osdepends/liteos/cmsis/2.0\cmsis_liteos2.c ****     case 0:
 273:C:/Users/lenovo/Desktop/liteos/Project2/BearPi_LiteOS/osdepends/liteos/cmsis/2.0\cmsis_liteos2.c ****         LOS_TaskUnlock();
 274:C:/Users/lenovo/Desktop/liteos/Project2/BearPi_LiteOS/osdepends/liteos/cmsis/2.0\cmsis_liteos2.c ****         if (g_usLosTaskLock != 0)
 275:C:/Users/lenovo/Desktop/liteos/Project2/BearPi_LiteOS/osdepends/liteos/cmsis/2.0\cmsis_liteos2.c ****         {
 276:C:/Users/lenovo/Desktop/liteos/Project2/BearPi_LiteOS/osdepends/liteos/cmsis/2.0\cmsis_liteos2.c ****             break;
 277:C:/Users/lenovo/Desktop/liteos/Project2/BearPi_LiteOS/osdepends/liteos/cmsis/2.0\cmsis_liteos2.c ****         }
 278:C:/Users/lenovo/Desktop/liteos/Project2/BearPi_LiteOS/osdepends/liteos/cmsis/2.0\cmsis_liteos2.c ****         return 0;
 279:C:/Users/lenovo/Desktop/liteos/Project2/BearPi_LiteOS/osdepends/liteos/cmsis/2.0\cmsis_liteos2.c ****     case 1:
 280:C:/Users/lenovo/Desktop/liteos/Project2/BearPi_LiteOS/osdepends/liteos/cmsis/2.0\cmsis_liteos2.c ****         LOS_TaskLock();
 281:C:/Users/lenovo/Desktop/liteos/Project2/BearPi_LiteOS/osdepends/liteos/cmsis/2.0\cmsis_liteos2.c ****         return 1;
 282:C:/Users/lenovo/Desktop/liteos/Project2/BearPi_LiteOS/osdepends/liteos/cmsis/2.0\cmsis_liteos2.c ****     default:
 283:C:/Users/lenovo/Desktop/liteos/Project2/BearPi_LiteOS/osdepends/liteos/cmsis/2.0\cmsis_liteos2.c ****         break;
 284:C:/Users/lenovo/Desktop/liteos/Project2/BearPi_LiteOS/osdepends/liteos/cmsis/2.0\cmsis_liteos2.c ****     }
 285:C:/Users/lenovo/Desktop/liteos/Project2/BearPi_LiteOS/osdepends/liteos/cmsis/2.0\cmsis_liteos2.c **** 
 286:C:/Users/lenovo/Desktop/liteos/Project2/BearPi_LiteOS/osdepends/liteos/cmsis/2.0\cmsis_liteos2.c ****     return (int32_t)osError;
 433              		.loc 1 286 0
 434 0016 4FF0FF30 		mov	r0, #-1
 435 001a 09E0     		b	.L57
 436              	.L59:
 273:C:/Users/lenovo/Desktop/liteos/Project2/BearPi_LiteOS/osdepends/liteos/cmsis/2.0\cmsis_liteos2.c ****         if (g_usLosTaskLock != 0)
 437              		.loc 1 273 0
 438 001c FFF7FEFF 		bl	LOS_TaskUnlock
 439              	.LVL17:
 274:C:/Users/lenovo/Desktop/liteos/Project2/BearPi_LiteOS/osdepends/liteos/cmsis/2.0\cmsis_liteos2.c ****         {
 440              		.loc 1 274 0
 441 0020 094B     		ldr	r3, .L67+4
 442 0022 1B88     		ldrh	r3, [r3]
 443 0024 5BB9     		cbnz	r3, .L64
 278:C:/Users/lenovo/Desktop/liteos/Project2/BearPi_LiteOS/osdepends/liteos/cmsis/2.0\cmsis_liteos2.c ****     case 1:
ARM GAS  c:\Users\lenovo\AppData\Local\Temp\ccnbuj3h.s 			page 14


 444              		.loc 1 278 0
 445 0026 2046     		mov	r0, r4
 446 0028 02E0     		b	.L57
 447              	.L60:
 280:C:/Users/lenovo/Desktop/liteos/Project2/BearPi_LiteOS/osdepends/liteos/cmsis/2.0\cmsis_liteos2.c ****         return 1;
 448              		.loc 1 280 0
 449 002a FFF7FEFF 		bl	LOS_TaskLock
 450              	.LVL18:
 281:C:/Users/lenovo/Desktop/liteos/Project2/BearPi_LiteOS/osdepends/liteos/cmsis/2.0\cmsis_liteos2.c ****     default:
 451              		.loc 1 281 0
 452 002e 2046     		mov	r0, r4
 453              	.L57:
 287:C:/Users/lenovo/Desktop/liteos/Project2/BearPi_LiteOS/osdepends/liteos/cmsis/2.0\cmsis_liteos2.c **** 
 288:C:/Users/lenovo/Desktop/liteos/Project2/BearPi_LiteOS/osdepends/liteos/cmsis/2.0\cmsis_liteos2.c **** }
 454              		.loc 1 288 0
 455 0030 10BD     		pop	{r4, pc}
 456              	.LVL19:
 457              	.L61:
 262:C:/Users/lenovo/Desktop/liteos/Project2/BearPi_LiteOS/osdepends/liteos/cmsis/2.0\cmsis_liteos2.c ****     }
 458              		.loc 1 262 0
 459 0032 6FF00500 		mvn	r0, #5
 460 0036 FBE7     		b	.L57
 461              	.L62:
 267:C:/Users/lenovo/Desktop/liteos/Project2/BearPi_LiteOS/osdepends/liteos/cmsis/2.0\cmsis_liteos2.c ****     }
 462              		.loc 1 267 0
 463 0038 4FF0FF30 		mov	r0, #-1
 464 003c F8E7     		b	.L57
 465              	.L64:
 286:C:/Users/lenovo/Desktop/liteos/Project2/BearPi_LiteOS/osdepends/liteos/cmsis/2.0\cmsis_liteos2.c **** 
 466              		.loc 1 286 0
 467 003e 4FF0FF30 		mov	r0, #-1
 468 0042 F5E7     		b	.L57
 469              	.L68:
 470              		.align	2
 471              	.L67:
 472 0044 00000000 		.word	g_bTaskScheduled
 473 0048 00000000 		.word	g_usLosTaskLock
 474              		.cfi_endproc
 475              	.LFE141:
 477              		.section	.text.osKernelGetTickCount,"ax",%progbits
 478              		.align	1
 479              		.global	osKernelGetTickCount
 480              		.syntax unified
 481              		.thumb
 482              		.thumb_func
 483              		.fpu fpv4-sp-d16
 485              	osKernelGetTickCount:
 486              	.LFB142:
 289:C:/Users/lenovo/Desktop/liteos/Project2/BearPi_LiteOS/osdepends/liteos/cmsis/2.0\cmsis_liteos2.c **** 
 290:C:/Users/lenovo/Desktop/liteos/Project2/BearPi_LiteOS/osdepends/liteos/cmsis/2.0\cmsis_liteos2.c **** 
 291:C:/Users/lenovo/Desktop/liteos/Project2/BearPi_LiteOS/osdepends/liteos/cmsis/2.0\cmsis_liteos2.c **** uint64_t osKernelGetTickCount (void)
 292:C:/Users/lenovo/Desktop/liteos/Project2/BearPi_LiteOS/osdepends/liteos/cmsis/2.0\cmsis_liteos2.c **** {
 487              		.loc 1 292 0
 488              		.cfi_startproc
 489              		@ args = 0, pretend = 0, frame = 0
 490              		@ frame_needed = 0, uses_anonymous_args = 0
 491 0000 38B5     		push	{r3, r4, r5, lr}
ARM GAS  c:\Users\lenovo\AppData\Local\Temp\ccnbuj3h.s 			page 15


 492              	.LCFI7:
 493              		.cfi_def_cfa_offset 16
 494              		.cfi_offset 3, -16
 495              		.cfi_offset 4, -12
 496              		.cfi_offset 5, -8
 497              		.cfi_offset 14, -4
 293:C:/Users/lenovo/Desktop/liteos/Project2/BearPi_LiteOS/osdepends/liteos/cmsis/2.0\cmsis_liteos2.c ****     uint64_t ticks;
 294:C:/Users/lenovo/Desktop/liteos/Project2/BearPi_LiteOS/osdepends/liteos/cmsis/2.0\cmsis_liteos2.c ****     UINTPTR uvIntSave;
 295:C:/Users/lenovo/Desktop/liteos/Project2/BearPi_LiteOS/osdepends/liteos/cmsis/2.0\cmsis_liteos2.c **** 
 296:C:/Users/lenovo/Desktop/liteos/Project2/BearPi_LiteOS/osdepends/liteos/cmsis/2.0\cmsis_liteos2.c ****     if(OS_INT_ACTIVE)
 498              		.loc 1 296 0
 499 0002 FFF7FEFF 		bl	osIntNumGet
 500              	.LVL20:
 501 0006 20B1     		cbz	r0, .L73
 297:C:/Users/lenovo/Desktop/liteos/Project2/BearPi_LiteOS/osdepends/liteos/cmsis/2.0\cmsis_liteos2.c ****     {
 298:C:/Users/lenovo/Desktop/liteos/Project2/BearPi_LiteOS/osdepends/liteos/cmsis/2.0\cmsis_liteos2.c ****         ticks = 0U;
 502              		.loc 1 298 0
 503 0008 0024     		movs	r4, #0
 504 000a 0025     		movs	r5, #0
 505              	.LVL21:
 506              	.L69:
 299:C:/Users/lenovo/Desktop/liteos/Project2/BearPi_LiteOS/osdepends/liteos/cmsis/2.0\cmsis_liteos2.c ****     }
 300:C:/Users/lenovo/Desktop/liteos/Project2/BearPi_LiteOS/osdepends/liteos/cmsis/2.0\cmsis_liteos2.c ****     else
 301:C:/Users/lenovo/Desktop/liteos/Project2/BearPi_LiteOS/osdepends/liteos/cmsis/2.0\cmsis_liteos2.c ****     {
 302:C:/Users/lenovo/Desktop/liteos/Project2/BearPi_LiteOS/osdepends/liteos/cmsis/2.0\cmsis_liteos2.c ****         uvIntSave = LOS_IntLock();
 303:C:/Users/lenovo/Desktop/liteos/Project2/BearPi_LiteOS/osdepends/liteos/cmsis/2.0\cmsis_liteos2.c ****         ticks = g_ullTickCount;
 304:C:/Users/lenovo/Desktop/liteos/Project2/BearPi_LiteOS/osdepends/liteos/cmsis/2.0\cmsis_liteos2.c ****         LOS_IntRestore(uvIntSave);
 305:C:/Users/lenovo/Desktop/liteos/Project2/BearPi_LiteOS/osdepends/liteos/cmsis/2.0\cmsis_liteos2.c ****     }
 306:C:/Users/lenovo/Desktop/liteos/Project2/BearPi_LiteOS/osdepends/liteos/cmsis/2.0\cmsis_liteos2.c **** 
 307:C:/Users/lenovo/Desktop/liteos/Project2/BearPi_LiteOS/osdepends/liteos/cmsis/2.0\cmsis_liteos2.c ****     return ticks;
 308:C:/Users/lenovo/Desktop/liteos/Project2/BearPi_LiteOS/osdepends/liteos/cmsis/2.0\cmsis_liteos2.c **** }
 507              		.loc 1 308 0
 508 000c 2046     		mov	r0, r4
 509 000e 2946     		mov	r1, r5
 510 0010 38BD     		pop	{r3, r4, r5, pc}
 511              	.L73:
 302:C:/Users/lenovo/Desktop/liteos/Project2/BearPi_LiteOS/osdepends/liteos/cmsis/2.0\cmsis_liteos2.c ****         ticks = g_ullTickCount;
 512              		.loc 1 302 0
 513 0012 FFF7FEFF 		bl	LOS_IntLock
 514              	.LVL22:
 303:C:/Users/lenovo/Desktop/liteos/Project2/BearPi_LiteOS/osdepends/liteos/cmsis/2.0\cmsis_liteos2.c ****         LOS_IntRestore(uvIntSave);
 515              		.loc 1 303 0
 516 0016 034B     		ldr	r3, .L74
 517 0018 D3E90045 		ldrd	r4, [r3]
 518              	.LVL23:
 304:C:/Users/lenovo/Desktop/liteos/Project2/BearPi_LiteOS/osdepends/liteos/cmsis/2.0\cmsis_liteos2.c ****     }
 519              		.loc 1 304 0
 520 001c FFF7FEFF 		bl	LOS_IntRestore
 521              	.LVL24:
 522 0020 F4E7     		b	.L69
 523              	.L75:
 524 0022 00BF     		.align	2
 525              	.L74:
 526 0024 00000000 		.word	g_ullTickCount
 527              		.cfi_endproc
 528              	.LFE142:
 530              		.section	.text.osKernelGetTick2ms,"ax",%progbits
ARM GAS  c:\Users\lenovo\AppData\Local\Temp\ccnbuj3h.s 			page 16


 531              		.align	1
 532              		.global	osKernelGetTick2ms
 533              		.syntax unified
 534              		.thumb
 535              		.thumb_func
 536              		.fpu fpv4-sp-d16
 538              	osKernelGetTick2ms:
 539              	.LFB143:
 309:C:/Users/lenovo/Desktop/liteos/Project2/BearPi_LiteOS/osdepends/liteos/cmsis/2.0\cmsis_liteos2.c **** 
 310:C:/Users/lenovo/Desktop/liteos/Project2/BearPi_LiteOS/osdepends/liteos/cmsis/2.0\cmsis_liteos2.c **** 
 311:C:/Users/lenovo/Desktop/liteos/Project2/BearPi_LiteOS/osdepends/liteos/cmsis/2.0\cmsis_liteos2.c **** uint64_t osKernelGetTick2ms(void)
 312:C:/Users/lenovo/Desktop/liteos/Project2/BearPi_LiteOS/osdepends/liteos/cmsis/2.0\cmsis_liteos2.c **** {
 540              		.loc 1 312 0
 541              		.cfi_startproc
 542              		@ args = 0, pretend = 0, frame = 0
 543              		@ frame_needed = 0, uses_anonymous_args = 0
 544 0000 08B5     		push	{r3, lr}
 545              	.LCFI8:
 546              		.cfi_def_cfa_offset 8
 547              		.cfi_offset 3, -8
 548              		.cfi_offset 14, -4
 313:C:/Users/lenovo/Desktop/liteos/Project2/BearPi_LiteOS/osdepends/liteos/cmsis/2.0\cmsis_liteos2.c ****     return osKernelGetTickCount() * (OS_SYS_MS_PER_SECOND / LOSCFG_BASE_CORE_TICK_PER_SECOND);
 549              		.loc 1 313 0
 550 0002 FFF7FEFF 		bl	osKernelGetTickCount
 551              	.LVL25:
 314:C:/Users/lenovo/Desktop/liteos/Project2/BearPi_LiteOS/osdepends/liteos/cmsis/2.0\cmsis_liteos2.c **** }
 552              		.loc 1 314 0
 553 0006 08BD     		pop	{r3, pc}
 554              		.cfi_endproc
 555              	.LFE143:
 557              		.section	.text.osMs2Tick,"ax",%progbits
 558              		.align	1
 559              		.global	osMs2Tick
 560              		.syntax unified
 561              		.thumb
 562              		.thumb_func
 563              		.fpu fpv4-sp-d16
 565              	osMs2Tick:
 566              	.LFB144:
 315:C:/Users/lenovo/Desktop/liteos/Project2/BearPi_LiteOS/osdepends/liteos/cmsis/2.0\cmsis_liteos2.c **** 
 316:C:/Users/lenovo/Desktop/liteos/Project2/BearPi_LiteOS/osdepends/liteos/cmsis/2.0\cmsis_liteos2.c **** 
 317:C:/Users/lenovo/Desktop/liteos/Project2/BearPi_LiteOS/osdepends/liteos/cmsis/2.0\cmsis_liteos2.c **** uint64_t osMs2Tick(uint64_t ms)
 318:C:/Users/lenovo/Desktop/liteos/Project2/BearPi_LiteOS/osdepends/liteos/cmsis/2.0\cmsis_liteos2.c **** {
 567              		.loc 1 318 0
 568              		.cfi_startproc
 569              		@ args = 0, pretend = 0, frame = 0
 570              		@ frame_needed = 0, uses_anonymous_args = 0
 571              		@ link register save eliminated.
 572              	.LVL26:
 319:C:/Users/lenovo/Desktop/liteos/Project2/BearPi_LiteOS/osdepends/liteos/cmsis/2.0\cmsis_liteos2.c **** 
 320:C:/Users/lenovo/Desktop/liteos/Project2/BearPi_LiteOS/osdepends/liteos/cmsis/2.0\cmsis_liteos2.c ****     return ms * (LOSCFG_BASE_CORE_TICK_PER_SECOND / OS_SYS_MS_PER_SECOND);
 321:C:/Users/lenovo/Desktop/liteos/Project2/BearPi_LiteOS/osdepends/liteos/cmsis/2.0\cmsis_liteos2.c **** }
 573              		.loc 1 321 0
 574 0000 7047     		bx	lr
 575              		.cfi_endproc
 576              	.LFE144:
 578              		.section	.text.osKernelGetTickFreq,"ax",%progbits
ARM GAS  c:\Users\lenovo\AppData\Local\Temp\ccnbuj3h.s 			page 17


 579              		.align	1
 580              		.global	osKernelGetTickFreq
 581              		.syntax unified
 582              		.thumb
 583              		.thumb_func
 584              		.fpu fpv4-sp-d16
 586              	osKernelGetTickFreq:
 587              	.LFB145:
 322:C:/Users/lenovo/Desktop/liteos/Project2/BearPi_LiteOS/osdepends/liteos/cmsis/2.0\cmsis_liteos2.c **** 
 323:C:/Users/lenovo/Desktop/liteos/Project2/BearPi_LiteOS/osdepends/liteos/cmsis/2.0\cmsis_liteos2.c **** 
 324:C:/Users/lenovo/Desktop/liteos/Project2/BearPi_LiteOS/osdepends/liteos/cmsis/2.0\cmsis_liteos2.c **** uint32_t osKernelGetTickFreq (void)
 325:C:/Users/lenovo/Desktop/liteos/Project2/BearPi_LiteOS/osdepends/liteos/cmsis/2.0\cmsis_liteos2.c **** {
 588              		.loc 1 325 0
 589              		.cfi_startproc
 590              		@ args = 0, pretend = 0, frame = 0
 591              		@ frame_needed = 0, uses_anonymous_args = 0
 592 0000 08B5     		push	{r3, lr}
 593              	.LCFI9:
 594              		.cfi_def_cfa_offset 8
 595              		.cfi_offset 3, -8
 596              		.cfi_offset 14, -4
 326:C:/Users/lenovo/Desktop/liteos/Project2/BearPi_LiteOS/osdepends/liteos/cmsis/2.0\cmsis_liteos2.c ****     uint32_t freq;
 327:C:/Users/lenovo/Desktop/liteos/Project2/BearPi_LiteOS/osdepends/liteos/cmsis/2.0\cmsis_liteos2.c **** 
 328:C:/Users/lenovo/Desktop/liteos/Project2/BearPi_LiteOS/osdepends/liteos/cmsis/2.0\cmsis_liteos2.c ****     if (OS_INT_ACTIVE)
 597              		.loc 1 328 0
 598 0002 FFF7FEFF 		bl	osIntNumGet
 599              	.LVL27:
 600 0006 08B1     		cbz	r0, .L81
 329:C:/Users/lenovo/Desktop/liteos/Project2/BearPi_LiteOS/osdepends/liteos/cmsis/2.0\cmsis_liteos2.c ****     {
 330:C:/Users/lenovo/Desktop/liteos/Project2/BearPi_LiteOS/osdepends/liteos/cmsis/2.0\cmsis_liteos2.c ****         freq = 0U;
 601              		.loc 1 330 0
 602 0008 0020     		movs	r0, #0
 603              	.L79:
 331:C:/Users/lenovo/Desktop/liteos/Project2/BearPi_LiteOS/osdepends/liteos/cmsis/2.0\cmsis_liteos2.c ****     }
 332:C:/Users/lenovo/Desktop/liteos/Project2/BearPi_LiteOS/osdepends/liteos/cmsis/2.0\cmsis_liteos2.c ****     else
 333:C:/Users/lenovo/Desktop/liteos/Project2/BearPi_LiteOS/osdepends/liteos/cmsis/2.0\cmsis_liteos2.c ****     {
 334:C:/Users/lenovo/Desktop/liteos/Project2/BearPi_LiteOS/osdepends/liteos/cmsis/2.0\cmsis_liteos2.c ****         freq = LOSCFG_BASE_CORE_TICK_PER_SECOND;
 335:C:/Users/lenovo/Desktop/liteos/Project2/BearPi_LiteOS/osdepends/liteos/cmsis/2.0\cmsis_liteos2.c ****     }
 336:C:/Users/lenovo/Desktop/liteos/Project2/BearPi_LiteOS/osdepends/liteos/cmsis/2.0\cmsis_liteos2.c **** 
 337:C:/Users/lenovo/Desktop/liteos/Project2/BearPi_LiteOS/osdepends/liteos/cmsis/2.0\cmsis_liteos2.c ****     return (freq);
 338:C:/Users/lenovo/Desktop/liteos/Project2/BearPi_LiteOS/osdepends/liteos/cmsis/2.0\cmsis_liteos2.c **** }
 604              		.loc 1 338 0
 605 000a 08BD     		pop	{r3, pc}
 606              	.L81:
 334:C:/Users/lenovo/Desktop/liteos/Project2/BearPi_LiteOS/osdepends/liteos/cmsis/2.0\cmsis_liteos2.c ****     }
 607              		.loc 1 334 0
 608 000c 4FF47A70 		mov	r0, #1000
 609              	.LVL28:
 337:C:/Users/lenovo/Desktop/liteos/Project2/BearPi_LiteOS/osdepends/liteos/cmsis/2.0\cmsis_liteos2.c **** }
 610              		.loc 1 337 0
 611 0010 FBE7     		b	.L79
 612              		.cfi_endproc
 613              	.LFE145:
 615              		.section	.text.osKernelGetSysTimerCount,"ax",%progbits
 616              		.align	1
 617              		.global	osKernelGetSysTimerCount
 618              		.syntax unified
ARM GAS  c:\Users\lenovo\AppData\Local\Temp\ccnbuj3h.s 			page 18


 619              		.thumb
 620              		.thumb_func
 621              		.fpu fpv4-sp-d16
 623              	osKernelGetSysTimerCount:
 624              	.LFB146:
 339:C:/Users/lenovo/Desktop/liteos/Project2/BearPi_LiteOS/osdepends/liteos/cmsis/2.0\cmsis_liteos2.c **** 
 340:C:/Users/lenovo/Desktop/liteos/Project2/BearPi_LiteOS/osdepends/liteos/cmsis/2.0\cmsis_liteos2.c **** 
 341:C:/Users/lenovo/Desktop/liteos/Project2/BearPi_LiteOS/osdepends/liteos/cmsis/2.0\cmsis_liteos2.c **** uint32_t osKernelGetSysTimerCount (void)
 342:C:/Users/lenovo/Desktop/liteos/Project2/BearPi_LiteOS/osdepends/liteos/cmsis/2.0\cmsis_liteos2.c **** {
 625              		.loc 1 342 0
 626              		.cfi_startproc
 627              		@ args = 0, pretend = 0, frame = 8
 628              		@ frame_needed = 0, uses_anonymous_args = 0
 629 0000 00B5     		push	{lr}
 630              	.LCFI10:
 631              		.cfi_def_cfa_offset 4
 632              		.cfi_offset 14, -4
 633 0002 83B0     		sub	sp, sp, #12
 634              	.LCFI11:
 635              		.cfi_def_cfa_offset 16
 343:C:/Users/lenovo/Desktop/liteos/Project2/BearPi_LiteOS/osdepends/liteos/cmsis/2.0\cmsis_liteos2.c ****     uint32_t count_high = 0;
 636              		.loc 1 343 0
 637 0004 0023     		movs	r3, #0
 638 0006 0193     		str	r3, [sp, #4]
 344:C:/Users/lenovo/Desktop/liteos/Project2/BearPi_LiteOS/osdepends/liteos/cmsis/2.0\cmsis_liteos2.c ****     uint32_t count_low = 0;
 639              		.loc 1 344 0
 640 0008 0093     		str	r3, [sp]
 345:C:/Users/lenovo/Desktop/liteos/Project2/BearPi_LiteOS/osdepends/liteos/cmsis/2.0\cmsis_liteos2.c ****     if (OS_INT_ACTIVE)
 641              		.loc 1 345 0
 642 000a FFF7FEFF 		bl	osIntNumGet
 643              	.LVL29:
 644 000e 28B1     		cbz	r0, .L84
 346:C:/Users/lenovo/Desktop/liteos/Project2/BearPi_LiteOS/osdepends/liteos/cmsis/2.0\cmsis_liteos2.c ****     {
 347:C:/Users/lenovo/Desktop/liteos/Project2/BearPi_LiteOS/osdepends/liteos/cmsis/2.0\cmsis_liteos2.c ****         count_low = 0U;
 645              		.loc 1 347 0
 646 0010 0023     		movs	r3, #0
 647 0012 0093     		str	r3, [sp]
 648              	.L85:
 348:C:/Users/lenovo/Desktop/liteos/Project2/BearPi_LiteOS/osdepends/liteos/cmsis/2.0\cmsis_liteos2.c ****     }
 349:C:/Users/lenovo/Desktop/liteos/Project2/BearPi_LiteOS/osdepends/liteos/cmsis/2.0\cmsis_liteos2.c ****     else
 350:C:/Users/lenovo/Desktop/liteos/Project2/BearPi_LiteOS/osdepends/liteos/cmsis/2.0\cmsis_liteos2.c ****     {
 351:C:/Users/lenovo/Desktop/liteos/Project2/BearPi_LiteOS/osdepends/liteos/cmsis/2.0\cmsis_liteos2.c ****         LOS_GetSystickCycle((UINT32 *)&count_high, (UINT32 *)&count_low);
 352:C:/Users/lenovo/Desktop/liteos/Project2/BearPi_LiteOS/osdepends/liteos/cmsis/2.0\cmsis_liteos2.c ****     }
 353:C:/Users/lenovo/Desktop/liteos/Project2/BearPi_LiteOS/osdepends/liteos/cmsis/2.0\cmsis_liteos2.c ****     return count_low;
 354:C:/Users/lenovo/Desktop/liteos/Project2/BearPi_LiteOS/osdepends/liteos/cmsis/2.0\cmsis_liteos2.c **** }
 649              		.loc 1 354 0
 650 0014 0098     		ldr	r0, [sp]
 651 0016 03B0     		add	sp, sp, #12
 652              	.LCFI12:
 653              		.cfi_remember_state
 654              		.cfi_def_cfa_offset 4
 655              		@ sp needed
 656 0018 5DF804FB 		ldr	pc, [sp], #4
 657              	.L84:
 658              	.LCFI13:
 659              		.cfi_restore_state
 351:C:/Users/lenovo/Desktop/liteos/Project2/BearPi_LiteOS/osdepends/liteos/cmsis/2.0\cmsis_liteos2.c ****     }
ARM GAS  c:\Users\lenovo\AppData\Local\Temp\ccnbuj3h.s 			page 19


 660              		.loc 1 351 0
 661 001c 6946     		mov	r1, sp
 662 001e 01A8     		add	r0, sp, #4
 663 0020 FFF7FEFF 		bl	LOS_GetSystickCycle
 664              	.LVL30:
 665 0024 F6E7     		b	.L85
 666              		.cfi_endproc
 667              	.LFE146:
 669              		.section	.text.osKernelGetSysTimerFreq,"ax",%progbits
 670              		.align	1
 671              		.global	osKernelGetSysTimerFreq
 672              		.syntax unified
 673              		.thumb
 674              		.thumb_func
 675              		.fpu fpv4-sp-d16
 677              	osKernelGetSysTimerFreq:
 678              	.LFB147:
 355:C:/Users/lenovo/Desktop/liteos/Project2/BearPi_LiteOS/osdepends/liteos/cmsis/2.0\cmsis_liteos2.c **** 
 356:C:/Users/lenovo/Desktop/liteos/Project2/BearPi_LiteOS/osdepends/liteos/cmsis/2.0\cmsis_liteos2.c **** 
 357:C:/Users/lenovo/Desktop/liteos/Project2/BearPi_LiteOS/osdepends/liteos/cmsis/2.0\cmsis_liteos2.c **** uint32_t osKernelGetSysTimerFreq (void)
 358:C:/Users/lenovo/Desktop/liteos/Project2/BearPi_LiteOS/osdepends/liteos/cmsis/2.0\cmsis_liteos2.c **** {
 679              		.loc 1 358 0
 680              		.cfi_startproc
 681              		@ args = 0, pretend = 0, frame = 0
 682              		@ frame_needed = 0, uses_anonymous_args = 0
 683              		@ link register save eliminated.
 359:C:/Users/lenovo/Desktop/liteos/Project2/BearPi_LiteOS/osdepends/liteos/cmsis/2.0\cmsis_liteos2.c ****     return OS_SYS_CLOCK;
 360:C:/Users/lenovo/Desktop/liteos/Project2/BearPi_LiteOS/osdepends/liteos/cmsis/2.0\cmsis_liteos2.c **** }
 684              		.loc 1 360 0
 685 0000 014B     		ldr	r3, .L88
 686 0002 1868     		ldr	r0, [r3]
 687 0004 7047     		bx	lr
 688              	.L89:
 689 0006 00BF     		.align	2
 690              	.L88:
 691 0008 00000000 		.word	SystemCoreClock
 692              		.cfi_endproc
 693              	.LFE147:
 695              		.section	.text.osThreadNew,"ax",%progbits
 696              		.align	1
 697              		.global	osThreadNew
 698              		.syntax unified
 699              		.thumb
 700              		.thumb_func
 701              		.fpu fpv4-sp-d16
 703              	osThreadNew:
 704              	.LFB148:
 361:C:/Users/lenovo/Desktop/liteos/Project2/BearPi_LiteOS/osdepends/liteos/cmsis/2.0\cmsis_liteos2.c **** 
 362:C:/Users/lenovo/Desktop/liteos/Project2/BearPi_LiteOS/osdepends/liteos/cmsis/2.0\cmsis_liteos2.c **** 
 363:C:/Users/lenovo/Desktop/liteos/Project2/BearPi_LiteOS/osdepends/liteos/cmsis/2.0\cmsis_liteos2.c **** //  ==== Thread Management Functions ====
 364:C:/Users/lenovo/Desktop/liteos/Project2/BearPi_LiteOS/osdepends/liteos/cmsis/2.0\cmsis_liteos2.c **** 
 365:C:/Users/lenovo/Desktop/liteos/Project2/BearPi_LiteOS/osdepends/liteos/cmsis/2.0\cmsis_liteos2.c **** osThreadId_t osThreadNew (osThreadFunc_t func, void *argument, const osThreadAttr_t *attr)
 366:C:/Users/lenovo/Desktop/liteos/Project2/BearPi_LiteOS/osdepends/liteos/cmsis/2.0\cmsis_liteos2.c **** {
 705              		.loc 1 366 0
 706              		.cfi_startproc
 707              		@ args = 0, pretend = 0, frame = 32
 708              		@ frame_needed = 0, uses_anonymous_args = 0
ARM GAS  c:\Users\lenovo\AppData\Local\Temp\ccnbuj3h.s 			page 20


 709              	.LVL31:
 710 0000 30B5     		push	{r4, r5, lr}
 711              	.LCFI14:
 712              		.cfi_def_cfa_offset 12
 713              		.cfi_offset 4, -12
 714              		.cfi_offset 5, -8
 715              		.cfi_offset 14, -4
 716 0002 89B0     		sub	sp, sp, #36
 717              	.LCFI15:
 718              		.cfi_def_cfa_offset 48
 719 0004 0546     		mov	r5, r0
 720 0006 1446     		mov	r4, r2
 721              	.LVL32:
 367:C:/Users/lenovo/Desktop/liteos/Project2/BearPi_LiteOS/osdepends/liteos/cmsis/2.0\cmsis_liteos2.c ****     UNUSED(argument);
 368:C:/Users/lenovo/Desktop/liteos/Project2/BearPi_LiteOS/osdepends/liteos/cmsis/2.0\cmsis_liteos2.c **** 
 369:C:/Users/lenovo/Desktop/liteos/Project2/BearPi_LiteOS/osdepends/liteos/cmsis/2.0\cmsis_liteos2.c ****     UINT32 uwTid;
 370:C:/Users/lenovo/Desktop/liteos/Project2/BearPi_LiteOS/osdepends/liteos/cmsis/2.0\cmsis_liteos2.c ****     UINT32 uwRet;
 371:C:/Users/lenovo/Desktop/liteos/Project2/BearPi_LiteOS/osdepends/liteos/cmsis/2.0\cmsis_liteos2.c ****     LOS_TASK_CB *pstTaskCB = NULL;
 372:C:/Users/lenovo/Desktop/liteos/Project2/BearPi_LiteOS/osdepends/liteos/cmsis/2.0\cmsis_liteos2.c ****     TSK_INIT_PARAM_S stTskInitParam;
 373:C:/Users/lenovo/Desktop/liteos/Project2/BearPi_LiteOS/osdepends/liteos/cmsis/2.0\cmsis_liteos2.c **** 
 374:C:/Users/lenovo/Desktop/liteos/Project2/BearPi_LiteOS/osdepends/liteos/cmsis/2.0\cmsis_liteos2.c ****     if (OS_INT_ACTIVE)
 722              		.loc 1 374 0
 723 0008 FFF7FEFF 		bl	osIntNumGet
 724              	.LVL33:
 725 000c 10BB     		cbnz	r0, .L92
 375:C:/Users/lenovo/Desktop/liteos/Project2/BearPi_LiteOS/osdepends/liteos/cmsis/2.0\cmsis_liteos2.c ****     {
 376:C:/Users/lenovo/Desktop/liteos/Project2/BearPi_LiteOS/osdepends/liteos/cmsis/2.0\cmsis_liteos2.c ****         return NULL;
 377:C:/Users/lenovo/Desktop/liteos/Project2/BearPi_LiteOS/osdepends/liteos/cmsis/2.0\cmsis_liteos2.c ****     }
 378:C:/Users/lenovo/Desktop/liteos/Project2/BearPi_LiteOS/osdepends/liteos/cmsis/2.0\cmsis_liteos2.c **** 
 379:C:/Users/lenovo/Desktop/liteos/Project2/BearPi_LiteOS/osdepends/liteos/cmsis/2.0\cmsis_liteos2.c ****     if ((attr == NULL) ||
 726              		.loc 1 379 0
 727 000e 1CB3     		cbz	r4, .L93
 728              		.loc 1 379 0 is_stmt 0 discriminator 1
 729 0010 25B3     		cbz	r5, .L94
 380:C:/Users/lenovo/Desktop/liteos/Project2/BearPi_LiteOS/osdepends/liteos/cmsis/2.0\cmsis_liteos2.c ****             (func == NULL) ||
 381:C:/Users/lenovo/Desktop/liteos/Project2/BearPi_LiteOS/osdepends/liteos/cmsis/2.0\cmsis_liteos2.c ****             (attr->priority < osPriorityLow1) ||
 730              		.loc 1 381 0 is_stmt 1
 731 0012 A369     		ldr	r3, [r4, #24]
 380:C:/Users/lenovo/Desktop/liteos/Project2/BearPi_LiteOS/osdepends/liteos/cmsis/2.0\cmsis_liteos2.c ****             (func == NULL) ||
 732              		.loc 1 380 0
 733 0014 082B     		cmp	r3, #8
 734 0016 23DD     		ble	.L95
 735              		.loc 1 381 0
 736 0018 262B     		cmp	r3, #38
 737 001a 23DC     		bgt	.L96
 382:C:/Users/lenovo/Desktop/liteos/Project2/BearPi_LiteOS/osdepends/liteos/cmsis/2.0\cmsis_liteos2.c ****             (attr->priority > osPriorityAboveNormal6))
 383:C:/Users/lenovo/Desktop/liteos/Project2/BearPi_LiteOS/osdepends/liteos/cmsis/2.0\cmsis_liteos2.c ****     {
 384:C:/Users/lenovo/Desktop/liteos/Project2/BearPi_LiteOS/osdepends/liteos/cmsis/2.0\cmsis_liteos2.c ****         return (osThreadId_t)NULL;
 385:C:/Users/lenovo/Desktop/liteos/Project2/BearPi_LiteOS/osdepends/liteos/cmsis/2.0\cmsis_liteos2.c ****     }
 386:C:/Users/lenovo/Desktop/liteos/Project2/BearPi_LiteOS/osdepends/liteos/cmsis/2.0\cmsis_liteos2.c **** 
 387:C:/Users/lenovo/Desktop/liteos/Project2/BearPi_LiteOS/osdepends/liteos/cmsis/2.0\cmsis_liteos2.c ****     memset(&stTskInitParam, 0, sizeof(TSK_INIT_PARAM_S));
 738              		.loc 1 387 0
 739 001c 0022     		movs	r2, #0
 740 001e 0292     		str	r2, [sp, #8]
 741 0020 0392     		str	r2, [sp, #12]
 742 0022 0692     		str	r2, [sp, #24]
 388:C:/Users/lenovo/Desktop/liteos/Project2/BearPi_LiteOS/osdepends/liteos/cmsis/2.0\cmsis_liteos2.c ****     stTskInitParam.pfnTaskEntry = (TSK_ENTRY_FUNC)func;
ARM GAS  c:\Users\lenovo\AppData\Local\Temp\ccnbuj3h.s 			page 21


 743              		.loc 1 388 0
 744 0024 0195     		str	r5, [sp, #4]
 389:C:/Users/lenovo/Desktop/liteos/Project2/BearPi_LiteOS/osdepends/liteos/cmsis/2.0\cmsis_liteos2.c ****     stTskInitParam.uwStackSize  = attr->stack_size * 4;
 745              		.loc 1 389 0
 746 0026 6269     		ldr	r2, [r4, #20]
 747 0028 9200     		lsls	r2, r2, #2
 748 002a 0492     		str	r2, [sp, #16]
 390:C:/Users/lenovo/Desktop/liteos/Project2/BearPi_LiteOS/osdepends/liteos/cmsis/2.0\cmsis_liteos2.c ****     stTskInitParam.pcName       = (CHAR *)attr->name;
 749              		.loc 1 390 0
 750 002c 2268     		ldr	r2, [r4]
 751 002e 0592     		str	r2, [sp, #20]
 391:C:/Users/lenovo/Desktop/liteos/Project2/BearPi_LiteOS/osdepends/liteos/cmsis/2.0\cmsis_liteos2.c ****     stTskInitParam.usTaskPrio   = OS_TASK_PRIORITY_LOWEST - ((UINT16)(attr->priority) - LOS_PRIORIT
 752              		.loc 1 391 0
 753 0030 9BB2     		uxth	r3, r3
 754 0032 C3F12703 		rsb	r3, r3, #39
 755 0036 ADF80830 		strh	r3, [sp, #8]	@ movhi
 392:C:/Users/lenovo/Desktop/liteos/Project2/BearPi_LiteOS/osdepends/liteos/cmsis/2.0\cmsis_liteos2.c **** 
 393:C:/Users/lenovo/Desktop/liteos/Project2/BearPi_LiteOS/osdepends/liteos/cmsis/2.0\cmsis_liteos2.c ****     uwRet = LOS_TaskCreate(&uwTid, &stTskInitParam);
 756              		.loc 1 393 0
 757 003a 01A9     		add	r1, sp, #4
 758 003c 07A8     		add	r0, sp, #28
 759 003e FFF7FEFF 		bl	LOS_TaskCreate
 760              	.LVL34:
 394:C:/Users/lenovo/Desktop/liteos/Project2/BearPi_LiteOS/osdepends/liteos/cmsis/2.0\cmsis_liteos2.c **** 
 395:C:/Users/lenovo/Desktop/liteos/Project2/BearPi_LiteOS/osdepends/liteos/cmsis/2.0\cmsis_liteos2.c ****     if (LOS_OK != uwRet)
 761              		.loc 1 395 0
 762 0042 88B9     		cbnz	r0, .L97
 396:C:/Users/lenovo/Desktop/liteos/Project2/BearPi_LiteOS/osdepends/liteos/cmsis/2.0\cmsis_liteos2.c ****     {
 397:C:/Users/lenovo/Desktop/liteos/Project2/BearPi_LiteOS/osdepends/liteos/cmsis/2.0\cmsis_liteos2.c ****         return (osThreadId_t)NULL;
 398:C:/Users/lenovo/Desktop/liteos/Project2/BearPi_LiteOS/osdepends/liteos/cmsis/2.0\cmsis_liteos2.c ****     }
 399:C:/Users/lenovo/Desktop/liteos/Project2/BearPi_LiteOS/osdepends/liteos/cmsis/2.0\cmsis_liteos2.c **** 
 400:C:/Users/lenovo/Desktop/liteos/Project2/BearPi_LiteOS/osdepends/liteos/cmsis/2.0\cmsis_liteos2.c ****     pstTaskCB = OS_TCB_FROM_TID(uwTid);
 763              		.loc 1 400 0
 764 0044 094B     		ldr	r3, .L99
 765 0046 1B68     		ldr	r3, [r3]
 766 0048 0798     		ldr	r0, [sp, #28]
 767              	.LVL35:
 768 004a 5422     		movs	r2, #84
 769 004c 02FB0030 		mla	r0, r2, r0, r3
 770              	.LVL36:
 771              	.L90:
 401:C:/Users/lenovo/Desktop/liteos/Project2/BearPi_LiteOS/osdepends/liteos/cmsis/2.0\cmsis_liteos2.c **** 
 402:C:/Users/lenovo/Desktop/liteos/Project2/BearPi_LiteOS/osdepends/liteos/cmsis/2.0\cmsis_liteos2.c ****     return (osThreadId_t)pstTaskCB;
 403:C:/Users/lenovo/Desktop/liteos/Project2/BearPi_LiteOS/osdepends/liteos/cmsis/2.0\cmsis_liteos2.c **** }
 772              		.loc 1 403 0
 773 0050 09B0     		add	sp, sp, #36
 774              	.LCFI16:
 775              		.cfi_remember_state
 776              		.cfi_def_cfa_offset 12
 777              		@ sp needed
 778 0052 30BD     		pop	{r4, r5, pc}
 779              	.LVL37:
 780              	.L92:
 781              	.LCFI17:
 782              		.cfi_restore_state
 376:C:/Users/lenovo/Desktop/liteos/Project2/BearPi_LiteOS/osdepends/liteos/cmsis/2.0\cmsis_liteos2.c ****     }
 783              		.loc 1 376 0
ARM GAS  c:\Users\lenovo\AppData\Local\Temp\ccnbuj3h.s 			page 22


 784 0054 0020     		movs	r0, #0
 785 0056 FBE7     		b	.L90
 786              	.L93:
 384:C:/Users/lenovo/Desktop/liteos/Project2/BearPi_LiteOS/osdepends/liteos/cmsis/2.0\cmsis_liteos2.c ****     }
 787              		.loc 1 384 0
 788 0058 0020     		movs	r0, #0
 789 005a F9E7     		b	.L90
 790              	.L94:
 791 005c 0020     		movs	r0, #0
 792 005e F7E7     		b	.L90
 793              	.L95:
 794 0060 0020     		movs	r0, #0
 795 0062 F5E7     		b	.L90
 796              	.L96:
 797 0064 0020     		movs	r0, #0
 798 0066 F3E7     		b	.L90
 799              	.LVL38:
 800              	.L97:
 397:C:/Users/lenovo/Desktop/liteos/Project2/BearPi_LiteOS/osdepends/liteos/cmsis/2.0\cmsis_liteos2.c ****     }
 801              		.loc 1 397 0
 802 0068 0020     		movs	r0, #0
 803              	.LVL39:
 804 006a F1E7     		b	.L90
 805              	.L100:
 806              		.align	2
 807              	.L99:
 808 006c 00000000 		.word	g_pstTaskCBArray
 809              		.cfi_endproc
 810              	.LFE148:
 812              		.section	.text.osThreadGetName,"ax",%progbits
 813              		.align	1
 814              		.global	osThreadGetName
 815              		.syntax unified
 816              		.thumb
 817              		.thumb_func
 818              		.fpu fpv4-sp-d16
 820              	osThreadGetName:
 821              	.LFB149:
 404:C:/Users/lenovo/Desktop/liteos/Project2/BearPi_LiteOS/osdepends/liteos/cmsis/2.0\cmsis_liteos2.c **** 
 405:C:/Users/lenovo/Desktop/liteos/Project2/BearPi_LiteOS/osdepends/liteos/cmsis/2.0\cmsis_liteos2.c **** 
 406:C:/Users/lenovo/Desktop/liteos/Project2/BearPi_LiteOS/osdepends/liteos/cmsis/2.0\cmsis_liteos2.c **** const char *osThreadGetName (osThreadId_t thread_id)
 407:C:/Users/lenovo/Desktop/liteos/Project2/BearPi_LiteOS/osdepends/liteos/cmsis/2.0\cmsis_liteos2.c **** {
 822              		.loc 1 407 0
 823              		.cfi_startproc
 824              		@ args = 0, pretend = 0, frame = 0
 825              		@ frame_needed = 0, uses_anonymous_args = 0
 826              	.LVL40:
 827 0000 10B5     		push	{r4, lr}
 828              	.LCFI18:
 829              		.cfi_def_cfa_offset 8
 830              		.cfi_offset 4, -8
 831              		.cfi_offset 14, -4
 832 0002 0446     		mov	r4, r0
 833              	.LVL41:
 408:C:/Users/lenovo/Desktop/liteos/Project2/BearPi_LiteOS/osdepends/liteos/cmsis/2.0\cmsis_liteos2.c ****     LOS_TASK_CB *pstTaskCB = NULL;
 409:C:/Users/lenovo/Desktop/liteos/Project2/BearPi_LiteOS/osdepends/liteos/cmsis/2.0\cmsis_liteos2.c **** 
 410:C:/Users/lenovo/Desktop/liteos/Project2/BearPi_LiteOS/osdepends/liteos/cmsis/2.0\cmsis_liteos2.c ****     if (OS_INT_ACTIVE || thread_id == NULL)
ARM GAS  c:\Users\lenovo\AppData\Local\Temp\ccnbuj3h.s 			page 23


 834              		.loc 1 410 0
 835 0004 FFF7FEFF 		bl	osIntNumGet
 836              	.LVL42:
 837 0008 10B9     		cbnz	r0, .L103
 838              		.loc 1 410 0 is_stmt 0 discriminator 1
 839 000a 1CB1     		cbz	r4, .L104
 840              	.LVL43:
 411:C:/Users/lenovo/Desktop/liteos/Project2/BearPi_LiteOS/osdepends/liteos/cmsis/2.0\cmsis_liteos2.c ****     {
 412:C:/Users/lenovo/Desktop/liteos/Project2/BearPi_LiteOS/osdepends/liteos/cmsis/2.0\cmsis_liteos2.c ****         return NULL;
 413:C:/Users/lenovo/Desktop/liteos/Project2/BearPi_LiteOS/osdepends/liteos/cmsis/2.0\cmsis_liteos2.c ****     }
 414:C:/Users/lenovo/Desktop/liteos/Project2/BearPi_LiteOS/osdepends/liteos/cmsis/2.0\cmsis_liteos2.c **** 
 415:C:/Users/lenovo/Desktop/liteos/Project2/BearPi_LiteOS/osdepends/liteos/cmsis/2.0\cmsis_liteos2.c ****     pstTaskCB = (LOS_TASK_CB *)thread_id;
 416:C:/Users/lenovo/Desktop/liteos/Project2/BearPi_LiteOS/osdepends/liteos/cmsis/2.0\cmsis_liteos2.c **** 
 417:C:/Users/lenovo/Desktop/liteos/Project2/BearPi_LiteOS/osdepends/liteos/cmsis/2.0\cmsis_liteos2.c ****     return pstTaskCB->pcTaskName;
 841              		.loc 1 417 0 is_stmt 1
 842 000c 606A     		ldr	r0, [r4, #36]
 843              	.LVL44:
 844              	.L101:
 418:C:/Users/lenovo/Desktop/liteos/Project2/BearPi_LiteOS/osdepends/liteos/cmsis/2.0\cmsis_liteos2.c **** }
 845              		.loc 1 418 0
 846 000e 10BD     		pop	{r4, pc}
 847              	.LVL45:
 848              	.L103:
 412:C:/Users/lenovo/Desktop/liteos/Project2/BearPi_LiteOS/osdepends/liteos/cmsis/2.0\cmsis_liteos2.c ****     }
 849              		.loc 1 412 0
 850 0010 0020     		movs	r0, #0
 851 0012 FCE7     		b	.L101
 852              	.L104:
 853 0014 0020     		movs	r0, #0
 854 0016 FAE7     		b	.L101
 855              		.cfi_endproc
 856              	.LFE149:
 858              		.section	.text.osThreadGetId,"ax",%progbits
 859              		.align	1
 860              		.global	osThreadGetId
 861              		.syntax unified
 862              		.thumb
 863              		.thumb_func
 864              		.fpu fpv4-sp-d16
 866              	osThreadGetId:
 867              	.LFB150:
 419:C:/Users/lenovo/Desktop/liteos/Project2/BearPi_LiteOS/osdepends/liteos/cmsis/2.0\cmsis_liteos2.c **** 
 420:C:/Users/lenovo/Desktop/liteos/Project2/BearPi_LiteOS/osdepends/liteos/cmsis/2.0\cmsis_liteos2.c **** 
 421:C:/Users/lenovo/Desktop/liteos/Project2/BearPi_LiteOS/osdepends/liteos/cmsis/2.0\cmsis_liteos2.c **** osThreadId_t osThreadGetId (void)
 422:C:/Users/lenovo/Desktop/liteos/Project2/BearPi_LiteOS/osdepends/liteos/cmsis/2.0\cmsis_liteos2.c **** {
 868              		.loc 1 422 0
 869              		.cfi_startproc
 870              		@ args = 0, pretend = 0, frame = 0
 871              		@ frame_needed = 0, uses_anonymous_args = 0
 872 0000 08B5     		push	{r3, lr}
 873              	.LCFI19:
 874              		.cfi_def_cfa_offset 8
 875              		.cfi_offset 3, -8
 876              		.cfi_offset 14, -4
 423:C:/Users/lenovo/Desktop/liteos/Project2/BearPi_LiteOS/osdepends/liteos/cmsis/2.0\cmsis_liteos2.c ****     if (OS_INT_ACTIVE)
 877              		.loc 1 423 0
 878 0002 FFF7FEFF 		bl	osIntNumGet
ARM GAS  c:\Users\lenovo\AppData\Local\Temp\ccnbuj3h.s 			page 24


 879              	.LVL46:
 880 0006 10B9     		cbnz	r0, .L108
 424:C:/Users/lenovo/Desktop/liteos/Project2/BearPi_LiteOS/osdepends/liteos/cmsis/2.0\cmsis_liteos2.c ****     {
 425:C:/Users/lenovo/Desktop/liteos/Project2/BearPi_LiteOS/osdepends/liteos/cmsis/2.0\cmsis_liteos2.c ****         return NULL;
 426:C:/Users/lenovo/Desktop/liteos/Project2/BearPi_LiteOS/osdepends/liteos/cmsis/2.0\cmsis_liteos2.c ****     }
 427:C:/Users/lenovo/Desktop/liteos/Project2/BearPi_LiteOS/osdepends/liteos/cmsis/2.0\cmsis_liteos2.c **** 
 428:C:/Users/lenovo/Desktop/liteos/Project2/BearPi_LiteOS/osdepends/liteos/cmsis/2.0\cmsis_liteos2.c ****     return (osThreadId_t)(g_stLosTask.pstRunTask);
 881              		.loc 1 428 0
 882 0008 024B     		ldr	r3, .L110
 883 000a 1868     		ldr	r0, [r3]
 884              	.L106:
 429:C:/Users/lenovo/Desktop/liteos/Project2/BearPi_LiteOS/osdepends/liteos/cmsis/2.0\cmsis_liteos2.c **** }
 885              		.loc 1 429 0
 886 000c 08BD     		pop	{r3, pc}
 887              	.L108:
 425:C:/Users/lenovo/Desktop/liteos/Project2/BearPi_LiteOS/osdepends/liteos/cmsis/2.0\cmsis_liteos2.c ****     }
 888              		.loc 1 425 0
 889 000e 0020     		movs	r0, #0
 890 0010 FCE7     		b	.L106
 891              	.L111:
 892 0012 00BF     		.align	2
 893              	.L110:
 894 0014 00000000 		.word	g_stLosTask
 895              		.cfi_endproc
 896              	.LFE150:
 898              		.section	.text.osThreadGetState,"ax",%progbits
 899              		.align	1
 900              		.global	osThreadGetState
 901              		.syntax unified
 902              		.thumb
 903              		.thumb_func
 904              		.fpu fpv4-sp-d16
 906              	osThreadGetState:
 907              	.LFB151:
 430:C:/Users/lenovo/Desktop/liteos/Project2/BearPi_LiteOS/osdepends/liteos/cmsis/2.0\cmsis_liteos2.c **** 
 431:C:/Users/lenovo/Desktop/liteos/Project2/BearPi_LiteOS/osdepends/liteos/cmsis/2.0\cmsis_liteos2.c **** 
 432:C:/Users/lenovo/Desktop/liteos/Project2/BearPi_LiteOS/osdepends/liteos/cmsis/2.0\cmsis_liteos2.c **** osThreadState_t osThreadGetState (osThreadId_t thread_id)
 433:C:/Users/lenovo/Desktop/liteos/Project2/BearPi_LiteOS/osdepends/liteos/cmsis/2.0\cmsis_liteos2.c **** {
 908              		.loc 1 433 0
 909              		.cfi_startproc
 910              		@ args = 0, pretend = 0, frame = 0
 911              		@ frame_needed = 0, uses_anonymous_args = 0
 912              	.LVL47:
 913 0000 10B5     		push	{r4, lr}
 914              	.LCFI20:
 915              		.cfi_def_cfa_offset 8
 916              		.cfi_offset 4, -8
 917              		.cfi_offset 14, -4
 918 0002 0446     		mov	r4, r0
 919              	.LVL48:
 434:C:/Users/lenovo/Desktop/liteos/Project2/BearPi_LiteOS/osdepends/liteos/cmsis/2.0\cmsis_liteos2.c ****     UINT16 usTaskStatus;
 435:C:/Users/lenovo/Desktop/liteos/Project2/BearPi_LiteOS/osdepends/liteos/cmsis/2.0\cmsis_liteos2.c ****     osThreadState_t stState;
 436:C:/Users/lenovo/Desktop/liteos/Project2/BearPi_LiteOS/osdepends/liteos/cmsis/2.0\cmsis_liteos2.c ****     LOS_TASK_CB *pstTaskCB = NULL;
 437:C:/Users/lenovo/Desktop/liteos/Project2/BearPi_LiteOS/osdepends/liteos/cmsis/2.0\cmsis_liteos2.c **** 
 438:C:/Users/lenovo/Desktop/liteos/Project2/BearPi_LiteOS/osdepends/liteos/cmsis/2.0\cmsis_liteos2.c ****     if (OS_INT_ACTIVE || thread_id == NULL)
 920              		.loc 1 438 0
 921 0004 FFF7FEFF 		bl	osIntNumGet
ARM GAS  c:\Users\lenovo\AppData\Local\Temp\ccnbuj3h.s 			page 25


 922              	.LVL49:
 923 0008 88B9     		cbnz	r0, .L114
 924              		.loc 1 438 0 is_stmt 0 discriminator 1
 925 000a 9CB1     		cbz	r4, .L115
 926              	.LVL50:
 439:C:/Users/lenovo/Desktop/liteos/Project2/BearPi_LiteOS/osdepends/liteos/cmsis/2.0\cmsis_liteos2.c ****     {
 440:C:/Users/lenovo/Desktop/liteos/Project2/BearPi_LiteOS/osdepends/liteos/cmsis/2.0\cmsis_liteos2.c ****         return osThreadError;
 441:C:/Users/lenovo/Desktop/liteos/Project2/BearPi_LiteOS/osdepends/liteos/cmsis/2.0\cmsis_liteos2.c ****     }
 442:C:/Users/lenovo/Desktop/liteos/Project2/BearPi_LiteOS/osdepends/liteos/cmsis/2.0\cmsis_liteos2.c **** 
 443:C:/Users/lenovo/Desktop/liteos/Project2/BearPi_LiteOS/osdepends/liteos/cmsis/2.0\cmsis_liteos2.c ****     pstTaskCB = (LOS_TASK_CB *)thread_id;
 444:C:/Users/lenovo/Desktop/liteos/Project2/BearPi_LiteOS/osdepends/liteos/cmsis/2.0\cmsis_liteos2.c ****     usTaskStatus = pstTaskCB->usTaskStatus;
 927              		.loc 1 444 0 is_stmt 1
 928 000c A388     		ldrh	r3, [r4, #4]
 929              	.LVL51:
 445:C:/Users/lenovo/Desktop/liteos/Project2/BearPi_LiteOS/osdepends/liteos/cmsis/2.0\cmsis_liteos2.c **** 
 446:C:/Users/lenovo/Desktop/liteos/Project2/BearPi_LiteOS/osdepends/liteos/cmsis/2.0\cmsis_liteos2.c ****     if (usTaskStatus & OS_TASK_STATUS_RUNNING)
 930              		.loc 1 446 0
 931 000e 13F0100F 		tst	r3, #16
 932 0012 12D1     		bne	.L116
 447:C:/Users/lenovo/Desktop/liteos/Project2/BearPi_LiteOS/osdepends/liteos/cmsis/2.0\cmsis_liteos2.c ****     {
 448:C:/Users/lenovo/Desktop/liteos/Project2/BearPi_LiteOS/osdepends/liteos/cmsis/2.0\cmsis_liteos2.c ****         stState = osThreadRunning;
 449:C:/Users/lenovo/Desktop/liteos/Project2/BearPi_LiteOS/osdepends/liteos/cmsis/2.0\cmsis_liteos2.c ****     }
 450:C:/Users/lenovo/Desktop/liteos/Project2/BearPi_LiteOS/osdepends/liteos/cmsis/2.0\cmsis_liteos2.c ****     else if (usTaskStatus & OS_TASK_STATUS_READY)
 933              		.loc 1 450 0
 934 0014 13F0040F 		tst	r3, #4
 935 0018 11D1     		bne	.L117
 451:C:/Users/lenovo/Desktop/liteos/Project2/BearPi_LiteOS/osdepends/liteos/cmsis/2.0\cmsis_liteos2.c ****     {
 452:C:/Users/lenovo/Desktop/liteos/Project2/BearPi_LiteOS/osdepends/liteos/cmsis/2.0\cmsis_liteos2.c ****         stState = osThreadReady;
 453:C:/Users/lenovo/Desktop/liteos/Project2/BearPi_LiteOS/osdepends/liteos/cmsis/2.0\cmsis_liteos2.c ****     }
 454:C:/Users/lenovo/Desktop/liteos/Project2/BearPi_LiteOS/osdepends/liteos/cmsis/2.0\cmsis_liteos2.c ****     else if (usTaskStatus &
 936              		.loc 1 454 0
 937 001a 42F22A02 		movw	r2, #8234
 938 001e 1342     		tst	r3, r2
 939 0020 0FD1     		bne	.L118
 455:C:/Users/lenovo/Desktop/liteos/Project2/BearPi_LiteOS/osdepends/liteos/cmsis/2.0\cmsis_liteos2.c ****              (OS_TASK_STATUS_DELAY | OS_TASK_STATUS_PEND |
 456:C:/Users/lenovo/Desktop/liteos/Project2/BearPi_LiteOS/osdepends/liteos/cmsis/2.0\cmsis_liteos2.c ****               OS_TASK_STATUS_SUSPEND | OS_TASK_STATUS_PEND_QUEUE))
 457:C:/Users/lenovo/Desktop/liteos/Project2/BearPi_LiteOS/osdepends/liteos/cmsis/2.0\cmsis_liteos2.c ****     {
 458:C:/Users/lenovo/Desktop/liteos/Project2/BearPi_LiteOS/osdepends/liteos/cmsis/2.0\cmsis_liteos2.c ****         stState = osThreadBlocked;
 459:C:/Users/lenovo/Desktop/liteos/Project2/BearPi_LiteOS/osdepends/liteos/cmsis/2.0\cmsis_liteos2.c ****     }
 460:C:/Users/lenovo/Desktop/liteos/Project2/BearPi_LiteOS/osdepends/liteos/cmsis/2.0\cmsis_liteos2.c ****     else if (usTaskStatus & OS_TASK_STATUS_UNUSED)
 940              		.loc 1 460 0
 941 0022 13F0010F 		tst	r3, #1
 942 0026 0BD1     		bne	.L112
 461:C:/Users/lenovo/Desktop/liteos/Project2/BearPi_LiteOS/osdepends/liteos/cmsis/2.0\cmsis_liteos2.c ****     {
 462:C:/Users/lenovo/Desktop/liteos/Project2/BearPi_LiteOS/osdepends/liteos/cmsis/2.0\cmsis_liteos2.c ****         stState = osThreadInactive;
 463:C:/Users/lenovo/Desktop/liteos/Project2/BearPi_LiteOS/osdepends/liteos/cmsis/2.0\cmsis_liteos2.c ****     }
 464:C:/Users/lenovo/Desktop/liteos/Project2/BearPi_LiteOS/osdepends/liteos/cmsis/2.0\cmsis_liteos2.c ****     else
 465:C:/Users/lenovo/Desktop/liteos/Project2/BearPi_LiteOS/osdepends/liteos/cmsis/2.0\cmsis_liteos2.c ****     {
 466:C:/Users/lenovo/Desktop/liteos/Project2/BearPi_LiteOS/osdepends/liteos/cmsis/2.0\cmsis_liteos2.c ****         stState = osThreadError;
 943              		.loc 1 466 0
 944 0028 4FF0FF30 		mov	r0, #-1
 945 002c 08E0     		b	.L112
 946              	.LVL52:
 947              	.L114:
 440:C:/Users/lenovo/Desktop/liteos/Project2/BearPi_LiteOS/osdepends/liteos/cmsis/2.0\cmsis_liteos2.c ****     }
 948              		.loc 1 440 0
 949 002e 4FF0FF30 		mov	r0, #-1
ARM GAS  c:\Users\lenovo\AppData\Local\Temp\ccnbuj3h.s 			page 26


 950 0032 05E0     		b	.L112
 951              	.L115:
 952 0034 4FF0FF30 		mov	r0, #-1
 953 0038 02E0     		b	.L112
 954              	.LVL53:
 955              	.L116:
 448:C:/Users/lenovo/Desktop/liteos/Project2/BearPi_LiteOS/osdepends/liteos/cmsis/2.0\cmsis_liteos2.c ****     }
 956              		.loc 1 448 0
 957 003a 0220     		movs	r0, #2
 958 003c 00E0     		b	.L112
 959              	.L117:
 452:C:/Users/lenovo/Desktop/liteos/Project2/BearPi_LiteOS/osdepends/liteos/cmsis/2.0\cmsis_liteos2.c ****     }
 960              		.loc 1 452 0
 961 003e 0120     		movs	r0, #1
 962              	.LVL54:
 963              	.L112:
 467:C:/Users/lenovo/Desktop/liteos/Project2/BearPi_LiteOS/osdepends/liteos/cmsis/2.0\cmsis_liteos2.c ****     }
 468:C:/Users/lenovo/Desktop/liteos/Project2/BearPi_LiteOS/osdepends/liteos/cmsis/2.0\cmsis_liteos2.c **** 
 469:C:/Users/lenovo/Desktop/liteos/Project2/BearPi_LiteOS/osdepends/liteos/cmsis/2.0\cmsis_liteos2.c ****     return stState;
 470:C:/Users/lenovo/Desktop/liteos/Project2/BearPi_LiteOS/osdepends/liteos/cmsis/2.0\cmsis_liteos2.c **** }
 964              		.loc 1 470 0
 965 0040 10BD     		pop	{r4, pc}
 966              	.LVL55:
 967              	.L118:
 458:C:/Users/lenovo/Desktop/liteos/Project2/BearPi_LiteOS/osdepends/liteos/cmsis/2.0\cmsis_liteos2.c ****     }
 968              		.loc 1 458 0
 969 0042 0320     		movs	r0, #3
 970 0044 FCE7     		b	.L112
 971              		.cfi_endproc
 972              	.LFE151:
 974              		.section	.text.osThreadGetStackSize,"ax",%progbits
 975              		.align	1
 976              		.global	osThreadGetStackSize
 977              		.syntax unified
 978              		.thumb
 979              		.thumb_func
 980              		.fpu fpv4-sp-d16
 982              	osThreadGetStackSize:
 983              	.LFB152:
 471:C:/Users/lenovo/Desktop/liteos/Project2/BearPi_LiteOS/osdepends/liteos/cmsis/2.0\cmsis_liteos2.c **** 
 472:C:/Users/lenovo/Desktop/liteos/Project2/BearPi_LiteOS/osdepends/liteos/cmsis/2.0\cmsis_liteos2.c **** 
 473:C:/Users/lenovo/Desktop/liteos/Project2/BearPi_LiteOS/osdepends/liteos/cmsis/2.0\cmsis_liteos2.c **** uint32_t osThreadGetStackSize (osThreadId_t thread_id)
 474:C:/Users/lenovo/Desktop/liteos/Project2/BearPi_LiteOS/osdepends/liteos/cmsis/2.0\cmsis_liteos2.c **** {
 984              		.loc 1 474 0
 985              		.cfi_startproc
 986              		@ args = 0, pretend = 0, frame = 0
 987              		@ frame_needed = 0, uses_anonymous_args = 0
 988              	.LVL56:
 989 0000 10B5     		push	{r4, lr}
 990              	.LCFI21:
 991              		.cfi_def_cfa_offset 8
 992              		.cfi_offset 4, -8
 993              		.cfi_offset 14, -4
 994 0002 0446     		mov	r4, r0
 995              	.LVL57:
 475:C:/Users/lenovo/Desktop/liteos/Project2/BearPi_LiteOS/osdepends/liteos/cmsis/2.0\cmsis_liteos2.c ****     LOS_TASK_CB *pstTaskCB = NULL;
 476:C:/Users/lenovo/Desktop/liteos/Project2/BearPi_LiteOS/osdepends/liteos/cmsis/2.0\cmsis_liteos2.c **** 
ARM GAS  c:\Users\lenovo\AppData\Local\Temp\ccnbuj3h.s 			page 27


 477:C:/Users/lenovo/Desktop/liteos/Project2/BearPi_LiteOS/osdepends/liteos/cmsis/2.0\cmsis_liteos2.c ****     if (OS_INT_ACTIVE || thread_id == NULL)
 996              		.loc 1 477 0
 997 0004 FFF7FEFF 		bl	osIntNumGet
 998              	.LVL58:
 999 0008 10B9     		cbnz	r0, .L123
 1000              		.loc 1 477 0 is_stmt 0 discriminator 1
 1001 000a 1CB1     		cbz	r4, .L124
 1002              	.LVL59:
 478:C:/Users/lenovo/Desktop/liteos/Project2/BearPi_LiteOS/osdepends/liteos/cmsis/2.0\cmsis_liteos2.c ****     {
 479:C:/Users/lenovo/Desktop/liteos/Project2/BearPi_LiteOS/osdepends/liteos/cmsis/2.0\cmsis_liteos2.c ****         return 0U;
 480:C:/Users/lenovo/Desktop/liteos/Project2/BearPi_LiteOS/osdepends/liteos/cmsis/2.0\cmsis_liteos2.c ****     }
 481:C:/Users/lenovo/Desktop/liteos/Project2/BearPi_LiteOS/osdepends/liteos/cmsis/2.0\cmsis_liteos2.c **** 
 482:C:/Users/lenovo/Desktop/liteos/Project2/BearPi_LiteOS/osdepends/liteos/cmsis/2.0\cmsis_liteos2.c ****     pstTaskCB = (LOS_TASK_CB *)thread_id;
 483:C:/Users/lenovo/Desktop/liteos/Project2/BearPi_LiteOS/osdepends/liteos/cmsis/2.0\cmsis_liteos2.c **** 
 484:C:/Users/lenovo/Desktop/liteos/Project2/BearPi_LiteOS/osdepends/liteos/cmsis/2.0\cmsis_liteos2.c ****     return pstTaskCB->uwStackSize;
 1003              		.loc 1 484 0 is_stmt 1
 1004 000c A068     		ldr	r0, [r4, #8]
 1005 000e 00E0     		b	.L121
 1006              	.LVL60:
 1007              	.L123:
 479:C:/Users/lenovo/Desktop/liteos/Project2/BearPi_LiteOS/osdepends/liteos/cmsis/2.0\cmsis_liteos2.c ****     }
 1008              		.loc 1 479 0
 1009 0010 0020     		movs	r0, #0
 1010              	.LVL61:
 1011              	.L121:
 485:C:/Users/lenovo/Desktop/liteos/Project2/BearPi_LiteOS/osdepends/liteos/cmsis/2.0\cmsis_liteos2.c **** }
 1012              		.loc 1 485 0
 1013 0012 10BD     		pop	{r4, pc}
 1014              	.LVL62:
 1015              	.L124:
 479:C:/Users/lenovo/Desktop/liteos/Project2/BearPi_LiteOS/osdepends/liteos/cmsis/2.0\cmsis_liteos2.c ****     }
 1016              		.loc 1 479 0
 1017 0014 0020     		movs	r0, #0
 1018 0016 FCE7     		b	.L121
 1019              		.cfi_endproc
 1020              	.LFE152:
 1022              		.section	.text.osTaskStackWaterMarkGet,"ax",%progbits
 1023              		.align	1
 1024              		.global	osTaskStackWaterMarkGet
 1025              		.syntax unified
 1026              		.thumb
 1027              		.thumb_func
 1028              		.fpu fpv4-sp-d16
 1030              	osTaskStackWaterMarkGet:
 1031              	.LFB153:
 486:C:/Users/lenovo/Desktop/liteos/Project2/BearPi_LiteOS/osdepends/liteos/cmsis/2.0\cmsis_liteos2.c **** 
 487:C:/Users/lenovo/Desktop/liteos/Project2/BearPi_LiteOS/osdepends/liteos/cmsis/2.0\cmsis_liteos2.c **** 
 488:C:/Users/lenovo/Desktop/liteos/Project2/BearPi_LiteOS/osdepends/liteos/cmsis/2.0\cmsis_liteos2.c **** uint32_t osTaskStackWaterMarkGet(UINT32 uwTaskID)
 489:C:/Users/lenovo/Desktop/liteos/Project2/BearPi_LiteOS/osdepends/liteos/cmsis/2.0\cmsis_liteos2.c **** {
 1032              		.loc 1 489 0
 1033              		.cfi_startproc
 1034              		@ args = 0, pretend = 0, frame = 0
 1035              		@ frame_needed = 0, uses_anonymous_args = 0
 1036              	.LVL63:
 1037 0000 10B5     		push	{r4, lr}
 1038              	.LCFI22:
 1039              		.cfi_def_cfa_offset 8
ARM GAS  c:\Users\lenovo\AppData\Local\Temp\ccnbuj3h.s 			page 28


 1040              		.cfi_offset 4, -8
 1041              		.cfi_offset 14, -4
 1042              	.LVL64:
 490:C:/Users/lenovo/Desktop/liteos/Project2/BearPi_LiteOS/osdepends/liteos/cmsis/2.0\cmsis_liteos2.c ****     UINT32 uwCount = 0;
 491:C:/Users/lenovo/Desktop/liteos/Project2/BearPi_LiteOS/osdepends/liteos/cmsis/2.0\cmsis_liteos2.c ****     UINT32 *puwTopOfStack;
 492:C:/Users/lenovo/Desktop/liteos/Project2/BearPi_LiteOS/osdepends/liteos/cmsis/2.0\cmsis_liteos2.c ****     UINTPTR uvIntSave;
 493:C:/Users/lenovo/Desktop/liteos/Project2/BearPi_LiteOS/osdepends/liteos/cmsis/2.0\cmsis_liteos2.c ****     LOS_TASK_CB *pstTaskCB = NULL;
 494:C:/Users/lenovo/Desktop/liteos/Project2/BearPi_LiteOS/osdepends/liteos/cmsis/2.0\cmsis_liteos2.c **** 
 495:C:/Users/lenovo/Desktop/liteos/Project2/BearPi_LiteOS/osdepends/liteos/cmsis/2.0\cmsis_liteos2.c ****     if (uwTaskID > LOSCFG_BASE_CORE_TSK_LIMIT)
 1043              		.loc 1 495 0
 1044 0002 0F28     		cmp	r0, #15
 1045 0004 02D9     		bls	.L133
 496:C:/Users/lenovo/Desktop/liteos/Project2/BearPi_LiteOS/osdepends/liteos/cmsis/2.0\cmsis_liteos2.c ****     {
 497:C:/Users/lenovo/Desktop/liteos/Project2/BearPi_LiteOS/osdepends/liteos/cmsis/2.0\cmsis_liteos2.c ****         return 0;
 1046              		.loc 1 497 0
 1047 0006 0024     		movs	r4, #0
 1048              	.LVL65:
 1049              	.L126:
 498:C:/Users/lenovo/Desktop/liteos/Project2/BearPi_LiteOS/osdepends/liteos/cmsis/2.0\cmsis_liteos2.c ****     }
 499:C:/Users/lenovo/Desktop/liteos/Project2/BearPi_LiteOS/osdepends/liteos/cmsis/2.0\cmsis_liteos2.c **** 
 500:C:/Users/lenovo/Desktop/liteos/Project2/BearPi_LiteOS/osdepends/liteos/cmsis/2.0\cmsis_liteos2.c ****     uvIntSave = LOS_IntLock();
 501:C:/Users/lenovo/Desktop/liteos/Project2/BearPi_LiteOS/osdepends/liteos/cmsis/2.0\cmsis_liteos2.c **** 
 502:C:/Users/lenovo/Desktop/liteos/Project2/BearPi_LiteOS/osdepends/liteos/cmsis/2.0\cmsis_liteos2.c ****     pstTaskCB = OS_TCB_FROM_TID(uwTaskID);
 503:C:/Users/lenovo/Desktop/liteos/Project2/BearPi_LiteOS/osdepends/liteos/cmsis/2.0\cmsis_liteos2.c ****     if (OS_TASK_STATUS_UNUSED & (pstTaskCB->usTaskStatus))
 504:C:/Users/lenovo/Desktop/liteos/Project2/BearPi_LiteOS/osdepends/liteos/cmsis/2.0\cmsis_liteos2.c ****     {
 505:C:/Users/lenovo/Desktop/liteos/Project2/BearPi_LiteOS/osdepends/liteos/cmsis/2.0\cmsis_liteos2.c ****         (VOID)LOS_IntRestore(uvIntSave);
 506:C:/Users/lenovo/Desktop/liteos/Project2/BearPi_LiteOS/osdepends/liteos/cmsis/2.0\cmsis_liteos2.c ****         return 0;
 507:C:/Users/lenovo/Desktop/liteos/Project2/BearPi_LiteOS/osdepends/liteos/cmsis/2.0\cmsis_liteos2.c ****     }
 508:C:/Users/lenovo/Desktop/liteos/Project2/BearPi_LiteOS/osdepends/liteos/cmsis/2.0\cmsis_liteos2.c **** 
 509:C:/Users/lenovo/Desktop/liteos/Project2/BearPi_LiteOS/osdepends/liteos/cmsis/2.0\cmsis_liteos2.c ****     // first 4 bytes is OS_TASK_MAGIC_WORD, skip
 510:C:/Users/lenovo/Desktop/liteos/Project2/BearPi_LiteOS/osdepends/liteos/cmsis/2.0\cmsis_liteos2.c ****     puwTopOfStack = (UINT32 *)pstTaskCB->uwTopOfStack + 1;
 511:C:/Users/lenovo/Desktop/liteos/Project2/BearPi_LiteOS/osdepends/liteos/cmsis/2.0\cmsis_liteos2.c **** 
 512:C:/Users/lenovo/Desktop/liteos/Project2/BearPi_LiteOS/osdepends/liteos/cmsis/2.0\cmsis_liteos2.c ****     while (*puwTopOfStack == (UINT32)OS_TASK_STACK_INIT)
 513:C:/Users/lenovo/Desktop/liteos/Project2/BearPi_LiteOS/osdepends/liteos/cmsis/2.0\cmsis_liteos2.c ****     {
 514:C:/Users/lenovo/Desktop/liteos/Project2/BearPi_LiteOS/osdepends/liteos/cmsis/2.0\cmsis_liteos2.c ****         ++puwTopOfStack;
 515:C:/Users/lenovo/Desktop/liteos/Project2/BearPi_LiteOS/osdepends/liteos/cmsis/2.0\cmsis_liteos2.c ****         ++uwCount;
 516:C:/Users/lenovo/Desktop/liteos/Project2/BearPi_LiteOS/osdepends/liteos/cmsis/2.0\cmsis_liteos2.c ****     }
 517:C:/Users/lenovo/Desktop/liteos/Project2/BearPi_LiteOS/osdepends/liteos/cmsis/2.0\cmsis_liteos2.c **** 
 518:C:/Users/lenovo/Desktop/liteos/Project2/BearPi_LiteOS/osdepends/liteos/cmsis/2.0\cmsis_liteos2.c ****     uwCount *= sizeof(UINT32);
 519:C:/Users/lenovo/Desktop/liteos/Project2/BearPi_LiteOS/osdepends/liteos/cmsis/2.0\cmsis_liteos2.c **** 
 520:C:/Users/lenovo/Desktop/liteos/Project2/BearPi_LiteOS/osdepends/liteos/cmsis/2.0\cmsis_liteos2.c ****     (VOID)LOS_IntRestore(uvIntSave);
 521:C:/Users/lenovo/Desktop/liteos/Project2/BearPi_LiteOS/osdepends/liteos/cmsis/2.0\cmsis_liteos2.c ****     return uwCount;
 522:C:/Users/lenovo/Desktop/liteos/Project2/BearPi_LiteOS/osdepends/liteos/cmsis/2.0\cmsis_liteos2.c **** }
 1050              		.loc 1 522 0
 1051 0008 2046     		mov	r0, r4
 1052 000a 10BD     		pop	{r4, pc}
 1053              	.LVL66:
 1054              	.L133:
 1055 000c 0446     		mov	r4, r0
 500:C:/Users/lenovo/Desktop/liteos/Project2/BearPi_LiteOS/osdepends/liteos/cmsis/2.0\cmsis_liteos2.c **** 
 1056              		.loc 1 500 0
 1057 000e FFF7FEFF 		bl	LOS_IntLock
 1058              	.LVL67:
 502:C:/Users/lenovo/Desktop/liteos/Project2/BearPi_LiteOS/osdepends/liteos/cmsis/2.0\cmsis_liteos2.c ****     if (OS_TASK_STATUS_UNUSED & (pstTaskCB->usTaskStatus))
 1059              		.loc 1 502 0
 1060 0012 0D4B     		ldr	r3, .L135
 1061 0014 1B68     		ldr	r3, [r3]
ARM GAS  c:\Users\lenovo\AppData\Local\Temp\ccnbuj3h.s 			page 29


 1062 0016 5422     		movs	r2, #84
 1063 0018 02FB0433 		mla	r3, r2, r4, r3
 1064              	.LVL68:
 503:C:/Users/lenovo/Desktop/liteos/Project2/BearPi_LiteOS/osdepends/liteos/cmsis/2.0\cmsis_liteos2.c ****     {
 1065              		.loc 1 503 0
 1066 001c 9A88     		ldrh	r2, [r3, #4]
 1067 001e 12F0010F 		tst	r2, #1
 1068 0022 03D1     		bne	.L134
 510:C:/Users/lenovo/Desktop/liteos/Project2/BearPi_LiteOS/osdepends/liteos/cmsis/2.0\cmsis_liteos2.c **** 
 1069              		.loc 1 510 0
 1070 0024 DA68     		ldr	r2, [r3, #12]
 1071 0026 0432     		adds	r2, r2, #4
 1072              	.LVL69:
 490:C:/Users/lenovo/Desktop/liteos/Project2/BearPi_LiteOS/osdepends/liteos/cmsis/2.0\cmsis_liteos2.c ****     UINT32 *puwTopOfStack;
 1073              		.loc 1 490 0
 1074 0028 0023     		movs	r3, #0
 1075              	.LVL70:
 512:C:/Users/lenovo/Desktop/liteos/Project2/BearPi_LiteOS/osdepends/liteos/cmsis/2.0\cmsis_liteos2.c ****     {
 1076              		.loc 1 512 0
 1077 002a 05E0     		b	.L129
 1078              	.LVL71:
 1079              	.L134:
 505:C:/Users/lenovo/Desktop/liteos/Project2/BearPi_LiteOS/osdepends/liteos/cmsis/2.0\cmsis_liteos2.c ****         return 0;
 1080              		.loc 1 505 0
 1081 002c FFF7FEFF 		bl	LOS_IntRestore
 1082              	.LVL72:
 506:C:/Users/lenovo/Desktop/liteos/Project2/BearPi_LiteOS/osdepends/liteos/cmsis/2.0\cmsis_liteos2.c ****     }
 1083              		.loc 1 506 0
 1084 0030 0024     		movs	r4, #0
 1085              	.LVL73:
 1086 0032 E9E7     		b	.L126
 1087              	.LVL74:
 1088              	.L130:
 514:C:/Users/lenovo/Desktop/liteos/Project2/BearPi_LiteOS/osdepends/liteos/cmsis/2.0\cmsis_liteos2.c ****         ++uwCount;
 1089              		.loc 1 514 0
 1090 0034 0432     		adds	r2, r2, #4
 1091              	.LVL75:
 515:C:/Users/lenovo/Desktop/liteos/Project2/BearPi_LiteOS/osdepends/liteos/cmsis/2.0\cmsis_liteos2.c ****     }
 1092              		.loc 1 515 0
 1093 0036 0133     		adds	r3, r3, #1
 1094              	.LVL76:
 1095              	.L129:
 512:C:/Users/lenovo/Desktop/liteos/Project2/BearPi_LiteOS/osdepends/liteos/cmsis/2.0\cmsis_liteos2.c ****     {
 1096              		.loc 1 512 0
 1097 0038 1168     		ldr	r1, [r2]
 1098 003a B1F1CA3F 		cmp	r1, #-892679478
 1099 003e F9D0     		beq	.L130
 518:C:/Users/lenovo/Desktop/liteos/Project2/BearPi_LiteOS/osdepends/liteos/cmsis/2.0\cmsis_liteos2.c **** 
 1100              		.loc 1 518 0
 1101 0040 9C00     		lsls	r4, r3, #2
 1102              	.LVL77:
 520:C:/Users/lenovo/Desktop/liteos/Project2/BearPi_LiteOS/osdepends/liteos/cmsis/2.0\cmsis_liteos2.c ****     return uwCount;
 1103              		.loc 1 520 0
 1104 0042 FFF7FEFF 		bl	LOS_IntRestore
 1105              	.LVL78:
 521:C:/Users/lenovo/Desktop/liteos/Project2/BearPi_LiteOS/osdepends/liteos/cmsis/2.0\cmsis_liteos2.c **** }
 1106              		.loc 1 521 0
ARM GAS  c:\Users\lenovo\AppData\Local\Temp\ccnbuj3h.s 			page 30


 1107 0046 DFE7     		b	.L126
 1108              	.L136:
 1109              		.align	2
 1110              	.L135:
 1111 0048 00000000 		.word	g_pstTaskCBArray
 1112              		.cfi_endproc
 1113              	.LFE153:
 1115              		.section	.text.osThreadGetStackSpace,"ax",%progbits
 1116              		.align	1
 1117              		.global	osThreadGetStackSpace
 1118              		.syntax unified
 1119              		.thumb
 1120              		.thumb_func
 1121              		.fpu fpv4-sp-d16
 1123              	osThreadGetStackSpace:
 1124              	.LFB154:
 523:C:/Users/lenovo/Desktop/liteos/Project2/BearPi_LiteOS/osdepends/liteos/cmsis/2.0\cmsis_liteos2.c **** 
 524:C:/Users/lenovo/Desktop/liteos/Project2/BearPi_LiteOS/osdepends/liteos/cmsis/2.0\cmsis_liteos2.c **** 
 525:C:/Users/lenovo/Desktop/liteos/Project2/BearPi_LiteOS/osdepends/liteos/cmsis/2.0\cmsis_liteos2.c **** uint32_t osThreadGetStackSpace (osThreadId_t thread_id)
 526:C:/Users/lenovo/Desktop/liteos/Project2/BearPi_LiteOS/osdepends/liteos/cmsis/2.0\cmsis_liteos2.c **** {
 1125              		.loc 1 526 0
 1126              		.cfi_startproc
 1127              		@ args = 0, pretend = 0, frame = 0
 1128              		@ frame_needed = 0, uses_anonymous_args = 0
 1129              	.LVL79:
 1130 0000 10B5     		push	{r4, lr}
 1131              	.LCFI23:
 1132              		.cfi_def_cfa_offset 8
 1133              		.cfi_offset 4, -8
 1134              		.cfi_offset 14, -4
 1135 0002 0446     		mov	r4, r0
 1136              	.LVL80:
 527:C:/Users/lenovo/Desktop/liteos/Project2/BearPi_LiteOS/osdepends/liteos/cmsis/2.0\cmsis_liteos2.c ****     LOS_TASK_CB *pstTaskCB = NULL;
 528:C:/Users/lenovo/Desktop/liteos/Project2/BearPi_LiteOS/osdepends/liteos/cmsis/2.0\cmsis_liteos2.c **** 
 529:C:/Users/lenovo/Desktop/liteos/Project2/BearPi_LiteOS/osdepends/liteos/cmsis/2.0\cmsis_liteos2.c ****     if (OS_INT_ACTIVE || thread_id == NULL)
 1137              		.loc 1 529 0
 1138 0004 FFF7FEFF 		bl	osIntNumGet
 1139              	.LVL81:
 1140 0008 20B9     		cbnz	r0, .L139
 1141              		.loc 1 529 0 is_stmt 0 discriminator 1
 1142 000a 2CB1     		cbz	r4, .L140
 1143              	.LVL82:
 530:C:/Users/lenovo/Desktop/liteos/Project2/BearPi_LiteOS/osdepends/liteos/cmsis/2.0\cmsis_liteos2.c ****     {
 531:C:/Users/lenovo/Desktop/liteos/Project2/BearPi_LiteOS/osdepends/liteos/cmsis/2.0\cmsis_liteos2.c ****         return 0U;
 532:C:/Users/lenovo/Desktop/liteos/Project2/BearPi_LiteOS/osdepends/liteos/cmsis/2.0\cmsis_liteos2.c ****     }
 533:C:/Users/lenovo/Desktop/liteos/Project2/BearPi_LiteOS/osdepends/liteos/cmsis/2.0\cmsis_liteos2.c **** 
 534:C:/Users/lenovo/Desktop/liteos/Project2/BearPi_LiteOS/osdepends/liteos/cmsis/2.0\cmsis_liteos2.c ****     pstTaskCB = (LOS_TASK_CB *)thread_id;
 535:C:/Users/lenovo/Desktop/liteos/Project2/BearPi_LiteOS/osdepends/liteos/cmsis/2.0\cmsis_liteos2.c **** 
 536:C:/Users/lenovo/Desktop/liteos/Project2/BearPi_LiteOS/osdepends/liteos/cmsis/2.0\cmsis_liteos2.c ****     return osTaskStackWaterMarkGet(pstTaskCB->uwTaskID);
 1144              		.loc 1 536 0 is_stmt 1
 1145 000c 2069     		ldr	r0, [r4, #16]
 1146 000e FFF7FEFF 		bl	osTaskStackWaterMarkGet
 1147              	.LVL83:
 1148 0012 00E0     		b	.L137
 1149              	.LVL84:
 1150              	.L139:
 531:C:/Users/lenovo/Desktop/liteos/Project2/BearPi_LiteOS/osdepends/liteos/cmsis/2.0\cmsis_liteos2.c ****     }
ARM GAS  c:\Users\lenovo\AppData\Local\Temp\ccnbuj3h.s 			page 31


 1151              		.loc 1 531 0
 1152 0014 0020     		movs	r0, #0
 1153              	.LVL85:
 1154              	.L137:
 537:C:/Users/lenovo/Desktop/liteos/Project2/BearPi_LiteOS/osdepends/liteos/cmsis/2.0\cmsis_liteos2.c **** }
 1155              		.loc 1 537 0
 1156 0016 10BD     		pop	{r4, pc}
 1157              	.LVL86:
 1158              	.L140:
 531:C:/Users/lenovo/Desktop/liteos/Project2/BearPi_LiteOS/osdepends/liteos/cmsis/2.0\cmsis_liteos2.c ****     }
 1159              		.loc 1 531 0
 1160 0018 0020     		movs	r0, #0
 1161 001a FCE7     		b	.L137
 1162              		.cfi_endproc
 1163              	.LFE154:
 1165              		.section	.text.osThreadSetPriority,"ax",%progbits
 1166              		.align	1
 1167              		.global	osThreadSetPriority
 1168              		.syntax unified
 1169              		.thumb
 1170              		.thumb_func
 1171              		.fpu fpv4-sp-d16
 1173              	osThreadSetPriority:
 1174              	.LFB155:
 538:C:/Users/lenovo/Desktop/liteos/Project2/BearPi_LiteOS/osdepends/liteos/cmsis/2.0\cmsis_liteos2.c **** 
 539:C:/Users/lenovo/Desktop/liteos/Project2/BearPi_LiteOS/osdepends/liteos/cmsis/2.0\cmsis_liteos2.c **** 
 540:C:/Users/lenovo/Desktop/liteos/Project2/BearPi_LiteOS/osdepends/liteos/cmsis/2.0\cmsis_liteos2.c **** osStatus_t osThreadSetPriority (osThreadId_t thread_id, osPriority_t priority)
 541:C:/Users/lenovo/Desktop/liteos/Project2/BearPi_LiteOS/osdepends/liteos/cmsis/2.0\cmsis_liteos2.c **** {
 1175              		.loc 1 541 0
 1176              		.cfi_startproc
 1177              		@ args = 0, pretend = 0, frame = 0
 1178              		@ frame_needed = 0, uses_anonymous_args = 0
 1179              	.LVL87:
 1180 0000 38B5     		push	{r3, r4, r5, lr}
 1181              	.LCFI24:
 1182              		.cfi_def_cfa_offset 16
 1183              		.cfi_offset 3, -16
 1184              		.cfi_offset 4, -12
 1185              		.cfi_offset 5, -8
 1186              		.cfi_offset 14, -4
 1187 0002 0546     		mov	r5, r0
 1188 0004 0C46     		mov	r4, r1
 1189              	.LVL88:
 542:C:/Users/lenovo/Desktop/liteos/Project2/BearPi_LiteOS/osdepends/liteos/cmsis/2.0\cmsis_liteos2.c ****     UINT32  uwRet;
 543:C:/Users/lenovo/Desktop/liteos/Project2/BearPi_LiteOS/osdepends/liteos/cmsis/2.0\cmsis_liteos2.c ****     UINT16  usPriority;
 544:C:/Users/lenovo/Desktop/liteos/Project2/BearPi_LiteOS/osdepends/liteos/cmsis/2.0\cmsis_liteos2.c ****     LOS_TASK_CB *pstTaskCB = NULL;
 545:C:/Users/lenovo/Desktop/liteos/Project2/BearPi_LiteOS/osdepends/liteos/cmsis/2.0\cmsis_liteos2.c **** 
 546:C:/Users/lenovo/Desktop/liteos/Project2/BearPi_LiteOS/osdepends/liteos/cmsis/2.0\cmsis_liteos2.c ****     if (OS_INT_ACTIVE)
 1190              		.loc 1 546 0
 1191 0006 FFF7FEFF 		bl	osIntNumGet
 1192              	.LVL89:
 1193 000a 08BB     		cbnz	r0, .L147
 547:C:/Users/lenovo/Desktop/liteos/Project2/BearPi_LiteOS/osdepends/liteos/cmsis/2.0\cmsis_liteos2.c ****     {
 548:C:/Users/lenovo/Desktop/liteos/Project2/BearPi_LiteOS/osdepends/liteos/cmsis/2.0\cmsis_liteos2.c ****         return osErrorISR;
 549:C:/Users/lenovo/Desktop/liteos/Project2/BearPi_LiteOS/osdepends/liteos/cmsis/2.0\cmsis_liteos2.c ****     }
 550:C:/Users/lenovo/Desktop/liteos/Project2/BearPi_LiteOS/osdepends/liteos/cmsis/2.0\cmsis_liteos2.c **** 
 551:C:/Users/lenovo/Desktop/liteos/Project2/BearPi_LiteOS/osdepends/liteos/cmsis/2.0\cmsis_liteos2.c ****     if (thread_id == NULL)
ARM GAS  c:\Users\lenovo\AppData\Local\Temp\ccnbuj3h.s 			page 32


 1194              		.loc 1 551 0
 1195 000c 1DB3     		cbz	r5, .L148
 552:C:/Users/lenovo/Desktop/liteos/Project2/BearPi_LiteOS/osdepends/liteos/cmsis/2.0\cmsis_liteos2.c ****     {
 553:C:/Users/lenovo/Desktop/liteos/Project2/BearPi_LiteOS/osdepends/liteos/cmsis/2.0\cmsis_liteos2.c ****         return osErrorParameter;
 554:C:/Users/lenovo/Desktop/liteos/Project2/BearPi_LiteOS/osdepends/liteos/cmsis/2.0\cmsis_liteos2.c ****     }
 555:C:/Users/lenovo/Desktop/liteos/Project2/BearPi_LiteOS/osdepends/liteos/cmsis/2.0\cmsis_liteos2.c **** 
 556:C:/Users/lenovo/Desktop/liteos/Project2/BearPi_LiteOS/osdepends/liteos/cmsis/2.0\cmsis_liteos2.c ****     if (priority < osPriorityLow1 || priority > osPriorityAboveNormal6)
 1196              		.loc 1 556 0
 1197 000e A4F10903 		sub	r3, r4, #9
 1198 0012 1D2B     		cmp	r3, #29
 1199 0014 22D8     		bhi	.L149
 1200              	.LVL90:
 557:C:/Users/lenovo/Desktop/liteos/Project2/BearPi_LiteOS/osdepends/liteos/cmsis/2.0\cmsis_liteos2.c ****     {
 558:C:/Users/lenovo/Desktop/liteos/Project2/BearPi_LiteOS/osdepends/liteos/cmsis/2.0\cmsis_liteos2.c ****         return osErrorParameter;
 559:C:/Users/lenovo/Desktop/liteos/Project2/BearPi_LiteOS/osdepends/liteos/cmsis/2.0\cmsis_liteos2.c ****     }
 560:C:/Users/lenovo/Desktop/liteos/Project2/BearPi_LiteOS/osdepends/liteos/cmsis/2.0\cmsis_liteos2.c **** 
 561:C:/Users/lenovo/Desktop/liteos/Project2/BearPi_LiteOS/osdepends/liteos/cmsis/2.0\cmsis_liteos2.c ****     pstTaskCB   = (LOS_TASK_CB *)thread_id;
 562:C:/Users/lenovo/Desktop/liteos/Project2/BearPi_LiteOS/osdepends/liteos/cmsis/2.0\cmsis_liteos2.c ****     usPriority  = OS_TASK_PRIORITY_LOWEST - ((UINT16)priority - LOS_PRIORITY_WIN);
 1201              		.loc 1 562 0
 1202 0016 A1B2     		uxth	r1, r4
 1203 0018 C1F12701 		rsb	r1, r1, #39
 1204              	.LVL91:
 563:C:/Users/lenovo/Desktop/liteos/Project2/BearPi_LiteOS/osdepends/liteos/cmsis/2.0\cmsis_liteos2.c ****     uwRet       = LOS_TaskPriSet(pstTaskCB->uwTaskID, usPriority);
 1205              		.loc 1 563 0
 1206 001c 89B2     		uxth	r1, r1
 1207 001e 2869     		ldr	r0, [r5, #16]
 1208 0020 FFF7FEFF 		bl	LOS_TaskPriSet
 1209              	.LVL92:
 564:C:/Users/lenovo/Desktop/liteos/Project2/BearPi_LiteOS/osdepends/liteos/cmsis/2.0\cmsis_liteos2.c ****     switch (uwRet)
 1210              		.loc 1 564 0
 1211 0024 00F1FD30 		add	r0, r0, #-33686019
 1212              	.LVL93:
 1213 0028 00F50030 		add	r0, r0, #131072
 1214              	.LVL94:
 1215 002c 1128     		cmp	r0, #17
 1216 002e 0DD8     		bhi	.L144
 1217 0030 DFE800F0 		tbb	[pc, r0]
 1218              	.L146:
 1219 0034 09       		.byte	(.L145-.L146)/2
 1220 0035 0C       		.byte	(.L144-.L146)/2
 1221 0036 0C       		.byte	(.L144-.L146)/2
 1222 0037 0C       		.byte	(.L144-.L146)/2
 1223 0038 09       		.byte	(.L145-.L146)/2
 1224 0039 0C       		.byte	(.L144-.L146)/2
 1225 003a 0C       		.byte	(.L144-.L146)/2
 1226 003b 17       		.byte	(.L150-.L146)/2
 1227 003c 0C       		.byte	(.L144-.L146)/2
 1228 003d 0C       		.byte	(.L144-.L146)/2
 1229 003e 0C       		.byte	(.L144-.L146)/2
 1230 003f 0C       		.byte	(.L144-.L146)/2
 1231 0040 0C       		.byte	(.L144-.L146)/2
 1232 0041 0C       		.byte	(.L144-.L146)/2
 1233 0042 0C       		.byte	(.L144-.L146)/2
 1234 0043 0C       		.byte	(.L144-.L146)/2
 1235 0044 0C       		.byte	(.L144-.L146)/2
 1236 0045 09       		.byte	(.L145-.L146)/2
 1237              		.p2align 1
ARM GAS  c:\Users\lenovo\AppData\Local\Temp\ccnbuj3h.s 			page 33


 1238              	.L145:
 565:C:/Users/lenovo/Desktop/liteos/Project2/BearPi_LiteOS/osdepends/liteos/cmsis/2.0\cmsis_liteos2.c ****     {
 566:C:/Users/lenovo/Desktop/liteos/Project2/BearPi_LiteOS/osdepends/liteos/cmsis/2.0\cmsis_liteos2.c ****     case LOS_ERRNO_TSK_PRIOR_ERROR:
 567:C:/Users/lenovo/Desktop/liteos/Project2/BearPi_LiteOS/osdepends/liteos/cmsis/2.0\cmsis_liteos2.c ****     case LOS_ERRNO_TSK_OPERATE_IDLE:
 568:C:/Users/lenovo/Desktop/liteos/Project2/BearPi_LiteOS/osdepends/liteos/cmsis/2.0\cmsis_liteos2.c ****     case LOS_ERRNO_TSK_ID_INVALID:
 569:C:/Users/lenovo/Desktop/liteos/Project2/BearPi_LiteOS/osdepends/liteos/cmsis/2.0\cmsis_liteos2.c ****         return osErrorParameter;
 1239              		.loc 1 569 0
 1240 0046 6FF00300 		mvn	r0, #3
 1241              	.LVL95:
 1242 004a 0CE0     		b	.L142
 1243              	.LVL96:
 1244              	.L144:
 570:C:/Users/lenovo/Desktop/liteos/Project2/BearPi_LiteOS/osdepends/liteos/cmsis/2.0\cmsis_liteos2.c **** 
 571:C:/Users/lenovo/Desktop/liteos/Project2/BearPi_LiteOS/osdepends/liteos/cmsis/2.0\cmsis_liteos2.c ****     case LOS_ERRNO_TSK_NOT_CREATED:
 572:C:/Users/lenovo/Desktop/liteos/Project2/BearPi_LiteOS/osdepends/liteos/cmsis/2.0\cmsis_liteos2.c ****         return osErrorResource;
 573:C:/Users/lenovo/Desktop/liteos/Project2/BearPi_LiteOS/osdepends/liteos/cmsis/2.0\cmsis_liteos2.c **** 
 574:C:/Users/lenovo/Desktop/liteos/Project2/BearPi_LiteOS/osdepends/liteos/cmsis/2.0\cmsis_liteos2.c ****     default:
 575:C:/Users/lenovo/Desktop/liteos/Project2/BearPi_LiteOS/osdepends/liteos/cmsis/2.0\cmsis_liteos2.c ****         return osOK;
 1245              		.loc 1 575 0
 1246 004c 0020     		movs	r0, #0
 1247              	.LVL97:
 1248 004e 0AE0     		b	.L142
 1249              	.LVL98:
 1250              	.L147:
 548:C:/Users/lenovo/Desktop/liteos/Project2/BearPi_LiteOS/osdepends/liteos/cmsis/2.0\cmsis_liteos2.c ****     }
 1251              		.loc 1 548 0
 1252 0050 6FF00500 		mvn	r0, #5
 1253 0054 07E0     		b	.L142
 1254              	.L148:
 553:C:/Users/lenovo/Desktop/liteos/Project2/BearPi_LiteOS/osdepends/liteos/cmsis/2.0\cmsis_liteos2.c ****     }
 1255              		.loc 1 553 0
 1256 0056 6FF00300 		mvn	r0, #3
 1257 005a 04E0     		b	.L142
 1258              	.L149:
 558:C:/Users/lenovo/Desktop/liteos/Project2/BearPi_LiteOS/osdepends/liteos/cmsis/2.0\cmsis_liteos2.c ****     }
 1259              		.loc 1 558 0
 1260 005c 6FF00300 		mvn	r0, #3
 1261 0060 01E0     		b	.L142
 1262              	.LVL99:
 1263              	.L150:
 572:C:/Users/lenovo/Desktop/liteos/Project2/BearPi_LiteOS/osdepends/liteos/cmsis/2.0\cmsis_liteos2.c **** 
 1264              		.loc 1 572 0
 1265 0062 6FF00200 		mvn	r0, #2
 1266              	.LVL100:
 1267              	.L142:
 576:C:/Users/lenovo/Desktop/liteos/Project2/BearPi_LiteOS/osdepends/liteos/cmsis/2.0\cmsis_liteos2.c ****     }
 577:C:/Users/lenovo/Desktop/liteos/Project2/BearPi_LiteOS/osdepends/liteos/cmsis/2.0\cmsis_liteos2.c **** }
 1268              		.loc 1 577 0
 1269 0066 38BD     		pop	{r3, r4, r5, pc}
 1270              		.cfi_endproc
 1271              	.LFE155:
 1273              		.section	.text.osThreadGetPriority,"ax",%progbits
 1274              		.align	1
 1275              		.global	osThreadGetPriority
 1276              		.syntax unified
 1277              		.thumb
 1278              		.thumb_func
ARM GAS  c:\Users\lenovo\AppData\Local\Temp\ccnbuj3h.s 			page 34


 1279              		.fpu fpv4-sp-d16
 1281              	osThreadGetPriority:
 1282              	.LFB156:
 578:C:/Users/lenovo/Desktop/liteos/Project2/BearPi_LiteOS/osdepends/liteos/cmsis/2.0\cmsis_liteos2.c **** 
 579:C:/Users/lenovo/Desktop/liteos/Project2/BearPi_LiteOS/osdepends/liteos/cmsis/2.0\cmsis_liteos2.c **** 
 580:C:/Users/lenovo/Desktop/liteos/Project2/BearPi_LiteOS/osdepends/liteos/cmsis/2.0\cmsis_liteos2.c **** osPriority_t osThreadGetPriority (osThreadId_t thread_id)
 581:C:/Users/lenovo/Desktop/liteos/Project2/BearPi_LiteOS/osdepends/liteos/cmsis/2.0\cmsis_liteos2.c **** {
 1283              		.loc 1 581 0
 1284              		.cfi_startproc
 1285              		@ args = 0, pretend = 0, frame = 0
 1286              		@ frame_needed = 0, uses_anonymous_args = 0
 1287              	.LVL101:
 1288 0000 10B5     		push	{r4, lr}
 1289              	.LCFI25:
 1290              		.cfi_def_cfa_offset 8
 1291              		.cfi_offset 4, -8
 1292              		.cfi_offset 14, -4
 1293 0002 0446     		mov	r4, r0
 1294              	.LVL102:
 582:C:/Users/lenovo/Desktop/liteos/Project2/BearPi_LiteOS/osdepends/liteos/cmsis/2.0\cmsis_liteos2.c ****     UINT16 usRet;
 583:C:/Users/lenovo/Desktop/liteos/Project2/BearPi_LiteOS/osdepends/liteos/cmsis/2.0\cmsis_liteos2.c ****     LOS_TASK_CB *pstTaskCB = NULL;
 584:C:/Users/lenovo/Desktop/liteos/Project2/BearPi_LiteOS/osdepends/liteos/cmsis/2.0\cmsis_liteos2.c **** 
 585:C:/Users/lenovo/Desktop/liteos/Project2/BearPi_LiteOS/osdepends/liteos/cmsis/2.0\cmsis_liteos2.c ****     if (OS_INT_ACTIVE || thread_id == NULL)
 1295              		.loc 1 585 0
 1296 0004 FFF7FEFF 		bl	osIntNumGet
 1297              	.LVL103:
 1298 0008 50B9     		cbnz	r0, .L154
 1299              		.loc 1 585 0 is_stmt 0 discriminator 1
 1300 000a 64B1     		cbz	r4, .L155
 1301              	.LVL104:
 586:C:/Users/lenovo/Desktop/liteos/Project2/BearPi_LiteOS/osdepends/liteos/cmsis/2.0\cmsis_liteos2.c ****     {
 587:C:/Users/lenovo/Desktop/liteos/Project2/BearPi_LiteOS/osdepends/liteos/cmsis/2.0\cmsis_liteos2.c ****         return osPriorityError;
 588:C:/Users/lenovo/Desktop/liteos/Project2/BearPi_LiteOS/osdepends/liteos/cmsis/2.0\cmsis_liteos2.c ****     }
 589:C:/Users/lenovo/Desktop/liteos/Project2/BearPi_LiteOS/osdepends/liteos/cmsis/2.0\cmsis_liteos2.c **** 
 590:C:/Users/lenovo/Desktop/liteos/Project2/BearPi_LiteOS/osdepends/liteos/cmsis/2.0\cmsis_liteos2.c ****     pstTaskCB = (LOS_TASK_CB *)thread_id;
 591:C:/Users/lenovo/Desktop/liteos/Project2/BearPi_LiteOS/osdepends/liteos/cmsis/2.0\cmsis_liteos2.c ****     usRet = LOS_TaskPriGet(pstTaskCB->uwTaskID);
 1302              		.loc 1 591 0 is_stmt 1
 1303 000c 2069     		ldr	r0, [r4, #16]
 1304 000e FFF7FEFF 		bl	LOS_TaskPriGet
 1305              	.LVL105:
 592:C:/Users/lenovo/Desktop/liteos/Project2/BearPi_LiteOS/osdepends/liteos/cmsis/2.0\cmsis_liteos2.c **** 
 593:C:/Users/lenovo/Desktop/liteos/Project2/BearPi_LiteOS/osdepends/liteos/cmsis/2.0\cmsis_liteos2.c ****     if (usRet == (UINT16)OS_INVALID)
 1306              		.loc 1 593 0
 1307 0012 4FF6FF73 		movw	r3, #65535
 1308 0016 9842     		cmp	r0, r3
 1309 0018 08D0     		beq	.L156
 594:C:/Users/lenovo/Desktop/liteos/Project2/BearPi_LiteOS/osdepends/liteos/cmsis/2.0\cmsis_liteos2.c ****     {
 595:C:/Users/lenovo/Desktop/liteos/Project2/BearPi_LiteOS/osdepends/liteos/cmsis/2.0\cmsis_liteos2.c ****         return osPriorityError;
 596:C:/Users/lenovo/Desktop/liteos/Project2/BearPi_LiteOS/osdepends/liteos/cmsis/2.0\cmsis_liteos2.c ****     }
 597:C:/Users/lenovo/Desktop/liteos/Project2/BearPi_LiteOS/osdepends/liteos/cmsis/2.0\cmsis_liteos2.c **** 
 598:C:/Users/lenovo/Desktop/liteos/Project2/BearPi_LiteOS/osdepends/liteos/cmsis/2.0\cmsis_liteos2.c ****     return (osPriority_t)(OS_TASK_PRIORITY_LOWEST - (usRet - LOS_PRIORITY_WIN));
 1310              		.loc 1 598 0
 1311 001a C0F12700 		rsb	r0, r0, #39
 1312              	.LVL106:
 1313              	.L152:
 599:C:/Users/lenovo/Desktop/liteos/Project2/BearPi_LiteOS/osdepends/liteos/cmsis/2.0\cmsis_liteos2.c **** }
 1314              		.loc 1 599 0
ARM GAS  c:\Users\lenovo\AppData\Local\Temp\ccnbuj3h.s 			page 35


 1315 001e 10BD     		pop	{r4, pc}
 1316              	.LVL107:
 1317              	.L154:
 587:C:/Users/lenovo/Desktop/liteos/Project2/BearPi_LiteOS/osdepends/liteos/cmsis/2.0\cmsis_liteos2.c ****     }
 1318              		.loc 1 587 0
 1319 0020 4FF0FF30 		mov	r0, #-1
 1320 0024 FBE7     		b	.L152
 1321              	.L155:
 1322 0026 4FF0FF30 		mov	r0, #-1
 1323 002a F8E7     		b	.L152
 1324              	.LVL108:
 1325              	.L156:
 595:C:/Users/lenovo/Desktop/liteos/Project2/BearPi_LiteOS/osdepends/liteos/cmsis/2.0\cmsis_liteos2.c ****     }
 1326              		.loc 1 595 0
 1327 002c 4FF0FF30 		mov	r0, #-1
 1328              	.LVL109:
 1329 0030 F5E7     		b	.L152
 1330              		.cfi_endproc
 1331              	.LFE156:
 1333              		.section	.text.osThreadYield,"ax",%progbits
 1334              		.align	1
 1335              		.global	osThreadYield
 1336              		.syntax unified
 1337              		.thumb
 1338              		.thumb_func
 1339              		.fpu fpv4-sp-d16
 1341              	osThreadYield:
 1342              	.LFB157:
 600:C:/Users/lenovo/Desktop/liteos/Project2/BearPi_LiteOS/osdepends/liteos/cmsis/2.0\cmsis_liteos2.c **** 
 601:C:/Users/lenovo/Desktop/liteos/Project2/BearPi_LiteOS/osdepends/liteos/cmsis/2.0\cmsis_liteos2.c **** 
 602:C:/Users/lenovo/Desktop/liteos/Project2/BearPi_LiteOS/osdepends/liteos/cmsis/2.0\cmsis_liteos2.c **** osStatus_t osThreadYield (void)
 603:C:/Users/lenovo/Desktop/liteos/Project2/BearPi_LiteOS/osdepends/liteos/cmsis/2.0\cmsis_liteos2.c **** {
 1343              		.loc 1 603 0
 1344              		.cfi_startproc
 1345              		@ args = 0, pretend = 0, frame = 0
 1346              		@ frame_needed = 0, uses_anonymous_args = 0
 1347 0000 08B5     		push	{r3, lr}
 1348              	.LCFI26:
 1349              		.cfi_def_cfa_offset 8
 1350              		.cfi_offset 3, -8
 1351              		.cfi_offset 14, -4
 604:C:/Users/lenovo/Desktop/liteos/Project2/BearPi_LiteOS/osdepends/liteos/cmsis/2.0\cmsis_liteos2.c ****     UINT32 uwRet;
 605:C:/Users/lenovo/Desktop/liteos/Project2/BearPi_LiteOS/osdepends/liteos/cmsis/2.0\cmsis_liteos2.c **** 
 606:C:/Users/lenovo/Desktop/liteos/Project2/BearPi_LiteOS/osdepends/liteos/cmsis/2.0\cmsis_liteos2.c ****     if (OS_INT_ACTIVE)
 1352              		.loc 1 606 0
 1353 0002 FFF7FEFF 		bl	osIntNumGet
 1354              	.LVL110:
 1355 0006 18B9     		cbnz	r0, .L160
 607:C:/Users/lenovo/Desktop/liteos/Project2/BearPi_LiteOS/osdepends/liteos/cmsis/2.0\cmsis_liteos2.c ****     {
 608:C:/Users/lenovo/Desktop/liteos/Project2/BearPi_LiteOS/osdepends/liteos/cmsis/2.0\cmsis_liteos2.c ****         return osErrorISR;
 609:C:/Users/lenovo/Desktop/liteos/Project2/BearPi_LiteOS/osdepends/liteos/cmsis/2.0\cmsis_liteos2.c ****     }
 610:C:/Users/lenovo/Desktop/liteos/Project2/BearPi_LiteOS/osdepends/liteos/cmsis/2.0\cmsis_liteos2.c **** 
 611:C:/Users/lenovo/Desktop/liteos/Project2/BearPi_LiteOS/osdepends/liteos/cmsis/2.0\cmsis_liteos2.c ****     uwRet = LOS_TaskYield();
 1356              		.loc 1 611 0
 1357 0008 FFF7FEFF 		bl	LOS_TaskYield
 1358              	.LVL111:
 612:C:/Users/lenovo/Desktop/liteos/Project2/BearPi_LiteOS/osdepends/liteos/cmsis/2.0\cmsis_liteos2.c **** 
ARM GAS  c:\Users\lenovo\AppData\Local\Temp\ccnbuj3h.s 			page 36


 613:C:/Users/lenovo/Desktop/liteos/Project2/BearPi_LiteOS/osdepends/liteos/cmsis/2.0\cmsis_liteos2.c ****     if (uwRet == LOS_OK)
 1359              		.loc 1 613 0
 1360 000c 18B9     		cbnz	r0, .L161
 1361              	.LVL112:
 1362              	.L158:
 614:C:/Users/lenovo/Desktop/liteos/Project2/BearPi_LiteOS/osdepends/liteos/cmsis/2.0\cmsis_liteos2.c ****     {
 615:C:/Users/lenovo/Desktop/liteos/Project2/BearPi_LiteOS/osdepends/liteos/cmsis/2.0\cmsis_liteos2.c ****         return osOK;
 616:C:/Users/lenovo/Desktop/liteos/Project2/BearPi_LiteOS/osdepends/liteos/cmsis/2.0\cmsis_liteos2.c ****     }
 617:C:/Users/lenovo/Desktop/liteos/Project2/BearPi_LiteOS/osdepends/liteos/cmsis/2.0\cmsis_liteos2.c **** 
 618:C:/Users/lenovo/Desktop/liteos/Project2/BearPi_LiteOS/osdepends/liteos/cmsis/2.0\cmsis_liteos2.c ****     return osError;
 619:C:/Users/lenovo/Desktop/liteos/Project2/BearPi_LiteOS/osdepends/liteos/cmsis/2.0\cmsis_liteos2.c **** }
 1363              		.loc 1 619 0
 1364 000e 08BD     		pop	{r3, pc}
 1365              	.L160:
 608:C:/Users/lenovo/Desktop/liteos/Project2/BearPi_LiteOS/osdepends/liteos/cmsis/2.0\cmsis_liteos2.c ****     }
 1366              		.loc 1 608 0
 1367 0010 6FF00500 		mvn	r0, #5
 1368 0014 FBE7     		b	.L158
 1369              	.LVL113:
 1370              	.L161:
 618:C:/Users/lenovo/Desktop/liteos/Project2/BearPi_LiteOS/osdepends/liteos/cmsis/2.0\cmsis_liteos2.c **** }
 1371              		.loc 1 618 0
 1372 0016 4FF0FF30 		mov	r0, #-1
 1373              	.LVL114:
 1374 001a F8E7     		b	.L158
 1375              		.cfi_endproc
 1376              	.LFE157:
 1378              		.section	.text.osThreadSuspend,"ax",%progbits
 1379              		.align	1
 1380              		.global	osThreadSuspend
 1381              		.syntax unified
 1382              		.thumb
 1383              		.thumb_func
 1384              		.fpu fpv4-sp-d16
 1386              	osThreadSuspend:
 1387              	.LFB158:
 620:C:/Users/lenovo/Desktop/liteos/Project2/BearPi_LiteOS/osdepends/liteos/cmsis/2.0\cmsis_liteos2.c **** 
 621:C:/Users/lenovo/Desktop/liteos/Project2/BearPi_LiteOS/osdepends/liteos/cmsis/2.0\cmsis_liteos2.c **** 
 622:C:/Users/lenovo/Desktop/liteos/Project2/BearPi_LiteOS/osdepends/liteos/cmsis/2.0\cmsis_liteos2.c **** osStatus_t osThreadSuspend (osThreadId_t thread_id)
 623:C:/Users/lenovo/Desktop/liteos/Project2/BearPi_LiteOS/osdepends/liteos/cmsis/2.0\cmsis_liteos2.c **** {
 1388              		.loc 1 623 0
 1389              		.cfi_startproc
 1390              		@ args = 0, pretend = 0, frame = 0
 1391              		@ frame_needed = 0, uses_anonymous_args = 0
 1392              	.LVL115:
 1393 0000 10B5     		push	{r4, lr}
 1394              	.LCFI27:
 1395              		.cfi_def_cfa_offset 8
 1396              		.cfi_offset 4, -8
 1397              		.cfi_offset 14, -4
 1398 0002 0446     		mov	r4, r0
 1399              	.LVL116:
 624:C:/Users/lenovo/Desktop/liteos/Project2/BearPi_LiteOS/osdepends/liteos/cmsis/2.0\cmsis_liteos2.c ****     UINT32 uwRet;
 625:C:/Users/lenovo/Desktop/liteos/Project2/BearPi_LiteOS/osdepends/liteos/cmsis/2.0\cmsis_liteos2.c ****     LOS_TASK_CB *pstTaskCB = NULL;
 626:C:/Users/lenovo/Desktop/liteos/Project2/BearPi_LiteOS/osdepends/liteos/cmsis/2.0\cmsis_liteos2.c **** 
 627:C:/Users/lenovo/Desktop/liteos/Project2/BearPi_LiteOS/osdepends/liteos/cmsis/2.0\cmsis_liteos2.c ****     if (OS_INT_ACTIVE)
 1400              		.loc 1 627 0
ARM GAS  c:\Users\lenovo\AppData\Local\Temp\ccnbuj3h.s 			page 37


 1401 0004 FFF7FEFF 		bl	osIntNumGet
 1402              	.LVL117:
 1403 0008 F0B9     		cbnz	r0, .L168
 628:C:/Users/lenovo/Desktop/liteos/Project2/BearPi_LiteOS/osdepends/liteos/cmsis/2.0\cmsis_liteos2.c ****     {
 629:C:/Users/lenovo/Desktop/liteos/Project2/BearPi_LiteOS/osdepends/liteos/cmsis/2.0\cmsis_liteos2.c ****         return osErrorISR;
 630:C:/Users/lenovo/Desktop/liteos/Project2/BearPi_LiteOS/osdepends/liteos/cmsis/2.0\cmsis_liteos2.c ****     }
 631:C:/Users/lenovo/Desktop/liteos/Project2/BearPi_LiteOS/osdepends/liteos/cmsis/2.0\cmsis_liteos2.c **** 
 632:C:/Users/lenovo/Desktop/liteos/Project2/BearPi_LiteOS/osdepends/liteos/cmsis/2.0\cmsis_liteos2.c ****     if (thread_id == NULL)
 1404              		.loc 1 632 0
 1405 000a 04B3     		cbz	r4, .L169
 1406              	.LVL118:
 633:C:/Users/lenovo/Desktop/liteos/Project2/BearPi_LiteOS/osdepends/liteos/cmsis/2.0\cmsis_liteos2.c ****     {
 634:C:/Users/lenovo/Desktop/liteos/Project2/BearPi_LiteOS/osdepends/liteos/cmsis/2.0\cmsis_liteos2.c ****         return osErrorParameter;
 635:C:/Users/lenovo/Desktop/liteos/Project2/BearPi_LiteOS/osdepends/liteos/cmsis/2.0\cmsis_liteos2.c ****     }
 636:C:/Users/lenovo/Desktop/liteos/Project2/BearPi_LiteOS/osdepends/liteos/cmsis/2.0\cmsis_liteos2.c **** 
 637:C:/Users/lenovo/Desktop/liteos/Project2/BearPi_LiteOS/osdepends/liteos/cmsis/2.0\cmsis_liteos2.c ****     pstTaskCB = (LOS_TASK_CB *)thread_id;
 638:C:/Users/lenovo/Desktop/liteos/Project2/BearPi_LiteOS/osdepends/liteos/cmsis/2.0\cmsis_liteos2.c ****     uwRet = LOS_TaskSuspend(pstTaskCB->uwTaskID);
 1407              		.loc 1 638 0
 1408 000c 2069     		ldr	r0, [r4, #16]
 1409 000e FFF7FEFF 		bl	LOS_TaskSuspend
 1410              	.LVL119:
 639:C:/Users/lenovo/Desktop/liteos/Project2/BearPi_LiteOS/osdepends/liteos/cmsis/2.0\cmsis_liteos2.c ****     switch (uwRet)
 1411              		.loc 1 639 0
 1412 0012 104B     		ldr	r3, .L173
 1413 0014 9842     		cmp	r0, r3
 1414 0016 11D0     		beq	.L170
 1415 0018 0AD9     		bls	.L172
 1416 001a 0F4B     		ldr	r3, .L173+4
 1417 001c 9842     		cmp	r0, r3
 1418 001e 10D0     		beq	.L167
 1419 0020 0E4B     		ldr	r3, .L173+8
 1420 0022 9842     		cmp	r0, r3
 1421 0024 0AD0     		beq	.L170
 1422 0026 0E4B     		ldr	r3, .L173+12
 1423 0028 9842     		cmp	r0, r3
 1424 002a 0AD0     		beq	.L167
 1425              	.L165:
 640:C:/Users/lenovo/Desktop/liteos/Project2/BearPi_LiteOS/osdepends/liteos/cmsis/2.0\cmsis_liteos2.c ****     {
 641:C:/Users/lenovo/Desktop/liteos/Project2/BearPi_LiteOS/osdepends/liteos/cmsis/2.0\cmsis_liteos2.c ****     case LOS_ERRNO_TSK_OPERATE_IDLE:
 642:C:/Users/lenovo/Desktop/liteos/Project2/BearPi_LiteOS/osdepends/liteos/cmsis/2.0\cmsis_liteos2.c ****     case LOS_ERRNO_TSK_SUSPEND_SWTMR_NOT_ALLOWED:
 643:C:/Users/lenovo/Desktop/liteos/Project2/BearPi_LiteOS/osdepends/liteos/cmsis/2.0\cmsis_liteos2.c ****     case LOS_ERRNO_TSK_ID_INVALID:
 644:C:/Users/lenovo/Desktop/liteos/Project2/BearPi_LiteOS/osdepends/liteos/cmsis/2.0\cmsis_liteos2.c ****         return osErrorParameter;
 645:C:/Users/lenovo/Desktop/liteos/Project2/BearPi_LiteOS/osdepends/liteos/cmsis/2.0\cmsis_liteos2.c **** 
 646:C:/Users/lenovo/Desktop/liteos/Project2/BearPi_LiteOS/osdepends/liteos/cmsis/2.0\cmsis_liteos2.c ****     case LOS_ERRNO_TSK_NOT_CREATED:
 647:C:/Users/lenovo/Desktop/liteos/Project2/BearPi_LiteOS/osdepends/liteos/cmsis/2.0\cmsis_liteos2.c ****     case LOS_ERRNO_TSK_ALREADY_SUSPENDED:
 648:C:/Users/lenovo/Desktop/liteos/Project2/BearPi_LiteOS/osdepends/liteos/cmsis/2.0\cmsis_liteos2.c ****     case LOS_ERRNO_TSK_SUSPEND_LOCKED:
 649:C:/Users/lenovo/Desktop/liteos/Project2/BearPi_LiteOS/osdepends/liteos/cmsis/2.0\cmsis_liteos2.c ****         return osErrorResource;
 650:C:/Users/lenovo/Desktop/liteos/Project2/BearPi_LiteOS/osdepends/liteos/cmsis/2.0\cmsis_liteos2.c **** 
 651:C:/Users/lenovo/Desktop/liteos/Project2/BearPi_LiteOS/osdepends/liteos/cmsis/2.0\cmsis_liteos2.c ****     default:
 652:C:/Users/lenovo/Desktop/liteos/Project2/BearPi_LiteOS/osdepends/liteos/cmsis/2.0\cmsis_liteos2.c ****         return osOK;
 1426              		.loc 1 652 0
 1427 002c 0020     		movs	r0, #0
 1428              	.LVL120:
 1429              	.L163:
 653:C:/Users/lenovo/Desktop/liteos/Project2/BearPi_LiteOS/osdepends/liteos/cmsis/2.0\cmsis_liteos2.c ****     }
 654:C:/Users/lenovo/Desktop/liteos/Project2/BearPi_LiteOS/osdepends/liteos/cmsis/2.0\cmsis_liteos2.c **** }
 1430              		.loc 1 654 0
ARM GAS  c:\Users\lenovo\AppData\Local\Temp\ccnbuj3h.s 			page 38


 1431 002e 10BD     		pop	{r4, pc}
 1432              	.LVL121:
 1433              	.L172:
 639:C:/Users/lenovo/Desktop/liteos/Project2/BearPi_LiteOS/osdepends/liteos/cmsis/2.0\cmsis_liteos2.c ****     {
 1434              		.loc 1 639 0
 1435 0030 033B     		subs	r3, r3, #3
 1436 0032 9842     		cmp	r0, r3
 1437 0034 05D0     		beq	.L167
 1438 0036 0133     		adds	r3, r3, #1
 1439 0038 9842     		cmp	r0, r3
 1440 003a F7D1     		bne	.L165
 1441              	.L170:
 649:C:/Users/lenovo/Desktop/liteos/Project2/BearPi_LiteOS/osdepends/liteos/cmsis/2.0\cmsis_liteos2.c **** 
 1442              		.loc 1 649 0
 1443 003c 6FF00200 		mvn	r0, #2
 1444              	.LVL122:
 1445 0040 F5E7     		b	.L163
 1446              	.LVL123:
 1447              	.L167:
 644:C:/Users/lenovo/Desktop/liteos/Project2/BearPi_LiteOS/osdepends/liteos/cmsis/2.0\cmsis_liteos2.c **** 
 1448              		.loc 1 644 0
 1449 0042 6FF00300 		mvn	r0, #3
 1450              	.LVL124:
 1451 0046 F2E7     		b	.L163
 1452              	.LVL125:
 1453              	.L168:
 629:C:/Users/lenovo/Desktop/liteos/Project2/BearPi_LiteOS/osdepends/liteos/cmsis/2.0\cmsis_liteos2.c ****     }
 1454              		.loc 1 629 0
 1455 0048 6FF00500 		mvn	r0, #5
 1456 004c EFE7     		b	.L163
 1457              	.L169:
 634:C:/Users/lenovo/Desktop/liteos/Project2/BearPi_LiteOS/osdepends/liteos/cmsis/2.0\cmsis_liteos2.c ****     }
 1458              		.loc 1 634 0
 1459 004e 6FF00300 		mvn	r0, #3
 1460 0052 ECE7     		b	.L163
 1461              	.L174:
 1462              		.align	2
 1463              	.L173:
 1464 0054 0A020002 		.word	33554954
 1465 0058 21020002 		.word	33554977
 1466 005c 15020003 		.word	50332181
 1467 0060 14020002 		.word	33554964
 1468              		.cfi_endproc
 1469              	.LFE158:
 1471              		.section	.text.osThreadResume,"ax",%progbits
 1472              		.align	1
 1473              		.global	osThreadResume
 1474              		.syntax unified
 1475              		.thumb
 1476              		.thumb_func
 1477              		.fpu fpv4-sp-d16
 1479              	osThreadResume:
 1480              	.LFB159:
 655:C:/Users/lenovo/Desktop/liteos/Project2/BearPi_LiteOS/osdepends/liteos/cmsis/2.0\cmsis_liteos2.c **** 
 656:C:/Users/lenovo/Desktop/liteos/Project2/BearPi_LiteOS/osdepends/liteos/cmsis/2.0\cmsis_liteos2.c **** 
 657:C:/Users/lenovo/Desktop/liteos/Project2/BearPi_LiteOS/osdepends/liteos/cmsis/2.0\cmsis_liteos2.c **** osStatus_t osThreadResume (osThreadId_t thread_id)
 658:C:/Users/lenovo/Desktop/liteos/Project2/BearPi_LiteOS/osdepends/liteos/cmsis/2.0\cmsis_liteos2.c **** {
ARM GAS  c:\Users\lenovo\AppData\Local\Temp\ccnbuj3h.s 			page 39


 1481              		.loc 1 658 0
 1482              		.cfi_startproc
 1483              		@ args = 0, pretend = 0, frame = 0
 1484              		@ frame_needed = 0, uses_anonymous_args = 0
 1485              	.LVL126:
 1486 0000 10B5     		push	{r4, lr}
 1487              	.LCFI28:
 1488              		.cfi_def_cfa_offset 8
 1489              		.cfi_offset 4, -8
 1490              		.cfi_offset 14, -4
 1491 0002 0446     		mov	r4, r0
 1492              	.LVL127:
 659:C:/Users/lenovo/Desktop/liteos/Project2/BearPi_LiteOS/osdepends/liteos/cmsis/2.0\cmsis_liteos2.c ****     UINT32 uwRet;
 660:C:/Users/lenovo/Desktop/liteos/Project2/BearPi_LiteOS/osdepends/liteos/cmsis/2.0\cmsis_liteos2.c ****     LOS_TASK_CB *pstTaskCB = NULL;
 661:C:/Users/lenovo/Desktop/liteos/Project2/BearPi_LiteOS/osdepends/liteos/cmsis/2.0\cmsis_liteos2.c **** 
 662:C:/Users/lenovo/Desktop/liteos/Project2/BearPi_LiteOS/osdepends/liteos/cmsis/2.0\cmsis_liteos2.c ****     if (OS_INT_ACTIVE)
 1493              		.loc 1 662 0
 1494 0004 FFF7FEFF 		bl	osIntNumGet
 1495              	.LVL128:
 1496 0008 A0B9     		cbnz	r0, .L179
 663:C:/Users/lenovo/Desktop/liteos/Project2/BearPi_LiteOS/osdepends/liteos/cmsis/2.0\cmsis_liteos2.c ****     {
 664:C:/Users/lenovo/Desktop/liteos/Project2/BearPi_LiteOS/osdepends/liteos/cmsis/2.0\cmsis_liteos2.c ****         return osErrorISR;
 665:C:/Users/lenovo/Desktop/liteos/Project2/BearPi_LiteOS/osdepends/liteos/cmsis/2.0\cmsis_liteos2.c ****     }
 666:C:/Users/lenovo/Desktop/liteos/Project2/BearPi_LiteOS/osdepends/liteos/cmsis/2.0\cmsis_liteos2.c **** 
 667:C:/Users/lenovo/Desktop/liteos/Project2/BearPi_LiteOS/osdepends/liteos/cmsis/2.0\cmsis_liteos2.c ****     if (thread_id == NULL)
 1497              		.loc 1 667 0
 1498 000a B4B1     		cbz	r4, .L180
 1499              	.LVL129:
 668:C:/Users/lenovo/Desktop/liteos/Project2/BearPi_LiteOS/osdepends/liteos/cmsis/2.0\cmsis_liteos2.c ****     {
 669:C:/Users/lenovo/Desktop/liteos/Project2/BearPi_LiteOS/osdepends/liteos/cmsis/2.0\cmsis_liteos2.c ****         return osErrorParameter;
 670:C:/Users/lenovo/Desktop/liteos/Project2/BearPi_LiteOS/osdepends/liteos/cmsis/2.0\cmsis_liteos2.c ****     }
 671:C:/Users/lenovo/Desktop/liteos/Project2/BearPi_LiteOS/osdepends/liteos/cmsis/2.0\cmsis_liteos2.c **** 
 672:C:/Users/lenovo/Desktop/liteos/Project2/BearPi_LiteOS/osdepends/liteos/cmsis/2.0\cmsis_liteos2.c ****     pstTaskCB = (LOS_TASK_CB *)thread_id;
 673:C:/Users/lenovo/Desktop/liteos/Project2/BearPi_LiteOS/osdepends/liteos/cmsis/2.0\cmsis_liteos2.c ****     uwRet = LOS_TaskResume(pstTaskCB->uwTaskID);
 1500              		.loc 1 673 0
 1501 000c 2069     		ldr	r0, [r4, #16]
 1502 000e FFF7FEFF 		bl	LOS_TaskResume
 1503              	.LVL130:
 674:C:/Users/lenovo/Desktop/liteos/Project2/BearPi_LiteOS/osdepends/liteos/cmsis/2.0\cmsis_liteos2.c **** 
 675:C:/Users/lenovo/Desktop/liteos/Project2/BearPi_LiteOS/osdepends/liteos/cmsis/2.0\cmsis_liteos2.c ****     switch (uwRet)
 1504              		.loc 1 675 0
 1505 0012 0B4B     		ldr	r3, .L184
 1506 0014 9842     		cmp	r0, r3
 1507 0016 08D0     		beq	.L178
 1508 0018 0AD3     		bcc	.L177
 1509 001a A0F10220 		sub	r0, r0, #33554944
 1510              	.LVL131:
 1511 001e 0938     		subs	r0, r0, #9
 1512              	.LVL132:
 1513 0020 0128     		cmp	r0, #1
 1514 0022 05D8     		bhi	.L177
 676:C:/Users/lenovo/Desktop/liteos/Project2/BearPi_LiteOS/osdepends/liteos/cmsis/2.0\cmsis_liteos2.c ****     {
 677:C:/Users/lenovo/Desktop/liteos/Project2/BearPi_LiteOS/osdepends/liteos/cmsis/2.0\cmsis_liteos2.c ****     case LOS_ERRNO_TSK_ID_INVALID:
 678:C:/Users/lenovo/Desktop/liteos/Project2/BearPi_LiteOS/osdepends/liteos/cmsis/2.0\cmsis_liteos2.c ****         return osErrorParameter;
 679:C:/Users/lenovo/Desktop/liteos/Project2/BearPi_LiteOS/osdepends/liteos/cmsis/2.0\cmsis_liteos2.c **** 
 680:C:/Users/lenovo/Desktop/liteos/Project2/BearPi_LiteOS/osdepends/liteos/cmsis/2.0\cmsis_liteos2.c ****     case LOS_ERRNO_TSK_NOT_CREATED:
 681:C:/Users/lenovo/Desktop/liteos/Project2/BearPi_LiteOS/osdepends/liteos/cmsis/2.0\cmsis_liteos2.c ****     case LOS_ERRNO_TSK_NOT_SUSPENDED:
ARM GAS  c:\Users\lenovo\AppData\Local\Temp\ccnbuj3h.s 			page 40


 682:C:/Users/lenovo/Desktop/liteos/Project2/BearPi_LiteOS/osdepends/liteos/cmsis/2.0\cmsis_liteos2.c ****         return osErrorResource;
 1515              		.loc 1 682 0
 1516 0024 6FF00200 		mvn	r0, #2
 1517              	.LVL133:
 1518 0028 03E0     		b	.L175
 1519              	.LVL134:
 1520              	.L178:
 678:C:/Users/lenovo/Desktop/liteos/Project2/BearPi_LiteOS/osdepends/liteos/cmsis/2.0\cmsis_liteos2.c **** 
 1521              		.loc 1 678 0
 1522 002a 6FF00300 		mvn	r0, #3
 1523              	.LVL135:
 1524 002e 00E0     		b	.L175
 1525              	.L177:
 683:C:/Users/lenovo/Desktop/liteos/Project2/BearPi_LiteOS/osdepends/liteos/cmsis/2.0\cmsis_liteos2.c **** 
 684:C:/Users/lenovo/Desktop/liteos/Project2/BearPi_LiteOS/osdepends/liteos/cmsis/2.0\cmsis_liteos2.c ****     default:
 685:C:/Users/lenovo/Desktop/liteos/Project2/BearPi_LiteOS/osdepends/liteos/cmsis/2.0\cmsis_liteos2.c ****         return osOK;
 1526              		.loc 1 685 0
 1527 0030 0020     		movs	r0, #0
 1528              	.LVL136:
 1529              	.L175:
 686:C:/Users/lenovo/Desktop/liteos/Project2/BearPi_LiteOS/osdepends/liteos/cmsis/2.0\cmsis_liteos2.c ****     }
 687:C:/Users/lenovo/Desktop/liteos/Project2/BearPi_LiteOS/osdepends/liteos/cmsis/2.0\cmsis_liteos2.c **** 
 688:C:/Users/lenovo/Desktop/liteos/Project2/BearPi_LiteOS/osdepends/liteos/cmsis/2.0\cmsis_liteos2.c **** }
 1530              		.loc 1 688 0
 1531 0032 10BD     		pop	{r4, pc}
 1532              	.LVL137:
 1533              	.L179:
 664:C:/Users/lenovo/Desktop/liteos/Project2/BearPi_LiteOS/osdepends/liteos/cmsis/2.0\cmsis_liteos2.c ****     }
 1534              		.loc 1 664 0
 1535 0034 6FF00500 		mvn	r0, #5
 1536 0038 FBE7     		b	.L175
 1537              	.L180:
 669:C:/Users/lenovo/Desktop/liteos/Project2/BearPi_LiteOS/osdepends/liteos/cmsis/2.0\cmsis_liteos2.c ****     }
 1538              		.loc 1 669 0
 1539 003a 6FF00300 		mvn	r0, #3
 1540 003e F8E7     		b	.L175
 1541              	.L185:
 1542              		.align	2
 1543              	.L184:
 1544 0040 07020002 		.word	33554951
 1545              		.cfi_endproc
 1546              	.LFE159:
 1548              		.section	.text.osThreadTerminate,"ax",%progbits
 1549              		.align	1
 1550              		.global	osThreadTerminate
 1551              		.syntax unified
 1552              		.thumb
 1553              		.thumb_func
 1554              		.fpu fpv4-sp-d16
 1556              	osThreadTerminate:
 1557              	.LFB160:
 689:C:/Users/lenovo/Desktop/liteos/Project2/BearPi_LiteOS/osdepends/liteos/cmsis/2.0\cmsis_liteos2.c **** 
 690:C:/Users/lenovo/Desktop/liteos/Project2/BearPi_LiteOS/osdepends/liteos/cmsis/2.0\cmsis_liteos2.c **** 
 691:C:/Users/lenovo/Desktop/liteos/Project2/BearPi_LiteOS/osdepends/liteos/cmsis/2.0\cmsis_liteos2.c **** osStatus_t osThreadTerminate (osThreadId_t thread_id)
 692:C:/Users/lenovo/Desktop/liteos/Project2/BearPi_LiteOS/osdepends/liteos/cmsis/2.0\cmsis_liteos2.c **** {
 1558              		.loc 1 692 0
 1559              		.cfi_startproc
ARM GAS  c:\Users\lenovo\AppData\Local\Temp\ccnbuj3h.s 			page 41


 1560              		@ args = 0, pretend = 0, frame = 0
 1561              		@ frame_needed = 0, uses_anonymous_args = 0
 1562              	.LVL138:
 1563 0000 10B5     		push	{r4, lr}
 1564              	.LCFI29:
 1565              		.cfi_def_cfa_offset 8
 1566              		.cfi_offset 4, -8
 1567              		.cfi_offset 14, -4
 1568 0002 0446     		mov	r4, r0
 1569              	.LVL139:
 693:C:/Users/lenovo/Desktop/liteos/Project2/BearPi_LiteOS/osdepends/liteos/cmsis/2.0\cmsis_liteos2.c ****     UINT32 uwRet;
 694:C:/Users/lenovo/Desktop/liteos/Project2/BearPi_LiteOS/osdepends/liteos/cmsis/2.0\cmsis_liteos2.c ****     LOS_TASK_CB *pstTaskCB = NULL;
 695:C:/Users/lenovo/Desktop/liteos/Project2/BearPi_LiteOS/osdepends/liteos/cmsis/2.0\cmsis_liteos2.c **** 
 696:C:/Users/lenovo/Desktop/liteos/Project2/BearPi_LiteOS/osdepends/liteos/cmsis/2.0\cmsis_liteos2.c ****     if (OS_INT_ACTIVE)
 1570              		.loc 1 696 0
 1571 0004 FFF7FEFF 		bl	osIntNumGet
 1572              	.LVL140:
 1573 0008 E8B9     		cbnz	r0, .L191
 697:C:/Users/lenovo/Desktop/liteos/Project2/BearPi_LiteOS/osdepends/liteos/cmsis/2.0\cmsis_liteos2.c ****     {
 698:C:/Users/lenovo/Desktop/liteos/Project2/BearPi_LiteOS/osdepends/liteos/cmsis/2.0\cmsis_liteos2.c ****         return osErrorISR;
 699:C:/Users/lenovo/Desktop/liteos/Project2/BearPi_LiteOS/osdepends/liteos/cmsis/2.0\cmsis_liteos2.c ****     }
 700:C:/Users/lenovo/Desktop/liteos/Project2/BearPi_LiteOS/osdepends/liteos/cmsis/2.0\cmsis_liteos2.c **** 
 701:C:/Users/lenovo/Desktop/liteos/Project2/BearPi_LiteOS/osdepends/liteos/cmsis/2.0\cmsis_liteos2.c ****     if (thread_id == NULL)
 1574              		.loc 1 701 0
 1575 000a FCB1     		cbz	r4, .L192
 1576              	.LVL141:
 702:C:/Users/lenovo/Desktop/liteos/Project2/BearPi_LiteOS/osdepends/liteos/cmsis/2.0\cmsis_liteos2.c ****     {
 703:C:/Users/lenovo/Desktop/liteos/Project2/BearPi_LiteOS/osdepends/liteos/cmsis/2.0\cmsis_liteos2.c ****         return osErrorParameter;
 704:C:/Users/lenovo/Desktop/liteos/Project2/BearPi_LiteOS/osdepends/liteos/cmsis/2.0\cmsis_liteos2.c ****     }
 705:C:/Users/lenovo/Desktop/liteos/Project2/BearPi_LiteOS/osdepends/liteos/cmsis/2.0\cmsis_liteos2.c **** 
 706:C:/Users/lenovo/Desktop/liteos/Project2/BearPi_LiteOS/osdepends/liteos/cmsis/2.0\cmsis_liteos2.c ****     pstTaskCB = (LOS_TASK_CB *)thread_id;
 707:C:/Users/lenovo/Desktop/liteos/Project2/BearPi_LiteOS/osdepends/liteos/cmsis/2.0\cmsis_liteos2.c ****     uwRet = LOS_TaskDelete(pstTaskCB->uwTaskID);
 1577              		.loc 1 707 0
 1578 000c 2069     		ldr	r0, [r4, #16]
 1579 000e FFF7FEFF 		bl	LOS_TaskDelete
 1580              	.LVL142:
 708:C:/Users/lenovo/Desktop/liteos/Project2/BearPi_LiteOS/osdepends/liteos/cmsis/2.0\cmsis_liteos2.c **** 
 709:C:/Users/lenovo/Desktop/liteos/Project2/BearPi_LiteOS/osdepends/liteos/cmsis/2.0\cmsis_liteos2.c ****     switch (uwRet)
 1581              		.loc 1 709 0
 1582 0012 A0F10220 		sub	r0, r0, #33554944
 1583              	.LVL143:
 1584 0016 0738     		subs	r0, r0, #7
 1585              	.LVL144:
 1586 0018 1A28     		cmp	r0, #26
 1587 001a 12D8     		bhi	.L188
 1588 001c DFE800F0 		tbb	[pc, r0]
 1589              	.L190:
 1590 0020 0E       		.byte	(.L189-.L190)/2
 1591 0021 11       		.byte	(.L188-.L190)/2
 1592 0022 11       		.byte	(.L188-.L190)/2
 1593 0023 19       		.byte	(.L193-.L190)/2
 1594 0024 11       		.byte	(.L188-.L190)/2
 1595 0025 11       		.byte	(.L188-.L190)/2
 1596 0026 11       		.byte	(.L188-.L190)/2
 1597 0027 11       		.byte	(.L188-.L190)/2
 1598 0028 11       		.byte	(.L188-.L190)/2
 1599 0029 11       		.byte	(.L188-.L190)/2
ARM GAS  c:\Users\lenovo\AppData\Local\Temp\ccnbuj3h.s 			page 42


 1600 002a 11       		.byte	(.L188-.L190)/2
 1601 002b 11       		.byte	(.L188-.L190)/2
 1602 002c 11       		.byte	(.L188-.L190)/2
 1603 002d 0E       		.byte	(.L189-.L190)/2
 1604 002e 11       		.byte	(.L188-.L190)/2
 1605 002f 11       		.byte	(.L188-.L190)/2
 1606 0030 11       		.byte	(.L188-.L190)/2
 1607 0031 11       		.byte	(.L188-.L190)/2
 1608 0032 11       		.byte	(.L188-.L190)/2
 1609 0033 11       		.byte	(.L188-.L190)/2
 1610 0034 11       		.byte	(.L188-.L190)/2
 1611 0035 11       		.byte	(.L188-.L190)/2
 1612 0036 11       		.byte	(.L188-.L190)/2
 1613 0037 11       		.byte	(.L188-.L190)/2
 1614 0038 11       		.byte	(.L188-.L190)/2
 1615 0039 11       		.byte	(.L188-.L190)/2
 1616 003a 0E       		.byte	(.L189-.L190)/2
 1617 003b 00       		.p2align 1
 1618              	.L189:
 710:C:/Users/lenovo/Desktop/liteos/Project2/BearPi_LiteOS/osdepends/liteos/cmsis/2.0\cmsis_liteos2.c ****     {
 711:C:/Users/lenovo/Desktop/liteos/Project2/BearPi_LiteOS/osdepends/liteos/cmsis/2.0\cmsis_liteos2.c ****     case LOS_ERRNO_TSK_OPERATE_IDLE:
 712:C:/Users/lenovo/Desktop/liteos/Project2/BearPi_LiteOS/osdepends/liteos/cmsis/2.0\cmsis_liteos2.c ****     case LOS_ERRNO_TSK_SUSPEND_SWTMR_NOT_ALLOWED:
 713:C:/Users/lenovo/Desktop/liteos/Project2/BearPi_LiteOS/osdepends/liteos/cmsis/2.0\cmsis_liteos2.c ****     case LOS_ERRNO_TSK_ID_INVALID:
 714:C:/Users/lenovo/Desktop/liteos/Project2/BearPi_LiteOS/osdepends/liteos/cmsis/2.0\cmsis_liteos2.c ****         return osErrorParameter;
 1619              		.loc 1 714 0
 1620 003c 6FF00300 		mvn	r0, #3
 1621              	.LVL145:
 1622 0040 09E0     		b	.L186
 1623              	.LVL146:
 1624              	.L188:
 715:C:/Users/lenovo/Desktop/liteos/Project2/BearPi_LiteOS/osdepends/liteos/cmsis/2.0\cmsis_liteos2.c **** 
 716:C:/Users/lenovo/Desktop/liteos/Project2/BearPi_LiteOS/osdepends/liteos/cmsis/2.0\cmsis_liteos2.c ****     case LOS_ERRNO_TSK_NOT_CREATED:
 717:C:/Users/lenovo/Desktop/liteos/Project2/BearPi_LiteOS/osdepends/liteos/cmsis/2.0\cmsis_liteos2.c ****         return osErrorResource;
 718:C:/Users/lenovo/Desktop/liteos/Project2/BearPi_LiteOS/osdepends/liteos/cmsis/2.0\cmsis_liteos2.c **** 
 719:C:/Users/lenovo/Desktop/liteos/Project2/BearPi_LiteOS/osdepends/liteos/cmsis/2.0\cmsis_liteos2.c ****     default:
 720:C:/Users/lenovo/Desktop/liteos/Project2/BearPi_LiteOS/osdepends/liteos/cmsis/2.0\cmsis_liteos2.c ****         return osOK;
 1625              		.loc 1 720 0
 1626 0042 0020     		movs	r0, #0
 1627              	.LVL147:
 1628 0044 07E0     		b	.L186
 1629              	.LVL148:
 1630              	.L191:
 698:C:/Users/lenovo/Desktop/liteos/Project2/BearPi_LiteOS/osdepends/liteos/cmsis/2.0\cmsis_liteos2.c ****     }
 1631              		.loc 1 698 0
 1632 0046 6FF00500 		mvn	r0, #5
 1633 004a 04E0     		b	.L186
 1634              	.L192:
 703:C:/Users/lenovo/Desktop/liteos/Project2/BearPi_LiteOS/osdepends/liteos/cmsis/2.0\cmsis_liteos2.c ****     }
 1635              		.loc 1 703 0
 1636 004c 6FF00300 		mvn	r0, #3
 1637 0050 01E0     		b	.L186
 1638              	.LVL149:
 1639              	.L193:
 717:C:/Users/lenovo/Desktop/liteos/Project2/BearPi_LiteOS/osdepends/liteos/cmsis/2.0\cmsis_liteos2.c **** 
 1640              		.loc 1 717 0
 1641 0052 6FF00200 		mvn	r0, #2
 1642              	.LVL150:
ARM GAS  c:\Users\lenovo\AppData\Local\Temp\ccnbuj3h.s 			page 43


 1643              	.L186:
 721:C:/Users/lenovo/Desktop/liteos/Project2/BearPi_LiteOS/osdepends/liteos/cmsis/2.0\cmsis_liteos2.c ****     }
 722:C:/Users/lenovo/Desktop/liteos/Project2/BearPi_LiteOS/osdepends/liteos/cmsis/2.0\cmsis_liteos2.c **** }
 1644              		.loc 1 722 0
 1645 0056 10BD     		pop	{r4, pc}
 1646              		.cfi_endproc
 1647              	.LFE160:
 1649              		.section	.text.osThreadGetCount,"ax",%progbits
 1650              		.align	1
 1651              		.global	osThreadGetCount
 1652              		.syntax unified
 1653              		.thumb
 1654              		.thumb_func
 1655              		.fpu fpv4-sp-d16
 1657              	osThreadGetCount:
 1658              	.LFB161:
 723:C:/Users/lenovo/Desktop/liteos/Project2/BearPi_LiteOS/osdepends/liteos/cmsis/2.0\cmsis_liteos2.c **** 
 724:C:/Users/lenovo/Desktop/liteos/Project2/BearPi_LiteOS/osdepends/liteos/cmsis/2.0\cmsis_liteos2.c **** 
 725:C:/Users/lenovo/Desktop/liteos/Project2/BearPi_LiteOS/osdepends/liteos/cmsis/2.0\cmsis_liteos2.c **** uint32_t osThreadGetCount (void)
 726:C:/Users/lenovo/Desktop/liteos/Project2/BearPi_LiteOS/osdepends/liteos/cmsis/2.0\cmsis_liteos2.c **** {
 1659              		.loc 1 726 0
 1660              		.cfi_startproc
 1661              		@ args = 0, pretend = 0, frame = 0
 1662              		@ frame_needed = 0, uses_anonymous_args = 0
 1663 0000 08B5     		push	{r3, lr}
 1664              	.LCFI30:
 1665              		.cfi_def_cfa_offset 8
 1666              		.cfi_offset 3, -8
 1667              		.cfi_offset 14, -4
 1668              	.LVL151:
 727:C:/Users/lenovo/Desktop/liteos/Project2/BearPi_LiteOS/osdepends/liteos/cmsis/2.0\cmsis_liteos2.c ****     uint32_t uwCount = 0;
 728:C:/Users/lenovo/Desktop/liteos/Project2/BearPi_LiteOS/osdepends/liteos/cmsis/2.0\cmsis_liteos2.c ****     int index = 0;
 729:C:/Users/lenovo/Desktop/liteos/Project2/BearPi_LiteOS/osdepends/liteos/cmsis/2.0\cmsis_liteos2.c **** 
 730:C:/Users/lenovo/Desktop/liteos/Project2/BearPi_LiteOS/osdepends/liteos/cmsis/2.0\cmsis_liteos2.c ****     if (OS_INT_ACTIVE)
 1669              		.loc 1 730 0
 1670 0002 FFF7FEFF 		bl	osIntNumGet
 1671              	.LVL152:
 1672 0006 80B9     		cbnz	r0, .L200
 728:C:/Users/lenovo/Desktop/liteos/Project2/BearPi_LiteOS/osdepends/liteos/cmsis/2.0\cmsis_liteos2.c **** 
 1673              		.loc 1 728 0
 1674 0008 0023     		movs	r3, #0
 727:C:/Users/lenovo/Desktop/liteos/Project2/BearPi_LiteOS/osdepends/liteos/cmsis/2.0\cmsis_liteos2.c ****     uint32_t uwCount = 0;
 1675              		.loc 1 727 0
 1676 000a 1846     		mov	r0, r3
 1677 000c 00E0     		b	.L197
 1678              	.LVL153:
 1679              	.L198:
 731:C:/Users/lenovo/Desktop/liteos/Project2/BearPi_LiteOS/osdepends/liteos/cmsis/2.0\cmsis_liteos2.c ****     {
 732:C:/Users/lenovo/Desktop/liteos/Project2/BearPi_LiteOS/osdepends/liteos/cmsis/2.0\cmsis_liteos2.c ****         return 0U;
 733:C:/Users/lenovo/Desktop/liteos/Project2/BearPi_LiteOS/osdepends/liteos/cmsis/2.0\cmsis_liteos2.c ****     }
 734:C:/Users/lenovo/Desktop/liteos/Project2/BearPi_LiteOS/osdepends/liteos/cmsis/2.0\cmsis_liteos2.c **** 
 735:C:/Users/lenovo/Desktop/liteos/Project2/BearPi_LiteOS/osdepends/liteos/cmsis/2.0\cmsis_liteos2.c ****     for(; index <= LOSCFG_BASE_CORE_TSK_LIMIT; index++)
 1680              		.loc 1 735 0
 1681 000e 0133     		adds	r3, r3, #1
 1682              	.LVL154:
 1683              	.L197:
 1684              		.loc 1 735 0 is_stmt 0 discriminator 1
ARM GAS  c:\Users\lenovo\AppData\Local\Temp\ccnbuj3h.s 			page 44


 1685 0010 0F2B     		cmp	r3, #15
 1686 0012 0BDC     		bgt	.L195
 736:C:/Users/lenovo/Desktop/liteos/Project2/BearPi_LiteOS/osdepends/liteos/cmsis/2.0\cmsis_liteos2.c ****     {
 737:C:/Users/lenovo/Desktop/liteos/Project2/BearPi_LiteOS/osdepends/liteos/cmsis/2.0\cmsis_liteos2.c ****         if (!((g_pstTaskCBArray + index)->usTaskStatus & OS_TASK_STATUS_UNUSED))
 1687              		.loc 1 737 0 is_stmt 1
 1688 0014 064A     		ldr	r2, .L202
 1689 0016 1168     		ldr	r1, [r2]
 1690 0018 5422     		movs	r2, #84
 1691 001a 02FB0312 		mla	r2, r2, r3, r1
 1692 001e 9288     		ldrh	r2, [r2, #4]
 1693 0020 12F0010F 		tst	r2, #1
 1694 0024 F3D1     		bne	.L198
 738:C:/Users/lenovo/Desktop/liteos/Project2/BearPi_LiteOS/osdepends/liteos/cmsis/2.0\cmsis_liteos2.c ****         {
 739:C:/Users/lenovo/Desktop/liteos/Project2/BearPi_LiteOS/osdepends/liteos/cmsis/2.0\cmsis_liteos2.c ****             uwCount++;
 1695              		.loc 1 739 0
 1696 0026 0130     		adds	r0, r0, #1
 1697              	.LVL155:
 1698 0028 F1E7     		b	.L198
 1699              	.LVL156:
 1700              	.L200:
 732:C:/Users/lenovo/Desktop/liteos/Project2/BearPi_LiteOS/osdepends/liteos/cmsis/2.0\cmsis_liteos2.c ****     }
 1701              		.loc 1 732 0
 1702 002a 0020     		movs	r0, #0
 1703              	.LVL157:
 1704              	.L195:
 740:C:/Users/lenovo/Desktop/liteos/Project2/BearPi_LiteOS/osdepends/liteos/cmsis/2.0\cmsis_liteos2.c ****         }
 741:C:/Users/lenovo/Desktop/liteos/Project2/BearPi_LiteOS/osdepends/liteos/cmsis/2.0\cmsis_liteos2.c ****     }
 742:C:/Users/lenovo/Desktop/liteos/Project2/BearPi_LiteOS/osdepends/liteos/cmsis/2.0\cmsis_liteos2.c **** 
 743:C:/Users/lenovo/Desktop/liteos/Project2/BearPi_LiteOS/osdepends/liteos/cmsis/2.0\cmsis_liteos2.c ****     return uwCount;
 744:C:/Users/lenovo/Desktop/liteos/Project2/BearPi_LiteOS/osdepends/liteos/cmsis/2.0\cmsis_liteos2.c **** }
 1705              		.loc 1 744 0
 1706 002c 08BD     		pop	{r3, pc}
 1707              	.L203:
 1708 002e 00BF     		.align	2
 1709              	.L202:
 1710 0030 00000000 		.word	g_pstTaskCBArray
 1711              		.cfi_endproc
 1712              	.LFE161:
 1714              		.section	.text.osDelay,"ax",%progbits
 1715              		.align	1
 1716              		.global	osDelay
 1717              		.syntax unified
 1718              		.thumb
 1719              		.thumb_func
 1720              		.fpu fpv4-sp-d16
 1722              	osDelay:
 1723              	.LFB162:
 745:C:/Users/lenovo/Desktop/liteos/Project2/BearPi_LiteOS/osdepends/liteos/cmsis/2.0\cmsis_liteos2.c **** 
 746:C:/Users/lenovo/Desktop/liteos/Project2/BearPi_LiteOS/osdepends/liteos/cmsis/2.0\cmsis_liteos2.c **** 
 747:C:/Users/lenovo/Desktop/liteos/Project2/BearPi_LiteOS/osdepends/liteos/cmsis/2.0\cmsis_liteos2.c **** //  ==== Generic Wait Functions ====
 748:C:/Users/lenovo/Desktop/liteos/Project2/BearPi_LiteOS/osdepends/liteos/cmsis/2.0\cmsis_liteos2.c **** 
 749:C:/Users/lenovo/Desktop/liteos/Project2/BearPi_LiteOS/osdepends/liteos/cmsis/2.0\cmsis_liteos2.c **** osStatus_t osDelay (uint32_t ticks)
 750:C:/Users/lenovo/Desktop/liteos/Project2/BearPi_LiteOS/osdepends/liteos/cmsis/2.0\cmsis_liteos2.c **** {
 1724              		.loc 1 750 0
 1725              		.cfi_startproc
 1726              		@ args = 0, pretend = 0, frame = 0
 1727              		@ frame_needed = 0, uses_anonymous_args = 0
ARM GAS  c:\Users\lenovo\AppData\Local\Temp\ccnbuj3h.s 			page 45


 1728              	.LVL158:
 1729 0000 08B5     		push	{r3, lr}
 1730              	.LCFI31:
 1731              		.cfi_def_cfa_offset 8
 1732              		.cfi_offset 3, -8
 1733              		.cfi_offset 14, -4
 1734              	.LVL159:
 751:C:/Users/lenovo/Desktop/liteos/Project2/BearPi_LiteOS/osdepends/liteos/cmsis/2.0\cmsis_liteos2.c ****     UINT32 uwRet = 0;
 752:C:/Users/lenovo/Desktop/liteos/Project2/BearPi_LiteOS/osdepends/liteos/cmsis/2.0\cmsis_liteos2.c **** 
 753:C:/Users/lenovo/Desktop/liteos/Project2/BearPi_LiteOS/osdepends/liteos/cmsis/2.0\cmsis_liteos2.c ****     uwRet = LOS_TaskDelay(ticks);
 1735              		.loc 1 753 0
 1736 0002 FFF7FEFF 		bl	LOS_TaskDelay
 1737              	.LVL160:
 754:C:/Users/lenovo/Desktop/liteos/Project2/BearPi_LiteOS/osdepends/liteos/cmsis/2.0\cmsis_liteos2.c ****     if(uwRet == LOS_OK)
 1738              		.loc 1 754 0
 1739 0006 00B9     		cbnz	r0, .L208
 1740              	.LVL161:
 1741              	.L204:
 755:C:/Users/lenovo/Desktop/liteos/Project2/BearPi_LiteOS/osdepends/liteos/cmsis/2.0\cmsis_liteos2.c ****     {
 756:C:/Users/lenovo/Desktop/liteos/Project2/BearPi_LiteOS/osdepends/liteos/cmsis/2.0\cmsis_liteos2.c ****         return osOK;
 757:C:/Users/lenovo/Desktop/liteos/Project2/BearPi_LiteOS/osdepends/liteos/cmsis/2.0\cmsis_liteos2.c ****     }
 758:C:/Users/lenovo/Desktop/liteos/Project2/BearPi_LiteOS/osdepends/liteos/cmsis/2.0\cmsis_liteos2.c ****     else
 759:C:/Users/lenovo/Desktop/liteos/Project2/BearPi_LiteOS/osdepends/liteos/cmsis/2.0\cmsis_liteos2.c ****     {
 760:C:/Users/lenovo/Desktop/liteos/Project2/BearPi_LiteOS/osdepends/liteos/cmsis/2.0\cmsis_liteos2.c ****         return osError;
 761:C:/Users/lenovo/Desktop/liteos/Project2/BearPi_LiteOS/osdepends/liteos/cmsis/2.0\cmsis_liteos2.c ****     }
 762:C:/Users/lenovo/Desktop/liteos/Project2/BearPi_LiteOS/osdepends/liteos/cmsis/2.0\cmsis_liteos2.c **** }
 1742              		.loc 1 762 0
 1743 0008 08BD     		pop	{r3, pc}
 1744              	.LVL162:
 1745              	.L208:
 760:C:/Users/lenovo/Desktop/liteos/Project2/BearPi_LiteOS/osdepends/liteos/cmsis/2.0\cmsis_liteos2.c ****     }
 1746              		.loc 1 760 0
 1747 000a 4FF0FF30 		mov	r0, #-1
 1748              	.LVL163:
 1749 000e FBE7     		b	.L204
 1750              		.cfi_endproc
 1751              	.LFE162:
 1753              		.section	.text.osDelayUntil,"ax",%progbits
 1754              		.align	1
 1755              		.global	osDelayUntil
 1756              		.syntax unified
 1757              		.thumb
 1758              		.thumb_func
 1759              		.fpu fpv4-sp-d16
 1761              	osDelayUntil:
 1762              	.LFB163:
 763:C:/Users/lenovo/Desktop/liteos/Project2/BearPi_LiteOS/osdepends/liteos/cmsis/2.0\cmsis_liteos2.c **** 
 764:C:/Users/lenovo/Desktop/liteos/Project2/BearPi_LiteOS/osdepends/liteos/cmsis/2.0\cmsis_liteos2.c **** 
 765:C:/Users/lenovo/Desktop/liteos/Project2/BearPi_LiteOS/osdepends/liteos/cmsis/2.0\cmsis_liteos2.c **** osStatus_t osDelayUntil (uint64_t ticks)
 766:C:/Users/lenovo/Desktop/liteos/Project2/BearPi_LiteOS/osdepends/liteos/cmsis/2.0\cmsis_liteos2.c **** {
 1763              		.loc 1 766 0
 1764              		.cfi_startproc
 1765              		@ args = 0, pretend = 0, frame = 0
 1766              		@ frame_needed = 0, uses_anonymous_args = 0
 1767              	.LVL164:
 1768 0000 38B5     		push	{r3, r4, r5, lr}
 1769              	.LCFI32:
ARM GAS  c:\Users\lenovo\AppData\Local\Temp\ccnbuj3h.s 			page 46


 1770              		.cfi_def_cfa_offset 16
 1771              		.cfi_offset 3, -16
 1772              		.cfi_offset 4, -12
 1773              		.cfi_offset 5, -8
 1774              		.cfi_offset 14, -4
 1775 0002 0446     		mov	r4, r0
 1776 0004 0D46     		mov	r5, r1
 767:C:/Users/lenovo/Desktop/liteos/Project2/BearPi_LiteOS/osdepends/liteos/cmsis/2.0\cmsis_liteos2.c ****     UINT32 uwRet;
 768:C:/Users/lenovo/Desktop/liteos/Project2/BearPi_LiteOS/osdepends/liteos/cmsis/2.0\cmsis_liteos2.c ****     UINT32 uwTicks;
 769:C:/Users/lenovo/Desktop/liteos/Project2/BearPi_LiteOS/osdepends/liteos/cmsis/2.0\cmsis_liteos2.c ****     UINT64 tickCount = osKernelGetTickCount();
 1777              		.loc 1 769 0
 1778 0006 FFF7FEFF 		bl	osKernelGetTickCount
 1779              	.LVL165:
 770:C:/Users/lenovo/Desktop/liteos/Project2/BearPi_LiteOS/osdepends/liteos/cmsis/2.0\cmsis_liteos2.c **** 
 771:C:/Users/lenovo/Desktop/liteos/Project2/BearPi_LiteOS/osdepends/liteos/cmsis/2.0\cmsis_liteos2.c ****     if(ticks < tickCount)
 1780              		.loc 1 771 0
 1781 000a 8D42     		cmp	r5, r1
 1782 000c 08BF     		it	eq
 1783 000e 8442     		cmpeq	r4, r0
 1784 0010 04D3     		bcc	.L211
 1785              	.LVL166:
 772:C:/Users/lenovo/Desktop/liteos/Project2/BearPi_LiteOS/osdepends/liteos/cmsis/2.0\cmsis_liteos2.c ****     {
 773:C:/Users/lenovo/Desktop/liteos/Project2/BearPi_LiteOS/osdepends/liteos/cmsis/2.0\cmsis_liteos2.c ****         return osError;
 774:C:/Users/lenovo/Desktop/liteos/Project2/BearPi_LiteOS/osdepends/liteos/cmsis/2.0\cmsis_liteos2.c ****     }
 775:C:/Users/lenovo/Desktop/liteos/Project2/BearPi_LiteOS/osdepends/liteos/cmsis/2.0\cmsis_liteos2.c **** 
 776:C:/Users/lenovo/Desktop/liteos/Project2/BearPi_LiteOS/osdepends/liteos/cmsis/2.0\cmsis_liteos2.c ****     uwTicks = (UINT32)(ticks - tickCount);
 777:C:/Users/lenovo/Desktop/liteos/Project2/BearPi_LiteOS/osdepends/liteos/cmsis/2.0\cmsis_liteos2.c **** 
 778:C:/Users/lenovo/Desktop/liteos/Project2/BearPi_LiteOS/osdepends/liteos/cmsis/2.0\cmsis_liteos2.c ****     uwRet = LOS_TaskDelay(uwTicks);
 1786              		.loc 1 778 0
 1787 0012 201A     		subs	r0, r4, r0
 1788              	.LVL167:
 1789 0014 FFF7FEFF 		bl	LOS_TaskDelay
 1790              	.LVL168:
 779:C:/Users/lenovo/Desktop/liteos/Project2/BearPi_LiteOS/osdepends/liteos/cmsis/2.0\cmsis_liteos2.c ****     if(uwRet == LOS_OK)
 1791              		.loc 1 779 0
 1792 0018 18B9     		cbnz	r0, .L212
 1793              	.LVL169:
 1794              	.L209:
 780:C:/Users/lenovo/Desktop/liteos/Project2/BearPi_LiteOS/osdepends/liteos/cmsis/2.0\cmsis_liteos2.c ****     {
 781:C:/Users/lenovo/Desktop/liteos/Project2/BearPi_LiteOS/osdepends/liteos/cmsis/2.0\cmsis_liteos2.c ****         return osOK;
 782:C:/Users/lenovo/Desktop/liteos/Project2/BearPi_LiteOS/osdepends/liteos/cmsis/2.0\cmsis_liteos2.c ****     }
 783:C:/Users/lenovo/Desktop/liteos/Project2/BearPi_LiteOS/osdepends/liteos/cmsis/2.0\cmsis_liteos2.c ****     else
 784:C:/Users/lenovo/Desktop/liteos/Project2/BearPi_LiteOS/osdepends/liteos/cmsis/2.0\cmsis_liteos2.c ****     {
 785:C:/Users/lenovo/Desktop/liteos/Project2/BearPi_LiteOS/osdepends/liteos/cmsis/2.0\cmsis_liteos2.c ****         return osError;
 786:C:/Users/lenovo/Desktop/liteos/Project2/BearPi_LiteOS/osdepends/liteos/cmsis/2.0\cmsis_liteos2.c ****     }
 787:C:/Users/lenovo/Desktop/liteos/Project2/BearPi_LiteOS/osdepends/liteos/cmsis/2.0\cmsis_liteos2.c **** }
 1795              		.loc 1 787 0
 1796 001a 38BD     		pop	{r3, r4, r5, pc}
 1797              	.LVL170:
 1798              	.L211:
 773:C:/Users/lenovo/Desktop/liteos/Project2/BearPi_LiteOS/osdepends/liteos/cmsis/2.0\cmsis_liteos2.c ****     }
 1799              		.loc 1 773 0
 1800 001c 4FF0FF30 		mov	r0, #-1
 1801              	.LVL171:
 1802 0020 FBE7     		b	.L209
 1803              	.LVL172:
 1804              	.L212:
ARM GAS  c:\Users\lenovo\AppData\Local\Temp\ccnbuj3h.s 			page 47


 785:C:/Users/lenovo/Desktop/liteos/Project2/BearPi_LiteOS/osdepends/liteos/cmsis/2.0\cmsis_liteos2.c ****     }
 1805              		.loc 1 785 0
 1806 0022 4FF0FF30 		mov	r0, #-1
 1807              	.LVL173:
 1808 0026 F8E7     		b	.L209
 1809              		.cfi_endproc
 1810              	.LFE163:
 1812              		.section	.text.osTimerNew,"ax",%progbits
 1813              		.align	1
 1814              		.global	osTimerNew
 1815              		.syntax unified
 1816              		.thumb
 1817              		.thumb_func
 1818              		.fpu fpv4-sp-d16
 1820              	osTimerNew:
 1821              	.LFB164:
 788:C:/Users/lenovo/Desktop/liteos/Project2/BearPi_LiteOS/osdepends/liteos/cmsis/2.0\cmsis_liteos2.c **** 
 789:C:/Users/lenovo/Desktop/liteos/Project2/BearPi_LiteOS/osdepends/liteos/cmsis/2.0\cmsis_liteos2.c **** //  ==== Timer Management Functions ====
 790:C:/Users/lenovo/Desktop/liteos/Project2/BearPi_LiteOS/osdepends/liteos/cmsis/2.0\cmsis_liteos2.c **** #if (LOSCFG_BASE_CORE_SWTMR == YES)
 791:C:/Users/lenovo/Desktop/liteos/Project2/BearPi_LiteOS/osdepends/liteos/cmsis/2.0\cmsis_liteos2.c **** osTimerId_t osTimerNew (osTimerFunc_t func, osTimerType_t type, void *argument, const osTimerAttr_t
 792:C:/Users/lenovo/Desktop/liteos/Project2/BearPi_LiteOS/osdepends/liteos/cmsis/2.0\cmsis_liteos2.c **** {
 1822              		.loc 1 792 0
 1823              		.cfi_startproc
 1824              		@ args = 0, pretend = 0, frame = 8
 1825              		@ frame_needed = 0, uses_anonymous_args = 0
 1826              	.LVL174:
 1827 0000 70B5     		push	{r4, r5, r6, lr}
 1828              	.LCFI33:
 1829              		.cfi_def_cfa_offset 16
 1830              		.cfi_offset 4, -16
 1831              		.cfi_offset 5, -12
 1832              		.cfi_offset 6, -8
 1833              		.cfi_offset 14, -4
 1834 0002 86B0     		sub	sp, sp, #24
 1835              	.LCFI34:
 1836              		.cfi_def_cfa_offset 40
 1837 0004 0446     		mov	r4, r0
 1838 0006 0D46     		mov	r5, r1
 1839 0008 1646     		mov	r6, r2
 793:C:/Users/lenovo/Desktop/liteos/Project2/BearPi_LiteOS/osdepends/liteos/cmsis/2.0\cmsis_liteos2.c ****     UNUSED(attr);
 794:C:/Users/lenovo/Desktop/liteos/Project2/BearPi_LiteOS/osdepends/liteos/cmsis/2.0\cmsis_liteos2.c ****     UINT16 usSwTmrID;
 795:C:/Users/lenovo/Desktop/liteos/Project2/BearPi_LiteOS/osdepends/liteos/cmsis/2.0\cmsis_liteos2.c ****     UINT8 mode;
 796:C:/Users/lenovo/Desktop/liteos/Project2/BearPi_LiteOS/osdepends/liteos/cmsis/2.0\cmsis_liteos2.c **** 
 797:C:/Users/lenovo/Desktop/liteos/Project2/BearPi_LiteOS/osdepends/liteos/cmsis/2.0\cmsis_liteos2.c ****     if ((OS_INT_ACTIVE) || (NULL == func) ||
 1840              		.loc 1 797 0
 1841 000a FFF7FEFF 		bl	osIntNumGet
 1842              	.LVL175:
 1843 000e E8B9     		cbnz	r0, .L217
 1844              		.loc 1 797 0 is_stmt 0 discriminator 1
 1845 0010 F4B1     		cbz	r4, .L218
 1846              		.loc 1 797 0 discriminator 2
 1847 0012 012D     		cmp	r5, #1
 1848 0014 1ED8     		bhi	.L219
 798:C:/Users/lenovo/Desktop/liteos/Project2/BearPi_LiteOS/osdepends/liteos/cmsis/2.0\cmsis_liteos2.c ****             ((osTimerOnce != type) && (osTimerPeriodic != type)))
 799:C:/Users/lenovo/Desktop/liteos/Project2/BearPi_LiteOS/osdepends/liteos/cmsis/2.0\cmsis_liteos2.c ****     {
 800:C:/Users/lenovo/Desktop/liteos/Project2/BearPi_LiteOS/osdepends/liteos/cmsis/2.0\cmsis_liteos2.c ****         return (osTimerId_t)NULL;
 801:C:/Users/lenovo/Desktop/liteos/Project2/BearPi_LiteOS/osdepends/liteos/cmsis/2.0\cmsis_liteos2.c ****     }
ARM GAS  c:\Users\lenovo\AppData\Local\Temp\ccnbuj3h.s 			page 48


 802:C:/Users/lenovo/Desktop/liteos/Project2/BearPi_LiteOS/osdepends/liteos/cmsis/2.0\cmsis_liteos2.c **** 
 803:C:/Users/lenovo/Desktop/liteos/Project2/BearPi_LiteOS/osdepends/liteos/cmsis/2.0\cmsis_liteos2.c ****     if(osTimerOnce == type)
 1849              		.loc 1 803 0 is_stmt 1
 1850 0016 BDB9     		cbnz	r5, .L220
 804:C:/Users/lenovo/Desktop/liteos/Project2/BearPi_LiteOS/osdepends/liteos/cmsis/2.0\cmsis_liteos2.c ****     {
 805:C:/Users/lenovo/Desktop/liteos/Project2/BearPi_LiteOS/osdepends/liteos/cmsis/2.0\cmsis_liteos2.c ****         mode = LOS_SWTMR_MODE_NO_SELFDELETE;
 1851              		.loc 1 805 0
 1852 0018 0221     		movs	r1, #2
 1853              	.L216:
 1854              	.LVL176:
 806:C:/Users/lenovo/Desktop/liteos/Project2/BearPi_LiteOS/osdepends/liteos/cmsis/2.0\cmsis_liteos2.c ****     }
 807:C:/Users/lenovo/Desktop/liteos/Project2/BearPi_LiteOS/osdepends/liteos/cmsis/2.0\cmsis_liteos2.c ****     else
 808:C:/Users/lenovo/Desktop/liteos/Project2/BearPi_LiteOS/osdepends/liteos/cmsis/2.0\cmsis_liteos2.c ****     {
 809:C:/Users/lenovo/Desktop/liteos/Project2/BearPi_LiteOS/osdepends/liteos/cmsis/2.0\cmsis_liteos2.c ****         mode = LOS_SWTMR_MODE_PERIOD;
 810:C:/Users/lenovo/Desktop/liteos/Project2/BearPi_LiteOS/osdepends/liteos/cmsis/2.0\cmsis_liteos2.c ****     }
 811:C:/Users/lenovo/Desktop/liteos/Project2/BearPi_LiteOS/osdepends/liteos/cmsis/2.0\cmsis_liteos2.c **** #if (LOSCFG_BASE_CORE_SWTMR_ALIGN == YES)
 812:C:/Users/lenovo/Desktop/liteos/Project2/BearPi_LiteOS/osdepends/liteos/cmsis/2.0\cmsis_liteos2.c ****     if (LOS_OK != LOS_SwtmrCreate(1, mode, (SWTMR_PROC_FUNC)func, &usSwTmrID, (UINT32)argument, OS_
 1855              		.loc 1 812 0
 1856 001a 0023     		movs	r3, #0
 1857 001c 0293     		str	r3, [sp, #8]
 1858 001e 0120     		movs	r0, #1
 1859 0020 0190     		str	r0, [sp, #4]
 1860 0022 0096     		str	r6, [sp]
 1861 0024 0DF11603 		add	r3, sp, #22
 1862 0028 2246     		mov	r2, r4
 1863 002a FFF7FEFF 		bl	LOS_SwtmrCreate
 1864              	.LVL177:
 1865 002e 98B9     		cbnz	r0, .L221
 813:C:/Users/lenovo/Desktop/liteos/Project2/BearPi_LiteOS/osdepends/liteos/cmsis/2.0\cmsis_liteos2.c ****     {
 814:C:/Users/lenovo/Desktop/liteos/Project2/BearPi_LiteOS/osdepends/liteos/cmsis/2.0\cmsis_liteos2.c ****         return (osTimerId_t)NULL;
 815:C:/Users/lenovo/Desktop/liteos/Project2/BearPi_LiteOS/osdepends/liteos/cmsis/2.0\cmsis_liteos2.c ****     }
 816:C:/Users/lenovo/Desktop/liteos/Project2/BearPi_LiteOS/osdepends/liteos/cmsis/2.0\cmsis_liteos2.c **** #else
 817:C:/Users/lenovo/Desktop/liteos/Project2/BearPi_LiteOS/osdepends/liteos/cmsis/2.0\cmsis_liteos2.c ****     if (LOS_OK != LOS_SwtmrCreate(1, mode, (SWTMR_PROC_FUNC)func, &usSwTmrID, (UINT32)argument))
 818:C:/Users/lenovo/Desktop/liteos/Project2/BearPi_LiteOS/osdepends/liteos/cmsis/2.0\cmsis_liteos2.c ****     {
 819:C:/Users/lenovo/Desktop/liteos/Project2/BearPi_LiteOS/osdepends/liteos/cmsis/2.0\cmsis_liteos2.c ****         return (osTimerId_t)NULL;
 820:C:/Users/lenovo/Desktop/liteos/Project2/BearPi_LiteOS/osdepends/liteos/cmsis/2.0\cmsis_liteos2.c ****     }
 821:C:/Users/lenovo/Desktop/liteos/Project2/BearPi_LiteOS/osdepends/liteos/cmsis/2.0\cmsis_liteos2.c **** #endif
 822:C:/Users/lenovo/Desktop/liteos/Project2/BearPi_LiteOS/osdepends/liteos/cmsis/2.0\cmsis_liteos2.c **** 
 823:C:/Users/lenovo/Desktop/liteos/Project2/BearPi_LiteOS/osdepends/liteos/cmsis/2.0\cmsis_liteos2.c ****     return (osTimerId_t)OS_SWT_FROM_SID(usSwTmrID);
 1866              		.loc 1 823 0
 1867 0030 0A4B     		ldr	r3, .L223
 1868 0032 1868     		ldr	r0, [r3]
 1869 0034 BDF81630 		ldrh	r3, [sp, #22]
 1870 0038 03F00F03 		and	r3, r3, #15
 1871 003c C3EBC303 		rsb	r3, r3, r3, lsl #3
 1872 0040 9A00     		lsls	r2, r3, #2
 1873 0042 1044     		add	r0, r0, r2
 1874              	.L214:
 824:C:/Users/lenovo/Desktop/liteos/Project2/BearPi_LiteOS/osdepends/liteos/cmsis/2.0\cmsis_liteos2.c **** }
 1875              		.loc 1 824 0
 1876 0044 06B0     		add	sp, sp, #24
 1877              	.LCFI35:
 1878              		.cfi_remember_state
 1879              		.cfi_def_cfa_offset 16
 1880              		@ sp needed
 1881 0046 70BD     		pop	{r4, r5, r6, pc}
 1882              	.LVL178:
ARM GAS  c:\Users\lenovo\AppData\Local\Temp\ccnbuj3h.s 			page 49


 1883              	.L220:
 1884              	.LCFI36:
 1885              		.cfi_restore_state
 809:C:/Users/lenovo/Desktop/liteos/Project2/BearPi_LiteOS/osdepends/liteos/cmsis/2.0\cmsis_liteos2.c ****     }
 1886              		.loc 1 809 0
 1887 0048 0121     		movs	r1, #1
 1888 004a E6E7     		b	.L216
 1889              	.L217:
 800:C:/Users/lenovo/Desktop/liteos/Project2/BearPi_LiteOS/osdepends/liteos/cmsis/2.0\cmsis_liteos2.c ****     }
 1890              		.loc 1 800 0
 1891 004c 0020     		movs	r0, #0
 1892 004e F9E7     		b	.L214
 1893              	.L218:
 1894 0050 0020     		movs	r0, #0
 1895 0052 F7E7     		b	.L214
 1896              	.L219:
 1897 0054 0020     		movs	r0, #0
 1898 0056 F5E7     		b	.L214
 1899              	.L221:
 814:C:/Users/lenovo/Desktop/liteos/Project2/BearPi_LiteOS/osdepends/liteos/cmsis/2.0\cmsis_liteos2.c ****     }
 1900              		.loc 1 814 0
 1901 0058 0020     		movs	r0, #0
 1902 005a F3E7     		b	.L214
 1903              	.L224:
 1904              		.align	2
 1905              	.L223:
 1906 005c 00000000 		.word	m_pstSwtmrCBArray
 1907              		.cfi_endproc
 1908              	.LFE164:
 1910              		.section	.text.osTimerStart,"ax",%progbits
 1911              		.align	1
 1912              		.global	osTimerStart
 1913              		.syntax unified
 1914              		.thumb
 1915              		.thumb_func
 1916              		.fpu fpv4-sp-d16
 1918              	osTimerStart:
 1919              	.LFB165:
 825:C:/Users/lenovo/Desktop/liteos/Project2/BearPi_LiteOS/osdepends/liteos/cmsis/2.0\cmsis_liteos2.c **** 
 826:C:/Users/lenovo/Desktop/liteos/Project2/BearPi_LiteOS/osdepends/liteos/cmsis/2.0\cmsis_liteos2.c **** 
 827:C:/Users/lenovo/Desktop/liteos/Project2/BearPi_LiteOS/osdepends/liteos/cmsis/2.0\cmsis_liteos2.c **** osStatus_t osTimerStart (osTimerId_t timer_id, uint32_t ticks)
 828:C:/Users/lenovo/Desktop/liteos/Project2/BearPi_LiteOS/osdepends/liteos/cmsis/2.0\cmsis_liteos2.c **** {
 1920              		.loc 1 828 0
 1921              		.cfi_startproc
 1922              		@ args = 0, pretend = 0, frame = 0
 1923              		@ frame_needed = 0, uses_anonymous_args = 0
 1924              	.LVL179:
 829:C:/Users/lenovo/Desktop/liteos/Project2/BearPi_LiteOS/osdepends/liteos/cmsis/2.0\cmsis_liteos2.c ****     UINT32 uwRet;
 830:C:/Users/lenovo/Desktop/liteos/Project2/BearPi_LiteOS/osdepends/liteos/cmsis/2.0\cmsis_liteos2.c ****     SWTMR_CTRL_S *pstSwtmr;
 831:C:/Users/lenovo/Desktop/liteos/Project2/BearPi_LiteOS/osdepends/liteos/cmsis/2.0\cmsis_liteos2.c **** 
 832:C:/Users/lenovo/Desktop/liteos/Project2/BearPi_LiteOS/osdepends/liteos/cmsis/2.0\cmsis_liteos2.c ****     if ((0 == ticks) || (NULL == timer_id))
 1925              		.loc 1 832 0
 1926 0000 99B1     		cbz	r1, .L227
 828:C:/Users/lenovo/Desktop/liteos/Project2/BearPi_LiteOS/osdepends/liteos/cmsis/2.0\cmsis_liteos2.c ****     UINT32 uwRet;
 1927              		.loc 1 828 0 discriminator 1
 1928 0002 10B5     		push	{r4, lr}
 1929              	.LCFI37:
ARM GAS  c:\Users\lenovo\AppData\Local\Temp\ccnbuj3h.s 			page 50


 1930              		.cfi_def_cfa_offset 8
 1931              		.cfi_offset 4, -8
 1932              		.cfi_offset 14, -4
 1933 0004 0446     		mov	r4, r0
 1934 0006 0846     		mov	r0, r1
 1935              	.LVL180:
 1936              		.loc 1 832 0 discriminator 1
 1937 0008 94B1     		cbz	r4, .L228
 1938              	.LVL181:
 833:C:/Users/lenovo/Desktop/liteos/Project2/BearPi_LiteOS/osdepends/liteos/cmsis/2.0\cmsis_liteos2.c ****     {
 834:C:/Users/lenovo/Desktop/liteos/Project2/BearPi_LiteOS/osdepends/liteos/cmsis/2.0\cmsis_liteos2.c ****         return osErrorParameter;
 835:C:/Users/lenovo/Desktop/liteos/Project2/BearPi_LiteOS/osdepends/liteos/cmsis/2.0\cmsis_liteos2.c ****     }
 836:C:/Users/lenovo/Desktop/liteos/Project2/BearPi_LiteOS/osdepends/liteos/cmsis/2.0\cmsis_liteos2.c **** 
 837:C:/Users/lenovo/Desktop/liteos/Project2/BearPi_LiteOS/osdepends/liteos/cmsis/2.0\cmsis_liteos2.c ****     pstSwtmr = (SWTMR_CTRL_S *)timer_id;
 838:C:/Users/lenovo/Desktop/liteos/Project2/BearPi_LiteOS/osdepends/liteos/cmsis/2.0\cmsis_liteos2.c ****     pstSwtmr->uwInterval = LOS_Tick2MS(ticks);
 1939              		.loc 1 838 0
 1940 000a FFF7FEFF 		bl	LOS_Tick2MS
 1941              	.LVL182:
 1942 000e 2061     		str	r0, [r4, #16]
 839:C:/Users/lenovo/Desktop/liteos/Project2/BearPi_LiteOS/osdepends/liteos/cmsis/2.0\cmsis_liteos2.c ****     //pstSwtmr->uwExpiry = LOS_Tick2MS(ticks);
 840:C:/Users/lenovo/Desktop/liteos/Project2/BearPi_LiteOS/osdepends/liteos/cmsis/2.0\cmsis_liteos2.c ****     uwRet = LOS_SwtmrStart(pstSwtmr->usTimerID);
 1943              		.loc 1 840 0
 1944 0010 2089     		ldrh	r0, [r4, #8]
 1945 0012 FFF7FEFF 		bl	LOS_SwtmrStart
 1946              	.LVL183:
 841:C:/Users/lenovo/Desktop/liteos/Project2/BearPi_LiteOS/osdepends/liteos/cmsis/2.0\cmsis_liteos2.c ****     if (LOS_OK == uwRet)
 1947              		.loc 1 841 0
 1948 0016 70B1     		cbz	r0, .L229
 842:C:/Users/lenovo/Desktop/liteos/Project2/BearPi_LiteOS/osdepends/liteos/cmsis/2.0\cmsis_liteos2.c ****     {
 843:C:/Users/lenovo/Desktop/liteos/Project2/BearPi_LiteOS/osdepends/liteos/cmsis/2.0\cmsis_liteos2.c ****         return osOK;
 844:C:/Users/lenovo/Desktop/liteos/Project2/BearPi_LiteOS/osdepends/liteos/cmsis/2.0\cmsis_liteos2.c ****     }
 845:C:/Users/lenovo/Desktop/liteos/Project2/BearPi_LiteOS/osdepends/liteos/cmsis/2.0\cmsis_liteos2.c ****     else if (LOS_ERRNO_SWTMR_ID_INVALID == uwRet)
 1949              		.loc 1 845 0
 1950 0018 084A     		ldr	r2, .L236
 1951 001a 9042     		cmp	r0, r2
 1952 001c 02D0     		beq	.L235
 846:C:/Users/lenovo/Desktop/liteos/Project2/BearPi_LiteOS/osdepends/liteos/cmsis/2.0\cmsis_liteos2.c ****     {
 847:C:/Users/lenovo/Desktop/liteos/Project2/BearPi_LiteOS/osdepends/liteos/cmsis/2.0\cmsis_liteos2.c ****         return osErrorParameter;
 848:C:/Users/lenovo/Desktop/liteos/Project2/BearPi_LiteOS/osdepends/liteos/cmsis/2.0\cmsis_liteos2.c ****     }
 849:C:/Users/lenovo/Desktop/liteos/Project2/BearPi_LiteOS/osdepends/liteos/cmsis/2.0\cmsis_liteos2.c ****     else
 850:C:/Users/lenovo/Desktop/liteos/Project2/BearPi_LiteOS/osdepends/liteos/cmsis/2.0\cmsis_liteos2.c ****     {
 851:C:/Users/lenovo/Desktop/liteos/Project2/BearPi_LiteOS/osdepends/liteos/cmsis/2.0\cmsis_liteos2.c ****         return osErrorResource;
 1953              		.loc 1 851 0
 1954 001e 6FF00200 		mvn	r0, #2
 1955              	.LVL184:
 1956 0022 09E0     		b	.L225
 1957              	.LVL185:
 1958              	.L235:
 847:C:/Users/lenovo/Desktop/liteos/Project2/BearPi_LiteOS/osdepends/liteos/cmsis/2.0\cmsis_liteos2.c ****     }
 1959              		.loc 1 847 0
 1960 0024 6FF00300 		mvn	r0, #3
 1961              	.LVL186:
 1962 0028 06E0     		b	.L225
 1963              	.LVL187:
 1964              	.L227:
 1965              	.LCFI38:
 1966              		.cfi_def_cfa_offset 0
ARM GAS  c:\Users\lenovo\AppData\Local\Temp\ccnbuj3h.s 			page 51


 1967              		.cfi_restore 4
 1968              		.cfi_restore 14
 834:C:/Users/lenovo/Desktop/liteos/Project2/BearPi_LiteOS/osdepends/liteos/cmsis/2.0\cmsis_liteos2.c ****     }
 1969              		.loc 1 834 0
 1970 002a 6FF00300 		mvn	r0, #3
 1971              	.LVL188:
 852:C:/Users/lenovo/Desktop/liteos/Project2/BearPi_LiteOS/osdepends/liteos/cmsis/2.0\cmsis_liteos2.c ****     }
 853:C:/Users/lenovo/Desktop/liteos/Project2/BearPi_LiteOS/osdepends/liteos/cmsis/2.0\cmsis_liteos2.c **** }
 1972              		.loc 1 853 0
 1973 002e 7047     		bx	lr
 1974              	.LVL189:
 1975              	.L228:
 1976              	.LCFI39:
 1977              		.cfi_def_cfa_offset 8
 1978              		.cfi_offset 4, -8
 1979              		.cfi_offset 14, -4
 834:C:/Users/lenovo/Desktop/liteos/Project2/BearPi_LiteOS/osdepends/liteos/cmsis/2.0\cmsis_liteos2.c ****     }
 1980              		.loc 1 834 0
 1981 0030 6FF00300 		mvn	r0, #3
 1982              	.LVL190:
 1983 0034 00E0     		b	.L225
 1984              	.LVL191:
 1985              	.L229:
 843:C:/Users/lenovo/Desktop/liteos/Project2/BearPi_LiteOS/osdepends/liteos/cmsis/2.0\cmsis_liteos2.c ****     }
 1986              		.loc 1 843 0
 1987 0036 0020     		movs	r0, #0
 1988              	.LVL192:
 1989              	.L225:
 1990              		.loc 1 853 0
 1991 0038 10BD     		pop	{r4, pc}
 1992              	.LVL193:
 1993              	.L237:
 1994 003a 00BF     		.align	2
 1995              	.L236:
 1996 003c 05030002 		.word	33555205
 1997              		.cfi_endproc
 1998              	.LFE165:
 2000              		.section	.text.osTimerGetName,"ax",%progbits
 2001              		.align	1
 2002              		.global	osTimerGetName
 2003              		.syntax unified
 2004              		.thumb
 2005              		.thumb_func
 2006              		.fpu fpv4-sp-d16
 2008              	osTimerGetName:
 2009              	.LFB166:
 854:C:/Users/lenovo/Desktop/liteos/Project2/BearPi_LiteOS/osdepends/liteos/cmsis/2.0\cmsis_liteos2.c **** 
 855:C:/Users/lenovo/Desktop/liteos/Project2/BearPi_LiteOS/osdepends/liteos/cmsis/2.0\cmsis_liteos2.c **** 
 856:C:/Users/lenovo/Desktop/liteos/Project2/BearPi_LiteOS/osdepends/liteos/cmsis/2.0\cmsis_liteos2.c **** const char *osTimerGetName(osTimerId_t timer_id)
 857:C:/Users/lenovo/Desktop/liteos/Project2/BearPi_LiteOS/osdepends/liteos/cmsis/2.0\cmsis_liteos2.c **** {
 2010              		.loc 1 857 0
 2011              		.cfi_startproc
 2012              		@ args = 0, pretend = 0, frame = 0
 2013              		@ frame_needed = 0, uses_anonymous_args = 0
 2014              		@ link register save eliminated.
 2015              	.LVL194:
 858:C:/Users/lenovo/Desktop/liteos/Project2/BearPi_LiteOS/osdepends/liteos/cmsis/2.0\cmsis_liteos2.c ****     UNUSED(timer_id);
ARM GAS  c:\Users\lenovo\AppData\Local\Temp\ccnbuj3h.s 			page 52


 859:C:/Users/lenovo/Desktop/liteos/Project2/BearPi_LiteOS/osdepends/liteos/cmsis/2.0\cmsis_liteos2.c ****     return (const char *)NULL;
 860:C:/Users/lenovo/Desktop/liteos/Project2/BearPi_LiteOS/osdepends/liteos/cmsis/2.0\cmsis_liteos2.c **** }
 2016              		.loc 1 860 0
 2017 0000 0020     		movs	r0, #0
 2018              	.LVL195:
 2019 0002 7047     		bx	lr
 2020              		.cfi_endproc
 2021              	.LFE166:
 2023              		.section	.text.osTimerStop,"ax",%progbits
 2024              		.align	1
 2025              		.global	osTimerStop
 2026              		.syntax unified
 2027              		.thumb
 2028              		.thumb_func
 2029              		.fpu fpv4-sp-d16
 2031              	osTimerStop:
 2032              	.LFB167:
 861:C:/Users/lenovo/Desktop/liteos/Project2/BearPi_LiteOS/osdepends/liteos/cmsis/2.0\cmsis_liteos2.c **** 
 862:C:/Users/lenovo/Desktop/liteos/Project2/BearPi_LiteOS/osdepends/liteos/cmsis/2.0\cmsis_liteos2.c **** 
 863:C:/Users/lenovo/Desktop/liteos/Project2/BearPi_LiteOS/osdepends/liteos/cmsis/2.0\cmsis_liteos2.c **** osStatus_t osTimerStop (osTimerId_t timer_id)
 864:C:/Users/lenovo/Desktop/liteos/Project2/BearPi_LiteOS/osdepends/liteos/cmsis/2.0\cmsis_liteos2.c **** {
 2033              		.loc 1 864 0
 2034              		.cfi_startproc
 2035              		@ args = 0, pretend = 0, frame = 0
 2036              		@ frame_needed = 0, uses_anonymous_args = 0
 2037              	.LVL196:
 2038 0000 10B5     		push	{r4, lr}
 2039              	.LCFI40:
 2040              		.cfi_def_cfa_offset 8
 2041              		.cfi_offset 4, -8
 2042              		.cfi_offset 14, -4
 2043 0002 0446     		mov	r4, r0
 2044              	.LVL197:
 865:C:/Users/lenovo/Desktop/liteos/Project2/BearPi_LiteOS/osdepends/liteos/cmsis/2.0\cmsis_liteos2.c ****     UINT32 uwRet;
 866:C:/Users/lenovo/Desktop/liteos/Project2/BearPi_LiteOS/osdepends/liteos/cmsis/2.0\cmsis_liteos2.c ****     SWTMR_CTRL_S *pstSwtmr = (SWTMR_CTRL_S *)timer_id;
 867:C:/Users/lenovo/Desktop/liteos/Project2/BearPi_LiteOS/osdepends/liteos/cmsis/2.0\cmsis_liteos2.c **** 
 868:C:/Users/lenovo/Desktop/liteos/Project2/BearPi_LiteOS/osdepends/liteos/cmsis/2.0\cmsis_liteos2.c ****     if (OS_INT_ACTIVE)
 2045              		.loc 1 868 0
 2046 0004 FFF7FEFF 		bl	osIntNumGet
 2047              	.LVL198:
 2048 0008 68B9     		cbnz	r0, .L241
 869:C:/Users/lenovo/Desktop/liteos/Project2/BearPi_LiteOS/osdepends/liteos/cmsis/2.0\cmsis_liteos2.c ****     {
 870:C:/Users/lenovo/Desktop/liteos/Project2/BearPi_LiteOS/osdepends/liteos/cmsis/2.0\cmsis_liteos2.c ****         return osErrorISR;
 871:C:/Users/lenovo/Desktop/liteos/Project2/BearPi_LiteOS/osdepends/liteos/cmsis/2.0\cmsis_liteos2.c ****     }
 872:C:/Users/lenovo/Desktop/liteos/Project2/BearPi_LiteOS/osdepends/liteos/cmsis/2.0\cmsis_liteos2.c **** 
 873:C:/Users/lenovo/Desktop/liteos/Project2/BearPi_LiteOS/osdepends/liteos/cmsis/2.0\cmsis_liteos2.c ****     if (NULL == pstSwtmr)
 2049              		.loc 1 873 0
 2050 000a 7CB1     		cbz	r4, .L242
 874:C:/Users/lenovo/Desktop/liteos/Project2/BearPi_LiteOS/osdepends/liteos/cmsis/2.0\cmsis_liteos2.c ****     {
 875:C:/Users/lenovo/Desktop/liteos/Project2/BearPi_LiteOS/osdepends/liteos/cmsis/2.0\cmsis_liteos2.c ****         return osErrorParameter;
 876:C:/Users/lenovo/Desktop/liteos/Project2/BearPi_LiteOS/osdepends/liteos/cmsis/2.0\cmsis_liteos2.c ****     }
 877:C:/Users/lenovo/Desktop/liteos/Project2/BearPi_LiteOS/osdepends/liteos/cmsis/2.0\cmsis_liteos2.c **** 
 878:C:/Users/lenovo/Desktop/liteos/Project2/BearPi_LiteOS/osdepends/liteos/cmsis/2.0\cmsis_liteos2.c ****     uwRet = LOS_SwtmrStop(pstSwtmr->usTimerID);
 2051              		.loc 1 878 0
 2052 000c 2089     		ldrh	r0, [r4, #8]
 2053 000e FFF7FEFF 		bl	LOS_SwtmrStop
 2054              	.LVL199:
ARM GAS  c:\Users\lenovo\AppData\Local\Temp\ccnbuj3h.s 			page 53


 879:C:/Users/lenovo/Desktop/liteos/Project2/BearPi_LiteOS/osdepends/liteos/cmsis/2.0\cmsis_liteos2.c ****     if (LOS_OK == uwRet)
 2055              		.loc 1 879 0
 2056 0012 70B1     		cbz	r0, .L243
 880:C:/Users/lenovo/Desktop/liteos/Project2/BearPi_LiteOS/osdepends/liteos/cmsis/2.0\cmsis_liteos2.c ****     {
 881:C:/Users/lenovo/Desktop/liteos/Project2/BearPi_LiteOS/osdepends/liteos/cmsis/2.0\cmsis_liteos2.c ****         return osOK;
 882:C:/Users/lenovo/Desktop/liteos/Project2/BearPi_LiteOS/osdepends/liteos/cmsis/2.0\cmsis_liteos2.c ****     }
 883:C:/Users/lenovo/Desktop/liteos/Project2/BearPi_LiteOS/osdepends/liteos/cmsis/2.0\cmsis_liteos2.c ****     else if (LOS_ERRNO_SWTMR_ID_INVALID == uwRet)
 2057              		.loc 1 883 0
 2058 0014 084A     		ldr	r2, .L247
 2059 0016 9042     		cmp	r0, r2
 2060 0018 02D0     		beq	.L246
 884:C:/Users/lenovo/Desktop/liteos/Project2/BearPi_LiteOS/osdepends/liteos/cmsis/2.0\cmsis_liteos2.c ****     {
 885:C:/Users/lenovo/Desktop/liteos/Project2/BearPi_LiteOS/osdepends/liteos/cmsis/2.0\cmsis_liteos2.c ****         return osErrorParameter;
 886:C:/Users/lenovo/Desktop/liteos/Project2/BearPi_LiteOS/osdepends/liteos/cmsis/2.0\cmsis_liteos2.c ****     }
 887:C:/Users/lenovo/Desktop/liteos/Project2/BearPi_LiteOS/osdepends/liteos/cmsis/2.0\cmsis_liteos2.c ****     else
 888:C:/Users/lenovo/Desktop/liteos/Project2/BearPi_LiteOS/osdepends/liteos/cmsis/2.0\cmsis_liteos2.c ****     {
 889:C:/Users/lenovo/Desktop/liteos/Project2/BearPi_LiteOS/osdepends/liteos/cmsis/2.0\cmsis_liteos2.c ****         return osErrorResource;
 2061              		.loc 1 889 0
 2062 001a 6FF00200 		mvn	r0, #2
 2063              	.LVL200:
 2064 001e 09E0     		b	.L239
 2065              	.LVL201:
 2066              	.L246:
 885:C:/Users/lenovo/Desktop/liteos/Project2/BearPi_LiteOS/osdepends/liteos/cmsis/2.0\cmsis_liteos2.c ****     }
 2067              		.loc 1 885 0
 2068 0020 6FF00300 		mvn	r0, #3
 2069              	.LVL202:
 2070 0024 06E0     		b	.L239
 2071              	.L241:
 870:C:/Users/lenovo/Desktop/liteos/Project2/BearPi_LiteOS/osdepends/liteos/cmsis/2.0\cmsis_liteos2.c ****     }
 2072              		.loc 1 870 0
 2073 0026 6FF00500 		mvn	r0, #5
 2074 002a 03E0     		b	.L239
 2075              	.L242:
 875:C:/Users/lenovo/Desktop/liteos/Project2/BearPi_LiteOS/osdepends/liteos/cmsis/2.0\cmsis_liteos2.c ****     }
 2076              		.loc 1 875 0
 2077 002c 6FF00300 		mvn	r0, #3
 2078 0030 00E0     		b	.L239
 2079              	.LVL203:
 2080              	.L243:
 881:C:/Users/lenovo/Desktop/liteos/Project2/BearPi_LiteOS/osdepends/liteos/cmsis/2.0\cmsis_liteos2.c ****     }
 2081              		.loc 1 881 0
 2082 0032 0020     		movs	r0, #0
 2083              	.LVL204:
 2084              	.L239:
 890:C:/Users/lenovo/Desktop/liteos/Project2/BearPi_LiteOS/osdepends/liteos/cmsis/2.0\cmsis_liteos2.c ****     }
 891:C:/Users/lenovo/Desktop/liteos/Project2/BearPi_LiteOS/osdepends/liteos/cmsis/2.0\cmsis_liteos2.c **** }
 2085              		.loc 1 891 0
 2086 0034 10BD     		pop	{r4, pc}
 2087              	.LVL205:
 2088              	.L248:
 2089 0036 00BF     		.align	2
 2090              	.L247:
 2091 0038 05030002 		.word	33555205
 2092              		.cfi_endproc
 2093              	.LFE167:
 2095              		.section	.text.osTimerIsRunning,"ax",%progbits
ARM GAS  c:\Users\lenovo\AppData\Local\Temp\ccnbuj3h.s 			page 54


 2096              		.align	1
 2097              		.global	osTimerIsRunning
 2098              		.syntax unified
 2099              		.thumb
 2100              		.thumb_func
 2101              		.fpu fpv4-sp-d16
 2103              	osTimerIsRunning:
 2104              	.LFB168:
 892:C:/Users/lenovo/Desktop/liteos/Project2/BearPi_LiteOS/osdepends/liteos/cmsis/2.0\cmsis_liteos2.c **** 
 893:C:/Users/lenovo/Desktop/liteos/Project2/BearPi_LiteOS/osdepends/liteos/cmsis/2.0\cmsis_liteos2.c **** 
 894:C:/Users/lenovo/Desktop/liteos/Project2/BearPi_LiteOS/osdepends/liteos/cmsis/2.0\cmsis_liteos2.c **** uint32_t osTimerIsRunning (osTimerId_t timer_id)
 895:C:/Users/lenovo/Desktop/liteos/Project2/BearPi_LiteOS/osdepends/liteos/cmsis/2.0\cmsis_liteos2.c **** {
 2105              		.loc 1 895 0
 2106              		.cfi_startproc
 2107              		@ args = 0, pretend = 0, frame = 0
 2108              		@ frame_needed = 0, uses_anonymous_args = 0
 2109              	.LVL206:
 2110 0000 10B5     		push	{r4, lr}
 2111              	.LCFI41:
 2112              		.cfi_def_cfa_offset 8
 2113              		.cfi_offset 4, -8
 2114              		.cfi_offset 14, -4
 2115 0002 0446     		mov	r4, r0
 896:C:/Users/lenovo/Desktop/liteos/Project2/BearPi_LiteOS/osdepends/liteos/cmsis/2.0\cmsis_liteos2.c ****     if ((OS_INT_ACTIVE) || (NULL == timer_id))
 2116              		.loc 1 896 0
 2117 0004 FFF7FEFF 		bl	osIntNumGet
 2118              	.LVL207:
 2119 0008 30B9     		cbnz	r0, .L251
 2120              		.loc 1 896 0 is_stmt 0 discriminator 1
 2121 000a 3CB1     		cbz	r4, .L252
 897:C:/Users/lenovo/Desktop/liteos/Project2/BearPi_LiteOS/osdepends/liteos/cmsis/2.0\cmsis_liteos2.c ****     {
 898:C:/Users/lenovo/Desktop/liteos/Project2/BearPi_LiteOS/osdepends/liteos/cmsis/2.0\cmsis_liteos2.c ****         return 0;
 899:C:/Users/lenovo/Desktop/liteos/Project2/BearPi_LiteOS/osdepends/liteos/cmsis/2.0\cmsis_liteos2.c ****     }
 900:C:/Users/lenovo/Desktop/liteos/Project2/BearPi_LiteOS/osdepends/liteos/cmsis/2.0\cmsis_liteos2.c **** 
 901:C:/Users/lenovo/Desktop/liteos/Project2/BearPi_LiteOS/osdepends/liteos/cmsis/2.0\cmsis_liteos2.c ****     return (OS_SWTMR_STATUS_TICKING == ((SWTMR_CTRL_S *)timer_id)->ucState);
 2122              		.loc 1 901 0 is_stmt 1
 2123 000c 2079     		ldrb	r0, [r4, #4]	@ zero_extendqisi2
 2124 000e 0228     		cmp	r0, #2
 2125 0010 14BF     		ite	ne
 2126 0012 0020     		movne	r0, #0
 2127 0014 0120     		moveq	r0, #1
 2128 0016 00E0     		b	.L249
 2129              	.L251:
 898:C:/Users/lenovo/Desktop/liteos/Project2/BearPi_LiteOS/osdepends/liteos/cmsis/2.0\cmsis_liteos2.c ****     }
 2130              		.loc 1 898 0
 2131 0018 0020     		movs	r0, #0
 2132              	.L249:
 902:C:/Users/lenovo/Desktop/liteos/Project2/BearPi_LiteOS/osdepends/liteos/cmsis/2.0\cmsis_liteos2.c **** }
 2133              		.loc 1 902 0
 2134 001a 10BD     		pop	{r4, pc}
 2135              	.LVL208:
 2136              	.L252:
 898:C:/Users/lenovo/Desktop/liteos/Project2/BearPi_LiteOS/osdepends/liteos/cmsis/2.0\cmsis_liteos2.c ****     }
 2137              		.loc 1 898 0
 2138 001c 0020     		movs	r0, #0
 2139 001e FCE7     		b	.L249
 2140              		.cfi_endproc
ARM GAS  c:\Users\lenovo\AppData\Local\Temp\ccnbuj3h.s 			page 55


 2141              	.LFE168:
 2143              		.section	.text.osTimerDelete,"ax",%progbits
 2144              		.align	1
 2145              		.global	osTimerDelete
 2146              		.syntax unified
 2147              		.thumb
 2148              		.thumb_func
 2149              		.fpu fpv4-sp-d16
 2151              	osTimerDelete:
 2152              	.LFB169:
 903:C:/Users/lenovo/Desktop/liteos/Project2/BearPi_LiteOS/osdepends/liteos/cmsis/2.0\cmsis_liteos2.c **** 
 904:C:/Users/lenovo/Desktop/liteos/Project2/BearPi_LiteOS/osdepends/liteos/cmsis/2.0\cmsis_liteos2.c **** 
 905:C:/Users/lenovo/Desktop/liteos/Project2/BearPi_LiteOS/osdepends/liteos/cmsis/2.0\cmsis_liteos2.c **** osStatus_t osTimerDelete (osTimerId_t timer_id)
 906:C:/Users/lenovo/Desktop/liteos/Project2/BearPi_LiteOS/osdepends/liteos/cmsis/2.0\cmsis_liteos2.c **** {
 2153              		.loc 1 906 0
 2154              		.cfi_startproc
 2155              		@ args = 0, pretend = 0, frame = 0
 2156              		@ frame_needed = 0, uses_anonymous_args = 0
 2157              	.LVL209:
 2158 0000 10B5     		push	{r4, lr}
 2159              	.LCFI42:
 2160              		.cfi_def_cfa_offset 8
 2161              		.cfi_offset 4, -8
 2162              		.cfi_offset 14, -4
 2163 0002 0446     		mov	r4, r0
 2164              	.LVL210:
 907:C:/Users/lenovo/Desktop/liteos/Project2/BearPi_LiteOS/osdepends/liteos/cmsis/2.0\cmsis_liteos2.c ****     UINT32 uwRet;
 908:C:/Users/lenovo/Desktop/liteos/Project2/BearPi_LiteOS/osdepends/liteos/cmsis/2.0\cmsis_liteos2.c ****     SWTMR_CTRL_S  *pstSwtmr = (SWTMR_CTRL_S *)timer_id;
 909:C:/Users/lenovo/Desktop/liteos/Project2/BearPi_LiteOS/osdepends/liteos/cmsis/2.0\cmsis_liteos2.c **** 
 910:C:/Users/lenovo/Desktop/liteos/Project2/BearPi_LiteOS/osdepends/liteos/cmsis/2.0\cmsis_liteos2.c ****     if (OS_INT_ACTIVE)
 2165              		.loc 1 910 0
 2166 0004 FFF7FEFF 		bl	osIntNumGet
 2167              	.LVL211:
 2168 0008 68B9     		cbnz	r0, .L256
 911:C:/Users/lenovo/Desktop/liteos/Project2/BearPi_LiteOS/osdepends/liteos/cmsis/2.0\cmsis_liteos2.c ****     {
 912:C:/Users/lenovo/Desktop/liteos/Project2/BearPi_LiteOS/osdepends/liteos/cmsis/2.0\cmsis_liteos2.c ****         return osErrorISR;
 913:C:/Users/lenovo/Desktop/liteos/Project2/BearPi_LiteOS/osdepends/liteos/cmsis/2.0\cmsis_liteos2.c ****     }
 914:C:/Users/lenovo/Desktop/liteos/Project2/BearPi_LiteOS/osdepends/liteos/cmsis/2.0\cmsis_liteos2.c **** 
 915:C:/Users/lenovo/Desktop/liteos/Project2/BearPi_LiteOS/osdepends/liteos/cmsis/2.0\cmsis_liteos2.c ****     if (NULL == pstSwtmr)
 2169              		.loc 1 915 0
 2170 000a 7CB1     		cbz	r4, .L257
 916:C:/Users/lenovo/Desktop/liteos/Project2/BearPi_LiteOS/osdepends/liteos/cmsis/2.0\cmsis_liteos2.c ****     {
 917:C:/Users/lenovo/Desktop/liteos/Project2/BearPi_LiteOS/osdepends/liteos/cmsis/2.0\cmsis_liteos2.c ****         return osErrorParameter;
 918:C:/Users/lenovo/Desktop/liteos/Project2/BearPi_LiteOS/osdepends/liteos/cmsis/2.0\cmsis_liteos2.c ****     }
 919:C:/Users/lenovo/Desktop/liteos/Project2/BearPi_LiteOS/osdepends/liteos/cmsis/2.0\cmsis_liteos2.c **** 
 920:C:/Users/lenovo/Desktop/liteos/Project2/BearPi_LiteOS/osdepends/liteos/cmsis/2.0\cmsis_liteos2.c ****     uwRet = LOS_SwtmrDelete(pstSwtmr->usTimerID);
 2171              		.loc 1 920 0
 2172 000c 2089     		ldrh	r0, [r4, #8]
 2173 000e FFF7FEFF 		bl	LOS_SwtmrDelete
 2174              	.LVL212:
 921:C:/Users/lenovo/Desktop/liteos/Project2/BearPi_LiteOS/osdepends/liteos/cmsis/2.0\cmsis_liteos2.c ****     if (LOS_OK == uwRet)
 2175              		.loc 1 921 0
 2176 0012 70B1     		cbz	r0, .L258
 922:C:/Users/lenovo/Desktop/liteos/Project2/BearPi_LiteOS/osdepends/liteos/cmsis/2.0\cmsis_liteos2.c ****     {
 923:C:/Users/lenovo/Desktop/liteos/Project2/BearPi_LiteOS/osdepends/liteos/cmsis/2.0\cmsis_liteos2.c ****         return osOK;
 924:C:/Users/lenovo/Desktop/liteos/Project2/BearPi_LiteOS/osdepends/liteos/cmsis/2.0\cmsis_liteos2.c ****     }
 925:C:/Users/lenovo/Desktop/liteos/Project2/BearPi_LiteOS/osdepends/liteos/cmsis/2.0\cmsis_liteos2.c ****     else if (LOS_ERRNO_SWTMR_ID_INVALID == uwRet)
ARM GAS  c:\Users\lenovo\AppData\Local\Temp\ccnbuj3h.s 			page 56


 2177              		.loc 1 925 0
 2178 0014 084A     		ldr	r2, .L262
 2179 0016 9042     		cmp	r0, r2
 2180 0018 02D0     		beq	.L261
 926:C:/Users/lenovo/Desktop/liteos/Project2/BearPi_LiteOS/osdepends/liteos/cmsis/2.0\cmsis_liteos2.c ****     {
 927:C:/Users/lenovo/Desktop/liteos/Project2/BearPi_LiteOS/osdepends/liteos/cmsis/2.0\cmsis_liteos2.c ****         return osErrorParameter;
 928:C:/Users/lenovo/Desktop/liteos/Project2/BearPi_LiteOS/osdepends/liteos/cmsis/2.0\cmsis_liteos2.c ****     }
 929:C:/Users/lenovo/Desktop/liteos/Project2/BearPi_LiteOS/osdepends/liteos/cmsis/2.0\cmsis_liteos2.c ****     else
 930:C:/Users/lenovo/Desktop/liteos/Project2/BearPi_LiteOS/osdepends/liteos/cmsis/2.0\cmsis_liteos2.c ****     {
 931:C:/Users/lenovo/Desktop/liteos/Project2/BearPi_LiteOS/osdepends/liteos/cmsis/2.0\cmsis_liteos2.c ****         return osErrorResource;
 2181              		.loc 1 931 0
 2182 001a 6FF00200 		mvn	r0, #2
 2183              	.LVL213:
 2184 001e 09E0     		b	.L254
 2185              	.LVL214:
 2186              	.L261:
 927:C:/Users/lenovo/Desktop/liteos/Project2/BearPi_LiteOS/osdepends/liteos/cmsis/2.0\cmsis_liteos2.c ****     }
 2187              		.loc 1 927 0
 2188 0020 6FF00300 		mvn	r0, #3
 2189              	.LVL215:
 2190 0024 06E0     		b	.L254
 2191              	.L256:
 912:C:/Users/lenovo/Desktop/liteos/Project2/BearPi_LiteOS/osdepends/liteos/cmsis/2.0\cmsis_liteos2.c ****     }
 2192              		.loc 1 912 0
 2193 0026 6FF00500 		mvn	r0, #5
 2194 002a 03E0     		b	.L254
 2195              	.L257:
 917:C:/Users/lenovo/Desktop/liteos/Project2/BearPi_LiteOS/osdepends/liteos/cmsis/2.0\cmsis_liteos2.c ****     }
 2196              		.loc 1 917 0
 2197 002c 6FF00300 		mvn	r0, #3
 2198 0030 00E0     		b	.L254
 2199              	.LVL216:
 2200              	.L258:
 923:C:/Users/lenovo/Desktop/liteos/Project2/BearPi_LiteOS/osdepends/liteos/cmsis/2.0\cmsis_liteos2.c ****     }
 2201              		.loc 1 923 0
 2202 0032 0020     		movs	r0, #0
 2203              	.LVL217:
 2204              	.L254:
 932:C:/Users/lenovo/Desktop/liteos/Project2/BearPi_LiteOS/osdepends/liteos/cmsis/2.0\cmsis_liteos2.c ****     }
 933:C:/Users/lenovo/Desktop/liteos/Project2/BearPi_LiteOS/osdepends/liteos/cmsis/2.0\cmsis_liteos2.c **** }
 2205              		.loc 1 933 0
 2206 0034 10BD     		pop	{r4, pc}
 2207              	.LVL218:
 2208              	.L263:
 2209 0036 00BF     		.align	2
 2210              	.L262:
 2211 0038 05030002 		.word	33555205
 2212              		.cfi_endproc
 2213              	.LFE169:
 2215              		.section	.text.osEventFlagsNew,"ax",%progbits
 2216              		.align	1
 2217              		.global	osEventFlagsNew
 2218              		.syntax unified
 2219              		.thumb
 2220              		.thumb_func
 2221              		.fpu fpv4-sp-d16
 2223              	osEventFlagsNew:
ARM GAS  c:\Users\lenovo\AppData\Local\Temp\ccnbuj3h.s 			page 57


 2224              	.LFB170:
 934:C:/Users/lenovo/Desktop/liteos/Project2/BearPi_LiteOS/osdepends/liteos/cmsis/2.0\cmsis_liteos2.c **** #endif
 935:C:/Users/lenovo/Desktop/liteos/Project2/BearPi_LiteOS/osdepends/liteos/cmsis/2.0\cmsis_liteos2.c **** 
 936:C:/Users/lenovo/Desktop/liteos/Project2/BearPi_LiteOS/osdepends/liteos/cmsis/2.0\cmsis_liteos2.c **** osEventFlagsId_t osEventFlagsNew (const osEventFlagsAttr_t *attr)
 937:C:/Users/lenovo/Desktop/liteos/Project2/BearPi_LiteOS/osdepends/liteos/cmsis/2.0\cmsis_liteos2.c **** {
 2225              		.loc 1 937 0
 2226              		.cfi_startproc
 2227              		@ args = 0, pretend = 0, frame = 0
 2228              		@ frame_needed = 0, uses_anonymous_args = 0
 2229              	.LVL219:
 2230 0000 10B5     		push	{r4, lr}
 2231              	.LCFI43:
 2232              		.cfi_def_cfa_offset 8
 2233              		.cfi_offset 4, -8
 2234              		.cfi_offset 14, -4
 2235              	.LVL220:
 938:C:/Users/lenovo/Desktop/liteos/Project2/BearPi_LiteOS/osdepends/liteos/cmsis/2.0\cmsis_liteos2.c ****     PEVENT_CB_S pstEventCB = NULL;
 939:C:/Users/lenovo/Desktop/liteos/Project2/BearPi_LiteOS/osdepends/liteos/cmsis/2.0\cmsis_liteos2.c ****     UINT32 uwRet;
 940:C:/Users/lenovo/Desktop/liteos/Project2/BearPi_LiteOS/osdepends/liteos/cmsis/2.0\cmsis_liteos2.c **** 
 941:C:/Users/lenovo/Desktop/liteos/Project2/BearPi_LiteOS/osdepends/liteos/cmsis/2.0\cmsis_liteos2.c ****     UNUSED(attr);
 942:C:/Users/lenovo/Desktop/liteos/Project2/BearPi_LiteOS/osdepends/liteos/cmsis/2.0\cmsis_liteos2.c **** 
 943:C:/Users/lenovo/Desktop/liteos/Project2/BearPi_LiteOS/osdepends/liteos/cmsis/2.0\cmsis_liteos2.c ****     if (OS_INT_ACTIVE)
 2236              		.loc 1 943 0
 2237 0002 FFF7FEFF 		bl	osIntNumGet
 2238              	.LVL221:
 2239 0006 78B9     		cbnz	r0, .L266
 944:C:/Users/lenovo/Desktop/liteos/Project2/BearPi_LiteOS/osdepends/liteos/cmsis/2.0\cmsis_liteos2.c ****     {
 945:C:/Users/lenovo/Desktop/liteos/Project2/BearPi_LiteOS/osdepends/liteos/cmsis/2.0\cmsis_liteos2.c ****         return (osEventFlagsId_t)NULL;
 946:C:/Users/lenovo/Desktop/liteos/Project2/BearPi_LiteOS/osdepends/liteos/cmsis/2.0\cmsis_liteos2.c ****     }
 947:C:/Users/lenovo/Desktop/liteos/Project2/BearPi_LiteOS/osdepends/liteos/cmsis/2.0\cmsis_liteos2.c **** 
 948:C:/Users/lenovo/Desktop/liteos/Project2/BearPi_LiteOS/osdepends/liteos/cmsis/2.0\cmsis_liteos2.c ****     pstEventCB = (PEVENT_CB_S)LOS_MemAlloc(m_aucSysMem0, sizeof(EVENT_CB_S));
 2240              		.loc 1 948 0
 2241 0008 0C21     		movs	r1, #12
 2242 000a 094B     		ldr	r3, .L270
 2243 000c 1868     		ldr	r0, [r3]
 2244 000e FFF7FEFF 		bl	LOS_MemAlloc
 2245              	.LVL222:
 949:C:/Users/lenovo/Desktop/liteos/Project2/BearPi_LiteOS/osdepends/liteos/cmsis/2.0\cmsis_liteos2.c ****     if(pstEventCB == NULL )
 2246              		.loc 1 949 0
 2247 0012 0446     		mov	r4, r0
 2248 0014 50B1     		cbz	r0, .L267
 950:C:/Users/lenovo/Desktop/liteos/Project2/BearPi_LiteOS/osdepends/liteos/cmsis/2.0\cmsis_liteos2.c ****     {
 951:C:/Users/lenovo/Desktop/liteos/Project2/BearPi_LiteOS/osdepends/liteos/cmsis/2.0\cmsis_liteos2.c ****         return (osEventFlagsId_t)NULL;
 952:C:/Users/lenovo/Desktop/liteos/Project2/BearPi_LiteOS/osdepends/liteos/cmsis/2.0\cmsis_liteos2.c ****     }
 953:C:/Users/lenovo/Desktop/liteos/Project2/BearPi_LiteOS/osdepends/liteos/cmsis/2.0\cmsis_liteos2.c **** 
 954:C:/Users/lenovo/Desktop/liteos/Project2/BearPi_LiteOS/osdepends/liteos/cmsis/2.0\cmsis_liteos2.c ****     uwRet = LOS_EventInit(pstEventCB);
 2249              		.loc 1 954 0
 2250 0016 FFF7FEFF 		bl	LOS_EventInit
 2251              	.LVL223:
 955:C:/Users/lenovo/Desktop/liteos/Project2/BearPi_LiteOS/osdepends/liteos/cmsis/2.0\cmsis_liteos2.c ****     if (uwRet == LOS_ERRNO_EVENT_PTR_NULL)
 2252              		.loc 1 955 0
 2253 001a 064B     		ldr	r3, .L270+4
 2254 001c 9842     		cmp	r0, r3
 2255 001e 01D0     		beq	.L269
 2256              	.LVL224:
 2257              	.L264:
 956:C:/Users/lenovo/Desktop/liteos/Project2/BearPi_LiteOS/osdepends/liteos/cmsis/2.0\cmsis_liteos2.c ****     {
ARM GAS  c:\Users\lenovo\AppData\Local\Temp\ccnbuj3h.s 			page 58


 957:C:/Users/lenovo/Desktop/liteos/Project2/BearPi_LiteOS/osdepends/liteos/cmsis/2.0\cmsis_liteos2.c ****         return (osEventFlagsId_t)NULL;
 958:C:/Users/lenovo/Desktop/liteos/Project2/BearPi_LiteOS/osdepends/liteos/cmsis/2.0\cmsis_liteos2.c ****     }
 959:C:/Users/lenovo/Desktop/liteos/Project2/BearPi_LiteOS/osdepends/liteos/cmsis/2.0\cmsis_liteos2.c ****     else
 960:C:/Users/lenovo/Desktop/liteos/Project2/BearPi_LiteOS/osdepends/liteos/cmsis/2.0\cmsis_liteos2.c ****     {
 961:C:/Users/lenovo/Desktop/liteos/Project2/BearPi_LiteOS/osdepends/liteos/cmsis/2.0\cmsis_liteos2.c ****         return (osEventFlagsId_t)pstEventCB;
 962:C:/Users/lenovo/Desktop/liteos/Project2/BearPi_LiteOS/osdepends/liteos/cmsis/2.0\cmsis_liteos2.c ****     }
 963:C:/Users/lenovo/Desktop/liteos/Project2/BearPi_LiteOS/osdepends/liteos/cmsis/2.0\cmsis_liteos2.c **** }
 2258              		.loc 1 963 0
 2259 0020 2046     		mov	r0, r4
 2260 0022 10BD     		pop	{r4, pc}
 2261              	.LVL225:
 2262              	.L269:
 957:C:/Users/lenovo/Desktop/liteos/Project2/BearPi_LiteOS/osdepends/liteos/cmsis/2.0\cmsis_liteos2.c ****     }
 2263              		.loc 1 957 0
 2264 0024 0024     		movs	r4, #0
 2265              	.LVL226:
 2266 0026 FBE7     		b	.L264
 2267              	.LVL227:
 2268              	.L266:
 945:C:/Users/lenovo/Desktop/liteos/Project2/BearPi_LiteOS/osdepends/liteos/cmsis/2.0\cmsis_liteos2.c ****     }
 2269              		.loc 1 945 0
 2270 0028 0024     		movs	r4, #0
 2271 002a F9E7     		b	.L264
 2272              	.LVL228:
 2273              	.L267:
 951:C:/Users/lenovo/Desktop/liteos/Project2/BearPi_LiteOS/osdepends/liteos/cmsis/2.0\cmsis_liteos2.c ****     }
 2274              		.loc 1 951 0
 2275 002c 0024     		movs	r4, #0
 2276 002e F7E7     		b	.L264
 2277              	.L271:
 2278              		.align	2
 2279              	.L270:
 2280 0030 00000000 		.word	m_aucSysMem0
 2281 0034 061C0002 		.word	33561606
 2282              		.cfi_endproc
 2283              	.LFE170:
 2285              		.section	.text.osEventFlagsGetName,"ax",%progbits
 2286              		.align	1
 2287              		.global	osEventFlagsGetName
 2288              		.syntax unified
 2289              		.thumb
 2290              		.thumb_func
 2291              		.fpu fpv4-sp-d16
 2293              	osEventFlagsGetName:
 2294              	.LFB171:
 964:C:/Users/lenovo/Desktop/liteos/Project2/BearPi_LiteOS/osdepends/liteos/cmsis/2.0\cmsis_liteos2.c **** 
 965:C:/Users/lenovo/Desktop/liteos/Project2/BearPi_LiteOS/osdepends/liteos/cmsis/2.0\cmsis_liteos2.c **** 
 966:C:/Users/lenovo/Desktop/liteos/Project2/BearPi_LiteOS/osdepends/liteos/cmsis/2.0\cmsis_liteos2.c **** const char *osEventFlagsGetName (osEventFlagsId_t ef_id)
 967:C:/Users/lenovo/Desktop/liteos/Project2/BearPi_LiteOS/osdepends/liteos/cmsis/2.0\cmsis_liteos2.c **** {
 2295              		.loc 1 967 0
 2296              		.cfi_startproc
 2297              		@ args = 0, pretend = 0, frame = 0
 2298              		@ frame_needed = 0, uses_anonymous_args = 0
 2299              	.LVL229:
 2300 0000 08B5     		push	{r3, lr}
 2301              	.LCFI44:
 2302              		.cfi_def_cfa_offset 8
ARM GAS  c:\Users\lenovo\AppData\Local\Temp\ccnbuj3h.s 			page 59


 2303              		.cfi_offset 3, -8
 2304              		.cfi_offset 14, -4
 968:C:/Users/lenovo/Desktop/liteos/Project2/BearPi_LiteOS/osdepends/liteos/cmsis/2.0\cmsis_liteos2.c ****     UNUSED(ef_id);
 969:C:/Users/lenovo/Desktop/liteos/Project2/BearPi_LiteOS/osdepends/liteos/cmsis/2.0\cmsis_liteos2.c **** 
 970:C:/Users/lenovo/Desktop/liteos/Project2/BearPi_LiteOS/osdepends/liteos/cmsis/2.0\cmsis_liteos2.c ****     if (OS_INT_ACTIVE)
 2305              		.loc 1 970 0
 2306 0002 FFF7FEFF 		bl	osIntNumGet
 2307              	.LVL230:
 971:C:/Users/lenovo/Desktop/liteos/Project2/BearPi_LiteOS/osdepends/liteos/cmsis/2.0\cmsis_liteos2.c ****     {
 972:C:/Users/lenovo/Desktop/liteos/Project2/BearPi_LiteOS/osdepends/liteos/cmsis/2.0\cmsis_liteos2.c ****         return (const char *)NULL;
 973:C:/Users/lenovo/Desktop/liteos/Project2/BearPi_LiteOS/osdepends/liteos/cmsis/2.0\cmsis_liteos2.c ****     }
 974:C:/Users/lenovo/Desktop/liteos/Project2/BearPi_LiteOS/osdepends/liteos/cmsis/2.0\cmsis_liteos2.c **** 
 975:C:/Users/lenovo/Desktop/liteos/Project2/BearPi_LiteOS/osdepends/liteos/cmsis/2.0\cmsis_liteos2.c ****     return (const char *)NULL;
 976:C:/Users/lenovo/Desktop/liteos/Project2/BearPi_LiteOS/osdepends/liteos/cmsis/2.0\cmsis_liteos2.c **** }
 2308              		.loc 1 976 0
 2309 0006 0020     		movs	r0, #0
 2310 0008 08BD     		pop	{r3, pc}
 2311              		.cfi_endproc
 2312              	.LFE171:
 2314              		.section	.text.osEventFlagsSet,"ax",%progbits
 2315              		.align	1
 2316              		.global	osEventFlagsSet
 2317              		.syntax unified
 2318              		.thumb
 2319              		.thumb_func
 2320              		.fpu fpv4-sp-d16
 2322              	osEventFlagsSet:
 2323              	.LFB172:
 977:C:/Users/lenovo/Desktop/liteos/Project2/BearPi_LiteOS/osdepends/liteos/cmsis/2.0\cmsis_liteos2.c **** 
 978:C:/Users/lenovo/Desktop/liteos/Project2/BearPi_LiteOS/osdepends/liteos/cmsis/2.0\cmsis_liteos2.c **** 
 979:C:/Users/lenovo/Desktop/liteos/Project2/BearPi_LiteOS/osdepends/liteos/cmsis/2.0\cmsis_liteos2.c **** uint32_t osEventFlagsSet (osEventFlagsId_t ef_id, uint32_t flags)
 980:C:/Users/lenovo/Desktop/liteos/Project2/BearPi_LiteOS/osdepends/liteos/cmsis/2.0\cmsis_liteos2.c **** {
 2324              		.loc 1 980 0
 2325              		.cfi_startproc
 2326              		@ args = 0, pretend = 0, frame = 0
 2327              		@ frame_needed = 0, uses_anonymous_args = 0
 2328              	.LVL231:
 2329 0000 10B5     		push	{r4, lr}
 2330              	.LCFI45:
 2331              		.cfi_def_cfa_offset 8
 2332              		.cfi_offset 4, -8
 2333              		.cfi_offset 14, -4
 2334 0002 0446     		mov	r4, r0
 2335              	.LVL232:
 981:C:/Users/lenovo/Desktop/liteos/Project2/BearPi_LiteOS/osdepends/liteos/cmsis/2.0\cmsis_liteos2.c ****     PEVENT_CB_S pstEventCB = (PEVENT_CB_S)ef_id;
 982:C:/Users/lenovo/Desktop/liteos/Project2/BearPi_LiteOS/osdepends/liteos/cmsis/2.0\cmsis_liteos2.c ****     UINT32 uwRet;
 983:C:/Users/lenovo/Desktop/liteos/Project2/BearPi_LiteOS/osdepends/liteos/cmsis/2.0\cmsis_liteos2.c ****     uint32_t rflags;
 984:C:/Users/lenovo/Desktop/liteos/Project2/BearPi_LiteOS/osdepends/liteos/cmsis/2.0\cmsis_liteos2.c **** 
 985:C:/Users/lenovo/Desktop/liteos/Project2/BearPi_LiteOS/osdepends/liteos/cmsis/2.0\cmsis_liteos2.c ****     uwRet = LOS_EventWrite(pstEventCB, (UINT32)flags);
 2336              		.loc 1 985 0
 2337 0004 FFF7FEFF 		bl	LOS_EventWrite
 2338              	.LVL233:
 986:C:/Users/lenovo/Desktop/liteos/Project2/BearPi_LiteOS/osdepends/liteos/cmsis/2.0\cmsis_liteos2.c ****     if (uwRet != LOS_OK)
 2339              		.loc 1 986 0
 2340 0008 08B9     		cbnz	r0, .L276
 987:C:/Users/lenovo/Desktop/liteos/Project2/BearPi_LiteOS/osdepends/liteos/cmsis/2.0\cmsis_liteos2.c ****     {
 988:C:/Users/lenovo/Desktop/liteos/Project2/BearPi_LiteOS/osdepends/liteos/cmsis/2.0\cmsis_liteos2.c ****         return (uint32_t)osFlagsErrorParameter;
ARM GAS  c:\Users\lenovo\AppData\Local\Temp\ccnbuj3h.s 			page 60


 989:C:/Users/lenovo/Desktop/liteos/Project2/BearPi_LiteOS/osdepends/liteos/cmsis/2.0\cmsis_liteos2.c ****     }
 990:C:/Users/lenovo/Desktop/liteos/Project2/BearPi_LiteOS/osdepends/liteos/cmsis/2.0\cmsis_liteos2.c ****     else
 991:C:/Users/lenovo/Desktop/liteos/Project2/BearPi_LiteOS/osdepends/liteos/cmsis/2.0\cmsis_liteos2.c ****     {
 992:C:/Users/lenovo/Desktop/liteos/Project2/BearPi_LiteOS/osdepends/liteos/cmsis/2.0\cmsis_liteos2.c ****         rflags = pstEventCB->uwEventID;
 2341              		.loc 1 992 0
 2342 000a 2068     		ldr	r0, [r4]
 2343              	.LVL234:
 2344              	.L274:
 993:C:/Users/lenovo/Desktop/liteos/Project2/BearPi_LiteOS/osdepends/liteos/cmsis/2.0\cmsis_liteos2.c ****         return rflags;
 994:C:/Users/lenovo/Desktop/liteos/Project2/BearPi_LiteOS/osdepends/liteos/cmsis/2.0\cmsis_liteos2.c ****     }
 995:C:/Users/lenovo/Desktop/liteos/Project2/BearPi_LiteOS/osdepends/liteos/cmsis/2.0\cmsis_liteos2.c **** }
 2345              		.loc 1 995 0
 2346 000c 10BD     		pop	{r4, pc}
 2347              	.LVL235:
 2348              	.L276:
 988:C:/Users/lenovo/Desktop/liteos/Project2/BearPi_LiteOS/osdepends/liteos/cmsis/2.0\cmsis_liteos2.c ****     }
 2349              		.loc 1 988 0
 2350 000e 6FF00300 		mvn	r0, #3
 2351              	.LVL236:
 2352 0012 FBE7     		b	.L274
 2353              		.cfi_endproc
 2354              	.LFE172:
 2356              		.section	.text.osEventFlagsClear,"ax",%progbits
 2357              		.align	1
 2358              		.global	osEventFlagsClear
 2359              		.syntax unified
 2360              		.thumb
 2361              		.thumb_func
 2362              		.fpu fpv4-sp-d16
 2364              	osEventFlagsClear:
 2365              	.LFB173:
 996:C:/Users/lenovo/Desktop/liteos/Project2/BearPi_LiteOS/osdepends/liteos/cmsis/2.0\cmsis_liteos2.c **** 
 997:C:/Users/lenovo/Desktop/liteos/Project2/BearPi_LiteOS/osdepends/liteos/cmsis/2.0\cmsis_liteos2.c **** 
 998:C:/Users/lenovo/Desktop/liteos/Project2/BearPi_LiteOS/osdepends/liteos/cmsis/2.0\cmsis_liteos2.c **** uint32_t osEventFlagsClear (osEventFlagsId_t ef_id, uint32_t flags)
 999:C:/Users/lenovo/Desktop/liteos/Project2/BearPi_LiteOS/osdepends/liteos/cmsis/2.0\cmsis_liteos2.c **** {
 2366              		.loc 1 999 0
 2367              		.cfi_startproc
 2368              		@ args = 0, pretend = 0, frame = 0
 2369              		@ frame_needed = 0, uses_anonymous_args = 0
 2370              	.LVL237:
 2371 0000 F8B5     		push	{r3, r4, r5, r6, r7, lr}
 2372              	.LCFI46:
 2373              		.cfi_def_cfa_offset 24
 2374              		.cfi_offset 3, -24
 2375              		.cfi_offset 4, -20
 2376              		.cfi_offset 5, -16
 2377              		.cfi_offset 6, -12
 2378              		.cfi_offset 7, -8
 2379              		.cfi_offset 14, -4
 2380              	.LVL238:
1000:C:/Users/lenovo/Desktop/liteos/Project2/BearPi_LiteOS/osdepends/liteos/cmsis/2.0\cmsis_liteos2.c ****     PEVENT_CB_S pstEventCB = (PEVENT_CB_S)ef_id;
1001:C:/Users/lenovo/Desktop/liteos/Project2/BearPi_LiteOS/osdepends/liteos/cmsis/2.0\cmsis_liteos2.c ****     UINTPTR uwIntSave;
1002:C:/Users/lenovo/Desktop/liteos/Project2/BearPi_LiteOS/osdepends/liteos/cmsis/2.0\cmsis_liteos2.c ****     uint32_t rflags;
1003:C:/Users/lenovo/Desktop/liteos/Project2/BearPi_LiteOS/osdepends/liteos/cmsis/2.0\cmsis_liteos2.c ****     UINT32 uwRet;
1004:C:/Users/lenovo/Desktop/liteos/Project2/BearPi_LiteOS/osdepends/liteos/cmsis/2.0\cmsis_liteos2.c **** 
1005:C:/Users/lenovo/Desktop/liteos/Project2/BearPi_LiteOS/osdepends/liteos/cmsis/2.0\cmsis_liteos2.c ****     if (pstEventCB == NULL)
 2381              		.loc 1 1005 0
ARM GAS  c:\Users\lenovo\AppData\Local\Temp\ccnbuj3h.s 			page 61


 2382 0002 98B1     		cbz	r0, .L280
 2383 0004 0446     		mov	r4, r0
 2384 0006 0D46     		mov	r5, r1
1006:C:/Users/lenovo/Desktop/liteos/Project2/BearPi_LiteOS/osdepends/liteos/cmsis/2.0\cmsis_liteos2.c ****     {
1007:C:/Users/lenovo/Desktop/liteos/Project2/BearPi_LiteOS/osdepends/liteos/cmsis/2.0\cmsis_liteos2.c ****         return (uint32_t)osFlagsErrorParameter;
1008:C:/Users/lenovo/Desktop/liteos/Project2/BearPi_LiteOS/osdepends/liteos/cmsis/2.0\cmsis_liteos2.c ****     }
1009:C:/Users/lenovo/Desktop/liteos/Project2/BearPi_LiteOS/osdepends/liteos/cmsis/2.0\cmsis_liteos2.c **** 
1010:C:/Users/lenovo/Desktop/liteos/Project2/BearPi_LiteOS/osdepends/liteos/cmsis/2.0\cmsis_liteos2.c ****     uwIntSave = LOS_IntLock();
 2385              		.loc 1 1010 0
 2386 0008 FFF7FEFF 		bl	LOS_IntLock
 2387              	.LVL239:
 2388 000c 0746     		mov	r7, r0
 2389              	.LVL240:
1011:C:/Users/lenovo/Desktop/liteos/Project2/BearPi_LiteOS/osdepends/liteos/cmsis/2.0\cmsis_liteos2.c ****     rflags = pstEventCB->uwEventID;
 2390              		.loc 1 1011 0
 2391 000e 2668     		ldr	r6, [r4]
 2392              	.LVL241:
1012:C:/Users/lenovo/Desktop/liteos/Project2/BearPi_LiteOS/osdepends/liteos/cmsis/2.0\cmsis_liteos2.c **** 
1013:C:/Users/lenovo/Desktop/liteos/Project2/BearPi_LiteOS/osdepends/liteos/cmsis/2.0\cmsis_liteos2.c ****     uwRet = LOS_EventClear(pstEventCB, ~flags);
 2393              		.loc 1 1013 0
 2394 0010 E943     		mvns	r1, r5
 2395 0012 2046     		mov	r0, r4
 2396              	.LVL242:
 2397 0014 FFF7FEFF 		bl	LOS_EventClear
 2398              	.LVL243:
 2399 0018 0446     		mov	r4, r0
 2400              	.LVL244:
1014:C:/Users/lenovo/Desktop/liteos/Project2/BearPi_LiteOS/osdepends/liteos/cmsis/2.0\cmsis_liteos2.c ****     LOS_IntRestore(uwIntSave);
 2401              		.loc 1 1014 0
 2402 001a 3846     		mov	r0, r7
 2403              	.LVL245:
 2404 001c FFF7FEFF 		bl	LOS_IntRestore
 2405              	.LVL246:
1015:C:/Users/lenovo/Desktop/liteos/Project2/BearPi_LiteOS/osdepends/liteos/cmsis/2.0\cmsis_liteos2.c ****     if (uwRet !=  LOS_OK)
 2406              		.loc 1 1015 0
 2407 0020 0CB9     		cbnz	r4, .L282
 2408              	.LVL247:
 2409              	.L278:
1016:C:/Users/lenovo/Desktop/liteos/Project2/BearPi_LiteOS/osdepends/liteos/cmsis/2.0\cmsis_liteos2.c ****     {
1017:C:/Users/lenovo/Desktop/liteos/Project2/BearPi_LiteOS/osdepends/liteos/cmsis/2.0\cmsis_liteos2.c ****         return (uint32_t)osFlagsErrorParameter;
1018:C:/Users/lenovo/Desktop/liteos/Project2/BearPi_LiteOS/osdepends/liteos/cmsis/2.0\cmsis_liteos2.c ****     }
1019:C:/Users/lenovo/Desktop/liteos/Project2/BearPi_LiteOS/osdepends/liteos/cmsis/2.0\cmsis_liteos2.c ****     else
1020:C:/Users/lenovo/Desktop/liteos/Project2/BearPi_LiteOS/osdepends/liteos/cmsis/2.0\cmsis_liteos2.c ****     {
1021:C:/Users/lenovo/Desktop/liteos/Project2/BearPi_LiteOS/osdepends/liteos/cmsis/2.0\cmsis_liteos2.c ****         return rflags;
1022:C:/Users/lenovo/Desktop/liteos/Project2/BearPi_LiteOS/osdepends/liteos/cmsis/2.0\cmsis_liteos2.c ****     }
1023:C:/Users/lenovo/Desktop/liteos/Project2/BearPi_LiteOS/osdepends/liteos/cmsis/2.0\cmsis_liteos2.c **** }
 2410              		.loc 1 1023 0
 2411 0022 3046     		mov	r0, r6
 2412 0024 F8BD     		pop	{r3, r4, r5, r6, r7, pc}
 2413              	.LVL248:
 2414              	.L282:
1017:C:/Users/lenovo/Desktop/liteos/Project2/BearPi_LiteOS/osdepends/liteos/cmsis/2.0\cmsis_liteos2.c ****     }
 2415              		.loc 1 1017 0
 2416 0026 6FF00306 		mvn	r6, #3
 2417              	.LVL249:
 2418 002a FAE7     		b	.L278
 2419              	.LVL250:
ARM GAS  c:\Users\lenovo\AppData\Local\Temp\ccnbuj3h.s 			page 62


 2420              	.L280:
1007:C:/Users/lenovo/Desktop/liteos/Project2/BearPi_LiteOS/osdepends/liteos/cmsis/2.0\cmsis_liteos2.c ****     }
 2421              		.loc 1 1007 0
 2422 002c 6FF00306 		mvn	r6, #3
 2423 0030 F7E7     		b	.L278
 2424              		.cfi_endproc
 2425              	.LFE173:
 2427              		.section	.text.osEventFlagsGet,"ax",%progbits
 2428              		.align	1
 2429              		.global	osEventFlagsGet
 2430              		.syntax unified
 2431              		.thumb
 2432              		.thumb_func
 2433              		.fpu fpv4-sp-d16
 2435              	osEventFlagsGet:
 2436              	.LFB174:
1024:C:/Users/lenovo/Desktop/liteos/Project2/BearPi_LiteOS/osdepends/liteos/cmsis/2.0\cmsis_liteos2.c **** 
1025:C:/Users/lenovo/Desktop/liteos/Project2/BearPi_LiteOS/osdepends/liteos/cmsis/2.0\cmsis_liteos2.c **** 
1026:C:/Users/lenovo/Desktop/liteos/Project2/BearPi_LiteOS/osdepends/liteos/cmsis/2.0\cmsis_liteos2.c **** uint32_t osEventFlagsGet (osEventFlagsId_t ef_id)
1027:C:/Users/lenovo/Desktop/liteos/Project2/BearPi_LiteOS/osdepends/liteos/cmsis/2.0\cmsis_liteos2.c **** {
 2437              		.loc 1 1027 0
 2438              		.cfi_startproc
 2439              		@ args = 0, pretend = 0, frame = 0
 2440              		@ frame_needed = 0, uses_anonymous_args = 0
 2441              	.LVL251:
 2442 0000 10B5     		push	{r4, lr}
 2443              	.LCFI47:
 2444              		.cfi_def_cfa_offset 8
 2445              		.cfi_offset 4, -8
 2446              		.cfi_offset 14, -4
 2447              	.LVL252:
1028:C:/Users/lenovo/Desktop/liteos/Project2/BearPi_LiteOS/osdepends/liteos/cmsis/2.0\cmsis_liteos2.c ****     PEVENT_CB_S pstEventCB = (PEVENT_CB_S)ef_id;
1029:C:/Users/lenovo/Desktop/liteos/Project2/BearPi_LiteOS/osdepends/liteos/cmsis/2.0\cmsis_liteos2.c ****     UINTPTR uwIntSave;
1030:C:/Users/lenovo/Desktop/liteos/Project2/BearPi_LiteOS/osdepends/liteos/cmsis/2.0\cmsis_liteos2.c ****     uint32_t rflags;
1031:C:/Users/lenovo/Desktop/liteos/Project2/BearPi_LiteOS/osdepends/liteos/cmsis/2.0\cmsis_liteos2.c **** 
1032:C:/Users/lenovo/Desktop/liteos/Project2/BearPi_LiteOS/osdepends/liteos/cmsis/2.0\cmsis_liteos2.c ****     if (pstEventCB == NULL)
 2448              		.loc 1 1032 0
 2449 0002 38B1     		cbz	r0, .L285
 2450 0004 0446     		mov	r4, r0
1033:C:/Users/lenovo/Desktop/liteos/Project2/BearPi_LiteOS/osdepends/liteos/cmsis/2.0\cmsis_liteos2.c ****     {
1034:C:/Users/lenovo/Desktop/liteos/Project2/BearPi_LiteOS/osdepends/liteos/cmsis/2.0\cmsis_liteos2.c ****         return (uint32_t)osFlagsErrorParameter;
1035:C:/Users/lenovo/Desktop/liteos/Project2/BearPi_LiteOS/osdepends/liteos/cmsis/2.0\cmsis_liteos2.c ****     }
1036:C:/Users/lenovo/Desktop/liteos/Project2/BearPi_LiteOS/osdepends/liteos/cmsis/2.0\cmsis_liteos2.c **** 
1037:C:/Users/lenovo/Desktop/liteos/Project2/BearPi_LiteOS/osdepends/liteos/cmsis/2.0\cmsis_liteos2.c ****     uwIntSave = LOS_IntLock();
 2451              		.loc 1 1037 0
 2452 0006 FFF7FEFF 		bl	LOS_IntLock
 2453              	.LVL253:
1038:C:/Users/lenovo/Desktop/liteos/Project2/BearPi_LiteOS/osdepends/liteos/cmsis/2.0\cmsis_liteos2.c ****     rflags = pstEventCB->uwEventID;
 2454              		.loc 1 1038 0
 2455 000a 2468     		ldr	r4, [r4]
 2456              	.LVL254:
1039:C:/Users/lenovo/Desktop/liteos/Project2/BearPi_LiteOS/osdepends/liteos/cmsis/2.0\cmsis_liteos2.c ****     LOS_IntRestore(uwIntSave);
 2457              		.loc 1 1039 0
 2458 000c FFF7FEFF 		bl	LOS_IntRestore
 2459              	.LVL255:
 2460              	.L283:
1040:C:/Users/lenovo/Desktop/liteos/Project2/BearPi_LiteOS/osdepends/liteos/cmsis/2.0\cmsis_liteos2.c **** 
ARM GAS  c:\Users\lenovo\AppData\Local\Temp\ccnbuj3h.s 			page 63


1041:C:/Users/lenovo/Desktop/liteos/Project2/BearPi_LiteOS/osdepends/liteos/cmsis/2.0\cmsis_liteos2.c ****     return rflags;
1042:C:/Users/lenovo/Desktop/liteos/Project2/BearPi_LiteOS/osdepends/liteos/cmsis/2.0\cmsis_liteos2.c **** }
 2461              		.loc 1 1042 0
 2462 0010 2046     		mov	r0, r4
 2463 0012 10BD     		pop	{r4, pc}
 2464              	.LVL256:
 2465              	.L285:
1034:C:/Users/lenovo/Desktop/liteos/Project2/BearPi_LiteOS/osdepends/liteos/cmsis/2.0\cmsis_liteos2.c ****     }
 2466              		.loc 1 1034 0
 2467 0014 6FF00304 		mvn	r4, #3
 2468 0018 FAE7     		b	.L283
 2469              		.cfi_endproc
 2470              	.LFE174:
 2472              		.section	.text.osEventFlagsWait,"ax",%progbits
 2473              		.align	1
 2474              		.global	osEventFlagsWait
 2475              		.syntax unified
 2476              		.thumb
 2477              		.thumb_func
 2478              		.fpu fpv4-sp-d16
 2480              	osEventFlagsWait:
 2481              	.LFB175:
1043:C:/Users/lenovo/Desktop/liteos/Project2/BearPi_LiteOS/osdepends/liteos/cmsis/2.0\cmsis_liteos2.c **** 
1044:C:/Users/lenovo/Desktop/liteos/Project2/BearPi_LiteOS/osdepends/liteos/cmsis/2.0\cmsis_liteos2.c **** uint32_t osEventFlagsWait (osEventFlagsId_t ef_id, uint32_t flags, uint32_t options, uint32_t timeo
1045:C:/Users/lenovo/Desktop/liteos/Project2/BearPi_LiteOS/osdepends/liteos/cmsis/2.0\cmsis_liteos2.c **** {
 2482              		.loc 1 1045 0
 2483              		.cfi_startproc
 2484              		@ args = 0, pretend = 0, frame = 0
 2485              		@ frame_needed = 0, uses_anonymous_args = 0
 2486              	.LVL257:
1046:C:/Users/lenovo/Desktop/liteos/Project2/BearPi_LiteOS/osdepends/liteos/cmsis/2.0\cmsis_liteos2.c ****     PEVENT_CB_S pstEventCB = (PEVENT_CB_S)ef_id;
1047:C:/Users/lenovo/Desktop/liteos/Project2/BearPi_LiteOS/osdepends/liteos/cmsis/2.0\cmsis_liteos2.c ****     UINT32 uwMode = 0;
1048:C:/Users/lenovo/Desktop/liteos/Project2/BearPi_LiteOS/osdepends/liteos/cmsis/2.0\cmsis_liteos2.c ****     UINT32 uwRet;
1049:C:/Users/lenovo/Desktop/liteos/Project2/BearPi_LiteOS/osdepends/liteos/cmsis/2.0\cmsis_liteos2.c ****     uint32_t rflags = 0;
1050:C:/Users/lenovo/Desktop/liteos/Project2/BearPi_LiteOS/osdepends/liteos/cmsis/2.0\cmsis_liteos2.c **** 
1051:C:/Users/lenovo/Desktop/liteos/Project2/BearPi_LiteOS/osdepends/liteos/cmsis/2.0\cmsis_liteos2.c ****     if (options > (osFlagsWaitAny | osFlagsWaitAll | osFlagsNoClear))
 2487              		.loc 1 1051 0
 2488 0000 032A     		cmp	r2, #3
 2489 0002 22D8     		bhi	.L296
1045:C:/Users/lenovo/Desktop/liteos/Project2/BearPi_LiteOS/osdepends/liteos/cmsis/2.0\cmsis_liteos2.c ****     PEVENT_CB_S pstEventCB = (PEVENT_CB_S)ef_id;
 2490              		.loc 1 1045 0
 2491 0004 10B5     		push	{r4, lr}
 2492              	.LCFI48:
 2493              		.cfi_def_cfa_offset 8
 2494              		.cfi_offset 4, -8
 2495              		.cfi_offset 14, -4
1052:C:/Users/lenovo/Desktop/liteos/Project2/BearPi_LiteOS/osdepends/liteos/cmsis/2.0\cmsis_liteos2.c ****     {
1053:C:/Users/lenovo/Desktop/liteos/Project2/BearPi_LiteOS/osdepends/liteos/cmsis/2.0\cmsis_liteos2.c ****         return (uint32_t)osFlagsErrorParameter;
1054:C:/Users/lenovo/Desktop/liteos/Project2/BearPi_LiteOS/osdepends/liteos/cmsis/2.0\cmsis_liteos2.c ****     }
1055:C:/Users/lenovo/Desktop/liteos/Project2/BearPi_LiteOS/osdepends/liteos/cmsis/2.0\cmsis_liteos2.c **** 
1056:C:/Users/lenovo/Desktop/liteos/Project2/BearPi_LiteOS/osdepends/liteos/cmsis/2.0\cmsis_liteos2.c ****     if ((options & osFlagsWaitAll) == osFlagsWaitAll)
 2496              		.loc 1 1056 0
 2497 0006 12F0010F 		tst	r2, #1
 2498 000a 13D0     		beq	.L297
1057:C:/Users/lenovo/Desktop/liteos/Project2/BearPi_LiteOS/osdepends/liteos/cmsis/2.0\cmsis_liteos2.c ****     {
1058:C:/Users/lenovo/Desktop/liteos/Project2/BearPi_LiteOS/osdepends/liteos/cmsis/2.0\cmsis_liteos2.c ****         uwMode |= LOS_WAITMODE_AND;
 2499              		.loc 1 1058 0
ARM GAS  c:\Users\lenovo\AppData\Local\Temp\ccnbuj3h.s 			page 64


 2500 000c 0424     		movs	r4, #4
 2501              	.L289:
 2502              	.LVL258:
1059:C:/Users/lenovo/Desktop/liteos/Project2/BearPi_LiteOS/osdepends/liteos/cmsis/2.0\cmsis_liteos2.c ****     }
1060:C:/Users/lenovo/Desktop/liteos/Project2/BearPi_LiteOS/osdepends/liteos/cmsis/2.0\cmsis_liteos2.c ****     else
1061:C:/Users/lenovo/Desktop/liteos/Project2/BearPi_LiteOS/osdepends/liteos/cmsis/2.0\cmsis_liteos2.c ****     {
1062:C:/Users/lenovo/Desktop/liteos/Project2/BearPi_LiteOS/osdepends/liteos/cmsis/2.0\cmsis_liteos2.c ****         uwMode |= LOS_WAITMODE_OR;
1063:C:/Users/lenovo/Desktop/liteos/Project2/BearPi_LiteOS/osdepends/liteos/cmsis/2.0\cmsis_liteos2.c ****     }
1064:C:/Users/lenovo/Desktop/liteos/Project2/BearPi_LiteOS/osdepends/liteos/cmsis/2.0\cmsis_liteos2.c **** 
1065:C:/Users/lenovo/Desktop/liteos/Project2/BearPi_LiteOS/osdepends/liteos/cmsis/2.0\cmsis_liteos2.c ****     if ((options & osFlagsNoClear)  == osFlagsNoClear)
 2503              		.loc 1 1065 0
 2504 000e 12F0020F 		tst	r2, #2
 2505 0012 11D0     		beq	.L290
1066:C:/Users/lenovo/Desktop/liteos/Project2/BearPi_LiteOS/osdepends/liteos/cmsis/2.0\cmsis_liteos2.c ****     {
1067:C:/Users/lenovo/Desktop/liteos/Project2/BearPi_LiteOS/osdepends/liteos/cmsis/2.0\cmsis_liteos2.c ****         uwMode &= ~LOS_WAITMODE_CLR;
 2506              		.loc 1 1067 0
 2507 0014 24F00102 		bic	r2, r4, #1
 2508              	.LVL259:
 2509              	.L291:
1068:C:/Users/lenovo/Desktop/liteos/Project2/BearPi_LiteOS/osdepends/liteos/cmsis/2.0\cmsis_liteos2.c ****     }
1069:C:/Users/lenovo/Desktop/liteos/Project2/BearPi_LiteOS/osdepends/liteos/cmsis/2.0\cmsis_liteos2.c ****     else
1070:C:/Users/lenovo/Desktop/liteos/Project2/BearPi_LiteOS/osdepends/liteos/cmsis/2.0\cmsis_liteos2.c ****     {
1071:C:/Users/lenovo/Desktop/liteos/Project2/BearPi_LiteOS/osdepends/liteos/cmsis/2.0\cmsis_liteos2.c ****         uwMode |= LOS_WAITMODE_CLR;
1072:C:/Users/lenovo/Desktop/liteos/Project2/BearPi_LiteOS/osdepends/liteos/cmsis/2.0\cmsis_liteos2.c ****     }
1073:C:/Users/lenovo/Desktop/liteos/Project2/BearPi_LiteOS/osdepends/liteos/cmsis/2.0\cmsis_liteos2.c **** 
1074:C:/Users/lenovo/Desktop/liteos/Project2/BearPi_LiteOS/osdepends/liteos/cmsis/2.0\cmsis_liteos2.c ****     uwRet = LOS_EventRead(pstEventCB, (UINT32)flags, uwMode, (UINT32)timeout);
 2510              		.loc 1 1074 0
 2511 0018 FFF7FEFF 		bl	LOS_EventRead
 2512              	.LVL260:
1075:C:/Users/lenovo/Desktop/liteos/Project2/BearPi_LiteOS/osdepends/liteos/cmsis/2.0\cmsis_liteos2.c ****     switch(uwRet)
 2513              		.loc 1 1075 0
 2514 001c 00F17E43 		add	r3, r0, #-33554432
 2515 0020 A3F5E053 		sub	r3, r3, #7168
 2516 0024 062B     		cmp	r3, #6
 2517 0026 15D8     		bhi	.L287
 2518 0028 DFE803F0 		tbb	[pc, r3]
 2519              	.L294:
 2520 002c 09       		.byte	(.L293-.L294)/2
 2521 002d 0C       		.byte	(.L295-.L294)/2
 2522 002e 09       		.byte	(.L293-.L294)/2
 2523 002f 12       		.byte	(.L298-.L294)/2
 2524 0030 12       		.byte	(.L298-.L294)/2
 2525 0031 12       		.byte	(.L298-.L294)/2
 2526 0032 09       		.byte	(.L293-.L294)/2
 2527              	.LVL261:
 2528 0033 00       		.p2align 1
 2529              	.L297:
1062:C:/Users/lenovo/Desktop/liteos/Project2/BearPi_LiteOS/osdepends/liteos/cmsis/2.0\cmsis_liteos2.c ****     }
 2530              		.loc 1 1062 0
 2531 0034 0224     		movs	r4, #2
 2532 0036 EAE7     		b	.L289
 2533              	.LVL262:
 2534              	.L290:
1071:C:/Users/lenovo/Desktop/liteos/Project2/BearPi_LiteOS/osdepends/liteos/cmsis/2.0\cmsis_liteos2.c ****     }
 2535              		.loc 1 1071 0
 2536 0038 44F00102 		orr	r2, r4, #1
 2537              	.LVL263:
ARM GAS  c:\Users\lenovo\AppData\Local\Temp\ccnbuj3h.s 			page 65


 2538 003c ECE7     		b	.L291
 2539              	.LVL264:
 2540              	.L293:
1076:C:/Users/lenovo/Desktop/liteos/Project2/BearPi_LiteOS/osdepends/liteos/cmsis/2.0\cmsis_liteos2.c ****     {
1077:C:/Users/lenovo/Desktop/liteos/Project2/BearPi_LiteOS/osdepends/liteos/cmsis/2.0\cmsis_liteos2.c ****     case LOS_ERRNO_EVENT_PTR_NULL:
1078:C:/Users/lenovo/Desktop/liteos/Project2/BearPi_LiteOS/osdepends/liteos/cmsis/2.0\cmsis_liteos2.c ****     case LOS_ERRNO_EVENT_EVENTMASK_INVALID:
1079:C:/Users/lenovo/Desktop/liteos/Project2/BearPi_LiteOS/osdepends/liteos/cmsis/2.0\cmsis_liteos2.c ****     case LOS_ERRNO_EVENT_SETBIT_INVALID:
1080:C:/Users/lenovo/Desktop/liteos/Project2/BearPi_LiteOS/osdepends/liteos/cmsis/2.0\cmsis_liteos2.c ****         return (uint32_t)osFlagsErrorParameter;
 2541              		.loc 1 1080 0
 2542 003e 6FF00300 		mvn	r0, #3
 2543              	.LVL265:
 2544 0042 07E0     		b	.L287
 2545              	.LVL266:
 2546              	.L295:
1081:C:/Users/lenovo/Desktop/liteos/Project2/BearPi_LiteOS/osdepends/liteos/cmsis/2.0\cmsis_liteos2.c **** 
1082:C:/Users/lenovo/Desktop/liteos/Project2/BearPi_LiteOS/osdepends/liteos/cmsis/2.0\cmsis_liteos2.c ****     case LOS_ERRNO_EVENT_READ_IN_INTERRUPT:
1083:C:/Users/lenovo/Desktop/liteos/Project2/BearPi_LiteOS/osdepends/liteos/cmsis/2.0\cmsis_liteos2.c ****     case LOS_ERRNO_EVENT_FLAGS_INVALID:
1084:C:/Users/lenovo/Desktop/liteos/Project2/BearPi_LiteOS/osdepends/liteos/cmsis/2.0\cmsis_liteos2.c ****     case LOS_ERRNO_EVENT_READ_IN_LOCK:
1085:C:/Users/lenovo/Desktop/liteos/Project2/BearPi_LiteOS/osdepends/liteos/cmsis/2.0\cmsis_liteos2.c ****         return (uint32_t)osFlagsErrorResource;
1086:C:/Users/lenovo/Desktop/liteos/Project2/BearPi_LiteOS/osdepends/liteos/cmsis/2.0\cmsis_liteos2.c **** 
1087:C:/Users/lenovo/Desktop/liteos/Project2/BearPi_LiteOS/osdepends/liteos/cmsis/2.0\cmsis_liteos2.c ****     case LOS_ERRNO_EVENT_READ_TIMEOUT:
1088:C:/Users/lenovo/Desktop/liteos/Project2/BearPi_LiteOS/osdepends/liteos/cmsis/2.0\cmsis_liteos2.c ****         return (uint32_t)osFlagsErrorTimeout;
 2547              		.loc 1 1088 0
 2548 0044 6FF00100 		mvn	r0, #1
 2549              	.LVL267:
 2550 0048 04E0     		b	.L287
 2551              	.LVL268:
 2552              	.L296:
 2553              	.LCFI49:
 2554              		.cfi_def_cfa_offset 0
 2555              		.cfi_restore 4
 2556              		.cfi_restore 14
1053:C:/Users/lenovo/Desktop/liteos/Project2/BearPi_LiteOS/osdepends/liteos/cmsis/2.0\cmsis_liteos2.c ****     }
 2557              		.loc 1 1053 0
 2558 004a 6FF00300 		mvn	r0, #3
 2559              	.LVL269:
1089:C:/Users/lenovo/Desktop/liteos/Project2/BearPi_LiteOS/osdepends/liteos/cmsis/2.0\cmsis_liteos2.c **** 
1090:C:/Users/lenovo/Desktop/liteos/Project2/BearPi_LiteOS/osdepends/liteos/cmsis/2.0\cmsis_liteos2.c ****     default :
1091:C:/Users/lenovo/Desktop/liteos/Project2/BearPi_LiteOS/osdepends/liteos/cmsis/2.0\cmsis_liteos2.c ****         rflags = (uint32_t)uwRet;
1092:C:/Users/lenovo/Desktop/liteos/Project2/BearPi_LiteOS/osdepends/liteos/cmsis/2.0\cmsis_liteos2.c ****         return rflags;
1093:C:/Users/lenovo/Desktop/liteos/Project2/BearPi_LiteOS/osdepends/liteos/cmsis/2.0\cmsis_liteos2.c ****     }
1094:C:/Users/lenovo/Desktop/liteos/Project2/BearPi_LiteOS/osdepends/liteos/cmsis/2.0\cmsis_liteos2.c **** }
 2560              		.loc 1 1094 0
 2561 004e 7047     		bx	lr
 2562              	.LVL270:
 2563              	.L298:
 2564              	.LCFI50:
 2565              		.cfi_def_cfa_offset 8
 2566              		.cfi_offset 4, -8
 2567              		.cfi_offset 14, -4
1085:C:/Users/lenovo/Desktop/liteos/Project2/BearPi_LiteOS/osdepends/liteos/cmsis/2.0\cmsis_liteos2.c **** 
 2568              		.loc 1 1085 0
 2569 0050 6FF00200 		mvn	r0, #2
 2570              	.LVL271:
 2571              	.L287:
 2572              		.loc 1 1094 0
 2573 0054 10BD     		pop	{r4, pc}
ARM GAS  c:\Users\lenovo\AppData\Local\Temp\ccnbuj3h.s 			page 66


 2574              		.cfi_endproc
 2575              	.LFE175:
 2577              		.section	.text.osEventFlagsDelete,"ax",%progbits
 2578              		.align	1
 2579              		.global	osEventFlagsDelete
 2580              		.syntax unified
 2581              		.thumb
 2582              		.thumb_func
 2583              		.fpu fpv4-sp-d16
 2585              	osEventFlagsDelete:
 2586              	.LFB176:
1095:C:/Users/lenovo/Desktop/liteos/Project2/BearPi_LiteOS/osdepends/liteos/cmsis/2.0\cmsis_liteos2.c **** 
1096:C:/Users/lenovo/Desktop/liteos/Project2/BearPi_LiteOS/osdepends/liteos/cmsis/2.0\cmsis_liteos2.c **** 
1097:C:/Users/lenovo/Desktop/liteos/Project2/BearPi_LiteOS/osdepends/liteos/cmsis/2.0\cmsis_liteos2.c **** osStatus_t osEventFlagsDelete (osEventFlagsId_t ef_id)
1098:C:/Users/lenovo/Desktop/liteos/Project2/BearPi_LiteOS/osdepends/liteos/cmsis/2.0\cmsis_liteos2.c **** {
 2587              		.loc 1 1098 0
 2588              		.cfi_startproc
 2589              		@ args = 0, pretend = 0, frame = 0
 2590              		@ frame_needed = 0, uses_anonymous_args = 0
 2591              	.LVL272:
 2592 0000 38B5     		push	{r3, r4, r5, lr}
 2593              	.LCFI51:
 2594              		.cfi_def_cfa_offset 16
 2595              		.cfi_offset 3, -16
 2596              		.cfi_offset 4, -12
 2597              		.cfi_offset 5, -8
 2598              		.cfi_offset 14, -4
 2599 0002 0446     		mov	r4, r0
 2600              	.LVL273:
1099:C:/Users/lenovo/Desktop/liteos/Project2/BearPi_LiteOS/osdepends/liteos/cmsis/2.0\cmsis_liteos2.c ****     PEVENT_CB_S pstEventCB = (PEVENT_CB_S)ef_id;
1100:C:/Users/lenovo/Desktop/liteos/Project2/BearPi_LiteOS/osdepends/liteos/cmsis/2.0\cmsis_liteos2.c ****     UINTPTR uwIntSave;
1101:C:/Users/lenovo/Desktop/liteos/Project2/BearPi_LiteOS/osdepends/liteos/cmsis/2.0\cmsis_liteos2.c ****     osStatus_t uwRet;
1102:C:/Users/lenovo/Desktop/liteos/Project2/BearPi_LiteOS/osdepends/liteos/cmsis/2.0\cmsis_liteos2.c **** 
1103:C:/Users/lenovo/Desktop/liteos/Project2/BearPi_LiteOS/osdepends/liteos/cmsis/2.0\cmsis_liteos2.c ****     uwIntSave = LOS_IntLock();
 2601              		.loc 1 1103 0
 2602 0004 FFF7FEFF 		bl	LOS_IntLock
 2603              	.LVL274:
 2604 0008 0546     		mov	r5, r0
 2605              	.LVL275:
1104:C:/Users/lenovo/Desktop/liteos/Project2/BearPi_LiteOS/osdepends/liteos/cmsis/2.0\cmsis_liteos2.c ****     if (LOS_EventDestory(pstEventCB) == LOS_OK)
 2606              		.loc 1 1104 0
 2607 000a 2046     		mov	r0, r4
 2608              	.LVL276:
 2609 000c FFF7FEFF 		bl	LOS_EventDestory
 2610              	.LVL277:
1105:C:/Users/lenovo/Desktop/liteos/Project2/BearPi_LiteOS/osdepends/liteos/cmsis/2.0\cmsis_liteos2.c ****     {
1106:C:/Users/lenovo/Desktop/liteos/Project2/BearPi_LiteOS/osdepends/liteos/cmsis/2.0\cmsis_liteos2.c ****         uwRet = osOK;
1107:C:/Users/lenovo/Desktop/liteos/Project2/BearPi_LiteOS/osdepends/liteos/cmsis/2.0\cmsis_liteos2.c ****     }
1108:C:/Users/lenovo/Desktop/liteos/Project2/BearPi_LiteOS/osdepends/liteos/cmsis/2.0\cmsis_liteos2.c ****     else
1109:C:/Users/lenovo/Desktop/liteos/Project2/BearPi_LiteOS/osdepends/liteos/cmsis/2.0\cmsis_liteos2.c ****     {
1110:C:/Users/lenovo/Desktop/liteos/Project2/BearPi_LiteOS/osdepends/liteos/cmsis/2.0\cmsis_liteos2.c ****         uwRet = osErrorParameter;
1111:C:/Users/lenovo/Desktop/liteos/Project2/BearPi_LiteOS/osdepends/liteos/cmsis/2.0\cmsis_liteos2.c ****     }
1112:C:/Users/lenovo/Desktop/liteos/Project2/BearPi_LiteOS/osdepends/liteos/cmsis/2.0\cmsis_liteos2.c ****     LOS_IntRestore(uwIntSave);
 2611              		.loc 1 1112 0
 2612 0010 2846     		mov	r0, r5
 2613 0012 FFF7FEFF 		bl	LOS_IntRestore
 2614              	.LVL278:
ARM GAS  c:\Users\lenovo\AppData\Local\Temp\ccnbuj3h.s 			page 67


1113:C:/Users/lenovo/Desktop/liteos/Project2/BearPi_LiteOS/osdepends/liteos/cmsis/2.0\cmsis_liteos2.c **** 
1114:C:/Users/lenovo/Desktop/liteos/Project2/BearPi_LiteOS/osdepends/liteos/cmsis/2.0\cmsis_liteos2.c ****     if (LOS_MemFree(m_aucSysMem0, (void *)pstEventCB) == LOS_OK)
 2615              		.loc 1 1114 0
 2616 0016 2146     		mov	r1, r4
 2617 0018 044B     		ldr	r3, .L308
 2618 001a 1868     		ldr	r0, [r3]
 2619 001c FFF7FEFF 		bl	LOS_MemFree
 2620              	.LVL279:
 2621 0020 00B9     		cbnz	r0, .L307
 2622              	.L303:
1115:C:/Users/lenovo/Desktop/liteos/Project2/BearPi_LiteOS/osdepends/liteos/cmsis/2.0\cmsis_liteos2.c ****     {
1116:C:/Users/lenovo/Desktop/liteos/Project2/BearPi_LiteOS/osdepends/liteos/cmsis/2.0\cmsis_liteos2.c ****         uwRet = osOK;
1117:C:/Users/lenovo/Desktop/liteos/Project2/BearPi_LiteOS/osdepends/liteos/cmsis/2.0\cmsis_liteos2.c ****     }
1118:C:/Users/lenovo/Desktop/liteos/Project2/BearPi_LiteOS/osdepends/liteos/cmsis/2.0\cmsis_liteos2.c ****     else
1119:C:/Users/lenovo/Desktop/liteos/Project2/BearPi_LiteOS/osdepends/liteos/cmsis/2.0\cmsis_liteos2.c ****     {
1120:C:/Users/lenovo/Desktop/liteos/Project2/BearPi_LiteOS/osdepends/liteos/cmsis/2.0\cmsis_liteos2.c ****         uwRet = osErrorParameter;
1121:C:/Users/lenovo/Desktop/liteos/Project2/BearPi_LiteOS/osdepends/liteos/cmsis/2.0\cmsis_liteos2.c ****     }
1122:C:/Users/lenovo/Desktop/liteos/Project2/BearPi_LiteOS/osdepends/liteos/cmsis/2.0\cmsis_liteos2.c **** 
1123:C:/Users/lenovo/Desktop/liteos/Project2/BearPi_LiteOS/osdepends/liteos/cmsis/2.0\cmsis_liteos2.c ****     return uwRet;
1124:C:/Users/lenovo/Desktop/liteos/Project2/BearPi_LiteOS/osdepends/liteos/cmsis/2.0\cmsis_liteos2.c **** }
 2623              		.loc 1 1124 0
 2624 0022 38BD     		pop	{r3, r4, r5, pc}
 2625              	.LVL280:
 2626              	.L307:
1120:C:/Users/lenovo/Desktop/liteos/Project2/BearPi_LiteOS/osdepends/liteos/cmsis/2.0\cmsis_liteos2.c ****     }
 2627              		.loc 1 1120 0
 2628 0024 6FF00300 		mvn	r0, #3
 2629              	.LVL281:
1123:C:/Users/lenovo/Desktop/liteos/Project2/BearPi_LiteOS/osdepends/liteos/cmsis/2.0\cmsis_liteos2.c **** }
 2630              		.loc 1 1123 0
 2631 0028 FBE7     		b	.L303
 2632              	.L309:
 2633 002a 00BF     		.align	2
 2634              	.L308:
 2635 002c 00000000 		.word	m_aucSysMem0
 2636              		.cfi_endproc
 2637              	.LFE176:
 2639              		.section	.text.osMutexNew,"ax",%progbits
 2640              		.align	1
 2641              		.global	osMutexNew
 2642              		.syntax unified
 2643              		.thumb
 2644              		.thumb_func
 2645              		.fpu fpv4-sp-d16
 2647              	osMutexNew:
 2648              	.LFB177:
1125:C:/Users/lenovo/Desktop/liteos/Project2/BearPi_LiteOS/osdepends/liteos/cmsis/2.0\cmsis_liteos2.c **** 
1126:C:/Users/lenovo/Desktop/liteos/Project2/BearPi_LiteOS/osdepends/liteos/cmsis/2.0\cmsis_liteos2.c **** 
1127:C:/Users/lenovo/Desktop/liteos/Project2/BearPi_LiteOS/osdepends/liteos/cmsis/2.0\cmsis_liteos2.c **** //  ==== Mutex Management Functions ====
1128:C:/Users/lenovo/Desktop/liteos/Project2/BearPi_LiteOS/osdepends/liteos/cmsis/2.0\cmsis_liteos2.c **** #if (LOSCFG_BASE_IPC_MUX == YES)
1129:C:/Users/lenovo/Desktop/liteos/Project2/BearPi_LiteOS/osdepends/liteos/cmsis/2.0\cmsis_liteos2.c **** osMutexId_t osMutexNew (const osMutexAttr_t *attr)
1130:C:/Users/lenovo/Desktop/liteos/Project2/BearPi_LiteOS/osdepends/liteos/cmsis/2.0\cmsis_liteos2.c **** {
 2649              		.loc 1 1130 0
 2650              		.cfi_startproc
 2651              		@ args = 0, pretend = 0, frame = 8
 2652              		@ frame_needed = 0, uses_anonymous_args = 0
 2653              	.LVL282:
ARM GAS  c:\Users\lenovo\AppData\Local\Temp\ccnbuj3h.s 			page 68


 2654 0000 00B5     		push	{lr}
 2655              	.LCFI52:
 2656              		.cfi_def_cfa_offset 4
 2657              		.cfi_offset 14, -4
 2658 0002 83B0     		sub	sp, sp, #12
 2659              	.LCFI53:
 2660              		.cfi_def_cfa_offset 16
1131:C:/Users/lenovo/Desktop/liteos/Project2/BearPi_LiteOS/osdepends/liteos/cmsis/2.0\cmsis_liteos2.c ****     UINT32 uwRet;
1132:C:/Users/lenovo/Desktop/liteos/Project2/BearPi_LiteOS/osdepends/liteos/cmsis/2.0\cmsis_liteos2.c ****     UINT32 uwMuxId;
1133:C:/Users/lenovo/Desktop/liteos/Project2/BearPi_LiteOS/osdepends/liteos/cmsis/2.0\cmsis_liteos2.c **** 
1134:C:/Users/lenovo/Desktop/liteos/Project2/BearPi_LiteOS/osdepends/liteos/cmsis/2.0\cmsis_liteos2.c ****     UNUSED(attr);
1135:C:/Users/lenovo/Desktop/liteos/Project2/BearPi_LiteOS/osdepends/liteos/cmsis/2.0\cmsis_liteos2.c **** 
1136:C:/Users/lenovo/Desktop/liteos/Project2/BearPi_LiteOS/osdepends/liteos/cmsis/2.0\cmsis_liteos2.c ****     if (OS_INT_ACTIVE)
 2661              		.loc 1 1136 0
 2662 0004 FFF7FEFF 		bl	osIntNumGet
 2663              	.LVL283:
 2664 0008 68B9     		cbnz	r0, .L312
1137:C:/Users/lenovo/Desktop/liteos/Project2/BearPi_LiteOS/osdepends/liteos/cmsis/2.0\cmsis_liteos2.c ****     {
1138:C:/Users/lenovo/Desktop/liteos/Project2/BearPi_LiteOS/osdepends/liteos/cmsis/2.0\cmsis_liteos2.c ****         return NULL;
1139:C:/Users/lenovo/Desktop/liteos/Project2/BearPi_LiteOS/osdepends/liteos/cmsis/2.0\cmsis_liteos2.c ****     }
1140:C:/Users/lenovo/Desktop/liteos/Project2/BearPi_LiteOS/osdepends/liteos/cmsis/2.0\cmsis_liteos2.c **** 
1141:C:/Users/lenovo/Desktop/liteos/Project2/BearPi_LiteOS/osdepends/liteos/cmsis/2.0\cmsis_liteos2.c ****     uwRet = LOS_MuxCreate(&uwMuxId);
 2665              		.loc 1 1141 0
 2666 000a 01A8     		add	r0, sp, #4
 2667 000c FFF7FEFF 		bl	LOS_MuxCreate
 2668              	.LVL284:
1142:C:/Users/lenovo/Desktop/liteos/Project2/BearPi_LiteOS/osdepends/liteos/cmsis/2.0\cmsis_liteos2.c **** 
1143:C:/Users/lenovo/Desktop/liteos/Project2/BearPi_LiteOS/osdepends/liteos/cmsis/2.0\cmsis_liteos2.c ****     if(uwRet == LOS_OK)
 2669              		.loc 1 1143 0
 2670 0010 58B9     		cbnz	r0, .L313
1144:C:/Users/lenovo/Desktop/liteos/Project2/BearPi_LiteOS/osdepends/liteos/cmsis/2.0\cmsis_liteos2.c ****     {
1145:C:/Users/lenovo/Desktop/liteos/Project2/BearPi_LiteOS/osdepends/liteos/cmsis/2.0\cmsis_liteos2.c ****         return (osMutexId_t)(GET_MUX(uwMuxId));
 2671              		.loc 1 1145 0
 2672 0012 074B     		ldr	r3, .L315
 2673 0014 1868     		ldr	r0, [r3]
 2674              	.LVL285:
 2675 0016 019B     		ldr	r3, [sp, #4]
 2676 0018 03EB4303 		add	r3, r3, r3, lsl #1
 2677 001c DA00     		lsls	r2, r3, #3
 2678 001e 1044     		add	r0, r0, r2
 2679              	.L310:
1146:C:/Users/lenovo/Desktop/liteos/Project2/BearPi_LiteOS/osdepends/liteos/cmsis/2.0\cmsis_liteos2.c ****     }
1147:C:/Users/lenovo/Desktop/liteos/Project2/BearPi_LiteOS/osdepends/liteos/cmsis/2.0\cmsis_liteos2.c ****     else
1148:C:/Users/lenovo/Desktop/liteos/Project2/BearPi_LiteOS/osdepends/liteos/cmsis/2.0\cmsis_liteos2.c ****     {
1149:C:/Users/lenovo/Desktop/liteos/Project2/BearPi_LiteOS/osdepends/liteos/cmsis/2.0\cmsis_liteos2.c ****         return (osMutexId_t)NULL;
1150:C:/Users/lenovo/Desktop/liteos/Project2/BearPi_LiteOS/osdepends/liteos/cmsis/2.0\cmsis_liteos2.c ****     }
1151:C:/Users/lenovo/Desktop/liteos/Project2/BearPi_LiteOS/osdepends/liteos/cmsis/2.0\cmsis_liteos2.c **** }
 2680              		.loc 1 1151 0
 2681 0020 03B0     		add	sp, sp, #12
 2682              	.LCFI54:
 2683              		.cfi_remember_state
 2684              		.cfi_def_cfa_offset 4
 2685              		@ sp needed
 2686 0022 5DF804FB 		ldr	pc, [sp], #4
 2687              	.L312:
 2688              	.LCFI55:
 2689              		.cfi_restore_state
ARM GAS  c:\Users\lenovo\AppData\Local\Temp\ccnbuj3h.s 			page 69


1138:C:/Users/lenovo/Desktop/liteos/Project2/BearPi_LiteOS/osdepends/liteos/cmsis/2.0\cmsis_liteos2.c ****     }
 2690              		.loc 1 1138 0
 2691 0026 0020     		movs	r0, #0
 2692 0028 FAE7     		b	.L310
 2693              	.LVL286:
 2694              	.L313:
1149:C:/Users/lenovo/Desktop/liteos/Project2/BearPi_LiteOS/osdepends/liteos/cmsis/2.0\cmsis_liteos2.c ****     }
 2695              		.loc 1 1149 0
 2696 002a 0020     		movs	r0, #0
 2697              	.LVL287:
 2698 002c F8E7     		b	.L310
 2699              	.L316:
 2700 002e 00BF     		.align	2
 2701              	.L315:
 2702 0030 00000000 		.word	g_pstAllMux
 2703              		.cfi_endproc
 2704              	.LFE177:
 2706              		.section	.text.osMutexAcquire,"ax",%progbits
 2707              		.align	1
 2708              		.global	osMutexAcquire
 2709              		.syntax unified
 2710              		.thumb
 2711              		.thumb_func
 2712              		.fpu fpv4-sp-d16
 2714              	osMutexAcquire:
 2715              	.LFB178:
1152:C:/Users/lenovo/Desktop/liteos/Project2/BearPi_LiteOS/osdepends/liteos/cmsis/2.0\cmsis_liteos2.c **** 
1153:C:/Users/lenovo/Desktop/liteos/Project2/BearPi_LiteOS/osdepends/liteos/cmsis/2.0\cmsis_liteos2.c **** 
1154:C:/Users/lenovo/Desktop/liteos/Project2/BearPi_LiteOS/osdepends/liteos/cmsis/2.0\cmsis_liteos2.c **** osStatus_t osMutexAcquire (osMutexId_t mutex_id, uint32_t timeout)
1155:C:/Users/lenovo/Desktop/liteos/Project2/BearPi_LiteOS/osdepends/liteos/cmsis/2.0\cmsis_liteos2.c **** {
 2716              		.loc 1 1155 0
 2717              		.cfi_startproc
 2718              		@ args = 0, pretend = 0, frame = 0
 2719              		@ frame_needed = 0, uses_anonymous_args = 0
 2720              	.LVL288:
1156:C:/Users/lenovo/Desktop/liteos/Project2/BearPi_LiteOS/osdepends/liteos/cmsis/2.0\cmsis_liteos2.c ****     UINT32  uwRet;
1157:C:/Users/lenovo/Desktop/liteos/Project2/BearPi_LiteOS/osdepends/liteos/cmsis/2.0\cmsis_liteos2.c **** 
1158:C:/Users/lenovo/Desktop/liteos/Project2/BearPi_LiteOS/osdepends/liteos/cmsis/2.0\cmsis_liteos2.c ****     if (mutex_id == NULL)
 2721              		.loc 1 1158 0
 2722 0000 C0B1     		cbz	r0, .L320
1155:C:/Users/lenovo/Desktop/liteos/Project2/BearPi_LiteOS/osdepends/liteos/cmsis/2.0\cmsis_liteos2.c ****     UINT32  uwRet;
 2723              		.loc 1 1155 0
 2724 0002 38B5     		push	{r3, r4, r5, lr}
 2725              	.LCFI56:
 2726              		.cfi_def_cfa_offset 16
 2727              		.cfi_offset 3, -16
 2728              		.cfi_offset 4, -12
 2729              		.cfi_offset 5, -8
 2730              		.cfi_offset 14, -4
 2731 0004 0C46     		mov	r4, r1
 2732 0006 0546     		mov	r5, r0
1159:C:/Users/lenovo/Desktop/liteos/Project2/BearPi_LiteOS/osdepends/liteos/cmsis/2.0\cmsis_liteos2.c ****     {
1160:C:/Users/lenovo/Desktop/liteos/Project2/BearPi_LiteOS/osdepends/liteos/cmsis/2.0\cmsis_liteos2.c ****         return osErrorParameter;
1161:C:/Users/lenovo/Desktop/liteos/Project2/BearPi_LiteOS/osdepends/liteos/cmsis/2.0\cmsis_liteos2.c ****     }
1162:C:/Users/lenovo/Desktop/liteos/Project2/BearPi_LiteOS/osdepends/liteos/cmsis/2.0\cmsis_liteos2.c **** 
1163:C:/Users/lenovo/Desktop/liteos/Project2/BearPi_LiteOS/osdepends/liteos/cmsis/2.0\cmsis_liteos2.c ****     if (OS_INT_ACTIVE && (timeout != LOS_NO_WAIT))
 2733              		.loc 1 1163 0
ARM GAS  c:\Users\lenovo\AppData\Local\Temp\ccnbuj3h.s 			page 70


 2734 0008 FFF7FEFF 		bl	osIntNumGet
 2735              	.LVL289:
 2736 000c 08B1     		cbz	r0, .L319
 2737              		.loc 1 1163 0 is_stmt 0 discriminator 1
 2738 000e 04B1     		cbz	r4, .L319
1164:C:/Users/lenovo/Desktop/liteos/Project2/BearPi_LiteOS/osdepends/liteos/cmsis/2.0\cmsis_liteos2.c ****     {
1165:C:/Users/lenovo/Desktop/liteos/Project2/BearPi_LiteOS/osdepends/liteos/cmsis/2.0\cmsis_liteos2.c ****         timeout = 0;
 2739              		.loc 1 1165 0 is_stmt 1
 2740 0010 0024     		movs	r4, #0
 2741              	.LVL290:
 2742              	.L319:
1166:C:/Users/lenovo/Desktop/liteos/Project2/BearPi_LiteOS/osdepends/liteos/cmsis/2.0\cmsis_liteos2.c ****     }
1167:C:/Users/lenovo/Desktop/liteos/Project2/BearPi_LiteOS/osdepends/liteos/cmsis/2.0\cmsis_liteos2.c **** 
1168:C:/Users/lenovo/Desktop/liteos/Project2/BearPi_LiteOS/osdepends/liteos/cmsis/2.0\cmsis_liteos2.c ****     uwRet = LOS_MuxPend(((MUX_CB_S *)mutex_id)->ucMuxID, timeout);
 2743              		.loc 1 1168 0
 2744 0012 2146     		mov	r1, r4
 2745 0014 6868     		ldr	r0, [r5, #4]
 2746 0016 FFF7FEFF 		bl	LOS_MuxPend
 2747              	.LVL291:
1169:C:/Users/lenovo/Desktop/liteos/Project2/BearPi_LiteOS/osdepends/liteos/cmsis/2.0\cmsis_liteos2.c **** 
1170:C:/Users/lenovo/Desktop/liteos/Project2/BearPi_LiteOS/osdepends/liteos/cmsis/2.0\cmsis_liteos2.c ****     if(uwRet == LOS_OK)
 2748              		.loc 1 1170 0
 2749 001a 70B1     		cbz	r0, .L322
1171:C:/Users/lenovo/Desktop/liteos/Project2/BearPi_LiteOS/osdepends/liteos/cmsis/2.0\cmsis_liteos2.c ****     {
1172:C:/Users/lenovo/Desktop/liteos/Project2/BearPi_LiteOS/osdepends/liteos/cmsis/2.0\cmsis_liteos2.c ****         return osOK;
1173:C:/Users/lenovo/Desktop/liteos/Project2/BearPi_LiteOS/osdepends/liteos/cmsis/2.0\cmsis_liteos2.c ****     }
1174:C:/Users/lenovo/Desktop/liteos/Project2/BearPi_LiteOS/osdepends/liteos/cmsis/2.0\cmsis_liteos2.c ****     else if (uwRet == LOS_ERRNO_MUX_TIMEOUT)
 2750              		.loc 1 1174 0
 2751 001c 094A     		ldr	r2, .L330
 2752 001e 9042     		cmp	r0, r2
 2753 0020 0DD0     		beq	.L323
1175:C:/Users/lenovo/Desktop/liteos/Project2/BearPi_LiteOS/osdepends/liteos/cmsis/2.0\cmsis_liteos2.c ****     {
1176:C:/Users/lenovo/Desktop/liteos/Project2/BearPi_LiteOS/osdepends/liteos/cmsis/2.0\cmsis_liteos2.c ****         return osErrorTimeout;
1177:C:/Users/lenovo/Desktop/liteos/Project2/BearPi_LiteOS/osdepends/liteos/cmsis/2.0\cmsis_liteos2.c ****     }
1178:C:/Users/lenovo/Desktop/liteos/Project2/BearPi_LiteOS/osdepends/liteos/cmsis/2.0\cmsis_liteos2.c ****     else if (uwRet == LOS_ERRNO_MUX_INVALID)
 2754              		.loc 1 1178 0
 2755 0022 063A     		subs	r2, r2, #6
 2756 0024 9042     		cmp	r0, r2
 2757 0026 02D0     		beq	.L329
1179:C:/Users/lenovo/Desktop/liteos/Project2/BearPi_LiteOS/osdepends/liteos/cmsis/2.0\cmsis_liteos2.c ****     {
1180:C:/Users/lenovo/Desktop/liteos/Project2/BearPi_LiteOS/osdepends/liteos/cmsis/2.0\cmsis_liteos2.c ****         return osErrorParameter;
1181:C:/Users/lenovo/Desktop/liteos/Project2/BearPi_LiteOS/osdepends/liteos/cmsis/2.0\cmsis_liteos2.c ****     }
1182:C:/Users/lenovo/Desktop/liteos/Project2/BearPi_LiteOS/osdepends/liteos/cmsis/2.0\cmsis_liteos2.c ****     else
1183:C:/Users/lenovo/Desktop/liteos/Project2/BearPi_LiteOS/osdepends/liteos/cmsis/2.0\cmsis_liteos2.c ****     {
1184:C:/Users/lenovo/Desktop/liteos/Project2/BearPi_LiteOS/osdepends/liteos/cmsis/2.0\cmsis_liteos2.c ****         return osErrorResource;
 2758              		.loc 1 1184 0
 2759 0028 6FF00200 		mvn	r0, #2
 2760              	.LVL292:
 2761 002c 06E0     		b	.L317
 2762              	.LVL293:
 2763              	.L329:
1180:C:/Users/lenovo/Desktop/liteos/Project2/BearPi_LiteOS/osdepends/liteos/cmsis/2.0\cmsis_liteos2.c ****     }
 2764              		.loc 1 1180 0
 2765 002e 6FF00300 		mvn	r0, #3
 2766              	.LVL294:
 2767 0032 03E0     		b	.L317
 2768              	.LVL295:
ARM GAS  c:\Users\lenovo\AppData\Local\Temp\ccnbuj3h.s 			page 71


 2769              	.L320:
 2770              	.LCFI57:
 2771              		.cfi_def_cfa_offset 0
 2772              		.cfi_restore 3
 2773              		.cfi_restore 4
 2774              		.cfi_restore 5
 2775              		.cfi_restore 14
1160:C:/Users/lenovo/Desktop/liteos/Project2/BearPi_LiteOS/osdepends/liteos/cmsis/2.0\cmsis_liteos2.c ****     }
 2776              		.loc 1 1160 0
 2777 0034 6FF00300 		mvn	r0, #3
 2778              	.LVL296:
1185:C:/Users/lenovo/Desktop/liteos/Project2/BearPi_LiteOS/osdepends/liteos/cmsis/2.0\cmsis_liteos2.c ****     }
1186:C:/Users/lenovo/Desktop/liteos/Project2/BearPi_LiteOS/osdepends/liteos/cmsis/2.0\cmsis_liteos2.c **** }
 2779              		.loc 1 1186 0
 2780 0038 7047     		bx	lr
 2781              	.LVL297:
 2782              	.L322:
 2783              	.LCFI58:
 2784              		.cfi_def_cfa_offset 16
 2785              		.cfi_offset 3, -16
 2786              		.cfi_offset 4, -12
 2787              		.cfi_offset 5, -8
 2788              		.cfi_offset 14, -4
1172:C:/Users/lenovo/Desktop/liteos/Project2/BearPi_LiteOS/osdepends/liteos/cmsis/2.0\cmsis_liteos2.c ****     }
 2789              		.loc 1 1172 0
 2790 003a 0020     		movs	r0, #0
 2791              	.LVL298:
 2792              	.L317:
 2793              		.loc 1 1186 0
 2794 003c 38BD     		pop	{r3, r4, r5, pc}
 2795              	.LVL299:
 2796              	.L323:
1176:C:/Users/lenovo/Desktop/liteos/Project2/BearPi_LiteOS/osdepends/liteos/cmsis/2.0\cmsis_liteos2.c ****     }
 2797              		.loc 1 1176 0
 2798 003e 6FF00100 		mvn	r0, #1
 2799              	.LVL300:
 2800 0042 FBE7     		b	.L317
 2801              	.L331:
 2802              		.align	2
 2803              	.L330:
 2804 0044 071D0002 		.word	33561863
 2805              		.cfi_endproc
 2806              	.LFE178:
 2808              		.section	.text.osMutexRelease,"ax",%progbits
 2809              		.align	1
 2810              		.global	osMutexRelease
 2811              		.syntax unified
 2812              		.thumb
 2813              		.thumb_func
 2814              		.fpu fpv4-sp-d16
 2816              	osMutexRelease:
 2817              	.LFB179:
1187:C:/Users/lenovo/Desktop/liteos/Project2/BearPi_LiteOS/osdepends/liteos/cmsis/2.0\cmsis_liteos2.c **** 
1188:C:/Users/lenovo/Desktop/liteos/Project2/BearPi_LiteOS/osdepends/liteos/cmsis/2.0\cmsis_liteos2.c **** 
1189:C:/Users/lenovo/Desktop/liteos/Project2/BearPi_LiteOS/osdepends/liteos/cmsis/2.0\cmsis_liteos2.c **** osStatus_t osMutexRelease (osMutexId_t mutex_id)
1190:C:/Users/lenovo/Desktop/liteos/Project2/BearPi_LiteOS/osdepends/liteos/cmsis/2.0\cmsis_liteos2.c **** {
 2818              		.loc 1 1190 0
ARM GAS  c:\Users\lenovo\AppData\Local\Temp\ccnbuj3h.s 			page 72


 2819              		.cfi_startproc
 2820              		@ args = 0, pretend = 0, frame = 0
 2821              		@ frame_needed = 0, uses_anonymous_args = 0
 2822              	.LVL301:
1191:C:/Users/lenovo/Desktop/liteos/Project2/BearPi_LiteOS/osdepends/liteos/cmsis/2.0\cmsis_liteos2.c ****     UINT32  uwRet;
1192:C:/Users/lenovo/Desktop/liteos/Project2/BearPi_LiteOS/osdepends/liteos/cmsis/2.0\cmsis_liteos2.c **** 
1193:C:/Users/lenovo/Desktop/liteos/Project2/BearPi_LiteOS/osdepends/liteos/cmsis/2.0\cmsis_liteos2.c ****     if (mutex_id == NULL)
 2823              		.loc 1 1193 0
 2824 0000 28B1     		cbz	r0, .L334
1190:C:/Users/lenovo/Desktop/liteos/Project2/BearPi_LiteOS/osdepends/liteos/cmsis/2.0\cmsis_liteos2.c ****     UINT32  uwRet;
 2825              		.loc 1 1190 0
 2826 0002 08B5     		push	{r3, lr}
 2827              	.LCFI59:
 2828              		.cfi_def_cfa_offset 8
 2829              		.cfi_offset 3, -8
 2830              		.cfi_offset 14, -4
1194:C:/Users/lenovo/Desktop/liteos/Project2/BearPi_LiteOS/osdepends/liteos/cmsis/2.0\cmsis_liteos2.c ****     {
1195:C:/Users/lenovo/Desktop/liteos/Project2/BearPi_LiteOS/osdepends/liteos/cmsis/2.0\cmsis_liteos2.c ****         return osErrorParameter;
1196:C:/Users/lenovo/Desktop/liteos/Project2/BearPi_LiteOS/osdepends/liteos/cmsis/2.0\cmsis_liteos2.c ****     }
1197:C:/Users/lenovo/Desktop/liteos/Project2/BearPi_LiteOS/osdepends/liteos/cmsis/2.0\cmsis_liteos2.c **** 
1198:C:/Users/lenovo/Desktop/liteos/Project2/BearPi_LiteOS/osdepends/liteos/cmsis/2.0\cmsis_liteos2.c ****     uwRet = LOS_MuxPost(((MUX_CB_S *)mutex_id)->ucMuxID);
 2831              		.loc 1 1198 0
 2832 0004 4068     		ldr	r0, [r0, #4]
 2833              	.LVL302:
 2834 0006 FFF7FEFF 		bl	LOS_MuxPost
 2835              	.LVL303:
1199:C:/Users/lenovo/Desktop/liteos/Project2/BearPi_LiteOS/osdepends/liteos/cmsis/2.0\cmsis_liteos2.c **** 
1200:C:/Users/lenovo/Desktop/liteos/Project2/BearPi_LiteOS/osdepends/liteos/cmsis/2.0\cmsis_liteos2.c ****     if (uwRet == LOS_OK)
 2836              		.loc 1 1200 0
 2837 000a 18B9     		cbnz	r0, .L335
 2838              	.LVL304:
 2839              	.L332:
1201:C:/Users/lenovo/Desktop/liteos/Project2/BearPi_LiteOS/osdepends/liteos/cmsis/2.0\cmsis_liteos2.c ****     {
1202:C:/Users/lenovo/Desktop/liteos/Project2/BearPi_LiteOS/osdepends/liteos/cmsis/2.0\cmsis_liteos2.c ****         return osOK;
1203:C:/Users/lenovo/Desktop/liteos/Project2/BearPi_LiteOS/osdepends/liteos/cmsis/2.0\cmsis_liteos2.c ****     }
1204:C:/Users/lenovo/Desktop/liteos/Project2/BearPi_LiteOS/osdepends/liteos/cmsis/2.0\cmsis_liteos2.c ****     else
1205:C:/Users/lenovo/Desktop/liteos/Project2/BearPi_LiteOS/osdepends/liteos/cmsis/2.0\cmsis_liteos2.c ****     {
1206:C:/Users/lenovo/Desktop/liteos/Project2/BearPi_LiteOS/osdepends/liteos/cmsis/2.0\cmsis_liteos2.c ****         return osErrorResource;
1207:C:/Users/lenovo/Desktop/liteos/Project2/BearPi_LiteOS/osdepends/liteos/cmsis/2.0\cmsis_liteos2.c ****     }
1208:C:/Users/lenovo/Desktop/liteos/Project2/BearPi_LiteOS/osdepends/liteos/cmsis/2.0\cmsis_liteos2.c **** }
 2840              		.loc 1 1208 0
 2841 000c 08BD     		pop	{r3, pc}
 2842              	.LVL305:
 2843              	.L334:
 2844              	.LCFI60:
 2845              		.cfi_def_cfa_offset 0
 2846              		.cfi_restore 3
 2847              		.cfi_restore 14
1195:C:/Users/lenovo/Desktop/liteos/Project2/BearPi_LiteOS/osdepends/liteos/cmsis/2.0\cmsis_liteos2.c ****     }
 2848              		.loc 1 1195 0
 2849 000e 6FF00300 		mvn	r0, #3
 2850              	.LVL306:
 2851              		.loc 1 1208 0
 2852 0012 7047     		bx	lr
 2853              	.LVL307:
 2854              	.L335:
 2855              	.LCFI61:
ARM GAS  c:\Users\lenovo\AppData\Local\Temp\ccnbuj3h.s 			page 73


 2856              		.cfi_def_cfa_offset 8
 2857              		.cfi_offset 3, -8
 2858              		.cfi_offset 14, -4
1206:C:/Users/lenovo/Desktop/liteos/Project2/BearPi_LiteOS/osdepends/liteos/cmsis/2.0\cmsis_liteos2.c ****     }
 2859              		.loc 1 1206 0
 2860 0014 6FF00200 		mvn	r0, #2
 2861              	.LVL308:
 2862 0018 F8E7     		b	.L332
 2863              		.cfi_endproc
 2864              	.LFE179:
 2866              		.section	.text.osMutexGetOwner,"ax",%progbits
 2867              		.align	1
 2868              		.global	osMutexGetOwner
 2869              		.syntax unified
 2870              		.thumb
 2871              		.thumb_func
 2872              		.fpu fpv4-sp-d16
 2874              	osMutexGetOwner:
 2875              	.LFB180:
1209:C:/Users/lenovo/Desktop/liteos/Project2/BearPi_LiteOS/osdepends/liteos/cmsis/2.0\cmsis_liteos2.c **** 
1210:C:/Users/lenovo/Desktop/liteos/Project2/BearPi_LiteOS/osdepends/liteos/cmsis/2.0\cmsis_liteos2.c **** 
1211:C:/Users/lenovo/Desktop/liteos/Project2/BearPi_LiteOS/osdepends/liteos/cmsis/2.0\cmsis_liteos2.c **** osThreadId_t osMutexGetOwner (osMutexId_t mutex_id)
1212:C:/Users/lenovo/Desktop/liteos/Project2/BearPi_LiteOS/osdepends/liteos/cmsis/2.0\cmsis_liteos2.c **** {
 2876              		.loc 1 1212 0
 2877              		.cfi_startproc
 2878              		@ args = 0, pretend = 0, frame = 0
 2879              		@ frame_needed = 0, uses_anonymous_args = 0
 2880              	.LVL309:
 2881 0000 10B5     		push	{r4, lr}
 2882              	.LCFI62:
 2883              		.cfi_def_cfa_offset 8
 2884              		.cfi_offset 4, -8
 2885              		.cfi_offset 14, -4
 2886 0002 0446     		mov	r4, r0
1213:C:/Users/lenovo/Desktop/liteos/Project2/BearPi_LiteOS/osdepends/liteos/cmsis/2.0\cmsis_liteos2.c ****     UINT32 uwIntSave;
1214:C:/Users/lenovo/Desktop/liteos/Project2/BearPi_LiteOS/osdepends/liteos/cmsis/2.0\cmsis_liteos2.c ****     LOS_TASK_CB *pstTaskCB;
1215:C:/Users/lenovo/Desktop/liteos/Project2/BearPi_LiteOS/osdepends/liteos/cmsis/2.0\cmsis_liteos2.c **** 
1216:C:/Users/lenovo/Desktop/liteos/Project2/BearPi_LiteOS/osdepends/liteos/cmsis/2.0\cmsis_liteos2.c ****     if (OS_INT_ACTIVE)
 2887              		.loc 1 1216 0
 2888 0004 FFF7FEFF 		bl	osIntNumGet
 2889              	.LVL310:
 2890 0008 38B9     		cbnz	r0, .L342
1217:C:/Users/lenovo/Desktop/liteos/Project2/BearPi_LiteOS/osdepends/liteos/cmsis/2.0\cmsis_liteos2.c ****     {
1218:C:/Users/lenovo/Desktop/liteos/Project2/BearPi_LiteOS/osdepends/liteos/cmsis/2.0\cmsis_liteos2.c ****         return NULL;
1219:C:/Users/lenovo/Desktop/liteos/Project2/BearPi_LiteOS/osdepends/liteos/cmsis/2.0\cmsis_liteos2.c ****     }
1220:C:/Users/lenovo/Desktop/liteos/Project2/BearPi_LiteOS/osdepends/liteos/cmsis/2.0\cmsis_liteos2.c **** 
1221:C:/Users/lenovo/Desktop/liteos/Project2/BearPi_LiteOS/osdepends/liteos/cmsis/2.0\cmsis_liteos2.c ****     if (mutex_id == NULL)
 2891              		.loc 1 1221 0
 2892 000a 44B1     		cbz	r4, .L343
1222:C:/Users/lenovo/Desktop/liteos/Project2/BearPi_LiteOS/osdepends/liteos/cmsis/2.0\cmsis_liteos2.c ****     {
1223:C:/Users/lenovo/Desktop/liteos/Project2/BearPi_LiteOS/osdepends/liteos/cmsis/2.0\cmsis_liteos2.c ****         return NULL;
1224:C:/Users/lenovo/Desktop/liteos/Project2/BearPi_LiteOS/osdepends/liteos/cmsis/2.0\cmsis_liteos2.c ****     }
1225:C:/Users/lenovo/Desktop/liteos/Project2/BearPi_LiteOS/osdepends/liteos/cmsis/2.0\cmsis_liteos2.c **** 
1226:C:/Users/lenovo/Desktop/liteos/Project2/BearPi_LiteOS/osdepends/liteos/cmsis/2.0\cmsis_liteos2.c ****     uwIntSave = LOS_IntLock();
 2893              		.loc 1 1226 0
 2894 000c FFF7FEFF 		bl	LOS_IntLock
 2895              	.LVL311:
ARM GAS  c:\Users\lenovo\AppData\Local\Temp\ccnbuj3h.s 			page 74


1227:C:/Users/lenovo/Desktop/liteos/Project2/BearPi_LiteOS/osdepends/liteos/cmsis/2.0\cmsis_liteos2.c ****     pstTaskCB = ((MUX_CB_S *)mutex_id)->pstOwner;
 2896              		.loc 1 1227 0
 2897 0010 2469     		ldr	r4, [r4, #16]
 2898              	.LVL312:
1228:C:/Users/lenovo/Desktop/liteos/Project2/BearPi_LiteOS/osdepends/liteos/cmsis/2.0\cmsis_liteos2.c ****     (VOID)LOS_IntRestore(uwIntSave);
 2899              		.loc 1 1228 0
 2900 0012 FFF7FEFF 		bl	LOS_IntRestore
 2901              	.LVL313:
 2902              	.L340:
1229:C:/Users/lenovo/Desktop/liteos/Project2/BearPi_LiteOS/osdepends/liteos/cmsis/2.0\cmsis_liteos2.c **** 
1230:C:/Users/lenovo/Desktop/liteos/Project2/BearPi_LiteOS/osdepends/liteos/cmsis/2.0\cmsis_liteos2.c ****     return (osThreadId_t)pstTaskCB;
1231:C:/Users/lenovo/Desktop/liteos/Project2/BearPi_LiteOS/osdepends/liteos/cmsis/2.0\cmsis_liteos2.c **** }
 2903              		.loc 1 1231 0
 2904 0016 2046     		mov	r0, r4
 2905 0018 10BD     		pop	{r4, pc}
 2906              	.LVL314:
 2907              	.L342:
1218:C:/Users/lenovo/Desktop/liteos/Project2/BearPi_LiteOS/osdepends/liteos/cmsis/2.0\cmsis_liteos2.c ****     }
 2908              		.loc 1 1218 0
 2909 001a 0024     		movs	r4, #0
 2910              	.LVL315:
 2911 001c FBE7     		b	.L340
 2912              	.LVL316:
 2913              	.L343:
1223:C:/Users/lenovo/Desktop/liteos/Project2/BearPi_LiteOS/osdepends/liteos/cmsis/2.0\cmsis_liteos2.c ****     }
 2914              		.loc 1 1223 0
 2915 001e 0024     		movs	r4, #0
 2916              	.LVL317:
 2917 0020 F9E7     		b	.L340
 2918              		.cfi_endproc
 2919              	.LFE180:
 2921              		.section	.text.osMutexDelete,"ax",%progbits
 2922              		.align	1
 2923              		.global	osMutexDelete
 2924              		.syntax unified
 2925              		.thumb
 2926              		.thumb_func
 2927              		.fpu fpv4-sp-d16
 2929              	osMutexDelete:
 2930              	.LFB181:
1232:C:/Users/lenovo/Desktop/liteos/Project2/BearPi_LiteOS/osdepends/liteos/cmsis/2.0\cmsis_liteos2.c **** 
1233:C:/Users/lenovo/Desktop/liteos/Project2/BearPi_LiteOS/osdepends/liteos/cmsis/2.0\cmsis_liteos2.c **** 
1234:C:/Users/lenovo/Desktop/liteos/Project2/BearPi_LiteOS/osdepends/liteos/cmsis/2.0\cmsis_liteos2.c **** osStatus_t osMutexDelete (osMutexId_t mutex_id)
1235:C:/Users/lenovo/Desktop/liteos/Project2/BearPi_LiteOS/osdepends/liteos/cmsis/2.0\cmsis_liteos2.c **** {
 2931              		.loc 1 1235 0
 2932              		.cfi_startproc
 2933              		@ args = 0, pretend = 0, frame = 0
 2934              		@ frame_needed = 0, uses_anonymous_args = 0
 2935              	.LVL318:
 2936 0000 10B5     		push	{r4, lr}
 2937              	.LCFI63:
 2938              		.cfi_def_cfa_offset 8
 2939              		.cfi_offset 4, -8
 2940              		.cfi_offset 14, -4
 2941 0002 0446     		mov	r4, r0
1236:C:/Users/lenovo/Desktop/liteos/Project2/BearPi_LiteOS/osdepends/liteos/cmsis/2.0\cmsis_liteos2.c ****     UINT32  uwRet;
1237:C:/Users/lenovo/Desktop/liteos/Project2/BearPi_LiteOS/osdepends/liteos/cmsis/2.0\cmsis_liteos2.c **** 
ARM GAS  c:\Users\lenovo\AppData\Local\Temp\ccnbuj3h.s 			page 75


1238:C:/Users/lenovo/Desktop/liteos/Project2/BearPi_LiteOS/osdepends/liteos/cmsis/2.0\cmsis_liteos2.c ****     if (OS_INT_ACTIVE)
 2942              		.loc 1 1238 0
 2943 0004 FFF7FEFF 		bl	osIntNumGet
 2944              	.LVL319:
 2945 0008 68B9     		cbnz	r0, .L347
1239:C:/Users/lenovo/Desktop/liteos/Project2/BearPi_LiteOS/osdepends/liteos/cmsis/2.0\cmsis_liteos2.c ****     {
1240:C:/Users/lenovo/Desktop/liteos/Project2/BearPi_LiteOS/osdepends/liteos/cmsis/2.0\cmsis_liteos2.c ****         return osErrorISR;
1241:C:/Users/lenovo/Desktop/liteos/Project2/BearPi_LiteOS/osdepends/liteos/cmsis/2.0\cmsis_liteos2.c ****     }
1242:C:/Users/lenovo/Desktop/liteos/Project2/BearPi_LiteOS/osdepends/liteos/cmsis/2.0\cmsis_liteos2.c **** 
1243:C:/Users/lenovo/Desktop/liteos/Project2/BearPi_LiteOS/osdepends/liteos/cmsis/2.0\cmsis_liteos2.c ****     if (mutex_id == NULL)
 2946              		.loc 1 1243 0
 2947 000a 7CB1     		cbz	r4, .L348
1244:C:/Users/lenovo/Desktop/liteos/Project2/BearPi_LiteOS/osdepends/liteos/cmsis/2.0\cmsis_liteos2.c ****     {
1245:C:/Users/lenovo/Desktop/liteos/Project2/BearPi_LiteOS/osdepends/liteos/cmsis/2.0\cmsis_liteos2.c ****         return osErrorParameter;
1246:C:/Users/lenovo/Desktop/liteos/Project2/BearPi_LiteOS/osdepends/liteos/cmsis/2.0\cmsis_liteos2.c ****     }
1247:C:/Users/lenovo/Desktop/liteos/Project2/BearPi_LiteOS/osdepends/liteos/cmsis/2.0\cmsis_liteos2.c **** 
1248:C:/Users/lenovo/Desktop/liteos/Project2/BearPi_LiteOS/osdepends/liteos/cmsis/2.0\cmsis_liteos2.c ****     uwRet = LOS_MuxDelete(((MUX_CB_S *)mutex_id)->ucMuxID);
 2948              		.loc 1 1248 0
 2949 000c 6068     		ldr	r0, [r4, #4]
 2950 000e FFF7FEFF 		bl	LOS_MuxDelete
 2951              	.LVL320:
1249:C:/Users/lenovo/Desktop/liteos/Project2/BearPi_LiteOS/osdepends/liteos/cmsis/2.0\cmsis_liteos2.c **** 
1250:C:/Users/lenovo/Desktop/liteos/Project2/BearPi_LiteOS/osdepends/liteos/cmsis/2.0\cmsis_liteos2.c ****     if(uwRet == LOS_OK)
 2952              		.loc 1 1250 0
 2953 0012 70B1     		cbz	r0, .L349
1251:C:/Users/lenovo/Desktop/liteos/Project2/BearPi_LiteOS/osdepends/liteos/cmsis/2.0\cmsis_liteos2.c ****     {
1252:C:/Users/lenovo/Desktop/liteos/Project2/BearPi_LiteOS/osdepends/liteos/cmsis/2.0\cmsis_liteos2.c ****         return osOK;
1253:C:/Users/lenovo/Desktop/liteos/Project2/BearPi_LiteOS/osdepends/liteos/cmsis/2.0\cmsis_liteos2.c ****     }
1254:C:/Users/lenovo/Desktop/liteos/Project2/BearPi_LiteOS/osdepends/liteos/cmsis/2.0\cmsis_liteos2.c ****     else if (uwRet == LOS_ERRNO_MUX_INVALID)
 2954              		.loc 1 1254 0
 2955 0014 084A     		ldr	r2, .L353
 2956 0016 9042     		cmp	r0, r2
 2957 0018 02D0     		beq	.L352
1255:C:/Users/lenovo/Desktop/liteos/Project2/BearPi_LiteOS/osdepends/liteos/cmsis/2.0\cmsis_liteos2.c ****     {
1256:C:/Users/lenovo/Desktop/liteos/Project2/BearPi_LiteOS/osdepends/liteos/cmsis/2.0\cmsis_liteos2.c ****         return osErrorParameter;
1257:C:/Users/lenovo/Desktop/liteos/Project2/BearPi_LiteOS/osdepends/liteos/cmsis/2.0\cmsis_liteos2.c ****     }
1258:C:/Users/lenovo/Desktop/liteos/Project2/BearPi_LiteOS/osdepends/liteos/cmsis/2.0\cmsis_liteos2.c ****     else
1259:C:/Users/lenovo/Desktop/liteos/Project2/BearPi_LiteOS/osdepends/liteos/cmsis/2.0\cmsis_liteos2.c ****     {
1260:C:/Users/lenovo/Desktop/liteos/Project2/BearPi_LiteOS/osdepends/liteos/cmsis/2.0\cmsis_liteos2.c ****         return osErrorResource;
 2958              		.loc 1 1260 0
 2959 001a 6FF00200 		mvn	r0, #2
 2960              	.LVL321:
 2961 001e 09E0     		b	.L345
 2962              	.LVL322:
 2963              	.L352:
1256:C:/Users/lenovo/Desktop/liteos/Project2/BearPi_LiteOS/osdepends/liteos/cmsis/2.0\cmsis_liteos2.c ****     }
 2964              		.loc 1 1256 0
 2965 0020 6FF00300 		mvn	r0, #3
 2966              	.LVL323:
 2967 0024 06E0     		b	.L345
 2968              	.L347:
1240:C:/Users/lenovo/Desktop/liteos/Project2/BearPi_LiteOS/osdepends/liteos/cmsis/2.0\cmsis_liteos2.c ****     }
 2969              		.loc 1 1240 0
 2970 0026 6FF00500 		mvn	r0, #5
 2971 002a 03E0     		b	.L345
 2972              	.L348:
1245:C:/Users/lenovo/Desktop/liteos/Project2/BearPi_LiteOS/osdepends/liteos/cmsis/2.0\cmsis_liteos2.c ****     }
ARM GAS  c:\Users\lenovo\AppData\Local\Temp\ccnbuj3h.s 			page 76


 2973              		.loc 1 1245 0
 2974 002c 6FF00300 		mvn	r0, #3
 2975 0030 00E0     		b	.L345
 2976              	.LVL324:
 2977              	.L349:
1252:C:/Users/lenovo/Desktop/liteos/Project2/BearPi_LiteOS/osdepends/liteos/cmsis/2.0\cmsis_liteos2.c ****     }
 2978              		.loc 1 1252 0
 2979 0032 0020     		movs	r0, #0
 2980              	.LVL325:
 2981              	.L345:
1261:C:/Users/lenovo/Desktop/liteos/Project2/BearPi_LiteOS/osdepends/liteos/cmsis/2.0\cmsis_liteos2.c ****     }
1262:C:/Users/lenovo/Desktop/liteos/Project2/BearPi_LiteOS/osdepends/liteos/cmsis/2.0\cmsis_liteos2.c **** }
 2982              		.loc 1 1262 0
 2983 0034 10BD     		pop	{r4, pc}
 2984              	.LVL326:
 2985              	.L354:
 2986 0036 00BF     		.align	2
 2987              	.L353:
 2988 0038 011D0002 		.word	33561857
 2989              		.cfi_endproc
 2990              	.LFE181:
 2992              		.section	.text.osSemaphoreNew,"ax",%progbits
 2993              		.align	1
 2994              		.global	osSemaphoreNew
 2995              		.syntax unified
 2996              		.thumb
 2997              		.thumb_func
 2998              		.fpu fpv4-sp-d16
 3000              	osSemaphoreNew:
 3001              	.LFB182:
1263:C:/Users/lenovo/Desktop/liteos/Project2/BearPi_LiteOS/osdepends/liteos/cmsis/2.0\cmsis_liteos2.c **** #endif
1264:C:/Users/lenovo/Desktop/liteos/Project2/BearPi_LiteOS/osdepends/liteos/cmsis/2.0\cmsis_liteos2.c **** 
1265:C:/Users/lenovo/Desktop/liteos/Project2/BearPi_LiteOS/osdepends/liteos/cmsis/2.0\cmsis_liteos2.c **** //  ==== Semaphore Management Functions ====
1266:C:/Users/lenovo/Desktop/liteos/Project2/BearPi_LiteOS/osdepends/liteos/cmsis/2.0\cmsis_liteos2.c **** #if (LOSCFG_BASE_IPC_SEM == YES)
1267:C:/Users/lenovo/Desktop/liteos/Project2/BearPi_LiteOS/osdepends/liteos/cmsis/2.0\cmsis_liteos2.c **** 
1268:C:/Users/lenovo/Desktop/liteos/Project2/BearPi_LiteOS/osdepends/liteos/cmsis/2.0\cmsis_liteos2.c **** osSemaphoreId_t osSemaphoreNew (uint32_t max_count, uint32_t initial_count, const osSemaphoreAttr_t
1269:C:/Users/lenovo/Desktop/liteos/Project2/BearPi_LiteOS/osdepends/liteos/cmsis/2.0\cmsis_liteos2.c **** {
 3002              		.loc 1 1269 0
 3003              		.cfi_startproc
 3004              		@ args = 0, pretend = 0, frame = 8
 3005              		@ frame_needed = 0, uses_anonymous_args = 0
 3006              	.LVL327:
 3007 0000 30B5     		push	{r4, r5, lr}
 3008              	.LCFI64:
 3009              		.cfi_def_cfa_offset 12
 3010              		.cfi_offset 4, -12
 3011              		.cfi_offset 5, -8
 3012              		.cfi_offset 14, -4
 3013 0002 83B0     		sub	sp, sp, #12
 3014              	.LCFI65:
 3015              		.cfi_def_cfa_offset 24
 3016 0004 0446     		mov	r4, r0
 3017 0006 0D46     		mov	r5, r1
1270:C:/Users/lenovo/Desktop/liteos/Project2/BearPi_LiteOS/osdepends/liteos/cmsis/2.0\cmsis_liteos2.c ****     UINT32 uwRet;
1271:C:/Users/lenovo/Desktop/liteos/Project2/BearPi_LiteOS/osdepends/liteos/cmsis/2.0\cmsis_liteos2.c ****     UINT32 uwSemId;
1272:C:/Users/lenovo/Desktop/liteos/Project2/BearPi_LiteOS/osdepends/liteos/cmsis/2.0\cmsis_liteos2.c **** 
1273:C:/Users/lenovo/Desktop/liteos/Project2/BearPi_LiteOS/osdepends/liteos/cmsis/2.0\cmsis_liteos2.c ****     UNUSED(attr);
ARM GAS  c:\Users\lenovo\AppData\Local\Temp\ccnbuj3h.s 			page 77


1274:C:/Users/lenovo/Desktop/liteos/Project2/BearPi_LiteOS/osdepends/liteos/cmsis/2.0\cmsis_liteos2.c **** 
1275:C:/Users/lenovo/Desktop/liteos/Project2/BearPi_LiteOS/osdepends/liteos/cmsis/2.0\cmsis_liteos2.c ****     if (OS_INT_ACTIVE)
 3018              		.loc 1 1275 0
 3019 0008 FFF7FEFF 		bl	osIntNumGet
 3020              	.LVL328:
 3021 000c 90B9     		cbnz	r0, .L359
1276:C:/Users/lenovo/Desktop/liteos/Project2/BearPi_LiteOS/osdepends/liteos/cmsis/2.0\cmsis_liteos2.c ****     {
1277:C:/Users/lenovo/Desktop/liteos/Project2/BearPi_LiteOS/osdepends/liteos/cmsis/2.0\cmsis_liteos2.c ****         return (osSemaphoreId_t)NULL;
1278:C:/Users/lenovo/Desktop/liteos/Project2/BearPi_LiteOS/osdepends/liteos/cmsis/2.0\cmsis_liteos2.c ****     }
1279:C:/Users/lenovo/Desktop/liteos/Project2/BearPi_LiteOS/osdepends/liteos/cmsis/2.0\cmsis_liteos2.c **** 
1280:C:/Users/lenovo/Desktop/liteos/Project2/BearPi_LiteOS/osdepends/liteos/cmsis/2.0\cmsis_liteos2.c ****     if(1 == max_count)
 3022              		.loc 1 1280 0
 3023 000e 012C     		cmp	r4, #1
 3024 0010 0BD0     		beq	.L362
1281:C:/Users/lenovo/Desktop/liteos/Project2/BearPi_LiteOS/osdepends/liteos/cmsis/2.0\cmsis_liteos2.c ****     {
1282:C:/Users/lenovo/Desktop/liteos/Project2/BearPi_LiteOS/osdepends/liteos/cmsis/2.0\cmsis_liteos2.c ****         uwRet = LOS_BinarySemCreate((UINT16)initial_count, &uwSemId);
1283:C:/Users/lenovo/Desktop/liteos/Project2/BearPi_LiteOS/osdepends/liteos/cmsis/2.0\cmsis_liteos2.c ****     }
1284:C:/Users/lenovo/Desktop/liteos/Project2/BearPi_LiteOS/osdepends/liteos/cmsis/2.0\cmsis_liteos2.c ****     else
1285:C:/Users/lenovo/Desktop/liteos/Project2/BearPi_LiteOS/osdepends/liteos/cmsis/2.0\cmsis_liteos2.c ****     {
1286:C:/Users/lenovo/Desktop/liteos/Project2/BearPi_LiteOS/osdepends/liteos/cmsis/2.0\cmsis_liteos2.c ****         uwRet = LOS_SemCreate((UINT16)initial_count, &uwSemId);
 3025              		.loc 1 1286 0
 3026 0012 01A9     		add	r1, sp, #4
 3027 0014 A8B2     		uxth	r0, r5
 3028 0016 FFF7FEFF 		bl	LOS_SemCreate
 3029              	.LVL329:
 3030              	.L358:
1287:C:/Users/lenovo/Desktop/liteos/Project2/BearPi_LiteOS/osdepends/liteos/cmsis/2.0\cmsis_liteos2.c ****     }
1288:C:/Users/lenovo/Desktop/liteos/Project2/BearPi_LiteOS/osdepends/liteos/cmsis/2.0\cmsis_liteos2.c **** 
1289:C:/Users/lenovo/Desktop/liteos/Project2/BearPi_LiteOS/osdepends/liteos/cmsis/2.0\cmsis_liteos2.c ****     if (uwRet == LOS_OK)
 3031              		.loc 1 1289 0
 3032 001a 68B9     		cbnz	r0, .L360
1290:C:/Users/lenovo/Desktop/liteos/Project2/BearPi_LiteOS/osdepends/liteos/cmsis/2.0\cmsis_liteos2.c ****     {
1291:C:/Users/lenovo/Desktop/liteos/Project2/BearPi_LiteOS/osdepends/liteos/cmsis/2.0\cmsis_liteos2.c ****         return (osSemaphoreId_t)(GET_SEM(uwSemId));
 3033              		.loc 1 1291 0
 3034 001c 074B     		ldr	r3, .L363
 3035 001e 1868     		ldr	r0, [r3]
 3036              	.LVL330:
 3037 0020 019B     		ldr	r3, [sp, #4]
 3038 0022 00EB0310 		add	r0, r0, r3, lsl #4
 3039              	.L355:
1292:C:/Users/lenovo/Desktop/liteos/Project2/BearPi_LiteOS/osdepends/liteos/cmsis/2.0\cmsis_liteos2.c ****     }
1293:C:/Users/lenovo/Desktop/liteos/Project2/BearPi_LiteOS/osdepends/liteos/cmsis/2.0\cmsis_liteos2.c ****     else
1294:C:/Users/lenovo/Desktop/liteos/Project2/BearPi_LiteOS/osdepends/liteos/cmsis/2.0\cmsis_liteos2.c ****     {
1295:C:/Users/lenovo/Desktop/liteos/Project2/BearPi_LiteOS/osdepends/liteos/cmsis/2.0\cmsis_liteos2.c ****         return (osSemaphoreId_t)NULL;
1296:C:/Users/lenovo/Desktop/liteos/Project2/BearPi_LiteOS/osdepends/liteos/cmsis/2.0\cmsis_liteos2.c ****     }
1297:C:/Users/lenovo/Desktop/liteos/Project2/BearPi_LiteOS/osdepends/liteos/cmsis/2.0\cmsis_liteos2.c **** }
 3040              		.loc 1 1297 0
 3041 0026 03B0     		add	sp, sp, #12
 3042              	.LCFI66:
 3043              		.cfi_remember_state
 3044              		.cfi_def_cfa_offset 12
 3045              		@ sp needed
 3046 0028 30BD     		pop	{r4, r5, pc}
 3047              	.LVL331:
 3048              	.L362:
 3049              	.LCFI67:
 3050              		.cfi_restore_state
ARM GAS  c:\Users\lenovo\AppData\Local\Temp\ccnbuj3h.s 			page 78


1282:C:/Users/lenovo/Desktop/liteos/Project2/BearPi_LiteOS/osdepends/liteos/cmsis/2.0\cmsis_liteos2.c ****     }
 3051              		.loc 1 1282 0
 3052 002a 01A9     		add	r1, sp, #4
 3053 002c A8B2     		uxth	r0, r5
 3054 002e FFF7FEFF 		bl	LOS_BinarySemCreate
 3055              	.LVL332:
 3056 0032 F2E7     		b	.L358
 3057              	.LVL333:
 3058              	.L359:
1277:C:/Users/lenovo/Desktop/liteos/Project2/BearPi_LiteOS/osdepends/liteos/cmsis/2.0\cmsis_liteos2.c ****     }
 3059              		.loc 1 1277 0
 3060 0034 0020     		movs	r0, #0
 3061 0036 F6E7     		b	.L355
 3062              	.LVL334:
 3063              	.L360:
1295:C:/Users/lenovo/Desktop/liteos/Project2/BearPi_LiteOS/osdepends/liteos/cmsis/2.0\cmsis_liteos2.c ****     }
 3064              		.loc 1 1295 0
 3065 0038 0020     		movs	r0, #0
 3066              	.LVL335:
 3067 003a F4E7     		b	.L355
 3068              	.L364:
 3069              		.align	2
 3070              	.L363:
 3071 003c 00000000 		.word	g_pstAllSem
 3072              		.cfi_endproc
 3073              	.LFE182:
 3075              		.section	.text.osSemaphoreAcquire,"ax",%progbits
 3076              		.align	1
 3077              		.global	osSemaphoreAcquire
 3078              		.syntax unified
 3079              		.thumb
 3080              		.thumb_func
 3081              		.fpu fpv4-sp-d16
 3083              	osSemaphoreAcquire:
 3084              	.LFB183:
1298:C:/Users/lenovo/Desktop/liteos/Project2/BearPi_LiteOS/osdepends/liteos/cmsis/2.0\cmsis_liteos2.c **** 
1299:C:/Users/lenovo/Desktop/liteos/Project2/BearPi_LiteOS/osdepends/liteos/cmsis/2.0\cmsis_liteos2.c **** 
1300:C:/Users/lenovo/Desktop/liteos/Project2/BearPi_LiteOS/osdepends/liteos/cmsis/2.0\cmsis_liteos2.c **** osStatus_t osSemaphoreAcquire (osSemaphoreId_t semaphore_id, uint32_t timeout)
1301:C:/Users/lenovo/Desktop/liteos/Project2/BearPi_LiteOS/osdepends/liteos/cmsis/2.0\cmsis_liteos2.c **** {
 3085              		.loc 1 1301 0
 3086              		.cfi_startproc
 3087              		@ args = 0, pretend = 0, frame = 0
 3088              		@ frame_needed = 0, uses_anonymous_args = 0
 3089              	.LVL336:
1302:C:/Users/lenovo/Desktop/liteos/Project2/BearPi_LiteOS/osdepends/liteos/cmsis/2.0\cmsis_liteos2.c ****     UINT32 uwRet;
1303:C:/Users/lenovo/Desktop/liteos/Project2/BearPi_LiteOS/osdepends/liteos/cmsis/2.0\cmsis_liteos2.c **** 
1304:C:/Users/lenovo/Desktop/liteos/Project2/BearPi_LiteOS/osdepends/liteos/cmsis/2.0\cmsis_liteos2.c ****     if (semaphore_id == NULL)
 3090              		.loc 1 1304 0
 3091 0000 D0B1     		cbz	r0, .L368
1301:C:/Users/lenovo/Desktop/liteos/Project2/BearPi_LiteOS/osdepends/liteos/cmsis/2.0\cmsis_liteos2.c ****     UINT32 uwRet;
 3092              		.loc 1 1301 0
 3093 0002 38B5     		push	{r3, r4, r5, lr}
 3094              	.LCFI68:
 3095              		.cfi_def_cfa_offset 16
 3096              		.cfi_offset 3, -16
 3097              		.cfi_offset 4, -12
 3098              		.cfi_offset 5, -8
ARM GAS  c:\Users\lenovo\AppData\Local\Temp\ccnbuj3h.s 			page 79


 3099              		.cfi_offset 14, -4
 3100 0004 0546     		mov	r5, r0
 3101 0006 0C46     		mov	r4, r1
1305:C:/Users/lenovo/Desktop/liteos/Project2/BearPi_LiteOS/osdepends/liteos/cmsis/2.0\cmsis_liteos2.c ****     {
1306:C:/Users/lenovo/Desktop/liteos/Project2/BearPi_LiteOS/osdepends/liteos/cmsis/2.0\cmsis_liteos2.c ****         return osErrorParameter;
1307:C:/Users/lenovo/Desktop/liteos/Project2/BearPi_LiteOS/osdepends/liteos/cmsis/2.0\cmsis_liteos2.c ****     }
1308:C:/Users/lenovo/Desktop/liteos/Project2/BearPi_LiteOS/osdepends/liteos/cmsis/2.0\cmsis_liteos2.c **** 
1309:C:/Users/lenovo/Desktop/liteos/Project2/BearPi_LiteOS/osdepends/liteos/cmsis/2.0\cmsis_liteos2.c ****     if (OS_INT_ACTIVE && (timeout != LOS_NO_WAIT))
 3102              		.loc 1 1309 0
 3103 0008 FFF7FEFF 		bl	osIntNumGet
 3104              	.LVL337:
 3105 000c 00B1     		cbz	r0, .L367
 3106              		.loc 1 1309 0 is_stmt 0 discriminator 1
 3107 000e B4B9     		cbnz	r4, .L369
 3108              	.L367:
1310:C:/Users/lenovo/Desktop/liteos/Project2/BearPi_LiteOS/osdepends/liteos/cmsis/2.0\cmsis_liteos2.c ****     {
1311:C:/Users/lenovo/Desktop/liteos/Project2/BearPi_LiteOS/osdepends/liteos/cmsis/2.0\cmsis_liteos2.c ****         return osErrorISR;
1312:C:/Users/lenovo/Desktop/liteos/Project2/BearPi_LiteOS/osdepends/liteos/cmsis/2.0\cmsis_liteos2.c ****     }
1313:C:/Users/lenovo/Desktop/liteos/Project2/BearPi_LiteOS/osdepends/liteos/cmsis/2.0\cmsis_liteos2.c **** 
1314:C:/Users/lenovo/Desktop/liteos/Project2/BearPi_LiteOS/osdepends/liteos/cmsis/2.0\cmsis_liteos2.c ****     uwRet = LOS_SemPend(((SEM_CB_S *)semaphore_id)->usSemID, timeout);
 3109              		.loc 1 1314 0 is_stmt 1
 3110 0010 2146     		mov	r1, r4
 3111 0012 E888     		ldrh	r0, [r5, #6]
 3112 0014 FFF7FEFF 		bl	LOS_SemPend
 3113              	.LVL338:
1315:C:/Users/lenovo/Desktop/liteos/Project2/BearPi_LiteOS/osdepends/liteos/cmsis/2.0\cmsis_liteos2.c **** 
1316:C:/Users/lenovo/Desktop/liteos/Project2/BearPi_LiteOS/osdepends/liteos/cmsis/2.0\cmsis_liteos2.c ****     if (uwRet == LOS_OK)
 3114              		.loc 1 1316 0
 3115 0018 A0B1     		cbz	r0, .L370
1317:C:/Users/lenovo/Desktop/liteos/Project2/BearPi_LiteOS/osdepends/liteos/cmsis/2.0\cmsis_liteos2.c ****     {
1318:C:/Users/lenovo/Desktop/liteos/Project2/BearPi_LiteOS/osdepends/liteos/cmsis/2.0\cmsis_liteos2.c ****         return osOK;
1319:C:/Users/lenovo/Desktop/liteos/Project2/BearPi_LiteOS/osdepends/liteos/cmsis/2.0\cmsis_liteos2.c ****     }
1320:C:/Users/lenovo/Desktop/liteos/Project2/BearPi_LiteOS/osdepends/liteos/cmsis/2.0\cmsis_liteos2.c ****     else if (uwRet == LOS_ERRNO_SEM_TIMEOUT)
 3116              		.loc 1 1320 0
 3117 001a 0E4A     		ldr	r2, .L379
 3118 001c 9042     		cmp	r0, r2
 3119 001e 13D0     		beq	.L371
1321:C:/Users/lenovo/Desktop/liteos/Project2/BearPi_LiteOS/osdepends/liteos/cmsis/2.0\cmsis_liteos2.c ****     {
1322:C:/Users/lenovo/Desktop/liteos/Project2/BearPi_LiteOS/osdepends/liteos/cmsis/2.0\cmsis_liteos2.c ****         return osErrorTimeout;
1323:C:/Users/lenovo/Desktop/liteos/Project2/BearPi_LiteOS/osdepends/liteos/cmsis/2.0\cmsis_liteos2.c ****     }
1324:C:/Users/lenovo/Desktop/liteos/Project2/BearPi_LiteOS/osdepends/liteos/cmsis/2.0\cmsis_liteos2.c ****     else if (uwRet == LOS_ERRNO_SEM_INVALID)
 3120              		.loc 1 1324 0
 3121 0020 063A     		subs	r2, r2, #6
 3122 0022 9042     		cmp	r0, r2
 3123 0024 13D0     		beq	.L372
1325:C:/Users/lenovo/Desktop/liteos/Project2/BearPi_LiteOS/osdepends/liteos/cmsis/2.0\cmsis_liteos2.c ****     {
1326:C:/Users/lenovo/Desktop/liteos/Project2/BearPi_LiteOS/osdepends/liteos/cmsis/2.0\cmsis_liteos2.c ****         return osErrorParameter;
1327:C:/Users/lenovo/Desktop/liteos/Project2/BearPi_LiteOS/osdepends/liteos/cmsis/2.0\cmsis_liteos2.c ****     }
1328:C:/Users/lenovo/Desktop/liteos/Project2/BearPi_LiteOS/osdepends/liteos/cmsis/2.0\cmsis_liteos2.c ****     else if (uwRet == LOS_ERRNO_SEM_PEND_INTERR)
 3124              		.loc 1 1328 0
 3125 0026 0432     		adds	r2, r2, #4
 3126 0028 9042     		cmp	r0, r2
 3127 002a 02D0     		beq	.L378
1329:C:/Users/lenovo/Desktop/liteos/Project2/BearPi_LiteOS/osdepends/liteos/cmsis/2.0\cmsis_liteos2.c ****     {
1330:C:/Users/lenovo/Desktop/liteos/Project2/BearPi_LiteOS/osdepends/liteos/cmsis/2.0\cmsis_liteos2.c ****         return osErrorISR;
1331:C:/Users/lenovo/Desktop/liteos/Project2/BearPi_LiteOS/osdepends/liteos/cmsis/2.0\cmsis_liteos2.c ****     }
1332:C:/Users/lenovo/Desktop/liteos/Project2/BearPi_LiteOS/osdepends/liteos/cmsis/2.0\cmsis_liteos2.c ****     else
ARM GAS  c:\Users\lenovo\AppData\Local\Temp\ccnbuj3h.s 			page 80


1333:C:/Users/lenovo/Desktop/liteos/Project2/BearPi_LiteOS/osdepends/liteos/cmsis/2.0\cmsis_liteos2.c ****     {
1334:C:/Users/lenovo/Desktop/liteos/Project2/BearPi_LiteOS/osdepends/liteos/cmsis/2.0\cmsis_liteos2.c ****         return osErrorResource;
 3128              		.loc 1 1334 0
 3129 002c 6FF00200 		mvn	r0, #2
 3130              	.LVL339:
 3131 0030 09E0     		b	.L365
 3132              	.LVL340:
 3133              	.L378:
1330:C:/Users/lenovo/Desktop/liteos/Project2/BearPi_LiteOS/osdepends/liteos/cmsis/2.0\cmsis_liteos2.c ****     }
 3134              		.loc 1 1330 0
 3135 0032 6FF00500 		mvn	r0, #5
 3136              	.LVL341:
 3137 0036 06E0     		b	.L365
 3138              	.LVL342:
 3139              	.L368:
 3140              	.LCFI69:
 3141              		.cfi_def_cfa_offset 0
 3142              		.cfi_restore 3
 3143              		.cfi_restore 4
 3144              		.cfi_restore 5
 3145              		.cfi_restore 14
1306:C:/Users/lenovo/Desktop/liteos/Project2/BearPi_LiteOS/osdepends/liteos/cmsis/2.0\cmsis_liteos2.c ****     }
 3146              		.loc 1 1306 0
 3147 0038 6FF00300 		mvn	r0, #3
 3148              	.LVL343:
1335:C:/Users/lenovo/Desktop/liteos/Project2/BearPi_LiteOS/osdepends/liteos/cmsis/2.0\cmsis_liteos2.c ****     }
1336:C:/Users/lenovo/Desktop/liteos/Project2/BearPi_LiteOS/osdepends/liteos/cmsis/2.0\cmsis_liteos2.c **** }
 3149              		.loc 1 1336 0
 3150 003c 7047     		bx	lr
 3151              	.LVL344:
 3152              	.L369:
 3153              	.LCFI70:
 3154              		.cfi_def_cfa_offset 16
 3155              		.cfi_offset 3, -16
 3156              		.cfi_offset 4, -12
 3157              		.cfi_offset 5, -8
 3158              		.cfi_offset 14, -4
1311:C:/Users/lenovo/Desktop/liteos/Project2/BearPi_LiteOS/osdepends/liteos/cmsis/2.0\cmsis_liteos2.c ****     }
 3159              		.loc 1 1311 0
 3160 003e 6FF00500 		mvn	r0, #5
 3161 0042 00E0     		b	.L365
 3162              	.LVL345:
 3163              	.L370:
1318:C:/Users/lenovo/Desktop/liteos/Project2/BearPi_LiteOS/osdepends/liteos/cmsis/2.0\cmsis_liteos2.c ****     }
 3164              		.loc 1 1318 0
 3165 0044 0020     		movs	r0, #0
 3166              	.LVL346:
 3167              	.L365:
 3168              		.loc 1 1336 0
 3169 0046 38BD     		pop	{r3, r4, r5, pc}
 3170              	.LVL347:
 3171              	.L371:
1322:C:/Users/lenovo/Desktop/liteos/Project2/BearPi_LiteOS/osdepends/liteos/cmsis/2.0\cmsis_liteos2.c ****     }
 3172              		.loc 1 1322 0
 3173 0048 6FF00100 		mvn	r0, #1
 3174              	.LVL348:
 3175 004c FBE7     		b	.L365
ARM GAS  c:\Users\lenovo\AppData\Local\Temp\ccnbuj3h.s 			page 81


 3176              	.LVL349:
 3177              	.L372:
1326:C:/Users/lenovo/Desktop/liteos/Project2/BearPi_LiteOS/osdepends/liteos/cmsis/2.0\cmsis_liteos2.c ****     }
 3178              		.loc 1 1326 0
 3179 004e 6FF00300 		mvn	r0, #3
 3180              	.LVL350:
 3181 0052 F8E7     		b	.L365
 3182              	.L380:
 3183              		.align	2
 3184              	.L379:
 3185 0054 07070002 		.word	33556231
 3186              		.cfi_endproc
 3187              	.LFE183:
 3189              		.section	.text.osSemaphoreRelease,"ax",%progbits
 3190              		.align	1
 3191              		.global	osSemaphoreRelease
 3192              		.syntax unified
 3193              		.thumb
 3194              		.thumb_func
 3195              		.fpu fpv4-sp-d16
 3197              	osSemaphoreRelease:
 3198              	.LFB184:
1337:C:/Users/lenovo/Desktop/liteos/Project2/BearPi_LiteOS/osdepends/liteos/cmsis/2.0\cmsis_liteos2.c **** 
1338:C:/Users/lenovo/Desktop/liteos/Project2/BearPi_LiteOS/osdepends/liteos/cmsis/2.0\cmsis_liteos2.c **** 
1339:C:/Users/lenovo/Desktop/liteos/Project2/BearPi_LiteOS/osdepends/liteos/cmsis/2.0\cmsis_liteos2.c **** osStatus_t osSemaphoreRelease (osSemaphoreId_t semaphore_id)
1340:C:/Users/lenovo/Desktop/liteos/Project2/BearPi_LiteOS/osdepends/liteos/cmsis/2.0\cmsis_liteos2.c **** {
 3199              		.loc 1 1340 0
 3200              		.cfi_startproc
 3201              		@ args = 0, pretend = 0, frame = 0
 3202              		@ frame_needed = 0, uses_anonymous_args = 0
 3203              	.LVL351:
1341:C:/Users/lenovo/Desktop/liteos/Project2/BearPi_LiteOS/osdepends/liteos/cmsis/2.0\cmsis_liteos2.c ****     UINT32  uwRet;
1342:C:/Users/lenovo/Desktop/liteos/Project2/BearPi_LiteOS/osdepends/liteos/cmsis/2.0\cmsis_liteos2.c **** 
1343:C:/Users/lenovo/Desktop/liteos/Project2/BearPi_LiteOS/osdepends/liteos/cmsis/2.0\cmsis_liteos2.c ****     if (semaphore_id == NULL)
 3204              		.loc 1 1343 0
 3205 0000 68B1     		cbz	r0, .L383
1340:C:/Users/lenovo/Desktop/liteos/Project2/BearPi_LiteOS/osdepends/liteos/cmsis/2.0\cmsis_liteos2.c ****     UINT32  uwRet;
 3206              		.loc 1 1340 0
 3207 0002 08B5     		push	{r3, lr}
 3208              	.LCFI71:
 3209              		.cfi_def_cfa_offset 8
 3210              		.cfi_offset 3, -8
 3211              		.cfi_offset 14, -4
1344:C:/Users/lenovo/Desktop/liteos/Project2/BearPi_LiteOS/osdepends/liteos/cmsis/2.0\cmsis_liteos2.c ****     {
1345:C:/Users/lenovo/Desktop/liteos/Project2/BearPi_LiteOS/osdepends/liteos/cmsis/2.0\cmsis_liteos2.c ****         return osErrorParameter;
1346:C:/Users/lenovo/Desktop/liteos/Project2/BearPi_LiteOS/osdepends/liteos/cmsis/2.0\cmsis_liteos2.c ****     }
1347:C:/Users/lenovo/Desktop/liteos/Project2/BearPi_LiteOS/osdepends/liteos/cmsis/2.0\cmsis_liteos2.c **** 
1348:C:/Users/lenovo/Desktop/liteos/Project2/BearPi_LiteOS/osdepends/liteos/cmsis/2.0\cmsis_liteos2.c ****     uwRet = LOS_SemPost(((SEM_CB_S *)semaphore_id)->usSemID);
 3212              		.loc 1 1348 0
 3213 0004 C088     		ldrh	r0, [r0, #6]
 3214              	.LVL352:
 3215 0006 FFF7FEFF 		bl	LOS_SemPost
 3216              	.LVL353:
1349:C:/Users/lenovo/Desktop/liteos/Project2/BearPi_LiteOS/osdepends/liteos/cmsis/2.0\cmsis_liteos2.c **** 
1350:C:/Users/lenovo/Desktop/liteos/Project2/BearPi_LiteOS/osdepends/liteos/cmsis/2.0\cmsis_liteos2.c ****     if (uwRet == LOS_OK)
 3217              		.loc 1 1350 0
 3218 000a 58B1     		cbz	r0, .L384
ARM GAS  c:\Users\lenovo\AppData\Local\Temp\ccnbuj3h.s 			page 82


1351:C:/Users/lenovo/Desktop/liteos/Project2/BearPi_LiteOS/osdepends/liteos/cmsis/2.0\cmsis_liteos2.c ****     {
1352:C:/Users/lenovo/Desktop/liteos/Project2/BearPi_LiteOS/osdepends/liteos/cmsis/2.0\cmsis_liteos2.c ****         return osOK;
1353:C:/Users/lenovo/Desktop/liteos/Project2/BearPi_LiteOS/osdepends/liteos/cmsis/2.0\cmsis_liteos2.c ****     }
1354:C:/Users/lenovo/Desktop/liteos/Project2/BearPi_LiteOS/osdepends/liteos/cmsis/2.0\cmsis_liteos2.c ****     else if (uwRet == LOS_ERRNO_SEM_INVALID)
 3219              		.loc 1 1354 0
 3220 000c 064A     		ldr	r2, .L391
 3221 000e 9042     		cmp	r0, r2
 3222 0010 02D0     		beq	.L390
1355:C:/Users/lenovo/Desktop/liteos/Project2/BearPi_LiteOS/osdepends/liteos/cmsis/2.0\cmsis_liteos2.c ****     {
1356:C:/Users/lenovo/Desktop/liteos/Project2/BearPi_LiteOS/osdepends/liteos/cmsis/2.0\cmsis_liteos2.c ****         return osErrorParameter;
1357:C:/Users/lenovo/Desktop/liteos/Project2/BearPi_LiteOS/osdepends/liteos/cmsis/2.0\cmsis_liteos2.c ****     }
1358:C:/Users/lenovo/Desktop/liteos/Project2/BearPi_LiteOS/osdepends/liteos/cmsis/2.0\cmsis_liteos2.c ****     else
1359:C:/Users/lenovo/Desktop/liteos/Project2/BearPi_LiteOS/osdepends/liteos/cmsis/2.0\cmsis_liteos2.c ****     {
1360:C:/Users/lenovo/Desktop/liteos/Project2/BearPi_LiteOS/osdepends/liteos/cmsis/2.0\cmsis_liteos2.c ****         return osErrorResource;
 3223              		.loc 1 1360 0
 3224 0012 6FF00200 		mvn	r0, #2
 3225              	.LVL354:
 3226 0016 06E0     		b	.L381
 3227              	.LVL355:
 3228              	.L390:
1356:C:/Users/lenovo/Desktop/liteos/Project2/BearPi_LiteOS/osdepends/liteos/cmsis/2.0\cmsis_liteos2.c ****     }
 3229              		.loc 1 1356 0
 3230 0018 6FF00300 		mvn	r0, #3
 3231              	.LVL356:
 3232 001c 03E0     		b	.L381
 3233              	.LVL357:
 3234              	.L383:
 3235              	.LCFI72:
 3236              		.cfi_def_cfa_offset 0
 3237              		.cfi_restore 3
 3238              		.cfi_restore 14
1345:C:/Users/lenovo/Desktop/liteos/Project2/BearPi_LiteOS/osdepends/liteos/cmsis/2.0\cmsis_liteos2.c ****     }
 3239              		.loc 1 1345 0
 3240 001e 6FF00300 		mvn	r0, #3
 3241              	.LVL358:
1361:C:/Users/lenovo/Desktop/liteos/Project2/BearPi_LiteOS/osdepends/liteos/cmsis/2.0\cmsis_liteos2.c ****     }
1362:C:/Users/lenovo/Desktop/liteos/Project2/BearPi_LiteOS/osdepends/liteos/cmsis/2.0\cmsis_liteos2.c **** }
 3242              		.loc 1 1362 0
 3243 0022 7047     		bx	lr
 3244              	.LVL359:
 3245              	.L384:
 3246              	.LCFI73:
 3247              		.cfi_def_cfa_offset 8
 3248              		.cfi_offset 3, -8
 3249              		.cfi_offset 14, -4
1352:C:/Users/lenovo/Desktop/liteos/Project2/BearPi_LiteOS/osdepends/liteos/cmsis/2.0\cmsis_liteos2.c ****     }
 3250              		.loc 1 1352 0
 3251 0024 0020     		movs	r0, #0
 3252              	.LVL360:
 3253              	.L381:
 3254              		.loc 1 1362 0
 3255 0026 08BD     		pop	{r3, pc}
 3256              	.L392:
 3257              		.align	2
 3258              	.L391:
 3259 0028 01070002 		.word	33556225
 3260              		.cfi_endproc
ARM GAS  c:\Users\lenovo\AppData\Local\Temp\ccnbuj3h.s 			page 83


 3261              	.LFE184:
 3263              		.section	.text.osSemaphoreGetCount,"ax",%progbits
 3264              		.align	1
 3265              		.global	osSemaphoreGetCount
 3266              		.syntax unified
 3267              		.thumb
 3268              		.thumb_func
 3269              		.fpu fpv4-sp-d16
 3271              	osSemaphoreGetCount:
 3272              	.LFB185:
1363:C:/Users/lenovo/Desktop/liteos/Project2/BearPi_LiteOS/osdepends/liteos/cmsis/2.0\cmsis_liteos2.c **** 
1364:C:/Users/lenovo/Desktop/liteos/Project2/BearPi_LiteOS/osdepends/liteos/cmsis/2.0\cmsis_liteos2.c **** 
1365:C:/Users/lenovo/Desktop/liteos/Project2/BearPi_LiteOS/osdepends/liteos/cmsis/2.0\cmsis_liteos2.c **** uint32_t osSemaphoreGetCount (osSemaphoreId_t semaphore_id)
1366:C:/Users/lenovo/Desktop/liteos/Project2/BearPi_LiteOS/osdepends/liteos/cmsis/2.0\cmsis_liteos2.c **** {
 3273              		.loc 1 1366 0
 3274              		.cfi_startproc
 3275              		@ args = 0, pretend = 0, frame = 0
 3276              		@ frame_needed = 0, uses_anonymous_args = 0
 3277              	.LVL361:
 3278 0000 10B5     		push	{r4, lr}
 3279              	.LCFI74:
 3280              		.cfi_def_cfa_offset 8
 3281              		.cfi_offset 4, -8
 3282              		.cfi_offset 14, -4
 3283 0002 0446     		mov	r4, r0
1367:C:/Users/lenovo/Desktop/liteos/Project2/BearPi_LiteOS/osdepends/liteos/cmsis/2.0\cmsis_liteos2.c ****     UINT32 uwIntSave;
1368:C:/Users/lenovo/Desktop/liteos/Project2/BearPi_LiteOS/osdepends/liteos/cmsis/2.0\cmsis_liteos2.c ****     UINT32 uwCount;
1369:C:/Users/lenovo/Desktop/liteos/Project2/BearPi_LiteOS/osdepends/liteos/cmsis/2.0\cmsis_liteos2.c **** 
1370:C:/Users/lenovo/Desktop/liteos/Project2/BearPi_LiteOS/osdepends/liteos/cmsis/2.0\cmsis_liteos2.c ****     if (OS_INT_ACTIVE)
 3284              		.loc 1 1370 0
 3285 0004 FFF7FEFF 		bl	osIntNumGet
 3286              	.LVL362:
 3287 0008 30B9     		cbnz	r0, .L395
1371:C:/Users/lenovo/Desktop/liteos/Project2/BearPi_LiteOS/osdepends/liteos/cmsis/2.0\cmsis_liteos2.c ****     {
1372:C:/Users/lenovo/Desktop/liteos/Project2/BearPi_LiteOS/osdepends/liteos/cmsis/2.0\cmsis_liteos2.c ****         return 0;
1373:C:/Users/lenovo/Desktop/liteos/Project2/BearPi_LiteOS/osdepends/liteos/cmsis/2.0\cmsis_liteos2.c ****     }
1374:C:/Users/lenovo/Desktop/liteos/Project2/BearPi_LiteOS/osdepends/liteos/cmsis/2.0\cmsis_liteos2.c **** 
1375:C:/Users/lenovo/Desktop/liteos/Project2/BearPi_LiteOS/osdepends/liteos/cmsis/2.0\cmsis_liteos2.c ****     if (semaphore_id == NULL)
 3288              		.loc 1 1375 0
 3289 000a 44B1     		cbz	r4, .L396
1376:C:/Users/lenovo/Desktop/liteos/Project2/BearPi_LiteOS/osdepends/liteos/cmsis/2.0\cmsis_liteos2.c ****     {
1377:C:/Users/lenovo/Desktop/liteos/Project2/BearPi_LiteOS/osdepends/liteos/cmsis/2.0\cmsis_liteos2.c ****         return 0;
1378:C:/Users/lenovo/Desktop/liteos/Project2/BearPi_LiteOS/osdepends/liteos/cmsis/2.0\cmsis_liteos2.c ****     }
1379:C:/Users/lenovo/Desktop/liteos/Project2/BearPi_LiteOS/osdepends/liteos/cmsis/2.0\cmsis_liteos2.c **** 
1380:C:/Users/lenovo/Desktop/liteos/Project2/BearPi_LiteOS/osdepends/liteos/cmsis/2.0\cmsis_liteos2.c ****     uwIntSave = LOS_IntLock();
 3290              		.loc 1 1380 0
 3291 000c FFF7FEFF 		bl	LOS_IntLock
 3292              	.LVL363:
1381:C:/Users/lenovo/Desktop/liteos/Project2/BearPi_LiteOS/osdepends/liteos/cmsis/2.0\cmsis_liteos2.c ****     uwCount = ((SEM_CB_S *)semaphore_id)->usSemCount;
 3293              		.loc 1 1381 0
 3294 0010 6488     		ldrh	r4, [r4, #2]
 3295              	.LVL364:
1382:C:/Users/lenovo/Desktop/liteos/Project2/BearPi_LiteOS/osdepends/liteos/cmsis/2.0\cmsis_liteos2.c ****     (VOID)LOS_IntRestore(uwIntSave);
 3296              		.loc 1 1382 0
 3297 0012 FFF7FEFF 		bl	LOS_IntRestore
 3298              	.LVL365:
1383:C:/Users/lenovo/Desktop/liteos/Project2/BearPi_LiteOS/osdepends/liteos/cmsis/2.0\cmsis_liteos2.c **** 
ARM GAS  c:\Users\lenovo\AppData\Local\Temp\ccnbuj3h.s 			page 84


1384:C:/Users/lenovo/Desktop/liteos/Project2/BearPi_LiteOS/osdepends/liteos/cmsis/2.0\cmsis_liteos2.c ****     return uwCount;
 3299              		.loc 1 1384 0
 3300 0016 00E0     		b	.L393
 3301              	.LVL366:
 3302              	.L395:
1372:C:/Users/lenovo/Desktop/liteos/Project2/BearPi_LiteOS/osdepends/liteos/cmsis/2.0\cmsis_liteos2.c ****     }
 3303              		.loc 1 1372 0
 3304 0018 0024     		movs	r4, #0
 3305              	.LVL367:
 3306              	.L393:
1385:C:/Users/lenovo/Desktop/liteos/Project2/BearPi_LiteOS/osdepends/liteos/cmsis/2.0\cmsis_liteos2.c **** }
 3307              		.loc 1 1385 0
 3308 001a 2046     		mov	r0, r4
 3309 001c 10BD     		pop	{r4, pc}
 3310              	.LVL368:
 3311              	.L396:
1377:C:/Users/lenovo/Desktop/liteos/Project2/BearPi_LiteOS/osdepends/liteos/cmsis/2.0\cmsis_liteos2.c ****     }
 3312              		.loc 1 1377 0
 3313 001e 0024     		movs	r4, #0
 3314              	.LVL369:
 3315 0020 FBE7     		b	.L393
 3316              		.cfi_endproc
 3317              	.LFE185:
 3319              		.section	.text.osSemaphoreDelete,"ax",%progbits
 3320              		.align	1
 3321              		.global	osSemaphoreDelete
 3322              		.syntax unified
 3323              		.thumb
 3324              		.thumb_func
 3325              		.fpu fpv4-sp-d16
 3327              	osSemaphoreDelete:
 3328              	.LFB186:
1386:C:/Users/lenovo/Desktop/liteos/Project2/BearPi_LiteOS/osdepends/liteos/cmsis/2.0\cmsis_liteos2.c **** 
1387:C:/Users/lenovo/Desktop/liteos/Project2/BearPi_LiteOS/osdepends/liteos/cmsis/2.0\cmsis_liteos2.c **** 
1388:C:/Users/lenovo/Desktop/liteos/Project2/BearPi_LiteOS/osdepends/liteos/cmsis/2.0\cmsis_liteos2.c **** osStatus_t osSemaphoreDelete (osSemaphoreId_t semaphore_id)
1389:C:/Users/lenovo/Desktop/liteos/Project2/BearPi_LiteOS/osdepends/liteos/cmsis/2.0\cmsis_liteos2.c **** {
 3329              		.loc 1 1389 0
 3330              		.cfi_startproc
 3331              		@ args = 0, pretend = 0, frame = 0
 3332              		@ frame_needed = 0, uses_anonymous_args = 0
 3333              	.LVL370:
 3334 0000 10B5     		push	{r4, lr}
 3335              	.LCFI75:
 3336              		.cfi_def_cfa_offset 8
 3337              		.cfi_offset 4, -8
 3338              		.cfi_offset 14, -4
 3339 0002 0446     		mov	r4, r0
1390:C:/Users/lenovo/Desktop/liteos/Project2/BearPi_LiteOS/osdepends/liteos/cmsis/2.0\cmsis_liteos2.c ****     UINT32  uwRet;
1391:C:/Users/lenovo/Desktop/liteos/Project2/BearPi_LiteOS/osdepends/liteos/cmsis/2.0\cmsis_liteos2.c **** 
1392:C:/Users/lenovo/Desktop/liteos/Project2/BearPi_LiteOS/osdepends/liteos/cmsis/2.0\cmsis_liteos2.c ****     if (OS_INT_ACTIVE)
 3340              		.loc 1 1392 0
 3341 0004 FFF7FEFF 		bl	osIntNumGet
 3342              	.LVL371:
 3343 0008 68B9     		cbnz	r0, .L400
1393:C:/Users/lenovo/Desktop/liteos/Project2/BearPi_LiteOS/osdepends/liteos/cmsis/2.0\cmsis_liteos2.c ****     {
1394:C:/Users/lenovo/Desktop/liteos/Project2/BearPi_LiteOS/osdepends/liteos/cmsis/2.0\cmsis_liteos2.c ****         return osErrorISR;
1395:C:/Users/lenovo/Desktop/liteos/Project2/BearPi_LiteOS/osdepends/liteos/cmsis/2.0\cmsis_liteos2.c ****     }
ARM GAS  c:\Users\lenovo\AppData\Local\Temp\ccnbuj3h.s 			page 85


1396:C:/Users/lenovo/Desktop/liteos/Project2/BearPi_LiteOS/osdepends/liteos/cmsis/2.0\cmsis_liteos2.c **** 
1397:C:/Users/lenovo/Desktop/liteos/Project2/BearPi_LiteOS/osdepends/liteos/cmsis/2.0\cmsis_liteos2.c ****     if (semaphore_id == NULL)
 3344              		.loc 1 1397 0
 3345 000a 7CB1     		cbz	r4, .L401
1398:C:/Users/lenovo/Desktop/liteos/Project2/BearPi_LiteOS/osdepends/liteos/cmsis/2.0\cmsis_liteos2.c ****     {
1399:C:/Users/lenovo/Desktop/liteos/Project2/BearPi_LiteOS/osdepends/liteos/cmsis/2.0\cmsis_liteos2.c ****         return osErrorParameter;
1400:C:/Users/lenovo/Desktop/liteos/Project2/BearPi_LiteOS/osdepends/liteos/cmsis/2.0\cmsis_liteos2.c ****     }
1401:C:/Users/lenovo/Desktop/liteos/Project2/BearPi_LiteOS/osdepends/liteos/cmsis/2.0\cmsis_liteos2.c **** 
1402:C:/Users/lenovo/Desktop/liteos/Project2/BearPi_LiteOS/osdepends/liteos/cmsis/2.0\cmsis_liteos2.c ****     uwRet = LOS_SemDelete(((SEM_CB_S *)semaphore_id)->usSemID);
 3346              		.loc 1 1402 0
 3347 000c E088     		ldrh	r0, [r4, #6]
 3348 000e FFF7FEFF 		bl	LOS_SemDelete
 3349              	.LVL372:
1403:C:/Users/lenovo/Desktop/liteos/Project2/BearPi_LiteOS/osdepends/liteos/cmsis/2.0\cmsis_liteos2.c **** 
1404:C:/Users/lenovo/Desktop/liteos/Project2/BearPi_LiteOS/osdepends/liteos/cmsis/2.0\cmsis_liteos2.c ****     if (uwRet == LOS_OK)
 3350              		.loc 1 1404 0
 3351 0012 70B1     		cbz	r0, .L402
1405:C:/Users/lenovo/Desktop/liteos/Project2/BearPi_LiteOS/osdepends/liteos/cmsis/2.0\cmsis_liteos2.c ****     {
1406:C:/Users/lenovo/Desktop/liteos/Project2/BearPi_LiteOS/osdepends/liteos/cmsis/2.0\cmsis_liteos2.c ****         return osOK;
1407:C:/Users/lenovo/Desktop/liteos/Project2/BearPi_LiteOS/osdepends/liteos/cmsis/2.0\cmsis_liteos2.c ****     }
1408:C:/Users/lenovo/Desktop/liteos/Project2/BearPi_LiteOS/osdepends/liteos/cmsis/2.0\cmsis_liteos2.c ****     else if (uwRet == LOS_ERRNO_SEM_INVALID)
 3352              		.loc 1 1408 0
 3353 0014 084A     		ldr	r2, .L406
 3354 0016 9042     		cmp	r0, r2
 3355 0018 02D0     		beq	.L405
1409:C:/Users/lenovo/Desktop/liteos/Project2/BearPi_LiteOS/osdepends/liteos/cmsis/2.0\cmsis_liteos2.c ****     {
1410:C:/Users/lenovo/Desktop/liteos/Project2/BearPi_LiteOS/osdepends/liteos/cmsis/2.0\cmsis_liteos2.c ****         return osErrorParameter;
1411:C:/Users/lenovo/Desktop/liteos/Project2/BearPi_LiteOS/osdepends/liteos/cmsis/2.0\cmsis_liteos2.c ****     }
1412:C:/Users/lenovo/Desktop/liteos/Project2/BearPi_LiteOS/osdepends/liteos/cmsis/2.0\cmsis_liteos2.c ****     else
1413:C:/Users/lenovo/Desktop/liteos/Project2/BearPi_LiteOS/osdepends/liteos/cmsis/2.0\cmsis_liteos2.c ****     {
1414:C:/Users/lenovo/Desktop/liteos/Project2/BearPi_LiteOS/osdepends/liteos/cmsis/2.0\cmsis_liteos2.c ****         return osErrorResource;
 3356              		.loc 1 1414 0
 3357 001a 6FF00200 		mvn	r0, #2
 3358              	.LVL373:
 3359 001e 09E0     		b	.L398
 3360              	.LVL374:
 3361              	.L405:
1410:C:/Users/lenovo/Desktop/liteos/Project2/BearPi_LiteOS/osdepends/liteos/cmsis/2.0\cmsis_liteos2.c ****     }
 3362              		.loc 1 1410 0
 3363 0020 6FF00300 		mvn	r0, #3
 3364              	.LVL375:
 3365 0024 06E0     		b	.L398
 3366              	.L400:
1394:C:/Users/lenovo/Desktop/liteos/Project2/BearPi_LiteOS/osdepends/liteos/cmsis/2.0\cmsis_liteos2.c ****     }
 3367              		.loc 1 1394 0
 3368 0026 6FF00500 		mvn	r0, #5
 3369 002a 03E0     		b	.L398
 3370              	.L401:
1399:C:/Users/lenovo/Desktop/liteos/Project2/BearPi_LiteOS/osdepends/liteos/cmsis/2.0\cmsis_liteos2.c ****     }
 3371              		.loc 1 1399 0
 3372 002c 6FF00300 		mvn	r0, #3
 3373 0030 00E0     		b	.L398
 3374              	.LVL376:
 3375              	.L402:
1406:C:/Users/lenovo/Desktop/liteos/Project2/BearPi_LiteOS/osdepends/liteos/cmsis/2.0\cmsis_liteos2.c ****     }
 3376              		.loc 1 1406 0
 3377 0032 0020     		movs	r0, #0
ARM GAS  c:\Users\lenovo\AppData\Local\Temp\ccnbuj3h.s 			page 86


 3378              	.LVL377:
 3379              	.L398:
1415:C:/Users/lenovo/Desktop/liteos/Project2/BearPi_LiteOS/osdepends/liteos/cmsis/2.0\cmsis_liteos2.c ****     }
1416:C:/Users/lenovo/Desktop/liteos/Project2/BearPi_LiteOS/osdepends/liteos/cmsis/2.0\cmsis_liteos2.c **** }
 3380              		.loc 1 1416 0
 3381 0034 10BD     		pop	{r4, pc}
 3382              	.LVL378:
 3383              	.L407:
 3384 0036 00BF     		.align	2
 3385              	.L406:
 3386 0038 01070002 		.word	33556225
 3387              		.cfi_endproc
 3388              	.LFE186:
 3390              		.section	.text.osMessageQueueNew,"ax",%progbits
 3391              		.align	1
 3392              		.global	osMessageQueueNew
 3393              		.syntax unified
 3394              		.thumb
 3395              		.thumb_func
 3396              		.fpu fpv4-sp-d16
 3398              	osMessageQueueNew:
 3399              	.LFB187:
1417:C:/Users/lenovo/Desktop/liteos/Project2/BearPi_LiteOS/osdepends/liteos/cmsis/2.0\cmsis_liteos2.c **** #endif
1418:C:/Users/lenovo/Desktop/liteos/Project2/BearPi_LiteOS/osdepends/liteos/cmsis/2.0\cmsis_liteos2.c **** 
1419:C:/Users/lenovo/Desktop/liteos/Project2/BearPi_LiteOS/osdepends/liteos/cmsis/2.0\cmsis_liteos2.c **** 
1420:C:/Users/lenovo/Desktop/liteos/Project2/BearPi_LiteOS/osdepends/liteos/cmsis/2.0\cmsis_liteos2.c **** //  ==== Message Queue Management Functions ====
1421:C:/Users/lenovo/Desktop/liteos/Project2/BearPi_LiteOS/osdepends/liteos/cmsis/2.0\cmsis_liteos2.c **** #if (LOSCFG_BASE_IPC_QUEUE == YES)
1422:C:/Users/lenovo/Desktop/liteos/Project2/BearPi_LiteOS/osdepends/liteos/cmsis/2.0\cmsis_liteos2.c **** osMessageQueueId_t osMessageQueueNew (uint32_t msg_count, uint32_t msg_size, const osMessageQueueAt
1423:C:/Users/lenovo/Desktop/liteos/Project2/BearPi_LiteOS/osdepends/liteos/cmsis/2.0\cmsis_liteos2.c **** {
 3400              		.loc 1 1423 0
 3401              		.cfi_startproc
 3402              		@ args = 0, pretend = 0, frame = 8
 3403              		@ frame_needed = 0, uses_anonymous_args = 0
 3404              	.LVL379:
1424:C:/Users/lenovo/Desktop/liteos/Project2/BearPi_LiteOS/osdepends/liteos/cmsis/2.0\cmsis_liteos2.c ****     UINT32 uwQueueID;
1425:C:/Users/lenovo/Desktop/liteos/Project2/BearPi_LiteOS/osdepends/liteos/cmsis/2.0\cmsis_liteos2.c ****     UINT32 uwRet;
1426:C:/Users/lenovo/Desktop/liteos/Project2/BearPi_LiteOS/osdepends/liteos/cmsis/2.0\cmsis_liteos2.c ****     UNUSED(attr);
1427:C:/Users/lenovo/Desktop/liteos/Project2/BearPi_LiteOS/osdepends/liteos/cmsis/2.0\cmsis_liteos2.c ****     osMessageQueueId_t handle;
1428:C:/Users/lenovo/Desktop/liteos/Project2/BearPi_LiteOS/osdepends/liteos/cmsis/2.0\cmsis_liteos2.c **** 
1429:C:/Users/lenovo/Desktop/liteos/Project2/BearPi_LiteOS/osdepends/liteos/cmsis/2.0\cmsis_liteos2.c ****     if(0 == msg_count || 0 == msg_size || OS_INT_ACTIVE)
 3405              		.loc 1 1429 0
 3406 0000 C0B1     		cbz	r0, .L410
1423:C:/Users/lenovo/Desktop/liteos/Project2/BearPi_LiteOS/osdepends/liteos/cmsis/2.0\cmsis_liteos2.c ****     UINT32 uwQueueID;
 3407              		.loc 1 1423 0 discriminator 1
 3408 0002 30B5     		push	{r4, r5, lr}
 3409              	.LCFI76:
 3410              		.cfi_def_cfa_offset 12
 3411              		.cfi_offset 4, -12
 3412              		.cfi_offset 5, -8
 3413              		.cfi_offset 14, -4
 3414 0004 85B0     		sub	sp, sp, #20
 3415              	.LCFI77:
 3416              		.cfi_def_cfa_offset 32
 3417 0006 0546     		mov	r5, r0
 3418              		.loc 1 1429 0 discriminator 1
 3419 0008 B1B1     		cbz	r1, .L411
 3420 000a 0C46     		mov	r4, r1
ARM GAS  c:\Users\lenovo\AppData\Local\Temp\ccnbuj3h.s 			page 87


 3421              		.loc 1 1429 0 is_stmt 0 discriminator 2
 3422 000c FFF7FEFF 		bl	osIntNumGet
 3423              	.LVL380:
 3424 0010 A0B9     		cbnz	r0, .L412
1430:C:/Users/lenovo/Desktop/liteos/Project2/BearPi_LiteOS/osdepends/liteos/cmsis/2.0\cmsis_liteos2.c ****     {
1431:C:/Users/lenovo/Desktop/liteos/Project2/BearPi_LiteOS/osdepends/liteos/cmsis/2.0\cmsis_liteos2.c ****         return (osMessageQueueId_t)NULL;
1432:C:/Users/lenovo/Desktop/liteos/Project2/BearPi_LiteOS/osdepends/liteos/cmsis/2.0\cmsis_liteos2.c ****     }
1433:C:/Users/lenovo/Desktop/liteos/Project2/BearPi_LiteOS/osdepends/liteos/cmsis/2.0\cmsis_liteos2.c **** 
1434:C:/Users/lenovo/Desktop/liteos/Project2/BearPi_LiteOS/osdepends/liteos/cmsis/2.0\cmsis_liteos2.c ****     uwRet = LOS_QueueCreate((char *)NULL, (UINT16)msg_count, &uwQueueID, 0, (UINT16)msg_size);
 3425              		.loc 1 1434 0 is_stmt 1
 3426 0012 A4B2     		uxth	r4, r4
 3427              	.LVL381:
 3428 0014 0094     		str	r4, [sp]
 3429 0016 0023     		movs	r3, #0
 3430 0018 03AA     		add	r2, sp, #12
 3431 001a A9B2     		uxth	r1, r5
 3432 001c 1846     		mov	r0, r3
 3433 001e FFF7FEFF 		bl	LOS_QueueCreate
 3434              	.LVL382:
1435:C:/Users/lenovo/Desktop/liteos/Project2/BearPi_LiteOS/osdepends/liteos/cmsis/2.0\cmsis_liteos2.c ****     if (uwRet == LOS_OK)
 3435              		.loc 1 1435 0
 3436 0022 68B9     		cbnz	r0, .L413
1436:C:/Users/lenovo/Desktop/liteos/Project2/BearPi_LiteOS/osdepends/liteos/cmsis/2.0\cmsis_liteos2.c ****     {
1437:C:/Users/lenovo/Desktop/liteos/Project2/BearPi_LiteOS/osdepends/liteos/cmsis/2.0\cmsis_liteos2.c ****         handle = (osMessageQueueId_t)(GET_QUEUE_HANDLE(uwQueueID));
 3437              		.loc 1 1437 0
 3438 0024 074B     		ldr	r3, .L418
 3439 0026 1B68     		ldr	r3, [r3]
 3440 0028 0398     		ldr	r0, [sp, #12]
 3441              	.LVL383:
 3442 002a 2C22     		movs	r2, #44
 3443 002c 02FB0030 		mla	r0, r2, r0, r3
 3444              	.LVL384:
 3445              	.L408:
1438:C:/Users/lenovo/Desktop/liteos/Project2/BearPi_LiteOS/osdepends/liteos/cmsis/2.0\cmsis_liteos2.c ****     }
1439:C:/Users/lenovo/Desktop/liteos/Project2/BearPi_LiteOS/osdepends/liteos/cmsis/2.0\cmsis_liteos2.c ****     else
1440:C:/Users/lenovo/Desktop/liteos/Project2/BearPi_LiteOS/osdepends/liteos/cmsis/2.0\cmsis_liteos2.c ****     {
1441:C:/Users/lenovo/Desktop/liteos/Project2/BearPi_LiteOS/osdepends/liteos/cmsis/2.0\cmsis_liteos2.c ****         handle = (osMessageQueueId_t)NULL;
1442:C:/Users/lenovo/Desktop/liteos/Project2/BearPi_LiteOS/osdepends/liteos/cmsis/2.0\cmsis_liteos2.c ****     }
1443:C:/Users/lenovo/Desktop/liteos/Project2/BearPi_LiteOS/osdepends/liteos/cmsis/2.0\cmsis_liteos2.c **** 
1444:C:/Users/lenovo/Desktop/liteos/Project2/BearPi_LiteOS/osdepends/liteos/cmsis/2.0\cmsis_liteos2.c ****     return handle;
1445:C:/Users/lenovo/Desktop/liteos/Project2/BearPi_LiteOS/osdepends/liteos/cmsis/2.0\cmsis_liteos2.c **** }
 3446              		.loc 1 1445 0
 3447 0030 05B0     		add	sp, sp, #20
 3448              	.LCFI78:
 3449              		.cfi_def_cfa_offset 12
 3450              		@ sp needed
 3451 0032 30BD     		pop	{r4, r5, pc}
 3452              	.LVL385:
 3453              	.L410:
 3454              	.LCFI79:
 3455              		.cfi_def_cfa_offset 0
 3456              		.cfi_restore 4
 3457              		.cfi_restore 5
 3458              		.cfi_restore 14
1431:C:/Users/lenovo/Desktop/liteos/Project2/BearPi_LiteOS/osdepends/liteos/cmsis/2.0\cmsis_liteos2.c ****     }
 3459              		.loc 1 1431 0
 3460 0034 0020     		movs	r0, #0
ARM GAS  c:\Users\lenovo\AppData\Local\Temp\ccnbuj3h.s 			page 88


 3461              	.LVL386:
 3462              		.loc 1 1445 0
 3463 0036 7047     		bx	lr
 3464              	.LVL387:
 3465              	.L411:
 3466              	.LCFI80:
 3467              		.cfi_def_cfa_offset 32
 3468              		.cfi_offset 4, -12
 3469              		.cfi_offset 5, -8
 3470              		.cfi_offset 14, -4
1431:C:/Users/lenovo/Desktop/liteos/Project2/BearPi_LiteOS/osdepends/liteos/cmsis/2.0\cmsis_liteos2.c ****     }
 3471              		.loc 1 1431 0
 3472 0038 0020     		movs	r0, #0
 3473              	.LVL388:
 3474 003a F9E7     		b	.L408
 3475              	.LVL389:
 3476              	.L412:
 3477 003c 0020     		movs	r0, #0
 3478 003e F7E7     		b	.L408
 3479              	.LVL390:
 3480              	.L413:
1441:C:/Users/lenovo/Desktop/liteos/Project2/BearPi_LiteOS/osdepends/liteos/cmsis/2.0\cmsis_liteos2.c ****     }
 3481              		.loc 1 1441 0
 3482 0040 0020     		movs	r0, #0
 3483              	.LVL391:
 3484 0042 F5E7     		b	.L408
 3485              	.L419:
 3486              		.align	2
 3487              	.L418:
 3488 0044 00000000 		.word	g_pstAllQueue
 3489              		.cfi_endproc
 3490              	.LFE187:
 3492              		.section	.text.osMessageQueuePut,"ax",%progbits
 3493              		.align	1
 3494              		.global	osMessageQueuePut
 3495              		.syntax unified
 3496              		.thumb
 3497              		.thumb_func
 3498              		.fpu fpv4-sp-d16
 3500              	osMessageQueuePut:
 3501              	.LFB188:
1446:C:/Users/lenovo/Desktop/liteos/Project2/BearPi_LiteOS/osdepends/liteos/cmsis/2.0\cmsis_liteos2.c **** 
1447:C:/Users/lenovo/Desktop/liteos/Project2/BearPi_LiteOS/osdepends/liteos/cmsis/2.0\cmsis_liteos2.c **** 
1448:C:/Users/lenovo/Desktop/liteos/Project2/BearPi_LiteOS/osdepends/liteos/cmsis/2.0\cmsis_liteos2.c **** osStatus_t osMessageQueuePut (osMessageQueueId_t mq_id, const void *msg_ptr, uint8_t msg_prio, uint
1449:C:/Users/lenovo/Desktop/liteos/Project2/BearPi_LiteOS/osdepends/liteos/cmsis/2.0\cmsis_liteos2.c **** {
 3502              		.loc 1 1449 0
 3503              		.cfi_startproc
 3504              		@ args = 0, pretend = 0, frame = 0
 3505              		@ frame_needed = 0, uses_anonymous_args = 0
 3506              	.LVL392:
1450:C:/Users/lenovo/Desktop/liteos/Project2/BearPi_LiteOS/osdepends/liteos/cmsis/2.0\cmsis_liteos2.c ****     UNUSED(msg_prio);
1451:C:/Users/lenovo/Desktop/liteos/Project2/BearPi_LiteOS/osdepends/liteos/cmsis/2.0\cmsis_liteos2.c ****     UINT32 uwRet;
1452:C:/Users/lenovo/Desktop/liteos/Project2/BearPi_LiteOS/osdepends/liteos/cmsis/2.0\cmsis_liteos2.c ****     UINT32 uwBufferSize;
1453:C:/Users/lenovo/Desktop/liteos/Project2/BearPi_LiteOS/osdepends/liteos/cmsis/2.0\cmsis_liteos2.c ****     QUEUE_CB_S *pstQueue = (QUEUE_CB_S *)mq_id;
1454:C:/Users/lenovo/Desktop/liteos/Project2/BearPi_LiteOS/osdepends/liteos/cmsis/2.0\cmsis_liteos2.c **** 
1455:C:/Users/lenovo/Desktop/liteos/Project2/BearPi_LiteOS/osdepends/liteos/cmsis/2.0\cmsis_liteos2.c ****     if (pstQueue == NULL || msg_ptr == NULL || ((OS_INT_ACTIVE) && (0 != timeout)))
 3507              		.loc 1 1455 0
ARM GAS  c:\Users\lenovo\AppData\Local\Temp\ccnbuj3h.s 			page 89


 3508 0000 F8B1     		cbz	r0, .L423
1449:C:/Users/lenovo/Desktop/liteos/Project2/BearPi_LiteOS/osdepends/liteos/cmsis/2.0\cmsis_liteos2.c ****     UNUSED(msg_prio);
 3509              		.loc 1 1449 0 discriminator 1
 3510 0002 70B5     		push	{r4, r5, r6, lr}
 3511              	.LCFI81:
 3512              		.cfi_def_cfa_offset 16
 3513              		.cfi_offset 4, -16
 3514              		.cfi_offset 5, -12
 3515              		.cfi_offset 6, -8
 3516              		.cfi_offset 14, -4
 3517 0004 0546     		mov	r5, r0
 3518              		.loc 1 1455 0 discriminator 1
 3519 0006 F9B1     		cbz	r1, .L424
 3520 0008 1E46     		mov	r6, r3
 3521 000a 0C46     		mov	r4, r1
 3522              		.loc 1 1455 0 is_stmt 0 discriminator 2
 3523 000c FFF7FEFF 		bl	osIntNumGet
 3524              	.LVL393:
 3525 0010 00B1     		cbz	r0, .L422
 3526              		.loc 1 1455 0 discriminator 3
 3527 0012 E6B9     		cbnz	r6, .L425
 3528              	.L422:
1456:C:/Users/lenovo/Desktop/liteos/Project2/BearPi_LiteOS/osdepends/liteos/cmsis/2.0\cmsis_liteos2.c ****     {
1457:C:/Users/lenovo/Desktop/liteos/Project2/BearPi_LiteOS/osdepends/liteos/cmsis/2.0\cmsis_liteos2.c ****         return osErrorParameter;
1458:C:/Users/lenovo/Desktop/liteos/Project2/BearPi_LiteOS/osdepends/liteos/cmsis/2.0\cmsis_liteos2.c ****     }
1459:C:/Users/lenovo/Desktop/liteos/Project2/BearPi_LiteOS/osdepends/liteos/cmsis/2.0\cmsis_liteos2.c **** 
1460:C:/Users/lenovo/Desktop/liteos/Project2/BearPi_LiteOS/osdepends/liteos/cmsis/2.0\cmsis_liteos2.c ****     uwBufferSize = (UINT32)(pstQueue->usQueueSize - sizeof(UINT32));
 3529              		.loc 1 1460 0 is_stmt 1
 3530 0014 2A89     		ldrh	r2, [r5, #8]
 3531              	.LVL394:
1461:C:/Users/lenovo/Desktop/liteos/Project2/BearPi_LiteOS/osdepends/liteos/cmsis/2.0\cmsis_liteos2.c ****     uwRet = LOS_QueueWriteCopy((UINT32)pstQueue->usQueueID, (void *)msg_ptr, uwBufferSize, timeout)
 3532              		.loc 1 1461 0
 3533 0016 3346     		mov	r3, r6
 3534 0018 043A     		subs	r2, r2, #4
 3535              	.LVL395:
 3536 001a 2146     		mov	r1, r4
 3537 001c 6889     		ldrh	r0, [r5, #10]
 3538 001e FFF7FEFF 		bl	LOS_QueueWriteCopy
 3539              	.LVL396:
1462:C:/Users/lenovo/Desktop/liteos/Project2/BearPi_LiteOS/osdepends/liteos/cmsis/2.0\cmsis_liteos2.c ****     if (uwRet == LOS_OK)
 3540              		.loc 1 1462 0
 3541 0022 B8B1     		cbz	r0, .L426
1463:C:/Users/lenovo/Desktop/liteos/Project2/BearPi_LiteOS/osdepends/liteos/cmsis/2.0\cmsis_liteos2.c ****     {
1464:C:/Users/lenovo/Desktop/liteos/Project2/BearPi_LiteOS/osdepends/liteos/cmsis/2.0\cmsis_liteos2.c ****         return osOK;
1465:C:/Users/lenovo/Desktop/liteos/Project2/BearPi_LiteOS/osdepends/liteos/cmsis/2.0\cmsis_liteos2.c ****     }
1466:C:/Users/lenovo/Desktop/liteos/Project2/BearPi_LiteOS/osdepends/liteos/cmsis/2.0\cmsis_liteos2.c ****     else if(uwRet == LOS_ERRNO_QUEUE_INVALID || uwRet == LOS_ERRNO_QUEUE_NOT_CREATE)
 3542              		.loc 1 1466 0
 3543 0024 0F4A     		ldr	r2, .L435
 3544 0026 9042     		cmp	r0, r2
 3545 0028 16D0     		beq	.L427
 3546              		.loc 1 1466 0 is_stmt 0 discriminator 1
 3547 002a 043A     		subs	r2, r2, #4
 3548 002c 9042     		cmp	r0, r2
 3549 002e 16D0     		beq	.L428
1467:C:/Users/lenovo/Desktop/liteos/Project2/BearPi_LiteOS/osdepends/liteos/cmsis/2.0\cmsis_liteos2.c ****     {
1468:C:/Users/lenovo/Desktop/liteos/Project2/BearPi_LiteOS/osdepends/liteos/cmsis/2.0\cmsis_liteos2.c ****         return osErrorParameter;
1469:C:/Users/lenovo/Desktop/liteos/Project2/BearPi_LiteOS/osdepends/liteos/cmsis/2.0\cmsis_liteos2.c ****     }
ARM GAS  c:\Users\lenovo\AppData\Local\Temp\ccnbuj3h.s 			page 90


1470:C:/Users/lenovo/Desktop/liteos/Project2/BearPi_LiteOS/osdepends/liteos/cmsis/2.0\cmsis_liteos2.c ****     else if (uwRet == LOS_ERRNO_QUEUE_TIMEOUT)
 3550              		.loc 1 1470 0 is_stmt 1
 3551 0030 033A     		subs	r2, r2, #3
 3552 0032 9042     		cmp	r0, r2
 3553 0034 02D0     		beq	.L434
1471:C:/Users/lenovo/Desktop/liteos/Project2/BearPi_LiteOS/osdepends/liteos/cmsis/2.0\cmsis_liteos2.c ****     {
1472:C:/Users/lenovo/Desktop/liteos/Project2/BearPi_LiteOS/osdepends/liteos/cmsis/2.0\cmsis_liteos2.c ****         return osErrorTimeout;
1473:C:/Users/lenovo/Desktop/liteos/Project2/BearPi_LiteOS/osdepends/liteos/cmsis/2.0\cmsis_liteos2.c ****     }
1474:C:/Users/lenovo/Desktop/liteos/Project2/BearPi_LiteOS/osdepends/liteos/cmsis/2.0\cmsis_liteos2.c ****     else
1475:C:/Users/lenovo/Desktop/liteos/Project2/BearPi_LiteOS/osdepends/liteos/cmsis/2.0\cmsis_liteos2.c ****     {
1476:C:/Users/lenovo/Desktop/liteos/Project2/BearPi_LiteOS/osdepends/liteos/cmsis/2.0\cmsis_liteos2.c ****         return osErrorResource;
 3554              		.loc 1 1476 0
 3555 0036 6FF00200 		mvn	r0, #2
 3556              	.LVL397:
 3557 003a 0CE0     		b	.L420
 3558              	.LVL398:
 3559              	.L434:
1472:C:/Users/lenovo/Desktop/liteos/Project2/BearPi_LiteOS/osdepends/liteos/cmsis/2.0\cmsis_liteos2.c ****     }
 3560              		.loc 1 1472 0
 3561 003c 6FF00100 		mvn	r0, #1
 3562              	.LVL399:
 3563 0040 09E0     		b	.L420
 3564              	.LVL400:
 3565              	.L423:
 3566              	.LCFI82:
 3567              		.cfi_def_cfa_offset 0
 3568              		.cfi_restore 4
 3569              		.cfi_restore 5
 3570              		.cfi_restore 6
 3571              		.cfi_restore 14
1457:C:/Users/lenovo/Desktop/liteos/Project2/BearPi_LiteOS/osdepends/liteos/cmsis/2.0\cmsis_liteos2.c ****     }
 3572              		.loc 1 1457 0
 3573 0042 6FF00300 		mvn	r0, #3
 3574              	.LVL401:
1477:C:/Users/lenovo/Desktop/liteos/Project2/BearPi_LiteOS/osdepends/liteos/cmsis/2.0\cmsis_liteos2.c ****     }
1478:C:/Users/lenovo/Desktop/liteos/Project2/BearPi_LiteOS/osdepends/liteos/cmsis/2.0\cmsis_liteos2.c **** }
 3575              		.loc 1 1478 0
 3576 0046 7047     		bx	lr
 3577              	.LVL402:
 3578              	.L424:
 3579              	.LCFI83:
 3580              		.cfi_def_cfa_offset 16
 3581              		.cfi_offset 4, -16
 3582              		.cfi_offset 5, -12
 3583              		.cfi_offset 6, -8
 3584              		.cfi_offset 14, -4
1457:C:/Users/lenovo/Desktop/liteos/Project2/BearPi_LiteOS/osdepends/liteos/cmsis/2.0\cmsis_liteos2.c ****     }
 3585              		.loc 1 1457 0
 3586 0048 6FF00300 		mvn	r0, #3
 3587              	.LVL403:
 3588 004c 03E0     		b	.L420
 3589              	.LVL404:
 3590              	.L425:
 3591 004e 6FF00300 		mvn	r0, #3
 3592 0052 00E0     		b	.L420
 3593              	.LVL405:
 3594              	.L426:
ARM GAS  c:\Users\lenovo\AppData\Local\Temp\ccnbuj3h.s 			page 91


1464:C:/Users/lenovo/Desktop/liteos/Project2/BearPi_LiteOS/osdepends/liteos/cmsis/2.0\cmsis_liteos2.c ****     }
 3595              		.loc 1 1464 0
 3596 0054 0020     		movs	r0, #0
 3597              	.LVL406:
 3598              	.L420:
 3599              		.loc 1 1478 0
 3600 0056 70BD     		pop	{r4, r5, r6, pc}
 3601              	.LVL407:
 3602              	.L427:
1468:C:/Users/lenovo/Desktop/liteos/Project2/BearPi_LiteOS/osdepends/liteos/cmsis/2.0\cmsis_liteos2.c ****     }
 3603              		.loc 1 1468 0
 3604 0058 6FF00300 		mvn	r0, #3
 3605              	.LVL408:
 3606 005c FBE7     		b	.L420
 3607              	.LVL409:
 3608              	.L428:
 3609 005e 6FF00300 		mvn	r0, #3
 3610              	.LVL410:
 3611 0062 F8E7     		b	.L420
 3612              	.L436:
 3613              		.align	2
 3614              	.L435:
 3615 0064 0E060002 		.word	33555982
 3616              		.cfi_endproc
 3617              	.LFE188:
 3619              		.section	.text.osMessageQueueGet,"ax",%progbits
 3620              		.align	1
 3621              		.global	osMessageQueueGet
 3622              		.syntax unified
 3623              		.thumb
 3624              		.thumb_func
 3625              		.fpu fpv4-sp-d16
 3627              	osMessageQueueGet:
 3628              	.LFB189:
1479:C:/Users/lenovo/Desktop/liteos/Project2/BearPi_LiteOS/osdepends/liteos/cmsis/2.0\cmsis_liteos2.c **** 
1480:C:/Users/lenovo/Desktop/liteos/Project2/BearPi_LiteOS/osdepends/liteos/cmsis/2.0\cmsis_liteos2.c **** 
1481:C:/Users/lenovo/Desktop/liteos/Project2/BearPi_LiteOS/osdepends/liteos/cmsis/2.0\cmsis_liteos2.c **** osStatus_t osMessageQueueGet (osMessageQueueId_t mq_id, void *msg_ptr, uint8_t *msg_prio, uint32_t 
1482:C:/Users/lenovo/Desktop/liteos/Project2/BearPi_LiteOS/osdepends/liteos/cmsis/2.0\cmsis_liteos2.c **** {
 3629              		.loc 1 1482 0
 3630              		.cfi_startproc
 3631              		@ args = 0, pretend = 0, frame = 8
 3632              		@ frame_needed = 0, uses_anonymous_args = 0
 3633              	.LVL411:
1483:C:/Users/lenovo/Desktop/liteos/Project2/BearPi_LiteOS/osdepends/liteos/cmsis/2.0\cmsis_liteos2.c ****     UNUSED(msg_prio);
1484:C:/Users/lenovo/Desktop/liteos/Project2/BearPi_LiteOS/osdepends/liteos/cmsis/2.0\cmsis_liteos2.c ****     UINT32 uwRet;
1485:C:/Users/lenovo/Desktop/liteos/Project2/BearPi_LiteOS/osdepends/liteos/cmsis/2.0\cmsis_liteos2.c ****     UINT32 uwBufferSize;
1486:C:/Users/lenovo/Desktop/liteos/Project2/BearPi_LiteOS/osdepends/liteos/cmsis/2.0\cmsis_liteos2.c ****     QUEUE_CB_S *pstQueue = (QUEUE_CB_S *)mq_id;
1487:C:/Users/lenovo/Desktop/liteos/Project2/BearPi_LiteOS/osdepends/liteos/cmsis/2.0\cmsis_liteos2.c **** 
1488:C:/Users/lenovo/Desktop/liteos/Project2/BearPi_LiteOS/osdepends/liteos/cmsis/2.0\cmsis_liteos2.c ****     if (pstQueue == NULL || msg_ptr == NULL || ((OS_INT_ACTIVE) && (0 != timeout)))
 3634              		.loc 1 1488 0
 3635 0000 18B3     		cbz	r0, .L440
1482:C:/Users/lenovo/Desktop/liteos/Project2/BearPi_LiteOS/osdepends/liteos/cmsis/2.0\cmsis_liteos2.c ****     UNUSED(msg_prio);
 3636              		.loc 1 1482 0 discriminator 1
 3637 0002 70B5     		push	{r4, r5, r6, lr}
 3638              	.LCFI84:
 3639              		.cfi_def_cfa_offset 16
 3640              		.cfi_offset 4, -16
ARM GAS  c:\Users\lenovo\AppData\Local\Temp\ccnbuj3h.s 			page 92


 3641              		.cfi_offset 5, -12
 3642              		.cfi_offset 6, -8
 3643              		.cfi_offset 14, -4
 3644 0004 82B0     		sub	sp, sp, #8
 3645              	.LCFI85:
 3646              		.cfi_def_cfa_offset 24
 3647 0006 0546     		mov	r5, r0
 3648              		.loc 1 1488 0 discriminator 1
 3649 0008 11B3     		cbz	r1, .L441
 3650 000a 1E46     		mov	r6, r3
 3651 000c 0C46     		mov	r4, r1
 3652              		.loc 1 1488 0 is_stmt 0 discriminator 2
 3653 000e FFF7FEFF 		bl	osIntNumGet
 3654              	.LVL412:
 3655 0012 00B1     		cbz	r0, .L439
 3656              		.loc 1 1488 0 discriminator 3
 3657 0014 FEB9     		cbnz	r6, .L442
 3658              	.L439:
1489:C:/Users/lenovo/Desktop/liteos/Project2/BearPi_LiteOS/osdepends/liteos/cmsis/2.0\cmsis_liteos2.c ****     {
1490:C:/Users/lenovo/Desktop/liteos/Project2/BearPi_LiteOS/osdepends/liteos/cmsis/2.0\cmsis_liteos2.c ****         return osErrorParameter;
1491:C:/Users/lenovo/Desktop/liteos/Project2/BearPi_LiteOS/osdepends/liteos/cmsis/2.0\cmsis_liteos2.c ****     }
1492:C:/Users/lenovo/Desktop/liteos/Project2/BearPi_LiteOS/osdepends/liteos/cmsis/2.0\cmsis_liteos2.c **** 
1493:C:/Users/lenovo/Desktop/liteos/Project2/BearPi_LiteOS/osdepends/liteos/cmsis/2.0\cmsis_liteos2.c ****     uwBufferSize = (UINT32)(pstQueue->usQueueSize - sizeof(UINT32));
 3659              		.loc 1 1493 0 is_stmt 1
 3660 0016 2B89     		ldrh	r3, [r5, #8]
 3661 0018 043B     		subs	r3, r3, #4
 3662 001a 02AA     		add	r2, sp, #8
 3663 001c 42F8043D 		str	r3, [r2, #-4]!
1494:C:/Users/lenovo/Desktop/liteos/Project2/BearPi_LiteOS/osdepends/liteos/cmsis/2.0\cmsis_liteos2.c ****     uwRet = LOS_QueueReadCopy((UINT32)pstQueue->usQueueID, msg_ptr, &uwBufferSize, timeout);
 3664              		.loc 1 1494 0
 3665 0020 3346     		mov	r3, r6
 3666 0022 2146     		mov	r1, r4
 3667 0024 6889     		ldrh	r0, [r5, #10]
 3668 0026 FFF7FEFF 		bl	LOS_QueueReadCopy
 3669              	.LVL413:
1495:C:/Users/lenovo/Desktop/liteos/Project2/BearPi_LiteOS/osdepends/liteos/cmsis/2.0\cmsis_liteos2.c ****     if (uwRet == LOS_OK)
 3670              		.loc 1 1495 0
 3671 002a B8B1     		cbz	r0, .L443
1496:C:/Users/lenovo/Desktop/liteos/Project2/BearPi_LiteOS/osdepends/liteos/cmsis/2.0\cmsis_liteos2.c ****     {
1497:C:/Users/lenovo/Desktop/liteos/Project2/BearPi_LiteOS/osdepends/liteos/cmsis/2.0\cmsis_liteos2.c ****         return osOK;
1498:C:/Users/lenovo/Desktop/liteos/Project2/BearPi_LiteOS/osdepends/liteos/cmsis/2.0\cmsis_liteos2.c ****     }
1499:C:/Users/lenovo/Desktop/liteos/Project2/BearPi_LiteOS/osdepends/liteos/cmsis/2.0\cmsis_liteos2.c ****     else if (uwRet == LOS_ERRNO_QUEUE_INVALID || uwRet == LOS_ERRNO_QUEUE_NOT_CREATE)
 3672              		.loc 1 1499 0
 3673 002c 104A     		ldr	r2, .L452
 3674 002e 9042     		cmp	r0, r2
 3675 0030 17D0     		beq	.L444
 3676              		.loc 1 1499 0 is_stmt 0 discriminator 1
 3677 0032 043A     		subs	r2, r2, #4
 3678 0034 9042     		cmp	r0, r2
 3679 0036 17D0     		beq	.L445
1500:C:/Users/lenovo/Desktop/liteos/Project2/BearPi_LiteOS/osdepends/liteos/cmsis/2.0\cmsis_liteos2.c ****     {
1501:C:/Users/lenovo/Desktop/liteos/Project2/BearPi_LiteOS/osdepends/liteos/cmsis/2.0\cmsis_liteos2.c ****         return osErrorParameter;
1502:C:/Users/lenovo/Desktop/liteos/Project2/BearPi_LiteOS/osdepends/liteos/cmsis/2.0\cmsis_liteos2.c ****     }
1503:C:/Users/lenovo/Desktop/liteos/Project2/BearPi_LiteOS/osdepends/liteos/cmsis/2.0\cmsis_liteos2.c ****     else if (uwRet == LOS_ERRNO_QUEUE_TIMEOUT)
 3680              		.loc 1 1503 0 is_stmt 1
 3681 0038 033A     		subs	r2, r2, #3
 3682 003a 9042     		cmp	r0, r2
ARM GAS  c:\Users\lenovo\AppData\Local\Temp\ccnbuj3h.s 			page 93


 3683 003c 02D0     		beq	.L451
1504:C:/Users/lenovo/Desktop/liteos/Project2/BearPi_LiteOS/osdepends/liteos/cmsis/2.0\cmsis_liteos2.c ****     {
1505:C:/Users/lenovo/Desktop/liteos/Project2/BearPi_LiteOS/osdepends/liteos/cmsis/2.0\cmsis_liteos2.c ****         return osErrorTimeout;
1506:C:/Users/lenovo/Desktop/liteos/Project2/BearPi_LiteOS/osdepends/liteos/cmsis/2.0\cmsis_liteos2.c ****     }
1507:C:/Users/lenovo/Desktop/liteos/Project2/BearPi_LiteOS/osdepends/liteos/cmsis/2.0\cmsis_liteos2.c ****     else
1508:C:/Users/lenovo/Desktop/liteos/Project2/BearPi_LiteOS/osdepends/liteos/cmsis/2.0\cmsis_liteos2.c ****     {
1509:C:/Users/lenovo/Desktop/liteos/Project2/BearPi_LiteOS/osdepends/liteos/cmsis/2.0\cmsis_liteos2.c ****         return osErrorResource;
 3684              		.loc 1 1509 0
 3685 003e 6FF00200 		mvn	r0, #2
 3686              	.LVL414:
 3687 0042 0CE0     		b	.L437
 3688              	.LVL415:
 3689              	.L451:
1505:C:/Users/lenovo/Desktop/liteos/Project2/BearPi_LiteOS/osdepends/liteos/cmsis/2.0\cmsis_liteos2.c ****     }
 3690              		.loc 1 1505 0
 3691 0044 6FF00100 		mvn	r0, #1
 3692              	.LVL416:
 3693 0048 09E0     		b	.L437
 3694              	.LVL417:
 3695              	.L440:
 3696              	.LCFI86:
 3697              		.cfi_def_cfa_offset 0
 3698              		.cfi_restore 4
 3699              		.cfi_restore 5
 3700              		.cfi_restore 6
 3701              		.cfi_restore 14
1490:C:/Users/lenovo/Desktop/liteos/Project2/BearPi_LiteOS/osdepends/liteos/cmsis/2.0\cmsis_liteos2.c ****     }
 3702              		.loc 1 1490 0
 3703 004a 6FF00300 		mvn	r0, #3
 3704              	.LVL418:
1510:C:/Users/lenovo/Desktop/liteos/Project2/BearPi_LiteOS/osdepends/liteos/cmsis/2.0\cmsis_liteos2.c ****     }
1511:C:/Users/lenovo/Desktop/liteos/Project2/BearPi_LiteOS/osdepends/liteos/cmsis/2.0\cmsis_liteos2.c **** }
 3705              		.loc 1 1511 0
 3706 004e 7047     		bx	lr
 3707              	.LVL419:
 3708              	.L441:
 3709              	.LCFI87:
 3710              		.cfi_def_cfa_offset 24
 3711              		.cfi_offset 4, -16
 3712              		.cfi_offset 5, -12
 3713              		.cfi_offset 6, -8
 3714              		.cfi_offset 14, -4
1490:C:/Users/lenovo/Desktop/liteos/Project2/BearPi_LiteOS/osdepends/liteos/cmsis/2.0\cmsis_liteos2.c ****     }
 3715              		.loc 1 1490 0
 3716 0050 6FF00300 		mvn	r0, #3
 3717              	.LVL420:
 3718 0054 03E0     		b	.L437
 3719              	.LVL421:
 3720              	.L442:
 3721 0056 6FF00300 		mvn	r0, #3
 3722 005a 00E0     		b	.L437
 3723              	.LVL422:
 3724              	.L443:
1497:C:/Users/lenovo/Desktop/liteos/Project2/BearPi_LiteOS/osdepends/liteos/cmsis/2.0\cmsis_liteos2.c ****     }
 3725              		.loc 1 1497 0
 3726 005c 0020     		movs	r0, #0
 3727              	.LVL423:
ARM GAS  c:\Users\lenovo\AppData\Local\Temp\ccnbuj3h.s 			page 94


 3728              	.L437:
 3729              		.loc 1 1511 0
 3730 005e 02B0     		add	sp, sp, #8
 3731              	.LCFI88:
 3732              		.cfi_remember_state
 3733              		.cfi_def_cfa_offset 16
 3734              		@ sp needed
 3735 0060 70BD     		pop	{r4, r5, r6, pc}
 3736              	.LVL424:
 3737              	.L444:
 3738              	.LCFI89:
 3739              		.cfi_restore_state
1501:C:/Users/lenovo/Desktop/liteos/Project2/BearPi_LiteOS/osdepends/liteos/cmsis/2.0\cmsis_liteos2.c ****     }
 3740              		.loc 1 1501 0
 3741 0062 6FF00300 		mvn	r0, #3
 3742              	.LVL425:
 3743 0066 FAE7     		b	.L437
 3744              	.LVL426:
 3745              	.L445:
 3746 0068 6FF00300 		mvn	r0, #3
 3747              	.LVL427:
 3748 006c F7E7     		b	.L437
 3749              	.L453:
 3750 006e 00BF     		.align	2
 3751              	.L452:
 3752 0070 0E060002 		.word	33555982
 3753              		.cfi_endproc
 3754              	.LFE189:
 3756              		.section	.text.osMessageQueueGetCapacity,"ax",%progbits
 3757              		.align	1
 3758              		.global	osMessageQueueGetCapacity
 3759              		.syntax unified
 3760              		.thumb
 3761              		.thumb_func
 3762              		.fpu fpv4-sp-d16
 3764              	osMessageQueueGetCapacity:
 3765              	.LFB190:
1512:C:/Users/lenovo/Desktop/liteos/Project2/BearPi_LiteOS/osdepends/liteos/cmsis/2.0\cmsis_liteos2.c **** 
1513:C:/Users/lenovo/Desktop/liteos/Project2/BearPi_LiteOS/osdepends/liteos/cmsis/2.0\cmsis_liteos2.c **** uint32_t osMessageQueueGetCapacity(osMessageQueueId_t mq_id)
1514:C:/Users/lenovo/Desktop/liteos/Project2/BearPi_LiteOS/osdepends/liteos/cmsis/2.0\cmsis_liteos2.c **** {
 3766              		.loc 1 1514 0
 3767              		.cfi_startproc
 3768              		@ args = 0, pretend = 0, frame = 0
 3769              		@ frame_needed = 0, uses_anonymous_args = 0
 3770              		@ link register save eliminated.
 3771              	.LVL428:
1515:C:/Users/lenovo/Desktop/liteos/Project2/BearPi_LiteOS/osdepends/liteos/cmsis/2.0\cmsis_liteos2.c ****     uint32_t capacity;
1516:C:/Users/lenovo/Desktop/liteos/Project2/BearPi_LiteOS/osdepends/liteos/cmsis/2.0\cmsis_liteos2.c ****     QUEUE_CB_S *pstQueue = (QUEUE_CB_S *)mq_id;
1517:C:/Users/lenovo/Desktop/liteos/Project2/BearPi_LiteOS/osdepends/liteos/cmsis/2.0\cmsis_liteos2.c **** 
1518:C:/Users/lenovo/Desktop/liteos/Project2/BearPi_LiteOS/osdepends/liteos/cmsis/2.0\cmsis_liteos2.c ****     if (pstQueue == NULL)
 3772              		.loc 1 1518 0
 3773 0000 08B1     		cbz	r0, .L456
1519:C:/Users/lenovo/Desktop/liteos/Project2/BearPi_LiteOS/osdepends/liteos/cmsis/2.0\cmsis_liteos2.c ****     {
1520:C:/Users/lenovo/Desktop/liteos/Project2/BearPi_LiteOS/osdepends/liteos/cmsis/2.0\cmsis_liteos2.c ****         capacity = 0U;
1521:C:/Users/lenovo/Desktop/liteos/Project2/BearPi_LiteOS/osdepends/liteos/cmsis/2.0\cmsis_liteos2.c ****     }
1522:C:/Users/lenovo/Desktop/liteos/Project2/BearPi_LiteOS/osdepends/liteos/cmsis/2.0\cmsis_liteos2.c ****     else
1523:C:/Users/lenovo/Desktop/liteos/Project2/BearPi_LiteOS/osdepends/liteos/cmsis/2.0\cmsis_liteos2.c ****     {
ARM GAS  c:\Users\lenovo\AppData\Local\Temp\ccnbuj3h.s 			page 95


1524:C:/Users/lenovo/Desktop/liteos/Project2/BearPi_LiteOS/osdepends/liteos/cmsis/2.0\cmsis_liteos2.c ****         capacity = pstQueue->usQueueLen;
 3774              		.loc 1 1524 0
 3775 0002 C088     		ldrh	r0, [r0, #6]
 3776              	.LVL429:
 3777 0004 7047     		bx	lr
 3778              	.LVL430:
 3779              	.L456:
1520:C:/Users/lenovo/Desktop/liteos/Project2/BearPi_LiteOS/osdepends/liteos/cmsis/2.0\cmsis_liteos2.c ****     }
 3780              		.loc 1 1520 0
 3781 0006 0020     		movs	r0, #0
 3782              	.LVL431:
1525:C:/Users/lenovo/Desktop/liteos/Project2/BearPi_LiteOS/osdepends/liteos/cmsis/2.0\cmsis_liteos2.c ****     }
1526:C:/Users/lenovo/Desktop/liteos/Project2/BearPi_LiteOS/osdepends/liteos/cmsis/2.0\cmsis_liteos2.c **** 
1527:C:/Users/lenovo/Desktop/liteos/Project2/BearPi_LiteOS/osdepends/liteos/cmsis/2.0\cmsis_liteos2.c ****     return (capacity);
1528:C:/Users/lenovo/Desktop/liteos/Project2/BearPi_LiteOS/osdepends/liteos/cmsis/2.0\cmsis_liteos2.c **** }
 3783              		.loc 1 1528 0
 3784 0008 7047     		bx	lr
 3785              		.cfi_endproc
 3786              	.LFE190:
 3788              		.section	.text.osMessageQueueGetMsgSize,"ax",%progbits
 3789              		.align	1
 3790              		.global	osMessageQueueGetMsgSize
 3791              		.syntax unified
 3792              		.thumb
 3793              		.thumb_func
 3794              		.fpu fpv4-sp-d16
 3796              	osMessageQueueGetMsgSize:
 3797              	.LFB191:
1529:C:/Users/lenovo/Desktop/liteos/Project2/BearPi_LiteOS/osdepends/liteos/cmsis/2.0\cmsis_liteos2.c **** 
1530:C:/Users/lenovo/Desktop/liteos/Project2/BearPi_LiteOS/osdepends/liteos/cmsis/2.0\cmsis_liteos2.c **** uint32_t osMessageQueueGetMsgSize(osMessageQueueId_t mq_id)
1531:C:/Users/lenovo/Desktop/liteos/Project2/BearPi_LiteOS/osdepends/liteos/cmsis/2.0\cmsis_liteos2.c **** {
 3798              		.loc 1 1531 0
 3799              		.cfi_startproc
 3800              		@ args = 0, pretend = 0, frame = 0
 3801              		@ frame_needed = 0, uses_anonymous_args = 0
 3802              		@ link register save eliminated.
 3803              	.LVL432:
1532:C:/Users/lenovo/Desktop/liteos/Project2/BearPi_LiteOS/osdepends/liteos/cmsis/2.0\cmsis_liteos2.c ****     uint32_t size;
1533:C:/Users/lenovo/Desktop/liteos/Project2/BearPi_LiteOS/osdepends/liteos/cmsis/2.0\cmsis_liteos2.c ****     QUEUE_CB_S *pstQueue = (QUEUE_CB_S *)mq_id;
1534:C:/Users/lenovo/Desktop/liteos/Project2/BearPi_LiteOS/osdepends/liteos/cmsis/2.0\cmsis_liteos2.c **** 
1535:C:/Users/lenovo/Desktop/liteos/Project2/BearPi_LiteOS/osdepends/liteos/cmsis/2.0\cmsis_liteos2.c ****     if (pstQueue == NULL)
 3804              		.loc 1 1535 0
 3805 0000 10B1     		cbz	r0, .L459
1536:C:/Users/lenovo/Desktop/liteos/Project2/BearPi_LiteOS/osdepends/liteos/cmsis/2.0\cmsis_liteos2.c ****     {
1537:C:/Users/lenovo/Desktop/liteos/Project2/BearPi_LiteOS/osdepends/liteos/cmsis/2.0\cmsis_liteos2.c ****         size = 0U;
1538:C:/Users/lenovo/Desktop/liteos/Project2/BearPi_LiteOS/osdepends/liteos/cmsis/2.0\cmsis_liteos2.c ****     }
1539:C:/Users/lenovo/Desktop/liteos/Project2/BearPi_LiteOS/osdepends/liteos/cmsis/2.0\cmsis_liteos2.c ****     else
1540:C:/Users/lenovo/Desktop/liteos/Project2/BearPi_LiteOS/osdepends/liteos/cmsis/2.0\cmsis_liteos2.c ****     {
1541:C:/Users/lenovo/Desktop/liteos/Project2/BearPi_LiteOS/osdepends/liteos/cmsis/2.0\cmsis_liteos2.c ****         size = pstQueue->usQueueSize - sizeof(UINT32);
 3806              		.loc 1 1541 0
 3807 0002 0089     		ldrh	r0, [r0, #8]
 3808              	.LVL433:
 3809 0004 0438     		subs	r0, r0, #4
 3810              	.LVL434:
 3811 0006 7047     		bx	lr
 3812              	.LVL435:
 3813              	.L459:
ARM GAS  c:\Users\lenovo\AppData\Local\Temp\ccnbuj3h.s 			page 96


1537:C:/Users/lenovo/Desktop/liteos/Project2/BearPi_LiteOS/osdepends/liteos/cmsis/2.0\cmsis_liteos2.c ****     }
 3814              		.loc 1 1537 0
 3815 0008 0020     		movs	r0, #0
 3816              	.LVL436:
1542:C:/Users/lenovo/Desktop/liteos/Project2/BearPi_LiteOS/osdepends/liteos/cmsis/2.0\cmsis_liteos2.c ****     }
1543:C:/Users/lenovo/Desktop/liteos/Project2/BearPi_LiteOS/osdepends/liteos/cmsis/2.0\cmsis_liteos2.c **** 
1544:C:/Users/lenovo/Desktop/liteos/Project2/BearPi_LiteOS/osdepends/liteos/cmsis/2.0\cmsis_liteos2.c ****     return (size);
1545:C:/Users/lenovo/Desktop/liteos/Project2/BearPi_LiteOS/osdepends/liteos/cmsis/2.0\cmsis_liteos2.c **** }
 3817              		.loc 1 1545 0
 3818 000a 7047     		bx	lr
 3819              		.cfi_endproc
 3820              	.LFE191:
 3822              		.section	.text.osMessageQueueGetCount,"ax",%progbits
 3823              		.align	1
 3824              		.global	osMessageQueueGetCount
 3825              		.syntax unified
 3826              		.thumb
 3827              		.thumb_func
 3828              		.fpu fpv4-sp-d16
 3830              	osMessageQueueGetCount:
 3831              	.LFB192:
1546:C:/Users/lenovo/Desktop/liteos/Project2/BearPi_LiteOS/osdepends/liteos/cmsis/2.0\cmsis_liteos2.c **** 
1547:C:/Users/lenovo/Desktop/liteos/Project2/BearPi_LiteOS/osdepends/liteos/cmsis/2.0\cmsis_liteos2.c **** 
1548:C:/Users/lenovo/Desktop/liteos/Project2/BearPi_LiteOS/osdepends/liteos/cmsis/2.0\cmsis_liteos2.c **** uint32_t osMessageQueueGetCount (osMessageQueueId_t mq_id)
1549:C:/Users/lenovo/Desktop/liteos/Project2/BearPi_LiteOS/osdepends/liteos/cmsis/2.0\cmsis_liteos2.c **** {
 3832              		.loc 1 1549 0
 3833              		.cfi_startproc
 3834              		@ args = 0, pretend = 0, frame = 0
 3835              		@ frame_needed = 0, uses_anonymous_args = 0
 3836              	.LVL437:
 3837 0000 10B5     		push	{r4, lr}
 3838              	.LCFI90:
 3839              		.cfi_def_cfa_offset 8
 3840              		.cfi_offset 4, -8
 3841              		.cfi_offset 14, -4
 3842              	.LVL438:
1550:C:/Users/lenovo/Desktop/liteos/Project2/BearPi_LiteOS/osdepends/liteos/cmsis/2.0\cmsis_liteos2.c ****     uint32_t count;
1551:C:/Users/lenovo/Desktop/liteos/Project2/BearPi_LiteOS/osdepends/liteos/cmsis/2.0\cmsis_liteos2.c ****     UINTPTR uwIntSave;
1552:C:/Users/lenovo/Desktop/liteos/Project2/BearPi_LiteOS/osdepends/liteos/cmsis/2.0\cmsis_liteos2.c ****     QUEUE_CB_S *pstQueue = (QUEUE_CB_S *)mq_id;
1553:C:/Users/lenovo/Desktop/liteos/Project2/BearPi_LiteOS/osdepends/liteos/cmsis/2.0\cmsis_liteos2.c **** 
1554:C:/Users/lenovo/Desktop/liteos/Project2/BearPi_LiteOS/osdepends/liteos/cmsis/2.0\cmsis_liteos2.c ****     if (pstQueue == NULL)
 3843              		.loc 1 1554 0
 3844 0002 38B1     		cbz	r0, .L462
 3845 0004 0446     		mov	r4, r0
1555:C:/Users/lenovo/Desktop/liteos/Project2/BearPi_LiteOS/osdepends/liteos/cmsis/2.0\cmsis_liteos2.c ****     {
1556:C:/Users/lenovo/Desktop/liteos/Project2/BearPi_LiteOS/osdepends/liteos/cmsis/2.0\cmsis_liteos2.c ****         count = 0U;
1557:C:/Users/lenovo/Desktop/liteos/Project2/BearPi_LiteOS/osdepends/liteos/cmsis/2.0\cmsis_liteos2.c ****     }
1558:C:/Users/lenovo/Desktop/liteos/Project2/BearPi_LiteOS/osdepends/liteos/cmsis/2.0\cmsis_liteos2.c ****     else
1559:C:/Users/lenovo/Desktop/liteos/Project2/BearPi_LiteOS/osdepends/liteos/cmsis/2.0\cmsis_liteos2.c ****     {
1560:C:/Users/lenovo/Desktop/liteos/Project2/BearPi_LiteOS/osdepends/liteos/cmsis/2.0\cmsis_liteos2.c ****         uwIntSave = LOS_IntLock();
 3846              		.loc 1 1560 0
 3847 0006 FFF7FEFF 		bl	LOS_IntLock
 3848              	.LVL439:
1561:C:/Users/lenovo/Desktop/liteos/Project2/BearPi_LiteOS/osdepends/liteos/cmsis/2.0\cmsis_liteos2.c ****         count = (uint32_t)(pstQueue->usReadWriteableCnt[OS_QUEUE_READ]);
 3849              		.loc 1 1561 0
 3850 000a 248A     		ldrh	r4, [r4, #16]
 3851              	.LVL440:
ARM GAS  c:\Users\lenovo\AppData\Local\Temp\ccnbuj3h.s 			page 97


1562:C:/Users/lenovo/Desktop/liteos/Project2/BearPi_LiteOS/osdepends/liteos/cmsis/2.0\cmsis_liteos2.c ****         LOS_IntRestore(uwIntSave);
 3852              		.loc 1 1562 0
 3853 000c FFF7FEFF 		bl	LOS_IntRestore
 3854              	.LVL441:
 3855              	.L460:
1563:C:/Users/lenovo/Desktop/liteos/Project2/BearPi_LiteOS/osdepends/liteos/cmsis/2.0\cmsis_liteos2.c ****     }
1564:C:/Users/lenovo/Desktop/liteos/Project2/BearPi_LiteOS/osdepends/liteos/cmsis/2.0\cmsis_liteos2.c ****     return count;
1565:C:/Users/lenovo/Desktop/liteos/Project2/BearPi_LiteOS/osdepends/liteos/cmsis/2.0\cmsis_liteos2.c **** }
 3856              		.loc 1 1565 0
 3857 0010 2046     		mov	r0, r4
 3858 0012 10BD     		pop	{r4, pc}
 3859              	.LVL442:
 3860              	.L462:
1556:C:/Users/lenovo/Desktop/liteos/Project2/BearPi_LiteOS/osdepends/liteos/cmsis/2.0\cmsis_liteos2.c ****     }
 3861              		.loc 1 1556 0
 3862 0014 0024     		movs	r4, #0
 3863              	.LVL443:
1564:C:/Users/lenovo/Desktop/liteos/Project2/BearPi_LiteOS/osdepends/liteos/cmsis/2.0\cmsis_liteos2.c **** }
 3864              		.loc 1 1564 0
 3865 0016 FBE7     		b	.L460
 3866              		.cfi_endproc
 3867              	.LFE192:
 3869              		.section	.text.osMessageQueueGetSpace,"ax",%progbits
 3870              		.align	1
 3871              		.global	osMessageQueueGetSpace
 3872              		.syntax unified
 3873              		.thumb
 3874              		.thumb_func
 3875              		.fpu fpv4-sp-d16
 3877              	osMessageQueueGetSpace:
 3878              	.LFB193:
1566:C:/Users/lenovo/Desktop/liteos/Project2/BearPi_LiteOS/osdepends/liteos/cmsis/2.0\cmsis_liteos2.c **** 
1567:C:/Users/lenovo/Desktop/liteos/Project2/BearPi_LiteOS/osdepends/liteos/cmsis/2.0\cmsis_liteos2.c **** 
1568:C:/Users/lenovo/Desktop/liteos/Project2/BearPi_LiteOS/osdepends/liteos/cmsis/2.0\cmsis_liteos2.c **** uint32_t osMessageQueueGetSpace (osMessageQueueId_t mq_id)
1569:C:/Users/lenovo/Desktop/liteos/Project2/BearPi_LiteOS/osdepends/liteos/cmsis/2.0\cmsis_liteos2.c **** {
 3879              		.loc 1 1569 0
 3880              		.cfi_startproc
 3881              		@ args = 0, pretend = 0, frame = 0
 3882              		@ frame_needed = 0, uses_anonymous_args = 0
 3883              	.LVL444:
 3884 0000 10B5     		push	{r4, lr}
 3885              	.LCFI91:
 3886              		.cfi_def_cfa_offset 8
 3887              		.cfi_offset 4, -8
 3888              		.cfi_offset 14, -4
 3889              	.LVL445:
1570:C:/Users/lenovo/Desktop/liteos/Project2/BearPi_LiteOS/osdepends/liteos/cmsis/2.0\cmsis_liteos2.c ****     uint32_t space;
1571:C:/Users/lenovo/Desktop/liteos/Project2/BearPi_LiteOS/osdepends/liteos/cmsis/2.0\cmsis_liteos2.c ****     UINTPTR uwIntSave;
1572:C:/Users/lenovo/Desktop/liteos/Project2/BearPi_LiteOS/osdepends/liteos/cmsis/2.0\cmsis_liteos2.c ****     QUEUE_CB_S *pstQueue = (QUEUE_CB_S *)mq_id;
1573:C:/Users/lenovo/Desktop/liteos/Project2/BearPi_LiteOS/osdepends/liteos/cmsis/2.0\cmsis_liteos2.c **** 
1574:C:/Users/lenovo/Desktop/liteos/Project2/BearPi_LiteOS/osdepends/liteos/cmsis/2.0\cmsis_liteos2.c ****     if (pstQueue == NULL)
 3890              		.loc 1 1574 0
 3891 0002 38B1     		cbz	r0, .L466
 3892 0004 0446     		mov	r4, r0
1575:C:/Users/lenovo/Desktop/liteos/Project2/BearPi_LiteOS/osdepends/liteos/cmsis/2.0\cmsis_liteos2.c ****     {
1576:C:/Users/lenovo/Desktop/liteos/Project2/BearPi_LiteOS/osdepends/liteos/cmsis/2.0\cmsis_liteos2.c ****         space = 0U;
1577:C:/Users/lenovo/Desktop/liteos/Project2/BearPi_LiteOS/osdepends/liteos/cmsis/2.0\cmsis_liteos2.c ****     }
ARM GAS  c:\Users\lenovo\AppData\Local\Temp\ccnbuj3h.s 			page 98


1578:C:/Users/lenovo/Desktop/liteos/Project2/BearPi_LiteOS/osdepends/liteos/cmsis/2.0\cmsis_liteos2.c ****     else
1579:C:/Users/lenovo/Desktop/liteos/Project2/BearPi_LiteOS/osdepends/liteos/cmsis/2.0\cmsis_liteos2.c ****     {
1580:C:/Users/lenovo/Desktop/liteos/Project2/BearPi_LiteOS/osdepends/liteos/cmsis/2.0\cmsis_liteos2.c ****         uwIntSave = LOS_IntLock();
 3893              		.loc 1 1580 0
 3894 0006 FFF7FEFF 		bl	LOS_IntLock
 3895              	.LVL446:
1581:C:/Users/lenovo/Desktop/liteos/Project2/BearPi_LiteOS/osdepends/liteos/cmsis/2.0\cmsis_liteos2.c ****         space = (uint32_t)pstQueue->usReadWriteableCnt[OS_QUEUE_WRITE];
 3896              		.loc 1 1581 0
 3897 000a 648A     		ldrh	r4, [r4, #18]
 3898              	.LVL447:
1582:C:/Users/lenovo/Desktop/liteos/Project2/BearPi_LiteOS/osdepends/liteos/cmsis/2.0\cmsis_liteos2.c ****         LOS_IntRestore(uwIntSave);
 3899              		.loc 1 1582 0
 3900 000c FFF7FEFF 		bl	LOS_IntRestore
 3901              	.LVL448:
 3902              	.L464:
1583:C:/Users/lenovo/Desktop/liteos/Project2/BearPi_LiteOS/osdepends/liteos/cmsis/2.0\cmsis_liteos2.c ****     }
1584:C:/Users/lenovo/Desktop/liteos/Project2/BearPi_LiteOS/osdepends/liteos/cmsis/2.0\cmsis_liteos2.c ****     return space;
1585:C:/Users/lenovo/Desktop/liteos/Project2/BearPi_LiteOS/osdepends/liteos/cmsis/2.0\cmsis_liteos2.c **** }
 3903              		.loc 1 1585 0
 3904 0010 2046     		mov	r0, r4
 3905 0012 10BD     		pop	{r4, pc}
 3906              	.LVL449:
 3907              	.L466:
1576:C:/Users/lenovo/Desktop/liteos/Project2/BearPi_LiteOS/osdepends/liteos/cmsis/2.0\cmsis_liteos2.c ****     }
 3908              		.loc 1 1576 0
 3909 0014 0024     		movs	r4, #0
 3910              	.LVL450:
1584:C:/Users/lenovo/Desktop/liteos/Project2/BearPi_LiteOS/osdepends/liteos/cmsis/2.0\cmsis_liteos2.c **** }
 3911              		.loc 1 1584 0
 3912 0016 FBE7     		b	.L464
 3913              		.cfi_endproc
 3914              	.LFE193:
 3916              		.section	.text.osMessageQueueDelete,"ax",%progbits
 3917              		.align	1
 3918              		.global	osMessageQueueDelete
 3919              		.syntax unified
 3920              		.thumb
 3921              		.thumb_func
 3922              		.fpu fpv4-sp-d16
 3924              	osMessageQueueDelete:
 3925              	.LFB194:
1586:C:/Users/lenovo/Desktop/liteos/Project2/BearPi_LiteOS/osdepends/liteos/cmsis/2.0\cmsis_liteos2.c **** 
1587:C:/Users/lenovo/Desktop/liteos/Project2/BearPi_LiteOS/osdepends/liteos/cmsis/2.0\cmsis_liteos2.c **** 
1588:C:/Users/lenovo/Desktop/liteos/Project2/BearPi_LiteOS/osdepends/liteos/cmsis/2.0\cmsis_liteos2.c **** osStatus_t osMessageQueueDelete (osMessageQueueId_t mq_id)
1589:C:/Users/lenovo/Desktop/liteos/Project2/BearPi_LiteOS/osdepends/liteos/cmsis/2.0\cmsis_liteos2.c **** {
 3926              		.loc 1 1589 0
 3927              		.cfi_startproc
 3928              		@ args = 0, pretend = 0, frame = 0
 3929              		@ frame_needed = 0, uses_anonymous_args = 0
 3930              	.LVL451:
1590:C:/Users/lenovo/Desktop/liteos/Project2/BearPi_LiteOS/osdepends/liteos/cmsis/2.0\cmsis_liteos2.c ****     QUEUE_CB_S *pstQueue = (QUEUE_CB_S *)mq_id;
1591:C:/Users/lenovo/Desktop/liteos/Project2/BearPi_LiteOS/osdepends/liteos/cmsis/2.0\cmsis_liteos2.c ****     UINT32 uwRet;
1592:C:/Users/lenovo/Desktop/liteos/Project2/BearPi_LiteOS/osdepends/liteos/cmsis/2.0\cmsis_liteos2.c **** 
1593:C:/Users/lenovo/Desktop/liteos/Project2/BearPi_LiteOS/osdepends/liteos/cmsis/2.0\cmsis_liteos2.c ****     if (pstQueue == NULL)
 3931              		.loc 1 1593 0
 3932 0000 A0B1     		cbz	r0, .L470
1589:C:/Users/lenovo/Desktop/liteos/Project2/BearPi_LiteOS/osdepends/liteos/cmsis/2.0\cmsis_liteos2.c ****     QUEUE_CB_S *pstQueue = (QUEUE_CB_S *)mq_id;
ARM GAS  c:\Users\lenovo\AppData\Local\Temp\ccnbuj3h.s 			page 99


 3933              		.loc 1 1589 0
 3934 0002 10B5     		push	{r4, lr}
 3935              	.LCFI92:
 3936              		.cfi_def_cfa_offset 8
 3937              		.cfi_offset 4, -8
 3938              		.cfi_offset 14, -4
 3939 0004 0446     		mov	r4, r0
1594:C:/Users/lenovo/Desktop/liteos/Project2/BearPi_LiteOS/osdepends/liteos/cmsis/2.0\cmsis_liteos2.c ****     {
1595:C:/Users/lenovo/Desktop/liteos/Project2/BearPi_LiteOS/osdepends/liteos/cmsis/2.0\cmsis_liteos2.c ****         return osErrorParameter;
1596:C:/Users/lenovo/Desktop/liteos/Project2/BearPi_LiteOS/osdepends/liteos/cmsis/2.0\cmsis_liteos2.c ****     }
1597:C:/Users/lenovo/Desktop/liteos/Project2/BearPi_LiteOS/osdepends/liteos/cmsis/2.0\cmsis_liteos2.c **** 
1598:C:/Users/lenovo/Desktop/liteos/Project2/BearPi_LiteOS/osdepends/liteos/cmsis/2.0\cmsis_liteos2.c ****     if (OS_INT_ACTIVE)
 3940              		.loc 1 1598 0
 3941 0006 FFF7FEFF 		bl	osIntNumGet
 3942              	.LVL452:
 3943 000a 90B9     		cbnz	r0, .L471
1599:C:/Users/lenovo/Desktop/liteos/Project2/BearPi_LiteOS/osdepends/liteos/cmsis/2.0\cmsis_liteos2.c ****     {
1600:C:/Users/lenovo/Desktop/liteos/Project2/BearPi_LiteOS/osdepends/liteos/cmsis/2.0\cmsis_liteos2.c ****         return osErrorISR;
1601:C:/Users/lenovo/Desktop/liteos/Project2/BearPi_LiteOS/osdepends/liteos/cmsis/2.0\cmsis_liteos2.c ****     }
1602:C:/Users/lenovo/Desktop/liteos/Project2/BearPi_LiteOS/osdepends/liteos/cmsis/2.0\cmsis_liteos2.c **** 
1603:C:/Users/lenovo/Desktop/liteos/Project2/BearPi_LiteOS/osdepends/liteos/cmsis/2.0\cmsis_liteos2.c ****     uwRet = LOS_QueueDelete((UINT32)pstQueue->usQueueID);
 3944              		.loc 1 1603 0
 3945 000c 6089     		ldrh	r0, [r4, #10]
 3946 000e FFF7FEFF 		bl	LOS_QueueDelete
 3947              	.LVL453:
1604:C:/Users/lenovo/Desktop/liteos/Project2/BearPi_LiteOS/osdepends/liteos/cmsis/2.0\cmsis_liteos2.c ****     if (uwRet == LOS_OK)
 3948              		.loc 1 1604 0
 3949 0012 88B1     		cbz	r0, .L472
1605:C:/Users/lenovo/Desktop/liteos/Project2/BearPi_LiteOS/osdepends/liteos/cmsis/2.0\cmsis_liteos2.c ****     {
1606:C:/Users/lenovo/Desktop/liteos/Project2/BearPi_LiteOS/osdepends/liteos/cmsis/2.0\cmsis_liteos2.c ****         return osOK;
1607:C:/Users/lenovo/Desktop/liteos/Project2/BearPi_LiteOS/osdepends/liteos/cmsis/2.0\cmsis_liteos2.c ****     }
1608:C:/Users/lenovo/Desktop/liteos/Project2/BearPi_LiteOS/osdepends/liteos/cmsis/2.0\cmsis_liteos2.c ****     else if(uwRet == LOS_ERRNO_QUEUE_NOT_FOUND || uwRet == LOS_ERRNO_QUEUE_NOT_CREATE)
 3950              		.loc 1 1608 0
 3951 0014 0B4A     		ldr	r2, .L480
 3952 0016 9042     		cmp	r0, r2
 3953 0018 10D0     		beq	.L473
 3954              		.loc 1 1608 0 is_stmt 0 discriminator 1
 3955 001a 0532     		adds	r2, r2, #5
 3956 001c 9042     		cmp	r0, r2
 3957 001e 02D0     		beq	.L479
1609:C:/Users/lenovo/Desktop/liteos/Project2/BearPi_LiteOS/osdepends/liteos/cmsis/2.0\cmsis_liteos2.c ****     {
1610:C:/Users/lenovo/Desktop/liteos/Project2/BearPi_LiteOS/osdepends/liteos/cmsis/2.0\cmsis_liteos2.c ****         return osErrorParameter;
1611:C:/Users/lenovo/Desktop/liteos/Project2/BearPi_LiteOS/osdepends/liteos/cmsis/2.0\cmsis_liteos2.c ****     }
1612:C:/Users/lenovo/Desktop/liteos/Project2/BearPi_LiteOS/osdepends/liteos/cmsis/2.0\cmsis_liteos2.c ****     else
1613:C:/Users/lenovo/Desktop/liteos/Project2/BearPi_LiteOS/osdepends/liteos/cmsis/2.0\cmsis_liteos2.c ****     {
1614:C:/Users/lenovo/Desktop/liteos/Project2/BearPi_LiteOS/osdepends/liteos/cmsis/2.0\cmsis_liteos2.c ****         return osErrorResource;
 3958              		.loc 1 1614 0 is_stmt 1
 3959 0020 6FF00200 		mvn	r0, #2
 3960              	.LVL454:
 3961 0024 09E0     		b	.L468
 3962              	.LVL455:
 3963              	.L479:
1610:C:/Users/lenovo/Desktop/liteos/Project2/BearPi_LiteOS/osdepends/liteos/cmsis/2.0\cmsis_liteos2.c ****     }
 3964              		.loc 1 1610 0
 3965 0026 6FF00300 		mvn	r0, #3
 3966              	.LVL456:
 3967 002a 06E0     		b	.L468
ARM GAS  c:\Users\lenovo\AppData\Local\Temp\ccnbuj3h.s 			page 100


 3968              	.LVL457:
 3969              	.L470:
 3970              	.LCFI93:
 3971              		.cfi_def_cfa_offset 0
 3972              		.cfi_restore 4
 3973              		.cfi_restore 14
1595:C:/Users/lenovo/Desktop/liteos/Project2/BearPi_LiteOS/osdepends/liteos/cmsis/2.0\cmsis_liteos2.c ****     }
 3974              		.loc 1 1595 0
 3975 002c 6FF00300 		mvn	r0, #3
 3976              	.LVL458:
1615:C:/Users/lenovo/Desktop/liteos/Project2/BearPi_LiteOS/osdepends/liteos/cmsis/2.0\cmsis_liteos2.c ****     }
1616:C:/Users/lenovo/Desktop/liteos/Project2/BearPi_LiteOS/osdepends/liteos/cmsis/2.0\cmsis_liteos2.c **** }
 3977              		.loc 1 1616 0
 3978 0030 7047     		bx	lr
 3979              	.LVL459:
 3980              	.L471:
 3981              	.LCFI94:
 3982              		.cfi_def_cfa_offset 8
 3983              		.cfi_offset 4, -8
 3984              		.cfi_offset 14, -4
1600:C:/Users/lenovo/Desktop/liteos/Project2/BearPi_LiteOS/osdepends/liteos/cmsis/2.0\cmsis_liteos2.c ****     }
 3985              		.loc 1 1600 0
 3986 0032 6FF00500 		mvn	r0, #5
 3987 0036 00E0     		b	.L468
 3988              	.LVL460:
 3989              	.L472:
1606:C:/Users/lenovo/Desktop/liteos/Project2/BearPi_LiteOS/osdepends/liteos/cmsis/2.0\cmsis_liteos2.c ****     }
 3990              		.loc 1 1606 0
 3991 0038 0020     		movs	r0, #0
 3992              	.LVL461:
 3993              	.L468:
 3994              		.loc 1 1616 0
 3995 003a 10BD     		pop	{r4, pc}
 3996              	.LVL462:
 3997              	.L473:
1610:C:/Users/lenovo/Desktop/liteos/Project2/BearPi_LiteOS/osdepends/liteos/cmsis/2.0\cmsis_liteos2.c ****     }
 3998              		.loc 1 1610 0
 3999 003c 6FF00300 		mvn	r0, #3
 4000              	.LVL463:
 4001 0040 FBE7     		b	.L468
 4002              	.L481:
 4003 0042 00BF     		.align	2
 4004              	.L480:
 4005 0044 05060002 		.word	33555973
 4006              		.cfi_endproc
 4007              	.LFE194:
 4009              		.global	g_stLosVersion
 4010              		.section	.bss.KernelState,"aw",%nobits
 4011              		.align	2
 4012              		.set	.LANCHOR0,. + 0
 4015              	KernelState:
 4016 0000 00000000 		.space	4
 4017              		.section	.rodata.g_stLosVersion,"a",%progbits
 4018              		.align	2
 4021              	g_stLosVersion:
 4022 0000 01000000 		.word	1
 4023 0004 01000000 		.word	1
ARM GAS  c:\Users\lenovo\AppData\Local\Temp\ccnbuj3h.s 			page 101


 4024              		.section	.rodata.osKernelGetInfo.str1.4,"aMS",%progbits,1
 4025              		.align	2
 4026              	.LC0:
 4027 0000 48554157 		.ascii	"HUAWEI-LiteOS\000"
 4027      45492D4C 
 4027      6974654F 
 4027      5300
 4028              		.text
 4029              	.Letext0:
 4030              		.file 2 "c:\\program files (x86)\\liteos studio\\resources\\arm-none-eabi\\arm-none-eabi\\include\
 4031              		.file 3 "c:\\program files (x86)\\liteos studio\\resources\\arm-none-eabi\\arm-none-eabi\\include\
 4032              		.file 4 "c:\\program files (x86)\\liteos studio\\resources\\arm-none-eabi\\arm-none-eabi\\include\
 4033              		.file 5 "c:\\program files (x86)\\liteos studio\\resources\\arm-none-eabi\\lib\\gcc\\arm-none-eabi
 4034              		.file 6 "c:\\program files (x86)\\liteos studio\\resources\\arm-none-eabi\\arm-none-eabi\\include\
 4035              		.file 7 "C:/Users/lenovo/Desktop/liteos/Project2/BearPi_LiteOS/kernel/include/los_typedef.h"
 4036              		.file 8 "c:\\program files (x86)\\liteos studio\\resources\\arm-none-eabi\\arm-none-eabi\\include\
 4037              		.file 9 "C:/Users/lenovo/Desktop/liteos/Project2/BearPi_LiteOS/arch/arm/common/cmsis/core_cm4.h"
 4038              		.file 10 "C:/Users/lenovo/Desktop/liteos/Project2/BearPi_LiteOS/targets/STM32L431_BearPi/Inc/syste
 4039              		.file 11 "C:/Users/lenovo/Desktop/liteos/Project2/BearPi_LiteOS/kernel/include/los_list.h"
 4040              		.file 12 "C:/Users/lenovo/Desktop/liteos/Project2/BearPi_LiteOS/kernel/include/los_err.h"
 4041              		.file 13 "C:/Users/lenovo/Desktop/liteos/Project2/BearPi_LiteOS/arch/arm/arm-m/include/los_hwi.h"
 4042              		.file 14 "C:/Users/lenovo/Desktop/liteos/Project2/BearPi_LiteOS/kernel/include/los_tick.h"
 4043              		.file 15 "C:/Users/lenovo/Desktop/liteos/Project2/BearPi_LiteOS/kernel/include/los_event.h"
 4044              		.file 16 "C:/Users/lenovo/Desktop/liteos/Project2/BearPi_LiteOS/kernel/include/los_task.h"
 4045              		.file 17 "C:/Users/lenovo/Desktop/liteos/Project2/BearPi_LiteOS/kernel/base/include/los_task.ph"
 4046              		.file 18 "C:/Users/lenovo/Desktop/liteos/Project2/BearPi_LiteOS/targets/STM32L431_BearPi/Inc/main.
 4047              		.file 19 "C:/Users/lenovo/Desktop/liteos/Project2/BearPi_LiteOS/targets/STM32L431_BearPi/OS_CONFIG
 4048              		.file 20 "C:/Users/lenovo/Desktop/liteos/Project2/BearPi_LiteOS/kernel/include/los_config.h"
 4049              		.file 21 "C:/Users/lenovo/Desktop/liteos/Project2/BearPi_LiteOS/osdepends/liteos/cmsis/2.0/cmsis_o
 4050              		.file 22 "C:/Users/lenovo/Desktop/liteos/Project2/BearPi_LiteOS/kernel/base/include/los_mux.ph"
 4051              		.file 23 "C:/Users/lenovo/Desktop/liteos/Project2/BearPi_LiteOS/kernel/base/include/los_queue.ph"
 4052              		.file 24 "C:/Users/lenovo/Desktop/liteos/Project2/BearPi_LiteOS/kernel/base/include/los_sem.ph"
 4053              		.file 25 "C:/Users/lenovo/Desktop/liteos/Project2/BearPi_LiteOS/kernel/include/los_memory.h"
 4054              		.file 26 "C:/Users/lenovo/Desktop/liteos/Project2/BearPi_LiteOS/kernel/include/los_swtmr.h"
 4055              		.file 27 "C:/Users/lenovo/Desktop/liteos/Project2/BearPi_LiteOS/kernel/base/include/los_swtmr.ph"
 4056              		.file 28 "C:/Users/lenovo/Desktop/liteos/Project2/BearPi_LiteOS/kernel/base/include/los_tick.ph"
 4057              		.file 29 "C:/Users/lenovo/Desktop/liteos/Project2/BearPi_LiteOS/kernel/include/los_queue.h"
 4058              		.file 30 "C:/Users/lenovo/Desktop/liteos/Project2/BearPi_LiteOS/kernel/include/los_sem.h"
 4059              		.file 31 "C:/Users/lenovo/Desktop/liteos/Project2/BearPi_LiteOS/kernel/include/los_mux.h"
 4060              		.file 32 "C:/Users/lenovo/Desktop/liteos/Project2/BearPi_LiteOS/kernel/include/los_sys.h"
 4061              		.file 33 "C:/Users/lenovo/Desktop/liteos/Project2/BearPi_LiteOS/kernel/include/los_base.h"
 4062              		.file 34 "<built-in>"
ARM GAS  c:\Users\lenovo\AppData\Local\Temp\ccnbuj3h.s 			page 102


DEFINED SYMBOLS
                            *ABS*:00000000 cmsis_liteos.c
c:\Users\lenovo\AppData\Local\Temp\ccnbuj3h.s:18     .text.osKernelInitialize:00000000 $t
c:\Users\lenovo\AppData\Local\Temp\ccnbuj3h.s:25     .text.osKernelInitialize:00000000 osKernelInitialize
c:\Users\lenovo\AppData\Local\Temp\ccnbuj3h.s:71     .text.osKernelInitialize:00000030 $d
c:\Users\lenovo\AppData\Local\Temp\ccnbuj3h.s:76     .text.osKernelGetInfo:00000000 $t
c:\Users\lenovo\AppData\Local\Temp\ccnbuj3h.s:83     .text.osKernelGetInfo:00000000 osKernelGetInfo
c:\Users\lenovo\AppData\Local\Temp\ccnbuj3h.s:149    .text.osKernelGetInfo:0000003c $d
c:\Users\lenovo\AppData\Local\Temp\ccnbuj3h.s:154    .text.osKernelGetState:00000000 $t
c:\Users\lenovo\AppData\Local\Temp\ccnbuj3h.s:161    .text.osKernelGetState:00000000 osKernelGetState
c:\Users\lenovo\AppData\Local\Temp\ccnbuj3h.s:209    .text.osKernelGetState:00000030 $d
c:\Users\lenovo\AppData\Local\Temp\ccnbuj3h.s:216    .text.osKernelStart:00000000 $t
c:\Users\lenovo\AppData\Local\Temp\ccnbuj3h.s:223    .text.osKernelStart:00000000 osKernelStart
c:\Users\lenovo\AppData\Local\Temp\ccnbuj3h.s:269    .text.osKernelStart:00000030 $d
c:\Users\lenovo\AppData\Local\Temp\ccnbuj3h.s:274    .text.osKernelLock:00000000 $t
c:\Users\lenovo\AppData\Local\Temp\ccnbuj3h.s:281    .text.osKernelLock:00000000 osKernelLock
c:\Users\lenovo\AppData\Local\Temp\ccnbuj3h.s:328    .text.osKernelLock:0000002c $d
c:\Users\lenovo\AppData\Local\Temp\ccnbuj3h.s:334    .text.osKernelUnlock:00000000 $t
c:\Users\lenovo\AppData\Local\Temp\ccnbuj3h.s:341    .text.osKernelUnlock:00000000 osKernelUnlock
c:\Users\lenovo\AppData\Local\Temp\ccnbuj3h.s:395    .text.osKernelUnlock:00000038 $d
c:\Users\lenovo\AppData\Local\Temp\ccnbuj3h.s:401    .text.osKernelRestoreLock:00000000 $t
c:\Users\lenovo\AppData\Local\Temp\ccnbuj3h.s:408    .text.osKernelRestoreLock:00000000 osKernelRestoreLock
c:\Users\lenovo\AppData\Local\Temp\ccnbuj3h.s:472    .text.osKernelRestoreLock:00000044 $d
c:\Users\lenovo\AppData\Local\Temp\ccnbuj3h.s:478    .text.osKernelGetTickCount:00000000 $t
c:\Users\lenovo\AppData\Local\Temp\ccnbuj3h.s:485    .text.osKernelGetTickCount:00000000 osKernelGetTickCount
c:\Users\lenovo\AppData\Local\Temp\ccnbuj3h.s:526    .text.osKernelGetTickCount:00000024 $d
c:\Users\lenovo\AppData\Local\Temp\ccnbuj3h.s:531    .text.osKernelGetTick2ms:00000000 $t
c:\Users\lenovo\AppData\Local\Temp\ccnbuj3h.s:538    .text.osKernelGetTick2ms:00000000 osKernelGetTick2ms
c:\Users\lenovo\AppData\Local\Temp\ccnbuj3h.s:558    .text.osMs2Tick:00000000 $t
c:\Users\lenovo\AppData\Local\Temp\ccnbuj3h.s:565    .text.osMs2Tick:00000000 osMs2Tick
c:\Users\lenovo\AppData\Local\Temp\ccnbuj3h.s:579    .text.osKernelGetTickFreq:00000000 $t
c:\Users\lenovo\AppData\Local\Temp\ccnbuj3h.s:586    .text.osKernelGetTickFreq:00000000 osKernelGetTickFreq
c:\Users\lenovo\AppData\Local\Temp\ccnbuj3h.s:616    .text.osKernelGetSysTimerCount:00000000 $t
c:\Users\lenovo\AppData\Local\Temp\ccnbuj3h.s:623    .text.osKernelGetSysTimerCount:00000000 osKernelGetSysTimerCount
c:\Users\lenovo\AppData\Local\Temp\ccnbuj3h.s:670    .text.osKernelGetSysTimerFreq:00000000 $t
c:\Users\lenovo\AppData\Local\Temp\ccnbuj3h.s:677    .text.osKernelGetSysTimerFreq:00000000 osKernelGetSysTimerFreq
c:\Users\lenovo\AppData\Local\Temp\ccnbuj3h.s:691    .text.osKernelGetSysTimerFreq:00000008 $d
c:\Users\lenovo\AppData\Local\Temp\ccnbuj3h.s:696    .text.osThreadNew:00000000 $t
c:\Users\lenovo\AppData\Local\Temp\ccnbuj3h.s:703    .text.osThreadNew:00000000 osThreadNew
c:\Users\lenovo\AppData\Local\Temp\ccnbuj3h.s:808    .text.osThreadNew:0000006c $d
c:\Users\lenovo\AppData\Local\Temp\ccnbuj3h.s:813    .text.osThreadGetName:00000000 $t
c:\Users\lenovo\AppData\Local\Temp\ccnbuj3h.s:820    .text.osThreadGetName:00000000 osThreadGetName
c:\Users\lenovo\AppData\Local\Temp\ccnbuj3h.s:859    .text.osThreadGetId:00000000 $t
c:\Users\lenovo\AppData\Local\Temp\ccnbuj3h.s:866    .text.osThreadGetId:00000000 osThreadGetId
c:\Users\lenovo\AppData\Local\Temp\ccnbuj3h.s:894    .text.osThreadGetId:00000014 $d
c:\Users\lenovo\AppData\Local\Temp\ccnbuj3h.s:899    .text.osThreadGetState:00000000 $t
c:\Users\lenovo\AppData\Local\Temp\ccnbuj3h.s:906    .text.osThreadGetState:00000000 osThreadGetState
c:\Users\lenovo\AppData\Local\Temp\ccnbuj3h.s:975    .text.osThreadGetStackSize:00000000 $t
c:\Users\lenovo\AppData\Local\Temp\ccnbuj3h.s:982    .text.osThreadGetStackSize:00000000 osThreadGetStackSize
c:\Users\lenovo\AppData\Local\Temp\ccnbuj3h.s:1023   .text.osTaskStackWaterMarkGet:00000000 $t
c:\Users\lenovo\AppData\Local\Temp\ccnbuj3h.s:1030   .text.osTaskStackWaterMarkGet:00000000 osTaskStackWaterMarkGet
c:\Users\lenovo\AppData\Local\Temp\ccnbuj3h.s:1111   .text.osTaskStackWaterMarkGet:00000048 $d
c:\Users\lenovo\AppData\Local\Temp\ccnbuj3h.s:1116   .text.osThreadGetStackSpace:00000000 $t
c:\Users\lenovo\AppData\Local\Temp\ccnbuj3h.s:1123   .text.osThreadGetStackSpace:00000000 osThreadGetStackSpace
c:\Users\lenovo\AppData\Local\Temp\ccnbuj3h.s:1166   .text.osThreadSetPriority:00000000 $t
c:\Users\lenovo\AppData\Local\Temp\ccnbuj3h.s:1173   .text.osThreadSetPriority:00000000 osThreadSetPriority
c:\Users\lenovo\AppData\Local\Temp\ccnbuj3h.s:1219   .text.osThreadSetPriority:00000034 $d
ARM GAS  c:\Users\lenovo\AppData\Local\Temp\ccnbuj3h.s 			page 103


c:\Users\lenovo\AppData\Local\Temp\ccnbuj3h.s:1237   .text.osThreadSetPriority:00000046 $t
c:\Users\lenovo\AppData\Local\Temp\ccnbuj3h.s:1274   .text.osThreadGetPriority:00000000 $t
c:\Users\lenovo\AppData\Local\Temp\ccnbuj3h.s:1281   .text.osThreadGetPriority:00000000 osThreadGetPriority
c:\Users\lenovo\AppData\Local\Temp\ccnbuj3h.s:1334   .text.osThreadYield:00000000 $t
c:\Users\lenovo\AppData\Local\Temp\ccnbuj3h.s:1341   .text.osThreadYield:00000000 osThreadYield
c:\Users\lenovo\AppData\Local\Temp\ccnbuj3h.s:1379   .text.osThreadSuspend:00000000 $t
c:\Users\lenovo\AppData\Local\Temp\ccnbuj3h.s:1386   .text.osThreadSuspend:00000000 osThreadSuspend
c:\Users\lenovo\AppData\Local\Temp\ccnbuj3h.s:1464   .text.osThreadSuspend:00000054 $d
c:\Users\lenovo\AppData\Local\Temp\ccnbuj3h.s:1472   .text.osThreadResume:00000000 $t
c:\Users\lenovo\AppData\Local\Temp\ccnbuj3h.s:1479   .text.osThreadResume:00000000 osThreadResume
c:\Users\lenovo\AppData\Local\Temp\ccnbuj3h.s:1544   .text.osThreadResume:00000040 $d
c:\Users\lenovo\AppData\Local\Temp\ccnbuj3h.s:1549   .text.osThreadTerminate:00000000 $t
c:\Users\lenovo\AppData\Local\Temp\ccnbuj3h.s:1556   .text.osThreadTerminate:00000000 osThreadTerminate
c:\Users\lenovo\AppData\Local\Temp\ccnbuj3h.s:1590   .text.osThreadTerminate:00000020 $d
c:\Users\lenovo\AppData\Local\Temp\ccnbuj3h.s:1650   .text.osThreadGetCount:00000000 $t
c:\Users\lenovo\AppData\Local\Temp\ccnbuj3h.s:1657   .text.osThreadGetCount:00000000 osThreadGetCount
c:\Users\lenovo\AppData\Local\Temp\ccnbuj3h.s:1710   .text.osThreadGetCount:00000030 $d
c:\Users\lenovo\AppData\Local\Temp\ccnbuj3h.s:1715   .text.osDelay:00000000 $t
c:\Users\lenovo\AppData\Local\Temp\ccnbuj3h.s:1722   .text.osDelay:00000000 osDelay
c:\Users\lenovo\AppData\Local\Temp\ccnbuj3h.s:1754   .text.osDelayUntil:00000000 $t
c:\Users\lenovo\AppData\Local\Temp\ccnbuj3h.s:1761   .text.osDelayUntil:00000000 osDelayUntil
c:\Users\lenovo\AppData\Local\Temp\ccnbuj3h.s:1813   .text.osTimerNew:00000000 $t
c:\Users\lenovo\AppData\Local\Temp\ccnbuj3h.s:1820   .text.osTimerNew:00000000 osTimerNew
c:\Users\lenovo\AppData\Local\Temp\ccnbuj3h.s:1906   .text.osTimerNew:0000005c $d
c:\Users\lenovo\AppData\Local\Temp\ccnbuj3h.s:1911   .text.osTimerStart:00000000 $t
c:\Users\lenovo\AppData\Local\Temp\ccnbuj3h.s:1918   .text.osTimerStart:00000000 osTimerStart
c:\Users\lenovo\AppData\Local\Temp\ccnbuj3h.s:1996   .text.osTimerStart:0000003c $d
c:\Users\lenovo\AppData\Local\Temp\ccnbuj3h.s:2001   .text.osTimerGetName:00000000 $t
c:\Users\lenovo\AppData\Local\Temp\ccnbuj3h.s:2008   .text.osTimerGetName:00000000 osTimerGetName
c:\Users\lenovo\AppData\Local\Temp\ccnbuj3h.s:2024   .text.osTimerStop:00000000 $t
c:\Users\lenovo\AppData\Local\Temp\ccnbuj3h.s:2031   .text.osTimerStop:00000000 osTimerStop
c:\Users\lenovo\AppData\Local\Temp\ccnbuj3h.s:2091   .text.osTimerStop:00000038 $d
c:\Users\lenovo\AppData\Local\Temp\ccnbuj3h.s:2096   .text.osTimerIsRunning:00000000 $t
c:\Users\lenovo\AppData\Local\Temp\ccnbuj3h.s:2103   .text.osTimerIsRunning:00000000 osTimerIsRunning
c:\Users\lenovo\AppData\Local\Temp\ccnbuj3h.s:2144   .text.osTimerDelete:00000000 $t
c:\Users\lenovo\AppData\Local\Temp\ccnbuj3h.s:2151   .text.osTimerDelete:00000000 osTimerDelete
c:\Users\lenovo\AppData\Local\Temp\ccnbuj3h.s:2211   .text.osTimerDelete:00000038 $d
c:\Users\lenovo\AppData\Local\Temp\ccnbuj3h.s:2216   .text.osEventFlagsNew:00000000 $t
c:\Users\lenovo\AppData\Local\Temp\ccnbuj3h.s:2223   .text.osEventFlagsNew:00000000 osEventFlagsNew
c:\Users\lenovo\AppData\Local\Temp\ccnbuj3h.s:2280   .text.osEventFlagsNew:00000030 $d
c:\Users\lenovo\AppData\Local\Temp\ccnbuj3h.s:2286   .text.osEventFlagsGetName:00000000 $t
c:\Users\lenovo\AppData\Local\Temp\ccnbuj3h.s:2293   .text.osEventFlagsGetName:00000000 osEventFlagsGetName
c:\Users\lenovo\AppData\Local\Temp\ccnbuj3h.s:2315   .text.osEventFlagsSet:00000000 $t
c:\Users\lenovo\AppData\Local\Temp\ccnbuj3h.s:2322   .text.osEventFlagsSet:00000000 osEventFlagsSet
c:\Users\lenovo\AppData\Local\Temp\ccnbuj3h.s:2357   .text.osEventFlagsClear:00000000 $t
c:\Users\lenovo\AppData\Local\Temp\ccnbuj3h.s:2364   .text.osEventFlagsClear:00000000 osEventFlagsClear
c:\Users\lenovo\AppData\Local\Temp\ccnbuj3h.s:2428   .text.osEventFlagsGet:00000000 $t
c:\Users\lenovo\AppData\Local\Temp\ccnbuj3h.s:2435   .text.osEventFlagsGet:00000000 osEventFlagsGet
c:\Users\lenovo\AppData\Local\Temp\ccnbuj3h.s:2473   .text.osEventFlagsWait:00000000 $t
c:\Users\lenovo\AppData\Local\Temp\ccnbuj3h.s:2480   .text.osEventFlagsWait:00000000 osEventFlagsWait
c:\Users\lenovo\AppData\Local\Temp\ccnbuj3h.s:2520   .text.osEventFlagsWait:0000002c $d
c:\Users\lenovo\AppData\Local\Temp\ccnbuj3h.s:2578   .text.osEventFlagsDelete:00000000 $t
c:\Users\lenovo\AppData\Local\Temp\ccnbuj3h.s:2585   .text.osEventFlagsDelete:00000000 osEventFlagsDelete
c:\Users\lenovo\AppData\Local\Temp\ccnbuj3h.s:2635   .text.osEventFlagsDelete:0000002c $d
c:\Users\lenovo\AppData\Local\Temp\ccnbuj3h.s:2640   .text.osMutexNew:00000000 $t
c:\Users\lenovo\AppData\Local\Temp\ccnbuj3h.s:2647   .text.osMutexNew:00000000 osMutexNew
c:\Users\lenovo\AppData\Local\Temp\ccnbuj3h.s:2702   .text.osMutexNew:00000030 $d
ARM GAS  c:\Users\lenovo\AppData\Local\Temp\ccnbuj3h.s 			page 104


c:\Users\lenovo\AppData\Local\Temp\ccnbuj3h.s:2707   .text.osMutexAcquire:00000000 $t
c:\Users\lenovo\AppData\Local\Temp\ccnbuj3h.s:2714   .text.osMutexAcquire:00000000 osMutexAcquire
c:\Users\lenovo\AppData\Local\Temp\ccnbuj3h.s:2804   .text.osMutexAcquire:00000044 $d
c:\Users\lenovo\AppData\Local\Temp\ccnbuj3h.s:2809   .text.osMutexRelease:00000000 $t
c:\Users\lenovo\AppData\Local\Temp\ccnbuj3h.s:2816   .text.osMutexRelease:00000000 osMutexRelease
c:\Users\lenovo\AppData\Local\Temp\ccnbuj3h.s:2867   .text.osMutexGetOwner:00000000 $t
c:\Users\lenovo\AppData\Local\Temp\ccnbuj3h.s:2874   .text.osMutexGetOwner:00000000 osMutexGetOwner
c:\Users\lenovo\AppData\Local\Temp\ccnbuj3h.s:2922   .text.osMutexDelete:00000000 $t
c:\Users\lenovo\AppData\Local\Temp\ccnbuj3h.s:2929   .text.osMutexDelete:00000000 osMutexDelete
c:\Users\lenovo\AppData\Local\Temp\ccnbuj3h.s:2988   .text.osMutexDelete:00000038 $d
c:\Users\lenovo\AppData\Local\Temp\ccnbuj3h.s:2993   .text.osSemaphoreNew:00000000 $t
c:\Users\lenovo\AppData\Local\Temp\ccnbuj3h.s:3000   .text.osSemaphoreNew:00000000 osSemaphoreNew
c:\Users\lenovo\AppData\Local\Temp\ccnbuj3h.s:3071   .text.osSemaphoreNew:0000003c $d
c:\Users\lenovo\AppData\Local\Temp\ccnbuj3h.s:3076   .text.osSemaphoreAcquire:00000000 $t
c:\Users\lenovo\AppData\Local\Temp\ccnbuj3h.s:3083   .text.osSemaphoreAcquire:00000000 osSemaphoreAcquire
c:\Users\lenovo\AppData\Local\Temp\ccnbuj3h.s:3185   .text.osSemaphoreAcquire:00000054 $d
c:\Users\lenovo\AppData\Local\Temp\ccnbuj3h.s:3190   .text.osSemaphoreRelease:00000000 $t
c:\Users\lenovo\AppData\Local\Temp\ccnbuj3h.s:3197   .text.osSemaphoreRelease:00000000 osSemaphoreRelease
c:\Users\lenovo\AppData\Local\Temp\ccnbuj3h.s:3259   .text.osSemaphoreRelease:00000028 $d
c:\Users\lenovo\AppData\Local\Temp\ccnbuj3h.s:3264   .text.osSemaphoreGetCount:00000000 $t
c:\Users\lenovo\AppData\Local\Temp\ccnbuj3h.s:3271   .text.osSemaphoreGetCount:00000000 osSemaphoreGetCount
c:\Users\lenovo\AppData\Local\Temp\ccnbuj3h.s:3320   .text.osSemaphoreDelete:00000000 $t
c:\Users\lenovo\AppData\Local\Temp\ccnbuj3h.s:3327   .text.osSemaphoreDelete:00000000 osSemaphoreDelete
c:\Users\lenovo\AppData\Local\Temp\ccnbuj3h.s:3386   .text.osSemaphoreDelete:00000038 $d
c:\Users\lenovo\AppData\Local\Temp\ccnbuj3h.s:3391   .text.osMessageQueueNew:00000000 $t
c:\Users\lenovo\AppData\Local\Temp\ccnbuj3h.s:3398   .text.osMessageQueueNew:00000000 osMessageQueueNew
c:\Users\lenovo\AppData\Local\Temp\ccnbuj3h.s:3488   .text.osMessageQueueNew:00000044 $d
c:\Users\lenovo\AppData\Local\Temp\ccnbuj3h.s:3493   .text.osMessageQueuePut:00000000 $t
c:\Users\lenovo\AppData\Local\Temp\ccnbuj3h.s:3500   .text.osMessageQueuePut:00000000 osMessageQueuePut
c:\Users\lenovo\AppData\Local\Temp\ccnbuj3h.s:3615   .text.osMessageQueuePut:00000064 $d
c:\Users\lenovo\AppData\Local\Temp\ccnbuj3h.s:3620   .text.osMessageQueueGet:00000000 $t
c:\Users\lenovo\AppData\Local\Temp\ccnbuj3h.s:3627   .text.osMessageQueueGet:00000000 osMessageQueueGet
c:\Users\lenovo\AppData\Local\Temp\ccnbuj3h.s:3752   .text.osMessageQueueGet:00000070 $d
c:\Users\lenovo\AppData\Local\Temp\ccnbuj3h.s:3757   .text.osMessageQueueGetCapacity:00000000 $t
c:\Users\lenovo\AppData\Local\Temp\ccnbuj3h.s:3764   .text.osMessageQueueGetCapacity:00000000 osMessageQueueGetCapacity
c:\Users\lenovo\AppData\Local\Temp\ccnbuj3h.s:3789   .text.osMessageQueueGetMsgSize:00000000 $t
c:\Users\lenovo\AppData\Local\Temp\ccnbuj3h.s:3796   .text.osMessageQueueGetMsgSize:00000000 osMessageQueueGetMsgSize
c:\Users\lenovo\AppData\Local\Temp\ccnbuj3h.s:3823   .text.osMessageQueueGetCount:00000000 $t
c:\Users\lenovo\AppData\Local\Temp\ccnbuj3h.s:3830   .text.osMessageQueueGetCount:00000000 osMessageQueueGetCount
c:\Users\lenovo\AppData\Local\Temp\ccnbuj3h.s:3870   .text.osMessageQueueGetSpace:00000000 $t
c:\Users\lenovo\AppData\Local\Temp\ccnbuj3h.s:3877   .text.osMessageQueueGetSpace:00000000 osMessageQueueGetSpace
c:\Users\lenovo\AppData\Local\Temp\ccnbuj3h.s:3917   .text.osMessageQueueDelete:00000000 $t
c:\Users\lenovo\AppData\Local\Temp\ccnbuj3h.s:3924   .text.osMessageQueueDelete:00000000 osMessageQueueDelete
c:\Users\lenovo\AppData\Local\Temp\ccnbuj3h.s:4005   .text.osMessageQueueDelete:00000044 $d
c:\Users\lenovo\AppData\Local\Temp\ccnbuj3h.s:4021   .rodata.g_stLosVersion:00000000 g_stLosVersion
c:\Users\lenovo\AppData\Local\Temp\ccnbuj3h.s:4011   .bss.KernelState:00000000 $d
c:\Users\lenovo\AppData\Local\Temp\ccnbuj3h.s:4015   .bss.KernelState:00000000 KernelState
c:\Users\lenovo\AppData\Local\Temp\ccnbuj3h.s:4018   .rodata.g_stLosVersion:00000000 $d
c:\Users\lenovo\AppData\Local\Temp\ccnbuj3h.s:4025   .rodata.osKernelGetInfo.str1.4:00000000 $d
c:\Users\lenovo\AppData\Local\Temp\ccnbuj3h.s:1617   .text.osThreadTerminate:0000003b $d
c:\Users\lenovo\AppData\Local\Temp\ccnbuj3h.s:1617   .text.osThreadTerminate:0000003c $t
c:\Users\lenovo\AppData\Local\Temp\ccnbuj3h.s:2528   .text.osEventFlagsWait:00000033 $d
c:\Users\lenovo\AppData\Local\Temp\ccnbuj3h.s:2528   .text.osEventFlagsWait:00000034 $t

UNDEFINED SYMBOLS
osIntNumGet
LOS_KernelInit
ARM GAS  c:\Users\lenovo\AppData\Local\Temp\ccnbuj3h.s 			page 105


memcpy
g_bTaskScheduled
g_usLosTaskLock
LOS_Start
LOS_TaskLock
LOS_TaskUnlock
LOS_IntLock
LOS_IntRestore
g_ullTickCount
LOS_GetSystickCycle
SystemCoreClock
LOS_TaskCreate
g_pstTaskCBArray
g_stLosTask
LOS_TaskPriSet
LOS_TaskPriGet
LOS_TaskYield
LOS_TaskSuspend
LOS_TaskResume
LOS_TaskDelete
LOS_TaskDelay
LOS_SwtmrCreate
m_pstSwtmrCBArray
LOS_Tick2MS
LOS_SwtmrStart
LOS_SwtmrStop
LOS_SwtmrDelete
LOS_MemAlloc
LOS_EventInit
m_aucSysMem0
LOS_EventWrite
LOS_EventClear
LOS_EventRead
LOS_EventDestory
LOS_MemFree
LOS_MuxCreate
g_pstAllMux
LOS_MuxPend
LOS_MuxPost
LOS_MuxDelete
LOS_SemCreate
LOS_BinarySemCreate
g_pstAllSem
LOS_SemPend
LOS_SemPost
LOS_SemDelete
LOS_QueueCreate
g_pstAllQueue
LOS_QueueWriteCopy
LOS_QueueReadCopy
LOS_QueueDelete
