ARM GAS  c:\Users\lenovo\AppData\Local\Temp\ccEGNnmz.s 			page 1


   1              		.cpu cortex-m4
   2              		.eabi_attribute 27, 1
   3              		.eabi_attribute 28, 1
   4              		.eabi_attribute 20, 1
   5              		.eabi_attribute 21, 1
   6              		.eabi_attribute 23, 3
   7              		.eabi_attribute 24, 1
   8              		.eabi_attribute 25, 1
   9              		.eabi_attribute 26, 1
  10              		.eabi_attribute 30, 1
  11              		.eabi_attribute 34, 1
  12              		.eabi_attribute 18, 4
  13              		.file	"commandline.c"
  14              		.text
  15              	.Ltext0:
  16              		.cfi_sections	.debug_frame
  17              		.section	.text.prv_status_to_string,"ax",%progbits
  18              		.align	1
  19              		.syntax unified
  20              		.thumb
  21              		.thumb_func
  22              		.fpu fpv4-sp-d16
  24              	prv_status_to_string:
  25              	.LFB146:
  26              		.file 1 "C:/Users/lenovo/Desktop/liteos/Project2/BearPi_LiteOS/components/connectivity/lwm2m/examp
   1:C:/Users/lenovo/Desktop/liteos/Project2/BearPi_LiteOS/components/connectivity/lwm2m/examples/shared\commandline.c **** /*----------------------------------------------------------------------------
   2:C:/Users/lenovo/Desktop/liteos/Project2/BearPi_LiteOS/components/connectivity/lwm2m/examples/shared\commandline.c ****  * Copyright (c) <2016-2018>, <Huawei Technologies Co., Ltd>
   3:C:/Users/lenovo/Desktop/liteos/Project2/BearPi_LiteOS/components/connectivity/lwm2m/examples/shared\commandline.c ****  * All rights reserved.
   4:C:/Users/lenovo/Desktop/liteos/Project2/BearPi_LiteOS/components/connectivity/lwm2m/examples/shared\commandline.c ****  * Redistribution and use in source and binary forms, with or without modification,
   5:C:/Users/lenovo/Desktop/liteos/Project2/BearPi_LiteOS/components/connectivity/lwm2m/examples/shared\commandline.c ****  * are permitted provided that the following conditions are met:
   6:C:/Users/lenovo/Desktop/liteos/Project2/BearPi_LiteOS/components/connectivity/lwm2m/examples/shared\commandline.c ****  * 1. Redistributions of source code must retain the above copyright notice, this list of
   7:C:/Users/lenovo/Desktop/liteos/Project2/BearPi_LiteOS/components/connectivity/lwm2m/examples/shared\commandline.c ****  * conditions and the following disclaimer.
   8:C:/Users/lenovo/Desktop/liteos/Project2/BearPi_LiteOS/components/connectivity/lwm2m/examples/shared\commandline.c ****  * 2. Redistributions in binary form must reproduce the above copyright notice, this list
   9:C:/Users/lenovo/Desktop/liteos/Project2/BearPi_LiteOS/components/connectivity/lwm2m/examples/shared\commandline.c ****  * of conditions and the following disclaimer in the documentation and/or other materials
  10:C:/Users/lenovo/Desktop/liteos/Project2/BearPi_LiteOS/components/connectivity/lwm2m/examples/shared\commandline.c ****  * provided with the distribution.
  11:C:/Users/lenovo/Desktop/liteos/Project2/BearPi_LiteOS/components/connectivity/lwm2m/examples/shared\commandline.c ****  * 3. Neither the name of the copyright holder nor the names of its contributors may be used
  12:C:/Users/lenovo/Desktop/liteos/Project2/BearPi_LiteOS/components/connectivity/lwm2m/examples/shared\commandline.c ****  * to endorse or promote products derived from this software without specific prior written
  13:C:/Users/lenovo/Desktop/liteos/Project2/BearPi_LiteOS/components/connectivity/lwm2m/examples/shared\commandline.c ****  * permission.
  14:C:/Users/lenovo/Desktop/liteos/Project2/BearPi_LiteOS/components/connectivity/lwm2m/examples/shared\commandline.c ****  * THIS SOFTWARE IS PROVIDED BY THE COPYRIGHT HOLDERS AND CONTRIBUTORS
  15:C:/Users/lenovo/Desktop/liteos/Project2/BearPi_LiteOS/components/connectivity/lwm2m/examples/shared\commandline.c ****  * "AS IS" AND ANY EXPRESS OR IMPLIED WARRANTIES, INCLUDING, BUT NOT LIMITED TO,
  16:C:/Users/lenovo/Desktop/liteos/Project2/BearPi_LiteOS/components/connectivity/lwm2m/examples/shared\commandline.c ****  * THE IMPLIED WARRANTIES OF MERCHANTABILITY AND FITNESS FOR A PARTICULAR
  17:C:/Users/lenovo/Desktop/liteos/Project2/BearPi_LiteOS/components/connectivity/lwm2m/examples/shared\commandline.c ****  * PURPOSE ARE DISCLAIMED. IN NO EVENT SHALL THE COPYRIGHT HOLDER OR
  18:C:/Users/lenovo/Desktop/liteos/Project2/BearPi_LiteOS/components/connectivity/lwm2m/examples/shared\commandline.c ****  * CONTRIBUTORS BE LIABLE FOR ANY DIRECT, INDIRECT, INCIDENTAL, SPECIAL,
  19:C:/Users/lenovo/Desktop/liteos/Project2/BearPi_LiteOS/components/connectivity/lwm2m/examples/shared\commandline.c ****  * EXEMPLARY, OR CONSEQUENTIAL DAMAGES (INCLUDING, BUT NOT LIMITED TO,
  20:C:/Users/lenovo/Desktop/liteos/Project2/BearPi_LiteOS/components/connectivity/lwm2m/examples/shared\commandline.c ****  * PROCUREMENT OF SUBSTITUTE GOODS OR SERVICES; LOSS OF USE, DATA, OR PROFITS;
  21:C:/Users/lenovo/Desktop/liteos/Project2/BearPi_LiteOS/components/connectivity/lwm2m/examples/shared\commandline.c ****  * OR BUSINESS INTERRUPTION) HOWEVER CAUSED AND ON ANY THEORY OF LIABILITY,
  22:C:/Users/lenovo/Desktop/liteos/Project2/BearPi_LiteOS/components/connectivity/lwm2m/examples/shared\commandline.c ****  * WHETHER IN CONTRACT, STRICT LIABILITY, OR TORT (INCLUDING NEGLIGENCE OR
  23:C:/Users/lenovo/Desktop/liteos/Project2/BearPi_LiteOS/components/connectivity/lwm2m/examples/shared\commandline.c ****  * OTHERWISE) ARISING IN ANY WAY OUT OF THE USE OF THIS SOFTWARE, EVEN IF
  24:C:/Users/lenovo/Desktop/liteos/Project2/BearPi_LiteOS/components/connectivity/lwm2m/examples/shared\commandline.c ****  * ADVISED OF THE POSSIBILITY OF SUCH DAMAGE.
  25:C:/Users/lenovo/Desktop/liteos/Project2/BearPi_LiteOS/components/connectivity/lwm2m/examples/shared\commandline.c ****  *---------------------------------------------------------------------------*/
  26:C:/Users/lenovo/Desktop/liteos/Project2/BearPi_LiteOS/components/connectivity/lwm2m/examples/shared\commandline.c **** /*----------------------------------------------------------------------------
  27:C:/Users/lenovo/Desktop/liteos/Project2/BearPi_LiteOS/components/connectivity/lwm2m/examples/shared\commandline.c ****  * Notice of Export Control Law
  28:C:/Users/lenovo/Desktop/liteos/Project2/BearPi_LiteOS/components/connectivity/lwm2m/examples/shared\commandline.c ****  * ===============================================
  29:C:/Users/lenovo/Desktop/liteos/Project2/BearPi_LiteOS/components/connectivity/lwm2m/examples/shared\commandline.c ****  * Huawei LiteOS may be subject to applicable export control laws and regulations, which might
  30:C:/Users/lenovo/Desktop/liteos/Project2/BearPi_LiteOS/components/connectivity/lwm2m/examples/shared\commandline.c ****  * include those applicable to Huawei LiteOS of U.S. and the country in which you are located.
  31:C:/Users/lenovo/Desktop/liteos/Project2/BearPi_LiteOS/components/connectivity/lwm2m/examples/shared\commandline.c ****  * Import, export and usage of Huawei LiteOS in any manner by you shall be in compliance with such
  32:C:/Users/lenovo/Desktop/liteos/Project2/BearPi_LiteOS/components/connectivity/lwm2m/examples/shared\commandline.c ****  * applicable export control laws and regulations.
ARM GAS  c:\Users\lenovo\AppData\Local\Temp\ccEGNnmz.s 			page 2


  33:C:/Users/lenovo/Desktop/liteos/Project2/BearPi_LiteOS/components/connectivity/lwm2m/examples/shared\commandline.c ****  *---------------------------------------------------------------------------*/
  34:C:/Users/lenovo/Desktop/liteos/Project2/BearPi_LiteOS/components/connectivity/lwm2m/examples/shared\commandline.c **** 
  35:C:/Users/lenovo/Desktop/liteos/Project2/BearPi_LiteOS/components/connectivity/lwm2m/examples/shared\commandline.c **** /*******************************************************************************
  36:C:/Users/lenovo/Desktop/liteos/Project2/BearPi_LiteOS/components/connectivity/lwm2m/examples/shared\commandline.c ****  *
  37:C:/Users/lenovo/Desktop/liteos/Project2/BearPi_LiteOS/components/connectivity/lwm2m/examples/shared\commandline.c ****  * Copyright (c) 2013, 2014, 2015 Intel Corporation and others.
  38:C:/Users/lenovo/Desktop/liteos/Project2/BearPi_LiteOS/components/connectivity/lwm2m/examples/shared\commandline.c ****  * All rights reserved. This program and the accompanying materials
  39:C:/Users/lenovo/Desktop/liteos/Project2/BearPi_LiteOS/components/connectivity/lwm2m/examples/shared\commandline.c ****  * are made available under the terms of the Eclipse Public License v1.0
  40:C:/Users/lenovo/Desktop/liteos/Project2/BearPi_LiteOS/components/connectivity/lwm2m/examples/shared\commandline.c ****  * and Eclipse Distribution License v1.0 which accompany this distribution.
  41:C:/Users/lenovo/Desktop/liteos/Project2/BearPi_LiteOS/components/connectivity/lwm2m/examples/shared\commandline.c ****  *
  42:C:/Users/lenovo/Desktop/liteos/Project2/BearPi_LiteOS/components/connectivity/lwm2m/examples/shared\commandline.c ****  * The Eclipse Public License is available at
  43:C:/Users/lenovo/Desktop/liteos/Project2/BearPi_LiteOS/components/connectivity/lwm2m/examples/shared\commandline.c ****  *    http://www.eclipse.org/legal/epl-v10.html
  44:C:/Users/lenovo/Desktop/liteos/Project2/BearPi_LiteOS/components/connectivity/lwm2m/examples/shared\commandline.c ****  * The Eclipse Distribution License is available at
  45:C:/Users/lenovo/Desktop/liteos/Project2/BearPi_LiteOS/components/connectivity/lwm2m/examples/shared\commandline.c ****  *    http://www.eclipse.org/org/documents/edl-v10.php.
  46:C:/Users/lenovo/Desktop/liteos/Project2/BearPi_LiteOS/components/connectivity/lwm2m/examples/shared\commandline.c ****  *
  47:C:/Users/lenovo/Desktop/liteos/Project2/BearPi_LiteOS/components/connectivity/lwm2m/examples/shared\commandline.c ****  * Contributors:
  48:C:/Users/lenovo/Desktop/liteos/Project2/BearPi_LiteOS/components/connectivity/lwm2m/examples/shared\commandline.c ****  *    David Navarro, Intel Corporation - initial API and implementation
  49:C:/Users/lenovo/Desktop/liteos/Project2/BearPi_LiteOS/components/connectivity/lwm2m/examples/shared\commandline.c ****  *    Fabien Fleutot - Please refer to git log
  50:C:/Users/lenovo/Desktop/liteos/Project2/BearPi_LiteOS/components/connectivity/lwm2m/examples/shared\commandline.c ****  *
  51:C:/Users/lenovo/Desktop/liteos/Project2/BearPi_LiteOS/components/connectivity/lwm2m/examples/shared\commandline.c ****  *******************************************************************************/
  52:C:/Users/lenovo/Desktop/liteos/Project2/BearPi_LiteOS/components/connectivity/lwm2m/examples/shared\commandline.c **** 
  53:C:/Users/lenovo/Desktop/liteos/Project2/BearPi_LiteOS/components/connectivity/lwm2m/examples/shared\commandline.c **** #include <string.h>
  54:C:/Users/lenovo/Desktop/liteos/Project2/BearPi_LiteOS/components/connectivity/lwm2m/examples/shared\commandline.c **** #include <stdlib.h>
  55:C:/Users/lenovo/Desktop/liteos/Project2/BearPi_LiteOS/components/connectivity/lwm2m/examples/shared\commandline.c **** #include <stdio.h>
  56:C:/Users/lenovo/Desktop/liteos/Project2/BearPi_LiteOS/components/connectivity/lwm2m/examples/shared\commandline.c **** #include <ctype.h>
  57:C:/Users/lenovo/Desktop/liteos/Project2/BearPi_LiteOS/components/connectivity/lwm2m/examples/shared\commandline.c **** #include <inttypes.h>
  58:C:/Users/lenovo/Desktop/liteos/Project2/BearPi_LiteOS/components/connectivity/lwm2m/examples/shared\commandline.c **** #include "liblwm2m.h"
  59:C:/Users/lenovo/Desktop/liteos/Project2/BearPi_LiteOS/components/connectivity/lwm2m/examples/shared\commandline.c **** #include "internals.h"
  60:C:/Users/lenovo/Desktop/liteos/Project2/BearPi_LiteOS/components/connectivity/lwm2m/examples/shared\commandline.c **** #include "commandline.h"
  61:C:/Users/lenovo/Desktop/liteos/Project2/BearPi_LiteOS/components/connectivity/lwm2m/examples/shared\commandline.c **** 
  62:C:/Users/lenovo/Desktop/liteos/Project2/BearPi_LiteOS/components/connectivity/lwm2m/examples/shared\commandline.c **** #define HELP_COMMAND "help"
  63:C:/Users/lenovo/Desktop/liteos/Project2/BearPi_LiteOS/components/connectivity/lwm2m/examples/shared\commandline.c **** #define HELP_DESC    "Type '"HELP_COMMAND" [COMMAND]' for more details on a command."
  64:C:/Users/lenovo/Desktop/liteos/Project2/BearPi_LiteOS/components/connectivity/lwm2m/examples/shared\commandline.c **** #define UNKNOWN_CMD_MSG "Unknown command. Type '"HELP_COMMAND"' for help."
  65:C:/Users/lenovo/Desktop/liteos/Project2/BearPi_LiteOS/components/connectivity/lwm2m/examples/shared\commandline.c **** 
  66:C:/Users/lenovo/Desktop/liteos/Project2/BearPi_LiteOS/components/connectivity/lwm2m/examples/shared\commandline.c **** static command_desc_t *prv_find_command(command_desc_t *commandArray,
  67:C:/Users/lenovo/Desktop/liteos/Project2/BearPi_LiteOS/components/connectivity/lwm2m/examples/shared\commandline.c ****                                         char *buffer,
  68:C:/Users/lenovo/Desktop/liteos/Project2/BearPi_LiteOS/components/connectivity/lwm2m/examples/shared\commandline.c ****                                         size_t length)
  69:C:/Users/lenovo/Desktop/liteos/Project2/BearPi_LiteOS/components/connectivity/lwm2m/examples/shared\commandline.c **** {
  70:C:/Users/lenovo/Desktop/liteos/Project2/BearPi_LiteOS/components/connectivity/lwm2m/examples/shared\commandline.c ****     int i;
  71:C:/Users/lenovo/Desktop/liteos/Project2/BearPi_LiteOS/components/connectivity/lwm2m/examples/shared\commandline.c **** 
  72:C:/Users/lenovo/Desktop/liteos/Project2/BearPi_LiteOS/components/connectivity/lwm2m/examples/shared\commandline.c ****     if (length == 0) return NULL;
  73:C:/Users/lenovo/Desktop/liteos/Project2/BearPi_LiteOS/components/connectivity/lwm2m/examples/shared\commandline.c **** 
  74:C:/Users/lenovo/Desktop/liteos/Project2/BearPi_LiteOS/components/connectivity/lwm2m/examples/shared\commandline.c ****     i = 0;
  75:C:/Users/lenovo/Desktop/liteos/Project2/BearPi_LiteOS/components/connectivity/lwm2m/examples/shared\commandline.c ****     while (commandArray[i].name != NULL
  76:C:/Users/lenovo/Desktop/liteos/Project2/BearPi_LiteOS/components/connectivity/lwm2m/examples/shared\commandline.c ****             && (strlen(commandArray[i].name) != length || strncmp(buffer, commandArray[i].name, len
  77:C:/Users/lenovo/Desktop/liteos/Project2/BearPi_LiteOS/components/connectivity/lwm2m/examples/shared\commandline.c ****     {
  78:C:/Users/lenovo/Desktop/liteos/Project2/BearPi_LiteOS/components/connectivity/lwm2m/examples/shared\commandline.c ****         i++;
  79:C:/Users/lenovo/Desktop/liteos/Project2/BearPi_LiteOS/components/connectivity/lwm2m/examples/shared\commandline.c ****     }
  80:C:/Users/lenovo/Desktop/liteos/Project2/BearPi_LiteOS/components/connectivity/lwm2m/examples/shared\commandline.c **** 
  81:C:/Users/lenovo/Desktop/liteos/Project2/BearPi_LiteOS/components/connectivity/lwm2m/examples/shared\commandline.c ****     if (commandArray[i].name == NULL)
  82:C:/Users/lenovo/Desktop/liteos/Project2/BearPi_LiteOS/components/connectivity/lwm2m/examples/shared\commandline.c ****     {
  83:C:/Users/lenovo/Desktop/liteos/Project2/BearPi_LiteOS/components/connectivity/lwm2m/examples/shared\commandline.c ****         return NULL;
  84:C:/Users/lenovo/Desktop/liteos/Project2/BearPi_LiteOS/components/connectivity/lwm2m/examples/shared\commandline.c ****     }
  85:C:/Users/lenovo/Desktop/liteos/Project2/BearPi_LiteOS/components/connectivity/lwm2m/examples/shared\commandline.c ****     else
  86:C:/Users/lenovo/Desktop/liteos/Project2/BearPi_LiteOS/components/connectivity/lwm2m/examples/shared\commandline.c ****     {
  87:C:/Users/lenovo/Desktop/liteos/Project2/BearPi_LiteOS/components/connectivity/lwm2m/examples/shared\commandline.c ****         return &commandArray[i];
  88:C:/Users/lenovo/Desktop/liteos/Project2/BearPi_LiteOS/components/connectivity/lwm2m/examples/shared\commandline.c ****     }
  89:C:/Users/lenovo/Desktop/liteos/Project2/BearPi_LiteOS/components/connectivity/lwm2m/examples/shared\commandline.c **** }
ARM GAS  c:\Users\lenovo\AppData\Local\Temp\ccEGNnmz.s 			page 3


  90:C:/Users/lenovo/Desktop/liteos/Project2/BearPi_LiteOS/components/connectivity/lwm2m/examples/shared\commandline.c **** 
  91:C:/Users/lenovo/Desktop/liteos/Project2/BearPi_LiteOS/components/connectivity/lwm2m/examples/shared\commandline.c **** static void prv_displayHelp(command_desc_t *commandArray,
  92:C:/Users/lenovo/Desktop/liteos/Project2/BearPi_LiteOS/components/connectivity/lwm2m/examples/shared\commandline.c ****                             char *buffer)
  93:C:/Users/lenovo/Desktop/liteos/Project2/BearPi_LiteOS/components/connectivity/lwm2m/examples/shared\commandline.c **** {
  94:C:/Users/lenovo/Desktop/liteos/Project2/BearPi_LiteOS/components/connectivity/lwm2m/examples/shared\commandline.c ****     command_desc_t *cmdP;
  95:C:/Users/lenovo/Desktop/liteos/Project2/BearPi_LiteOS/components/connectivity/lwm2m/examples/shared\commandline.c ****     int length;
  96:C:/Users/lenovo/Desktop/liteos/Project2/BearPi_LiteOS/components/connectivity/lwm2m/examples/shared\commandline.c **** 
  97:C:/Users/lenovo/Desktop/liteos/Project2/BearPi_LiteOS/components/connectivity/lwm2m/examples/shared\commandline.c ****     // find end of first argument
  98:C:/Users/lenovo/Desktop/liteos/Project2/BearPi_LiteOS/components/connectivity/lwm2m/examples/shared\commandline.c ****     length = 0;
  99:C:/Users/lenovo/Desktop/liteos/Project2/BearPi_LiteOS/components/connectivity/lwm2m/examples/shared\commandline.c ****     while (buffer[length] != 0 && !isspace(buffer[length] & 0xff))
 100:C:/Users/lenovo/Desktop/liteos/Project2/BearPi_LiteOS/components/connectivity/lwm2m/examples/shared\commandline.c ****         length++;
 101:C:/Users/lenovo/Desktop/liteos/Project2/BearPi_LiteOS/components/connectivity/lwm2m/examples/shared\commandline.c **** 
 102:C:/Users/lenovo/Desktop/liteos/Project2/BearPi_LiteOS/components/connectivity/lwm2m/examples/shared\commandline.c ****     cmdP = prv_find_command(commandArray, buffer, length);
 103:C:/Users/lenovo/Desktop/liteos/Project2/BearPi_LiteOS/components/connectivity/lwm2m/examples/shared\commandline.c **** 
 104:C:/Users/lenovo/Desktop/liteos/Project2/BearPi_LiteOS/components/connectivity/lwm2m/examples/shared\commandline.c ****     if (cmdP == NULL)
 105:C:/Users/lenovo/Desktop/liteos/Project2/BearPi_LiteOS/components/connectivity/lwm2m/examples/shared\commandline.c ****     {
 106:C:/Users/lenovo/Desktop/liteos/Project2/BearPi_LiteOS/components/connectivity/lwm2m/examples/shared\commandline.c ****         int i;
 107:C:/Users/lenovo/Desktop/liteos/Project2/BearPi_LiteOS/components/connectivity/lwm2m/examples/shared\commandline.c **** 
 108:C:/Users/lenovo/Desktop/liteos/Project2/BearPi_LiteOS/components/connectivity/lwm2m/examples/shared\commandline.c ****         fprintf(stdout, HELP_COMMAND"\t"HELP_DESC"\r\n");
 109:C:/Users/lenovo/Desktop/liteos/Project2/BearPi_LiteOS/components/connectivity/lwm2m/examples/shared\commandline.c **** 
 110:C:/Users/lenovo/Desktop/liteos/Project2/BearPi_LiteOS/components/connectivity/lwm2m/examples/shared\commandline.c ****         for (i = 0 ; commandArray[i].name != NULL ; i++)
 111:C:/Users/lenovo/Desktop/liteos/Project2/BearPi_LiteOS/components/connectivity/lwm2m/examples/shared\commandline.c ****         {
 112:C:/Users/lenovo/Desktop/liteos/Project2/BearPi_LiteOS/components/connectivity/lwm2m/examples/shared\commandline.c ****             fprintf(stdout, "%s\t%s\r\n", commandArray[i].name, commandArray[i].shortDesc);
 113:C:/Users/lenovo/Desktop/liteos/Project2/BearPi_LiteOS/components/connectivity/lwm2m/examples/shared\commandline.c ****         }
 114:C:/Users/lenovo/Desktop/liteos/Project2/BearPi_LiteOS/components/connectivity/lwm2m/examples/shared\commandline.c ****     }
 115:C:/Users/lenovo/Desktop/liteos/Project2/BearPi_LiteOS/components/connectivity/lwm2m/examples/shared\commandline.c ****     else
 116:C:/Users/lenovo/Desktop/liteos/Project2/BearPi_LiteOS/components/connectivity/lwm2m/examples/shared\commandline.c ****     {
 117:C:/Users/lenovo/Desktop/liteos/Project2/BearPi_LiteOS/components/connectivity/lwm2m/examples/shared\commandline.c ****         fprintf(stdout, "%s\r\n", cmdP->longDesc ? cmdP->longDesc : cmdP->shortDesc);
 118:C:/Users/lenovo/Desktop/liteos/Project2/BearPi_LiteOS/components/connectivity/lwm2m/examples/shared\commandline.c ****     }
 119:C:/Users/lenovo/Desktop/liteos/Project2/BearPi_LiteOS/components/connectivity/lwm2m/examples/shared\commandline.c **** }
 120:C:/Users/lenovo/Desktop/liteos/Project2/BearPi_LiteOS/components/connectivity/lwm2m/examples/shared\commandline.c **** 
 121:C:/Users/lenovo/Desktop/liteos/Project2/BearPi_LiteOS/components/connectivity/lwm2m/examples/shared\commandline.c **** 
 122:C:/Users/lenovo/Desktop/liteos/Project2/BearPi_LiteOS/components/connectivity/lwm2m/examples/shared\commandline.c **** void handle_command(command_desc_t *commandArray,
 123:C:/Users/lenovo/Desktop/liteos/Project2/BearPi_LiteOS/components/connectivity/lwm2m/examples/shared\commandline.c ****                     char *buffer)
 124:C:/Users/lenovo/Desktop/liteos/Project2/BearPi_LiteOS/components/connectivity/lwm2m/examples/shared\commandline.c **** {
 125:C:/Users/lenovo/Desktop/liteos/Project2/BearPi_LiteOS/components/connectivity/lwm2m/examples/shared\commandline.c ****     command_desc_t *cmdP;
 126:C:/Users/lenovo/Desktop/liteos/Project2/BearPi_LiteOS/components/connectivity/lwm2m/examples/shared\commandline.c ****     int length;
 127:C:/Users/lenovo/Desktop/liteos/Project2/BearPi_LiteOS/components/connectivity/lwm2m/examples/shared\commandline.c **** 
 128:C:/Users/lenovo/Desktop/liteos/Project2/BearPi_LiteOS/components/connectivity/lwm2m/examples/shared\commandline.c ****     // find end of command name
 129:C:/Users/lenovo/Desktop/liteos/Project2/BearPi_LiteOS/components/connectivity/lwm2m/examples/shared\commandline.c ****     length = 0;
 130:C:/Users/lenovo/Desktop/liteos/Project2/BearPi_LiteOS/components/connectivity/lwm2m/examples/shared\commandline.c ****     while (buffer[length] != 0 && !isspace(buffer[length] & 0xFF))
 131:C:/Users/lenovo/Desktop/liteos/Project2/BearPi_LiteOS/components/connectivity/lwm2m/examples/shared\commandline.c ****         length++;
 132:C:/Users/lenovo/Desktop/liteos/Project2/BearPi_LiteOS/components/connectivity/lwm2m/examples/shared\commandline.c **** 
 133:C:/Users/lenovo/Desktop/liteos/Project2/BearPi_LiteOS/components/connectivity/lwm2m/examples/shared\commandline.c ****     cmdP = prv_find_command(commandArray, buffer, length);
 134:C:/Users/lenovo/Desktop/liteos/Project2/BearPi_LiteOS/components/connectivity/lwm2m/examples/shared\commandline.c ****     if (cmdP != NULL)
 135:C:/Users/lenovo/Desktop/liteos/Project2/BearPi_LiteOS/components/connectivity/lwm2m/examples/shared\commandline.c ****     {
 136:C:/Users/lenovo/Desktop/liteos/Project2/BearPi_LiteOS/components/connectivity/lwm2m/examples/shared\commandline.c ****         while (buffer[length] != 0 && isspace(buffer[length] & 0xFF))
 137:C:/Users/lenovo/Desktop/liteos/Project2/BearPi_LiteOS/components/connectivity/lwm2m/examples/shared\commandline.c ****             length++;
 138:C:/Users/lenovo/Desktop/liteos/Project2/BearPi_LiteOS/components/connectivity/lwm2m/examples/shared\commandline.c ****         cmdP->callback(buffer + length, cmdP->userData);
 139:C:/Users/lenovo/Desktop/liteos/Project2/BearPi_LiteOS/components/connectivity/lwm2m/examples/shared\commandline.c ****     }
 140:C:/Users/lenovo/Desktop/liteos/Project2/BearPi_LiteOS/components/connectivity/lwm2m/examples/shared\commandline.c ****     else
 141:C:/Users/lenovo/Desktop/liteos/Project2/BearPi_LiteOS/components/connectivity/lwm2m/examples/shared\commandline.c ****     {
 142:C:/Users/lenovo/Desktop/liteos/Project2/BearPi_LiteOS/components/connectivity/lwm2m/examples/shared\commandline.c ****         if (!strncmp(buffer, HELP_COMMAND, length))
 143:C:/Users/lenovo/Desktop/liteos/Project2/BearPi_LiteOS/components/connectivity/lwm2m/examples/shared\commandline.c ****         {
 144:C:/Users/lenovo/Desktop/liteos/Project2/BearPi_LiteOS/components/connectivity/lwm2m/examples/shared\commandline.c ****             while (buffer[length] != 0 && isspace(buffer[length] & 0xFF))
 145:C:/Users/lenovo/Desktop/liteos/Project2/BearPi_LiteOS/components/connectivity/lwm2m/examples/shared\commandline.c ****                 length++;
 146:C:/Users/lenovo/Desktop/liteos/Project2/BearPi_LiteOS/components/connectivity/lwm2m/examples/shared\commandline.c ****             prv_displayHelp(commandArray, buffer + length);
ARM GAS  c:\Users\lenovo\AppData\Local\Temp\ccEGNnmz.s 			page 4


 147:C:/Users/lenovo/Desktop/liteos/Project2/BearPi_LiteOS/components/connectivity/lwm2m/examples/shared\commandline.c ****         }
 148:C:/Users/lenovo/Desktop/liteos/Project2/BearPi_LiteOS/components/connectivity/lwm2m/examples/shared\commandline.c ****         else
 149:C:/Users/lenovo/Desktop/liteos/Project2/BearPi_LiteOS/components/connectivity/lwm2m/examples/shared\commandline.c ****         {
 150:C:/Users/lenovo/Desktop/liteos/Project2/BearPi_LiteOS/components/connectivity/lwm2m/examples/shared\commandline.c ****             fprintf(stdout, UNKNOWN_CMD_MSG"\r\n");
 151:C:/Users/lenovo/Desktop/liteos/Project2/BearPi_LiteOS/components/connectivity/lwm2m/examples/shared\commandline.c ****         }
 152:C:/Users/lenovo/Desktop/liteos/Project2/BearPi_LiteOS/components/connectivity/lwm2m/examples/shared\commandline.c ****     }
 153:C:/Users/lenovo/Desktop/liteos/Project2/BearPi_LiteOS/components/connectivity/lwm2m/examples/shared\commandline.c **** }
 154:C:/Users/lenovo/Desktop/liteos/Project2/BearPi_LiteOS/components/connectivity/lwm2m/examples/shared\commandline.c **** 
 155:C:/Users/lenovo/Desktop/liteos/Project2/BearPi_LiteOS/components/connectivity/lwm2m/examples/shared\commandline.c **** static char *prv_end_of_space(char *buffer)
 156:C:/Users/lenovo/Desktop/liteos/Project2/BearPi_LiteOS/components/connectivity/lwm2m/examples/shared\commandline.c **** {
 157:C:/Users/lenovo/Desktop/liteos/Project2/BearPi_LiteOS/components/connectivity/lwm2m/examples/shared\commandline.c ****     while (isspace(buffer[0] & 0xff))
 158:C:/Users/lenovo/Desktop/liteos/Project2/BearPi_LiteOS/components/connectivity/lwm2m/examples/shared\commandline.c ****     {
 159:C:/Users/lenovo/Desktop/liteos/Project2/BearPi_LiteOS/components/connectivity/lwm2m/examples/shared\commandline.c ****         buffer++;
 160:C:/Users/lenovo/Desktop/liteos/Project2/BearPi_LiteOS/components/connectivity/lwm2m/examples/shared\commandline.c ****     }
 161:C:/Users/lenovo/Desktop/liteos/Project2/BearPi_LiteOS/components/connectivity/lwm2m/examples/shared\commandline.c ****     return buffer;
 162:C:/Users/lenovo/Desktop/liteos/Project2/BearPi_LiteOS/components/connectivity/lwm2m/examples/shared\commandline.c **** }
 163:C:/Users/lenovo/Desktop/liteos/Project2/BearPi_LiteOS/components/connectivity/lwm2m/examples/shared\commandline.c **** 
 164:C:/Users/lenovo/Desktop/liteos/Project2/BearPi_LiteOS/components/connectivity/lwm2m/examples/shared\commandline.c **** char *get_end_of_arg(char *buffer)
 165:C:/Users/lenovo/Desktop/liteos/Project2/BearPi_LiteOS/components/connectivity/lwm2m/examples/shared\commandline.c **** {
 166:C:/Users/lenovo/Desktop/liteos/Project2/BearPi_LiteOS/components/connectivity/lwm2m/examples/shared\commandline.c ****     while (buffer[0] != 0 && !isspace(buffer[0] & 0xFF))
 167:C:/Users/lenovo/Desktop/liteos/Project2/BearPi_LiteOS/components/connectivity/lwm2m/examples/shared\commandline.c ****     {
 168:C:/Users/lenovo/Desktop/liteos/Project2/BearPi_LiteOS/components/connectivity/lwm2m/examples/shared\commandline.c ****         buffer++;
 169:C:/Users/lenovo/Desktop/liteos/Project2/BearPi_LiteOS/components/connectivity/lwm2m/examples/shared\commandline.c ****     }
 170:C:/Users/lenovo/Desktop/liteos/Project2/BearPi_LiteOS/components/connectivity/lwm2m/examples/shared\commandline.c ****     return buffer;
 171:C:/Users/lenovo/Desktop/liteos/Project2/BearPi_LiteOS/components/connectivity/lwm2m/examples/shared\commandline.c **** }
 172:C:/Users/lenovo/Desktop/liteos/Project2/BearPi_LiteOS/components/connectivity/lwm2m/examples/shared\commandline.c **** 
 173:C:/Users/lenovo/Desktop/liteos/Project2/BearPi_LiteOS/components/connectivity/lwm2m/examples/shared\commandline.c **** char *get_next_arg(char *buffer, char **end)
 174:C:/Users/lenovo/Desktop/liteos/Project2/BearPi_LiteOS/components/connectivity/lwm2m/examples/shared\commandline.c **** {
 175:C:/Users/lenovo/Desktop/liteos/Project2/BearPi_LiteOS/components/connectivity/lwm2m/examples/shared\commandline.c ****     // skip arg
 176:C:/Users/lenovo/Desktop/liteos/Project2/BearPi_LiteOS/components/connectivity/lwm2m/examples/shared\commandline.c ****     buffer = get_end_of_arg(buffer);
 177:C:/Users/lenovo/Desktop/liteos/Project2/BearPi_LiteOS/components/connectivity/lwm2m/examples/shared\commandline.c ****     // skip space
 178:C:/Users/lenovo/Desktop/liteos/Project2/BearPi_LiteOS/components/connectivity/lwm2m/examples/shared\commandline.c ****     buffer = prv_end_of_space(buffer);
 179:C:/Users/lenovo/Desktop/liteos/Project2/BearPi_LiteOS/components/connectivity/lwm2m/examples/shared\commandline.c ****     if (NULL != end)
 180:C:/Users/lenovo/Desktop/liteos/Project2/BearPi_LiteOS/components/connectivity/lwm2m/examples/shared\commandline.c ****     {
 181:C:/Users/lenovo/Desktop/liteos/Project2/BearPi_LiteOS/components/connectivity/lwm2m/examples/shared\commandline.c ****         *end = get_end_of_arg(buffer);
 182:C:/Users/lenovo/Desktop/liteos/Project2/BearPi_LiteOS/components/connectivity/lwm2m/examples/shared\commandline.c ****     }
 183:C:/Users/lenovo/Desktop/liteos/Project2/BearPi_LiteOS/components/connectivity/lwm2m/examples/shared\commandline.c **** 
 184:C:/Users/lenovo/Desktop/liteos/Project2/BearPi_LiteOS/components/connectivity/lwm2m/examples/shared\commandline.c ****     return buffer;
 185:C:/Users/lenovo/Desktop/liteos/Project2/BearPi_LiteOS/components/connectivity/lwm2m/examples/shared\commandline.c **** }
 186:C:/Users/lenovo/Desktop/liteos/Project2/BearPi_LiteOS/components/connectivity/lwm2m/examples/shared\commandline.c **** 
 187:C:/Users/lenovo/Desktop/liteos/Project2/BearPi_LiteOS/components/connectivity/lwm2m/examples/shared\commandline.c **** int check_end_of_args(char *buffer)
 188:C:/Users/lenovo/Desktop/liteos/Project2/BearPi_LiteOS/components/connectivity/lwm2m/examples/shared\commandline.c **** {
 189:C:/Users/lenovo/Desktop/liteos/Project2/BearPi_LiteOS/components/connectivity/lwm2m/examples/shared\commandline.c ****     buffer = prv_end_of_space(buffer);
 190:C:/Users/lenovo/Desktop/liteos/Project2/BearPi_LiteOS/components/connectivity/lwm2m/examples/shared\commandline.c **** 
 191:C:/Users/lenovo/Desktop/liteos/Project2/BearPi_LiteOS/components/connectivity/lwm2m/examples/shared\commandline.c ****     return (0 == buffer[0]);
 192:C:/Users/lenovo/Desktop/liteos/Project2/BearPi_LiteOS/components/connectivity/lwm2m/examples/shared\commandline.c **** }
 193:C:/Users/lenovo/Desktop/liteos/Project2/BearPi_LiteOS/components/connectivity/lwm2m/examples/shared\commandline.c **** 
 194:C:/Users/lenovo/Desktop/liteos/Project2/BearPi_LiteOS/components/connectivity/lwm2m/examples/shared\commandline.c **** /**********************************************************
 195:C:/Users/lenovo/Desktop/liteos/Project2/BearPi_LiteOS/components/connectivity/lwm2m/examples/shared\commandline.c ****  * Display Functions
 196:C:/Users/lenovo/Desktop/liteos/Project2/BearPi_LiteOS/components/connectivity/lwm2m/examples/shared\commandline.c ****  */
 197:C:/Users/lenovo/Desktop/liteos/Project2/BearPi_LiteOS/components/connectivity/lwm2m/examples/shared\commandline.c **** 
 198:C:/Users/lenovo/Desktop/liteos/Project2/BearPi_LiteOS/components/connectivity/lwm2m/examples/shared\commandline.c **** static void print_indent(FILE *stream,
 199:C:/Users/lenovo/Desktop/liteos/Project2/BearPi_LiteOS/components/connectivity/lwm2m/examples/shared\commandline.c ****                          int num)
 200:C:/Users/lenovo/Desktop/liteos/Project2/BearPi_LiteOS/components/connectivity/lwm2m/examples/shared\commandline.c **** {
 201:C:/Users/lenovo/Desktop/liteos/Project2/BearPi_LiteOS/components/connectivity/lwm2m/examples/shared\commandline.c ****     int i;
 202:C:/Users/lenovo/Desktop/liteos/Project2/BearPi_LiteOS/components/connectivity/lwm2m/examples/shared\commandline.c **** 
 203:C:/Users/lenovo/Desktop/liteos/Project2/BearPi_LiteOS/components/connectivity/lwm2m/examples/shared\commandline.c ****     for ( i = 0 ; i < num ; i++)
ARM GAS  c:\Users\lenovo\AppData\Local\Temp\ccEGNnmz.s 			page 5


 204:C:/Users/lenovo/Desktop/liteos/Project2/BearPi_LiteOS/components/connectivity/lwm2m/examples/shared\commandline.c ****         fprintf(stream, "    ");
 205:C:/Users/lenovo/Desktop/liteos/Project2/BearPi_LiteOS/components/connectivity/lwm2m/examples/shared\commandline.c **** }
 206:C:/Users/lenovo/Desktop/liteos/Project2/BearPi_LiteOS/components/connectivity/lwm2m/examples/shared\commandline.c **** #ifdef ATING_DEBUG
 207:C:/Users/lenovo/Desktop/liteos/Project2/BearPi_LiteOS/components/connectivity/lwm2m/examples/shared\commandline.c **** void output_buffer(FILE *stream,
 208:C:/Users/lenovo/Desktop/liteos/Project2/BearPi_LiteOS/components/connectivity/lwm2m/examples/shared\commandline.c ****                    uint8_t *buffer,
 209:C:/Users/lenovo/Desktop/liteos/Project2/BearPi_LiteOS/components/connectivity/lwm2m/examples/shared\commandline.c ****                    int length,
 210:C:/Users/lenovo/Desktop/liteos/Project2/BearPi_LiteOS/components/connectivity/lwm2m/examples/shared\commandline.c ****                    int indent)
 211:C:/Users/lenovo/Desktop/liteos/Project2/BearPi_LiteOS/components/connectivity/lwm2m/examples/shared\commandline.c **** {
 212:C:/Users/lenovo/Desktop/liteos/Project2/BearPi_LiteOS/components/connectivity/lwm2m/examples/shared\commandline.c ****     int i;
 213:C:/Users/lenovo/Desktop/liteos/Project2/BearPi_LiteOS/components/connectivity/lwm2m/examples/shared\commandline.c **** 
 214:C:/Users/lenovo/Desktop/liteos/Project2/BearPi_LiteOS/components/connectivity/lwm2m/examples/shared\commandline.c ****     if (length == 0) fprintf(stream, "\n");
 215:C:/Users/lenovo/Desktop/liteos/Project2/BearPi_LiteOS/components/connectivity/lwm2m/examples/shared\commandline.c **** 
 216:C:/Users/lenovo/Desktop/liteos/Project2/BearPi_LiteOS/components/connectivity/lwm2m/examples/shared\commandline.c ****     if (buffer == NULL) return;
 217:C:/Users/lenovo/Desktop/liteos/Project2/BearPi_LiteOS/components/connectivity/lwm2m/examples/shared\commandline.c **** 
 218:C:/Users/lenovo/Desktop/liteos/Project2/BearPi_LiteOS/components/connectivity/lwm2m/examples/shared\commandline.c ****     i = 0;
 219:C:/Users/lenovo/Desktop/liteos/Project2/BearPi_LiteOS/components/connectivity/lwm2m/examples/shared\commandline.c ****     while (i < length)
 220:C:/Users/lenovo/Desktop/liteos/Project2/BearPi_LiteOS/components/connectivity/lwm2m/examples/shared\commandline.c ****     {
 221:C:/Users/lenovo/Desktop/liteos/Project2/BearPi_LiteOS/components/connectivity/lwm2m/examples/shared\commandline.c ****         uint8_t array[16];
 222:C:/Users/lenovo/Desktop/liteos/Project2/BearPi_LiteOS/components/connectivity/lwm2m/examples/shared\commandline.c ****         int j;
 223:C:/Users/lenovo/Desktop/liteos/Project2/BearPi_LiteOS/components/connectivity/lwm2m/examples/shared\commandline.c **** 
 224:C:/Users/lenovo/Desktop/liteos/Project2/BearPi_LiteOS/components/connectivity/lwm2m/examples/shared\commandline.c ****         print_indent(stream, indent);
 225:C:/Users/lenovo/Desktop/liteos/Project2/BearPi_LiteOS/components/connectivity/lwm2m/examples/shared\commandline.c ****         memcpy(array, buffer + i, 16);
 226:C:/Users/lenovo/Desktop/liteos/Project2/BearPi_LiteOS/components/connectivity/lwm2m/examples/shared\commandline.c ****         for (j = 0 ; j < 16 && i + j < length; j++)
 227:C:/Users/lenovo/Desktop/liteos/Project2/BearPi_LiteOS/components/connectivity/lwm2m/examples/shared\commandline.c ****         {
 228:C:/Users/lenovo/Desktop/liteos/Project2/BearPi_LiteOS/components/connectivity/lwm2m/examples/shared\commandline.c ****             fprintf(stream, "%02X ", array[j]);
 229:C:/Users/lenovo/Desktop/liteos/Project2/BearPi_LiteOS/components/connectivity/lwm2m/examples/shared\commandline.c ****             if (j % 4 == 3) fprintf(stream, " ");
 230:C:/Users/lenovo/Desktop/liteos/Project2/BearPi_LiteOS/components/connectivity/lwm2m/examples/shared\commandline.c ****         }
 231:C:/Users/lenovo/Desktop/liteos/Project2/BearPi_LiteOS/components/connectivity/lwm2m/examples/shared\commandline.c ****         if (length > 16)
 232:C:/Users/lenovo/Desktop/liteos/Project2/BearPi_LiteOS/components/connectivity/lwm2m/examples/shared\commandline.c ****         {
 233:C:/Users/lenovo/Desktop/liteos/Project2/BearPi_LiteOS/components/connectivity/lwm2m/examples/shared\commandline.c ****             while (j < 16)
 234:C:/Users/lenovo/Desktop/liteos/Project2/BearPi_LiteOS/components/connectivity/lwm2m/examples/shared\commandline.c ****             {
 235:C:/Users/lenovo/Desktop/liteos/Project2/BearPi_LiteOS/components/connectivity/lwm2m/examples/shared\commandline.c ****                 fprintf(stream, "   ");
 236:C:/Users/lenovo/Desktop/liteos/Project2/BearPi_LiteOS/components/connectivity/lwm2m/examples/shared\commandline.c ****                 if (j % 4 == 3) fprintf(stream, " ");
 237:C:/Users/lenovo/Desktop/liteos/Project2/BearPi_LiteOS/components/connectivity/lwm2m/examples/shared\commandline.c ****                 j++;
 238:C:/Users/lenovo/Desktop/liteos/Project2/BearPi_LiteOS/components/connectivity/lwm2m/examples/shared\commandline.c ****             }
 239:C:/Users/lenovo/Desktop/liteos/Project2/BearPi_LiteOS/components/connectivity/lwm2m/examples/shared\commandline.c ****         }
 240:C:/Users/lenovo/Desktop/liteos/Project2/BearPi_LiteOS/components/connectivity/lwm2m/examples/shared\commandline.c ****         fprintf(stream, " ");
 241:C:/Users/lenovo/Desktop/liteos/Project2/BearPi_LiteOS/components/connectivity/lwm2m/examples/shared\commandline.c ****         for (j = 0 ; j < 16 && i + j < length; j++)
 242:C:/Users/lenovo/Desktop/liteos/Project2/BearPi_LiteOS/components/connectivity/lwm2m/examples/shared\commandline.c ****         {
 243:C:/Users/lenovo/Desktop/liteos/Project2/BearPi_LiteOS/components/connectivity/lwm2m/examples/shared\commandline.c ****             if (isprint(array[j]))
 244:C:/Users/lenovo/Desktop/liteos/Project2/BearPi_LiteOS/components/connectivity/lwm2m/examples/shared\commandline.c ****                 fprintf(stream, "%c", array[j]);
 245:C:/Users/lenovo/Desktop/liteos/Project2/BearPi_LiteOS/components/connectivity/lwm2m/examples/shared\commandline.c ****             else
 246:C:/Users/lenovo/Desktop/liteos/Project2/BearPi_LiteOS/components/connectivity/lwm2m/examples/shared\commandline.c ****                 fprintf(stream, ".");
 247:C:/Users/lenovo/Desktop/liteos/Project2/BearPi_LiteOS/components/connectivity/lwm2m/examples/shared\commandline.c ****         }
 248:C:/Users/lenovo/Desktop/liteos/Project2/BearPi_LiteOS/components/connectivity/lwm2m/examples/shared\commandline.c ****         fprintf(stream, "\n");
 249:C:/Users/lenovo/Desktop/liteos/Project2/BearPi_LiteOS/components/connectivity/lwm2m/examples/shared\commandline.c ****         i += 16;
 250:C:/Users/lenovo/Desktop/liteos/Project2/BearPi_LiteOS/components/connectivity/lwm2m/examples/shared\commandline.c ****     }
 251:C:/Users/lenovo/Desktop/liteos/Project2/BearPi_LiteOS/components/connectivity/lwm2m/examples/shared\commandline.c **** }
 252:C:/Users/lenovo/Desktop/liteos/Project2/BearPi_LiteOS/components/connectivity/lwm2m/examples/shared\commandline.c **** #else
 253:C:/Users/lenovo/Desktop/liteos/Project2/BearPi_LiteOS/components/connectivity/lwm2m/examples/shared\commandline.c **** void output_buffer(FILE *stream,
 254:C:/Users/lenovo/Desktop/liteos/Project2/BearPi_LiteOS/components/connectivity/lwm2m/examples/shared\commandline.c ****                    uint8_t *buffer,
 255:C:/Users/lenovo/Desktop/liteos/Project2/BearPi_LiteOS/components/connectivity/lwm2m/examples/shared\commandline.c ****                    int length,
 256:C:/Users/lenovo/Desktop/liteos/Project2/BearPi_LiteOS/components/connectivity/lwm2m/examples/shared\commandline.c ****                    int indent)
 257:C:/Users/lenovo/Desktop/liteos/Project2/BearPi_LiteOS/components/connectivity/lwm2m/examples/shared\commandline.c **** {
 258:C:/Users/lenovo/Desktop/liteos/Project2/BearPi_LiteOS/components/connectivity/lwm2m/examples/shared\commandline.c **** }
 259:C:/Users/lenovo/Desktop/liteos/Project2/BearPi_LiteOS/components/connectivity/lwm2m/examples/shared\commandline.c **** #endif
 260:C:/Users/lenovo/Desktop/liteos/Project2/BearPi_LiteOS/components/connectivity/lwm2m/examples/shared\commandline.c **** void output_tlv(FILE *stream,
ARM GAS  c:\Users\lenovo\AppData\Local\Temp\ccEGNnmz.s 			page 6


 261:C:/Users/lenovo/Desktop/liteos/Project2/BearPi_LiteOS/components/connectivity/lwm2m/examples/shared\commandline.c ****                 uint8_t *buffer,
 262:C:/Users/lenovo/Desktop/liteos/Project2/BearPi_LiteOS/components/connectivity/lwm2m/examples/shared\commandline.c ****                 size_t buffer_len,
 263:C:/Users/lenovo/Desktop/liteos/Project2/BearPi_LiteOS/components/connectivity/lwm2m/examples/shared\commandline.c ****                 int indent)
 264:C:/Users/lenovo/Desktop/liteos/Project2/BearPi_LiteOS/components/connectivity/lwm2m/examples/shared\commandline.c **** {
 265:C:/Users/lenovo/Desktop/liteos/Project2/BearPi_LiteOS/components/connectivity/lwm2m/examples/shared\commandline.c ****     lwm2m_data_type_t type;
 266:C:/Users/lenovo/Desktop/liteos/Project2/BearPi_LiteOS/components/connectivity/lwm2m/examples/shared\commandline.c ****     uint16_t id;
 267:C:/Users/lenovo/Desktop/liteos/Project2/BearPi_LiteOS/components/connectivity/lwm2m/examples/shared\commandline.c ****     size_t dataIndex;
 268:C:/Users/lenovo/Desktop/liteos/Project2/BearPi_LiteOS/components/connectivity/lwm2m/examples/shared\commandline.c ****     size_t dataLen;
 269:C:/Users/lenovo/Desktop/liteos/Project2/BearPi_LiteOS/components/connectivity/lwm2m/examples/shared\commandline.c ****     int length = 0;
 270:C:/Users/lenovo/Desktop/liteos/Project2/BearPi_LiteOS/components/connectivity/lwm2m/examples/shared\commandline.c ****     int result;
 271:C:/Users/lenovo/Desktop/liteos/Project2/BearPi_LiteOS/components/connectivity/lwm2m/examples/shared\commandline.c **** 
 272:C:/Users/lenovo/Desktop/liteos/Project2/BearPi_LiteOS/components/connectivity/lwm2m/examples/shared\commandline.c ****     while (0 != (result = lwm2m_decode_TLV((uint8_t *)buffer + length, buffer_len - length, &type, 
 273:C:/Users/lenovo/Desktop/liteos/Project2/BearPi_LiteOS/components/connectivity/lwm2m/examples/shared\commandline.c ****     {
 274:C:/Users/lenovo/Desktop/liteos/Project2/BearPi_LiteOS/components/connectivity/lwm2m/examples/shared\commandline.c ****         print_indent(stream, indent);
 275:C:/Users/lenovo/Desktop/liteos/Project2/BearPi_LiteOS/components/connectivity/lwm2m/examples/shared\commandline.c ****         fprintf(stream, "{\r\n");
 276:C:/Users/lenovo/Desktop/liteos/Project2/BearPi_LiteOS/components/connectivity/lwm2m/examples/shared\commandline.c ****         print_indent(stream, indent + 1);
 277:C:/Users/lenovo/Desktop/liteos/Project2/BearPi_LiteOS/components/connectivity/lwm2m/examples/shared\commandline.c ****         fprintf(stream, "ID: %d", id);
 278:C:/Users/lenovo/Desktop/liteos/Project2/BearPi_LiteOS/components/connectivity/lwm2m/examples/shared\commandline.c **** 
 279:C:/Users/lenovo/Desktop/liteos/Project2/BearPi_LiteOS/components/connectivity/lwm2m/examples/shared\commandline.c ****         fprintf(stream, " type: ");
 280:C:/Users/lenovo/Desktop/liteos/Project2/BearPi_LiteOS/components/connectivity/lwm2m/examples/shared\commandline.c ****         switch (type)
 281:C:/Users/lenovo/Desktop/liteos/Project2/BearPi_LiteOS/components/connectivity/lwm2m/examples/shared\commandline.c ****         {
 282:C:/Users/lenovo/Desktop/liteos/Project2/BearPi_LiteOS/components/connectivity/lwm2m/examples/shared\commandline.c ****         case LWM2M_TYPE_OBJECT_INSTANCE:
 283:C:/Users/lenovo/Desktop/liteos/Project2/BearPi_LiteOS/components/connectivity/lwm2m/examples/shared\commandline.c ****             fprintf(stream, "Object Instance");
 284:C:/Users/lenovo/Desktop/liteos/Project2/BearPi_LiteOS/components/connectivity/lwm2m/examples/shared\commandline.c ****             break;
 285:C:/Users/lenovo/Desktop/liteos/Project2/BearPi_LiteOS/components/connectivity/lwm2m/examples/shared\commandline.c ****         case LWM2M_TYPE_MULTIPLE_RESOURCE:
 286:C:/Users/lenovo/Desktop/liteos/Project2/BearPi_LiteOS/components/connectivity/lwm2m/examples/shared\commandline.c ****             fprintf(stream, "Multiple Instances");
 287:C:/Users/lenovo/Desktop/liteos/Project2/BearPi_LiteOS/components/connectivity/lwm2m/examples/shared\commandline.c ****             break;
 288:C:/Users/lenovo/Desktop/liteos/Project2/BearPi_LiteOS/components/connectivity/lwm2m/examples/shared\commandline.c ****         case LWM2M_TYPE_OPAQUE:
 289:C:/Users/lenovo/Desktop/liteos/Project2/BearPi_LiteOS/components/connectivity/lwm2m/examples/shared\commandline.c ****             fprintf(stream, "Resource Value");
 290:C:/Users/lenovo/Desktop/liteos/Project2/BearPi_LiteOS/components/connectivity/lwm2m/examples/shared\commandline.c ****             break;
 291:C:/Users/lenovo/Desktop/liteos/Project2/BearPi_LiteOS/components/connectivity/lwm2m/examples/shared\commandline.c ****         default:
 292:C:/Users/lenovo/Desktop/liteos/Project2/BearPi_LiteOS/components/connectivity/lwm2m/examples/shared\commandline.c ****             printf("unknown (%d)", (int)type);
 293:C:/Users/lenovo/Desktop/liteos/Project2/BearPi_LiteOS/components/connectivity/lwm2m/examples/shared\commandline.c ****             break;
 294:C:/Users/lenovo/Desktop/liteos/Project2/BearPi_LiteOS/components/connectivity/lwm2m/examples/shared\commandline.c ****         }
 295:C:/Users/lenovo/Desktop/liteos/Project2/BearPi_LiteOS/components/connectivity/lwm2m/examples/shared\commandline.c ****         fprintf(stream, "\n");
 296:C:/Users/lenovo/Desktop/liteos/Project2/BearPi_LiteOS/components/connectivity/lwm2m/examples/shared\commandline.c **** 
 297:C:/Users/lenovo/Desktop/liteos/Project2/BearPi_LiteOS/components/connectivity/lwm2m/examples/shared\commandline.c ****         print_indent(stream, indent + 1);
 298:C:/Users/lenovo/Desktop/liteos/Project2/BearPi_LiteOS/components/connectivity/lwm2m/examples/shared\commandline.c ****         fprintf(stream, "{\n");
 299:C:/Users/lenovo/Desktop/liteos/Project2/BearPi_LiteOS/components/connectivity/lwm2m/examples/shared\commandline.c ****         if (type == LWM2M_TYPE_OBJECT_INSTANCE || type == LWM2M_TYPE_MULTIPLE_RESOURCE)
 300:C:/Users/lenovo/Desktop/liteos/Project2/BearPi_LiteOS/components/connectivity/lwm2m/examples/shared\commandline.c ****         {
 301:C:/Users/lenovo/Desktop/liteos/Project2/BearPi_LiteOS/components/connectivity/lwm2m/examples/shared\commandline.c ****             output_tlv(stream, buffer + length + dataIndex, dataLen, indent + 1);
 302:C:/Users/lenovo/Desktop/liteos/Project2/BearPi_LiteOS/components/connectivity/lwm2m/examples/shared\commandline.c ****         }
 303:C:/Users/lenovo/Desktop/liteos/Project2/BearPi_LiteOS/components/connectivity/lwm2m/examples/shared\commandline.c ****         else
 304:C:/Users/lenovo/Desktop/liteos/Project2/BearPi_LiteOS/components/connectivity/lwm2m/examples/shared\commandline.c ****         {
 305:C:/Users/lenovo/Desktop/liteos/Project2/BearPi_LiteOS/components/connectivity/lwm2m/examples/shared\commandline.c ****             int64_t intValue;
 306:C:/Users/lenovo/Desktop/liteos/Project2/BearPi_LiteOS/components/connectivity/lwm2m/examples/shared\commandline.c ****             double floatValue;
 307:C:/Users/lenovo/Desktop/liteos/Project2/BearPi_LiteOS/components/connectivity/lwm2m/examples/shared\commandline.c ****             uint8_t tmp;
 308:C:/Users/lenovo/Desktop/liteos/Project2/BearPi_LiteOS/components/connectivity/lwm2m/examples/shared\commandline.c **** 
 309:C:/Users/lenovo/Desktop/liteos/Project2/BearPi_LiteOS/components/connectivity/lwm2m/examples/shared\commandline.c ****             print_indent(stream, indent + 2);
 310:C:/Users/lenovo/Desktop/liteos/Project2/BearPi_LiteOS/components/connectivity/lwm2m/examples/shared\commandline.c ****             fprintf(stream, "data (%d bytes):\r\n", dataLen);
 311:C:/Users/lenovo/Desktop/liteos/Project2/BearPi_LiteOS/components/connectivity/lwm2m/examples/shared\commandline.c ****             output_buffer(stream, (uint8_t *)buffer + length + dataIndex, dataLen, indent + 2);
 312:C:/Users/lenovo/Desktop/liteos/Project2/BearPi_LiteOS/components/connectivity/lwm2m/examples/shared\commandline.c **** 
 313:C:/Users/lenovo/Desktop/liteos/Project2/BearPi_LiteOS/components/connectivity/lwm2m/examples/shared\commandline.c ****             tmp = buffer[length + dataIndex + dataLen];
 314:C:/Users/lenovo/Desktop/liteos/Project2/BearPi_LiteOS/components/connectivity/lwm2m/examples/shared\commandline.c ****             buffer[length + dataIndex + dataLen] = 0;
 315:C:/Users/lenovo/Desktop/liteos/Project2/BearPi_LiteOS/components/connectivity/lwm2m/examples/shared\commandline.c ****             if (0 < sscanf((const char *)buffer + length + dataIndex, "%"PRId64, &intValue))
 316:C:/Users/lenovo/Desktop/liteos/Project2/BearPi_LiteOS/components/connectivity/lwm2m/examples/shared\commandline.c ****             {
 317:C:/Users/lenovo/Desktop/liteos/Project2/BearPi_LiteOS/components/connectivity/lwm2m/examples/shared\commandline.c ****                 print_indent(stream, indent + 2);
ARM GAS  c:\Users\lenovo\AppData\Local\Temp\ccEGNnmz.s 			page 7


 318:C:/Users/lenovo/Desktop/liteos/Project2/BearPi_LiteOS/components/connectivity/lwm2m/examples/shared\commandline.c ****                 fprintf(stream, "data as Integer: %" PRId64 "\r\n", intValue);
 319:C:/Users/lenovo/Desktop/liteos/Project2/BearPi_LiteOS/components/connectivity/lwm2m/examples/shared\commandline.c ****             }
 320:C:/Users/lenovo/Desktop/liteos/Project2/BearPi_LiteOS/components/connectivity/lwm2m/examples/shared\commandline.c ****             if (0 < sscanf((const char *)buffer + length + dataIndex, "%lg", &floatValue))
 321:C:/Users/lenovo/Desktop/liteos/Project2/BearPi_LiteOS/components/connectivity/lwm2m/examples/shared\commandline.c ****             {
 322:C:/Users/lenovo/Desktop/liteos/Project2/BearPi_LiteOS/components/connectivity/lwm2m/examples/shared\commandline.c ****                 print_indent(stream, indent + 2);
 323:C:/Users/lenovo/Desktop/liteos/Project2/BearPi_LiteOS/components/connectivity/lwm2m/examples/shared\commandline.c ****                 fprintf(stream, "data as Float: %.16g\r\n", floatValue);
 324:C:/Users/lenovo/Desktop/liteos/Project2/BearPi_LiteOS/components/connectivity/lwm2m/examples/shared\commandline.c ****             }
 325:C:/Users/lenovo/Desktop/liteos/Project2/BearPi_LiteOS/components/connectivity/lwm2m/examples/shared\commandline.c ****             buffer[length + dataIndex + dataLen] = tmp;
 326:C:/Users/lenovo/Desktop/liteos/Project2/BearPi_LiteOS/components/connectivity/lwm2m/examples/shared\commandline.c ****         }
 327:C:/Users/lenovo/Desktop/liteos/Project2/BearPi_LiteOS/components/connectivity/lwm2m/examples/shared\commandline.c ****         print_indent(stream, indent + 1);
 328:C:/Users/lenovo/Desktop/liteos/Project2/BearPi_LiteOS/components/connectivity/lwm2m/examples/shared\commandline.c ****         fprintf(stream, "}\r\n");
 329:C:/Users/lenovo/Desktop/liteos/Project2/BearPi_LiteOS/components/connectivity/lwm2m/examples/shared\commandline.c ****         length += result;
 330:C:/Users/lenovo/Desktop/liteos/Project2/BearPi_LiteOS/components/connectivity/lwm2m/examples/shared\commandline.c ****         print_indent(stream, indent);
 331:C:/Users/lenovo/Desktop/liteos/Project2/BearPi_LiteOS/components/connectivity/lwm2m/examples/shared\commandline.c ****         fprintf(stream, "}\r\n");
 332:C:/Users/lenovo/Desktop/liteos/Project2/BearPi_LiteOS/components/connectivity/lwm2m/examples/shared\commandline.c ****     }
 333:C:/Users/lenovo/Desktop/liteos/Project2/BearPi_LiteOS/components/connectivity/lwm2m/examples/shared\commandline.c **** }
 334:C:/Users/lenovo/Desktop/liteos/Project2/BearPi_LiteOS/components/connectivity/lwm2m/examples/shared\commandline.c **** 
 335:C:/Users/lenovo/Desktop/liteos/Project2/BearPi_LiteOS/components/connectivity/lwm2m/examples/shared\commandline.c **** void output_data(FILE *stream,
 336:C:/Users/lenovo/Desktop/liteos/Project2/BearPi_LiteOS/components/connectivity/lwm2m/examples/shared\commandline.c ****                  lwm2m_media_type_t format,
 337:C:/Users/lenovo/Desktop/liteos/Project2/BearPi_LiteOS/components/connectivity/lwm2m/examples/shared\commandline.c ****                  uint8_t *data,
 338:C:/Users/lenovo/Desktop/liteos/Project2/BearPi_LiteOS/components/connectivity/lwm2m/examples/shared\commandline.c ****                  int dataLength,
 339:C:/Users/lenovo/Desktop/liteos/Project2/BearPi_LiteOS/components/connectivity/lwm2m/examples/shared\commandline.c ****                  int indent)
 340:C:/Users/lenovo/Desktop/liteos/Project2/BearPi_LiteOS/components/connectivity/lwm2m/examples/shared\commandline.c **** {
 341:C:/Users/lenovo/Desktop/liteos/Project2/BearPi_LiteOS/components/connectivity/lwm2m/examples/shared\commandline.c ****     int i;
 342:C:/Users/lenovo/Desktop/liteos/Project2/BearPi_LiteOS/components/connectivity/lwm2m/examples/shared\commandline.c **** 
 343:C:/Users/lenovo/Desktop/liteos/Project2/BearPi_LiteOS/components/connectivity/lwm2m/examples/shared\commandline.c ****     print_indent(stream, indent);
 344:C:/Users/lenovo/Desktop/liteos/Project2/BearPi_LiteOS/components/connectivity/lwm2m/examples/shared\commandline.c ****     fprintf(stream, "%d bytes received of type ", dataLength);
 345:C:/Users/lenovo/Desktop/liteos/Project2/BearPi_LiteOS/components/connectivity/lwm2m/examples/shared\commandline.c **** 
 346:C:/Users/lenovo/Desktop/liteos/Project2/BearPi_LiteOS/components/connectivity/lwm2m/examples/shared\commandline.c ****     switch (format)
 347:C:/Users/lenovo/Desktop/liteos/Project2/BearPi_LiteOS/components/connectivity/lwm2m/examples/shared\commandline.c ****     {
 348:C:/Users/lenovo/Desktop/liteos/Project2/BearPi_LiteOS/components/connectivity/lwm2m/examples/shared\commandline.c ****     case LWM2M_CONTENT_TEXT:
 349:C:/Users/lenovo/Desktop/liteos/Project2/BearPi_LiteOS/components/connectivity/lwm2m/examples/shared\commandline.c ****         fprintf(stream, "text/plain:\r\n");
 350:C:/Users/lenovo/Desktop/liteos/Project2/BearPi_LiteOS/components/connectivity/lwm2m/examples/shared\commandline.c ****         output_buffer(stream, data, dataLength, indent);
 351:C:/Users/lenovo/Desktop/liteos/Project2/BearPi_LiteOS/components/connectivity/lwm2m/examples/shared\commandline.c ****         break;
 352:C:/Users/lenovo/Desktop/liteos/Project2/BearPi_LiteOS/components/connectivity/lwm2m/examples/shared\commandline.c **** 
 353:C:/Users/lenovo/Desktop/liteos/Project2/BearPi_LiteOS/components/connectivity/lwm2m/examples/shared\commandline.c ****     case LWM2M_CONTENT_OPAQUE:
 354:C:/Users/lenovo/Desktop/liteos/Project2/BearPi_LiteOS/components/connectivity/lwm2m/examples/shared\commandline.c ****         fprintf(stream, "application/octet-stream:\r\n");
 355:C:/Users/lenovo/Desktop/liteos/Project2/BearPi_LiteOS/components/connectivity/lwm2m/examples/shared\commandline.c ****         output_buffer(stream, data, dataLength, indent);
 356:C:/Users/lenovo/Desktop/liteos/Project2/BearPi_LiteOS/components/connectivity/lwm2m/examples/shared\commandline.c ****         break;
 357:C:/Users/lenovo/Desktop/liteos/Project2/BearPi_LiteOS/components/connectivity/lwm2m/examples/shared\commandline.c **** 
 358:C:/Users/lenovo/Desktop/liteos/Project2/BearPi_LiteOS/components/connectivity/lwm2m/examples/shared\commandline.c ****     case LWM2M_CONTENT_TLV:
 359:C:/Users/lenovo/Desktop/liteos/Project2/BearPi_LiteOS/components/connectivity/lwm2m/examples/shared\commandline.c ****         fprintf(stream, "application/vnd.oma.lwm2m+tlv:\r\n");
 360:C:/Users/lenovo/Desktop/liteos/Project2/BearPi_LiteOS/components/connectivity/lwm2m/examples/shared\commandline.c ****         output_tlv(stream, data, dataLength, indent);
 361:C:/Users/lenovo/Desktop/liteos/Project2/BearPi_LiteOS/components/connectivity/lwm2m/examples/shared\commandline.c ****         break;
 362:C:/Users/lenovo/Desktop/liteos/Project2/BearPi_LiteOS/components/connectivity/lwm2m/examples/shared\commandline.c **** 
 363:C:/Users/lenovo/Desktop/liteos/Project2/BearPi_LiteOS/components/connectivity/lwm2m/examples/shared\commandline.c ****     case LWM2M_CONTENT_JSON:
 364:C:/Users/lenovo/Desktop/liteos/Project2/BearPi_LiteOS/components/connectivity/lwm2m/examples/shared\commandline.c ****         fprintf(stream, "application/vnd.oma.lwm2m+json:\r\n");
 365:C:/Users/lenovo/Desktop/liteos/Project2/BearPi_LiteOS/components/connectivity/lwm2m/examples/shared\commandline.c ****         print_indent(stream, indent);
 366:C:/Users/lenovo/Desktop/liteos/Project2/BearPi_LiteOS/components/connectivity/lwm2m/examples/shared\commandline.c ****         for (i = 0 ; i < dataLength ; i++)
 367:C:/Users/lenovo/Desktop/liteos/Project2/BearPi_LiteOS/components/connectivity/lwm2m/examples/shared\commandline.c ****         {
 368:C:/Users/lenovo/Desktop/liteos/Project2/BearPi_LiteOS/components/connectivity/lwm2m/examples/shared\commandline.c ****             fprintf(stream, "%c", data[i]);
 369:C:/Users/lenovo/Desktop/liteos/Project2/BearPi_LiteOS/components/connectivity/lwm2m/examples/shared\commandline.c ****         }
 370:C:/Users/lenovo/Desktop/liteos/Project2/BearPi_LiteOS/components/connectivity/lwm2m/examples/shared\commandline.c ****         fprintf(stream, "\n");
 371:C:/Users/lenovo/Desktop/liteos/Project2/BearPi_LiteOS/components/connectivity/lwm2m/examples/shared\commandline.c ****         break;
 372:C:/Users/lenovo/Desktop/liteos/Project2/BearPi_LiteOS/components/connectivity/lwm2m/examples/shared\commandline.c **** 
 373:C:/Users/lenovo/Desktop/liteos/Project2/BearPi_LiteOS/components/connectivity/lwm2m/examples/shared\commandline.c ****     case LWM2M_CONTENT_LINK:
 374:C:/Users/lenovo/Desktop/liteos/Project2/BearPi_LiteOS/components/connectivity/lwm2m/examples/shared\commandline.c ****         fprintf(stream, "application/link-format:\r\n");
ARM GAS  c:\Users\lenovo\AppData\Local\Temp\ccEGNnmz.s 			page 8


 375:C:/Users/lenovo/Desktop/liteos/Project2/BearPi_LiteOS/components/connectivity/lwm2m/examples/shared\commandline.c ****         print_indent(stream, indent);
 376:C:/Users/lenovo/Desktop/liteos/Project2/BearPi_LiteOS/components/connectivity/lwm2m/examples/shared\commandline.c ****         for (i = 0 ; i < dataLength ; i++)
 377:C:/Users/lenovo/Desktop/liteos/Project2/BearPi_LiteOS/components/connectivity/lwm2m/examples/shared\commandline.c ****         {
 378:C:/Users/lenovo/Desktop/liteos/Project2/BearPi_LiteOS/components/connectivity/lwm2m/examples/shared\commandline.c ****             fprintf(stream, "%c", data[i]);
 379:C:/Users/lenovo/Desktop/liteos/Project2/BearPi_LiteOS/components/connectivity/lwm2m/examples/shared\commandline.c ****         }
 380:C:/Users/lenovo/Desktop/liteos/Project2/BearPi_LiteOS/components/connectivity/lwm2m/examples/shared\commandline.c ****         fprintf(stream, "\n");
 381:C:/Users/lenovo/Desktop/liteos/Project2/BearPi_LiteOS/components/connectivity/lwm2m/examples/shared\commandline.c ****         break;
 382:C:/Users/lenovo/Desktop/liteos/Project2/BearPi_LiteOS/components/connectivity/lwm2m/examples/shared\commandline.c **** 
 383:C:/Users/lenovo/Desktop/liteos/Project2/BearPi_LiteOS/components/connectivity/lwm2m/examples/shared\commandline.c ****     default:
 384:C:/Users/lenovo/Desktop/liteos/Project2/BearPi_LiteOS/components/connectivity/lwm2m/examples/shared\commandline.c ****         fprintf(stream, "Unknown (%d):\r\n", format);
 385:C:/Users/lenovo/Desktop/liteos/Project2/BearPi_LiteOS/components/connectivity/lwm2m/examples/shared\commandline.c ****         output_buffer(stream, data, dataLength, indent);
 386:C:/Users/lenovo/Desktop/liteos/Project2/BearPi_LiteOS/components/connectivity/lwm2m/examples/shared\commandline.c ****         break;
 387:C:/Users/lenovo/Desktop/liteos/Project2/BearPi_LiteOS/components/connectivity/lwm2m/examples/shared\commandline.c ****     }
 388:C:/Users/lenovo/Desktop/liteos/Project2/BearPi_LiteOS/components/connectivity/lwm2m/examples/shared\commandline.c **** }
 389:C:/Users/lenovo/Desktop/liteos/Project2/BearPi_LiteOS/components/connectivity/lwm2m/examples/shared\commandline.c **** 
 390:C:/Users/lenovo/Desktop/liteos/Project2/BearPi_LiteOS/components/connectivity/lwm2m/examples/shared\commandline.c **** void dump_tlv(FILE *stream,
 391:C:/Users/lenovo/Desktop/liteos/Project2/BearPi_LiteOS/components/connectivity/lwm2m/examples/shared\commandline.c ****               int size,
 392:C:/Users/lenovo/Desktop/liteos/Project2/BearPi_LiteOS/components/connectivity/lwm2m/examples/shared\commandline.c ****               lwm2m_data_t *dataP,
 393:C:/Users/lenovo/Desktop/liteos/Project2/BearPi_LiteOS/components/connectivity/lwm2m/examples/shared\commandline.c ****               int indent)
 394:C:/Users/lenovo/Desktop/liteos/Project2/BearPi_LiteOS/components/connectivity/lwm2m/examples/shared\commandline.c **** {
 395:C:/Users/lenovo/Desktop/liteos/Project2/BearPi_LiteOS/components/connectivity/lwm2m/examples/shared\commandline.c ****     int i;
 396:C:/Users/lenovo/Desktop/liteos/Project2/BearPi_LiteOS/components/connectivity/lwm2m/examples/shared\commandline.c **** 
 397:C:/Users/lenovo/Desktop/liteos/Project2/BearPi_LiteOS/components/connectivity/lwm2m/examples/shared\commandline.c ****     for(i = 0 ; i < size ; i++)
 398:C:/Users/lenovo/Desktop/liteos/Project2/BearPi_LiteOS/components/connectivity/lwm2m/examples/shared\commandline.c ****     {
 399:C:/Users/lenovo/Desktop/liteos/Project2/BearPi_LiteOS/components/connectivity/lwm2m/examples/shared\commandline.c ****         print_indent(stream, indent);
 400:C:/Users/lenovo/Desktop/liteos/Project2/BearPi_LiteOS/components/connectivity/lwm2m/examples/shared\commandline.c ****         fprintf(stream, "{\r\n");
 401:C:/Users/lenovo/Desktop/liteos/Project2/BearPi_LiteOS/components/connectivity/lwm2m/examples/shared\commandline.c ****         print_indent(stream, indent + 1);
 402:C:/Users/lenovo/Desktop/liteos/Project2/BearPi_LiteOS/components/connectivity/lwm2m/examples/shared\commandline.c ****         fprintf(stream, "id: %d\r\n", dataP[i].id);
 403:C:/Users/lenovo/Desktop/liteos/Project2/BearPi_LiteOS/components/connectivity/lwm2m/examples/shared\commandline.c **** 
 404:C:/Users/lenovo/Desktop/liteos/Project2/BearPi_LiteOS/components/connectivity/lwm2m/examples/shared\commandline.c ****         print_indent(stream, indent + 1);
 405:C:/Users/lenovo/Desktop/liteos/Project2/BearPi_LiteOS/components/connectivity/lwm2m/examples/shared\commandline.c ****         fprintf(stream, "type: ");
 406:C:/Users/lenovo/Desktop/liteos/Project2/BearPi_LiteOS/components/connectivity/lwm2m/examples/shared\commandline.c ****         switch (dataP[i].type)
 407:C:/Users/lenovo/Desktop/liteos/Project2/BearPi_LiteOS/components/connectivity/lwm2m/examples/shared\commandline.c ****         {
 408:C:/Users/lenovo/Desktop/liteos/Project2/BearPi_LiteOS/components/connectivity/lwm2m/examples/shared\commandline.c ****         case LWM2M_TYPE_OBJECT:
 409:C:/Users/lenovo/Desktop/liteos/Project2/BearPi_LiteOS/components/connectivity/lwm2m/examples/shared\commandline.c ****             fprintf(stream, "LWM2M_TYPE_OBJECT\r\n");
 410:C:/Users/lenovo/Desktop/liteos/Project2/BearPi_LiteOS/components/connectivity/lwm2m/examples/shared\commandline.c ****             dump_tlv(stream, dataP[i].value.asChildren.count, dataP[i].value.asChildren.array, inde
 411:C:/Users/lenovo/Desktop/liteos/Project2/BearPi_LiteOS/components/connectivity/lwm2m/examples/shared\commandline.c ****             break;
 412:C:/Users/lenovo/Desktop/liteos/Project2/BearPi_LiteOS/components/connectivity/lwm2m/examples/shared\commandline.c ****         case LWM2M_TYPE_OBJECT_INSTANCE:
 413:C:/Users/lenovo/Desktop/liteos/Project2/BearPi_LiteOS/components/connectivity/lwm2m/examples/shared\commandline.c ****             fprintf(stream, "LWM2M_TYPE_OBJECT_INSTANCE\r\n");
 414:C:/Users/lenovo/Desktop/liteos/Project2/BearPi_LiteOS/components/connectivity/lwm2m/examples/shared\commandline.c ****             dump_tlv(stream, dataP[i].value.asChildren.count, dataP[i].value.asChildren.array, inde
 415:C:/Users/lenovo/Desktop/liteos/Project2/BearPi_LiteOS/components/connectivity/lwm2m/examples/shared\commandline.c ****             break;
 416:C:/Users/lenovo/Desktop/liteos/Project2/BearPi_LiteOS/components/connectivity/lwm2m/examples/shared\commandline.c ****         case LWM2M_TYPE_MULTIPLE_RESOURCE:
 417:C:/Users/lenovo/Desktop/liteos/Project2/BearPi_LiteOS/components/connectivity/lwm2m/examples/shared\commandline.c ****             fprintf(stream, "LWM2M_TYPE_MULTIPLE_RESOURCE\r\n");
 418:C:/Users/lenovo/Desktop/liteos/Project2/BearPi_LiteOS/components/connectivity/lwm2m/examples/shared\commandline.c ****             dump_tlv(stream, dataP[i].value.asChildren.count, dataP[i].value.asChildren.array, inde
 419:C:/Users/lenovo/Desktop/liteos/Project2/BearPi_LiteOS/components/connectivity/lwm2m/examples/shared\commandline.c ****             break;
 420:C:/Users/lenovo/Desktop/liteos/Project2/BearPi_LiteOS/components/connectivity/lwm2m/examples/shared\commandline.c ****         case LWM2M_TYPE_UNDEFINED:
 421:C:/Users/lenovo/Desktop/liteos/Project2/BearPi_LiteOS/components/connectivity/lwm2m/examples/shared\commandline.c ****             fprintf(stream, "LWM2M_TYPE_UNDEFINED\r\n");
 422:C:/Users/lenovo/Desktop/liteos/Project2/BearPi_LiteOS/components/connectivity/lwm2m/examples/shared\commandline.c ****             break;
 423:C:/Users/lenovo/Desktop/liteos/Project2/BearPi_LiteOS/components/connectivity/lwm2m/examples/shared\commandline.c ****         case LWM2M_TYPE_STRING:
 424:C:/Users/lenovo/Desktop/liteos/Project2/BearPi_LiteOS/components/connectivity/lwm2m/examples/shared\commandline.c ****             fprintf(stream, "LWM2M_TYPE_STRING\r\n");
 425:C:/Users/lenovo/Desktop/liteos/Project2/BearPi_LiteOS/components/connectivity/lwm2m/examples/shared\commandline.c ****             print_indent(stream, indent + 1);
 426:C:/Users/lenovo/Desktop/liteos/Project2/BearPi_LiteOS/components/connectivity/lwm2m/examples/shared\commandline.c ****             fprintf(stream, "\"%.*s\"\r\n", (int)dataP[i].value.asBuffer.length, dataP[i].value.asB
 427:C:/Users/lenovo/Desktop/liteos/Project2/BearPi_LiteOS/components/connectivity/lwm2m/examples/shared\commandline.c ****             break;
 428:C:/Users/lenovo/Desktop/liteos/Project2/BearPi_LiteOS/components/connectivity/lwm2m/examples/shared\commandline.c ****         case LWM2M_TYPE_OPAQUE:
 429:C:/Users/lenovo/Desktop/liteos/Project2/BearPi_LiteOS/components/connectivity/lwm2m/examples/shared\commandline.c ****             fprintf(stream, "LWM2M_TYPE_OPAQUE\r\n");
 430:C:/Users/lenovo/Desktop/liteos/Project2/BearPi_LiteOS/components/connectivity/lwm2m/examples/shared\commandline.c ****             output_buffer(stream, dataP[i].value.asBuffer.buffer, dataP[i].value.asBuffer.length, i
 431:C:/Users/lenovo/Desktop/liteos/Project2/BearPi_LiteOS/components/connectivity/lwm2m/examples/shared\commandline.c ****             break;
ARM GAS  c:\Users\lenovo\AppData\Local\Temp\ccEGNnmz.s 			page 9


 432:C:/Users/lenovo/Desktop/liteos/Project2/BearPi_LiteOS/components/connectivity/lwm2m/examples/shared\commandline.c ****         case LWM2M_TYPE_INTEGER:
 433:C:/Users/lenovo/Desktop/liteos/Project2/BearPi_LiteOS/components/connectivity/lwm2m/examples/shared\commandline.c ****             fprintf(stream, "LWM2M_TYPE_INTEGER: ");
 434:C:/Users/lenovo/Desktop/liteos/Project2/BearPi_LiteOS/components/connectivity/lwm2m/examples/shared\commandline.c ****             print_indent(stream, indent + 1);
 435:C:/Users/lenovo/Desktop/liteos/Project2/BearPi_LiteOS/components/connectivity/lwm2m/examples/shared\commandline.c ****             fprintf(stream, "%" PRId64, dataP[i].value.asInteger);
 436:C:/Users/lenovo/Desktop/liteos/Project2/BearPi_LiteOS/components/connectivity/lwm2m/examples/shared\commandline.c ****             fprintf(stream, "\r\n");
 437:C:/Users/lenovo/Desktop/liteos/Project2/BearPi_LiteOS/components/connectivity/lwm2m/examples/shared\commandline.c ****             break;
 438:C:/Users/lenovo/Desktop/liteos/Project2/BearPi_LiteOS/components/connectivity/lwm2m/examples/shared\commandline.c ****         case LWM2M_TYPE_FLOAT:
 439:C:/Users/lenovo/Desktop/liteos/Project2/BearPi_LiteOS/components/connectivity/lwm2m/examples/shared\commandline.c ****             fprintf(stream, "LWM2M_TYPE_FLOAT: ");
 440:C:/Users/lenovo/Desktop/liteos/Project2/BearPi_LiteOS/components/connectivity/lwm2m/examples/shared\commandline.c ****             print_indent(stream, indent + 1);
 441:C:/Users/lenovo/Desktop/liteos/Project2/BearPi_LiteOS/components/connectivity/lwm2m/examples/shared\commandline.c ****             fprintf(stream, "%" PRId64, dataP[i].value.asInteger);
 442:C:/Users/lenovo/Desktop/liteos/Project2/BearPi_LiteOS/components/connectivity/lwm2m/examples/shared\commandline.c ****             fprintf(stream, "\r\n");
 443:C:/Users/lenovo/Desktop/liteos/Project2/BearPi_LiteOS/components/connectivity/lwm2m/examples/shared\commandline.c ****             break;
 444:C:/Users/lenovo/Desktop/liteos/Project2/BearPi_LiteOS/components/connectivity/lwm2m/examples/shared\commandline.c ****         case LWM2M_TYPE_BOOLEAN:
 445:C:/Users/lenovo/Desktop/liteos/Project2/BearPi_LiteOS/components/connectivity/lwm2m/examples/shared\commandline.c ****             fprintf(stream, "LWM2M_TYPE_BOOLEAN: ");
 446:C:/Users/lenovo/Desktop/liteos/Project2/BearPi_LiteOS/components/connectivity/lwm2m/examples/shared\commandline.c ****             fprintf(stream, "%s", dataP[i].value.asBoolean ? "true" : "false");
 447:C:/Users/lenovo/Desktop/liteos/Project2/BearPi_LiteOS/components/connectivity/lwm2m/examples/shared\commandline.c ****             fprintf(stream, "\r\n");
 448:C:/Users/lenovo/Desktop/liteos/Project2/BearPi_LiteOS/components/connectivity/lwm2m/examples/shared\commandline.c ****             break;
 449:C:/Users/lenovo/Desktop/liteos/Project2/BearPi_LiteOS/components/connectivity/lwm2m/examples/shared\commandline.c ****         case LWM2M_TYPE_OBJECT_LINK:
 450:C:/Users/lenovo/Desktop/liteos/Project2/BearPi_LiteOS/components/connectivity/lwm2m/examples/shared\commandline.c ****             fprintf(stream, "LWM2M_TYPE_OBJECT_LINK\r\n");
 451:C:/Users/lenovo/Desktop/liteos/Project2/BearPi_LiteOS/components/connectivity/lwm2m/examples/shared\commandline.c ****             break;
 452:C:/Users/lenovo/Desktop/liteos/Project2/BearPi_LiteOS/components/connectivity/lwm2m/examples/shared\commandline.c ****         default:
 453:C:/Users/lenovo/Desktop/liteos/Project2/BearPi_LiteOS/components/connectivity/lwm2m/examples/shared\commandline.c ****             fprintf(stream, "unknown (%d)\r\n", (int)dataP[i].type);
 454:C:/Users/lenovo/Desktop/liteos/Project2/BearPi_LiteOS/components/connectivity/lwm2m/examples/shared\commandline.c ****             break;
 455:C:/Users/lenovo/Desktop/liteos/Project2/BearPi_LiteOS/components/connectivity/lwm2m/examples/shared\commandline.c ****         }
 456:C:/Users/lenovo/Desktop/liteos/Project2/BearPi_LiteOS/components/connectivity/lwm2m/examples/shared\commandline.c ****         print_indent(stream, indent);
 457:C:/Users/lenovo/Desktop/liteos/Project2/BearPi_LiteOS/components/connectivity/lwm2m/examples/shared\commandline.c ****         fprintf(stream, "}\r\n");
 458:C:/Users/lenovo/Desktop/liteos/Project2/BearPi_LiteOS/components/connectivity/lwm2m/examples/shared\commandline.c ****     }
 459:C:/Users/lenovo/Desktop/liteos/Project2/BearPi_LiteOS/components/connectivity/lwm2m/examples/shared\commandline.c **** }
 460:C:/Users/lenovo/Desktop/liteos/Project2/BearPi_LiteOS/components/connectivity/lwm2m/examples/shared\commandline.c **** 
 461:C:/Users/lenovo/Desktop/liteos/Project2/BearPi_LiteOS/components/connectivity/lwm2m/examples/shared\commandline.c **** #define CODE_TO_STRING(X)   case X : return #X
 462:C:/Users/lenovo/Desktop/liteos/Project2/BearPi_LiteOS/components/connectivity/lwm2m/examples/shared\commandline.c **** 
 463:C:/Users/lenovo/Desktop/liteos/Project2/BearPi_LiteOS/components/connectivity/lwm2m/examples/shared\commandline.c **** static const char *prv_status_to_string(int status)
 464:C:/Users/lenovo/Desktop/liteos/Project2/BearPi_LiteOS/components/connectivity/lwm2m/examples/shared\commandline.c **** {
  27              		.loc 1 464 0
  28              		.cfi_startproc
  29              		@ args = 0, pretend = 0, frame = 0
  30              		@ frame_needed = 0, uses_anonymous_args = 0
  31              		@ link register save eliminated.
  32              	.LVL0:
 465:C:/Users/lenovo/Desktop/liteos/Project2/BearPi_LiteOS/components/connectivity/lwm2m/examples/shared\commandline.c ****     switch(status)
  33              		.loc 1 465 0
  34 0000 8028     		cmp	r0, #128
  35 0002 2CD0     		beq	.L3
  36 0004 09DD     		ble	.L21
  37 0006 8628     		cmp	r0, #134
  38 0008 2FD0     		beq	.L12
  39 000a 16DC     		bgt	.L13
  40 000c 8428     		cmp	r0, #132
  41 000e 28D0     		beq	.L14
  42 0010 29DC     		bgt	.L15
  43 0012 8128     		cmp	r0, #129
  44 0014 0AD1     		bne	.L2
 466:C:/Users/lenovo/Desktop/liteos/Project2/BearPi_LiteOS/components/connectivity/lwm2m/examples/shared\commandline.c ****     {
 467:C:/Users/lenovo/Desktop/liteos/Project2/BearPi_LiteOS/components/connectivity/lwm2m/examples/shared\commandline.c ****         CODE_TO_STRING(COAP_NO_ERROR);
 468:C:/Users/lenovo/Desktop/liteos/Project2/BearPi_LiteOS/components/connectivity/lwm2m/examples/shared\commandline.c ****         CODE_TO_STRING(COAP_IGNORE);
 469:C:/Users/lenovo/Desktop/liteos/Project2/BearPi_LiteOS/components/connectivity/lwm2m/examples/shared\commandline.c ****         CODE_TO_STRING(COAP_201_CREATED);
 470:C:/Users/lenovo/Desktop/liteos/Project2/BearPi_LiteOS/components/connectivity/lwm2m/examples/shared\commandline.c ****         CODE_TO_STRING(COAP_202_DELETED);
ARM GAS  c:\Users\lenovo\AppData\Local\Temp\ccEGNnmz.s 			page 10


 471:C:/Users/lenovo/Desktop/liteos/Project2/BearPi_LiteOS/components/connectivity/lwm2m/examples/shared\commandline.c ****         CODE_TO_STRING(COAP_204_CHANGED);
 472:C:/Users/lenovo/Desktop/liteos/Project2/BearPi_LiteOS/components/connectivity/lwm2m/examples/shared\commandline.c ****         CODE_TO_STRING(COAP_205_CONTENT);
 473:C:/Users/lenovo/Desktop/liteos/Project2/BearPi_LiteOS/components/connectivity/lwm2m/examples/shared\commandline.c ****         CODE_TO_STRING(COAP_400_BAD_REQUEST);
 474:C:/Users/lenovo/Desktop/liteos/Project2/BearPi_LiteOS/components/connectivity/lwm2m/examples/shared\commandline.c ****         CODE_TO_STRING(COAP_401_UNAUTHORIZED);
  45              		.loc 1 474 0
  46 0016 1848     		ldr	r0, .L24
  47              	.LVL1:
  48 0018 7047     		bx	lr
  49              	.LVL2:
  50              	.L21:
 465:C:/Users/lenovo/Desktop/liteos/Project2/BearPi_LiteOS/components/connectivity/lwm2m/examples/shared\commandline.c ****     switch(status)
  51              		.loc 1 465 0
  52 001a 4128     		cmp	r0, #65
  53 001c 17D0     		beq	.L5
  54 001e 07DD     		ble	.L22
  55 0020 4428     		cmp	r0, #68
  56 0022 18D0     		beq	.L9
  57 0024 4528     		cmp	r0, #69
  58 0026 18D0     		beq	.L10
  59 0028 4228     		cmp	r0, #66
  60 002a 12D0     		beq	.L23
  61              	.L2:
 475:C:/Users/lenovo/Desktop/liteos/Project2/BearPi_LiteOS/components/connectivity/lwm2m/examples/shared\commandline.c ****         CODE_TO_STRING(COAP_404_NOT_FOUND);
 476:C:/Users/lenovo/Desktop/liteos/Project2/BearPi_LiteOS/components/connectivity/lwm2m/examples/shared\commandline.c ****         CODE_TO_STRING(COAP_405_METHOD_NOT_ALLOWED);
 477:C:/Users/lenovo/Desktop/liteos/Project2/BearPi_LiteOS/components/connectivity/lwm2m/examples/shared\commandline.c ****         CODE_TO_STRING(COAP_406_NOT_ACCEPTABLE);
 478:C:/Users/lenovo/Desktop/liteos/Project2/BearPi_LiteOS/components/connectivity/lwm2m/examples/shared\commandline.c ****         CODE_TO_STRING(COAP_500_INTERNAL_SERVER_ERROR);
 479:C:/Users/lenovo/Desktop/liteos/Project2/BearPi_LiteOS/components/connectivity/lwm2m/examples/shared\commandline.c ****         CODE_TO_STRING(COAP_501_NOT_IMPLEMENTED);
 480:C:/Users/lenovo/Desktop/liteos/Project2/BearPi_LiteOS/components/connectivity/lwm2m/examples/shared\commandline.c ****         CODE_TO_STRING(COAP_503_SERVICE_UNAVAILABLE);
 481:C:/Users/lenovo/Desktop/liteos/Project2/BearPi_LiteOS/components/connectivity/lwm2m/examples/shared\commandline.c ****     default:
 482:C:/Users/lenovo/Desktop/liteos/Project2/BearPi_LiteOS/components/connectivity/lwm2m/examples/shared\commandline.c ****         return "";
  62              		.loc 1 482 0
  63 002c 1348     		ldr	r0, .L24+4
  64              	.LVL3:
  65 002e 7047     		bx	lr
  66              	.LVL4:
  67              	.L22:
 465:C:/Users/lenovo/Desktop/liteos/Project2/BearPi_LiteOS/components/connectivity/lwm2m/examples/shared\commandline.c ****     {
  68              		.loc 1 465 0
  69 0030 58B1     		cbz	r0, .L7
  70 0032 0128     		cmp	r0, #1
  71 0034 FAD1     		bne	.L2
 468:C:/Users/lenovo/Desktop/liteos/Project2/BearPi_LiteOS/components/connectivity/lwm2m/examples/shared\commandline.c ****         CODE_TO_STRING(COAP_201_CREATED);
  72              		.loc 1 468 0
  73 0036 1248     		ldr	r0, .L24+8
  74              	.LVL5:
 483:C:/Users/lenovo/Desktop/liteos/Project2/BearPi_LiteOS/components/connectivity/lwm2m/examples/shared\commandline.c ****     }
 484:C:/Users/lenovo/Desktop/liteos/Project2/BearPi_LiteOS/components/connectivity/lwm2m/examples/shared\commandline.c **** }
  75              		.loc 1 484 0
  76 0038 7047     		bx	lr
  77              	.LVL6:
  78              	.L13:
 465:C:/Users/lenovo/Desktop/liteos/Project2/BearPi_LiteOS/components/connectivity/lwm2m/examples/shared\commandline.c ****     {
  79              		.loc 1 465 0
  80 003a A128     		cmp	r0, #161
  81 003c 17D0     		beq	.L17
  82 003e A328     		cmp	r0, #163
  83 0040 17D0     		beq	.L18
ARM GAS  c:\Users\lenovo\AppData\Local\Temp\ccEGNnmz.s 			page 11


  84 0042 A028     		cmp	r0, #160
  85 0044 F2D1     		bne	.L2
 478:C:/Users/lenovo/Desktop/liteos/Project2/BearPi_LiteOS/components/connectivity/lwm2m/examples/shared\commandline.c ****         CODE_TO_STRING(COAP_501_NOT_IMPLEMENTED);
  86              		.loc 1 478 0
  87 0046 0F48     		ldr	r0, .L24+12
  88              	.LVL7:
  89 0048 7047     		bx	lr
  90              	.LVL8:
  91              	.L7:
 467:C:/Users/lenovo/Desktop/liteos/Project2/BearPi_LiteOS/components/connectivity/lwm2m/examples/shared\commandline.c ****         CODE_TO_STRING(COAP_IGNORE);
  92              		.loc 1 467 0
  93 004a 0F48     		ldr	r0, .L24+16
  94              	.LVL9:
  95 004c 7047     		bx	lr
  96              	.LVL10:
  97              	.L5:
 469:C:/Users/lenovo/Desktop/liteos/Project2/BearPi_LiteOS/components/connectivity/lwm2m/examples/shared\commandline.c ****         CODE_TO_STRING(COAP_202_DELETED);
  98              		.loc 1 469 0
  99 004e 0F48     		ldr	r0, .L24+20
 100              	.LVL11:
 101 0050 7047     		bx	lr
 102              	.LVL12:
 103              	.L23:
 470:C:/Users/lenovo/Desktop/liteos/Project2/BearPi_LiteOS/components/connectivity/lwm2m/examples/shared\commandline.c ****         CODE_TO_STRING(COAP_204_CHANGED);
 104              		.loc 1 470 0
 105 0052 0F48     		ldr	r0, .L24+24
 106              	.LVL13:
 107 0054 7047     		bx	lr
 108              	.LVL14:
 109              	.L9:
 471:C:/Users/lenovo/Desktop/liteos/Project2/BearPi_LiteOS/components/connectivity/lwm2m/examples/shared\commandline.c ****         CODE_TO_STRING(COAP_205_CONTENT);
 110              		.loc 1 471 0
 111 0056 0F48     		ldr	r0, .L24+28
 112              	.LVL15:
 113 0058 7047     		bx	lr
 114              	.LVL16:
 115              	.L10:
 472:C:/Users/lenovo/Desktop/liteos/Project2/BearPi_LiteOS/components/connectivity/lwm2m/examples/shared\commandline.c ****         CODE_TO_STRING(COAP_400_BAD_REQUEST);
 116              		.loc 1 472 0
 117 005a 0F48     		ldr	r0, .L24+32
 118              	.LVL17:
 119 005c 7047     		bx	lr
 120              	.LVL18:
 121              	.L3:
 473:C:/Users/lenovo/Desktop/liteos/Project2/BearPi_LiteOS/components/connectivity/lwm2m/examples/shared\commandline.c ****         CODE_TO_STRING(COAP_401_UNAUTHORIZED);
 122              		.loc 1 473 0
 123 005e 0F48     		ldr	r0, .L24+36
 124              	.LVL19:
 125 0060 7047     		bx	lr
 126              	.LVL20:
 127              	.L14:
 475:C:/Users/lenovo/Desktop/liteos/Project2/BearPi_LiteOS/components/connectivity/lwm2m/examples/shared\commandline.c ****         CODE_TO_STRING(COAP_405_METHOD_NOT_ALLOWED);
 128              		.loc 1 475 0
 129 0062 0F48     		ldr	r0, .L24+40
 130              	.LVL21:
 131 0064 7047     		bx	lr
 132              	.LVL22:
ARM GAS  c:\Users\lenovo\AppData\Local\Temp\ccEGNnmz.s 			page 12


 133              	.L15:
 476:C:/Users/lenovo/Desktop/liteos/Project2/BearPi_LiteOS/components/connectivity/lwm2m/examples/shared\commandline.c ****         CODE_TO_STRING(COAP_406_NOT_ACCEPTABLE);
 134              		.loc 1 476 0
 135 0066 0F48     		ldr	r0, .L24+44
 136              	.LVL23:
 137 0068 7047     		bx	lr
 138              	.LVL24:
 139              	.L12:
 477:C:/Users/lenovo/Desktop/liteos/Project2/BearPi_LiteOS/components/connectivity/lwm2m/examples/shared\commandline.c ****         CODE_TO_STRING(COAP_500_INTERNAL_SERVER_ERROR);
 140              		.loc 1 477 0
 141 006a 0F48     		ldr	r0, .L24+48
 142              	.LVL25:
 143 006c 7047     		bx	lr
 144              	.LVL26:
 145              	.L17:
 479:C:/Users/lenovo/Desktop/liteos/Project2/BearPi_LiteOS/components/connectivity/lwm2m/examples/shared\commandline.c ****         CODE_TO_STRING(COAP_503_SERVICE_UNAVAILABLE);
 146              		.loc 1 479 0
 147 006e 0F48     		ldr	r0, .L24+52
 148              	.LVL27:
 149 0070 7047     		bx	lr
 150              	.LVL28:
 151              	.L18:
 480:C:/Users/lenovo/Desktop/liteos/Project2/BearPi_LiteOS/components/connectivity/lwm2m/examples/shared\commandline.c ****     default:
 152              		.loc 1 480 0
 153 0072 0F48     		ldr	r0, .L24+56
 154              	.LVL29:
 155 0074 7047     		bx	lr
 156              	.L25:
 157 0076 00BF     		.align	2
 158              	.L24:
 159 0078 84000000 		.word	.LC7
 160 007c 40010000 		.word	.LC14
 161 0080 10000000 		.word	.LC1
 162 0084 E4000000 		.word	.LC11
 163 0088 00000000 		.word	.LC0
 164 008c 1C000000 		.word	.LC2
 165 0090 30000000 		.word	.LC3
 166 0094 44000000 		.word	.LC4
 167 0098 58000000 		.word	.LC5
 168 009c 6C000000 		.word	.LC6
 169 00a0 9C000000 		.word	.LC8
 170 00a4 B0000000 		.word	.LC9
 171 00a8 CC000000 		.word	.LC10
 172 00ac 04010000 		.word	.LC12
 173 00b0 20010000 		.word	.LC13
 174              		.cfi_endproc
 175              	.LFE146:
 177              		.section	.text.prv_b64Revert,"ax",%progbits
 178              		.align	1
 179              		.syntax unified
 180              		.thumb
 181              		.thumb_func
 182              		.fpu fpv4-sp-d16
 184              	prv_b64Revert:
 185              	.LFB148:
 485:C:/Users/lenovo/Desktop/liteos/Project2/BearPi_LiteOS/components/connectivity/lwm2m/examples/shared\commandline.c **** 
 486:C:/Users/lenovo/Desktop/liteos/Project2/BearPi_LiteOS/components/connectivity/lwm2m/examples/shared\commandline.c **** void print_status(FILE *stream,
ARM GAS  c:\Users\lenovo\AppData\Local\Temp\ccEGNnmz.s 			page 13


 487:C:/Users/lenovo/Desktop/liteos/Project2/BearPi_LiteOS/components/connectivity/lwm2m/examples/shared\commandline.c ****                   uint8_t status)
 488:C:/Users/lenovo/Desktop/liteos/Project2/BearPi_LiteOS/components/connectivity/lwm2m/examples/shared\commandline.c **** {
 489:C:/Users/lenovo/Desktop/liteos/Project2/BearPi_LiteOS/components/connectivity/lwm2m/examples/shared\commandline.c ****     fprintf(stream, "%d.%02d (%s)", (status & 0xE0) >> 5, status & 0x1F, prv_status_to_string(statu
 490:C:/Users/lenovo/Desktop/liteos/Project2/BearPi_LiteOS/components/connectivity/lwm2m/examples/shared\commandline.c **** }
 491:C:/Users/lenovo/Desktop/liteos/Project2/BearPi_LiteOS/components/connectivity/lwm2m/examples/shared\commandline.c **** 
 492:C:/Users/lenovo/Desktop/liteos/Project2/BearPi_LiteOS/components/connectivity/lwm2m/examples/shared\commandline.c **** /**********************************************************
 493:C:/Users/lenovo/Desktop/liteos/Project2/BearPi_LiteOS/components/connectivity/lwm2m/examples/shared\commandline.c **** * Base64 decoding function
 494:C:/Users/lenovo/Desktop/liteos/Project2/BearPi_LiteOS/components/connectivity/lwm2m/examples/shared\commandline.c **** *
 495:C:/Users/lenovo/Desktop/liteos/Project2/BearPi_LiteOS/components/connectivity/lwm2m/examples/shared\commandline.c **** * WARNING: Bugged for input strings with length < 4
 496:C:/Users/lenovo/Desktop/liteos/Project2/BearPi_LiteOS/components/connectivity/lwm2m/examples/shared\commandline.c **** *
 497:C:/Users/lenovo/Desktop/liteos/Project2/BearPi_LiteOS/components/connectivity/lwm2m/examples/shared\commandline.c **** */
 498:C:/Users/lenovo/Desktop/liteos/Project2/BearPi_LiteOS/components/connectivity/lwm2m/examples/shared\commandline.c **** 
 499:C:/Users/lenovo/Desktop/liteos/Project2/BearPi_LiteOS/components/connectivity/lwm2m/examples/shared\commandline.c **** #define PRV_B64_PADDING '='
 500:C:/Users/lenovo/Desktop/liteos/Project2/BearPi_LiteOS/components/connectivity/lwm2m/examples/shared\commandline.c **** 
 501:C:/Users/lenovo/Desktop/liteos/Project2/BearPi_LiteOS/components/connectivity/lwm2m/examples/shared\commandline.c **** static uint8_t prv_b64Revert(uint8_t value)
 502:C:/Users/lenovo/Desktop/liteos/Project2/BearPi_LiteOS/components/connectivity/lwm2m/examples/shared\commandline.c **** {
 186              		.loc 1 502 0
 187              		.cfi_startproc
 188              		@ args = 0, pretend = 0, frame = 0
 189              		@ frame_needed = 0, uses_anonymous_args = 0
 190              		@ link register save eliminated.
 191              	.LVL30:
 192 0000 0246     		mov	r2, r0
 503:C:/Users/lenovo/Desktop/liteos/Project2/BearPi_LiteOS/components/connectivity/lwm2m/examples/shared\commandline.c ****     if (value >= 'A' && value <= 'Z')
 193              		.loc 1 503 0
 194 0002 A0F14103 		sub	r3, r0, #65
 195 0006 D8B2     		uxtb	r0, r3
 196              	.LVL31:
 197 0008 1928     		cmp	r0, #25
 198 000a 19D9     		bls	.L27
 504:C:/Users/lenovo/Desktop/liteos/Project2/BearPi_LiteOS/components/connectivity/lwm2m/examples/shared\commandline.c ****     {
 505:C:/Users/lenovo/Desktop/liteos/Project2/BearPi_LiteOS/components/connectivity/lwm2m/examples/shared\commandline.c ****         return (value - 'A');
 506:C:/Users/lenovo/Desktop/liteos/Project2/BearPi_LiteOS/components/connectivity/lwm2m/examples/shared\commandline.c ****     }
 507:C:/Users/lenovo/Desktop/liteos/Project2/BearPi_LiteOS/components/connectivity/lwm2m/examples/shared\commandline.c ****     if (value >= 'a' && value <= 'z')
 199              		.loc 1 507 0
 200 000c A2F16103 		sub	r3, r2, #97
 201 0010 DBB2     		uxtb	r3, r3
 202 0012 192B     		cmp	r3, #25
 203 0014 0AD9     		bls	.L34
 508:C:/Users/lenovo/Desktop/liteos/Project2/BearPi_LiteOS/components/connectivity/lwm2m/examples/shared\commandline.c ****     {
 509:C:/Users/lenovo/Desktop/liteos/Project2/BearPi_LiteOS/components/connectivity/lwm2m/examples/shared\commandline.c ****         return (26 + value - 'a');
 510:C:/Users/lenovo/Desktop/liteos/Project2/BearPi_LiteOS/components/connectivity/lwm2m/examples/shared\commandline.c ****     }
 511:C:/Users/lenovo/Desktop/liteos/Project2/BearPi_LiteOS/components/connectivity/lwm2m/examples/shared\commandline.c ****     if (value >= '0' && value <= '9')
 204              		.loc 1 511 0
 205 0016 A2F13003 		sub	r3, r2, #48
 206 001a DBB2     		uxtb	r3, r3
 207 001c 092B     		cmp	r3, #9
 208 001e 09D9     		bls	.L35
 512:C:/Users/lenovo/Desktop/liteos/Project2/BearPi_LiteOS/components/connectivity/lwm2m/examples/shared\commandline.c ****     {
 513:C:/Users/lenovo/Desktop/liteos/Project2/BearPi_LiteOS/components/connectivity/lwm2m/examples/shared\commandline.c ****         return (52 + value - '0');
 514:C:/Users/lenovo/Desktop/liteos/Project2/BearPi_LiteOS/components/connectivity/lwm2m/examples/shared\commandline.c ****     }
 515:C:/Users/lenovo/Desktop/liteos/Project2/BearPi_LiteOS/components/connectivity/lwm2m/examples/shared\commandline.c ****     switch (value)
 209              		.loc 1 515 0
 210 0020 2B2A     		cmp	r2, #43
 211 0022 0AD0     		beq	.L31
 212 0024 2F2A     		cmp	r2, #47
 213 0026 0AD0     		beq	.L32
ARM GAS  c:\Users\lenovo\AppData\Local\Temp\ccEGNnmz.s 			page 14


 516:C:/Users/lenovo/Desktop/liteos/Project2/BearPi_LiteOS/components/connectivity/lwm2m/examples/shared\commandline.c ****     {
 517:C:/Users/lenovo/Desktop/liteos/Project2/BearPi_LiteOS/components/connectivity/lwm2m/examples/shared\commandline.c ****     case '+':
 518:C:/Users/lenovo/Desktop/liteos/Project2/BearPi_LiteOS/components/connectivity/lwm2m/examples/shared\commandline.c ****         return 62;
 519:C:/Users/lenovo/Desktop/liteos/Project2/BearPi_LiteOS/components/connectivity/lwm2m/examples/shared\commandline.c ****     case '/':
 520:C:/Users/lenovo/Desktop/liteos/Project2/BearPi_LiteOS/components/connectivity/lwm2m/examples/shared\commandline.c ****         return 63;
 521:C:/Users/lenovo/Desktop/liteos/Project2/BearPi_LiteOS/components/connectivity/lwm2m/examples/shared\commandline.c ****     default:
 522:C:/Users/lenovo/Desktop/liteos/Project2/BearPi_LiteOS/components/connectivity/lwm2m/examples/shared\commandline.c ****         return 0;
 214              		.loc 1 522 0
 215 0028 0020     		movs	r0, #0
 216 002a 7047     		bx	lr
 217              	.L34:
 509:C:/Users/lenovo/Desktop/liteos/Project2/BearPi_LiteOS/components/connectivity/lwm2m/examples/shared\commandline.c ****     }
 218              		.loc 1 509 0
 219 002c A2F14700 		sub	r0, r2, #71
 220 0030 C0B2     		uxtb	r0, r0
 221 0032 7047     		bx	lr
 222              	.L35:
 513:C:/Users/lenovo/Desktop/liteos/Project2/BearPi_LiteOS/components/connectivity/lwm2m/examples/shared\commandline.c ****     }
 223              		.loc 1 513 0
 224 0034 101D     		adds	r0, r2, #4
 225 0036 C0B2     		uxtb	r0, r0
 226 0038 7047     		bx	lr
 227              	.L31:
 518:C:/Users/lenovo/Desktop/liteos/Project2/BearPi_LiteOS/components/connectivity/lwm2m/examples/shared\commandline.c ****     case '/':
 228              		.loc 1 518 0
 229 003a 3E20     		movs	r0, #62
 230 003c 7047     		bx	lr
 231              	.L32:
 520:C:/Users/lenovo/Desktop/liteos/Project2/BearPi_LiteOS/components/connectivity/lwm2m/examples/shared\commandline.c ****     default:
 232              		.loc 1 520 0
 233 003e 3F20     		movs	r0, #63
 234              	.L27:
 523:C:/Users/lenovo/Desktop/liteos/Project2/BearPi_LiteOS/components/connectivity/lwm2m/examples/shared\commandline.c ****     }
 524:C:/Users/lenovo/Desktop/liteos/Project2/BearPi_LiteOS/components/connectivity/lwm2m/examples/shared\commandline.c **** }
 235              		.loc 1 524 0
 236 0040 7047     		bx	lr
 237              		.cfi_endproc
 238              	.LFE148:
 240              		.section	.text.prv_end_of_space,"ax",%progbits
 241              		.align	1
 242              		.syntax unified
 243              		.thumb
 244              		.thumb_func
 245              		.fpu fpv4-sp-d16
 247              	prv_end_of_space:
 248              	.LFB137:
 156:C:/Users/lenovo/Desktop/liteos/Project2/BearPi_LiteOS/components/connectivity/lwm2m/examples/shared\commandline.c ****     while (isspace(buffer[0] & 0xff))
 249              		.loc 1 156 0
 250              		.cfi_startproc
 251              		@ args = 0, pretend = 0, frame = 0
 252              		@ frame_needed = 0, uses_anonymous_args = 0
 253              	.LVL32:
 254 0000 10B5     		push	{r4, lr}
 255              	.LCFI0:
 256              		.cfi_def_cfa_offset 8
 257              		.cfi_offset 4, -8
 258              		.cfi_offset 14, -4
ARM GAS  c:\Users\lenovo\AppData\Local\Temp\ccEGNnmz.s 			page 15


 259 0002 0446     		mov	r4, r0
 157:C:/Users/lenovo/Desktop/liteos/Project2/BearPi_LiteOS/components/connectivity/lwm2m/examples/shared\commandline.c ****     {
 260              		.loc 1 157 0
 261 0004 00E0     		b	.L37
 262              	.LVL33:
 263              	.L38:
 159:C:/Users/lenovo/Desktop/liteos/Project2/BearPi_LiteOS/components/connectivity/lwm2m/examples/shared\commandline.c ****     }
 264              		.loc 1 159 0
 265 0006 0134     		adds	r4, r4, #1
 266              	.LVL34:
 267              	.L37:
 157:C:/Users/lenovo/Desktop/liteos/Project2/BearPi_LiteOS/components/connectivity/lwm2m/examples/shared\commandline.c ****     {
 268              		.loc 1 157 0
 269 0008 FFF7FEFF 		bl	__locale_ctype_ptr
 270              	.LVL35:
 271 000c 2378     		ldrb	r3, [r4]	@ zero_extendqisi2
 272 000e 1844     		add	r0, r0, r3
 273 0010 4378     		ldrb	r3, [r0, #1]	@ zero_extendqisi2
 274 0012 13F0080F 		tst	r3, #8
 275 0016 F6D1     		bne	.L38
 162:C:/Users/lenovo/Desktop/liteos/Project2/BearPi_LiteOS/components/connectivity/lwm2m/examples/shared\commandline.c **** 
 276              		.loc 1 162 0
 277 0018 2046     		mov	r0, r4
 278 001a 10BD     		pop	{r4, pc}
 279              		.cfi_endproc
 280              	.LFE137:
 282              		.section	.text.print_indent,"ax",%progbits
 283              		.align	1
 284              		.syntax unified
 285              		.thumb
 286              		.thumb_func
 287              		.fpu fpv4-sp-d16
 289              	print_indent:
 290              	.LFB141:
 200:C:/Users/lenovo/Desktop/liteos/Project2/BearPi_LiteOS/components/connectivity/lwm2m/examples/shared\commandline.c ****     int i;
 291              		.loc 1 200 0
 292              		.cfi_startproc
 293              		@ args = 0, pretend = 0, frame = 0
 294              		@ frame_needed = 0, uses_anonymous_args = 0
 295              	.LVL36:
 296 0000 70B5     		push	{r4, r5, r6, lr}
 297              	.LCFI1:
 298              		.cfi_def_cfa_offset 16
 299              		.cfi_offset 4, -16
 300              		.cfi_offset 5, -12
 301              		.cfi_offset 6, -8
 302              		.cfi_offset 14, -4
 303 0002 0646     		mov	r6, r0
 304 0004 0D46     		mov	r5, r1
 305              	.LVL37:
 203:C:/Users/lenovo/Desktop/liteos/Project2/BearPi_LiteOS/components/connectivity/lwm2m/examples/shared\commandline.c ****         fprintf(stream, "    ");
 306              		.loc 1 203 0
 307 0006 0024     		movs	r4, #0
 308 0008 06E0     		b	.L41
 309              	.LVL38:
 310              	.L42:
 204:C:/Users/lenovo/Desktop/liteos/Project2/BearPi_LiteOS/components/connectivity/lwm2m/examples/shared\commandline.c **** }
ARM GAS  c:\Users\lenovo\AppData\Local\Temp\ccEGNnmz.s 			page 16


 311              		.loc 1 204 0 discriminator 3
 312 000a 3346     		mov	r3, r6
 313 000c 0422     		movs	r2, #4
 314 000e 0121     		movs	r1, #1
 315 0010 0348     		ldr	r0, .L44
 316 0012 FFF7FEFF 		bl	fwrite
 317              	.LVL39:
 203:C:/Users/lenovo/Desktop/liteos/Project2/BearPi_LiteOS/components/connectivity/lwm2m/examples/shared\commandline.c ****         fprintf(stream, "    ");
 318              		.loc 1 203 0 discriminator 3
 319 0016 0134     		adds	r4, r4, #1
 320              	.LVL40:
 321              	.L41:
 203:C:/Users/lenovo/Desktop/liteos/Project2/BearPi_LiteOS/components/connectivity/lwm2m/examples/shared\commandline.c ****         fprintf(stream, "    ");
 322              		.loc 1 203 0 is_stmt 0 discriminator 1
 323 0018 AC42     		cmp	r4, r5
 324 001a F6DB     		blt	.L42
 205:C:/Users/lenovo/Desktop/liteos/Project2/BearPi_LiteOS/components/connectivity/lwm2m/examples/shared\commandline.c **** #ifdef ATING_DEBUG
 325              		.loc 1 205 0 is_stmt 1
 326 001c 70BD     		pop	{r4, r5, r6, pc}
 327              	.LVL41:
 328              	.L45:
 329 001e 00BF     		.align	2
 330              	.L44:
 331 0020 00000000 		.word	.LC15
 332              		.cfi_endproc
 333              	.LFE141:
 335              		.section	.text.prv_find_command,"ax",%progbits
 336              		.align	1
 337              		.syntax unified
 338              		.thumb
 339              		.thumb_func
 340              		.fpu fpv4-sp-d16
 342              	prv_find_command:
 343              	.LFB134:
  69:C:/Users/lenovo/Desktop/liteos/Project2/BearPi_LiteOS/components/connectivity/lwm2m/examples/shared\commandline.c ****     int i;
 344              		.loc 1 69 0
 345              		.cfi_startproc
 346              		@ args = 0, pretend = 0, frame = 0
 347              		@ frame_needed = 0, uses_anonymous_args = 0
 348              	.LVL42:
 349 0000 2DE9F843 		push	{r3, r4, r5, r6, r7, r8, r9, lr}
 350              	.LCFI2:
 351              		.cfi_def_cfa_offset 32
 352              		.cfi_offset 3, -32
 353              		.cfi_offset 4, -28
 354              		.cfi_offset 5, -24
 355              		.cfi_offset 6, -20
 356              		.cfi_offset 7, -16
 357              		.cfi_offset 8, -12
 358              		.cfi_offset 9, -8
 359              		.cfi_offset 14, -4
  72:C:/Users/lenovo/Desktop/liteos/Project2/BearPi_LiteOS/components/connectivity/lwm2m/examples/shared\commandline.c **** 
 360              		.loc 1 72 0
 361 0004 FAB1     		cbz	r2, .L51
 362 0006 1746     		mov	r7, r2
 363 0008 8846     		mov	r8, r1
 364 000a 0646     		mov	r6, r0
ARM GAS  c:\Users\lenovo\AppData\Local\Temp\ccEGNnmz.s 			page 17


  74:C:/Users/lenovo/Desktop/liteos/Project2/BearPi_LiteOS/components/connectivity/lwm2m/examples/shared\commandline.c ****     while (commandArray[i].name != NULL
 365              		.loc 1 74 0
 366 000c 0024     		movs	r4, #0
 367 000e 00E0     		b	.L48
 368              	.LVL43:
 369              	.L50:
  78:C:/Users/lenovo/Desktop/liteos/Project2/BearPi_LiteOS/components/connectivity/lwm2m/examples/shared\commandline.c ****     }
 370              		.loc 1 78 0
 371 0010 0134     		adds	r4, r4, #1
 372              	.LVL44:
 373              	.L48:
  75:C:/Users/lenovo/Desktop/liteos/Project2/BearPi_LiteOS/components/connectivity/lwm2m/examples/shared\commandline.c ****             && (strlen(commandArray[i].name) != length || strncmp(buffer, commandArray[i].name, len
 374              		.loc 1 75 0
 375 0012 04EB8405 		add	r5, r4, r4, lsl #2
 376 0016 AB00     		lsls	r3, r5, #2
 377 0018 06EB0309 		add	r9, r6, r3
 378 001c F558     		ldr	r5, [r6, r3]
 379 001e 5DB1     		cbz	r5, .L49
  76:C:/Users/lenovo/Desktop/liteos/Project2/BearPi_LiteOS/components/connectivity/lwm2m/examples/shared\commandline.c ****     {
 380              		.loc 1 76 0
 381 0020 2846     		mov	r0, r5
 382 0022 FFF7FEFF 		bl	strlen
 383              	.LVL45:
 384 0026 B842     		cmp	r0, r7
 385 0028 F2D1     		bne	.L50
  76:C:/Users/lenovo/Desktop/liteos/Project2/BearPi_LiteOS/components/connectivity/lwm2m/examples/shared\commandline.c ****     {
 386              		.loc 1 76 0 is_stmt 0 discriminator 1
 387 002a 3A46     		mov	r2, r7
 388 002c 2946     		mov	r1, r5
 389 002e 4046     		mov	r0, r8
 390 0030 FFF7FEFF 		bl	strncmp
 391              	.LVL46:
 392 0034 0028     		cmp	r0, #0
 393 0036 EBD1     		bne	.L50
 394              	.L49:
  81:C:/Users/lenovo/Desktop/liteos/Project2/BearPi_LiteOS/components/connectivity/lwm2m/examples/shared\commandline.c ****     {
 395              		.loc 1 81 0 is_stmt 1
 396 0038 15B1     		cbz	r5, .L53
 397              	.LVL47:
 398              	.L46:
  89:C:/Users/lenovo/Desktop/liteos/Project2/BearPi_LiteOS/components/connectivity/lwm2m/examples/shared\commandline.c **** 
 399              		.loc 1 89 0
 400 003a 4846     		mov	r0, r9
 401 003c BDE8F883 		pop	{r3, r4, r5, r6, r7, r8, r9, pc}
 402              	.LVL48:
 403              	.L53:
  83:C:/Users/lenovo/Desktop/liteos/Project2/BearPi_LiteOS/components/connectivity/lwm2m/examples/shared\commandline.c ****     }
 404              		.loc 1 83 0
 405 0040 4FF00009 		mov	r9, #0
 406 0044 F9E7     		b	.L46
 407              	.LVL49:
 408              	.L51:
  72:C:/Users/lenovo/Desktop/liteos/Project2/BearPi_LiteOS/components/connectivity/lwm2m/examples/shared\commandline.c **** 
 409              		.loc 1 72 0
 410 0046 4FF00009 		mov	r9, #0
 411 004a F6E7     		b	.L46
 412              		.cfi_endproc
ARM GAS  c:\Users\lenovo\AppData\Local\Temp\ccEGNnmz.s 			page 18


 413              	.LFE134:
 415              		.section	.text.prv_displayHelp,"ax",%progbits
 416              		.align	1
 417              		.syntax unified
 418              		.thumb
 419              		.thumb_func
 420              		.fpu fpv4-sp-d16
 422              	prv_displayHelp:
 423              	.LFB135:
  93:C:/Users/lenovo/Desktop/liteos/Project2/BearPi_LiteOS/components/connectivity/lwm2m/examples/shared\commandline.c ****     command_desc_t *cmdP;
 424              		.loc 1 93 0
 425              		.cfi_startproc
 426              		@ args = 0, pretend = 0, frame = 0
 427              		@ frame_needed = 0, uses_anonymous_args = 0
 428              	.LVL50:
 429 0000 F8B5     		push	{r3, r4, r5, r6, r7, lr}
 430              	.LCFI3:
 431              		.cfi_def_cfa_offset 24
 432              		.cfi_offset 3, -24
 433              		.cfi_offset 4, -20
 434              		.cfi_offset 5, -16
 435              		.cfi_offset 6, -12
 436              		.cfi_offset 7, -8
 437              		.cfi_offset 14, -4
 438 0002 0746     		mov	r7, r0
 439 0004 0D46     		mov	r5, r1
 440              	.LVL51:
  98:C:/Users/lenovo/Desktop/liteos/Project2/BearPi_LiteOS/components/connectivity/lwm2m/examples/shared\commandline.c ****     while (buffer[length] != 0 && !isspace(buffer[length] & 0xff))
 441              		.loc 1 98 0
 442 0006 0024     		movs	r4, #0
  99:C:/Users/lenovo/Desktop/liteos/Project2/BearPi_LiteOS/components/connectivity/lwm2m/examples/shared\commandline.c ****         length++;
 443              		.loc 1 99 0
 444 0008 00E0     		b	.L55
 445              	.LVL52:
 446              	.L57:
 100:C:/Users/lenovo/Desktop/liteos/Project2/BearPi_LiteOS/components/connectivity/lwm2m/examples/shared\commandline.c **** 
 447              		.loc 1 100 0
 448 000a 0134     		adds	r4, r4, #1
 449              	.LVL53:
 450              	.L55:
  99:C:/Users/lenovo/Desktop/liteos/Project2/BearPi_LiteOS/components/connectivity/lwm2m/examples/shared\commandline.c ****         length++;
 451              		.loc 1 99 0
 452 000c 2646     		mov	r6, r4
 453 000e 2B5D     		ldrb	r3, [r5, r4]	@ zero_extendqisi2
 454 0010 3BB1     		cbz	r3, .L56
  99:C:/Users/lenovo/Desktop/liteos/Project2/BearPi_LiteOS/components/connectivity/lwm2m/examples/shared\commandline.c ****         length++;
 455              		.loc 1 99 0 is_stmt 0 discriminator 1
 456 0012 FFF7FEFF 		bl	__locale_ctype_ptr
 457              	.LVL54:
 458 0016 2B5D     		ldrb	r3, [r5, r4]	@ zero_extendqisi2
 459 0018 1844     		add	r0, r0, r3
 460 001a 4378     		ldrb	r3, [r0, #1]	@ zero_extendqisi2
 461 001c 13F0080F 		tst	r3, #8
 462 0020 F3D0     		beq	.L57
 463              	.L56:
 102:C:/Users/lenovo/Desktop/liteos/Project2/BearPi_LiteOS/components/connectivity/lwm2m/examples/shared\commandline.c **** 
 464              		.loc 1 102 0 is_stmt 1
ARM GAS  c:\Users\lenovo\AppData\Local\Temp\ccEGNnmz.s 			page 19


 465 0022 3246     		mov	r2, r6
 466 0024 2946     		mov	r1, r5
 467 0026 3846     		mov	r0, r7
 468 0028 FFF7FEFF 		bl	prv_find_command
 469              	.LVL55:
 104:C:/Users/lenovo/Desktop/liteos/Project2/BearPi_LiteOS/components/connectivity/lwm2m/examples/shared\commandline.c ****     {
 470              		.loc 1 104 0
 471 002c 0346     		mov	r3, r0
 472 002e 40B1     		cbz	r0, .L64
 117:C:/Users/lenovo/Desktop/liteos/Project2/BearPi_LiteOS/components/connectivity/lwm2m/examples/shared\commandline.c ****     }
 473              		.loc 1 117 0
 474 0030 124A     		ldr	r2, .L66
 475 0032 1268     		ldr	r2, [r2]
 476 0034 9068     		ldr	r0, [r2, #8]
 477              	.LVL56:
 478 0036 9A68     		ldr	r2, [r3, #8]
 479 0038 EAB1     		cbz	r2, .L65
 480              	.L62:
 117:C:/Users/lenovo/Desktop/liteos/Project2/BearPi_LiteOS/components/connectivity/lwm2m/examples/shared\commandline.c ****     }
 481              		.loc 1 117 0 is_stmt 0 discriminator 4
 482 003a 1149     		ldr	r1, .L66+4
 483 003c FFF7FEFF 		bl	fprintf
 484              	.LVL57:
 485              	.L54:
 119:C:/Users/lenovo/Desktop/liteos/Project2/BearPi_LiteOS/components/connectivity/lwm2m/examples/shared\commandline.c **** 
 486              		.loc 1 119 0 is_stmt 1
 487 0040 F8BD     		pop	{r3, r4, r5, r6, r7, pc}
 488              	.LVL58:
 489              	.L64:
 490              	.LBB2:
 108:C:/Users/lenovo/Desktop/liteos/Project2/BearPi_LiteOS/components/connectivity/lwm2m/examples/shared\commandline.c **** 
 491              		.loc 1 108 0
 492 0042 0E4B     		ldr	r3, .L66
 493 0044 1B68     		ldr	r3, [r3]
 494 0046 9B68     		ldr	r3, [r3, #8]
 495 0048 3B22     		movs	r2, #59
 496 004a 0121     		movs	r1, #1
 497 004c 0D48     		ldr	r0, .L66+8
 498              	.LVL59:
 499 004e FFF7FEFF 		bl	fwrite
 500              	.LVL60:
 110:C:/Users/lenovo/Desktop/liteos/Project2/BearPi_LiteOS/components/connectivity/lwm2m/examples/shared\commandline.c ****         {
 501              		.loc 1 110 0
 502 0052 0024     		movs	r4, #0
 503              	.LVL61:
 504 0054 07E0     		b	.L59
 505              	.LVL62:
 506              	.L60:
 112:C:/Users/lenovo/Desktop/liteos/Project2/BearPi_LiteOS/components/connectivity/lwm2m/examples/shared\commandline.c ****         }
 507              		.loc 1 112 0 discriminator 3
 508 0056 094B     		ldr	r3, .L66
 509 0058 1868     		ldr	r0, [r3]
 510 005a 4B68     		ldr	r3, [r1, #4]
 511 005c 0A49     		ldr	r1, .L66+12
 512 005e 8068     		ldr	r0, [r0, #8]
 513 0060 FFF7FEFF 		bl	fprintf
 514              	.LVL63:
ARM GAS  c:\Users\lenovo\AppData\Local\Temp\ccEGNnmz.s 			page 20


 110:C:/Users/lenovo/Desktop/liteos/Project2/BearPi_LiteOS/components/connectivity/lwm2m/examples/shared\commandline.c ****         {
 515              		.loc 1 110 0 discriminator 3
 516 0064 0134     		adds	r4, r4, #1
 517              	.LVL64:
 518              	.L59:
 110:C:/Users/lenovo/Desktop/liteos/Project2/BearPi_LiteOS/components/connectivity/lwm2m/examples/shared\commandline.c ****         {
 519              		.loc 1 110 0 is_stmt 0 discriminator 1
 520 0066 04EB8402 		add	r2, r4, r4, lsl #2
 521 006a 9300     		lsls	r3, r2, #2
 522 006c F918     		adds	r1, r7, r3
 523 006e FA58     		ldr	r2, [r7, r3]
 524 0070 002A     		cmp	r2, #0
 525 0072 F0D1     		bne	.L60
 526 0074 E4E7     		b	.L54
 527              	.LVL65:
 528              	.L65:
 529              	.LBE2:
 117:C:/Users/lenovo/Desktop/liteos/Project2/BearPi_LiteOS/components/connectivity/lwm2m/examples/shared\commandline.c ****     }
 530              		.loc 1 117 0 is_stmt 1 discriminator 2
 531 0076 5A68     		ldr	r2, [r3, #4]
 532 0078 DFE7     		b	.L62
 533              	.L67:
 534 007a 00BF     		.align	2
 535              	.L66:
 536 007c 00000000 		.word	_impure_ptr
 537 0080 44000000 		.word	.LC18
 538 0084 00000000 		.word	.LC16
 539 0088 3C000000 		.word	.LC17
 540              		.cfi_endproc
 541              	.LFE135:
 543              		.section	.text.prv_decodeBlock,"ax",%progbits
 544              		.align	1
 545              		.syntax unified
 546              		.thumb
 547              		.thumb_func
 548              		.fpu fpv4-sp-d16
 550              	prv_decodeBlock:
 551              	.LFB149:
 525:C:/Users/lenovo/Desktop/liteos/Project2/BearPi_LiteOS/components/connectivity/lwm2m/examples/shared\commandline.c **** 
 526:C:/Users/lenovo/Desktop/liteos/Project2/BearPi_LiteOS/components/connectivity/lwm2m/examples/shared\commandline.c **** static void prv_decodeBlock(uint8_t input[4],
 527:C:/Users/lenovo/Desktop/liteos/Project2/BearPi_LiteOS/components/connectivity/lwm2m/examples/shared\commandline.c ****                             uint8_t output[3])
 528:C:/Users/lenovo/Desktop/liteos/Project2/BearPi_LiteOS/components/connectivity/lwm2m/examples/shared\commandline.c **** {
 552              		.loc 1 528 0
 553              		.cfi_startproc
 554              		@ args = 0, pretend = 0, frame = 8
 555              		@ frame_needed = 0, uses_anonymous_args = 0
 556              	.LVL66:
 557 0000 70B5     		push	{r4, r5, r6, lr}
 558              	.LCFI4:
 559              		.cfi_def_cfa_offset 16
 560              		.cfi_offset 4, -16
 561              		.cfi_offset 5, -12
 562              		.cfi_offset 6, -8
 563              		.cfi_offset 14, -4
 564 0002 82B0     		sub	sp, sp, #8
 565              	.LCFI5:
 566              		.cfi_def_cfa_offset 24
ARM GAS  c:\Users\lenovo\AppData\Local\Temp\ccEGNnmz.s 			page 21


 567 0004 0646     		mov	r6, r0
 568 0006 0D46     		mov	r5, r1
 529:C:/Users/lenovo/Desktop/liteos/Project2/BearPi_LiteOS/components/connectivity/lwm2m/examples/shared\commandline.c ****     uint8_t tmp[4];
 530:C:/Users/lenovo/Desktop/liteos/Project2/BearPi_LiteOS/components/connectivity/lwm2m/examples/shared\commandline.c ****     int i;
 531:C:/Users/lenovo/Desktop/liteos/Project2/BearPi_LiteOS/components/connectivity/lwm2m/examples/shared\commandline.c **** 
 532:C:/Users/lenovo/Desktop/liteos/Project2/BearPi_LiteOS/components/connectivity/lwm2m/examples/shared\commandline.c ****     memset(output, 0, 3);
 569              		.loc 1 532 0
 570 0008 0024     		movs	r4, #0
 571 000a 0C80     		strh	r4, [r1]	@ unaligned
 572 000c 8C70     		strb	r4, [r1, #2]
 573              	.LVL67:
 533:C:/Users/lenovo/Desktop/liteos/Project2/BearPi_LiteOS/components/connectivity/lwm2m/examples/shared\commandline.c **** 
 534:C:/Users/lenovo/Desktop/liteos/Project2/BearPi_LiteOS/components/connectivity/lwm2m/examples/shared\commandline.c ****     for (i = 0; i < 4; i++)
 574              		.loc 1 534 0
 575 000e 07E0     		b	.L69
 576              	.LVL68:
 577              	.L70:
 535:C:/Users/lenovo/Desktop/liteos/Project2/BearPi_LiteOS/components/connectivity/lwm2m/examples/shared\commandline.c ****     {
 536:C:/Users/lenovo/Desktop/liteos/Project2/BearPi_LiteOS/components/connectivity/lwm2m/examples/shared\commandline.c ****         tmp[i] = prv_b64Revert(input[i]);
 578              		.loc 1 536 0 discriminator 3
 579 0010 305D     		ldrb	r0, [r6, r4]	@ zero_extendqisi2
 580 0012 FFF7FEFF 		bl	prv_b64Revert
 581              	.LVL69:
 582 0016 02AB     		add	r3, sp, #8
 583 0018 2344     		add	r3, r3, r4
 584 001a 03F8040C 		strb	r0, [r3, #-4]
 534:C:/Users/lenovo/Desktop/liteos/Project2/BearPi_LiteOS/components/connectivity/lwm2m/examples/shared\commandline.c ****     {
 585              		.loc 1 534 0 discriminator 3
 586 001e 0134     		adds	r4, r4, #1
 587              	.LVL70:
 588              	.L69:
 534:C:/Users/lenovo/Desktop/liteos/Project2/BearPi_LiteOS/components/connectivity/lwm2m/examples/shared\commandline.c ****     {
 589              		.loc 1 534 0 is_stmt 0 discriminator 1
 590 0020 032C     		cmp	r4, #3
 591 0022 F5DD     		ble	.L70
 537:C:/Users/lenovo/Desktop/liteos/Project2/BearPi_LiteOS/components/connectivity/lwm2m/examples/shared\commandline.c ****     }
 538:C:/Users/lenovo/Desktop/liteos/Project2/BearPi_LiteOS/components/connectivity/lwm2m/examples/shared\commandline.c **** 
 539:C:/Users/lenovo/Desktop/liteos/Project2/BearPi_LiteOS/components/connectivity/lwm2m/examples/shared\commandline.c ****     output[0] = (tmp[0] << 2) | (tmp[1] >> 4);
 592              		.loc 1 539 0 is_stmt 1
 593 0024 9DF80420 		ldrb	r2, [sp, #4]	@ zero_extendqisi2
 594 0028 9DF80500 		ldrb	r0, [sp, #5]	@ zero_extendqisi2
 595 002c 0309     		lsrs	r3, r0, #4
 596 002e 43EA8203 		orr	r3, r3, r2, lsl #2
 597 0032 2B70     		strb	r3, [r5]
 540:C:/Users/lenovo/Desktop/liteos/Project2/BearPi_LiteOS/components/connectivity/lwm2m/examples/shared\commandline.c ****     output[1] = (tmp[1] << 4) | (tmp[2] >> 2);
 598              		.loc 1 540 0
 599 0034 9DF80610 		ldrb	r1, [sp, #6]	@ zero_extendqisi2
 600 0038 8A08     		lsrs	r2, r1, #2
 601 003a 42EA0012 		orr	r2, r2, r0, lsl #4
 602 003e 6A70     		strb	r2, [r5, #1]
 541:C:/Users/lenovo/Desktop/liteos/Project2/BearPi_LiteOS/components/connectivity/lwm2m/examples/shared\commandline.c ****     output[2] = (tmp[2] << 6) | tmp[3];
 603              		.loc 1 541 0
 604 0040 9DF90730 		ldrsb	r3, [sp, #7]
 605 0044 43EA8113 		orr	r3, r3, r1, lsl #6
 606 0048 AB70     		strb	r3, [r5, #2]
 542:C:/Users/lenovo/Desktop/liteos/Project2/BearPi_LiteOS/components/connectivity/lwm2m/examples/shared\commandline.c **** }
 607              		.loc 1 542 0
ARM GAS  c:\Users\lenovo\AppData\Local\Temp\ccEGNnmz.s 			page 22


 608 004a 02B0     		add	sp, sp, #8
 609              	.LCFI6:
 610              		.cfi_def_cfa_offset 16
 611              		@ sp needed
 612 004c 70BD     		pop	{r4, r5, r6, pc}
 613              		.cfi_endproc
 614              	.LFE149:
 616              		.section	.text.handle_command,"ax",%progbits
 617              		.align	1
 618              		.global	handle_command
 619              		.syntax unified
 620              		.thumb
 621              		.thumb_func
 622              		.fpu fpv4-sp-d16
 624              	handle_command:
 625              	.LFB136:
 124:C:/Users/lenovo/Desktop/liteos/Project2/BearPi_LiteOS/components/connectivity/lwm2m/examples/shared\commandline.c ****     command_desc_t *cmdP;
 626              		.loc 1 124 0
 627              		.cfi_startproc
 628              		@ args = 0, pretend = 0, frame = 0
 629              		@ frame_needed = 0, uses_anonymous_args = 0
 630              	.LVL71:
 631 0000 2DE9F041 		push	{r4, r5, r6, r7, r8, lr}
 632              	.LCFI7:
 633              		.cfi_def_cfa_offset 24
 634              		.cfi_offset 4, -24
 635              		.cfi_offset 5, -20
 636              		.cfi_offset 6, -16
 637              		.cfi_offset 7, -12
 638              		.cfi_offset 8, -8
 639              		.cfi_offset 14, -4
 640 0004 0746     		mov	r7, r0
 641 0006 0D46     		mov	r5, r1
 642              	.LVL72:
 129:C:/Users/lenovo/Desktop/liteos/Project2/BearPi_LiteOS/components/connectivity/lwm2m/examples/shared\commandline.c ****     while (buffer[length] != 0 && !isspace(buffer[length] & 0xFF))
 643              		.loc 1 129 0
 644 0008 0024     		movs	r4, #0
 130:C:/Users/lenovo/Desktop/liteos/Project2/BearPi_LiteOS/components/connectivity/lwm2m/examples/shared\commandline.c ****         length++;
 645              		.loc 1 130 0
 646 000a 00E0     		b	.L73
 647              	.LVL73:
 648              	.L75:
 131:C:/Users/lenovo/Desktop/liteos/Project2/BearPi_LiteOS/components/connectivity/lwm2m/examples/shared\commandline.c **** 
 649              		.loc 1 131 0
 650 000c 0134     		adds	r4, r4, #1
 651              	.LVL74:
 652              	.L73:
 130:C:/Users/lenovo/Desktop/liteos/Project2/BearPi_LiteOS/components/connectivity/lwm2m/examples/shared\commandline.c ****         length++;
 653              		.loc 1 130 0
 654 000e 2646     		mov	r6, r4
 655 0010 2B5D     		ldrb	r3, [r5, r4]	@ zero_extendqisi2
 656 0012 3BB1     		cbz	r3, .L74
 130:C:/Users/lenovo/Desktop/liteos/Project2/BearPi_LiteOS/components/connectivity/lwm2m/examples/shared\commandline.c ****         length++;
 657              		.loc 1 130 0 is_stmt 0 discriminator 1
 658 0014 FFF7FEFF 		bl	__locale_ctype_ptr
 659              	.LVL75:
 660 0018 2B5D     		ldrb	r3, [r5, r4]	@ zero_extendqisi2
ARM GAS  c:\Users\lenovo\AppData\Local\Temp\ccEGNnmz.s 			page 23


 661 001a 1844     		add	r0, r0, r3
 662 001c 4378     		ldrb	r3, [r0, #1]	@ zero_extendqisi2
 663 001e 13F0080F 		tst	r3, #8
 664 0022 F3D0     		beq	.L75
 665              	.L74:
 133:C:/Users/lenovo/Desktop/liteos/Project2/BearPi_LiteOS/components/connectivity/lwm2m/examples/shared\commandline.c ****     if (cmdP != NULL)
 666              		.loc 1 133 0 is_stmt 1
 667 0024 3246     		mov	r2, r6
 668 0026 2946     		mov	r1, r5
 669 0028 3846     		mov	r0, r7
 670 002a FFF7FEFF 		bl	prv_find_command
 671              	.LVL76:
 134:C:/Users/lenovo/Desktop/liteos/Project2/BearPi_LiteOS/components/connectivity/lwm2m/examples/shared\commandline.c ****     {
 672              		.loc 1 134 0
 673 002e 8046     		mov	r8, r0
 674 0030 78B9     		cbnz	r0, .L76
 142:C:/Users/lenovo/Desktop/liteos/Project2/BearPi_LiteOS/components/connectivity/lwm2m/examples/shared\commandline.c ****         {
 675              		.loc 1 142 0
 676 0032 3246     		mov	r2, r6
 677 0034 1949     		ldr	r1, .L88
 678 0036 2846     		mov	r0, r5
 679              	.LVL77:
 680 0038 FFF7FEFF 		bl	strncmp
 681              	.LVL78:
 682 003c E8B1     		cbz	r0, .L81
 150:C:/Users/lenovo/Desktop/liteos/Project2/BearPi_LiteOS/components/connectivity/lwm2m/examples/shared\commandline.c ****         }
 683              		.loc 1 150 0
 684 003e 184B     		ldr	r3, .L88+4
 685 0040 1B68     		ldr	r3, [r3]
 686 0042 9B68     		ldr	r3, [r3, #8]
 687 0044 2822     		movs	r2, #40
 688 0046 0121     		movs	r1, #1
 689 0048 1648     		ldr	r0, .L88+8
 690 004a FFF7FEFF 		bl	fwrite
 691              	.LVL79:
 153:C:/Users/lenovo/Desktop/liteos/Project2/BearPi_LiteOS/components/connectivity/lwm2m/examples/shared\commandline.c **** 
 692              		.loc 1 153 0
 693 004e 11E0     		b	.L72
 694              	.L79:
 137:C:/Users/lenovo/Desktop/liteos/Project2/BearPi_LiteOS/components/connectivity/lwm2m/examples/shared\commandline.c ****         cmdP->callback(buffer + length, cmdP->userData);
 695              		.loc 1 137 0
 696 0050 0134     		adds	r4, r4, #1
 697              	.LVL80:
 698              	.L76:
 136:C:/Users/lenovo/Desktop/liteos/Project2/BearPi_LiteOS/components/connectivity/lwm2m/examples/shared\commandline.c ****             length++;
 699              		.loc 1 136 0
 700 0052 2E19     		adds	r6, r5, r4
 701 0054 2B5D     		ldrb	r3, [r5, r4]	@ zero_extendqisi2
 702 0056 3BB1     		cbz	r3, .L78
 136:C:/Users/lenovo/Desktop/liteos/Project2/BearPi_LiteOS/components/connectivity/lwm2m/examples/shared\commandline.c ****             length++;
 703              		.loc 1 136 0 is_stmt 0 discriminator 1
 704 0058 FFF7FEFF 		bl	__locale_ctype_ptr
 705              	.LVL81:
 706 005c 2B5D     		ldrb	r3, [r5, r4]	@ zero_extendqisi2
 707 005e 1844     		add	r0, r0, r3
 708 0060 4378     		ldrb	r3, [r0, #1]	@ zero_extendqisi2
 709 0062 13F0080F 		tst	r3, #8
ARM GAS  c:\Users\lenovo\AppData\Local\Temp\ccEGNnmz.s 			page 24


 710 0066 F3D1     		bne	.L79
 711              	.L78:
 138:C:/Users/lenovo/Desktop/liteos/Project2/BearPi_LiteOS/components/connectivity/lwm2m/examples/shared\commandline.c ****     }
 712              		.loc 1 138 0 is_stmt 1
 713 0068 D8F80C30 		ldr	r3, [r8, #12]
 714 006c D8F81010 		ldr	r1, [r8, #16]
 715 0070 3046     		mov	r0, r6
 716 0072 9847     		blx	r3
 717              	.LVL82:
 718              	.L72:
 153:C:/Users/lenovo/Desktop/liteos/Project2/BearPi_LiteOS/components/connectivity/lwm2m/examples/shared\commandline.c **** 
 719              		.loc 1 153 0
 720 0074 BDE8F081 		pop	{r4, r5, r6, r7, r8, pc}
 721              	.LVL83:
 722              	.L84:
 145:C:/Users/lenovo/Desktop/liteos/Project2/BearPi_LiteOS/components/connectivity/lwm2m/examples/shared\commandline.c ****             prv_displayHelp(commandArray, buffer + length);
 723              		.loc 1 145 0
 724 0078 0134     		adds	r4, r4, #1
 725              	.LVL84:
 726              	.L81:
 144:C:/Users/lenovo/Desktop/liteos/Project2/BearPi_LiteOS/components/connectivity/lwm2m/examples/shared\commandline.c ****                 length++;
 727              		.loc 1 144 0
 728 007a 2E19     		adds	r6, r5, r4
 729 007c 2B5D     		ldrb	r3, [r5, r4]	@ zero_extendqisi2
 730 007e 3BB1     		cbz	r3, .L83
 144:C:/Users/lenovo/Desktop/liteos/Project2/BearPi_LiteOS/components/connectivity/lwm2m/examples/shared\commandline.c ****                 length++;
 731              		.loc 1 144 0 is_stmt 0 discriminator 1
 732 0080 FFF7FEFF 		bl	__locale_ctype_ptr
 733              	.LVL85:
 734 0084 2B5D     		ldrb	r3, [r5, r4]	@ zero_extendqisi2
 735 0086 1844     		add	r0, r0, r3
 736 0088 4378     		ldrb	r3, [r0, #1]	@ zero_extendqisi2
 737 008a 13F0080F 		tst	r3, #8
 738 008e F3D1     		bne	.L84
 739              	.L83:
 146:C:/Users/lenovo/Desktop/liteos/Project2/BearPi_LiteOS/components/connectivity/lwm2m/examples/shared\commandline.c ****         }
 740              		.loc 1 146 0 is_stmt 1
 741 0090 3146     		mov	r1, r6
 742 0092 3846     		mov	r0, r7
 743 0094 FFF7FEFF 		bl	prv_displayHelp
 744              	.LVL86:
 745 0098 ECE7     		b	.L72
 746              	.L89:
 747 009a 00BF     		.align	2
 748              	.L88:
 749 009c 00000000 		.word	.LC19
 750 00a0 00000000 		.word	_impure_ptr
 751 00a4 08000000 		.word	.LC20
 752              		.cfi_endproc
 753              	.LFE136:
 755              		.section	.text.get_end_of_arg,"ax",%progbits
 756              		.align	1
 757              		.global	get_end_of_arg
 758              		.syntax unified
 759              		.thumb
 760              		.thumb_func
 761              		.fpu fpv4-sp-d16
ARM GAS  c:\Users\lenovo\AppData\Local\Temp\ccEGNnmz.s 			page 25


 763              	get_end_of_arg:
 764              	.LFB138:
 165:C:/Users/lenovo/Desktop/liteos/Project2/BearPi_LiteOS/components/connectivity/lwm2m/examples/shared\commandline.c ****     while (buffer[0] != 0 && !isspace(buffer[0] & 0xFF))
 765              		.loc 1 165 0
 766              		.cfi_startproc
 767              		@ args = 0, pretend = 0, frame = 0
 768              		@ frame_needed = 0, uses_anonymous_args = 0
 769              	.LVL87:
 770 0000 10B5     		push	{r4, lr}
 771              	.LCFI8:
 772              		.cfi_def_cfa_offset 8
 773              		.cfi_offset 4, -8
 774              		.cfi_offset 14, -4
 775 0002 0446     		mov	r4, r0
 166:C:/Users/lenovo/Desktop/liteos/Project2/BearPi_LiteOS/components/connectivity/lwm2m/examples/shared\commandline.c ****     {
 776              		.loc 1 166 0
 777 0004 00E0     		b	.L91
 778              	.LVL88:
 779              	.L93:
 168:C:/Users/lenovo/Desktop/liteos/Project2/BearPi_LiteOS/components/connectivity/lwm2m/examples/shared\commandline.c ****     }
 780              		.loc 1 168 0
 781 0006 0134     		adds	r4, r4, #1
 782              	.LVL89:
 783              	.L91:
 166:C:/Users/lenovo/Desktop/liteos/Project2/BearPi_LiteOS/components/connectivity/lwm2m/examples/shared\commandline.c ****     {
 784              		.loc 1 166 0
 785 0008 2378     		ldrb	r3, [r4]	@ zero_extendqisi2
 786 000a 3BB1     		cbz	r3, .L92
 166:C:/Users/lenovo/Desktop/liteos/Project2/BearPi_LiteOS/components/connectivity/lwm2m/examples/shared\commandline.c ****     {
 787              		.loc 1 166 0 is_stmt 0 discriminator 1
 788 000c FFF7FEFF 		bl	__locale_ctype_ptr
 789              	.LVL90:
 790 0010 2378     		ldrb	r3, [r4]	@ zero_extendqisi2
 791 0012 1844     		add	r0, r0, r3
 792 0014 4378     		ldrb	r3, [r0, #1]	@ zero_extendqisi2
 793 0016 13F0080F 		tst	r3, #8
 794 001a F4D0     		beq	.L93
 795              	.L92:
 171:C:/Users/lenovo/Desktop/liteos/Project2/BearPi_LiteOS/components/connectivity/lwm2m/examples/shared\commandline.c **** 
 796              		.loc 1 171 0 is_stmt 1
 797 001c 2046     		mov	r0, r4
 798 001e 10BD     		pop	{r4, pc}
 799              		.cfi_endproc
 800              	.LFE138:
 802              		.section	.text.get_next_arg,"ax",%progbits
 803              		.align	1
 804              		.global	get_next_arg
 805              		.syntax unified
 806              		.thumb
 807              		.thumb_func
 808              		.fpu fpv4-sp-d16
 810              	get_next_arg:
 811              	.LFB139:
 174:C:/Users/lenovo/Desktop/liteos/Project2/BearPi_LiteOS/components/connectivity/lwm2m/examples/shared\commandline.c ****     // skip arg
 812              		.loc 1 174 0
 813              		.cfi_startproc
 814              		@ args = 0, pretend = 0, frame = 0
ARM GAS  c:\Users\lenovo\AppData\Local\Temp\ccEGNnmz.s 			page 26


 815              		@ frame_needed = 0, uses_anonymous_args = 0
 816              	.LVL91:
 817 0000 38B5     		push	{r3, r4, r5, lr}
 818              	.LCFI9:
 819              		.cfi_def_cfa_offset 16
 820              		.cfi_offset 3, -16
 821              		.cfi_offset 4, -12
 822              		.cfi_offset 5, -8
 823              		.cfi_offset 14, -4
 824 0002 0D46     		mov	r5, r1
 176:C:/Users/lenovo/Desktop/liteos/Project2/BearPi_LiteOS/components/connectivity/lwm2m/examples/shared\commandline.c ****     // skip space
 825              		.loc 1 176 0
 826 0004 FFF7FEFF 		bl	get_end_of_arg
 827              	.LVL92:
 178:C:/Users/lenovo/Desktop/liteos/Project2/BearPi_LiteOS/components/connectivity/lwm2m/examples/shared\commandline.c ****     if (NULL != end)
 828              		.loc 1 178 0
 829 0008 FFF7FEFF 		bl	prv_end_of_space
 830              	.LVL93:
 831 000c 0446     		mov	r4, r0
 832              	.LVL94:
 179:C:/Users/lenovo/Desktop/liteos/Project2/BearPi_LiteOS/components/connectivity/lwm2m/examples/shared\commandline.c ****     {
 833              		.loc 1 179 0
 834 000e 15B1     		cbz	r5, .L95
 181:C:/Users/lenovo/Desktop/liteos/Project2/BearPi_LiteOS/components/connectivity/lwm2m/examples/shared\commandline.c ****     }
 835              		.loc 1 181 0
 836 0010 FFF7FEFF 		bl	get_end_of_arg
 837              	.LVL95:
 838 0014 2860     		str	r0, [r5]
 839              	.L95:
 185:C:/Users/lenovo/Desktop/liteos/Project2/BearPi_LiteOS/components/connectivity/lwm2m/examples/shared\commandline.c **** 
 840              		.loc 1 185 0
 841 0016 2046     		mov	r0, r4
 842 0018 38BD     		pop	{r3, r4, r5, pc}
 843              		.cfi_endproc
 844              	.LFE139:
 846              		.section	.text.check_end_of_args,"ax",%progbits
 847              		.align	1
 848              		.global	check_end_of_args
 849              		.syntax unified
 850              		.thumb
 851              		.thumb_func
 852              		.fpu fpv4-sp-d16
 854              	check_end_of_args:
 855              	.LFB140:
 188:C:/Users/lenovo/Desktop/liteos/Project2/BearPi_LiteOS/components/connectivity/lwm2m/examples/shared\commandline.c ****     buffer = prv_end_of_space(buffer);
 856              		.loc 1 188 0
 857              		.cfi_startproc
 858              		@ args = 0, pretend = 0, frame = 0
 859              		@ frame_needed = 0, uses_anonymous_args = 0
 860              	.LVL96:
 861 0000 08B5     		push	{r3, lr}
 862              	.LCFI10:
 863              		.cfi_def_cfa_offset 8
 864              		.cfi_offset 3, -8
 865              		.cfi_offset 14, -4
 189:C:/Users/lenovo/Desktop/liteos/Project2/BearPi_LiteOS/components/connectivity/lwm2m/examples/shared\commandline.c **** 
 866              		.loc 1 189 0
ARM GAS  c:\Users\lenovo\AppData\Local\Temp\ccEGNnmz.s 			page 27


 867 0002 FFF7FEFF 		bl	prv_end_of_space
 868              	.LVL97:
 191:C:/Users/lenovo/Desktop/liteos/Project2/BearPi_LiteOS/components/connectivity/lwm2m/examples/shared\commandline.c **** }
 869              		.loc 1 191 0
 870 0006 0078     		ldrb	r0, [r0]	@ zero_extendqisi2
 871              	.LVL98:
 192:C:/Users/lenovo/Desktop/liteos/Project2/BearPi_LiteOS/components/connectivity/lwm2m/examples/shared\commandline.c **** 
 872              		.loc 1 192 0
 873 0008 B0FA80F0 		clz	r0, r0
 874 000c 4009     		lsrs	r0, r0, #5
 875 000e 08BD     		pop	{r3, pc}
 876              		.cfi_endproc
 877              	.LFE140:
 879              		.section	.text.output_buffer,"ax",%progbits
 880              		.align	1
 881              		.global	output_buffer
 882              		.syntax unified
 883              		.thumb
 884              		.thumb_func
 885              		.fpu fpv4-sp-d16
 887              	output_buffer:
 888              	.LFB142:
 257:C:/Users/lenovo/Desktop/liteos/Project2/BearPi_LiteOS/components/connectivity/lwm2m/examples/shared\commandline.c **** }
 889              		.loc 1 257 0
 890              		.cfi_startproc
 891              		@ args = 0, pretend = 0, frame = 0
 892              		@ frame_needed = 0, uses_anonymous_args = 0
 893              		@ link register save eliminated.
 894              	.LVL99:
 258:C:/Users/lenovo/Desktop/liteos/Project2/BearPi_LiteOS/components/connectivity/lwm2m/examples/shared\commandline.c **** #endif
 895              		.loc 1 258 0
 896 0000 7047     		bx	lr
 897              		.cfi_endproc
 898              	.LFE142:
 900              		.section	.text.output_tlv,"ax",%progbits
 901              		.align	1
 902              		.global	output_tlv
 903              		.syntax unified
 904              		.thumb
 905              		.thumb_func
 906              		.fpu fpv4-sp-d16
 908              	output_tlv:
 909              	.LFB143:
 264:C:/Users/lenovo/Desktop/liteos/Project2/BearPi_LiteOS/components/connectivity/lwm2m/examples/shared\commandline.c ****     lwm2m_data_type_t type;
 910              		.loc 1 264 0
 911              		.cfi_startproc
 912              		@ args = 0, pretend = 0, frame = 40
 913              		@ frame_needed = 0, uses_anonymous_args = 0
 914              	.LVL100:
 915 0000 2DE9F04F 		push	{r4, r5, r6, r7, r8, r9, r10, fp, lr}
 916              	.LCFI11:
 917              		.cfi_def_cfa_offset 36
 918              		.cfi_offset 4, -36
 919              		.cfi_offset 5, -32
 920              		.cfi_offset 6, -28
 921              		.cfi_offset 7, -24
 922              		.cfi_offset 8, -20
ARM GAS  c:\Users\lenovo\AppData\Local\Temp\ccEGNnmz.s 			page 28


 923              		.cfi_offset 9, -16
 924              		.cfi_offset 10, -12
 925              		.cfi_offset 11, -8
 926              		.cfi_offset 14, -4
 927 0004 8DB0     		sub	sp, sp, #52
 928              	.LCFI12:
 929              		.cfi_def_cfa_offset 88
 930 0006 8246     		mov	r10, r0
 931 0008 0E46     		mov	r6, r1
 932 000a 9146     		mov	r9, r2
 933 000c 1F46     		mov	r7, r3
 934              	.LVL101:
 269:C:/Users/lenovo/Desktop/liteos/Project2/BearPi_LiteOS/components/connectivity/lwm2m/examples/shared\commandline.c ****     int result;
 935              		.loc 1 269 0
 936 000e 0025     		movs	r5, #0
 272:C:/Users/lenovo/Desktop/liteos/Project2/BearPi_LiteOS/components/connectivity/lwm2m/examples/shared\commandline.c ****     {
 937              		.loc 1 272 0
 938 0010 5AE0     		b	.L102
 939              	.LVL102:
 940              	.L119:
 283:C:/Users/lenovo/Desktop/liteos/Project2/BearPi_LiteOS/components/connectivity/lwm2m/examples/shared\commandline.c ****             break;
 941              		.loc 1 283 0
 942 0012 5346     		mov	r3, r10
 943 0014 0F22     		movs	r2, #15
 944 0016 0121     		movs	r1, #1
 945 0018 5F48     		ldr	r0, .L120
 946 001a FFF7FEFF 		bl	fwrite
 947              	.LVL103:
 948              	.L107:
 295:C:/Users/lenovo/Desktop/liteos/Project2/BearPi_LiteOS/components/connectivity/lwm2m/examples/shared\commandline.c **** 
 949              		.loc 1 295 0
 950 001e 5146     		mov	r1, r10
 951 0020 0A20     		movs	r0, #10
 952 0022 FFF7FEFF 		bl	fputc
 953              	.LVL104:
 297:C:/Users/lenovo/Desktop/liteos/Project2/BearPi_LiteOS/components/connectivity/lwm2m/examples/shared\commandline.c ****         fprintf(stream, "{\n");
 954              		.loc 1 297 0
 955 0026 2146     		mov	r1, r4
 956 0028 5046     		mov	r0, r10
 957 002a FFF7FEFF 		bl	print_indent
 958              	.LVL105:
 298:C:/Users/lenovo/Desktop/liteos/Project2/BearPi_LiteOS/components/connectivity/lwm2m/examples/shared\commandline.c ****         if (type == LWM2M_TYPE_OBJECT_INSTANCE || type == LWM2M_TYPE_MULTIPLE_RESOURCE)
 959              		.loc 1 298 0
 960 002e 5346     		mov	r3, r10
 961 0030 0222     		movs	r2, #2
 962 0032 0121     		movs	r1, #1
 963 0034 5948     		ldr	r0, .L120+4
 964 0036 FFF7FEFF 		bl	fwrite
 965              	.LVL106:
 299:C:/Users/lenovo/Desktop/liteos/Project2/BearPi_LiteOS/components/connectivity/lwm2m/examples/shared\commandline.c ****         {
 966              		.loc 1 299 0
 967 003a 9DF82F30 		ldrb	r3, [sp, #47]	@ zero_extendqisi2
 968 003e 023B     		subs	r3, r3, #2
 969 0040 DBB2     		uxtb	r3, r3
 970 0042 012B     		cmp	r3, #1
 971 0044 40F28680 		bls	.L115
 972              	.LBB3:
ARM GAS  c:\Users\lenovo\AppData\Local\Temp\ccEGNnmz.s 			page 29


 309:C:/Users/lenovo/Desktop/liteos/Project2/BearPi_LiteOS/components/connectivity/lwm2m/examples/shared\commandline.c ****             fprintf(stream, "data (%d bytes):\r\n", dataLen);
 973              		.loc 1 309 0
 974 0048 BB1C     		adds	r3, r7, #2
 975 004a 0393     		str	r3, [sp, #12]
 976 004c 1946     		mov	r1, r3
 977 004e 5046     		mov	r0, r10
 978 0050 FFF7FEFF 		bl	print_indent
 979              	.LVL107:
 310:C:/Users/lenovo/Desktop/liteos/Project2/BearPi_LiteOS/components/connectivity/lwm2m/examples/shared\commandline.c ****             output_buffer(stream, (uint8_t *)buffer + length + dataIndex, dataLen, indent + 2);
 980              		.loc 1 310 0
 981 0054 099A     		ldr	r2, [sp, #36]
 982 0056 5249     		ldr	r1, .L120+8
 983 0058 5046     		mov	r0, r10
 984 005a FFF7FEFF 		bl	fprintf
 985              	.LVL108:
 311:C:/Users/lenovo/Desktop/liteos/Project2/BearPi_LiteOS/components/connectivity/lwm2m/examples/shared\commandline.c **** 
 986              		.loc 1 311 0
 987 005e 0A98     		ldr	r0, [sp, #40]
 988 0060 4044     		add	r0, r0, r8
 989 0062 099B     		ldr	r3, [sp, #36]
 313:C:/Users/lenovo/Desktop/liteos/Project2/BearPi_LiteOS/components/connectivity/lwm2m/examples/shared\commandline.c ****             buffer[length + dataIndex + dataLen] = 0;
 990              		.loc 1 313 0
 991 0064 0344     		add	r3, r3, r0
 992 0066 16F803B0 		ldrb	fp, [r6, r3]	@ zero_extendqisi2
 993              	.LVL109:
 314:C:/Users/lenovo/Desktop/liteos/Project2/BearPi_LiteOS/components/connectivity/lwm2m/examples/shared\commandline.c ****             if (0 < sscanf((const char *)buffer + length + dataIndex, "%"PRId64, &intValue))
 994              		.loc 1 314 0
 995 006a 0022     		movs	r2, #0
 996 006c F254     		strb	r2, [r6, r3]
 315:C:/Users/lenovo/Desktop/liteos/Project2/BearPi_LiteOS/components/connectivity/lwm2m/examples/shared\commandline.c ****             {
 997              		.loc 1 315 0
 998 006e 04AA     		add	r2, sp, #16
 999 0070 4C49     		ldr	r1, .L120+12
 1000 0072 3044     		add	r0, r0, r6
 1001 0074 FFF7FEFF 		bl	sscanf
 1002              	.LVL110:
 1003 0078 0028     		cmp	r0, #0
 1004 007a 74DC     		bgt	.L116
 1005              	.L110:
 320:C:/Users/lenovo/Desktop/liteos/Project2/BearPi_LiteOS/components/connectivity/lwm2m/examples/shared\commandline.c ****             {
 1006              		.loc 1 320 0
 1007 007c 0A98     		ldr	r0, [sp, #40]
 1008 007e 4044     		add	r0, r0, r8
 1009 0080 06AA     		add	r2, sp, #24
 1010 0082 4949     		ldr	r1, .L120+16
 1011 0084 3044     		add	r0, r0, r6
 1012 0086 FFF7FEFF 		bl	sscanf
 1013              	.LVL111:
 1014 008a 0028     		cmp	r0, #0
 1015 008c 76DC     		bgt	.L117
 1016              	.L111:
 325:C:/Users/lenovo/Desktop/liteos/Project2/BearPi_LiteOS/components/connectivity/lwm2m/examples/shared\commandline.c ****         }
 1017              		.loc 1 325 0
 1018 008e 0A99     		ldr	r1, [sp, #40]
 1019 0090 4144     		add	r1, r1, r8
 1020 0092 099B     		ldr	r3, [sp, #36]
 1021 0094 1944     		add	r1, r1, r3
ARM GAS  c:\Users\lenovo\AppData\Local\Temp\ccEGNnmz.s 			page 30


 1022 0096 06F801B0 		strb	fp, [r6, r1]
 1023              	.LVL112:
 1024              	.L109:
 1025              	.LBE3:
 327:C:/Users/lenovo/Desktop/liteos/Project2/BearPi_LiteOS/components/connectivity/lwm2m/examples/shared\commandline.c ****         fprintf(stream, "}\r\n");
 1026              		.loc 1 327 0
 1027 009a 2146     		mov	r1, r4
 1028 009c 5046     		mov	r0, r10
 1029 009e FFF7FEFF 		bl	print_indent
 1030              	.LVL113:
 328:C:/Users/lenovo/Desktop/liteos/Project2/BearPi_LiteOS/components/connectivity/lwm2m/examples/shared\commandline.c ****         length += result;
 1031              		.loc 1 328 0
 1032 00a2 424C     		ldr	r4, .L120+20
 1033 00a4 5346     		mov	r3, r10
 1034 00a6 0322     		movs	r2, #3
 1035 00a8 0121     		movs	r1, #1
 1036 00aa 2046     		mov	r0, r4
 1037 00ac FFF7FEFF 		bl	fwrite
 1038              	.LVL114:
 329:C:/Users/lenovo/Desktop/liteos/Project2/BearPi_LiteOS/components/connectivity/lwm2m/examples/shared\commandline.c ****         print_indent(stream, indent);
 1039              		.loc 1 329 0
 1040 00b0 029B     		ldr	r3, [sp, #8]
 1041 00b2 1D44     		add	r5, r5, r3
 1042              	.LVL115:
 330:C:/Users/lenovo/Desktop/liteos/Project2/BearPi_LiteOS/components/connectivity/lwm2m/examples/shared\commandline.c ****         fprintf(stream, "}\r\n");
 1043              		.loc 1 330 0
 1044 00b4 3946     		mov	r1, r7
 1045 00b6 5046     		mov	r0, r10
 1046 00b8 FFF7FEFF 		bl	print_indent
 1047              	.LVL116:
 331:C:/Users/lenovo/Desktop/liteos/Project2/BearPi_LiteOS/components/connectivity/lwm2m/examples/shared\commandline.c ****     }
 1048              		.loc 1 331 0
 1049 00bc 5346     		mov	r3, r10
 1050 00be 0322     		movs	r2, #3
 1051 00c0 0121     		movs	r1, #1
 1052 00c2 2046     		mov	r0, r4
 1053 00c4 FFF7FEFF 		bl	fwrite
 1054              	.LVL117:
 1055              	.L102:
 272:C:/Users/lenovo/Desktop/liteos/Project2/BearPi_LiteOS/components/connectivity/lwm2m/examples/shared\commandline.c ****     {
 1056              		.loc 1 272 0
 1057 00c8 A846     		mov	r8, r5
 1058 00ca 09AB     		add	r3, sp, #36
 1059 00cc 0193     		str	r3, [sp, #4]
 1060 00ce 0AAB     		add	r3, sp, #40
 1061 00d0 0093     		str	r3, [sp]
 1062 00d2 0BAB     		add	r3, sp, #44
 1063 00d4 0DF12F02 		add	r2, sp, #47
 1064 00d8 A9EB0501 		sub	r1, r9, r5
 1065 00dc 7019     		adds	r0, r6, r5
 1066 00de FFF7FEFF 		bl	lwm2m_decode_TLV
 1067              	.LVL118:
 1068 00e2 0290     		str	r0, [sp, #8]
 1069 00e4 0028     		cmp	r0, #0
 1070 00e6 54D0     		beq	.L118
 274:C:/Users/lenovo/Desktop/liteos/Project2/BearPi_LiteOS/components/connectivity/lwm2m/examples/shared\commandline.c ****         fprintf(stream, "{\r\n");
 1071              		.loc 1 274 0
ARM GAS  c:\Users\lenovo\AppData\Local\Temp\ccEGNnmz.s 			page 31


 1072 00e8 3946     		mov	r1, r7
 1073 00ea 5046     		mov	r0, r10
 1074              	.LVL119:
 1075 00ec FFF7FEFF 		bl	print_indent
 1076              	.LVL120:
 275:C:/Users/lenovo/Desktop/liteos/Project2/BearPi_LiteOS/components/connectivity/lwm2m/examples/shared\commandline.c ****         print_indent(stream, indent + 1);
 1077              		.loc 1 275 0
 1078 00f0 5346     		mov	r3, r10
 1079 00f2 0322     		movs	r2, #3
 1080 00f4 0121     		movs	r1, #1
 1081 00f6 2E48     		ldr	r0, .L120+24
 1082 00f8 FFF7FEFF 		bl	fwrite
 1083              	.LVL121:
 276:C:/Users/lenovo/Desktop/liteos/Project2/BearPi_LiteOS/components/connectivity/lwm2m/examples/shared\commandline.c ****         fprintf(stream, "ID: %d", id);
 1084              		.loc 1 276 0
 1085 00fc 7C1C     		adds	r4, r7, #1
 1086 00fe 2146     		mov	r1, r4
 1087 0100 5046     		mov	r0, r10
 1088 0102 FFF7FEFF 		bl	print_indent
 1089              	.LVL122:
 277:C:/Users/lenovo/Desktop/liteos/Project2/BearPi_LiteOS/components/connectivity/lwm2m/examples/shared\commandline.c **** 
 1090              		.loc 1 277 0
 1091 0106 BDF82C20 		ldrh	r2, [sp, #44]
 1092 010a 2A49     		ldr	r1, .L120+28
 1093 010c 5046     		mov	r0, r10
 1094 010e FFF7FEFF 		bl	fprintf
 1095              	.LVL123:
 279:C:/Users/lenovo/Desktop/liteos/Project2/BearPi_LiteOS/components/connectivity/lwm2m/examples/shared\commandline.c ****         switch (type)
 1096              		.loc 1 279 0
 1097 0112 5346     		mov	r3, r10
 1098 0114 0722     		movs	r2, #7
 1099 0116 0121     		movs	r1, #1
 1100 0118 2748     		ldr	r0, .L120+32
 1101 011a FFF7FEFF 		bl	fwrite
 1102              	.LVL124:
 280:C:/Users/lenovo/Desktop/liteos/Project2/BearPi_LiteOS/components/connectivity/lwm2m/examples/shared\commandline.c ****         {
 1103              		.loc 1 280 0
 1104 011e 9DF82F10 		ldrb	r1, [sp, #47]	@ zero_extendqisi2
 1105 0122 0329     		cmp	r1, #3
 1106 0124 08D0     		beq	.L104
 1107 0126 0529     		cmp	r1, #5
 1108 0128 0DD0     		beq	.L105
 1109 012a 0229     		cmp	r1, #2
 1110 012c 3FF471AF 		beq	.L119
 292:C:/Users/lenovo/Desktop/liteos/Project2/BearPi_LiteOS/components/connectivity/lwm2m/examples/shared\commandline.c ****             break;
 1111              		.loc 1 292 0
 1112 0130 2248     		ldr	r0, .L120+36
 1113 0132 FFF7FEFF 		bl	printf
 1114              	.LVL125:
 293:C:/Users/lenovo/Desktop/liteos/Project2/BearPi_LiteOS/components/connectivity/lwm2m/examples/shared\commandline.c ****         }
 1115              		.loc 1 293 0
 1116 0136 72E7     		b	.L107
 1117              	.L104:
 286:C:/Users/lenovo/Desktop/liteos/Project2/BearPi_LiteOS/components/connectivity/lwm2m/examples/shared\commandline.c ****             break;
 1118              		.loc 1 286 0
 1119 0138 5346     		mov	r3, r10
 1120 013a 1222     		movs	r2, #18
ARM GAS  c:\Users\lenovo\AppData\Local\Temp\ccEGNnmz.s 			page 32


 1121 013c 0121     		movs	r1, #1
 1122 013e 2048     		ldr	r0, .L120+40
 1123 0140 FFF7FEFF 		bl	fwrite
 1124              	.LVL126:
 287:C:/Users/lenovo/Desktop/liteos/Project2/BearPi_LiteOS/components/connectivity/lwm2m/examples/shared\commandline.c ****         case LWM2M_TYPE_OPAQUE:
 1125              		.loc 1 287 0
 1126 0144 6BE7     		b	.L107
 1127              	.L105:
 289:C:/Users/lenovo/Desktop/liteos/Project2/BearPi_LiteOS/components/connectivity/lwm2m/examples/shared\commandline.c ****             break;
 1128              		.loc 1 289 0
 1129 0146 5346     		mov	r3, r10
 1130 0148 0E22     		movs	r2, #14
 1131 014a 0121     		movs	r1, #1
 1132 014c 1D48     		ldr	r0, .L120+44
 1133 014e FFF7FEFF 		bl	fwrite
 1134              	.LVL127:
 290:C:/Users/lenovo/Desktop/liteos/Project2/BearPi_LiteOS/components/connectivity/lwm2m/examples/shared\commandline.c ****         default:
 1135              		.loc 1 290 0
 1136 0152 64E7     		b	.L107
 1137              	.L115:
 301:C:/Users/lenovo/Desktop/liteos/Project2/BearPi_LiteOS/components/connectivity/lwm2m/examples/shared\commandline.c ****         }
 1138              		.loc 1 301 0
 1139 0154 0A99     		ldr	r1, [sp, #40]
 1140 0156 4144     		add	r1, r1, r8
 1141 0158 2346     		mov	r3, r4
 1142 015a 099A     		ldr	r2, [sp, #36]
 1143 015c 3144     		add	r1, r1, r6
 1144 015e 5046     		mov	r0, r10
 1145 0160 FFF7FEFF 		bl	output_tlv
 1146              	.LVL128:
 1147 0164 99E7     		b	.L109
 1148              	.LVL129:
 1149              	.L116:
 1150              	.LBB4:
 317:C:/Users/lenovo/Desktop/liteos/Project2/BearPi_LiteOS/components/connectivity/lwm2m/examples/shared\commandline.c ****                 fprintf(stream, "data as Integer: %" PRId64 "\r\n", intValue);
 1151              		.loc 1 317 0
 1152 0166 0399     		ldr	r1, [sp, #12]
 1153 0168 5046     		mov	r0, r10
 1154 016a FFF7FEFF 		bl	print_indent
 1155              	.LVL130:
 318:C:/Users/lenovo/Desktop/liteos/Project2/BearPi_LiteOS/components/connectivity/lwm2m/examples/shared\commandline.c ****             }
 1156              		.loc 1 318 0
 1157 016e DDE90423 		ldrd	r2, [sp, #16]
 1158 0172 1549     		ldr	r1, .L120+48
 1159 0174 5046     		mov	r0, r10
 1160 0176 FFF7FEFF 		bl	fprintf
 1161              	.LVL131:
 1162 017a 7FE7     		b	.L110
 1163              	.L117:
 322:C:/Users/lenovo/Desktop/liteos/Project2/BearPi_LiteOS/components/connectivity/lwm2m/examples/shared\commandline.c ****                 fprintf(stream, "data as Float: %.16g\r\n", floatValue);
 1164              		.loc 1 322 0
 1165 017c 0399     		ldr	r1, [sp, #12]
 1166 017e 5046     		mov	r0, r10
 1167 0180 FFF7FEFF 		bl	print_indent
 1168              	.LVL132:
 323:C:/Users/lenovo/Desktop/liteos/Project2/BearPi_LiteOS/components/connectivity/lwm2m/examples/shared\commandline.c ****             }
 1169              		.loc 1 323 0
ARM GAS  c:\Users\lenovo\AppData\Local\Temp\ccEGNnmz.s 			page 33


 1170 0184 DDE90623 		ldrd	r2, [sp, #24]
 1171 0188 1049     		ldr	r1, .L120+52
 1172 018a 5046     		mov	r0, r10
 1173 018c FFF7FEFF 		bl	fprintf
 1174              	.LVL133:
 1175 0190 7DE7     		b	.L111
 1176              	.LVL134:
 1177              	.L118:
 1178              	.LBE4:
 333:C:/Users/lenovo/Desktop/liteos/Project2/BearPi_LiteOS/components/connectivity/lwm2m/examples/shared\commandline.c **** 
 1179              		.loc 1 333 0
 1180 0192 0DB0     		add	sp, sp, #52
 1181              	.LCFI13:
 1182              		.cfi_def_cfa_offset 36
 1183              		@ sp needed
 1184 0194 BDE8F08F 		pop	{r4, r5, r6, r7, r8, r9, r10, fp, pc}
 1185              	.LVL135:
 1186              	.L121:
 1187              		.align	2
 1188              	.L120:
 1189 0198 14000000 		.word	.LC24
 1190 019c 58000000 		.word	.LC28
 1191 01a0 5C000000 		.word	.LC29
 1192 01a4 70000000 		.word	.LC30
 1193 01a8 90000000 		.word	.LC32
 1194 01ac AC000000 		.word	.LC34
 1195 01b0 00000000 		.word	.LC21
 1196 01b4 04000000 		.word	.LC22
 1197 01b8 0C000000 		.word	.LC23
 1198 01bc 48000000 		.word	.LC27
 1199 01c0 24000000 		.word	.LC25
 1200 01c4 38000000 		.word	.LC26
 1201 01c8 78000000 		.word	.LC31
 1202 01cc 94000000 		.word	.LC33
 1203              		.cfi_endproc
 1204              	.LFE143:
 1206              		.section	.text.output_data,"ax",%progbits
 1207              		.align	1
 1208              		.global	output_data
 1209              		.syntax unified
 1210              		.thumb
 1211              		.thumb_func
 1212              		.fpu fpv4-sp-d16
 1214              	output_data:
 1215              	.LFB144:
 340:C:/Users/lenovo/Desktop/liteos/Project2/BearPi_LiteOS/components/connectivity/lwm2m/examples/shared\commandline.c ****     int i;
 1216              		.loc 1 340 0
 1217              		.cfi_startproc
 1218              		@ args = 4, pretend = 0, frame = 0
 1219              		@ frame_needed = 0, uses_anonymous_args = 0
 1220              	.LVL136:
 1221 0000 F8B5     		push	{r3, r4, r5, r6, r7, lr}
 1222              	.LCFI14:
 1223              		.cfi_def_cfa_offset 24
 1224              		.cfi_offset 3, -24
 1225              		.cfi_offset 4, -20
 1226              		.cfi_offset 5, -16
ARM GAS  c:\Users\lenovo\AppData\Local\Temp\ccEGNnmz.s 			page 34


 1227              		.cfi_offset 6, -12
 1228              		.cfi_offset 7, -8
 1229              		.cfi_offset 14, -4
 1230 0002 0446     		mov	r4, r0
 1231 0004 0E46     		mov	r6, r1
 1232 0006 1746     		mov	r7, r2
 1233 0008 1D46     		mov	r5, r3
 343:C:/Users/lenovo/Desktop/liteos/Project2/BearPi_LiteOS/components/connectivity/lwm2m/examples/shared\commandline.c ****     fprintf(stream, "%d bytes received of type ", dataLength);
 1234              		.loc 1 343 0
 1235 000a 0699     		ldr	r1, [sp, #24]
 1236              	.LVL137:
 1237 000c FFF7FEFF 		bl	print_indent
 1238              	.LVL138:
 344:C:/Users/lenovo/Desktop/liteos/Project2/BearPi_LiteOS/components/connectivity/lwm2m/examples/shared\commandline.c **** 
 1239              		.loc 1 344 0
 1240 0010 2A46     		mov	r2, r5
 1241 0012 3149     		ldr	r1, .L136
 1242 0014 2046     		mov	r0, r4
 1243 0016 FFF7FEFF 		bl	fprintf
 1244              	.LVL139:
 346:C:/Users/lenovo/Desktop/liteos/Project2/BearPi_LiteOS/components/connectivity/lwm2m/examples/shared\commandline.c ****     {
 1245              		.loc 1 346 0
 1246 001a 2A2E     		cmp	r6, #42
 1247 001c 2AD0     		beq	.L124
 1248 001e 0ED8     		bhi	.L125
 1249 0020 0EB3     		cbz	r6, .L126
 1250 0022 282E     		cmp	r6, #40
 1251 0024 52D1     		bne	.L123
 374:C:/Users/lenovo/Desktop/liteos/Project2/BearPi_LiteOS/components/connectivity/lwm2m/examples/shared\commandline.c ****         print_indent(stream, indent);
 1252              		.loc 1 374 0
 1253 0026 2346     		mov	r3, r4
 1254 0028 1A22     		movs	r2, #26
 1255 002a 0121     		movs	r1, #1
 1256 002c 2B48     		ldr	r0, .L136+4
 1257 002e FFF7FEFF 		bl	fwrite
 1258              	.LVL140:
 375:C:/Users/lenovo/Desktop/liteos/Project2/BearPi_LiteOS/components/connectivity/lwm2m/examples/shared\commandline.c ****         for (i = 0 ; i < dataLength ; i++)
 1259              		.loc 1 375 0
 1260 0032 0699     		ldr	r1, [sp, #24]
 1261 0034 2046     		mov	r0, r4
 1262 0036 FFF7FEFF 		bl	print_indent
 1263              	.LVL141:
 376:C:/Users/lenovo/Desktop/liteos/Project2/BearPi_LiteOS/components/connectivity/lwm2m/examples/shared\commandline.c ****         {
 1264              		.loc 1 376 0
 1265 003a 0026     		movs	r6, #0
 1266 003c 3FE0     		b	.L133
 1267              	.LVL142:
 1268              	.L125:
 346:C:/Users/lenovo/Desktop/liteos/Project2/BearPi_LiteOS/components/connectivity/lwm2m/examples/shared\commandline.c ****     {
 1269              		.loc 1 346 0
 1270 003e 42F61653 		movw	r3, #11542
 1271 0042 9E42     		cmp	r6, r3
 1272 0044 1DD0     		beq	.L128
 1273 0046 42F61753 		movw	r3, #11543
 1274 004a 9E42     		cmp	r6, r3
 1275 004c 3ED1     		bne	.L123
 364:C:/Users/lenovo/Desktop/liteos/Project2/BearPi_LiteOS/components/connectivity/lwm2m/examples/shared\commandline.c ****         print_indent(stream, indent);
ARM GAS  c:\Users\lenovo\AppData\Local\Temp\ccEGNnmz.s 			page 35


 1276              		.loc 1 364 0
 1277 004e 2346     		mov	r3, r4
 1278 0050 2122     		movs	r2, #33
 1279 0052 0121     		movs	r1, #1
 1280 0054 2248     		ldr	r0, .L136+8
 1281 0056 FFF7FEFF 		bl	fwrite
 1282              	.LVL143:
 365:C:/Users/lenovo/Desktop/liteos/Project2/BearPi_LiteOS/components/connectivity/lwm2m/examples/shared\commandline.c ****         for (i = 0 ; i < dataLength ; i++)
 1283              		.loc 1 365 0
 1284 005a 0699     		ldr	r1, [sp, #24]
 1285 005c 2046     		mov	r0, r4
 1286 005e FFF7FEFF 		bl	print_indent
 1287              	.LVL144:
 366:C:/Users/lenovo/Desktop/liteos/Project2/BearPi_LiteOS/components/connectivity/lwm2m/examples/shared\commandline.c ****         {
 1288              		.loc 1 366 0
 1289 0062 0026     		movs	r6, #0
 1290 0064 1FE0     		b	.L131
 1291              	.LVL145:
 1292              	.L126:
 349:C:/Users/lenovo/Desktop/liteos/Project2/BearPi_LiteOS/components/connectivity/lwm2m/examples/shared\commandline.c ****         output_buffer(stream, data, dataLength, indent);
 1293              		.loc 1 349 0
 1294 0066 2346     		mov	r3, r4
 1295 0068 0D22     		movs	r2, #13
 1296 006a 0121     		movs	r1, #1
 1297 006c 1D48     		ldr	r0, .L136+12
 1298 006e FFF7FEFF 		bl	fwrite
 1299              	.LVL146:
 1300              	.L122:
 388:C:/Users/lenovo/Desktop/liteos/Project2/BearPi_LiteOS/components/connectivity/lwm2m/examples/shared\commandline.c **** 
 1301              		.loc 1 388 0
 1302 0072 F8BD     		pop	{r3, r4, r5, r6, r7, pc}
 1303              	.LVL147:
 1304              	.L124:
 354:C:/Users/lenovo/Desktop/liteos/Project2/BearPi_LiteOS/components/connectivity/lwm2m/examples/shared\commandline.c ****         output_buffer(stream, data, dataLength, indent);
 1305              		.loc 1 354 0
 1306 0074 2346     		mov	r3, r4
 1307 0076 1B22     		movs	r2, #27
 1308 0078 0121     		movs	r1, #1
 1309 007a 1B48     		ldr	r0, .L136+16
 1310 007c FFF7FEFF 		bl	fwrite
 1311              	.LVL148:
 356:C:/Users/lenovo/Desktop/liteos/Project2/BearPi_LiteOS/components/connectivity/lwm2m/examples/shared\commandline.c **** 
 1312              		.loc 1 356 0
 1313 0080 F7E7     		b	.L122
 1314              	.L128:
 359:C:/Users/lenovo/Desktop/liteos/Project2/BearPi_LiteOS/components/connectivity/lwm2m/examples/shared\commandline.c ****         output_tlv(stream, data, dataLength, indent);
 1315              		.loc 1 359 0
 1316 0082 2346     		mov	r3, r4
 1317 0084 2022     		movs	r2, #32
 1318 0086 0121     		movs	r1, #1
 1319 0088 1848     		ldr	r0, .L136+20
 1320 008a FFF7FEFF 		bl	fwrite
 1321              	.LVL149:
 360:C:/Users/lenovo/Desktop/liteos/Project2/BearPi_LiteOS/components/connectivity/lwm2m/examples/shared\commandline.c ****         break;
 1322              		.loc 1 360 0
 1323 008e 069B     		ldr	r3, [sp, #24]
 1324 0090 2A46     		mov	r2, r5
ARM GAS  c:\Users\lenovo\AppData\Local\Temp\ccEGNnmz.s 			page 36


 1325 0092 3946     		mov	r1, r7
 1326 0094 2046     		mov	r0, r4
 1327 0096 FFF7FEFF 		bl	output_tlv
 1328              	.LVL150:
 361:C:/Users/lenovo/Desktop/liteos/Project2/BearPi_LiteOS/components/connectivity/lwm2m/examples/shared\commandline.c **** 
 1329              		.loc 1 361 0
 1330 009a EAE7     		b	.L122
 1331              	.LVL151:
 1332              	.L132:
 368:C:/Users/lenovo/Desktop/liteos/Project2/BearPi_LiteOS/components/connectivity/lwm2m/examples/shared\commandline.c ****         }
 1333              		.loc 1 368 0 discriminator 3
 1334 009c 2146     		mov	r1, r4
 1335 009e B85D     		ldrb	r0, [r7, r6]	@ zero_extendqisi2
 1336 00a0 FFF7FEFF 		bl	fputc
 1337              	.LVL152:
 366:C:/Users/lenovo/Desktop/liteos/Project2/BearPi_LiteOS/components/connectivity/lwm2m/examples/shared\commandline.c ****         {
 1338              		.loc 1 366 0 discriminator 3
 1339 00a4 0136     		adds	r6, r6, #1
 1340              	.LVL153:
 1341              	.L131:
 366:C:/Users/lenovo/Desktop/liteos/Project2/BearPi_LiteOS/components/connectivity/lwm2m/examples/shared\commandline.c ****         {
 1342              		.loc 1 366 0 is_stmt 0 discriminator 1
 1343 00a6 AE42     		cmp	r6, r5
 1344 00a8 F8DB     		blt	.L132
 370:C:/Users/lenovo/Desktop/liteos/Project2/BearPi_LiteOS/components/connectivity/lwm2m/examples/shared\commandline.c ****         break;
 1345              		.loc 1 370 0 is_stmt 1
 1346 00aa 2146     		mov	r1, r4
 1347 00ac 0A20     		movs	r0, #10
 1348 00ae FFF7FEFF 		bl	fputc
 1349              	.LVL154:
 371:C:/Users/lenovo/Desktop/liteos/Project2/BearPi_LiteOS/components/connectivity/lwm2m/examples/shared\commandline.c **** 
 1350              		.loc 1 371 0
 1351 00b2 DEE7     		b	.L122
 1352              	.L134:
 378:C:/Users/lenovo/Desktop/liteos/Project2/BearPi_LiteOS/components/connectivity/lwm2m/examples/shared\commandline.c ****         }
 1353              		.loc 1 378 0 discriminator 3
 1354 00b4 2146     		mov	r1, r4
 1355 00b6 B85D     		ldrb	r0, [r7, r6]	@ zero_extendqisi2
 1356 00b8 FFF7FEFF 		bl	fputc
 1357              	.LVL155:
 376:C:/Users/lenovo/Desktop/liteos/Project2/BearPi_LiteOS/components/connectivity/lwm2m/examples/shared\commandline.c ****         {
 1358              		.loc 1 376 0 discriminator 3
 1359 00bc 0136     		adds	r6, r6, #1
 1360              	.LVL156:
 1361              	.L133:
 376:C:/Users/lenovo/Desktop/liteos/Project2/BearPi_LiteOS/components/connectivity/lwm2m/examples/shared\commandline.c ****         {
 1362              		.loc 1 376 0 is_stmt 0 discriminator 1
 1363 00be AE42     		cmp	r6, r5
 1364 00c0 F8DB     		blt	.L134
 380:C:/Users/lenovo/Desktop/liteos/Project2/BearPi_LiteOS/components/connectivity/lwm2m/examples/shared\commandline.c ****         break;
 1365              		.loc 1 380 0 is_stmt 1
 1366 00c2 2146     		mov	r1, r4
 1367 00c4 0A20     		movs	r0, #10
 1368 00c6 FFF7FEFF 		bl	fputc
 1369              	.LVL157:
 381:C:/Users/lenovo/Desktop/liteos/Project2/BearPi_LiteOS/components/connectivity/lwm2m/examples/shared\commandline.c **** 
 1370              		.loc 1 381 0
ARM GAS  c:\Users\lenovo\AppData\Local\Temp\ccEGNnmz.s 			page 37


 1371 00ca D2E7     		b	.L122
 1372              	.LVL158:
 1373              	.L123:
 384:C:/Users/lenovo/Desktop/liteos/Project2/BearPi_LiteOS/components/connectivity/lwm2m/examples/shared\commandline.c ****         output_buffer(stream, data, dataLength, indent);
 1374              		.loc 1 384 0
 1375 00cc 3246     		mov	r2, r6
 1376 00ce 0849     		ldr	r1, .L136+24
 1377 00d0 2046     		mov	r0, r4
 1378 00d2 FFF7FEFF 		bl	fprintf
 1379              	.LVL159:
 388:C:/Users/lenovo/Desktop/liteos/Project2/BearPi_LiteOS/components/connectivity/lwm2m/examples/shared\commandline.c **** 
 1380              		.loc 1 388 0
 1381 00d6 CCE7     		b	.L122
 1382              	.L137:
 1383              		.align	2
 1384              	.L136:
 1385 00d8 00000000 		.word	.LC35
 1386 00dc 90000000 		.word	.LC40
 1387 00e0 6C000000 		.word	.LC39
 1388 00e4 1C000000 		.word	.LC36
 1389 00e8 2C000000 		.word	.LC37
 1390 00ec 48000000 		.word	.LC38
 1391 00f0 AC000000 		.word	.LC41
 1392              		.cfi_endproc
 1393              	.LFE144:
 1395              		.section	.text.dump_tlv,"ax",%progbits
 1396              		.align	1
 1397              		.global	dump_tlv
 1398              		.syntax unified
 1399              		.thumb
 1400              		.thumb_func
 1401              		.fpu fpv4-sp-d16
 1403              	dump_tlv:
 1404              	.LFB145:
 394:C:/Users/lenovo/Desktop/liteos/Project2/BearPi_LiteOS/components/connectivity/lwm2m/examples/shared\commandline.c ****     int i;
 1405              		.loc 1 394 0
 1406              		.cfi_startproc
 1407              		@ args = 0, pretend = 0, frame = 0
 1408              		@ frame_needed = 0, uses_anonymous_args = 0
 1409              	.LVL160:
 1410 0000 2DE9F84F 		push	{r3, r4, r5, r6, r7, r8, r9, r10, fp, lr}
 1411              	.LCFI15:
 1412              		.cfi_def_cfa_offset 40
 1413              		.cfi_offset 3, -40
 1414              		.cfi_offset 4, -36
 1415              		.cfi_offset 5, -32
 1416              		.cfi_offset 6, -28
 1417              		.cfi_offset 7, -24
 1418              		.cfi_offset 8, -20
 1419              		.cfi_offset 9, -16
 1420              		.cfi_offset 10, -12
 1421              		.cfi_offset 11, -8
 1422              		.cfi_offset 14, -4
 1423 0004 0446     		mov	r4, r0
 1424 0006 8A46     		mov	r10, r1
 1425 0008 9146     		mov	r9, r2
 1426 000a 1F46     		mov	r7, r3
ARM GAS  c:\Users\lenovo\AppData\Local\Temp\ccEGNnmz.s 			page 38


 1427              	.LVL161:
 397:C:/Users/lenovo/Desktop/liteos/Project2/BearPi_LiteOS/components/connectivity/lwm2m/examples/shared\commandline.c ****     {
 1428              		.loc 1 397 0
 1429 000c 0025     		movs	r5, #0
 1430 000e 18E0     		b	.L139
 1431              	.LVL162:
 1432              	.L143:
 409:C:/Users/lenovo/Desktop/liteos/Project2/BearPi_LiteOS/components/connectivity/lwm2m/examples/shared\commandline.c ****             dump_tlv(stream, dataP[i].value.asChildren.count, dataP[i].value.asChildren.array, inde
 1433              		.loc 1 409 0
 1434 0010 2346     		mov	r3, r4
 1435 0012 1322     		movs	r2, #19
 1436 0014 0121     		movs	r1, #1
 1437 0016 7548     		ldr	r0, .L158
 1438 0018 FFF7FEFF 		bl	fwrite
 1439              	.LVL163:
 410:C:/Users/lenovo/Desktop/liteos/Project2/BearPi_LiteOS/components/connectivity/lwm2m/examples/shared\commandline.c ****             break;
 1440              		.loc 1 410 0
 1441 001c 3346     		mov	r3, r6
 1442 001e D8F80C20 		ldr	r2, [r8, #12]
 1443 0022 D8F80810 		ldr	r1, [r8, #8]
 1444 0026 2046     		mov	r0, r4
 1445 0028 FFF7FEFF 		bl	dump_tlv
 1446              	.LVL164:
 1447              	.L152:
 456:C:/Users/lenovo/Desktop/liteos/Project2/BearPi_LiteOS/components/connectivity/lwm2m/examples/shared\commandline.c ****         fprintf(stream, "}\r\n");
 1448              		.loc 1 456 0 discriminator 2
 1449 002c 3946     		mov	r1, r7
 1450 002e 2046     		mov	r0, r4
 1451 0030 FFF7FEFF 		bl	print_indent
 1452              	.LVL165:
 457:C:/Users/lenovo/Desktop/liteos/Project2/BearPi_LiteOS/components/connectivity/lwm2m/examples/shared\commandline.c ****     }
 1453              		.loc 1 457 0 discriminator 2
 1454 0034 2346     		mov	r3, r4
 1455 0036 0322     		movs	r2, #3
 1456 0038 0121     		movs	r1, #1
 1457 003a 6D48     		ldr	r0, .L158+4
 1458 003c FFF7FEFF 		bl	fwrite
 1459              	.LVL166:
 397:C:/Users/lenovo/Desktop/liteos/Project2/BearPi_LiteOS/components/connectivity/lwm2m/examples/shared\commandline.c ****     {
 1460              		.loc 1 397 0 discriminator 2
 1461 0040 0135     		adds	r5, r5, #1
 1462              	.LVL167:
 1463              	.L139:
 397:C:/Users/lenovo/Desktop/liteos/Project2/BearPi_LiteOS/components/connectivity/lwm2m/examples/shared\commandline.c ****     {
 1464              		.loc 1 397 0 is_stmt 0 discriminator 1
 1465 0042 5545     		cmp	r5, r10
 1466 0044 80F2CF80 		bge	.L157
 399:C:/Users/lenovo/Desktop/liteos/Project2/BearPi_LiteOS/components/connectivity/lwm2m/examples/shared\commandline.c ****         fprintf(stream, "{\r\n");
 1467              		.loc 1 399 0 is_stmt 1
 1468 0048 3946     		mov	r1, r7
 1469 004a 2046     		mov	r0, r4
 1470 004c FFF7FEFF 		bl	print_indent
 1471              	.LVL168:
 400:C:/Users/lenovo/Desktop/liteos/Project2/BearPi_LiteOS/components/connectivity/lwm2m/examples/shared\commandline.c ****         print_indent(stream, indent + 1);
 1472              		.loc 1 400 0
 1473 0050 2346     		mov	r3, r4
 1474 0052 0322     		movs	r2, #3
ARM GAS  c:\Users\lenovo\AppData\Local\Temp\ccEGNnmz.s 			page 39


 1475 0054 0121     		movs	r1, #1
 1476 0056 6748     		ldr	r0, .L158+8
 1477 0058 FFF7FEFF 		bl	fwrite
 1478              	.LVL169:
 401:C:/Users/lenovo/Desktop/liteos/Project2/BearPi_LiteOS/components/connectivity/lwm2m/examples/shared\commandline.c ****         fprintf(stream, "id: %d\r\n", dataP[i].id);
 1479              		.loc 1 401 0
 1480 005c 7E1C     		adds	r6, r7, #1
 1481 005e 3146     		mov	r1, r6
 1482 0060 2046     		mov	r0, r4
 1483 0062 FFF7FEFF 		bl	print_indent
 1484              	.LVL170:
 402:C:/Users/lenovo/Desktop/liteos/Project2/BearPi_LiteOS/components/connectivity/lwm2m/examples/shared\commandline.c **** 
 1485              		.loc 1 402 0
 1486 0066 4FEA051B 		lsl	fp, r5, #4
 1487 006a 09EB0B08 		add	r8, r9, fp
 1488 006e B8F80220 		ldrh	r2, [r8, #2]
 1489 0072 6149     		ldr	r1, .L158+12
 1490 0074 2046     		mov	r0, r4
 1491 0076 FFF7FEFF 		bl	fprintf
 1492              	.LVL171:
 404:C:/Users/lenovo/Desktop/liteos/Project2/BearPi_LiteOS/components/connectivity/lwm2m/examples/shared\commandline.c ****         fprintf(stream, "type: ");
 1493              		.loc 1 404 0
 1494 007a 3146     		mov	r1, r6
 1495 007c 2046     		mov	r0, r4
 1496 007e FFF7FEFF 		bl	print_indent
 1497              	.LVL172:
 405:C:/Users/lenovo/Desktop/liteos/Project2/BearPi_LiteOS/components/connectivity/lwm2m/examples/shared\commandline.c ****         switch (dataP[i].type)
 1498              		.loc 1 405 0
 1499 0082 2346     		mov	r3, r4
 1500 0084 0622     		movs	r2, #6
 1501 0086 0121     		movs	r1, #1
 1502 0088 5C48     		ldr	r0, .L158+16
 1503 008a FFF7FEFF 		bl	fwrite
 1504              	.LVL173:
 406:C:/Users/lenovo/Desktop/liteos/Project2/BearPi_LiteOS/components/connectivity/lwm2m/examples/shared\commandline.c ****         {
 1505              		.loc 1 406 0
 1506 008e 19F80B20 		ldrb	r2, [r9, fp]	@ zero_extendqisi2
 1507 0092 092A     		cmp	r2, #9
 1508 0094 00F2A280 		bhi	.L140
 1509 0098 01A3     		adr	r3, .L142
 1510 009a 53F822F0 		ldr	pc, [r3, r2, lsl #2]
 1511 009e 00BF     		.p2align 2
 1512              	.L142:
 1513 00a0 05010000 		.word	.L141+1
 1514 00a4 11000000 		.word	.L143+1
 1515 00a8 C9000000 		.word	.L144+1
 1516 00ac E7000000 		.word	.L145+1
 1517 00b0 13010000 		.word	.L146+1
 1518 00b4 39010000 		.word	.L147+1
 1519 00b8 47010000 		.word	.L148+1
 1520 00bc 75010000 		.word	.L149+1
 1521 00c0 A3010000 		.word	.L150+1
 1522 00c4 CF010000 		.word	.L151+1
 1523              		.p2align 1
 1524              	.L144:
 413:C:/Users/lenovo/Desktop/liteos/Project2/BearPi_LiteOS/components/connectivity/lwm2m/examples/shared\commandline.c ****             dump_tlv(stream, dataP[i].value.asChildren.count, dataP[i].value.asChildren.array, inde
 1525              		.loc 1 413 0
ARM GAS  c:\Users\lenovo\AppData\Local\Temp\ccEGNnmz.s 			page 40


 1526 00c8 2346     		mov	r3, r4
 1527 00ca 1C22     		movs	r2, #28
 1528 00cc 0121     		movs	r1, #1
 1529 00ce 4C48     		ldr	r0, .L158+20
 1530 00d0 FFF7FEFF 		bl	fwrite
 1531              	.LVL174:
 414:C:/Users/lenovo/Desktop/liteos/Project2/BearPi_LiteOS/components/connectivity/lwm2m/examples/shared\commandline.c ****             break;
 1532              		.loc 1 414 0
 1533 00d4 3346     		mov	r3, r6
 1534 00d6 D8F80C20 		ldr	r2, [r8, #12]
 1535 00da D8F80810 		ldr	r1, [r8, #8]
 1536 00de 2046     		mov	r0, r4
 1537 00e0 FFF7FEFF 		bl	dump_tlv
 1538              	.LVL175:
 415:C:/Users/lenovo/Desktop/liteos/Project2/BearPi_LiteOS/components/connectivity/lwm2m/examples/shared\commandline.c ****         case LWM2M_TYPE_MULTIPLE_RESOURCE:
 1539              		.loc 1 415 0
 1540 00e4 A2E7     		b	.L152
 1541              	.L145:
 417:C:/Users/lenovo/Desktop/liteos/Project2/BearPi_LiteOS/components/connectivity/lwm2m/examples/shared\commandline.c ****             dump_tlv(stream, dataP[i].value.asChildren.count, dataP[i].value.asChildren.array, inde
 1542              		.loc 1 417 0
 1543 00e6 2346     		mov	r3, r4
 1544 00e8 1E22     		movs	r2, #30
 1545 00ea 0121     		movs	r1, #1
 1546 00ec 4548     		ldr	r0, .L158+24
 1547 00ee FFF7FEFF 		bl	fwrite
 1548              	.LVL176:
 418:C:/Users/lenovo/Desktop/liteos/Project2/BearPi_LiteOS/components/connectivity/lwm2m/examples/shared\commandline.c ****             break;
 1549              		.loc 1 418 0
 1550 00f2 3346     		mov	r3, r6
 1551 00f4 D8F80C20 		ldr	r2, [r8, #12]
 1552 00f8 D8F80810 		ldr	r1, [r8, #8]
 1553 00fc 2046     		mov	r0, r4
 1554 00fe FFF7FEFF 		bl	dump_tlv
 1555              	.LVL177:
 419:C:/Users/lenovo/Desktop/liteos/Project2/BearPi_LiteOS/components/connectivity/lwm2m/examples/shared\commandline.c ****         case LWM2M_TYPE_UNDEFINED:
 1556              		.loc 1 419 0
 1557 0102 93E7     		b	.L152
 1558              	.L141:
 421:C:/Users/lenovo/Desktop/liteos/Project2/BearPi_LiteOS/components/connectivity/lwm2m/examples/shared\commandline.c ****             break;
 1559              		.loc 1 421 0
 1560 0104 2346     		mov	r3, r4
 1561 0106 1622     		movs	r2, #22
 1562 0108 0121     		movs	r1, #1
 1563 010a 3F48     		ldr	r0, .L158+28
 1564 010c FFF7FEFF 		bl	fwrite
 1565              	.LVL178:
 422:C:/Users/lenovo/Desktop/liteos/Project2/BearPi_LiteOS/components/connectivity/lwm2m/examples/shared\commandline.c ****         case LWM2M_TYPE_STRING:
 1566              		.loc 1 422 0
 1567 0110 8CE7     		b	.L152
 1568              	.L146:
 424:C:/Users/lenovo/Desktop/liteos/Project2/BearPi_LiteOS/components/connectivity/lwm2m/examples/shared\commandline.c ****             print_indent(stream, indent + 1);
 1569              		.loc 1 424 0
 1570 0112 2346     		mov	r3, r4
 1571 0114 1322     		movs	r2, #19
 1572 0116 0121     		movs	r1, #1
 1573 0118 3C48     		ldr	r0, .L158+32
 1574 011a FFF7FEFF 		bl	fwrite
ARM GAS  c:\Users\lenovo\AppData\Local\Temp\ccEGNnmz.s 			page 41


 1575              	.LVL179:
 425:C:/Users/lenovo/Desktop/liteos/Project2/BearPi_LiteOS/components/connectivity/lwm2m/examples/shared\commandline.c ****             fprintf(stream, "\"%.*s\"\r\n", (int)dataP[i].value.asBuffer.length, dataP[i].value.asB
 1576              		.loc 1 425 0
 1577 011e 3146     		mov	r1, r6
 1578 0120 2046     		mov	r0, r4
 1579 0122 FFF7FEFF 		bl	print_indent
 1580              	.LVL180:
 426:C:/Users/lenovo/Desktop/liteos/Project2/BearPi_LiteOS/components/connectivity/lwm2m/examples/shared\commandline.c ****             break;
 1581              		.loc 1 426 0
 1582 0126 D8F80C30 		ldr	r3, [r8, #12]
 1583 012a D8F80820 		ldr	r2, [r8, #8]
 1584 012e 3849     		ldr	r1, .L158+36
 1585 0130 2046     		mov	r0, r4
 1586 0132 FFF7FEFF 		bl	fprintf
 1587              	.LVL181:
 427:C:/Users/lenovo/Desktop/liteos/Project2/BearPi_LiteOS/components/connectivity/lwm2m/examples/shared\commandline.c ****         case LWM2M_TYPE_OPAQUE:
 1588              		.loc 1 427 0
 1589 0136 79E7     		b	.L152
 1590              	.L147:
 429:C:/Users/lenovo/Desktop/liteos/Project2/BearPi_LiteOS/components/connectivity/lwm2m/examples/shared\commandline.c ****             output_buffer(stream, dataP[i].value.asBuffer.buffer, dataP[i].value.asBuffer.length, i
 1591              		.loc 1 429 0
 1592 0138 2346     		mov	r3, r4
 1593 013a 1322     		movs	r2, #19
 1594 013c 0121     		movs	r1, #1
 1595 013e 3548     		ldr	r0, .L158+40
 1596 0140 FFF7FEFF 		bl	fwrite
 1597              	.LVL182:
 431:C:/Users/lenovo/Desktop/liteos/Project2/BearPi_LiteOS/components/connectivity/lwm2m/examples/shared\commandline.c ****         case LWM2M_TYPE_INTEGER:
 1598              		.loc 1 431 0
 1599 0144 72E7     		b	.L152
 1600              	.L148:
 433:C:/Users/lenovo/Desktop/liteos/Project2/BearPi_LiteOS/components/connectivity/lwm2m/examples/shared\commandline.c ****             print_indent(stream, indent + 1);
 1601              		.loc 1 433 0
 1602 0146 2346     		mov	r3, r4
 1603 0148 1422     		movs	r2, #20
 1604 014a 0121     		movs	r1, #1
 1605 014c 3248     		ldr	r0, .L158+44
 1606 014e FFF7FEFF 		bl	fwrite
 1607              	.LVL183:
 434:C:/Users/lenovo/Desktop/liteos/Project2/BearPi_LiteOS/components/connectivity/lwm2m/examples/shared\commandline.c ****             fprintf(stream, "%" PRId64, dataP[i].value.asInteger);
 1608              		.loc 1 434 0
 1609 0152 3146     		mov	r1, r6
 1610 0154 2046     		mov	r0, r4
 1611 0156 FFF7FEFF 		bl	print_indent
 1612              	.LVL184:
 435:C:/Users/lenovo/Desktop/liteos/Project2/BearPi_LiteOS/components/connectivity/lwm2m/examples/shared\commandline.c ****             fprintf(stream, "\r\n");
 1613              		.loc 1 435 0
 1614 015a D8E90223 		ldrd	r2, [r8, #8]
 1615 015e 2F49     		ldr	r1, .L158+48
 1616 0160 2046     		mov	r0, r4
 1617 0162 FFF7FEFF 		bl	fprintf
 1618              	.LVL185:
 436:C:/Users/lenovo/Desktop/liteos/Project2/BearPi_LiteOS/components/connectivity/lwm2m/examples/shared\commandline.c ****             break;
 1619              		.loc 1 436 0
 1620 0166 2346     		mov	r3, r4
 1621 0168 0222     		movs	r2, #2
 1622 016a 0121     		movs	r1, #1
ARM GAS  c:\Users\lenovo\AppData\Local\Temp\ccEGNnmz.s 			page 42


 1623 016c 2C48     		ldr	r0, .L158+52
 1624 016e FFF7FEFF 		bl	fwrite
 1625              	.LVL186:
 437:C:/Users/lenovo/Desktop/liteos/Project2/BearPi_LiteOS/components/connectivity/lwm2m/examples/shared\commandline.c ****         case LWM2M_TYPE_FLOAT:
 1626              		.loc 1 437 0
 1627 0172 5BE7     		b	.L152
 1628              	.L149:
 439:C:/Users/lenovo/Desktop/liteos/Project2/BearPi_LiteOS/components/connectivity/lwm2m/examples/shared\commandline.c ****             print_indent(stream, indent + 1);
 1629              		.loc 1 439 0
 1630 0174 2346     		mov	r3, r4
 1631 0176 1222     		movs	r2, #18
 1632 0178 0121     		movs	r1, #1
 1633 017a 2A48     		ldr	r0, .L158+56
 1634 017c FFF7FEFF 		bl	fwrite
 1635              	.LVL187:
 440:C:/Users/lenovo/Desktop/liteos/Project2/BearPi_LiteOS/components/connectivity/lwm2m/examples/shared\commandline.c ****             fprintf(stream, "%" PRId64, dataP[i].value.asInteger);
 1636              		.loc 1 440 0
 1637 0180 3146     		mov	r1, r6
 1638 0182 2046     		mov	r0, r4
 1639 0184 FFF7FEFF 		bl	print_indent
 1640              	.LVL188:
 441:C:/Users/lenovo/Desktop/liteos/Project2/BearPi_LiteOS/components/connectivity/lwm2m/examples/shared\commandline.c ****             fprintf(stream, "\r\n");
 1641              		.loc 1 441 0
 1642 0188 D8E90223 		ldrd	r2, [r8, #8]
 1643 018c 2349     		ldr	r1, .L158+48
 1644 018e 2046     		mov	r0, r4
 1645 0190 FFF7FEFF 		bl	fprintf
 1646              	.LVL189:
 442:C:/Users/lenovo/Desktop/liteos/Project2/BearPi_LiteOS/components/connectivity/lwm2m/examples/shared\commandline.c ****             break;
 1647              		.loc 1 442 0
 1648 0194 2346     		mov	r3, r4
 1649 0196 0222     		movs	r2, #2
 1650 0198 0121     		movs	r1, #1
 1651 019a 2148     		ldr	r0, .L158+52
 1652 019c FFF7FEFF 		bl	fwrite
 1653              	.LVL190:
 443:C:/Users/lenovo/Desktop/liteos/Project2/BearPi_LiteOS/components/connectivity/lwm2m/examples/shared\commandline.c ****         case LWM2M_TYPE_BOOLEAN:
 1654              		.loc 1 443 0
 1655 01a0 44E7     		b	.L152
 1656              	.L150:
 445:C:/Users/lenovo/Desktop/liteos/Project2/BearPi_LiteOS/components/connectivity/lwm2m/examples/shared\commandline.c ****             fprintf(stream, "%s", dataP[i].value.asBoolean ? "true" : "false");
 1657              		.loc 1 445 0
 1658 01a2 2346     		mov	r3, r4
 1659 01a4 1422     		movs	r2, #20
 1660 01a6 0121     		movs	r1, #1
 1661 01a8 1F48     		ldr	r0, .L158+60
 1662 01aa FFF7FEFF 		bl	fwrite
 1663              	.LVL191:
 446:C:/Users/lenovo/Desktop/liteos/Project2/BearPi_LiteOS/components/connectivity/lwm2m/examples/shared\commandline.c ****             fprintf(stream, "\r\n");
 1664              		.loc 1 446 0
 1665 01ae 98F80830 		ldrb	r3, [r8, #8]	@ zero_extendqisi2
 1666 01b2 53B1     		cbz	r3, .L155
 1667 01b4 1D48     		ldr	r0, .L158+64
 1668              	.L153:
 446:C:/Users/lenovo/Desktop/liteos/Project2/BearPi_LiteOS/components/connectivity/lwm2m/examples/shared\commandline.c ****             fprintf(stream, "\r\n");
 1669              		.loc 1 446 0 is_stmt 0 discriminator 4
 1670 01b6 2146     		mov	r1, r4
ARM GAS  c:\Users\lenovo\AppData\Local\Temp\ccEGNnmz.s 			page 43


 1671 01b8 FFF7FEFF 		bl	fputs
 1672              	.LVL192:
 447:C:/Users/lenovo/Desktop/liteos/Project2/BearPi_LiteOS/components/connectivity/lwm2m/examples/shared\commandline.c ****             break;
 1673              		.loc 1 447 0 is_stmt 1 discriminator 4
 1674 01bc 2346     		mov	r3, r4
 1675 01be 0222     		movs	r2, #2
 1676 01c0 0121     		movs	r1, #1
 1677 01c2 1748     		ldr	r0, .L158+52
 1678 01c4 FFF7FEFF 		bl	fwrite
 1679              	.LVL193:
 448:C:/Users/lenovo/Desktop/liteos/Project2/BearPi_LiteOS/components/connectivity/lwm2m/examples/shared\commandline.c ****         case LWM2M_TYPE_OBJECT_LINK:
 1680              		.loc 1 448 0 discriminator 4
 1681 01c8 30E7     		b	.L152
 1682              	.L155:
 446:C:/Users/lenovo/Desktop/liteos/Project2/BearPi_LiteOS/components/connectivity/lwm2m/examples/shared\commandline.c ****             fprintf(stream, "\r\n");
 1683              		.loc 1 446 0
 1684 01ca 1948     		ldr	r0, .L158+68
 1685 01cc F3E7     		b	.L153
 1686              	.L151:
 450:C:/Users/lenovo/Desktop/liteos/Project2/BearPi_LiteOS/components/connectivity/lwm2m/examples/shared\commandline.c ****             break;
 1687              		.loc 1 450 0
 1688 01ce 2346     		mov	r3, r4
 1689 01d0 1822     		movs	r2, #24
 1690 01d2 0121     		movs	r1, #1
 1691 01d4 1748     		ldr	r0, .L158+72
 1692 01d6 FFF7FEFF 		bl	fwrite
 1693              	.LVL194:
 451:C:/Users/lenovo/Desktop/liteos/Project2/BearPi_LiteOS/components/connectivity/lwm2m/examples/shared\commandline.c ****         default:
 1694              		.loc 1 451 0
 1695 01da 27E7     		b	.L152
 1696              	.L140:
 453:C:/Users/lenovo/Desktop/liteos/Project2/BearPi_LiteOS/components/connectivity/lwm2m/examples/shared\commandline.c ****             break;
 1697              		.loc 1 453 0
 1698 01dc 1649     		ldr	r1, .L158+76
 1699 01de 2046     		mov	r0, r4
 1700 01e0 FFF7FEFF 		bl	fprintf
 1701              	.LVL195:
 454:C:/Users/lenovo/Desktop/liteos/Project2/BearPi_LiteOS/components/connectivity/lwm2m/examples/shared\commandline.c ****         }
 1702              		.loc 1 454 0
 1703 01e4 22E7     		b	.L152
 1704              	.L157:
 459:C:/Users/lenovo/Desktop/liteos/Project2/BearPi_LiteOS/components/connectivity/lwm2m/examples/shared\commandline.c **** 
 1705              		.loc 1 459 0
 1706 01e6 BDE8F88F 		pop	{r3, r4, r5, r6, r7, r8, r9, r10, fp, pc}
 1707              	.LVL196:
 1708              	.L159:
 1709 01ea 00BF     		.align	2
 1710              	.L158:
 1711 01ec 24000000 		.word	.LC46
 1712 01f0 AC000000 		.word	.LC34
 1713 01f4 00000000 		.word	.LC21
 1714 01f8 10000000 		.word	.LC44
 1715 01fc 1C000000 		.word	.LC45
 1716 0200 38000000 		.word	.LC47
 1717 0204 58000000 		.word	.LC48
 1718 0208 78000000 		.word	.LC49
 1719 020c 90000000 		.word	.LC50
ARM GAS  c:\Users\lenovo\AppData\Local\Temp\ccEGNnmz.s 			page 44


 1720 0210 A4000000 		.word	.LC51
 1721 0214 B0000000 		.word	.LC52
 1722 0218 C4000000 		.word	.LC53
 1723 021c 70000000 		.word	.LC30
 1724 0220 DC000000 		.word	.LC54
 1725 0224 E0000000 		.word	.LC55
 1726 0228 F4000000 		.word	.LC56
 1727 022c 00000000 		.word	.LC42
 1728 0230 08000000 		.word	.LC43
 1729 0234 0C010000 		.word	.LC57
 1730 0238 28010000 		.word	.LC58
 1731              		.cfi_endproc
 1732              	.LFE145:
 1734              		.section	.text.print_status,"ax",%progbits
 1735              		.align	1
 1736              		.global	print_status
 1737              		.syntax unified
 1738              		.thumb
 1739              		.thumb_func
 1740              		.fpu fpv4-sp-d16
 1742              	print_status:
 1743              	.LFB147:
 488:C:/Users/lenovo/Desktop/liteos/Project2/BearPi_LiteOS/components/connectivity/lwm2m/examples/shared\commandline.c ****     fprintf(stream, "%d.%02d (%s)", (status & 0xE0) >> 5, status & 0x1F, prv_status_to_string(statu
 1744              		.loc 1 488 0
 1745              		.cfi_startproc
 1746              		@ args = 0, pretend = 0, frame = 0
 1747              		@ frame_needed = 0, uses_anonymous_args = 0
 1748              	.LVL197:
 1749 0000 70B5     		push	{r4, r5, r6, lr}
 1750              	.LCFI16:
 1751              		.cfi_def_cfa_offset 16
 1752              		.cfi_offset 4, -16
 1753              		.cfi_offset 5, -12
 1754              		.cfi_offset 6, -8
 1755              		.cfi_offset 14, -4
 1756 0002 82B0     		sub	sp, sp, #8
 1757              	.LCFI17:
 1758              		.cfi_def_cfa_offset 24
 1759 0004 0546     		mov	r5, r0
 1760 0006 0C46     		mov	r4, r1
 489:C:/Users/lenovo/Desktop/liteos/Project2/BearPi_LiteOS/components/connectivity/lwm2m/examples/shared\commandline.c **** }
 1761              		.loc 1 489 0
 1762 0008 4E09     		lsrs	r6, r1, #5
 1763 000a 0846     		mov	r0, r1
 1764              	.LVL198:
 1765 000c FFF7FEFF 		bl	prv_status_to_string
 1766              	.LVL199:
 1767 0010 0090     		str	r0, [sp]
 1768 0012 04F01F03 		and	r3, r4, #31
 1769 0016 3246     		mov	r2, r6
 1770 0018 0249     		ldr	r1, .L162
 1771 001a 2846     		mov	r0, r5
 1772 001c FFF7FEFF 		bl	fprintf
 1773              	.LVL200:
 490:C:/Users/lenovo/Desktop/liteos/Project2/BearPi_LiteOS/components/connectivity/lwm2m/examples/shared\commandline.c **** 
 1774              		.loc 1 490 0
 1775 0020 02B0     		add	sp, sp, #8
ARM GAS  c:\Users\lenovo\AppData\Local\Temp\ccEGNnmz.s 			page 45


 1776              	.LCFI18:
 1777              		.cfi_def_cfa_offset 16
 1778              		@ sp needed
 1779 0022 70BD     		pop	{r4, r5, r6, pc}
 1780              	.LVL201:
 1781              	.L163:
 1782              		.align	2
 1783              	.L162:
 1784 0024 00000000 		.word	.LC59
 1785              		.cfi_endproc
 1786              	.LFE147:
 1788              		.section	.text.base64_decode,"ax",%progbits
 1789              		.align	1
 1790              		.global	base64_decode
 1791              		.syntax unified
 1792              		.thumb
 1793              		.thumb_func
 1794              		.fpu fpv4-sp-d16
 1796              	base64_decode:
 1797              	.LFB150:
 543:C:/Users/lenovo/Desktop/liteos/Project2/BearPi_LiteOS/components/connectivity/lwm2m/examples/shared\commandline.c **** 
 544:C:/Users/lenovo/Desktop/liteos/Project2/BearPi_LiteOS/components/connectivity/lwm2m/examples/shared\commandline.c **** size_t base64_decode(uint8_t *dataP,
 545:C:/Users/lenovo/Desktop/liteos/Project2/BearPi_LiteOS/components/connectivity/lwm2m/examples/shared\commandline.c ****                      size_t dataLen,
 546:C:/Users/lenovo/Desktop/liteos/Project2/BearPi_LiteOS/components/connectivity/lwm2m/examples/shared\commandline.c ****                      uint8_t **bufferP)
 547:C:/Users/lenovo/Desktop/liteos/Project2/BearPi_LiteOS/components/connectivity/lwm2m/examples/shared\commandline.c **** {
 1798              		.loc 1 547 0
 1799              		.cfi_startproc
 1800              		@ args = 0, pretend = 0, frame = 0
 1801              		@ frame_needed = 0, uses_anonymous_args = 0
 1802              	.LVL202:
 1803 0000 2DE9F84F 		push	{r3, r4, r5, r6, r7, r8, r9, r10, fp, lr}
 1804              	.LCFI19:
 1805              		.cfi_def_cfa_offset 40
 1806              		.cfi_offset 3, -40
 1807              		.cfi_offset 4, -36
 1808              		.cfi_offset 5, -32
 1809              		.cfi_offset 6, -28
 1810              		.cfi_offset 7, -24
 1811              		.cfi_offset 8, -20
 1812              		.cfi_offset 9, -16
 1813              		.cfi_offset 10, -12
 1814              		.cfi_offset 11, -8
 1815              		.cfi_offset 14, -4
 548:C:/Users/lenovo/Desktop/liteos/Project2/BearPi_LiteOS/components/connectivity/lwm2m/examples/shared\commandline.c ****     size_t data_index;
 549:C:/Users/lenovo/Desktop/liteos/Project2/BearPi_LiteOS/components/connectivity/lwm2m/examples/shared\commandline.c ****     size_t result_index;
 550:C:/Users/lenovo/Desktop/liteos/Project2/BearPi_LiteOS/components/connectivity/lwm2m/examples/shared\commandline.c ****     size_t result_len;
 551:C:/Users/lenovo/Desktop/liteos/Project2/BearPi_LiteOS/components/connectivity/lwm2m/examples/shared\commandline.c **** 
 552:C:/Users/lenovo/Desktop/liteos/Project2/BearPi_LiteOS/components/connectivity/lwm2m/examples/shared\commandline.c ****     if (dataLen % 4) return 0;
 1816              		.loc 1 552 0
 1817 0004 11F0030B 		ands	fp, r1, #3
 1818 0008 04D0     		beq	.L177
 1819 000a 4FF0000B 		mov	fp, #0
 1820              	.LVL203:
 1821              	.L164:
 553:C:/Users/lenovo/Desktop/liteos/Project2/BearPi_LiteOS/components/connectivity/lwm2m/examples/shared\commandline.c **** 
 554:C:/Users/lenovo/Desktop/liteos/Project2/BearPi_LiteOS/components/connectivity/lwm2m/examples/shared\commandline.c ****     result_len = (dataLen >> 2) * 3;
 555:C:/Users/lenovo/Desktop/liteos/Project2/BearPi_LiteOS/components/connectivity/lwm2m/examples/shared\commandline.c ****     *bufferP = (uint8_t *)lwm2m_malloc(result_len);
ARM GAS  c:\Users\lenovo\AppData\Local\Temp\ccEGNnmz.s 			page 46


 556:C:/Users/lenovo/Desktop/liteos/Project2/BearPi_LiteOS/components/connectivity/lwm2m/examples/shared\commandline.c ****     if (NULL == *bufferP) return 0;
 557:C:/Users/lenovo/Desktop/liteos/Project2/BearPi_LiteOS/components/connectivity/lwm2m/examples/shared\commandline.c ****     memset(*bufferP, 0, result_len);
 558:C:/Users/lenovo/Desktop/liteos/Project2/BearPi_LiteOS/components/connectivity/lwm2m/examples/shared\commandline.c **** 
 559:C:/Users/lenovo/Desktop/liteos/Project2/BearPi_LiteOS/components/connectivity/lwm2m/examples/shared\commandline.c ****     // remove padding
 560:C:/Users/lenovo/Desktop/liteos/Project2/BearPi_LiteOS/components/connectivity/lwm2m/examples/shared\commandline.c ****     while (dataP[dataLen - 1] == PRV_B64_PADDING)
 561:C:/Users/lenovo/Desktop/liteos/Project2/BearPi_LiteOS/components/connectivity/lwm2m/examples/shared\commandline.c ****     {
 562:C:/Users/lenovo/Desktop/liteos/Project2/BearPi_LiteOS/components/connectivity/lwm2m/examples/shared\commandline.c ****         dataLen--;
 563:C:/Users/lenovo/Desktop/liteos/Project2/BearPi_LiteOS/components/connectivity/lwm2m/examples/shared\commandline.c ****     }
 564:C:/Users/lenovo/Desktop/liteos/Project2/BearPi_LiteOS/components/connectivity/lwm2m/examples/shared\commandline.c **** 
 565:C:/Users/lenovo/Desktop/liteos/Project2/BearPi_LiteOS/components/connectivity/lwm2m/examples/shared\commandline.c ****     data_index = 0;
 566:C:/Users/lenovo/Desktop/liteos/Project2/BearPi_LiteOS/components/connectivity/lwm2m/examples/shared\commandline.c ****     result_index = 0;
 567:C:/Users/lenovo/Desktop/liteos/Project2/BearPi_LiteOS/components/connectivity/lwm2m/examples/shared\commandline.c ****     while (data_index < dataLen)
 568:C:/Users/lenovo/Desktop/liteos/Project2/BearPi_LiteOS/components/connectivity/lwm2m/examples/shared\commandline.c ****     {
 569:C:/Users/lenovo/Desktop/liteos/Project2/BearPi_LiteOS/components/connectivity/lwm2m/examples/shared\commandline.c ****         prv_decodeBlock(dataP + data_index, *bufferP + result_index);
 570:C:/Users/lenovo/Desktop/liteos/Project2/BearPi_LiteOS/components/connectivity/lwm2m/examples/shared\commandline.c ****         data_index += 4;
 571:C:/Users/lenovo/Desktop/liteos/Project2/BearPi_LiteOS/components/connectivity/lwm2m/examples/shared\commandline.c ****         result_index += 3;
 572:C:/Users/lenovo/Desktop/liteos/Project2/BearPi_LiteOS/components/connectivity/lwm2m/examples/shared\commandline.c ****     }
 573:C:/Users/lenovo/Desktop/liteos/Project2/BearPi_LiteOS/components/connectivity/lwm2m/examples/shared\commandline.c ****     switch (data_index - dataLen)
 574:C:/Users/lenovo/Desktop/liteos/Project2/BearPi_LiteOS/components/connectivity/lwm2m/examples/shared\commandline.c ****     {
 575:C:/Users/lenovo/Desktop/liteos/Project2/BearPi_LiteOS/components/connectivity/lwm2m/examples/shared\commandline.c ****     case 0:
 576:C:/Users/lenovo/Desktop/liteos/Project2/BearPi_LiteOS/components/connectivity/lwm2m/examples/shared\commandline.c ****         break;
 577:C:/Users/lenovo/Desktop/liteos/Project2/BearPi_LiteOS/components/connectivity/lwm2m/examples/shared\commandline.c ****     case 2:
 578:C:/Users/lenovo/Desktop/liteos/Project2/BearPi_LiteOS/components/connectivity/lwm2m/examples/shared\commandline.c ****     {
 579:C:/Users/lenovo/Desktop/liteos/Project2/BearPi_LiteOS/components/connectivity/lwm2m/examples/shared\commandline.c ****         uint8_t tmp[2];
 580:C:/Users/lenovo/Desktop/liteos/Project2/BearPi_LiteOS/components/connectivity/lwm2m/examples/shared\commandline.c **** 
 581:C:/Users/lenovo/Desktop/liteos/Project2/BearPi_LiteOS/components/connectivity/lwm2m/examples/shared\commandline.c ****         tmp[0] = prv_b64Revert(dataP[dataLen - 2]);
 582:C:/Users/lenovo/Desktop/liteos/Project2/BearPi_LiteOS/components/connectivity/lwm2m/examples/shared\commandline.c ****         tmp[1] = prv_b64Revert(dataP[dataLen - 1]);
 583:C:/Users/lenovo/Desktop/liteos/Project2/BearPi_LiteOS/components/connectivity/lwm2m/examples/shared\commandline.c **** 
 584:C:/Users/lenovo/Desktop/liteos/Project2/BearPi_LiteOS/components/connectivity/lwm2m/examples/shared\commandline.c ****         *bufferP[result_index - 3] = (tmp[0] << 2) | (tmp[1] >> 4);
 585:C:/Users/lenovo/Desktop/liteos/Project2/BearPi_LiteOS/components/connectivity/lwm2m/examples/shared\commandline.c ****         *bufferP[result_index - 2] = (tmp[1] << 4);
 586:C:/Users/lenovo/Desktop/liteos/Project2/BearPi_LiteOS/components/connectivity/lwm2m/examples/shared\commandline.c ****         result_len -= 2;
 587:C:/Users/lenovo/Desktop/liteos/Project2/BearPi_LiteOS/components/connectivity/lwm2m/examples/shared\commandline.c ****     }
 588:C:/Users/lenovo/Desktop/liteos/Project2/BearPi_LiteOS/components/connectivity/lwm2m/examples/shared\commandline.c ****     break;
 589:C:/Users/lenovo/Desktop/liteos/Project2/BearPi_LiteOS/components/connectivity/lwm2m/examples/shared\commandline.c ****     case 3:
 590:C:/Users/lenovo/Desktop/liteos/Project2/BearPi_LiteOS/components/connectivity/lwm2m/examples/shared\commandline.c ****     {
 591:C:/Users/lenovo/Desktop/liteos/Project2/BearPi_LiteOS/components/connectivity/lwm2m/examples/shared\commandline.c ****         uint8_t tmp[3];
 592:C:/Users/lenovo/Desktop/liteos/Project2/BearPi_LiteOS/components/connectivity/lwm2m/examples/shared\commandline.c **** 
 593:C:/Users/lenovo/Desktop/liteos/Project2/BearPi_LiteOS/components/connectivity/lwm2m/examples/shared\commandline.c ****         tmp[0] = prv_b64Revert(dataP[dataLen - 3]);
 594:C:/Users/lenovo/Desktop/liteos/Project2/BearPi_LiteOS/components/connectivity/lwm2m/examples/shared\commandline.c ****         tmp[1] = prv_b64Revert(dataP[dataLen - 2]);
 595:C:/Users/lenovo/Desktop/liteos/Project2/BearPi_LiteOS/components/connectivity/lwm2m/examples/shared\commandline.c ****         tmp[2] = prv_b64Revert(dataP[dataLen - 1]);
 596:C:/Users/lenovo/Desktop/liteos/Project2/BearPi_LiteOS/components/connectivity/lwm2m/examples/shared\commandline.c **** 
 597:C:/Users/lenovo/Desktop/liteos/Project2/BearPi_LiteOS/components/connectivity/lwm2m/examples/shared\commandline.c ****         *bufferP[result_index - 3] = (tmp[0] << 2) | (tmp[1] >> 4);
 598:C:/Users/lenovo/Desktop/liteos/Project2/BearPi_LiteOS/components/connectivity/lwm2m/examples/shared\commandline.c ****         *bufferP[result_index - 2] = (tmp[1] << 4) | (tmp[2] >> 2);
 599:C:/Users/lenovo/Desktop/liteos/Project2/BearPi_LiteOS/components/connectivity/lwm2m/examples/shared\commandline.c ****         *bufferP[result_index - 1] = (tmp[2] << 6);
 600:C:/Users/lenovo/Desktop/liteos/Project2/BearPi_LiteOS/components/connectivity/lwm2m/examples/shared\commandline.c ****         result_len -= 1;
 601:C:/Users/lenovo/Desktop/liteos/Project2/BearPi_LiteOS/components/connectivity/lwm2m/examples/shared\commandline.c ****     }
 602:C:/Users/lenovo/Desktop/liteos/Project2/BearPi_LiteOS/components/connectivity/lwm2m/examples/shared\commandline.c ****     break;
 603:C:/Users/lenovo/Desktop/liteos/Project2/BearPi_LiteOS/components/connectivity/lwm2m/examples/shared\commandline.c ****     default:
 604:C:/Users/lenovo/Desktop/liteos/Project2/BearPi_LiteOS/components/connectivity/lwm2m/examples/shared\commandline.c ****         // error
 605:C:/Users/lenovo/Desktop/liteos/Project2/BearPi_LiteOS/components/connectivity/lwm2m/examples/shared\commandline.c ****         lwm2m_free(*bufferP);
 606:C:/Users/lenovo/Desktop/liteos/Project2/BearPi_LiteOS/components/connectivity/lwm2m/examples/shared\commandline.c ****         *bufferP = NULL;
 607:C:/Users/lenovo/Desktop/liteos/Project2/BearPi_LiteOS/components/connectivity/lwm2m/examples/shared\commandline.c ****         result_len = 0;
 608:C:/Users/lenovo/Desktop/liteos/Project2/BearPi_LiteOS/components/connectivity/lwm2m/examples/shared\commandline.c ****         break;
 609:C:/Users/lenovo/Desktop/liteos/Project2/BearPi_LiteOS/components/connectivity/lwm2m/examples/shared\commandline.c ****     }
 610:C:/Users/lenovo/Desktop/liteos/Project2/BearPi_LiteOS/components/connectivity/lwm2m/examples/shared\commandline.c **** 
 611:C:/Users/lenovo/Desktop/liteos/Project2/BearPi_LiteOS/components/connectivity/lwm2m/examples/shared\commandline.c ****     return result_len;
 612:C:/Users/lenovo/Desktop/liteos/Project2/BearPi_LiteOS/components/connectivity/lwm2m/examples/shared\commandline.c **** }
ARM GAS  c:\Users\lenovo\AppData\Local\Temp\ccEGNnmz.s 			page 47


 1822              		.loc 1 612 0
 1823 000e 5846     		mov	r0, fp
 1824 0010 BDE8F88F 		pop	{r3, r4, r5, r6, r7, r8, r9, r10, fp, pc}
 1825              	.LVL204:
 1826              	.L177:
 1827 0014 0646     		mov	r6, r0
 1828 0016 0C46     		mov	r4, r1
 1829 0018 9046     		mov	r8, r2
 554:C:/Users/lenovo/Desktop/liteos/Project2/BearPi_LiteOS/components/connectivity/lwm2m/examples/shared\commandline.c ****     *bufferP = (uint8_t *)lwm2m_malloc(result_len);
 1830              		.loc 1 554 0
 1831 001a 4FEA9109 		lsr	r9, r1, #2
 1832 001e 09EB4909 		add	r9, r9, r9, lsl #1
 1833              	.LVL205:
 555:C:/Users/lenovo/Desktop/liteos/Project2/BearPi_LiteOS/components/connectivity/lwm2m/examples/shared\commandline.c ****     if (NULL == *bufferP) return 0;
 1834              		.loc 1 555 0
 1835 0022 4846     		mov	r0, r9
 1836              	.LVL206:
 1837 0024 FFF7FEFF 		bl	lwm2m_malloc
 1838              	.LVL207:
 1839 0028 C8F80000 		str	r0, [r8]
 556:C:/Users/lenovo/Desktop/liteos/Project2/BearPi_LiteOS/components/connectivity/lwm2m/examples/shared\commandline.c ****     memset(*bufferP, 0, result_len);
 1840              		.loc 1 556 0
 1841 002c 0028     		cmp	r0, #0
 1842 002e EED0     		beq	.L164
 557:C:/Users/lenovo/Desktop/liteos/Project2/BearPi_LiteOS/components/connectivity/lwm2m/examples/shared\commandline.c **** 
 1843              		.loc 1 557 0
 1844 0030 4A46     		mov	r2, r9
 1845 0032 0021     		movs	r1, #0
 1846 0034 FFF7FEFF 		bl	memset
 1847              	.LVL208:
 560:C:/Users/lenovo/Desktop/liteos/Project2/BearPi_LiteOS/components/connectivity/lwm2m/examples/shared\commandline.c ****     {
 1848              		.loc 1 560 0
 1849 0038 00E0     		b	.L166
 1850              	.L173:
 562:C:/Users/lenovo/Desktop/liteos/Project2/BearPi_LiteOS/components/connectivity/lwm2m/examples/shared\commandline.c ****     }
 1851              		.loc 1 562 0
 1852 003a 1C46     		mov	r4, r3
 1853              	.LVL209:
 1854              	.L166:
 560:C:/Users/lenovo/Desktop/liteos/Project2/BearPi_LiteOS/components/connectivity/lwm2m/examples/shared\commandline.c ****     {
 1855              		.loc 1 560 0
 1856 003c 631E     		subs	r3, r4, #1
 1857 003e 06EB030A 		add	r10, r6, r3
 1858 0042 F25C     		ldrb	r2, [r6, r3]	@ zero_extendqisi2
 1859 0044 3D2A     		cmp	r2, #61
 1860 0046 F8D0     		beq	.L173
 566:C:/Users/lenovo/Desktop/liteos/Project2/BearPi_LiteOS/components/connectivity/lwm2m/examples/shared\commandline.c ****     while (data_index < dataLen)
 1861              		.loc 1 566 0
 1862 0048 5F46     		mov	r7, fp
 565:C:/Users/lenovo/Desktop/liteos/Project2/BearPi_LiteOS/components/connectivity/lwm2m/examples/shared\commandline.c ****     result_index = 0;
 1863              		.loc 1 565 0
 1864 004a 5D46     		mov	r5, fp
 1865 004c 07E0     		b	.L167
 1866              	.LVL210:
 1867              	.L168:
 569:C:/Users/lenovo/Desktop/liteos/Project2/BearPi_LiteOS/components/connectivity/lwm2m/examples/shared\commandline.c ****         data_index += 4;
 1868              		.loc 1 569 0
ARM GAS  c:\Users\lenovo\AppData\Local\Temp\ccEGNnmz.s 			page 48


 1869 004e D8F80010 		ldr	r1, [r8]
 1870 0052 3944     		add	r1, r1, r7
 1871 0054 7019     		adds	r0, r6, r5
 1872 0056 FFF7FEFF 		bl	prv_decodeBlock
 1873              	.LVL211:
 570:C:/Users/lenovo/Desktop/liteos/Project2/BearPi_LiteOS/components/connectivity/lwm2m/examples/shared\commandline.c ****         result_index += 3;
 1874              		.loc 1 570 0
 1875 005a 0435     		adds	r5, r5, #4
 1876              	.LVL212:
 571:C:/Users/lenovo/Desktop/liteos/Project2/BearPi_LiteOS/components/connectivity/lwm2m/examples/shared\commandline.c ****     }
 1877              		.loc 1 571 0
 1878 005c 0337     		adds	r7, r7, #3
 1879              	.LVL213:
 1880              	.L167:
 567:C:/Users/lenovo/Desktop/liteos/Project2/BearPi_LiteOS/components/connectivity/lwm2m/examples/shared\commandline.c ****     {
 1881              		.loc 1 567 0
 1882 005e AC42     		cmp	r4, r5
 1883 0060 F5D8     		bhi	.L168
 573:C:/Users/lenovo/Desktop/liteos/Project2/BearPi_LiteOS/components/connectivity/lwm2m/examples/shared\commandline.c ****     {
 1884              		.loc 1 573 0
 1885 0062 2D1B     		subs	r5, r5, r4
 1886              	.LVL214:
 1887 0064 022D     		cmp	r5, #2
 1888 0066 0BD0     		beq	.L170
 1889 0068 032D     		cmp	r5, #3
 1890 006a 23D0     		beq	.L171
 1891 006c 002D     		cmp	r5, #0
 1892 006e 49D0     		beq	.L178
 605:C:/Users/lenovo/Desktop/liteos/Project2/BearPi_LiteOS/components/connectivity/lwm2m/examples/shared\commandline.c ****         *bufferP = NULL;
 1893              		.loc 1 605 0
 1894 0070 D8F80000 		ldr	r0, [r8]
 1895 0074 FFF7FEFF 		bl	lwm2m_free
 1896              	.LVL215:
 606:C:/Users/lenovo/Desktop/liteos/Project2/BearPi_LiteOS/components/connectivity/lwm2m/examples/shared\commandline.c ****         result_len = 0;
 1897              		.loc 1 606 0
 1898 0078 0023     		movs	r3, #0
 1899 007a C8F80030 		str	r3, [r8]
 1900              	.LVL216:
 608:C:/Users/lenovo/Desktop/liteos/Project2/BearPi_LiteOS/components/connectivity/lwm2m/examples/shared\commandline.c ****     }
 1901              		.loc 1 608 0
 1902 007e C6E7     		b	.L164
 1903              	.LVL217:
 1904              	.L170:
 1905              	.LBB5:
 581:C:/Users/lenovo/Desktop/liteos/Project2/BearPi_LiteOS/components/connectivity/lwm2m/examples/shared\commandline.c ****         tmp[1] = prv_b64Revert(dataP[dataLen - 1]);
 1906              		.loc 1 581 0
 1907 0080 023C     		subs	r4, r4, #2
 1908              	.LVL218:
 1909 0082 305D     		ldrb	r0, [r6, r4]	@ zero_extendqisi2
 1910 0084 FFF7FEFF 		bl	prv_b64Revert
 1911              	.LVL219:
 1912 0088 0446     		mov	r4, r0
 1913              	.LVL220:
 582:C:/Users/lenovo/Desktop/liteos/Project2/BearPi_LiteOS/components/connectivity/lwm2m/examples/shared\commandline.c **** 
 1914              		.loc 1 582 0
 1915 008a 9AF80000 		ldrb	r0, [r10]	@ zero_extendqisi2
 1916 008e FFF7FEFF 		bl	prv_b64Revert
ARM GAS  c:\Users\lenovo\AppData\Local\Temp\ccEGNnmz.s 			page 49


 1917              	.LVL221:
 584:C:/Users/lenovo/Desktop/liteos/Project2/BearPi_LiteOS/components/connectivity/lwm2m/examples/shared\commandline.c ****         *bufferP[result_index - 2] = (tmp[1] << 4);
 1918              		.loc 1 584 0
 1919 0092 07F18047 		add	r7, r7, #1073741824
 1920              	.LVL222:
 1921 0096 FB1E     		subs	r3, r7, #3
 1922 0098 58F82320 		ldr	r2, [r8, r3, lsl #2]
 1923 009c 0309     		lsrs	r3, r0, #4
 1924 009e 43EA8403 		orr	r3, r3, r4, lsl #2
 1925 00a2 1370     		strb	r3, [r2]
 585:C:/Users/lenovo/Desktop/liteos/Project2/BearPi_LiteOS/components/connectivity/lwm2m/examples/shared\commandline.c ****         result_len -= 2;
 1926              		.loc 1 585 0
 1927 00a4 023F     		subs	r7, r7, #2
 1928              	.LVL223:
 1929 00a6 58F82730 		ldr	r3, [r8, r7, lsl #2]
 1930 00aa 0001     		lsls	r0, r0, #4
 1931 00ac 1870     		strb	r0, [r3]
 586:C:/Users/lenovo/Desktop/liteos/Project2/BearPi_LiteOS/components/connectivity/lwm2m/examples/shared\commandline.c ****     }
 1932              		.loc 1 586 0
 1933 00ae A9F1020B 		sub	fp, r9, #2
 1934              	.LVL224:
 1935              	.LBE5:
 588:C:/Users/lenovo/Desktop/liteos/Project2/BearPi_LiteOS/components/connectivity/lwm2m/examples/shared\commandline.c ****     case 3:
 1936              		.loc 1 588 0
 1937 00b2 ACE7     		b	.L164
 1938              	.LVL225:
 1939              	.L171:
 1940              	.LBB6:
 593:C:/Users/lenovo/Desktop/liteos/Project2/BearPi_LiteOS/components/connectivity/lwm2m/examples/shared\commandline.c ****         tmp[1] = prv_b64Revert(dataP[dataLen - 2]);
 1941              		.loc 1 593 0
 1942 00b4 E31E     		subs	r3, r4, #3
 1943 00b6 F05C     		ldrb	r0, [r6, r3]	@ zero_extendqisi2
 1944 00b8 FFF7FEFF 		bl	prv_b64Revert
 1945              	.LVL226:
 1946 00bc 0546     		mov	r5, r0
 594:C:/Users/lenovo/Desktop/liteos/Project2/BearPi_LiteOS/components/connectivity/lwm2m/examples/shared\commandline.c ****         tmp[2] = prv_b64Revert(dataP[dataLen - 1]);
 1947              		.loc 1 594 0
 1948 00be 023C     		subs	r4, r4, #2
 1949              	.LVL227:
 1950 00c0 305D     		ldrb	r0, [r6, r4]	@ zero_extendqisi2
 1951 00c2 FFF7FEFF 		bl	prv_b64Revert
 1952              	.LVL228:
 1953 00c6 0446     		mov	r4, r0
 1954              	.LVL229:
 595:C:/Users/lenovo/Desktop/liteos/Project2/BearPi_LiteOS/components/connectivity/lwm2m/examples/shared\commandline.c **** 
 1955              		.loc 1 595 0
 1956 00c8 9AF80000 		ldrb	r0, [r10]	@ zero_extendqisi2
 1957 00cc FFF7FEFF 		bl	prv_b64Revert
 1958              	.LVL230:
 597:C:/Users/lenovo/Desktop/liteos/Project2/BearPi_LiteOS/components/connectivity/lwm2m/examples/shared\commandline.c ****         *bufferP[result_index - 2] = (tmp[1] << 4) | (tmp[2] >> 2);
 1959              		.loc 1 597 0
 1960 00d0 07F18043 		add	r3, r7, #1073741824
 1961 00d4 DA1E     		subs	r2, r3, #3
 1962 00d6 58F82210 		ldr	r1, [r8, r2, lsl #2]
 1963 00da 2209     		lsrs	r2, r4, #4
 1964 00dc 42EA8505 		orr	r5, r2, r5, lsl #2
 1965 00e0 0D70     		strb	r5, [r1]
ARM GAS  c:\Users\lenovo\AppData\Local\Temp\ccEGNnmz.s 			page 50


 598:C:/Users/lenovo/Desktop/liteos/Project2/BearPi_LiteOS/components/connectivity/lwm2m/examples/shared\commandline.c ****         *bufferP[result_index - 1] = (tmp[2] << 6);
 1966              		.loc 1 598 0
 1967 00e2 023B     		subs	r3, r3, #2
 1968 00e4 58F82320 		ldr	r2, [r8, r3, lsl #2]
 1969 00e8 8308     		lsrs	r3, r0, #2
 1970 00ea 43EA0414 		orr	r4, r3, r4, lsl #4
 1971 00ee 1470     		strb	r4, [r2]
 599:C:/Users/lenovo/Desktop/liteos/Project2/BearPi_LiteOS/components/connectivity/lwm2m/examples/shared\commandline.c ****         result_len -= 1;
 1972              		.loc 1 599 0
 1973 00f0 07F18047 		add	r7, r7, #1073741824
 1974              	.LVL231:
 1975 00f4 013F     		subs	r7, r7, #1
 1976              	.LVL232:
 1977 00f6 58F82730 		ldr	r3, [r8, r7, lsl #2]
 1978 00fa 8001     		lsls	r0, r0, #6
 1979 00fc 1870     		strb	r0, [r3]
 600:C:/Users/lenovo/Desktop/liteos/Project2/BearPi_LiteOS/components/connectivity/lwm2m/examples/shared\commandline.c ****     }
 1980              		.loc 1 600 0
 1981 00fe 09F1FF3B 		add	fp, r9, #-1
 1982              	.LVL233:
 1983              	.LBE6:
 602:C:/Users/lenovo/Desktop/liteos/Project2/BearPi_LiteOS/components/connectivity/lwm2m/examples/shared\commandline.c ****     default:
 1984              		.loc 1 602 0
 1985 0102 84E7     		b	.L164
 1986              	.LVL234:
 1987              	.L178:
 554:C:/Users/lenovo/Desktop/liteos/Project2/BearPi_LiteOS/components/connectivity/lwm2m/examples/shared\commandline.c ****     *bufferP = (uint8_t *)lwm2m_malloc(result_len);
 1988              		.loc 1 554 0
 1989 0104 CB46     		mov	fp, r9
 1990 0106 82E7     		b	.L164
 1991              		.cfi_endproc
 1992              	.LFE150:
 1994              		.section	.rodata.dump_tlv.str1.4,"aMS",%progbits,1
 1995              		.align	2
 1996              	.LC42:
 1997 0000 74727565 		.ascii	"true\000"
 1997      00
 1998 0005 000000   		.space	3
 1999              	.LC43:
 2000 0008 66616C73 		.ascii	"false\000"
 2000      6500
 2001 000e 0000     		.space	2
 2002              	.LC44:
 2003 0010 69643A20 		.ascii	"id: %d\015\012\000"
 2003      25640D0A 
 2003      00
 2004 0019 000000   		.space	3
 2005              	.LC45:
 2006 001c 74797065 		.ascii	"type: \000"
 2006      3A2000
 2007 0023 00       		.space	1
 2008              	.LC46:
 2009 0024 4C574D32 		.ascii	"LWM2M_TYPE_OBJECT\015\012\000"
 2009      4D5F5459 
 2009      50455F4F 
 2009      424A4543 
 2009      540D0A00 
ARM GAS  c:\Users\lenovo\AppData\Local\Temp\ccEGNnmz.s 			page 51


 2010              	.LC47:
 2011 0038 4C574D32 		.ascii	"LWM2M_TYPE_OBJECT_INSTANCE\015\012\000"
 2011      4D5F5459 
 2011      50455F4F 
 2011      424A4543 
 2011      545F494E 
 2012 0055 000000   		.space	3
 2013              	.LC48:
 2014 0058 4C574D32 		.ascii	"LWM2M_TYPE_MULTIPLE_RESOURCE\015\012\000"
 2014      4D5F5459 
 2014      50455F4D 
 2014      554C5449 
 2014      504C455F 
 2015 0077 00       		.space	1
 2016              	.LC49:
 2017 0078 4C574D32 		.ascii	"LWM2M_TYPE_UNDEFINED\015\012\000"
 2017      4D5F5459 
 2017      50455F55 
 2017      4E444546 
 2017      494E4544 
 2018 008f 00       		.space	1
 2019              	.LC50:
 2020 0090 4C574D32 		.ascii	"LWM2M_TYPE_STRING\015\012\000"
 2020      4D5F5459 
 2020      50455F53 
 2020      5452494E 
 2020      470D0A00 
 2021              	.LC51:
 2022 00a4 22252E2A 		.ascii	"\"%.*s\"\015\012\000"
 2022      73220D0A 
 2022      00
 2023 00ad 000000   		.space	3
 2024              	.LC52:
 2025 00b0 4C574D32 		.ascii	"LWM2M_TYPE_OPAQUE\015\012\000"
 2025      4D5F5459 
 2025      50455F4F 
 2025      50415155 
 2025      450D0A00 
 2026              	.LC53:
 2027 00c4 4C574D32 		.ascii	"LWM2M_TYPE_INTEGER: \000"
 2027      4D5F5459 
 2027      50455F49 
 2027      4E544547 
 2027      45523A20 
 2028 00d9 000000   		.space	3
 2029              	.LC54:
 2030 00dc 0D0A00   		.ascii	"\015\012\000"
 2031 00df 00       		.space	1
 2032              	.LC55:
 2033 00e0 4C574D32 		.ascii	"LWM2M_TYPE_FLOAT: \000"
 2033      4D5F5459 
 2033      50455F46 
 2033      4C4F4154 
 2033      3A2000
 2034 00f3 00       		.space	1
 2035              	.LC56:
 2036 00f4 4C574D32 		.ascii	"LWM2M_TYPE_BOOLEAN: \000"
ARM GAS  c:\Users\lenovo\AppData\Local\Temp\ccEGNnmz.s 			page 52


 2036      4D5F5459 
 2036      50455F42 
 2036      4F4F4C45 
 2036      414E3A20 
 2037 0109 000000   		.space	3
 2038              	.LC57:
 2039 010c 4C574D32 		.ascii	"LWM2M_TYPE_OBJECT_LINK\015\012\000"
 2039      4D5F5459 
 2039      50455F4F 
 2039      424A4543 
 2039      545F4C49 
 2040 0125 000000   		.space	3
 2041              	.LC58:
 2042 0128 756E6B6E 		.ascii	"unknown (%d)\015\012\000"
 2042      6F776E20 
 2042      28256429 
 2042      0D0A00
 2043              		.section	.rodata.handle_command.str1.4,"aMS",%progbits,1
 2044              		.align	2
 2045              	.LC19:
 2046 0000 68656C70 		.ascii	"help\000"
 2046      00
 2047 0005 000000   		.space	3
 2048              	.LC20:
 2049 0008 556E6B6E 		.ascii	"Unknown command. Type 'help' for help.\015\012\000"
 2049      6F776E20 
 2049      636F6D6D 
 2049      616E642E 
 2049      20547970 
 2050              		.section	.rodata.output_data.str1.4,"aMS",%progbits,1
 2051              		.align	2
 2052              	.LC35:
 2053 0000 25642062 		.ascii	"%d bytes received of type \000"
 2053      79746573 
 2053      20726563 
 2053      65697665 
 2053      64206F66 
 2054 001b 00       		.space	1
 2055              	.LC36:
 2056 001c 74657874 		.ascii	"text/plain:\015\012\000"
 2056      2F706C61 
 2056      696E3A0D 
 2056      0A00
 2057 002a 0000     		.space	2
 2058              	.LC37:
 2059 002c 6170706C 		.ascii	"application/octet-stream:\015\012\000"
 2059      69636174 
 2059      696F6E2F 
 2059      6F637465 
 2059      742D7374 
 2060              	.LC38:
 2061 0048 6170706C 		.ascii	"application/vnd.oma.lwm2m+tlv:\015\012\000"
 2061      69636174 
 2061      696F6E2F 
 2061      766E642E 
 2061      6F6D612E 
 2062 0069 000000   		.space	3
ARM GAS  c:\Users\lenovo\AppData\Local\Temp\ccEGNnmz.s 			page 53


 2063              	.LC39:
 2064 006c 6170706C 		.ascii	"application/vnd.oma.lwm2m+json:\015\012\000"
 2064      69636174 
 2064      696F6E2F 
 2064      766E642E 
 2064      6F6D612E 
 2065 008e 0000     		.space	2
 2066              	.LC40:
 2067 0090 6170706C 		.ascii	"application/link-format:\015\012\000"
 2067      69636174 
 2067      696F6E2F 
 2067      6C696E6B 
 2067      2D666F72 
 2068 00ab 00       		.space	1
 2069              	.LC41:
 2070 00ac 556E6B6E 		.ascii	"Unknown (%d):\015\012\000"
 2070      6F776E20 
 2070      28256429 
 2070      3A0D0A00 
 2071              		.section	.rodata.output_tlv.str1.4,"aMS",%progbits,1
 2072              		.align	2
 2073              	.LC21:
 2074 0000 7B0D0A00 		.ascii	"{\015\012\000"
 2075              	.LC22:
 2076 0004 49443A20 		.ascii	"ID: %d\000"
 2076      256400
 2077 000b 00       		.space	1
 2078              	.LC23:
 2079 000c 20747970 		.ascii	" type: \000"
 2079      653A2000 
 2080              	.LC24:
 2081 0014 4F626A65 		.ascii	"Object Instance\000"
 2081      63742049 
 2081      6E737461 
 2081      6E636500 
 2082              	.LC25:
 2083 0024 4D756C74 		.ascii	"Multiple Instances\000"
 2083      69706C65 
 2083      20496E73 
 2083      74616E63 
 2083      657300
 2084 0037 00       		.space	1
 2085              	.LC26:
 2086 0038 5265736F 		.ascii	"Resource Value\000"
 2086      75726365 
 2086      2056616C 
 2086      756500
 2087 0047 00       		.space	1
 2088              	.LC27:
 2089 0048 756E6B6E 		.ascii	"unknown (%d)\000"
 2089      6F776E20 
 2089      28256429 
 2089      00
 2090 0055 000000   		.space	3
 2091              	.LC28:
 2092 0058 7B0A00   		.ascii	"{\012\000"
 2093 005b 00       		.space	1
ARM GAS  c:\Users\lenovo\AppData\Local\Temp\ccEGNnmz.s 			page 54


 2094              	.LC29:
 2095 005c 64617461 		.ascii	"data (%d bytes):\015\012\000"
 2095      20282564 
 2095      20627974 
 2095      6573293A 
 2095      0D0A00
 2096 006f 00       		.space	1
 2097              	.LC30:
 2098 0070 256C6C64 		.ascii	"%lld\000"
 2098      00
 2099 0075 000000   		.space	3
 2100              	.LC31:
 2101 0078 64617461 		.ascii	"data as Integer: %lld\015\012\000"
 2101      20617320 
 2101      496E7465 
 2101      6765723A 
 2101      20256C6C 
 2102              	.LC32:
 2103 0090 256C6700 		.ascii	"%lg\000"
 2104              	.LC33:
 2105 0094 64617461 		.ascii	"data as Float: %.16g\015\012\000"
 2105      20617320 
 2105      466C6F61 
 2105      743A2025 
 2105      2E313667 
 2106 00ab 00       		.space	1
 2107              	.LC34:
 2108 00ac 7D0D0A00 		.ascii	"}\015\012\000"
 2109              		.section	.rodata.print_indent.str1.4,"aMS",%progbits,1
 2110              		.align	2
 2111              	.LC15:
 2112 0000 20202020 		.ascii	"    \000"
 2112      00
 2113              		.section	.rodata.print_status.str1.4,"aMS",%progbits,1
 2114              		.align	2
 2115              	.LC59:
 2116 0000 25642E25 		.ascii	"%d.%02d (%s)\000"
 2116      30326420 
 2116      28257329 
 2116      00
 2117              		.section	.rodata.prv_displayHelp.str1.4,"aMS",%progbits,1
 2118              		.align	2
 2119              	.LC16:
 2120 0000 68656C70 		.ascii	"help\011Type 'help [COMMAND]' for more details on a"
 2120      09547970 
 2120      65202768 
 2120      656C7020 
 2120      5B434F4D 
 2121 0030 20636F6D 		.ascii	" command.\015\012\000"
 2121      6D616E64 
 2121      2E0D0A00 
 2122              	.LC17:
 2123 003c 25730925 		.ascii	"%s\011%s\015\012\000"
 2123      730D0A00 
 2124              	.LC18:
 2125 0044 25730D0A 		.ascii	"%s\015\012\000"
 2125      00
ARM GAS  c:\Users\lenovo\AppData\Local\Temp\ccEGNnmz.s 			page 55


 2126              		.section	.rodata.prv_status_to_string.str1.4,"aMS",%progbits,1
 2127              		.align	2
 2128              	.LC0:
 2129 0000 434F4150 		.ascii	"COAP_NO_ERROR\000"
 2129      5F4E4F5F 
 2129      4552524F 
 2129      5200
 2130 000e 0000     		.space	2
 2131              	.LC1:
 2132 0010 434F4150 		.ascii	"COAP_IGNORE\000"
 2132      5F49474E 
 2132      4F524500 
 2133              	.LC2:
 2134 001c 434F4150 		.ascii	"COAP_201_CREATED\000"
 2134      5F323031 
 2134      5F435245 
 2134      41544544 
 2134      00
 2135 002d 000000   		.space	3
 2136              	.LC3:
 2137 0030 434F4150 		.ascii	"COAP_202_DELETED\000"
 2137      5F323032 
 2137      5F44454C 
 2137      45544544 
 2137      00
 2138 0041 000000   		.space	3
 2139              	.LC4:
 2140 0044 434F4150 		.ascii	"COAP_204_CHANGED\000"
 2140      5F323034 
 2140      5F434841 
 2140      4E474544 
 2140      00
 2141 0055 000000   		.space	3
 2142              	.LC5:
 2143 0058 434F4150 		.ascii	"COAP_205_CONTENT\000"
 2143      5F323035 
 2143      5F434F4E 
 2143      54454E54 
 2143      00
 2144 0069 000000   		.space	3
 2145              	.LC6:
 2146 006c 434F4150 		.ascii	"COAP_400_BAD_REQUEST\000"
 2146      5F343030 
 2146      5F424144 
 2146      5F524551 
 2146      55455354 
 2147 0081 000000   		.space	3
 2148              	.LC7:
 2149 0084 434F4150 		.ascii	"COAP_401_UNAUTHORIZED\000"
 2149      5F343031 
 2149      5F554E41 
 2149      5554484F 
 2149      52495A45 
 2150 009a 0000     		.space	2
 2151              	.LC8:
 2152 009c 434F4150 		.ascii	"COAP_404_NOT_FOUND\000"
 2152      5F343034 
ARM GAS  c:\Users\lenovo\AppData\Local\Temp\ccEGNnmz.s 			page 56


 2152      5F4E4F54 
 2152      5F464F55 
 2152      4E4400
 2153 00af 00       		.space	1
 2154              	.LC9:
 2155 00b0 434F4150 		.ascii	"COAP_405_METHOD_NOT_ALLOWED\000"
 2155      5F343035 
 2155      5F4D4554 
 2155      484F445F 
 2155      4E4F545F 
 2156              	.LC10:
 2157 00cc 434F4150 		.ascii	"COAP_406_NOT_ACCEPTABLE\000"
 2157      5F343036 
 2157      5F4E4F54 
 2157      5F414343 
 2157      45505441 
 2158              	.LC11:
 2159 00e4 434F4150 		.ascii	"COAP_500_INTERNAL_SERVER_ERROR\000"
 2159      5F353030 
 2159      5F494E54 
 2159      45524E41 
 2159      4C5F5345 
 2160 0103 00       		.space	1
 2161              	.LC12:
 2162 0104 434F4150 		.ascii	"COAP_501_NOT_IMPLEMENTED\000"
 2162      5F353031 
 2162      5F4E4F54 
 2162      5F494D50 
 2162      4C454D45 
 2163 011d 000000   		.space	3
 2164              	.LC13:
 2165 0120 434F4150 		.ascii	"COAP_503_SERVICE_UNAVAILABLE\000"
 2165      5F353033 
 2165      5F534552 
 2165      56494345 
 2165      5F554E41 
 2166 013d 000000   		.space	3
 2167              	.LC14:
 2168 0140 00       		.ascii	"\000"
 2169              		.text
 2170              	.Letext0:
 2171              		.file 2 "c:\\program files (x86)\\liteos studio\\resources\\arm-none-eabi\\lib\\gcc\\arm-none-eabi
 2172              		.file 3 "c:\\program files (x86)\\liteos studio\\resources\\arm-none-eabi\\arm-none-eabi\\include\
 2173              		.file 4 "c:\\program files (x86)\\liteos studio\\resources\\arm-none-eabi\\arm-none-eabi\\include\
 2174              		.file 5 "c:\\program files (x86)\\liteos studio\\resources\\arm-none-eabi\\arm-none-eabi\\include\
 2175              		.file 6 "c:\\program files (x86)\\liteos studio\\resources\\arm-none-eabi\\arm-none-eabi\\include\
 2176              		.file 7 "c:\\program files (x86)\\liteos studio\\resources\\arm-none-eabi\\arm-none-eabi\\include\
 2177              		.file 8 "c:\\program files (x86)\\liteos studio\\resources\\arm-none-eabi\\arm-none-eabi\\include\
 2178              		.file 9 "c:\\program files (x86)\\liteos studio\\resources\\arm-none-eabi\\arm-none-eabi\\include\
 2179              		.file 10 "c:\\program files (x86)\\liteos studio\\resources\\arm-none-eabi\\arm-none-eabi\\include
 2180              		.file 11 "c:\\program files (x86)\\liteos studio\\resources\\arm-none-eabi\\arm-none-eabi\\include
 2181              		.file 12 "C:/Users/lenovo/Desktop/liteos/Project2/BearPi_LiteOS/components/connectivity/lwm2m/core
 2182              		.file 13 "C:/Users/lenovo/Desktop/liteos/Project2/BearPi_LiteOS/kernel/include/los_typedef.h"
 2183              		.file 14 "C:/Users/lenovo/Desktop/liteos/Project2/BearPi_LiteOS/arch/arm/common/cmsis/core_cm4.h"
 2184              		.file 15 "C:/Users/lenovo/Desktop/liteos/Project2/BearPi_LiteOS/targets/STM32L431_BearPi/Inc/syste
 2185              		.file 16 "C:/Users/lenovo/Desktop/liteos/Project2/BearPi_LiteOS/kernel/include/los_list.h"
 2186              		.file 17 "C:/Users/lenovo/Desktop/liteos/Project2/BearPi_LiteOS/kernel/include/los_err.h"
ARM GAS  c:\Users\lenovo\AppData\Local\Temp\ccEGNnmz.s 			page 57


 2187              		.file 18 "C:/Users/lenovo/Desktop/liteos/Project2/BearPi_LiteOS/arch/arm/arm-m/include/los_hwi.h"
 2188              		.file 19 "C:/Users/lenovo/Desktop/liteos/Project2/BearPi_LiteOS/kernel/include/los_tick.h"
 2189              		.file 20 "C:/Users/lenovo/Desktop/liteos/Project2/BearPi_LiteOS/kernel/include/los_event.h"
 2190              		.file 21 "C:/Users/lenovo/Desktop/liteos/Project2/BearPi_LiteOS/kernel/include/los_task.h"
 2191              		.file 22 "C:/Users/lenovo/Desktop/liteos/Project2/BearPi_LiteOS/kernel/base/include/los_task.ph"
 2192              		.file 23 "C:/Users/lenovo/Desktop/liteos/Project2/BearPi_LiteOS/targets/STM32L431_BearPi/Inc/main.
 2193              		.file 24 "C:/Users/lenovo/Desktop/liteos/Project2/BearPi_LiteOS/targets/STM32L431_BearPi/OS_CONFIG
 2194              		.file 25 "C:/Users/lenovo/Desktop/liteos/Project2/BearPi_LiteOS/kernel/include/los_config.h"
 2195              		.file 26 "C:/Users/lenovo/Desktop/liteos/Project2/BearPi_LiteOS/components/connectivity/lwm2m/core
 2196              		.file 27 "C:/Users/lenovo/Desktop/liteos/Project2/BearPi_LiteOS/components/connectivity/lwm2m/exam
 2197              		.file 28 "<built-in>"
 2198              		.file 29 "c:\\program files (x86)\\liteos studio\\resources\\arm-none-eabi\\arm-none-eabi\\include
ARM GAS  c:\Users\lenovo\AppData\Local\Temp\ccEGNnmz.s 			page 58

