ARM GAS  c:\Users\lenovo\AppData\Local\Temp\ccaOosBf.s 			page 1


   1              		.cpu cortex-m4
   2              		.eabi_attribute 27, 1
   3              		.eabi_attribute 28, 1
   4              		.eabi_attribute 20, 1
   5              		.eabi_attribute 21, 1
   6              		.eabi_attribute 23, 3
   7              		.eabi_attribute 24, 1
   8              		.eabi_attribute 25, 1
   9              		.eabi_attribute 26, 1
  10              		.eabi_attribute 30, 1
  11              		.eabi_attribute 34, 1
  12              		.eabi_attribute 18, 4
  13              		.file	"connection.c"
  14              		.text
  15              	.Ltext0:
  16              		.cfi_sections	.debug_frame
  17              		.section	.text.connection_is_valid,"ax",%progbits
  18              		.align	1
  19              		.syntax unified
  20              		.thumb
  21              		.thumb_func
  22              		.fpu fpv4-sp-d16
  24              	connection_is_valid:
  25              	.LFB149:
  26              		.file 1 "C:/Users/lenovo/Desktop/liteos/Project2/BearPi_LiteOS/components/connectivity/agent_tiny/
   1:C:/Users/lenovo/Desktop/liteos/Project2/BearPi_LiteOS/components/connectivity/agent_tiny/atiny_lwm2m\connection.c **** /*----------------------------------------------------------------------------
   2:C:/Users/lenovo/Desktop/liteos/Project2/BearPi_LiteOS/components/connectivity/agent_tiny/atiny_lwm2m\connection.c ****  * Copyright (c) <2016-2018>, <Huawei Technologies Co., Ltd>
   3:C:/Users/lenovo/Desktop/liteos/Project2/BearPi_LiteOS/components/connectivity/agent_tiny/atiny_lwm2m\connection.c ****  * All rights reserved.
   4:C:/Users/lenovo/Desktop/liteos/Project2/BearPi_LiteOS/components/connectivity/agent_tiny/atiny_lwm2m\connection.c ****  * Redistribution and use in source and binary forms, with or without modification,
   5:C:/Users/lenovo/Desktop/liteos/Project2/BearPi_LiteOS/components/connectivity/agent_tiny/atiny_lwm2m\connection.c ****  * are permitted provided that the following conditions are met:
   6:C:/Users/lenovo/Desktop/liteos/Project2/BearPi_LiteOS/components/connectivity/agent_tiny/atiny_lwm2m\connection.c ****  * 1. Redistributions of source code must retain the above copyright notice, this list of
   7:C:/Users/lenovo/Desktop/liteos/Project2/BearPi_LiteOS/components/connectivity/agent_tiny/atiny_lwm2m\connection.c ****  * conditions and the following disclaimer.
   8:C:/Users/lenovo/Desktop/liteos/Project2/BearPi_LiteOS/components/connectivity/agent_tiny/atiny_lwm2m\connection.c ****  * 2. Redistributions in binary form must reproduce the above copyright notice, this list
   9:C:/Users/lenovo/Desktop/liteos/Project2/BearPi_LiteOS/components/connectivity/agent_tiny/atiny_lwm2m\connection.c ****  * of conditions and the following disclaimer in the documentation and/or other materials
  10:C:/Users/lenovo/Desktop/liteos/Project2/BearPi_LiteOS/components/connectivity/agent_tiny/atiny_lwm2m\connection.c ****  * provided with the distribution.
  11:C:/Users/lenovo/Desktop/liteos/Project2/BearPi_LiteOS/components/connectivity/agent_tiny/atiny_lwm2m\connection.c ****  * 3. Neither the name of the copyright holder nor the names of its contributors may be used
  12:C:/Users/lenovo/Desktop/liteos/Project2/BearPi_LiteOS/components/connectivity/agent_tiny/atiny_lwm2m\connection.c ****  * to endorse or promote products derived from this software without specific prior written
  13:C:/Users/lenovo/Desktop/liteos/Project2/BearPi_LiteOS/components/connectivity/agent_tiny/atiny_lwm2m\connection.c ****  * permission.
  14:C:/Users/lenovo/Desktop/liteos/Project2/BearPi_LiteOS/components/connectivity/agent_tiny/atiny_lwm2m\connection.c ****  * THIS SOFTWARE IS PROVIDED BY THE COPYRIGHT HOLDERS AND CONTRIBUTORS
  15:C:/Users/lenovo/Desktop/liteos/Project2/BearPi_LiteOS/components/connectivity/agent_tiny/atiny_lwm2m\connection.c ****  * "AS IS" AND ANY EXPRESS OR IMPLIED WARRANTIES, INCLUDING, BUT NOT LIMITED TO,
  16:C:/Users/lenovo/Desktop/liteos/Project2/BearPi_LiteOS/components/connectivity/agent_tiny/atiny_lwm2m\connection.c ****  * THE IMPLIED WARRANTIES OF MERCHANTABILITY AND FITNESS FOR A PARTICULAR
  17:C:/Users/lenovo/Desktop/liteos/Project2/BearPi_LiteOS/components/connectivity/agent_tiny/atiny_lwm2m\connection.c ****  * PURPOSE ARE DISCLAIMED. IN NO EVENT SHALL THE COPYRIGHT HOLDER OR
  18:C:/Users/lenovo/Desktop/liteos/Project2/BearPi_LiteOS/components/connectivity/agent_tiny/atiny_lwm2m\connection.c ****  * CONTRIBUTORS BE LIABLE FOR ANY DIRECT, INDIRECT, INCIDENTAL, SPECIAL,
  19:C:/Users/lenovo/Desktop/liteos/Project2/BearPi_LiteOS/components/connectivity/agent_tiny/atiny_lwm2m\connection.c ****  * EXEMPLARY, OR CONSEQUENTIAL DAMAGES (INCLUDING, BUT NOT LIMITED TO,
  20:C:/Users/lenovo/Desktop/liteos/Project2/BearPi_LiteOS/components/connectivity/agent_tiny/atiny_lwm2m\connection.c ****  * PROCUREMENT OF SUBSTITUTE GOODS OR SERVICES; LOSS OF USE, DATA, OR PROFITS;
  21:C:/Users/lenovo/Desktop/liteos/Project2/BearPi_LiteOS/components/connectivity/agent_tiny/atiny_lwm2m\connection.c ****  * OR BUSINESS INTERRUPTION) HOWEVER CAUSED AND ON ANY THEORY OF LIABILITY,
  22:C:/Users/lenovo/Desktop/liteos/Project2/BearPi_LiteOS/components/connectivity/agent_tiny/atiny_lwm2m\connection.c ****  * WHETHER IN CONTRACT, STRICT LIABILITY, OR TORT (INCLUDING NEGLIGENCE OR
  23:C:/Users/lenovo/Desktop/liteos/Project2/BearPi_LiteOS/components/connectivity/agent_tiny/atiny_lwm2m\connection.c ****  * OTHERWISE) ARISING IN ANY WAY OUT OF THE USE OF THIS SOFTWARE, EVEN IF
  24:C:/Users/lenovo/Desktop/liteos/Project2/BearPi_LiteOS/components/connectivity/agent_tiny/atiny_lwm2m\connection.c ****  * ADVISED OF THE POSSIBILITY OF SUCH DAMAGE.
  25:C:/Users/lenovo/Desktop/liteos/Project2/BearPi_LiteOS/components/connectivity/agent_tiny/atiny_lwm2m\connection.c ****  *---------------------------------------------------------------------------*/
  26:C:/Users/lenovo/Desktop/liteos/Project2/BearPi_LiteOS/components/connectivity/agent_tiny/atiny_lwm2m\connection.c **** /*----------------------------------------------------------------------------
  27:C:/Users/lenovo/Desktop/liteos/Project2/BearPi_LiteOS/components/connectivity/agent_tiny/atiny_lwm2m\connection.c ****  * Notice of Export Control Law
  28:C:/Users/lenovo/Desktop/liteos/Project2/BearPi_LiteOS/components/connectivity/agent_tiny/atiny_lwm2m\connection.c ****  * ===============================================
  29:C:/Users/lenovo/Desktop/liteos/Project2/BearPi_LiteOS/components/connectivity/agent_tiny/atiny_lwm2m\connection.c ****  * Huawei LiteOS may be subject to applicable export control laws and regulations, which might
  30:C:/Users/lenovo/Desktop/liteos/Project2/BearPi_LiteOS/components/connectivity/agent_tiny/atiny_lwm2m\connection.c ****  * include those applicable to Huawei LiteOS of U.S. and the country in which you are located.
  31:C:/Users/lenovo/Desktop/liteos/Project2/BearPi_LiteOS/components/connectivity/agent_tiny/atiny_lwm2m\connection.c ****  * Import, export and usage of Huawei LiteOS in any manner by you shall be in compliance with such
  32:C:/Users/lenovo/Desktop/liteos/Project2/BearPi_LiteOS/components/connectivity/agent_tiny/atiny_lwm2m\connection.c ****  * applicable export control laws and regulations.
ARM GAS  c:\Users\lenovo\AppData\Local\Temp\ccaOosBf.s 			page 2


  33:C:/Users/lenovo/Desktop/liteos/Project2/BearPi_LiteOS/components/connectivity/agent_tiny/atiny_lwm2m\connection.c ****  *---------------------------------------------------------------------------*/
  34:C:/Users/lenovo/Desktop/liteos/Project2/BearPi_LiteOS/components/connectivity/agent_tiny/atiny_lwm2m\connection.c **** 
  35:C:/Users/lenovo/Desktop/liteos/Project2/BearPi_LiteOS/components/connectivity/agent_tiny/atiny_lwm2m\connection.c **** /*******************************************************************************
  36:C:/Users/lenovo/Desktop/liteos/Project2/BearPi_LiteOS/components/connectivity/agent_tiny/atiny_lwm2m\connection.c ****  *
  37:C:/Users/lenovo/Desktop/liteos/Project2/BearPi_LiteOS/components/connectivity/agent_tiny/atiny_lwm2m\connection.c ****  * Copyright (c) 2015 Intel Corporation and others.
  38:C:/Users/lenovo/Desktop/liteos/Project2/BearPi_LiteOS/components/connectivity/agent_tiny/atiny_lwm2m\connection.c ****  * All rights reserved. This program and the accompanying materials
  39:C:/Users/lenovo/Desktop/liteos/Project2/BearPi_LiteOS/components/connectivity/agent_tiny/atiny_lwm2m\connection.c ****  * are made available under the terms of the Eclipse Public License v1.0
  40:C:/Users/lenovo/Desktop/liteos/Project2/BearPi_LiteOS/components/connectivity/agent_tiny/atiny_lwm2m\connection.c ****  * and Eclipse Distribution License v1.0 which accompany this distribution.
  41:C:/Users/lenovo/Desktop/liteos/Project2/BearPi_LiteOS/components/connectivity/agent_tiny/atiny_lwm2m\connection.c ****  *
  42:C:/Users/lenovo/Desktop/liteos/Project2/BearPi_LiteOS/components/connectivity/agent_tiny/atiny_lwm2m\connection.c ****  * The Eclipse Public License is available at
  43:C:/Users/lenovo/Desktop/liteos/Project2/BearPi_LiteOS/components/connectivity/agent_tiny/atiny_lwm2m\connection.c ****  *    http://www.eclipse.org/legal/epl-v10.html
  44:C:/Users/lenovo/Desktop/liteos/Project2/BearPi_LiteOS/components/connectivity/agent_tiny/atiny_lwm2m\connection.c ****  * The Eclipse Distribution License is available at
  45:C:/Users/lenovo/Desktop/liteos/Project2/BearPi_LiteOS/components/connectivity/agent_tiny/atiny_lwm2m\connection.c ****  *    http://www.eclipse.org/org/documents/edl-v10.php.
  46:C:/Users/lenovo/Desktop/liteos/Project2/BearPi_LiteOS/components/connectivity/agent_tiny/atiny_lwm2m\connection.c ****  *
  47:C:/Users/lenovo/Desktop/liteos/Project2/BearPi_LiteOS/components/connectivity/agent_tiny/atiny_lwm2m\connection.c ****  * Contributors:
  48:C:/Users/lenovo/Desktop/liteos/Project2/BearPi_LiteOS/components/connectivity/agent_tiny/atiny_lwm2m\connection.c ****  *    David Navarro, Intel Corporation - initial API and implementation
  49:C:/Users/lenovo/Desktop/liteos/Project2/BearPi_LiteOS/components/connectivity/agent_tiny/atiny_lwm2m\connection.c ****  *    Christian Renz - Please refer to git log
  50:C:/Users/lenovo/Desktop/liteos/Project2/BearPi_LiteOS/components/connectivity/agent_tiny/atiny_lwm2m\connection.c ****  *
  51:C:/Users/lenovo/Desktop/liteos/Project2/BearPi_LiteOS/components/connectivity/agent_tiny/atiny_lwm2m\connection.c ****  *******************************************************************************/
  52:C:/Users/lenovo/Desktop/liteos/Project2/BearPi_LiteOS/components/connectivity/agent_tiny/atiny_lwm2m\connection.c **** #include <ctype.h>
  53:C:/Users/lenovo/Desktop/liteos/Project2/BearPi_LiteOS/components/connectivity/agent_tiny/atiny_lwm2m\connection.c **** #include "connection.h"
  54:C:/Users/lenovo/Desktop/liteos/Project2/BearPi_LiteOS/components/connectivity/agent_tiny/atiny_lwm2m\connection.c **** 
  55:C:/Users/lenovo/Desktop/liteos/Project2/BearPi_LiteOS/components/connectivity/agent_tiny/atiny_lwm2m\connection.c **** 
  56:C:/Users/lenovo/Desktop/liteos/Project2/BearPi_LiteOS/components/connectivity/agent_tiny/atiny_lwm2m\connection.c **** #if defined (WITH_DTLS)
  57:C:/Users/lenovo/Desktop/liteos/Project2/BearPi_LiteOS/components/connectivity/agent_tiny/atiny_lwm2m\connection.c **** #include "dtls_interface.h"
  58:C:/Users/lenovo/Desktop/liteos/Project2/BearPi_LiteOS/components/connectivity/agent_tiny/atiny_lwm2m\connection.c **** #endif
  59:C:/Users/lenovo/Desktop/liteos/Project2/BearPi_LiteOS/components/connectivity/agent_tiny/atiny_lwm2m\connection.c **** #include "sal/atiny_socket.h"
  60:C:/Users/lenovo/Desktop/liteos/Project2/BearPi_LiteOS/components/connectivity/agent_tiny/atiny_lwm2m\connection.c **** #include "log/atiny_log.h"
  61:C:/Users/lenovo/Desktop/liteos/Project2/BearPi_LiteOS/components/connectivity/agent_tiny/atiny_lwm2m\connection.c **** #include "object_comm.h"
  62:C:/Users/lenovo/Desktop/liteos/Project2/BearPi_LiteOS/components/connectivity/agent_tiny/atiny_lwm2m\connection.c **** 
  63:C:/Users/lenovo/Desktop/liteos/Project2/BearPi_LiteOS/components/connectivity/agent_tiny/atiny_lwm2m\connection.c **** #define COAP_PORT "5683"
  64:C:/Users/lenovo/Desktop/liteos/Project2/BearPi_LiteOS/components/connectivity/agent_tiny/atiny_lwm2m\connection.c **** #define COAPS_PORT "5684"
  65:C:/Users/lenovo/Desktop/liteos/Project2/BearPi_LiteOS/components/connectivity/agent_tiny/atiny_lwm2m\connection.c **** 
  66:C:/Users/lenovo/Desktop/liteos/Project2/BearPi_LiteOS/components/connectivity/agent_tiny/atiny_lwm2m\connection.c **** static lwm2m_connection_err_notify_t g_connection_err_notify = NULL;
  67:C:/Users/lenovo/Desktop/liteos/Project2/BearPi_LiteOS/components/connectivity/agent_tiny/atiny_lwm2m\connection.c **** 
  68:C:/Users/lenovo/Desktop/liteos/Project2/BearPi_LiteOS/components/connectivity/agent_tiny/atiny_lwm2m\connection.c **** static inline void inc_connection_stat(connection_t *connection, connection_err_e type)
  69:C:/Users/lenovo/Desktop/liteos/Project2/BearPi_LiteOS/components/connectivity/agent_tiny/atiny_lwm2m\connection.c **** {
  70:C:/Users/lenovo/Desktop/liteos/Project2/BearPi_LiteOS/components/connectivity/agent_tiny/atiny_lwm2m\connection.c ****     static const uint16_t max_num[CONNECTION_ERR_MAX] = {MAX_SEND_ERR_NUM,
  71:C:/Users/lenovo/Desktop/liteos/Project2/BearPi_LiteOS/components/connectivity/agent_tiny/atiny_lwm2m\connection.c ****                                                          MAX_RECV_ERR_NUM
  72:C:/Users/lenovo/Desktop/liteos/Project2/BearPi_LiteOS/components/connectivity/agent_tiny/atiny_lwm2m\connection.c ****                                                         };
  73:C:/Users/lenovo/Desktop/liteos/Project2/BearPi_LiteOS/components/connectivity/agent_tiny/atiny_lwm2m\connection.c **** 
  74:C:/Users/lenovo/Desktop/liteos/Project2/BearPi_LiteOS/components/connectivity/agent_tiny/atiny_lwm2m\connection.c ****     connection->errs[type]++;
  75:C:/Users/lenovo/Desktop/liteos/Project2/BearPi_LiteOS/components/connectivity/agent_tiny/atiny_lwm2m\connection.c ****     if(connection->errs[type] >= max_num[type])
  76:C:/Users/lenovo/Desktop/liteos/Project2/BearPi_LiteOS/components/connectivity/agent_tiny/atiny_lwm2m\connection.c ****     {
  77:C:/Users/lenovo/Desktop/liteos/Project2/BearPi_LiteOS/components/connectivity/agent_tiny/atiny_lwm2m\connection.c ****         connection->errs[type] = 0;
  78:C:/Users/lenovo/Desktop/liteos/Project2/BearPi_LiteOS/components/connectivity/agent_tiny/atiny_lwm2m\connection.c ****         if(g_connection_err_notify)
  79:C:/Users/lenovo/Desktop/liteos/Project2/BearPi_LiteOS/components/connectivity/agent_tiny/atiny_lwm2m\connection.c ****         {
  80:C:/Users/lenovo/Desktop/liteos/Project2/BearPi_LiteOS/components/connectivity/agent_tiny/atiny_lwm2m\connection.c ****             g_connection_err_notify(connection->lwm2mH, type, connection->bootstrap_flag);
  81:C:/Users/lenovo/Desktop/liteos/Project2/BearPi_LiteOS/components/connectivity/agent_tiny/atiny_lwm2m\connection.c ****         }
  82:C:/Users/lenovo/Desktop/liteos/Project2/BearPi_LiteOS/components/connectivity/agent_tiny/atiny_lwm2m\connection.c ****     }
  83:C:/Users/lenovo/Desktop/liteos/Project2/BearPi_LiteOS/components/connectivity/agent_tiny/atiny_lwm2m\connection.c **** }
  84:C:/Users/lenovo/Desktop/liteos/Project2/BearPi_LiteOS/components/connectivity/agent_tiny/atiny_lwm2m\connection.c **** 
  85:C:/Users/lenovo/Desktop/liteos/Project2/BearPi_LiteOS/components/connectivity/agent_tiny/atiny_lwm2m\connection.c **** 
  86:C:/Users/lenovo/Desktop/liteos/Project2/BearPi_LiteOS/components/connectivity/agent_tiny/atiny_lwm2m\connection.c **** int connection_parse_host_ip(char *uri, char **parsed_host, char **parsed_port)
  87:C:/Users/lenovo/Desktop/liteos/Project2/BearPi_LiteOS/components/connectivity/agent_tiny/atiny_lwm2m\connection.c **** {
  88:C:/Users/lenovo/Desktop/liteos/Project2/BearPi_LiteOS/components/connectivity/agent_tiny/atiny_lwm2m\connection.c ****     char *host;
  89:C:/Users/lenovo/Desktop/liteos/Project2/BearPi_LiteOS/components/connectivity/agent_tiny/atiny_lwm2m\connection.c ****     char *port;
ARM GAS  c:\Users\lenovo\AppData\Local\Temp\ccaOosBf.s 			page 3


  90:C:/Users/lenovo/Desktop/liteos/Project2/BearPi_LiteOS/components/connectivity/agent_tiny/atiny_lwm2m\connection.c ****     char *defaultport;
  91:C:/Users/lenovo/Desktop/liteos/Project2/BearPi_LiteOS/components/connectivity/agent_tiny/atiny_lwm2m\connection.c ****     if (uri == NULL)
  92:C:/Users/lenovo/Desktop/liteos/Project2/BearPi_LiteOS/components/connectivity/agent_tiny/atiny_lwm2m\connection.c ****     {
  93:C:/Users/lenovo/Desktop/liteos/Project2/BearPi_LiteOS/components/connectivity/agent_tiny/atiny_lwm2m\connection.c ****         ATINY_LOG(LOG_INFO, "uri is NULL!!!");
  94:C:/Users/lenovo/Desktop/liteos/Project2/BearPi_LiteOS/components/connectivity/agent_tiny/atiny_lwm2m\connection.c ****         return COAP_500_INTERNAL_SERVER_ERROR;
  95:C:/Users/lenovo/Desktop/liteos/Project2/BearPi_LiteOS/components/connectivity/agent_tiny/atiny_lwm2m\connection.c ****     }
  96:C:/Users/lenovo/Desktop/liteos/Project2/BearPi_LiteOS/components/connectivity/agent_tiny/atiny_lwm2m\connection.c **** 
  97:C:/Users/lenovo/Desktop/liteos/Project2/BearPi_LiteOS/components/connectivity/agent_tiny/atiny_lwm2m\connection.c ****     //ATINY_LOG(LOG_INFO, "uri is %s\n", uri);
  98:C:/Users/lenovo/Desktop/liteos/Project2/BearPi_LiteOS/components/connectivity/agent_tiny/atiny_lwm2m\connection.c **** 
  99:C:/Users/lenovo/Desktop/liteos/Project2/BearPi_LiteOS/components/connectivity/agent_tiny/atiny_lwm2m\connection.c ****     // parse uri in the form "coaps://[host]:[port]"
 100:C:/Users/lenovo/Desktop/liteos/Project2/BearPi_LiteOS/components/connectivity/agent_tiny/atiny_lwm2m\connection.c **** 
 101:C:/Users/lenovo/Desktop/liteos/Project2/BearPi_LiteOS/components/connectivity/agent_tiny/atiny_lwm2m\connection.c ****     if (0 == strncmp(uri, "coaps://", strlen("coaps://")))
 102:C:/Users/lenovo/Desktop/liteos/Project2/BearPi_LiteOS/components/connectivity/agent_tiny/atiny_lwm2m\connection.c ****     {
 103:C:/Users/lenovo/Desktop/liteos/Project2/BearPi_LiteOS/components/connectivity/agent_tiny/atiny_lwm2m\connection.c ****         host = uri + strlen("coaps://");
 104:C:/Users/lenovo/Desktop/liteos/Project2/BearPi_LiteOS/components/connectivity/agent_tiny/atiny_lwm2m\connection.c ****         defaultport = COAPS_PORT;
 105:C:/Users/lenovo/Desktop/liteos/Project2/BearPi_LiteOS/components/connectivity/agent_tiny/atiny_lwm2m\connection.c ****     }
 106:C:/Users/lenovo/Desktop/liteos/Project2/BearPi_LiteOS/components/connectivity/agent_tiny/atiny_lwm2m\connection.c ****     else if (0 == strncmp(uri, "coap://", strlen("coap://")))
 107:C:/Users/lenovo/Desktop/liteos/Project2/BearPi_LiteOS/components/connectivity/agent_tiny/atiny_lwm2m\connection.c ****     {
 108:C:/Users/lenovo/Desktop/liteos/Project2/BearPi_LiteOS/components/connectivity/agent_tiny/atiny_lwm2m\connection.c ****         host = uri + strlen("coap://");
 109:C:/Users/lenovo/Desktop/liteos/Project2/BearPi_LiteOS/components/connectivity/agent_tiny/atiny_lwm2m\connection.c ****         defaultport = COAP_PORT;
 110:C:/Users/lenovo/Desktop/liteos/Project2/BearPi_LiteOS/components/connectivity/agent_tiny/atiny_lwm2m\connection.c ****     }
 111:C:/Users/lenovo/Desktop/liteos/Project2/BearPi_LiteOS/components/connectivity/agent_tiny/atiny_lwm2m\connection.c ****     else
 112:C:/Users/lenovo/Desktop/liteos/Project2/BearPi_LiteOS/components/connectivity/agent_tiny/atiny_lwm2m\connection.c ****     {
 113:C:/Users/lenovo/Desktop/liteos/Project2/BearPi_LiteOS/components/connectivity/agent_tiny/atiny_lwm2m\connection.c ****         ATINY_LOG(LOG_INFO, "come here1!!!");
 114:C:/Users/lenovo/Desktop/liteos/Project2/BearPi_LiteOS/components/connectivity/agent_tiny/atiny_lwm2m\connection.c ****         return COAP_500_INTERNAL_SERVER_ERROR;
 115:C:/Users/lenovo/Desktop/liteos/Project2/BearPi_LiteOS/components/connectivity/agent_tiny/atiny_lwm2m\connection.c ****     }
 116:C:/Users/lenovo/Desktop/liteos/Project2/BearPi_LiteOS/components/connectivity/agent_tiny/atiny_lwm2m\connection.c **** 
 117:C:/Users/lenovo/Desktop/liteos/Project2/BearPi_LiteOS/components/connectivity/agent_tiny/atiny_lwm2m\connection.c ****     port = strrchr(host, ':');
 118:C:/Users/lenovo/Desktop/liteos/Project2/BearPi_LiteOS/components/connectivity/agent_tiny/atiny_lwm2m\connection.c ****     if (port == NULL)
 119:C:/Users/lenovo/Desktop/liteos/Project2/BearPi_LiteOS/components/connectivity/agent_tiny/atiny_lwm2m\connection.c ****     {
 120:C:/Users/lenovo/Desktop/liteos/Project2/BearPi_LiteOS/components/connectivity/agent_tiny/atiny_lwm2m\connection.c ****         port = defaultport;
 121:C:/Users/lenovo/Desktop/liteos/Project2/BearPi_LiteOS/components/connectivity/agent_tiny/atiny_lwm2m\connection.c ****     }
 122:C:/Users/lenovo/Desktop/liteos/Project2/BearPi_LiteOS/components/connectivity/agent_tiny/atiny_lwm2m\connection.c ****     else
 123:C:/Users/lenovo/Desktop/liteos/Project2/BearPi_LiteOS/components/connectivity/agent_tiny/atiny_lwm2m\connection.c ****     {
 124:C:/Users/lenovo/Desktop/liteos/Project2/BearPi_LiteOS/components/connectivity/agent_tiny/atiny_lwm2m\connection.c ****         // remove brackets
 125:C:/Users/lenovo/Desktop/liteos/Project2/BearPi_LiteOS/components/connectivity/agent_tiny/atiny_lwm2m\connection.c ****         if (host[0] == '[')
 126:C:/Users/lenovo/Desktop/liteos/Project2/BearPi_LiteOS/components/connectivity/agent_tiny/atiny_lwm2m\connection.c ****         {
 127:C:/Users/lenovo/Desktop/liteos/Project2/BearPi_LiteOS/components/connectivity/agent_tiny/atiny_lwm2m\connection.c ****             host++;
 128:C:/Users/lenovo/Desktop/liteos/Project2/BearPi_LiteOS/components/connectivity/agent_tiny/atiny_lwm2m\connection.c **** 
 129:C:/Users/lenovo/Desktop/liteos/Project2/BearPi_LiteOS/components/connectivity/agent_tiny/atiny_lwm2m\connection.c ****             if (*(port - 1) == ']')
 130:C:/Users/lenovo/Desktop/liteos/Project2/BearPi_LiteOS/components/connectivity/agent_tiny/atiny_lwm2m\connection.c ****             {
 131:C:/Users/lenovo/Desktop/liteos/Project2/BearPi_LiteOS/components/connectivity/agent_tiny/atiny_lwm2m\connection.c ****                 *(port - 1) = 0;
 132:C:/Users/lenovo/Desktop/liteos/Project2/BearPi_LiteOS/components/connectivity/agent_tiny/atiny_lwm2m\connection.c ****             }
 133:C:/Users/lenovo/Desktop/liteos/Project2/BearPi_LiteOS/components/connectivity/agent_tiny/atiny_lwm2m\connection.c ****             else
 134:C:/Users/lenovo/Desktop/liteos/Project2/BearPi_LiteOS/components/connectivity/agent_tiny/atiny_lwm2m\connection.c ****             {
 135:C:/Users/lenovo/Desktop/liteos/Project2/BearPi_LiteOS/components/connectivity/agent_tiny/atiny_lwm2m\connection.c ****                 ATINY_LOG(LOG_INFO, "come here2!!!");
 136:C:/Users/lenovo/Desktop/liteos/Project2/BearPi_LiteOS/components/connectivity/agent_tiny/atiny_lwm2m\connection.c ****                 return COAP_500_INTERNAL_SERVER_ERROR;
 137:C:/Users/lenovo/Desktop/liteos/Project2/BearPi_LiteOS/components/connectivity/agent_tiny/atiny_lwm2m\connection.c ****             }
 138:C:/Users/lenovo/Desktop/liteos/Project2/BearPi_LiteOS/components/connectivity/agent_tiny/atiny_lwm2m\connection.c ****         }
 139:C:/Users/lenovo/Desktop/liteos/Project2/BearPi_LiteOS/components/connectivity/agent_tiny/atiny_lwm2m\connection.c **** 
 140:C:/Users/lenovo/Desktop/liteos/Project2/BearPi_LiteOS/components/connectivity/agent_tiny/atiny_lwm2m\connection.c ****         // split strings
 141:C:/Users/lenovo/Desktop/liteos/Project2/BearPi_LiteOS/components/connectivity/agent_tiny/atiny_lwm2m\connection.c ****         *port = 0;
 142:C:/Users/lenovo/Desktop/liteos/Project2/BearPi_LiteOS/components/connectivity/agent_tiny/atiny_lwm2m\connection.c ****         port++;
 143:C:/Users/lenovo/Desktop/liteos/Project2/BearPi_LiteOS/components/connectivity/agent_tiny/atiny_lwm2m\connection.c ****     }
 144:C:/Users/lenovo/Desktop/liteos/Project2/BearPi_LiteOS/components/connectivity/agent_tiny/atiny_lwm2m\connection.c **** 
 145:C:/Users/lenovo/Desktop/liteos/Project2/BearPi_LiteOS/components/connectivity/agent_tiny/atiny_lwm2m\connection.c ****     *parsed_host = host;
 146:C:/Users/lenovo/Desktop/liteos/Project2/BearPi_LiteOS/components/connectivity/agent_tiny/atiny_lwm2m\connection.c ****     *parsed_port = port;
ARM GAS  c:\Users\lenovo\AppData\Local\Temp\ccaOosBf.s 			page 4


 147:C:/Users/lenovo/Desktop/liteos/Project2/BearPi_LiteOS/components/connectivity/agent_tiny/atiny_lwm2m\connection.c **** 
 148:C:/Users/lenovo/Desktop/liteos/Project2/BearPi_LiteOS/components/connectivity/agent_tiny/atiny_lwm2m\connection.c ****     return COAP_NO_ERROR;
 149:C:/Users/lenovo/Desktop/liteos/Project2/BearPi_LiteOS/components/connectivity/agent_tiny/atiny_lwm2m\connection.c **** }
 150:C:/Users/lenovo/Desktop/liteos/Project2/BearPi_LiteOS/components/connectivity/agent_tiny/atiny_lwm2m\connection.c **** 
 151:C:/Users/lenovo/Desktop/liteos/Project2/BearPi_LiteOS/components/connectivity/agent_tiny/atiny_lwm2m\connection.c **** #ifdef LWM2M_BOOTSTRAP
 152:C:/Users/lenovo/Desktop/liteos/Project2/BearPi_LiteOS/components/connectivity/agent_tiny/atiny_lwm2m\connection.c **** void connection_striger_server_initiated_bs(connection_t * sessionH)
 153:C:/Users/lenovo/Desktop/liteos/Project2/BearPi_LiteOS/components/connectivity/agent_tiny/atiny_lwm2m\connection.c **** {
 154:C:/Users/lenovo/Desktop/liteos/Project2/BearPi_LiteOS/components/connectivity/agent_tiny/atiny_lwm2m\connection.c ****     (void)sessionH;
 155:C:/Users/lenovo/Desktop/liteos/Project2/BearPi_LiteOS/components/connectivity/agent_tiny/atiny_lwm2m\connection.c ****     (void)atiny_cmd_ioctl(ATINY_TRIGER_SERVER_INITIATED_BS, NULL, 0);
 156:C:/Users/lenovo/Desktop/liteos/Project2/BearPi_LiteOS/components/connectivity/agent_tiny/atiny_lwm2m\connection.c **** }
 157:C:/Users/lenovo/Desktop/liteos/Project2/BearPi_LiteOS/components/connectivity/agent_tiny/atiny_lwm2m\connection.c **** #endif
 158:C:/Users/lenovo/Desktop/liteos/Project2/BearPi_LiteOS/components/connectivity/agent_tiny/atiny_lwm2m\connection.c **** 
 159:C:/Users/lenovo/Desktop/liteos/Project2/BearPi_LiteOS/components/connectivity/agent_tiny/atiny_lwm2m\connection.c **** #ifdef WITH_DTLS
 160:C:/Users/lenovo/Desktop/liteos/Project2/BearPi_LiteOS/components/connectivity/agent_tiny/atiny_lwm2m\connection.c **** int connection_connect_dtls(connection_t *connP, security_instance_t *targetP, const char *host, co
 161:C:/Users/lenovo/Desktop/liteos/Project2/BearPi_LiteOS/components/connectivity/agent_tiny/atiny_lwm2m\connection.c **** {
 162:C:/Users/lenovo/Desktop/liteos/Project2/BearPi_LiteOS/components/connectivity/agent_tiny/atiny_lwm2m\connection.c ****     int ret;
 163:C:/Users/lenovo/Desktop/liteos/Project2/BearPi_LiteOS/components/connectivity/agent_tiny/atiny_lwm2m\connection.c ****     dtls_shakehand_info_s info;
 164:C:/Users/lenovo/Desktop/liteos/Project2/BearPi_LiteOS/components/connectivity/agent_tiny/atiny_lwm2m\connection.c ****     dtls_establish_info_s establish_info;
 165:C:/Users/lenovo/Desktop/liteos/Project2/BearPi_LiteOS/components/connectivity/agent_tiny/atiny_lwm2m\connection.c **** 
 166:C:/Users/lenovo/Desktop/liteos/Project2/BearPi_LiteOS/components/connectivity/agent_tiny/atiny_lwm2m\connection.c ****     establish_info.psk_or_cert = VERIFY_WITH_PSK;
 167:C:/Users/lenovo/Desktop/liteos/Project2/BearPi_LiteOS/components/connectivity/agent_tiny/atiny_lwm2m\connection.c ****     establish_info.udp_or_tcp = MBEDTLS_NET_PROTO_UDP;
 168:C:/Users/lenovo/Desktop/liteos/Project2/BearPi_LiteOS/components/connectivity/agent_tiny/atiny_lwm2m\connection.c ****     establish_info.v.p.psk = (const unsigned char *)targetP->secretKey;
 169:C:/Users/lenovo/Desktop/liteos/Project2/BearPi_LiteOS/components/connectivity/agent_tiny/atiny_lwm2m\connection.c ****     establish_info.v.p.psk_len = targetP->secretKeyLen;
 170:C:/Users/lenovo/Desktop/liteos/Project2/BearPi_LiteOS/components/connectivity/agent_tiny/atiny_lwm2m\connection.c ****     establish_info.v.p.psk_identity = (const unsigned char *)targetP->publicIdentity;
 171:C:/Users/lenovo/Desktop/liteos/Project2/BearPi_LiteOS/components/connectivity/agent_tiny/atiny_lwm2m\connection.c **** 
 172:C:/Users/lenovo/Desktop/liteos/Project2/BearPi_LiteOS/components/connectivity/agent_tiny/atiny_lwm2m\connection.c ****     connP->net_context = (void *)dtls_ssl_new(&establish_info, client_or_server);
 173:C:/Users/lenovo/Desktop/liteos/Project2/BearPi_LiteOS/components/connectivity/agent_tiny/atiny_lwm2m\connection.c ****     if (NULL == connP->net_context)
 174:C:/Users/lenovo/Desktop/liteos/Project2/BearPi_LiteOS/components/connectivity/agent_tiny/atiny_lwm2m\connection.c ****     {
 175:C:/Users/lenovo/Desktop/liteos/Project2/BearPi_LiteOS/components/connectivity/agent_tiny/atiny_lwm2m\connection.c ****         ATINY_LOG(LOG_INFO, "connP->ssl is NULL in connection_create");
 176:C:/Users/lenovo/Desktop/liteos/Project2/BearPi_LiteOS/components/connectivity/agent_tiny/atiny_lwm2m\connection.c ****         return COAP_500_INTERNAL_SERVER_ERROR;
 177:C:/Users/lenovo/Desktop/liteos/Project2/BearPi_LiteOS/components/connectivity/agent_tiny/atiny_lwm2m\connection.c ****     }
 178:C:/Users/lenovo/Desktop/liteos/Project2/BearPi_LiteOS/components/connectivity/agent_tiny/atiny_lwm2m\connection.c **** 
 179:C:/Users/lenovo/Desktop/liteos/Project2/BearPi_LiteOS/components/connectivity/agent_tiny/atiny_lwm2m\connection.c **** 
 180:C:/Users/lenovo/Desktop/liteos/Project2/BearPi_LiteOS/components/connectivity/agent_tiny/atiny_lwm2m\connection.c ****     memset(&info, 0, sizeof(info));
 181:C:/Users/lenovo/Desktop/liteos/Project2/BearPi_LiteOS/components/connectivity/agent_tiny/atiny_lwm2m\connection.c ****     info.client_or_server = client_or_server;
 182:C:/Users/lenovo/Desktop/liteos/Project2/BearPi_LiteOS/components/connectivity/agent_tiny/atiny_lwm2m\connection.c ****     info.finish_notify = NULL;
 183:C:/Users/lenovo/Desktop/liteos/Project2/BearPi_LiteOS/components/connectivity/agent_tiny/atiny_lwm2m\connection.c ****     info.step_notify   = NULL;
 184:C:/Users/lenovo/Desktop/liteos/Project2/BearPi_LiteOS/components/connectivity/agent_tiny/atiny_lwm2m\connection.c ****     info.udp_or_tcp = MBEDTLS_NET_PROTO_UDP;
 185:C:/Users/lenovo/Desktop/liteos/Project2/BearPi_LiteOS/components/connectivity/agent_tiny/atiny_lwm2m\connection.c ****     info.psk_or_cert = VERIFY_WITH_PSK;
 186:C:/Users/lenovo/Desktop/liteos/Project2/BearPi_LiteOS/components/connectivity/agent_tiny/atiny_lwm2m\connection.c **** #ifdef LWM2M_BOOTSTRAP
 187:C:/Users/lenovo/Desktop/liteos/Project2/BearPi_LiteOS/components/connectivity/agent_tiny/atiny_lwm2m\connection.c ****     info.step_notify = (void(*)(void *))lwm2m_step_striger_server_initiated_bs;
 188:C:/Users/lenovo/Desktop/liteos/Project2/BearPi_LiteOS/components/connectivity/agent_tiny/atiny_lwm2m\connection.c ****     info.param = (void(*)(void *))connP;
 189:C:/Users/lenovo/Desktop/liteos/Project2/BearPi_LiteOS/components/connectivity/agent_tiny/atiny_lwm2m\connection.c **** #endif
 190:C:/Users/lenovo/Desktop/liteos/Project2/BearPi_LiteOS/components/connectivity/agent_tiny/atiny_lwm2m\connection.c **** 
 191:C:/Users/lenovo/Desktop/liteos/Project2/BearPi_LiteOS/components/connectivity/agent_tiny/atiny_lwm2m\connection.c ****     if (MBEDTLS_SSL_IS_CLIENT == client_or_server)
 192:C:/Users/lenovo/Desktop/liteos/Project2/BearPi_LiteOS/components/connectivity/agent_tiny/atiny_lwm2m\connection.c ****     {
 193:C:/Users/lenovo/Desktop/liteos/Project2/BearPi_LiteOS/components/connectivity/agent_tiny/atiny_lwm2m\connection.c ****         info.u.c.host = host;
 194:C:/Users/lenovo/Desktop/liteos/Project2/BearPi_LiteOS/components/connectivity/agent_tiny/atiny_lwm2m\connection.c ****         info.u.c.port = port;
 195:C:/Users/lenovo/Desktop/liteos/Project2/BearPi_LiteOS/components/connectivity/agent_tiny/atiny_lwm2m\connection.c ****         info.timeout = DTLS_UDP_CLIENT_SHAKEHAND_TIMEOUT;
 196:C:/Users/lenovo/Desktop/liteos/Project2/BearPi_LiteOS/components/connectivity/agent_tiny/atiny_lwm2m\connection.c ****     }
 197:C:/Users/lenovo/Desktop/liteos/Project2/BearPi_LiteOS/components/connectivity/agent_tiny/atiny_lwm2m\connection.c ****     else
 198:C:/Users/lenovo/Desktop/liteos/Project2/BearPi_LiteOS/components/connectivity/agent_tiny/atiny_lwm2m\connection.c ****     {
 199:C:/Users/lenovo/Desktop/liteos/Project2/BearPi_LiteOS/components/connectivity/agent_tiny/atiny_lwm2m\connection.c **** #ifdef LWM2M_BOOTSTRAP
 200:C:/Users/lenovo/Desktop/liteos/Project2/BearPi_LiteOS/components/connectivity/agent_tiny/atiny_lwm2m\connection.c ****         info.timeout = targetP->clientHoldOffTime;
 201:C:/Users/lenovo/Desktop/liteos/Project2/BearPi_LiteOS/components/connectivity/agent_tiny/atiny_lwm2m\connection.c ****         info.u.s.local_port = port;
 202:C:/Users/lenovo/Desktop/liteos/Project2/BearPi_LiteOS/components/connectivity/agent_tiny/atiny_lwm2m\connection.c ****         timer_init(&connP->server_triger_timer, LWM2M_TRIGER_SERVER_MODE_INITIATED_TIME, (void(*)(v
 203:C:/Users/lenovo/Desktop/liteos/Project2/BearPi_LiteOS/components/connectivity/agent_tiny/atiny_lwm2m\connection.c ****         timer_start(&connP->server_triger_timer);
ARM GAS  c:\Users\lenovo\AppData\Local\Temp\ccaOosBf.s 			page 5


 204:C:/Users/lenovo/Desktop/liteos/Project2/BearPi_LiteOS/components/connectivity/agent_tiny/atiny_lwm2m\connection.c **** #endif
 205:C:/Users/lenovo/Desktop/liteos/Project2/BearPi_LiteOS/components/connectivity/agent_tiny/atiny_lwm2m\connection.c ****     }
 206:C:/Users/lenovo/Desktop/liteos/Project2/BearPi_LiteOS/components/connectivity/agent_tiny/atiny_lwm2m\connection.c ****     ret = dtls_shakehand(connP->net_context, &info);
 207:C:/Users/lenovo/Desktop/liteos/Project2/BearPi_LiteOS/components/connectivity/agent_tiny/atiny_lwm2m\connection.c **** #ifdef LWM2M_BOOTSTRAP
 208:C:/Users/lenovo/Desktop/liteos/Project2/BearPi_LiteOS/components/connectivity/agent_tiny/atiny_lwm2m\connection.c ****     timer_stop(&connP->server_triger_timer);
 209:C:/Users/lenovo/Desktop/liteos/Project2/BearPi_LiteOS/components/connectivity/agent_tiny/atiny_lwm2m\connection.c **** #endif
 210:C:/Users/lenovo/Desktop/liteos/Project2/BearPi_LiteOS/components/connectivity/agent_tiny/atiny_lwm2m\connection.c ****     if (ret != 0)
 211:C:/Users/lenovo/Desktop/liteos/Project2/BearPi_LiteOS/components/connectivity/agent_tiny/atiny_lwm2m\connection.c ****     {
 212:C:/Users/lenovo/Desktop/liteos/Project2/BearPi_LiteOS/components/connectivity/agent_tiny/atiny_lwm2m\connection.c ****         ATINY_LOG(LOG_INFO, "ret is %d in connection_create", ret);
 213:C:/Users/lenovo/Desktop/liteos/Project2/BearPi_LiteOS/components/connectivity/agent_tiny/atiny_lwm2m\connection.c ****         dtls_ssl_destroy((mbedtls_ssl_context *)connP->net_context);
 214:C:/Users/lenovo/Desktop/liteos/Project2/BearPi_LiteOS/components/connectivity/agent_tiny/atiny_lwm2m\connection.c ****         connP->net_context = NULL;
 215:C:/Users/lenovo/Desktop/liteos/Project2/BearPi_LiteOS/components/connectivity/agent_tiny/atiny_lwm2m\connection.c ****         return COAP_500_INTERNAL_SERVER_ERROR;
 216:C:/Users/lenovo/Desktop/liteos/Project2/BearPi_LiteOS/components/connectivity/agent_tiny/atiny_lwm2m\connection.c ****     }
 217:C:/Users/lenovo/Desktop/liteos/Project2/BearPi_LiteOS/components/connectivity/agent_tiny/atiny_lwm2m\connection.c **** 
 218:C:/Users/lenovo/Desktop/liteos/Project2/BearPi_LiteOS/components/connectivity/agent_tiny/atiny_lwm2m\connection.c ****     connP->dtls_flag = true;
 219:C:/Users/lenovo/Desktop/liteos/Project2/BearPi_LiteOS/components/connectivity/agent_tiny/atiny_lwm2m\connection.c **** 
 220:C:/Users/lenovo/Desktop/liteos/Project2/BearPi_LiteOS/components/connectivity/agent_tiny/atiny_lwm2m\connection.c ****     return COAP_NO_ERROR;
 221:C:/Users/lenovo/Desktop/liteos/Project2/BearPi_LiteOS/components/connectivity/agent_tiny/atiny_lwm2m\connection.c **** }
 222:C:/Users/lenovo/Desktop/liteos/Project2/BearPi_LiteOS/components/connectivity/agent_tiny/atiny_lwm2m\connection.c **** 
 223:C:/Users/lenovo/Desktop/liteos/Project2/BearPi_LiteOS/components/connectivity/agent_tiny/atiny_lwm2m\connection.c **** #endif
 224:C:/Users/lenovo/Desktop/liteos/Project2/BearPi_LiteOS/components/connectivity/agent_tiny/atiny_lwm2m\connection.c **** 
 225:C:/Users/lenovo/Desktop/liteos/Project2/BearPi_LiteOS/components/connectivity/agent_tiny/atiny_lwm2m\connection.c **** 
 226:C:/Users/lenovo/Desktop/liteos/Project2/BearPi_LiteOS/components/connectivity/agent_tiny/atiny_lwm2m\connection.c **** connection_t *connection_create(connection_t *connList,
 227:C:/Users/lenovo/Desktop/liteos/Project2/BearPi_LiteOS/components/connectivity/agent_tiny/atiny_lwm2m\connection.c ****                                 lwm2m_object_t *securityObj,
 228:C:/Users/lenovo/Desktop/liteos/Project2/BearPi_LiteOS/components/connectivity/agent_tiny/atiny_lwm2m\connection.c ****                                 int instanceId,
 229:C:/Users/lenovo/Desktop/liteos/Project2/BearPi_LiteOS/components/connectivity/agent_tiny/atiny_lwm2m\connection.c ****                                 lwm2m_context_t *lwm2mH,
 230:C:/Users/lenovo/Desktop/liteos/Project2/BearPi_LiteOS/components/connectivity/agent_tiny/atiny_lwm2m\connection.c ****                                 int client_or_server)
 231:C:/Users/lenovo/Desktop/liteos/Project2/BearPi_LiteOS/components/connectivity/agent_tiny/atiny_lwm2m\connection.c **** {
 232:C:/Users/lenovo/Desktop/liteos/Project2/BearPi_LiteOS/components/connectivity/agent_tiny/atiny_lwm2m\connection.c ****     connection_t *connP = NULL;
 233:C:/Users/lenovo/Desktop/liteos/Project2/BearPi_LiteOS/components/connectivity/agent_tiny/atiny_lwm2m\connection.c ****     char *host;
 234:C:/Users/lenovo/Desktop/liteos/Project2/BearPi_LiteOS/components/connectivity/agent_tiny/atiny_lwm2m\connection.c ****     char *port;
 235:C:/Users/lenovo/Desktop/liteos/Project2/BearPi_LiteOS/components/connectivity/agent_tiny/atiny_lwm2m\connection.c ****     security_instance_t *targetP;
 236:C:/Users/lenovo/Desktop/liteos/Project2/BearPi_LiteOS/components/connectivity/agent_tiny/atiny_lwm2m\connection.c ****     char *uri = NULL;
 237:C:/Users/lenovo/Desktop/liteos/Project2/BearPi_LiteOS/components/connectivity/agent_tiny/atiny_lwm2m\connection.c ****     connection_t * ret = NULL;
 238:C:/Users/lenovo/Desktop/liteos/Project2/BearPi_LiteOS/components/connectivity/agent_tiny/atiny_lwm2m\connection.c **** 
 239:C:/Users/lenovo/Desktop/liteos/Project2/BearPi_LiteOS/components/connectivity/agent_tiny/atiny_lwm2m\connection.c ****     ATINY_LOG(LOG_INFO, "now come into connection_create!!!");
 240:C:/Users/lenovo/Desktop/liteos/Project2/BearPi_LiteOS/components/connectivity/agent_tiny/atiny_lwm2m\connection.c **** 
 241:C:/Users/lenovo/Desktop/liteos/Project2/BearPi_LiteOS/components/connectivity/agent_tiny/atiny_lwm2m\connection.c ****     targetP = (security_instance_t *)LWM2M_LIST_FIND(securityObj->instanceList, instanceId);
 242:C:/Users/lenovo/Desktop/liteos/Project2/BearPi_LiteOS/components/connectivity/agent_tiny/atiny_lwm2m\connection.c ****     if (NULL == targetP || targetP->uri == NULL)
 243:C:/Users/lenovo/Desktop/liteos/Project2/BearPi_LiteOS/components/connectivity/agent_tiny/atiny_lwm2m\connection.c ****     {
 244:C:/Users/lenovo/Desktop/liteos/Project2/BearPi_LiteOS/components/connectivity/agent_tiny/atiny_lwm2m\connection.c ****         return NULL;
 245:C:/Users/lenovo/Desktop/liteos/Project2/BearPi_LiteOS/components/connectivity/agent_tiny/atiny_lwm2m\connection.c ****     }
 246:C:/Users/lenovo/Desktop/liteos/Project2/BearPi_LiteOS/components/connectivity/agent_tiny/atiny_lwm2m\connection.c **** 
 247:C:/Users/lenovo/Desktop/liteos/Project2/BearPi_LiteOS/components/connectivity/agent_tiny/atiny_lwm2m\connection.c **** 
 248:C:/Users/lenovo/Desktop/liteos/Project2/BearPi_LiteOS/components/connectivity/agent_tiny/atiny_lwm2m\connection.c ****     if (LWM2M_IS_CLIENT == client_or_server)
 249:C:/Users/lenovo/Desktop/liteos/Project2/BearPi_LiteOS/components/connectivity/agent_tiny/atiny_lwm2m\connection.c ****     {
 250:C:/Users/lenovo/Desktop/liteos/Project2/BearPi_LiteOS/components/connectivity/agent_tiny/atiny_lwm2m\connection.c ****         uri = atiny_strdup(targetP->uri);
 251:C:/Users/lenovo/Desktop/liteos/Project2/BearPi_LiteOS/components/connectivity/agent_tiny/atiny_lwm2m\connection.c ****         if (uri == NULL)
 252:C:/Users/lenovo/Desktop/liteos/Project2/BearPi_LiteOS/components/connectivity/agent_tiny/atiny_lwm2m\connection.c ****         {
 253:C:/Users/lenovo/Desktop/liteos/Project2/BearPi_LiteOS/components/connectivity/agent_tiny/atiny_lwm2m\connection.c ****             ATINY_LOG(LOG_INFO, "atiny_strdup null!!!");
 254:C:/Users/lenovo/Desktop/liteos/Project2/BearPi_LiteOS/components/connectivity/agent_tiny/atiny_lwm2m\connection.c ****             goto fail;
 255:C:/Users/lenovo/Desktop/liteos/Project2/BearPi_LiteOS/components/connectivity/agent_tiny/atiny_lwm2m\connection.c ****         }
 256:C:/Users/lenovo/Desktop/liteos/Project2/BearPi_LiteOS/components/connectivity/agent_tiny/atiny_lwm2m\connection.c ****         if (connection_parse_host_ip(uri, &host, &port) != COAP_NO_ERROR)
 257:C:/Users/lenovo/Desktop/liteos/Project2/BearPi_LiteOS/components/connectivity/agent_tiny/atiny_lwm2m\connection.c ****         {
 258:C:/Users/lenovo/Desktop/liteos/Project2/BearPi_LiteOS/components/connectivity/agent_tiny/atiny_lwm2m\connection.c ****             goto fail;
 259:C:/Users/lenovo/Desktop/liteos/Project2/BearPi_LiteOS/components/connectivity/agent_tiny/atiny_lwm2m\connection.c ****         }
 260:C:/Users/lenovo/Desktop/liteos/Project2/BearPi_LiteOS/components/connectivity/agent_tiny/atiny_lwm2m\connection.c ****     }
ARM GAS  c:\Users\lenovo\AppData\Local\Temp\ccaOosBf.s 			page 6


 261:C:/Users/lenovo/Desktop/liteos/Project2/BearPi_LiteOS/components/connectivity/agent_tiny/atiny_lwm2m\connection.c ****     else
 262:C:/Users/lenovo/Desktop/liteos/Project2/BearPi_LiteOS/components/connectivity/agent_tiny/atiny_lwm2m\connection.c ****     {
 263:C:/Users/lenovo/Desktop/liteos/Project2/BearPi_LiteOS/components/connectivity/agent_tiny/atiny_lwm2m\connection.c ****         host = NULL;
 264:C:/Users/lenovo/Desktop/liteos/Project2/BearPi_LiteOS/components/connectivity/agent_tiny/atiny_lwm2m\connection.c ****         port = (char *)((targetP->securityMode != LWM2M_SECURITY_MODE_NONE) ? COAPS_PORT : COAP_POR
 265:C:/Users/lenovo/Desktop/liteos/Project2/BearPi_LiteOS/components/connectivity/agent_tiny/atiny_lwm2m\connection.c ****     }
 266:C:/Users/lenovo/Desktop/liteos/Project2/BearPi_LiteOS/components/connectivity/agent_tiny/atiny_lwm2m\connection.c **** 
 267:C:/Users/lenovo/Desktop/liteos/Project2/BearPi_LiteOS/components/connectivity/agent_tiny/atiny_lwm2m\connection.c ****     connP = (connection_t *)lwm2m_malloc(sizeof(connection_t));
 268:C:/Users/lenovo/Desktop/liteos/Project2/BearPi_LiteOS/components/connectivity/agent_tiny/atiny_lwm2m\connection.c ****     if (connP == NULL)
 269:C:/Users/lenovo/Desktop/liteos/Project2/BearPi_LiteOS/components/connectivity/agent_tiny/atiny_lwm2m\connection.c ****     {
 270:C:/Users/lenovo/Desktop/liteos/Project2/BearPi_LiteOS/components/connectivity/agent_tiny/atiny_lwm2m\connection.c ****         ATINY_LOG(LOG_INFO, "connP is NULL!!!");
 271:C:/Users/lenovo/Desktop/liteos/Project2/BearPi_LiteOS/components/connectivity/agent_tiny/atiny_lwm2m\connection.c ****          goto fail;
 272:C:/Users/lenovo/Desktop/liteos/Project2/BearPi_LiteOS/components/connectivity/agent_tiny/atiny_lwm2m\connection.c ****     }
 273:C:/Users/lenovo/Desktop/liteos/Project2/BearPi_LiteOS/components/connectivity/agent_tiny/atiny_lwm2m\connection.c **** 
 274:C:/Users/lenovo/Desktop/liteos/Project2/BearPi_LiteOS/components/connectivity/agent_tiny/atiny_lwm2m\connection.c ****     memset(connP, 0, sizeof(connection_t));
 275:C:/Users/lenovo/Desktop/liteos/Project2/BearPi_LiteOS/components/connectivity/agent_tiny/atiny_lwm2m\connection.c **** 
 276:C:/Users/lenovo/Desktop/liteos/Project2/BearPi_LiteOS/components/connectivity/agent_tiny/atiny_lwm2m\connection.c **** #ifdef WITH_DTLS
 277:C:/Users/lenovo/Desktop/liteos/Project2/BearPi_LiteOS/components/connectivity/agent_tiny/atiny_lwm2m\connection.c **** 
 278:C:/Users/lenovo/Desktop/liteos/Project2/BearPi_LiteOS/components/connectivity/agent_tiny/atiny_lwm2m\connection.c ****     if (targetP->securityMode != LWM2M_SECURITY_MODE_NONE)
 279:C:/Users/lenovo/Desktop/liteos/Project2/BearPi_LiteOS/components/connectivity/agent_tiny/atiny_lwm2m\connection.c ****     {
 280:C:/Users/lenovo/Desktop/liteos/Project2/BearPi_LiteOS/components/connectivity/agent_tiny/atiny_lwm2m\connection.c ****         if (connection_connect_dtls(connP, targetP, host, port, client_or_server) != COAP_NO_ERROR)
 281:C:/Users/lenovo/Desktop/liteos/Project2/BearPi_LiteOS/components/connectivity/agent_tiny/atiny_lwm2m\connection.c ****         {
 282:C:/Users/lenovo/Desktop/liteos/Project2/BearPi_LiteOS/components/connectivity/agent_tiny/atiny_lwm2m\connection.c ****             goto fail;
 283:C:/Users/lenovo/Desktop/liteos/Project2/BearPi_LiteOS/components/connectivity/agent_tiny/atiny_lwm2m\connection.c ****         }
 284:C:/Users/lenovo/Desktop/liteos/Project2/BearPi_LiteOS/components/connectivity/agent_tiny/atiny_lwm2m\connection.c ****     }
 285:C:/Users/lenovo/Desktop/liteos/Project2/BearPi_LiteOS/components/connectivity/agent_tiny/atiny_lwm2m\connection.c ****     else
 286:C:/Users/lenovo/Desktop/liteos/Project2/BearPi_LiteOS/components/connectivity/agent_tiny/atiny_lwm2m\connection.c **** #endif
 287:C:/Users/lenovo/Desktop/liteos/Project2/BearPi_LiteOS/components/connectivity/agent_tiny/atiny_lwm2m\connection.c ****     {
 288:C:/Users/lenovo/Desktop/liteos/Project2/BearPi_LiteOS/components/connectivity/agent_tiny/atiny_lwm2m\connection.c ****         // no dtls session
 289:C:/Users/lenovo/Desktop/liteos/Project2/BearPi_LiteOS/components/connectivity/agent_tiny/atiny_lwm2m\connection.c ****         if (LWM2M_IS_CLIENT == client_or_server)
 290:C:/Users/lenovo/Desktop/liteos/Project2/BearPi_LiteOS/components/connectivity/agent_tiny/atiny_lwm2m\connection.c ****         {
 291:C:/Users/lenovo/Desktop/liteos/Project2/BearPi_LiteOS/components/connectivity/agent_tiny/atiny_lwm2m\connection.c ****             connP->net_context = atiny_net_connect(host, port, ATINY_PROTO_UDP);
 292:C:/Users/lenovo/Desktop/liteos/Project2/BearPi_LiteOS/components/connectivity/agent_tiny/atiny_lwm2m\connection.c ****         }
 293:C:/Users/lenovo/Desktop/liteos/Project2/BearPi_LiteOS/components/connectivity/agent_tiny/atiny_lwm2m\connection.c ****         else
 294:C:/Users/lenovo/Desktop/liteos/Project2/BearPi_LiteOS/components/connectivity/agent_tiny/atiny_lwm2m\connection.c ****         {
 295:C:/Users/lenovo/Desktop/liteos/Project2/BearPi_LiteOS/components/connectivity/agent_tiny/atiny_lwm2m\connection.c ****             connP->net_context = atiny_net_bind(host, port, ATINY_PROTO_UDP);
 296:C:/Users/lenovo/Desktop/liteos/Project2/BearPi_LiteOS/components/connectivity/agent_tiny/atiny_lwm2m\connection.c **** 
 297:C:/Users/lenovo/Desktop/liteos/Project2/BearPi_LiteOS/components/connectivity/agent_tiny/atiny_lwm2m\connection.c ****             #ifdef LWM2M_BOOTSTRAP
 298:C:/Users/lenovo/Desktop/liteos/Project2/BearPi_LiteOS/components/connectivity/agent_tiny/atiny_lwm2m\connection.c ****             if (connP->net_context)
 299:C:/Users/lenovo/Desktop/liteos/Project2/BearPi_LiteOS/components/connectivity/agent_tiny/atiny_lwm2m\connection.c ****             {
 300:C:/Users/lenovo/Desktop/liteos/Project2/BearPi_LiteOS/components/connectivity/agent_tiny/atiny_lwm2m\connection.c ****                 connection_striger_server_initiated_bs(connP);
 301:C:/Users/lenovo/Desktop/liteos/Project2/BearPi_LiteOS/components/connectivity/agent_tiny/atiny_lwm2m\connection.c ****                 timer_init(&connP->server_triger_timer, LWM2M_TRIGER_SERVER_MODE_INITIATED_TIME, (v
 302:C:/Users/lenovo/Desktop/liteos/Project2/BearPi_LiteOS/components/connectivity/agent_tiny/atiny_lwm2m\connection.c ****                 timer_start(&connP->server_triger_timer);
 303:C:/Users/lenovo/Desktop/liteos/Project2/BearPi_LiteOS/components/connectivity/agent_tiny/atiny_lwm2m\connection.c ****             }
 304:C:/Users/lenovo/Desktop/liteos/Project2/BearPi_LiteOS/components/connectivity/agent_tiny/atiny_lwm2m\connection.c ****             #endif
 305:C:/Users/lenovo/Desktop/liteos/Project2/BearPi_LiteOS/components/connectivity/agent_tiny/atiny_lwm2m\connection.c ****         }
 306:C:/Users/lenovo/Desktop/liteos/Project2/BearPi_LiteOS/components/connectivity/agent_tiny/atiny_lwm2m\connection.c **** 
 307:C:/Users/lenovo/Desktop/liteos/Project2/BearPi_LiteOS/components/connectivity/agent_tiny/atiny_lwm2m\connection.c ****         if (NULL == connP->net_context)
 308:C:/Users/lenovo/Desktop/liteos/Project2/BearPi_LiteOS/components/connectivity/agent_tiny/atiny_lwm2m\connection.c ****         {
 309:C:/Users/lenovo/Desktop/liteos/Project2/BearPi_LiteOS/components/connectivity/agent_tiny/atiny_lwm2m\connection.c ****             ATINY_LOG(LOG_INFO, "net_context is NULL in connection_create");
 310:C:/Users/lenovo/Desktop/liteos/Project2/BearPi_LiteOS/components/connectivity/agent_tiny/atiny_lwm2m\connection.c ****             goto fail;
 311:C:/Users/lenovo/Desktop/liteos/Project2/BearPi_LiteOS/components/connectivity/agent_tiny/atiny_lwm2m\connection.c ****         }
 312:C:/Users/lenovo/Desktop/liteos/Project2/BearPi_LiteOS/components/connectivity/agent_tiny/atiny_lwm2m\connection.c ****         connP->dtls_flag = false;
 313:C:/Users/lenovo/Desktop/liteos/Project2/BearPi_LiteOS/components/connectivity/agent_tiny/atiny_lwm2m\connection.c ****     }
 314:C:/Users/lenovo/Desktop/liteos/Project2/BearPi_LiteOS/components/connectivity/agent_tiny/atiny_lwm2m\connection.c **** 
 315:C:/Users/lenovo/Desktop/liteos/Project2/BearPi_LiteOS/components/connectivity/agent_tiny/atiny_lwm2m\connection.c ****     connP->next = connList;
 316:C:/Users/lenovo/Desktop/liteos/Project2/BearPi_LiteOS/components/connectivity/agent_tiny/atiny_lwm2m\connection.c ****     connP->securityObj = securityObj;
 317:C:/Users/lenovo/Desktop/liteos/Project2/BearPi_LiteOS/components/connectivity/agent_tiny/atiny_lwm2m\connection.c ****     connP->securityInstId = instanceId;
ARM GAS  c:\Users\lenovo\AppData\Local\Temp\ccaOosBf.s 			page 7


 318:C:/Users/lenovo/Desktop/liteos/Project2/BearPi_LiteOS/components/connectivity/agent_tiny/atiny_lwm2m\connection.c ****     connP->lwm2mH = lwm2mH;
 319:C:/Users/lenovo/Desktop/liteos/Project2/BearPi_LiteOS/components/connectivity/agent_tiny/atiny_lwm2m\connection.c ****     connP->bootstrap_flag = targetP->isBootstrap;
 320:C:/Users/lenovo/Desktop/liteos/Project2/BearPi_LiteOS/components/connectivity/agent_tiny/atiny_lwm2m\connection.c **** 
 321:C:/Users/lenovo/Desktop/liteos/Project2/BearPi_LiteOS/components/connectivity/agent_tiny/atiny_lwm2m\connection.c ****     ret = connP;
 322:C:/Users/lenovo/Desktop/liteos/Project2/BearPi_LiteOS/components/connectivity/agent_tiny/atiny_lwm2m\connection.c **** fail:
 323:C:/Users/lenovo/Desktop/liteos/Project2/BearPi_LiteOS/components/connectivity/agent_tiny/atiny_lwm2m\connection.c ****     if (uri)
 324:C:/Users/lenovo/Desktop/liteos/Project2/BearPi_LiteOS/components/connectivity/agent_tiny/atiny_lwm2m\connection.c ****     {
 325:C:/Users/lenovo/Desktop/liteos/Project2/BearPi_LiteOS/components/connectivity/agent_tiny/atiny_lwm2m\connection.c ****         lwm2m_free(uri);
 326:C:/Users/lenovo/Desktop/liteos/Project2/BearPi_LiteOS/components/connectivity/agent_tiny/atiny_lwm2m\connection.c ****     }
 327:C:/Users/lenovo/Desktop/liteos/Project2/BearPi_LiteOS/components/connectivity/agent_tiny/atiny_lwm2m\connection.c ****     if (ret == NULL && connP)
 328:C:/Users/lenovo/Desktop/liteos/Project2/BearPi_LiteOS/components/connectivity/agent_tiny/atiny_lwm2m\connection.c ****     {
 329:C:/Users/lenovo/Desktop/liteos/Project2/BearPi_LiteOS/components/connectivity/agent_tiny/atiny_lwm2m\connection.c ****         lwm2m_free(connP);
 330:C:/Users/lenovo/Desktop/liteos/Project2/BearPi_LiteOS/components/connectivity/agent_tiny/atiny_lwm2m\connection.c ****     }
 331:C:/Users/lenovo/Desktop/liteos/Project2/BearPi_LiteOS/components/connectivity/agent_tiny/atiny_lwm2m\connection.c **** 
 332:C:/Users/lenovo/Desktop/liteos/Project2/BearPi_LiteOS/components/connectivity/agent_tiny/atiny_lwm2m\connection.c ****     return ret;
 333:C:/Users/lenovo/Desktop/liteos/Project2/BearPi_LiteOS/components/connectivity/agent_tiny/atiny_lwm2m\connection.c **** }
 334:C:/Users/lenovo/Desktop/liteos/Project2/BearPi_LiteOS/components/connectivity/agent_tiny/atiny_lwm2m\connection.c **** 
 335:C:/Users/lenovo/Desktop/liteos/Project2/BearPi_LiteOS/components/connectivity/agent_tiny/atiny_lwm2m\connection.c **** void connection_free(connection_t *connP)
 336:C:/Users/lenovo/Desktop/liteos/Project2/BearPi_LiteOS/components/connectivity/agent_tiny/atiny_lwm2m\connection.c **** {
 337:C:/Users/lenovo/Desktop/liteos/Project2/BearPi_LiteOS/components/connectivity/agent_tiny/atiny_lwm2m\connection.c ****     if(connP == NULL)
 338:C:/Users/lenovo/Desktop/liteos/Project2/BearPi_LiteOS/components/connectivity/agent_tiny/atiny_lwm2m\connection.c ****     {
 339:C:/Users/lenovo/Desktop/liteos/Project2/BearPi_LiteOS/components/connectivity/agent_tiny/atiny_lwm2m\connection.c ****         return;
 340:C:/Users/lenovo/Desktop/liteos/Project2/BearPi_LiteOS/components/connectivity/agent_tiny/atiny_lwm2m\connection.c ****     }
 341:C:/Users/lenovo/Desktop/liteos/Project2/BearPi_LiteOS/components/connectivity/agent_tiny/atiny_lwm2m\connection.c **** #ifdef WITH_DTLS
 342:C:/Users/lenovo/Desktop/liteos/Project2/BearPi_LiteOS/components/connectivity/agent_tiny/atiny_lwm2m\connection.c **** 
 343:C:/Users/lenovo/Desktop/liteos/Project2/BearPi_LiteOS/components/connectivity/agent_tiny/atiny_lwm2m\connection.c ****     if (connP->dtls_flag == true)
 344:C:/Users/lenovo/Desktop/liteos/Project2/BearPi_LiteOS/components/connectivity/agent_tiny/atiny_lwm2m\connection.c ****     {
 345:C:/Users/lenovo/Desktop/liteos/Project2/BearPi_LiteOS/components/connectivity/agent_tiny/atiny_lwm2m\connection.c ****         dtls_ssl_destroy(connP->net_context);
 346:C:/Users/lenovo/Desktop/liteos/Project2/BearPi_LiteOS/components/connectivity/agent_tiny/atiny_lwm2m\connection.c ****     }
 347:C:/Users/lenovo/Desktop/liteos/Project2/BearPi_LiteOS/components/connectivity/agent_tiny/atiny_lwm2m\connection.c ****     else
 348:C:/Users/lenovo/Desktop/liteos/Project2/BearPi_LiteOS/components/connectivity/agent_tiny/atiny_lwm2m\connection.c **** #endif
 349:C:/Users/lenovo/Desktop/liteos/Project2/BearPi_LiteOS/components/connectivity/agent_tiny/atiny_lwm2m\connection.c ****     {
 350:C:/Users/lenovo/Desktop/liteos/Project2/BearPi_LiteOS/components/connectivity/agent_tiny/atiny_lwm2m\connection.c ****         atiny_net_close(connP->net_context);
 351:C:/Users/lenovo/Desktop/liteos/Project2/BearPi_LiteOS/components/connectivity/agent_tiny/atiny_lwm2m\connection.c ****     }
 352:C:/Users/lenovo/Desktop/liteos/Project2/BearPi_LiteOS/components/connectivity/agent_tiny/atiny_lwm2m\connection.c **** 
 353:C:/Users/lenovo/Desktop/liteos/Project2/BearPi_LiteOS/components/connectivity/agent_tiny/atiny_lwm2m\connection.c ****     return;
 354:C:/Users/lenovo/Desktop/liteos/Project2/BearPi_LiteOS/components/connectivity/agent_tiny/atiny_lwm2m\connection.c **** }
 355:C:/Users/lenovo/Desktop/liteos/Project2/BearPi_LiteOS/components/connectivity/agent_tiny/atiny_lwm2m\connection.c **** 
 356:C:/Users/lenovo/Desktop/liteos/Project2/BearPi_LiteOS/components/connectivity/agent_tiny/atiny_lwm2m\connection.c **** 
 357:C:/Users/lenovo/Desktop/liteos/Project2/BearPi_LiteOS/components/connectivity/agent_tiny/atiny_lwm2m\connection.c **** void *lwm2m_connect_server(uint16_t secObjInstID, void *userData, bool isServer)
 358:C:/Users/lenovo/Desktop/liteos/Project2/BearPi_LiteOS/components/connectivity/agent_tiny/atiny_lwm2m\connection.c **** {
 359:C:/Users/lenovo/Desktop/liteos/Project2/BearPi_LiteOS/components/connectivity/agent_tiny/atiny_lwm2m\connection.c ****     client_data_t *dataP;
 360:C:/Users/lenovo/Desktop/liteos/Project2/BearPi_LiteOS/components/connectivity/agent_tiny/atiny_lwm2m\connection.c ****     lwm2m_list_t *instance;
 361:C:/Users/lenovo/Desktop/liteos/Project2/BearPi_LiteOS/components/connectivity/agent_tiny/atiny_lwm2m\connection.c ****     connection_t *newConnP = NULL;
 362:C:/Users/lenovo/Desktop/liteos/Project2/BearPi_LiteOS/components/connectivity/agent_tiny/atiny_lwm2m\connection.c ****     lwm2m_object_t   *securityObj;
 363:C:/Users/lenovo/Desktop/liteos/Project2/BearPi_LiteOS/components/connectivity/agent_tiny/atiny_lwm2m\connection.c **** 
 364:C:/Users/lenovo/Desktop/liteos/Project2/BearPi_LiteOS/components/connectivity/agent_tiny/atiny_lwm2m\connection.c ****     dataP = (client_data_t *)userData;
 365:C:/Users/lenovo/Desktop/liteos/Project2/BearPi_LiteOS/components/connectivity/agent_tiny/atiny_lwm2m\connection.c ****     securityObj = dataP->securityObjP;
 366:C:/Users/lenovo/Desktop/liteos/Project2/BearPi_LiteOS/components/connectivity/agent_tiny/atiny_lwm2m\connection.c **** 
 367:C:/Users/lenovo/Desktop/liteos/Project2/BearPi_LiteOS/components/connectivity/agent_tiny/atiny_lwm2m\connection.c ****     ATINY_LOG(LOG_INFO, "Now come into Connection creation in lwm2m_connect_server %d.\n", isServer
 368:C:/Users/lenovo/Desktop/liteos/Project2/BearPi_LiteOS/components/connectivity/agent_tiny/atiny_lwm2m\connection.c **** 
 369:C:/Users/lenovo/Desktop/liteos/Project2/BearPi_LiteOS/components/connectivity/agent_tiny/atiny_lwm2m\connection.c ****     instance = LWM2M_LIST_FIND(dataP->securityObjP->instanceList, secObjInstID);
 370:C:/Users/lenovo/Desktop/liteos/Project2/BearPi_LiteOS/components/connectivity/agent_tiny/atiny_lwm2m\connection.c **** 
 371:C:/Users/lenovo/Desktop/liteos/Project2/BearPi_LiteOS/components/connectivity/agent_tiny/atiny_lwm2m\connection.c ****     if (instance == NULL)
 372:C:/Users/lenovo/Desktop/liteos/Project2/BearPi_LiteOS/components/connectivity/agent_tiny/atiny_lwm2m\connection.c ****     {
 373:C:/Users/lenovo/Desktop/liteos/Project2/BearPi_LiteOS/components/connectivity/agent_tiny/atiny_lwm2m\connection.c ****         return NULL;
 374:C:/Users/lenovo/Desktop/liteos/Project2/BearPi_LiteOS/components/connectivity/agent_tiny/atiny_lwm2m\connection.c ****     }
ARM GAS  c:\Users\lenovo\AppData\Local\Temp\ccaOosBf.s 			page 8


 375:C:/Users/lenovo/Desktop/liteos/Project2/BearPi_LiteOS/components/connectivity/agent_tiny/atiny_lwm2m\connection.c **** 
 376:C:/Users/lenovo/Desktop/liteos/Project2/BearPi_LiteOS/components/connectivity/agent_tiny/atiny_lwm2m\connection.c ****     newConnP = connection_create(dataP->connList, securityObj, instance->id, dataP->lwm2mH,
 377:C:/Users/lenovo/Desktop/liteos/Project2/BearPi_LiteOS/components/connectivity/agent_tiny/atiny_lwm2m\connection.c ****                                 isServer ? LWM2M_IS_SERVER : LWM2M_IS_CLIENT);
 378:C:/Users/lenovo/Desktop/liteos/Project2/BearPi_LiteOS/components/connectivity/agent_tiny/atiny_lwm2m\connection.c **** 
 379:C:/Users/lenovo/Desktop/liteos/Project2/BearPi_LiteOS/components/connectivity/agent_tiny/atiny_lwm2m\connection.c ****     if (newConnP == NULL)
 380:C:/Users/lenovo/Desktop/liteos/Project2/BearPi_LiteOS/components/connectivity/agent_tiny/atiny_lwm2m\connection.c ****     {
 381:C:/Users/lenovo/Desktop/liteos/Project2/BearPi_LiteOS/components/connectivity/agent_tiny/atiny_lwm2m\connection.c ****         ATINY_LOG(LOG_INFO, "Connection creation failed.\n");
 382:C:/Users/lenovo/Desktop/liteos/Project2/BearPi_LiteOS/components/connectivity/agent_tiny/atiny_lwm2m\connection.c ****         return NULL;
 383:C:/Users/lenovo/Desktop/liteos/Project2/BearPi_LiteOS/components/connectivity/agent_tiny/atiny_lwm2m\connection.c ****     }
 384:C:/Users/lenovo/Desktop/liteos/Project2/BearPi_LiteOS/components/connectivity/agent_tiny/atiny_lwm2m\connection.c ****     ATINY_LOG(LOG_INFO, "Connection creation successfully in lwm2m_connect_server.\n");
 385:C:/Users/lenovo/Desktop/liteos/Project2/BearPi_LiteOS/components/connectivity/agent_tiny/atiny_lwm2m\connection.c ****     dataP->connList = newConnP;
 386:C:/Users/lenovo/Desktop/liteos/Project2/BearPi_LiteOS/components/connectivity/agent_tiny/atiny_lwm2m\connection.c **** 
 387:C:/Users/lenovo/Desktop/liteos/Project2/BearPi_LiteOS/components/connectivity/agent_tiny/atiny_lwm2m\connection.c ****     return (void *)newConnP;
 388:C:/Users/lenovo/Desktop/liteos/Project2/BearPi_LiteOS/components/connectivity/agent_tiny/atiny_lwm2m\connection.c **** }
 389:C:/Users/lenovo/Desktop/liteos/Project2/BearPi_LiteOS/components/connectivity/agent_tiny/atiny_lwm2m\connection.c **** 
 390:C:/Users/lenovo/Desktop/liteos/Project2/BearPi_LiteOS/components/connectivity/agent_tiny/atiny_lwm2m\connection.c **** void lwm2m_close_connection(void *sessionH, void *userData)
 391:C:/Users/lenovo/Desktop/liteos/Project2/BearPi_LiteOS/components/connectivity/agent_tiny/atiny_lwm2m\connection.c **** {
 392:C:/Users/lenovo/Desktop/liteos/Project2/BearPi_LiteOS/components/connectivity/agent_tiny/atiny_lwm2m\connection.c ****     client_data_t *app_data;
 393:C:/Users/lenovo/Desktop/liteos/Project2/BearPi_LiteOS/components/connectivity/agent_tiny/atiny_lwm2m\connection.c ****     connection_t *targetP;
 394:C:/Users/lenovo/Desktop/liteos/Project2/BearPi_LiteOS/components/connectivity/agent_tiny/atiny_lwm2m\connection.c **** 
 395:C:/Users/lenovo/Desktop/liteos/Project2/BearPi_LiteOS/components/connectivity/agent_tiny/atiny_lwm2m\connection.c ****     app_data = (client_data_t *)userData;
 396:C:/Users/lenovo/Desktop/liteos/Project2/BearPi_LiteOS/components/connectivity/agent_tiny/atiny_lwm2m\connection.c ****     targetP = (connection_t *)sessionH;
 397:C:/Users/lenovo/Desktop/liteos/Project2/BearPi_LiteOS/components/connectivity/agent_tiny/atiny_lwm2m\connection.c **** #ifdef LWM2M_BOOTSTRAP
 398:C:/Users/lenovo/Desktop/liteos/Project2/BearPi_LiteOS/components/connectivity/agent_tiny/atiny_lwm2m\connection.c ****     timer_stop(&targetP->server_triger_timer);
 399:C:/Users/lenovo/Desktop/liteos/Project2/BearPi_LiteOS/components/connectivity/agent_tiny/atiny_lwm2m\connection.c **** #endif
 400:C:/Users/lenovo/Desktop/liteos/Project2/BearPi_LiteOS/components/connectivity/agent_tiny/atiny_lwm2m\connection.c ****     if (targetP == app_data->connList)
 401:C:/Users/lenovo/Desktop/liteos/Project2/BearPi_LiteOS/components/connectivity/agent_tiny/atiny_lwm2m\connection.c ****     {
 402:C:/Users/lenovo/Desktop/liteos/Project2/BearPi_LiteOS/components/connectivity/agent_tiny/atiny_lwm2m\connection.c ****         app_data->connList = targetP->next;
 403:C:/Users/lenovo/Desktop/liteos/Project2/BearPi_LiteOS/components/connectivity/agent_tiny/atiny_lwm2m\connection.c ****         connection_free(targetP);
 404:C:/Users/lenovo/Desktop/liteos/Project2/BearPi_LiteOS/components/connectivity/agent_tiny/atiny_lwm2m\connection.c ****         lwm2m_free(targetP);
 405:C:/Users/lenovo/Desktop/liteos/Project2/BearPi_LiteOS/components/connectivity/agent_tiny/atiny_lwm2m\connection.c ****     }
 406:C:/Users/lenovo/Desktop/liteos/Project2/BearPi_LiteOS/components/connectivity/agent_tiny/atiny_lwm2m\connection.c ****     else
 407:C:/Users/lenovo/Desktop/liteos/Project2/BearPi_LiteOS/components/connectivity/agent_tiny/atiny_lwm2m\connection.c ****     {
 408:C:/Users/lenovo/Desktop/liteos/Project2/BearPi_LiteOS/components/connectivity/agent_tiny/atiny_lwm2m\connection.c ****         connection_t *parentP;
 409:C:/Users/lenovo/Desktop/liteos/Project2/BearPi_LiteOS/components/connectivity/agent_tiny/atiny_lwm2m\connection.c **** 
 410:C:/Users/lenovo/Desktop/liteos/Project2/BearPi_LiteOS/components/connectivity/agent_tiny/atiny_lwm2m\connection.c ****         parentP = app_data->connList;
 411:C:/Users/lenovo/Desktop/liteos/Project2/BearPi_LiteOS/components/connectivity/agent_tiny/atiny_lwm2m\connection.c **** 
 412:C:/Users/lenovo/Desktop/liteos/Project2/BearPi_LiteOS/components/connectivity/agent_tiny/atiny_lwm2m\connection.c ****         while (parentP != NULL && parentP->next != targetP)
 413:C:/Users/lenovo/Desktop/liteos/Project2/BearPi_LiteOS/components/connectivity/agent_tiny/atiny_lwm2m\connection.c ****         {
 414:C:/Users/lenovo/Desktop/liteos/Project2/BearPi_LiteOS/components/connectivity/agent_tiny/atiny_lwm2m\connection.c ****             parentP = parentP->next;
 415:C:/Users/lenovo/Desktop/liteos/Project2/BearPi_LiteOS/components/connectivity/agent_tiny/atiny_lwm2m\connection.c ****         }
 416:C:/Users/lenovo/Desktop/liteos/Project2/BearPi_LiteOS/components/connectivity/agent_tiny/atiny_lwm2m\connection.c **** 
 417:C:/Users/lenovo/Desktop/liteos/Project2/BearPi_LiteOS/components/connectivity/agent_tiny/atiny_lwm2m\connection.c ****         if (parentP != NULL)
 418:C:/Users/lenovo/Desktop/liteos/Project2/BearPi_LiteOS/components/connectivity/agent_tiny/atiny_lwm2m\connection.c ****         {
 419:C:/Users/lenovo/Desktop/liteos/Project2/BearPi_LiteOS/components/connectivity/agent_tiny/atiny_lwm2m\connection.c ****             parentP->next = targetP->next;
 420:C:/Users/lenovo/Desktop/liteos/Project2/BearPi_LiteOS/components/connectivity/agent_tiny/atiny_lwm2m\connection.c ****             connection_free(targetP);
 421:C:/Users/lenovo/Desktop/liteos/Project2/BearPi_LiteOS/components/connectivity/agent_tiny/atiny_lwm2m\connection.c ****             lwm2m_free(targetP);
 422:C:/Users/lenovo/Desktop/liteos/Project2/BearPi_LiteOS/components/connectivity/agent_tiny/atiny_lwm2m\connection.c ****         }
 423:C:/Users/lenovo/Desktop/liteos/Project2/BearPi_LiteOS/components/connectivity/agent_tiny/atiny_lwm2m\connection.c ****     }
 424:C:/Users/lenovo/Desktop/liteos/Project2/BearPi_LiteOS/components/connectivity/agent_tiny/atiny_lwm2m\connection.c **** 
 425:C:/Users/lenovo/Desktop/liteos/Project2/BearPi_LiteOS/components/connectivity/agent_tiny/atiny_lwm2m\connection.c ****     return;
 426:C:/Users/lenovo/Desktop/liteos/Project2/BearPi_LiteOS/components/connectivity/agent_tiny/atiny_lwm2m\connection.c **** }
 427:C:/Users/lenovo/Desktop/liteos/Project2/BearPi_LiteOS/components/connectivity/agent_tiny/atiny_lwm2m\connection.c **** 
 428:C:/Users/lenovo/Desktop/liteos/Project2/BearPi_LiteOS/components/connectivity/agent_tiny/atiny_lwm2m\connection.c **** 
 429:C:/Users/lenovo/Desktop/liteos/Project2/BearPi_LiteOS/components/connectivity/agent_tiny/atiny_lwm2m\connection.c **** int lwm2m_buffer_recv(void *sessionH, uint8_t *buffer, size_t length, uint32_t timeout)
 430:C:/Users/lenovo/Desktop/liteos/Project2/BearPi_LiteOS/components/connectivity/agent_tiny/atiny_lwm2m\connection.c **** {
 431:C:/Users/lenovo/Desktop/liteos/Project2/BearPi_LiteOS/components/connectivity/agent_tiny/atiny_lwm2m\connection.c ****     connection_t *connP = (connection_t *) sessionH;
ARM GAS  c:\Users\lenovo\AppData\Local\Temp\ccaOosBf.s 			page 9


 432:C:/Users/lenovo/Desktop/liteos/Project2/BearPi_LiteOS/components/connectivity/agent_tiny/atiny_lwm2m\connection.c ****     int ret = -1;
 433:C:/Users/lenovo/Desktop/liteos/Project2/BearPi_LiteOS/components/connectivity/agent_tiny/atiny_lwm2m\connection.c ****     const int TIME_OUT = -2;
 434:C:/Users/lenovo/Desktop/liteos/Project2/BearPi_LiteOS/components/connectivity/agent_tiny/atiny_lwm2m\connection.c **** 
 435:C:/Users/lenovo/Desktop/liteos/Project2/BearPi_LiteOS/components/connectivity/agent_tiny/atiny_lwm2m\connection.c ****     timeout *= 1000;
 436:C:/Users/lenovo/Desktop/liteos/Project2/BearPi_LiteOS/components/connectivity/agent_tiny/atiny_lwm2m\connection.c **** #ifdef WITH_DTLS
 437:C:/Users/lenovo/Desktop/liteos/Project2/BearPi_LiteOS/components/connectivity/agent_tiny/atiny_lwm2m\connection.c **** 
 438:C:/Users/lenovo/Desktop/liteos/Project2/BearPi_LiteOS/components/connectivity/agent_tiny/atiny_lwm2m\connection.c ****     if (connP->dtls_flag == true)
 439:C:/Users/lenovo/Desktop/liteos/Project2/BearPi_LiteOS/components/connectivity/agent_tiny/atiny_lwm2m\connection.c ****     {
 440:C:/Users/lenovo/Desktop/liteos/Project2/BearPi_LiteOS/components/connectivity/agent_tiny/atiny_lwm2m\connection.c ****         // security
 441:C:/Users/lenovo/Desktop/liteos/Project2/BearPi_LiteOS/components/connectivity/agent_tiny/atiny_lwm2m\connection.c ****         ret = dtls_read(connP->net_context, buffer, length, timeout);
 442:C:/Users/lenovo/Desktop/liteos/Project2/BearPi_LiteOS/components/connectivity/agent_tiny/atiny_lwm2m\connection.c ****     }
 443:C:/Users/lenovo/Desktop/liteos/Project2/BearPi_LiteOS/components/connectivity/agent_tiny/atiny_lwm2m\connection.c ****     else
 444:C:/Users/lenovo/Desktop/liteos/Project2/BearPi_LiteOS/components/connectivity/agent_tiny/atiny_lwm2m\connection.c **** #endif
 445:C:/Users/lenovo/Desktop/liteos/Project2/BearPi_LiteOS/components/connectivity/agent_tiny/atiny_lwm2m\connection.c ****     {
 446:C:/Users/lenovo/Desktop/liteos/Project2/BearPi_LiteOS/components/connectivity/agent_tiny/atiny_lwm2m\connection.c ****         ret = atiny_net_recv_timeout(connP->net_context, buffer, length, timeout);
 447:C:/Users/lenovo/Desktop/liteos/Project2/BearPi_LiteOS/components/connectivity/agent_tiny/atiny_lwm2m\connection.c ****     }
 448:C:/Users/lenovo/Desktop/liteos/Project2/BearPi_LiteOS/components/connectivity/agent_tiny/atiny_lwm2m\connection.c **** 
 449:C:/Users/lenovo/Desktop/liteos/Project2/BearPi_LiteOS/components/connectivity/agent_tiny/atiny_lwm2m\connection.c ****     if((ret < 0) && (ret != TIME_OUT))
 450:C:/Users/lenovo/Desktop/liteos/Project2/BearPi_LiteOS/components/connectivity/agent_tiny/atiny_lwm2m\connection.c ****     {
 451:C:/Users/lenovo/Desktop/liteos/Project2/BearPi_LiteOS/components/connectivity/agent_tiny/atiny_lwm2m\connection.c ****         inc_connection_stat(connP, CONNECTION_RECV_ERR);
 452:C:/Users/lenovo/Desktop/liteos/Project2/BearPi_LiteOS/components/connectivity/agent_tiny/atiny_lwm2m\connection.c ****     }
 453:C:/Users/lenovo/Desktop/liteos/Project2/BearPi_LiteOS/components/connectivity/agent_tiny/atiny_lwm2m\connection.c ****     else
 454:C:/Users/lenovo/Desktop/liteos/Project2/BearPi_LiteOS/components/connectivity/agent_tiny/atiny_lwm2m\connection.c ****     {
 455:C:/Users/lenovo/Desktop/liteos/Project2/BearPi_LiteOS/components/connectivity/agent_tiny/atiny_lwm2m\connection.c ****         connP->errs[CONNECTION_RECV_ERR] = 0;
 456:C:/Users/lenovo/Desktop/liteos/Project2/BearPi_LiteOS/components/connectivity/agent_tiny/atiny_lwm2m\connection.c ****     }
 457:C:/Users/lenovo/Desktop/liteos/Project2/BearPi_LiteOS/components/connectivity/agent_tiny/atiny_lwm2m\connection.c ****     return ret;
 458:C:/Users/lenovo/Desktop/liteos/Project2/BearPi_LiteOS/components/connectivity/agent_tiny/atiny_lwm2m\connection.c **** }
 459:C:/Users/lenovo/Desktop/liteos/Project2/BearPi_LiteOS/components/connectivity/agent_tiny/atiny_lwm2m\connection.c **** 
 460:C:/Users/lenovo/Desktop/liteos/Project2/BearPi_LiteOS/components/connectivity/agent_tiny/atiny_lwm2m\connection.c **** static bool connection_is_valid(void *user_data, void *session)
 461:C:/Users/lenovo/Desktop/liteos/Project2/BearPi_LiteOS/components/connectivity/agent_tiny/atiny_lwm2m\connection.c **** {
  27              		.loc 1 461 0
  28              		.cfi_startproc
  29              		@ args = 0, pretend = 0, frame = 0
  30              		@ frame_needed = 0, uses_anonymous_args = 0
  31              		@ link register save eliminated.
  32              	.LVL0:
 462:C:/Users/lenovo/Desktop/liteos/Project2/BearPi_LiteOS/components/connectivity/agent_tiny/atiny_lwm2m\connection.c ****     client_data_t *data = (client_data_t *)user_data;
 463:C:/Users/lenovo/Desktop/liteos/Project2/BearPi_LiteOS/components/connectivity/agent_tiny/atiny_lwm2m\connection.c ****     connection_t *conn;
 464:C:/Users/lenovo/Desktop/liteos/Project2/BearPi_LiteOS/components/connectivity/agent_tiny/atiny_lwm2m\connection.c ****     if (data == NULL || data->connList == NULL)
  33              		.loc 1 464 0
  34 0000 40B1     		cbz	r0, .L5
  35              		.loc 1 464 0 is_stmt 0 discriminator 1
  36 0002 8368     		ldr	r3, [r0, #8]
  37 0004 43B1     		cbz	r3, .L8
  38              	.L3:
  39              	.LVL1:
 465:C:/Users/lenovo/Desktop/liteos/Project2/BearPi_LiteOS/components/connectivity/agent_tiny/atiny_lwm2m\connection.c ****     {
 466:C:/Users/lenovo/Desktop/liteos/Project2/BearPi_LiteOS/components/connectivity/agent_tiny/atiny_lwm2m\connection.c ****         return false;
 467:C:/Users/lenovo/Desktop/liteos/Project2/BearPi_LiteOS/components/connectivity/agent_tiny/atiny_lwm2m\connection.c ****     }
 468:C:/Users/lenovo/Desktop/liteos/Project2/BearPi_LiteOS/components/connectivity/agent_tiny/atiny_lwm2m\connection.c **** 
 469:C:/Users/lenovo/Desktop/liteos/Project2/BearPi_LiteOS/components/connectivity/agent_tiny/atiny_lwm2m\connection.c ****     conn = data->connList;
 470:C:/Users/lenovo/Desktop/liteos/Project2/BearPi_LiteOS/components/connectivity/agent_tiny/atiny_lwm2m\connection.c ****     while(conn != NULL)
  40              		.loc 1 470 0 is_stmt 1
  41 0006 1BB1     		cbz	r3, .L9
 471:C:/Users/lenovo/Desktop/liteos/Project2/BearPi_LiteOS/components/connectivity/agent_tiny/atiny_lwm2m\connection.c ****     {
 472:C:/Users/lenovo/Desktop/liteos/Project2/BearPi_LiteOS/components/connectivity/agent_tiny/atiny_lwm2m\connection.c ****         if (conn == session)
  42              		.loc 1 472 0
ARM GAS  c:\Users\lenovo\AppData\Local\Temp\ccaOosBf.s 			page 10


  43 0008 8B42     		cmp	r3, r1
  44 000a 07D0     		beq	.L7
 473:C:/Users/lenovo/Desktop/liteos/Project2/BearPi_LiteOS/components/connectivity/agent_tiny/atiny_lwm2m\connection.c ****         {
 474:C:/Users/lenovo/Desktop/liteos/Project2/BearPi_LiteOS/components/connectivity/agent_tiny/atiny_lwm2m\connection.c ****             return true;
 475:C:/Users/lenovo/Desktop/liteos/Project2/BearPi_LiteOS/components/connectivity/agent_tiny/atiny_lwm2m\connection.c ****         }
 476:C:/Users/lenovo/Desktop/liteos/Project2/BearPi_LiteOS/components/connectivity/agent_tiny/atiny_lwm2m\connection.c ****         conn = conn->next;
  45              		.loc 1 476 0
  46 000c 1B68     		ldr	r3, [r3]
  47              	.LVL2:
  48 000e FAE7     		b	.L3
  49              	.L9:
 477:C:/Users/lenovo/Desktop/liteos/Project2/BearPi_LiteOS/components/connectivity/agent_tiny/atiny_lwm2m\connection.c ****     }
 478:C:/Users/lenovo/Desktop/liteos/Project2/BearPi_LiteOS/components/connectivity/agent_tiny/atiny_lwm2m\connection.c **** 
 479:C:/Users/lenovo/Desktop/liteos/Project2/BearPi_LiteOS/components/connectivity/agent_tiny/atiny_lwm2m\connection.c ****     return false;
  50              		.loc 1 479 0
  51 0010 0020     		movs	r0, #0
  52              	.LVL3:
  53 0012 7047     		bx	lr
  54              	.LVL4:
  55              	.L5:
 466:C:/Users/lenovo/Desktop/liteos/Project2/BearPi_LiteOS/components/connectivity/agent_tiny/atiny_lwm2m\connection.c ****     }
  56              		.loc 1 466 0
  57 0014 0020     		movs	r0, #0
  58              	.LVL5:
  59 0016 7047     		bx	lr
  60              	.LVL6:
  61              	.L8:
  62 0018 0020     		movs	r0, #0
  63              	.LVL7:
  64 001a 7047     		bx	lr
  65              	.LVL8:
  66              	.L7:
 474:C:/Users/lenovo/Desktop/liteos/Project2/BearPi_LiteOS/components/connectivity/agent_tiny/atiny_lwm2m\connection.c ****         }
  67              		.loc 1 474 0
  68 001c 0120     		movs	r0, #1
  69              	.LVL9:
 480:C:/Users/lenovo/Desktop/liteos/Project2/BearPi_LiteOS/components/connectivity/agent_tiny/atiny_lwm2m\connection.c **** }
  70              		.loc 1 480 0
  71 001e 7047     		bx	lr
  72              		.cfi_endproc
  73              	.LFE149:
  75              		.section	.text.connection_parse_host_ip,"ax",%progbits
  76              		.align	1
  77              		.global	connection_parse_host_ip
  78              		.syntax unified
  79              		.thumb
  80              		.thumb_func
  81              		.fpu fpv4-sp-d16
  83              	connection_parse_host_ip:
  84              	.LFB143:
  87:C:/Users/lenovo/Desktop/liteos/Project2/BearPi_LiteOS/components/connectivity/agent_tiny/atiny_lwm2m\connection.c ****     char *host;
  85              		.loc 1 87 0
  86              		.cfi_startproc
  87              		@ args = 0, pretend = 0, frame = 0
  88              		@ frame_needed = 0, uses_anonymous_args = 0
  89              	.LVL10:
  90 0000 F0B5     		push	{r4, r5, r6, r7, lr}
ARM GAS  c:\Users\lenovo\AppData\Local\Temp\ccaOosBf.s 			page 11


  91              	.LCFI0:
  92              		.cfi_def_cfa_offset 20
  93              		.cfi_offset 4, -20
  94              		.cfi_offset 5, -16
  95              		.cfi_offset 6, -12
  96              		.cfi_offset 7, -8
  97              		.cfi_offset 14, -4
  98 0002 83B0     		sub	sp, sp, #12
  99              	.LCFI1:
 100              		.cfi_def_cfa_offset 32
  91:C:/Users/lenovo/Desktop/liteos/Project2/BearPi_LiteOS/components/connectivity/agent_tiny/atiny_lwm2m\connection.c ****     {
 101              		.loc 1 91 0
 102 0004 D8B1     		cbz	r0, .L23
 103 0006 0F46     		mov	r7, r1
 104 0008 1646     		mov	r6, r2
 105 000a 0446     		mov	r4, r0
 101:C:/Users/lenovo/Desktop/liteos/Project2/BearPi_LiteOS/components/connectivity/agent_tiny/atiny_lwm2m\connection.c ****     {
 106              		.loc 1 101 0
 107 000c 0822     		movs	r2, #8
 108              	.LVL11:
 109 000e 3649     		ldr	r1, .L28
 110              	.LVL12:
 111 0010 FFF7FEFF 		bl	strncmp
 112              	.LVL13:
 113 0014 48BB     		cbnz	r0, .L13
 103:C:/Users/lenovo/Desktop/liteos/Project2/BearPi_LiteOS/components/connectivity/agent_tiny/atiny_lwm2m\connection.c ****         defaultport = COAPS_PORT;
 114              		.loc 1 103 0
 115 0016 0834     		adds	r4, r4, #8
 116              	.LVL14:
 104:C:/Users/lenovo/Desktop/liteos/Project2/BearPi_LiteOS/components/connectivity/agent_tiny/atiny_lwm2m\connection.c ****     }
 117              		.loc 1 104 0
 118 0018 344D     		ldr	r5, .L28+4
 119              	.LVL15:
 120              	.L14:
 117:C:/Users/lenovo/Desktop/liteos/Project2/BearPi_LiteOS/components/connectivity/agent_tiny/atiny_lwm2m\connection.c ****     if (port == NULL)
 121              		.loc 1 117 0
 122 001a 3A21     		movs	r1, #58
 123 001c 2046     		mov	r0, r4
 124 001e FFF7FEFF 		bl	strrchr
 125              	.LVL16:
 118:C:/Users/lenovo/Desktop/liteos/Project2/BearPi_LiteOS/components/connectivity/agent_tiny/atiny_lwm2m\connection.c ****     {
 126              		.loc 1 118 0
 127 0022 0346     		mov	r3, r0
 128 0024 30B1     		cbz	r0, .L16
 125:C:/Users/lenovo/Desktop/liteos/Project2/BearPi_LiteOS/components/connectivity/agent_tiny/atiny_lwm2m\connection.c ****         {
 129              		.loc 1 125 0
 130 0026 2278     		ldrb	r2, [r4]	@ zero_extendqisi2
 131 0028 5B2A     		cmp	r2, #91
 132 002a 3DD0     		beq	.L24
 133              	.L17:
 141:C:/Users/lenovo/Desktop/liteos/Project2/BearPi_LiteOS/components/connectivity/agent_tiny/atiny_lwm2m\connection.c ****         port++;
 134              		.loc 1 141 0
 135 002c 1D46     		mov	r5, r3
 136              	.LVL17:
 137 002e 0023     		movs	r3, #0
 138 0030 05F8013B 		strb	r3, [r5], #1
 139              	.LVL18:
ARM GAS  c:\Users\lenovo\AppData\Local\Temp\ccaOosBf.s 			page 12


 140              	.L16:
 145:C:/Users/lenovo/Desktop/liteos/Project2/BearPi_LiteOS/components/connectivity/agent_tiny/atiny_lwm2m\connection.c ****     *parsed_port = port;
 141              		.loc 1 145 0
 142 0034 3C60     		str	r4, [r7]
 146:C:/Users/lenovo/Desktop/liteos/Project2/BearPi_LiteOS/components/connectivity/agent_tiny/atiny_lwm2m\connection.c **** 
 143              		.loc 1 146 0
 144 0036 3560     		str	r5, [r6]
 148:C:/Users/lenovo/Desktop/liteos/Project2/BearPi_LiteOS/components/connectivity/agent_tiny/atiny_lwm2m\connection.c **** }
 145              		.loc 1 148 0
 146 0038 0020     		movs	r0, #0
 147              	.LVL19:
 148              	.L10:
 149:C:/Users/lenovo/Desktop/liteos/Project2/BearPi_LiteOS/components/connectivity/agent_tiny/atiny_lwm2m\connection.c **** 
 149              		.loc 1 149 0
 150 003a 03B0     		add	sp, sp, #12
 151              	.LCFI2:
 152              		.cfi_remember_state
 153              		.cfi_def_cfa_offset 20
 154              		@ sp needed
 155 003c F0BD     		pop	{r4, r5, r6, r7, pc}
 156              	.LVL20:
 157              	.L23:
 158              	.LCFI3:
 159              		.cfi_restore_state
  93:C:/Users/lenovo/Desktop/liteos/Project2/BearPi_LiteOS/components/connectivity/agent_tiny/atiny_lwm2m\connection.c ****         return COAP_500_INTERNAL_SERVER_ERROR;
 160              		.loc 1 93 0
 161 003e FFF7FEFF 		bl	atiny_get_log_level
 162              	.LVL21:
 163 0042 0128     		cmp	r0, #1
 164 0044 01D9     		bls	.L25
  94:C:/Users/lenovo/Desktop/liteos/Project2/BearPi_LiteOS/components/connectivity/agent_tiny/atiny_lwm2m\connection.c ****     }
 165              		.loc 1 94 0
 166 0046 A020     		movs	r0, #160
 167 0048 F7E7     		b	.L10
 168              	.L25:
  93:C:/Users/lenovo/Desktop/liteos/Project2/BearPi_LiteOS/components/connectivity/agent_tiny/atiny_lwm2m\connection.c ****         return COAP_500_INTERNAL_SERVER_ERROR;
 169              		.loc 1 93 0 discriminator 1
 170 004a 0120     		movs	r0, #1
 171 004c FFF7FEFF 		bl	atiny_get_log_level_name
 172              	.LVL22:
 173 0050 0446     		mov	r4, r0
 174 0052 FFF7FEFF 		bl	atiny_gettime_ms
 175              	.LVL23:
 176 0056 5D23     		movs	r3, #93
 177 0058 0093     		str	r3, [sp]
 178 005a 254B     		ldr	r3, .L28+8
 179 005c 0246     		mov	r2, r0
 180 005e 2146     		mov	r1, r4
 181 0060 2448     		ldr	r0, .L28+12
 182 0062 FFF7FEFF 		bl	atiny_printf
 183              	.LVL24:
  94:C:/Users/lenovo/Desktop/liteos/Project2/BearPi_LiteOS/components/connectivity/agent_tiny/atiny_lwm2m\connection.c ****     }
 184              		.loc 1 94 0 discriminator 1
 185 0066 A020     		movs	r0, #160
 186 0068 E7E7     		b	.L10
 187              	.LVL25:
 188              	.L13:
ARM GAS  c:\Users\lenovo\AppData\Local\Temp\ccaOosBf.s 			page 13


 106:C:/Users/lenovo/Desktop/liteos/Project2/BearPi_LiteOS/components/connectivity/agent_tiny/atiny_lwm2m\connection.c ****     {
 189              		.loc 1 106 0
 190 006a 0722     		movs	r2, #7
 191 006c 2249     		ldr	r1, .L28+16
 192 006e 2046     		mov	r0, r4
 193 0070 FFF7FEFF 		bl	strncmp
 194              	.LVL26:
 195 0074 10B9     		cbnz	r0, .L15
 108:C:/Users/lenovo/Desktop/liteos/Project2/BearPi_LiteOS/components/connectivity/agent_tiny/atiny_lwm2m\connection.c ****         defaultport = COAP_PORT;
 196              		.loc 1 108 0
 197 0076 0734     		adds	r4, r4, #7
 198              	.LVL27:
 109:C:/Users/lenovo/Desktop/liteos/Project2/BearPi_LiteOS/components/connectivity/agent_tiny/atiny_lwm2m\connection.c ****     }
 199              		.loc 1 109 0
 200 0078 204D     		ldr	r5, .L28+20
 201 007a CEE7     		b	.L14
 202              	.LVL28:
 203              	.L15:
 113:C:/Users/lenovo/Desktop/liteos/Project2/BearPi_LiteOS/components/connectivity/agent_tiny/atiny_lwm2m\connection.c ****         return COAP_500_INTERNAL_SERVER_ERROR;
 204              		.loc 1 113 0
 205 007c FFF7FEFF 		bl	atiny_get_log_level
 206              	.LVL29:
 207 0080 0128     		cmp	r0, #1
 208 0082 01D9     		bls	.L26
 114:C:/Users/lenovo/Desktop/liteos/Project2/BearPi_LiteOS/components/connectivity/agent_tiny/atiny_lwm2m\connection.c ****     }
 209              		.loc 1 114 0
 210 0084 A020     		movs	r0, #160
 211 0086 D8E7     		b	.L10
 212              	.L26:
 113:C:/Users/lenovo/Desktop/liteos/Project2/BearPi_LiteOS/components/connectivity/agent_tiny/atiny_lwm2m\connection.c ****         return COAP_500_INTERNAL_SERVER_ERROR;
 213              		.loc 1 113 0 discriminator 1
 214 0088 0120     		movs	r0, #1
 215 008a FFF7FEFF 		bl	atiny_get_log_level_name
 216              	.LVL30:
 217 008e 0446     		mov	r4, r0
 218              	.LVL31:
 219 0090 FFF7FEFF 		bl	atiny_gettime_ms
 220              	.LVL32:
 221 0094 7123     		movs	r3, #113
 222 0096 0093     		str	r3, [sp]
 223 0098 154B     		ldr	r3, .L28+8
 224 009a 0246     		mov	r2, r0
 225 009c 2146     		mov	r1, r4
 226 009e 1848     		ldr	r0, .L28+24
 227 00a0 FFF7FEFF 		bl	atiny_printf
 228              	.LVL33:
 114:C:/Users/lenovo/Desktop/liteos/Project2/BearPi_LiteOS/components/connectivity/agent_tiny/atiny_lwm2m\connection.c ****     }
 229              		.loc 1 114 0 discriminator 1
 230 00a4 A020     		movs	r0, #160
 231 00a6 C8E7     		b	.L10
 232              	.LVL34:
 233              	.L24:
 127:C:/Users/lenovo/Desktop/liteos/Project2/BearPi_LiteOS/components/connectivity/agent_tiny/atiny_lwm2m\connection.c **** 
 234              		.loc 1 127 0
 235 00a8 0134     		adds	r4, r4, #1
 236              	.LVL35:
 129:C:/Users/lenovo/Desktop/liteos/Project2/BearPi_LiteOS/components/connectivity/agent_tiny/atiny_lwm2m\connection.c ****             {
ARM GAS  c:\Users\lenovo\AppData\Local\Temp\ccaOosBf.s 			page 14


 237              		.loc 1 129 0
 238 00aa 10F8012C 		ldrb	r2, [r0, #-1]	@ zero_extendqisi2
 239 00ae 5D2A     		cmp	r2, #93
 240 00b0 03D1     		bne	.L18
 131:C:/Users/lenovo/Desktop/liteos/Project2/BearPi_LiteOS/components/connectivity/agent_tiny/atiny_lwm2m\connection.c ****             }
 241              		.loc 1 131 0
 242 00b2 0022     		movs	r2, #0
 243 00b4 00F8012C 		strb	r2, [r0, #-1]
 244 00b8 B8E7     		b	.L17
 245              	.L18:
 135:C:/Users/lenovo/Desktop/liteos/Project2/BearPi_LiteOS/components/connectivity/agent_tiny/atiny_lwm2m\connection.c ****                 return COAP_500_INTERNAL_SERVER_ERROR;
 246              		.loc 1 135 0
 247 00ba FFF7FEFF 		bl	atiny_get_log_level
 248              	.LVL36:
 249 00be 0128     		cmp	r0, #1
 250 00c0 01D9     		bls	.L27
 136:C:/Users/lenovo/Desktop/liteos/Project2/BearPi_LiteOS/components/connectivity/agent_tiny/atiny_lwm2m\connection.c ****             }
 251              		.loc 1 136 0
 252 00c2 A020     		movs	r0, #160
 253 00c4 B9E7     		b	.L10
 254              	.L27:
 135:C:/Users/lenovo/Desktop/liteos/Project2/BearPi_LiteOS/components/connectivity/agent_tiny/atiny_lwm2m\connection.c ****                 return COAP_500_INTERNAL_SERVER_ERROR;
 255              		.loc 1 135 0 discriminator 1
 256 00c6 0120     		movs	r0, #1
 257 00c8 FFF7FEFF 		bl	atiny_get_log_level_name
 258              	.LVL37:
 259 00cc 0446     		mov	r4, r0
 260              	.LVL38:
 261 00ce FFF7FEFF 		bl	atiny_gettime_ms
 262              	.LVL39:
 263 00d2 8723     		movs	r3, #135
 264 00d4 0093     		str	r3, [sp]
 265 00d6 064B     		ldr	r3, .L28+8
 266 00d8 0246     		mov	r2, r0
 267 00da 2146     		mov	r1, r4
 268 00dc 0948     		ldr	r0, .L28+28
 269 00de FFF7FEFF 		bl	atiny_printf
 270              	.LVL40:
 136:C:/Users/lenovo/Desktop/liteos/Project2/BearPi_LiteOS/components/connectivity/agent_tiny/atiny_lwm2m\connection.c ****             }
 271              		.loc 1 136 0 discriminator 1
 272 00e2 A020     		movs	r0, #160
 273 00e4 A9E7     		b	.L10
 274              	.L29:
 275 00e6 00BF     		.align	2
 276              	.L28:
 277 00e8 34000000 		.word	.LC3
 278 00ec 00000000 		.word	.LC0
 279 00f0 00000000 		.word	.LANCHOR0
 280 00f4 10000000 		.word	.LC2
 281 00f8 40000000 		.word	.LC4
 282 00fc 08000000 		.word	.LC1
 283 0100 48000000 		.word	.LC5
 284 0104 68000000 		.word	.LC6
 285              		.cfi_endproc
 286              	.LFE143:
 288              		.section	.text.connection_create,"ax",%progbits
 289              		.align	1
ARM GAS  c:\Users\lenovo\AppData\Local\Temp\ccaOosBf.s 			page 15


 290              		.global	connection_create
 291              		.syntax unified
 292              		.thumb
 293              		.thumb_func
 294              		.fpu fpv4-sp-d16
 296              	connection_create:
 297              	.LFB144:
 231:C:/Users/lenovo/Desktop/liteos/Project2/BearPi_LiteOS/components/connectivity/agent_tiny/atiny_lwm2m\connection.c ****     connection_t *connP = NULL;
 298              		.loc 1 231 0
 299              		.cfi_startproc
 300              		@ args = 4, pretend = 0, frame = 8
 301              		@ frame_needed = 0, uses_anonymous_args = 0
 302              	.LVL41:
 303 0000 2DE9F04F 		push	{r4, r5, r6, r7, r8, r9, r10, fp, lr}
 304              	.LCFI4:
 305              		.cfi_def_cfa_offset 36
 306              		.cfi_offset 4, -36
 307              		.cfi_offset 5, -32
 308              		.cfi_offset 6, -28
 309              		.cfi_offset 7, -24
 310              		.cfi_offset 8, -20
 311              		.cfi_offset 9, -16
 312              		.cfi_offset 10, -12
 313              		.cfi_offset 11, -8
 314              		.cfi_offset 14, -4
 315 0004 85B0     		sub	sp, sp, #20
 316              	.LCFI5:
 317              		.cfi_def_cfa_offset 56
 318 0006 8346     		mov	fp, r0
 319 0008 8946     		mov	r9, r1
 320 000a 9046     		mov	r8, r2
 321 000c 9A46     		mov	r10, r3
 322 000e 0E9F     		ldr	r7, [sp, #56]
 323              	.LVL42:
 239:C:/Users/lenovo/Desktop/liteos/Project2/BearPi_LiteOS/components/connectivity/agent_tiny/atiny_lwm2m\connection.c **** 
 324              		.loc 1 239 0
 325 0010 FFF7FEFF 		bl	atiny_get_log_level
 326              	.LVL43:
 327 0014 0128     		cmp	r0, #1
 328 0016 47D9     		bls	.L51
 329              	.L31:
 241:C:/Users/lenovo/Desktop/liteos/Project2/BearPi_LiteOS/components/connectivity/agent_tiny/atiny_lwm2m\connection.c ****     if (NULL == targetP || targetP->uri == NULL)
 330              		.loc 1 241 0
 331 0018 1FFA88F1 		uxth	r1, r8
 332 001c D9F80800 		ldr	r0, [r9, #8]
 333 0020 FFF7FEFF 		bl	lwm2m_list_find
 334              	.LVL44:
 242:C:/Users/lenovo/Desktop/liteos/Project2/BearPi_LiteOS/components/connectivity/agent_tiny/atiny_lwm2m\connection.c ****     {
 335              		.loc 1 242 0
 336 0024 0546     		mov	r5, r0
 337 0026 0028     		cmp	r0, #0
 338 0028 00F0AF80 		beq	.L43
 242:C:/Users/lenovo/Desktop/liteos/Project2/BearPi_LiteOS/components/connectivity/agent_tiny/atiny_lwm2m\connection.c ****     {
 339              		.loc 1 242 0 is_stmt 0 discriminator 1
 340 002c 8068     		ldr	r0, [r0, #8]
 341              	.LVL45:
 342 002e 0028     		cmp	r0, #0
ARM GAS  c:\Users\lenovo\AppData\Local\Temp\ccaOosBf.s 			page 16


 343 0030 00F0AD80 		beq	.L44
 248:C:/Users/lenovo/Desktop/liteos/Project2/BearPi_LiteOS/components/connectivity/agent_tiny/atiny_lwm2m\connection.c ****     {
 344              		.loc 1 248 0 is_stmt 1
 345 0034 002F     		cmp	r7, #0
 346 0036 46D0     		beq	.L52
 263:C:/Users/lenovo/Desktop/liteos/Project2/BearPi_LiteOS/components/connectivity/agent_tiny/atiny_lwm2m\connection.c ****         port = (char *)((targetP->securityMode != LWM2M_SECURITY_MODE_NONE) ? COAPS_PORT : COAP_POR
 347              		.loc 1 263 0
 348 0038 0023     		movs	r3, #0
 349 003a 0393     		str	r3, [sp, #12]
 264:C:/Users/lenovo/Desktop/liteos/Project2/BearPi_LiteOS/components/connectivity/agent_tiny/atiny_lwm2m\connection.c ****     }
 350              		.loc 1 264 0
 351 003c 6B7B     		ldrb	r3, [r5, #13]	@ zero_extendqisi2
 352 003e 032B     		cmp	r3, #3
 353 0040 66D0     		beq	.L47
 354 0042 544B     		ldr	r3, .L60
 355              	.L37:
 264:C:/Users/lenovo/Desktop/liteos/Project2/BearPi_LiteOS/components/connectivity/agent_tiny/atiny_lwm2m\connection.c ****     }
 356              		.loc 1 264 0 is_stmt 0 discriminator 4
 357 0044 0293     		str	r3, [sp, #8]
 236:C:/Users/lenovo/Desktop/liteos/Project2/BearPi_LiteOS/components/connectivity/agent_tiny/atiny_lwm2m\connection.c ****     connection_t * ret = NULL;
 358              		.loc 1 236 0 is_stmt 1 discriminator 4
 359 0046 0026     		movs	r6, #0
 360              	.LVL46:
 361              	.L36:
 267:C:/Users/lenovo/Desktop/liteos/Project2/BearPi_LiteOS/components/connectivity/agent_tiny/atiny_lwm2m\connection.c ****     if (connP == NULL)
 362              		.loc 1 267 0
 363 0048 1C20     		movs	r0, #28
 364 004a FFF7FEFF 		bl	lwm2m_malloc
 365              	.LVL47:
 268:C:/Users/lenovo/Desktop/liteos/Project2/BearPi_LiteOS/components/connectivity/agent_tiny/atiny_lwm2m\connection.c ****     {
 366              		.loc 1 268 0
 367 004e 0446     		mov	r4, r0
 368 0050 0028     		cmp	r0, #0
 369 0052 5FD0     		beq	.L53
 274:C:/Users/lenovo/Desktop/liteos/Project2/BearPi_LiteOS/components/connectivity/agent_tiny/atiny_lwm2m\connection.c **** 
 370              		.loc 1 274 0
 371 0054 0023     		movs	r3, #0
 372 0056 0360     		str	r3, [r0]	@ unaligned
 373 0058 4360     		str	r3, [r0, #4]	@ unaligned
 374 005a 8360     		str	r3, [r0, #8]	@ unaligned
 375 005c C360     		str	r3, [r0, #12]	@ unaligned
 376 005e 0361     		str	r3, [r0, #16]	@ unaligned
 377 0060 4361     		str	r3, [r0, #20]	@ unaligned
 378 0062 8361     		str	r3, [r0, #24]	@ unaligned
 289:C:/Users/lenovo/Desktop/liteos/Project2/BearPi_LiteOS/components/connectivity/agent_tiny/atiny_lwm2m\connection.c ****         {
 379              		.loc 1 289 0
 380 0064 002F     		cmp	r7, #0
 381 0066 6CD1     		bne	.L39
 291:C:/Users/lenovo/Desktop/liteos/Project2/BearPi_LiteOS/components/connectivity/agent_tiny/atiny_lwm2m\connection.c ****         }
 382              		.loc 1 291 0
 383 0068 0122     		movs	r2, #1
 384 006a 0299     		ldr	r1, [sp, #8]
 385 006c 0398     		ldr	r0, [sp, #12]
 386              	.LVL48:
 387 006e FFF7FEFF 		bl	atiny_net_connect
 388              	.LVL49:
 389 0072 6060     		str	r0, [r4, #4]
ARM GAS  c:\Users\lenovo\AppData\Local\Temp\ccaOosBf.s 			page 17


 390              	.L40:
 307:C:/Users/lenovo/Desktop/liteos/Project2/BearPi_LiteOS/components/connectivity/agent_tiny/atiny_lwm2m\connection.c ****         {
 391              		.loc 1 307 0
 392 0074 6368     		ldr	r3, [r4, #4]
 393 0076 002B     		cmp	r3, #0
 394 0078 6AD0     		beq	.L54
 312:C:/Users/lenovo/Desktop/liteos/Project2/BearPi_LiteOS/components/connectivity/agent_tiny/atiny_lwm2m\connection.c ****     }
 395              		.loc 1 312 0
 396 007a 0023     		movs	r3, #0
 397 007c 2382     		strh	r3, [r4, #16]	@ movhi
 315:C:/Users/lenovo/Desktop/liteos/Project2/BearPi_LiteOS/components/connectivity/agent_tiny/atiny_lwm2m\connection.c ****     connP->securityObj = securityObj;
 398              		.loc 1 315 0
 399 007e C4F800B0 		str	fp, [r4]
 316:C:/Users/lenovo/Desktop/liteos/Project2/BearPi_LiteOS/components/connectivity/agent_tiny/atiny_lwm2m\connection.c ****     connP->securityInstId = instanceId;
 400              		.loc 1 316 0
 401 0082 C4F80890 		str	r9, [r4, #8]
 317:C:/Users/lenovo/Desktop/liteos/Project2/BearPi_LiteOS/components/connectivity/agent_tiny/atiny_lwm2m\connection.c ****     connP->lwm2mH = lwm2mH;
 402              		.loc 1 317 0
 403 0086 C4F80C80 		str	r8, [r4, #12]
 318:C:/Users/lenovo/Desktop/liteos/Project2/BearPi_LiteOS/components/connectivity/agent_tiny/atiny_lwm2m\connection.c ****     connP->bootstrap_flag = targetP->isBootstrap;
 404              		.loc 1 318 0
 405 008a C4F814A0 		str	r10, [r4, #20]
 319:C:/Users/lenovo/Desktop/liteos/Project2/BearPi_LiteOS/components/connectivity/agent_tiny/atiny_lwm2m\connection.c **** 
 406              		.loc 1 319 0
 407 008e 2B7B     		ldrb	r3, [r5, #12]	@ zero_extendqisi2
 408 0090 6382     		strh	r3, [r4, #18]	@ movhi
 409              	.LVL50:
 321:C:/Users/lenovo/Desktop/liteos/Project2/BearPi_LiteOS/components/connectivity/agent_tiny/atiny_lwm2m\connection.c **** fail:
 410              		.loc 1 321 0
 411 0092 2546     		mov	r5, r4
 412              	.LVL51:
 413              	.L35:
 323:C:/Users/lenovo/Desktop/liteos/Project2/BearPi_LiteOS/components/connectivity/agent_tiny/atiny_lwm2m\connection.c ****     {
 414              		.loc 1 323 0
 415 0094 16B1     		cbz	r6, .L42
 325:C:/Users/lenovo/Desktop/liteos/Project2/BearPi_LiteOS/components/connectivity/agent_tiny/atiny_lwm2m\connection.c ****     }
 416              		.loc 1 325 0
 417 0096 3046     		mov	r0, r6
 418 0098 FFF7FEFF 		bl	lwm2m_free
 419              	.LVL52:
 420              	.L42:
 327:C:/Users/lenovo/Desktop/liteos/Project2/BearPi_LiteOS/components/connectivity/agent_tiny/atiny_lwm2m\connection.c ****     {
 421              		.loc 1 327 0
 422 009c 002D     		cmp	r5, #0
 423 009e 6ED0     		beq	.L55
 424              	.LVL53:
 425              	.L30:
 333:C:/Users/lenovo/Desktop/liteos/Project2/BearPi_LiteOS/components/connectivity/agent_tiny/atiny_lwm2m\connection.c **** 
 426              		.loc 1 333 0
 427 00a0 2846     		mov	r0, r5
 428 00a2 05B0     		add	sp, sp, #20
 429              	.LCFI6:
 430              		.cfi_remember_state
 431              		.cfi_def_cfa_offset 36
 432              		@ sp needed
 433 00a4 BDE8F08F 		pop	{r4, r5, r6, r7, r8, r9, r10, fp, pc}
 434              	.LVL54:
ARM GAS  c:\Users\lenovo\AppData\Local\Temp\ccaOosBf.s 			page 18


 435              	.L51:
 436              	.LCFI7:
 437              		.cfi_restore_state
 239:C:/Users/lenovo/Desktop/liteos/Project2/BearPi_LiteOS/components/connectivity/agent_tiny/atiny_lwm2m\connection.c **** 
 438              		.loc 1 239 0 discriminator 1
 439 00a8 0120     		movs	r0, #1
 440 00aa FFF7FEFF 		bl	atiny_get_log_level_name
 441              	.LVL55:
 442 00ae 0446     		mov	r4, r0
 443 00b0 FFF7FEFF 		bl	atiny_gettime_ms
 444              	.LVL56:
 445 00b4 EF23     		movs	r3, #239
 446 00b6 0093     		str	r3, [sp]
 447 00b8 374B     		ldr	r3, .L60+4
 448 00ba 0246     		mov	r2, r0
 449 00bc 2146     		mov	r1, r4
 450 00be 3748     		ldr	r0, .L60+8
 451 00c0 FFF7FEFF 		bl	atiny_printf
 452              	.LVL57:
 453 00c4 A8E7     		b	.L31
 454              	.LVL58:
 455              	.L52:
 250:C:/Users/lenovo/Desktop/liteos/Project2/BearPi_LiteOS/components/connectivity/agent_tiny/atiny_lwm2m\connection.c ****         if (uri == NULL)
 456              		.loc 1 250 0
 457 00c6 FFF7FEFF 		bl	atiny_strdup
 458              	.LVL59:
 251:C:/Users/lenovo/Desktop/liteos/Project2/BearPi_LiteOS/components/connectivity/agent_tiny/atiny_lwm2m\connection.c ****         {
 459              		.loc 1 251 0
 460 00ca 0646     		mov	r6, r0
 461 00cc 40B1     		cbz	r0, .L56
 256:C:/Users/lenovo/Desktop/liteos/Project2/BearPi_LiteOS/components/connectivity/agent_tiny/atiny_lwm2m\connection.c ****         {
 462              		.loc 1 256 0
 463 00ce 02AA     		add	r2, sp, #8
 464 00d0 03A9     		add	r1, sp, #12
 465 00d2 FFF7FEFF 		bl	connection_parse_host_ip
 466              	.LVL60:
 467 00d6 0028     		cmp	r0, #0
 468 00d8 B6D0     		beq	.L36
 237:C:/Users/lenovo/Desktop/liteos/Project2/BearPi_LiteOS/components/connectivity/agent_tiny/atiny_lwm2m\connection.c **** 
 469              		.loc 1 237 0
 470 00da 0025     		movs	r5, #0
 471              	.LVL61:
 232:C:/Users/lenovo/Desktop/liteos/Project2/BearPi_LiteOS/components/connectivity/agent_tiny/atiny_lwm2m\connection.c ****     char *host;
 472              		.loc 1 232 0
 473 00dc 2C46     		mov	r4, r5
 474 00de D9E7     		b	.L35
 475              	.LVL62:
 476              	.L56:
 253:C:/Users/lenovo/Desktop/liteos/Project2/BearPi_LiteOS/components/connectivity/agent_tiny/atiny_lwm2m\connection.c ****             goto fail;
 477              		.loc 1 253 0
 478 00e0 FFF7FEFF 		bl	atiny_get_log_level
 479              	.LVL63:
 480 00e4 0128     		cmp	r0, #1
 481 00e6 02D9     		bls	.L57
 237:C:/Users/lenovo/Desktop/liteos/Project2/BearPi_LiteOS/components/connectivity/agent_tiny/atiny_lwm2m\connection.c **** 
 482              		.loc 1 237 0
 483 00e8 0025     		movs	r5, #0
ARM GAS  c:\Users\lenovo\AppData\Local\Temp\ccaOosBf.s 			page 19


 484              	.LVL64:
 232:C:/Users/lenovo/Desktop/liteos/Project2/BearPi_LiteOS/components/connectivity/agent_tiny/atiny_lwm2m\connection.c ****     char *host;
 485              		.loc 1 232 0
 486 00ea 2C46     		mov	r4, r5
 487 00ec D2E7     		b	.L35
 488              	.LVL65:
 489              	.L57:
 253:C:/Users/lenovo/Desktop/liteos/Project2/BearPi_LiteOS/components/connectivity/agent_tiny/atiny_lwm2m\connection.c ****             goto fail;
 490              		.loc 1 253 0 discriminator 1
 491 00ee 0120     		movs	r0, #1
 492 00f0 FFF7FEFF 		bl	atiny_get_log_level_name
 493              	.LVL66:
 494 00f4 0446     		mov	r4, r0
 495 00f6 FFF7FEFF 		bl	atiny_gettime_ms
 496              	.LVL67:
 497 00fa FD23     		movs	r3, #253
 498 00fc 0093     		str	r3, [sp]
 499 00fe 264B     		ldr	r3, .L60+4
 500 0100 0246     		mov	r2, r0
 501 0102 2146     		mov	r1, r4
 502 0104 2648     		ldr	r0, .L60+12
 503 0106 FFF7FEFF 		bl	atiny_printf
 504              	.LVL68:
 237:C:/Users/lenovo/Desktop/liteos/Project2/BearPi_LiteOS/components/connectivity/agent_tiny/atiny_lwm2m\connection.c **** 
 505              		.loc 1 237 0 discriminator 1
 506 010a 0025     		movs	r5, #0
 507              	.LVL69:
 232:C:/Users/lenovo/Desktop/liteos/Project2/BearPi_LiteOS/components/connectivity/agent_tiny/atiny_lwm2m\connection.c ****     char *host;
 508              		.loc 1 232 0 discriminator 1
 509 010c 2C46     		mov	r4, r5
 510 010e C1E7     		b	.L35
 511              	.LVL70:
 512              	.L47:
 264:C:/Users/lenovo/Desktop/liteos/Project2/BearPi_LiteOS/components/connectivity/agent_tiny/atiny_lwm2m\connection.c ****     }
 513              		.loc 1 264 0
 514 0110 244B     		ldr	r3, .L60+16
 515 0112 97E7     		b	.L37
 516              	.LVL71:
 517              	.L53:
 270:C:/Users/lenovo/Desktop/liteos/Project2/BearPi_LiteOS/components/connectivity/agent_tiny/atiny_lwm2m\connection.c ****          goto fail;
 518              		.loc 1 270 0
 519 0114 FFF7FEFF 		bl	atiny_get_log_level
 520              	.LVL72:
 521 0118 0128     		cmp	r0, #1
 522 011a 01D9     		bls	.L58
 237:C:/Users/lenovo/Desktop/liteos/Project2/BearPi_LiteOS/components/connectivity/agent_tiny/atiny_lwm2m\connection.c **** 
 523              		.loc 1 237 0
 524 011c 2546     		mov	r5, r4
 525              	.LVL73:
 526 011e B9E7     		b	.L35
 527              	.LVL74:
 528              	.L58:
 270:C:/Users/lenovo/Desktop/liteos/Project2/BearPi_LiteOS/components/connectivity/agent_tiny/atiny_lwm2m\connection.c ****          goto fail;
 529              		.loc 1 270 0 discriminator 1
 530 0120 0120     		movs	r0, #1
 531 0122 FFF7FEFF 		bl	atiny_get_log_level_name
 532              	.LVL75:
ARM GAS  c:\Users\lenovo\AppData\Local\Temp\ccaOosBf.s 			page 20


 533 0126 0546     		mov	r5, r0
 534              	.LVL76:
 535 0128 FFF7FEFF 		bl	atiny_gettime_ms
 536              	.LVL77:
 537 012c 4FF48773 		mov	r3, #270
 538 0130 0093     		str	r3, [sp]
 539 0132 194B     		ldr	r3, .L60+4
 540 0134 0246     		mov	r2, r0
 541 0136 2946     		mov	r1, r5
 542 0138 1B48     		ldr	r0, .L60+20
 543 013a FFF7FEFF 		bl	atiny_printf
 544              	.LVL78:
 237:C:/Users/lenovo/Desktop/liteos/Project2/BearPi_LiteOS/components/connectivity/agent_tiny/atiny_lwm2m\connection.c **** 
 545              		.loc 1 237 0 discriminator 1
 546 013e 2546     		mov	r5, r4
 547 0140 A8E7     		b	.L35
 548              	.LVL79:
 549              	.L39:
 295:C:/Users/lenovo/Desktop/liteos/Project2/BearPi_LiteOS/components/connectivity/agent_tiny/atiny_lwm2m\connection.c **** 
 550              		.loc 1 295 0
 551 0142 0122     		movs	r2, #1
 552 0144 0299     		ldr	r1, [sp, #8]
 553 0146 0398     		ldr	r0, [sp, #12]
 554              	.LVL80:
 555 0148 FFF7FEFF 		bl	atiny_net_bind
 556              	.LVL81:
 557 014c 6060     		str	r0, [r4, #4]
 558 014e 91E7     		b	.L40
 559              	.L54:
 309:C:/Users/lenovo/Desktop/liteos/Project2/BearPi_LiteOS/components/connectivity/agent_tiny/atiny_lwm2m\connection.c ****             goto fail;
 560              		.loc 1 309 0
 561 0150 FFF7FEFF 		bl	atiny_get_log_level
 562              	.LVL82:
 563 0154 0128     		cmp	r0, #1
 564 0156 01D9     		bls	.L59
 237:C:/Users/lenovo/Desktop/liteos/Project2/BearPi_LiteOS/components/connectivity/agent_tiny/atiny_lwm2m\connection.c **** 
 565              		.loc 1 237 0
 566 0158 0025     		movs	r5, #0
 567              	.LVL83:
 568 015a 9BE7     		b	.L35
 569              	.LVL84:
 570              	.L59:
 309:C:/Users/lenovo/Desktop/liteos/Project2/BearPi_LiteOS/components/connectivity/agent_tiny/atiny_lwm2m\connection.c ****             goto fail;
 571              		.loc 1 309 0 discriminator 1
 572 015c 0120     		movs	r0, #1
 573 015e FFF7FEFF 		bl	atiny_get_log_level_name
 574              	.LVL85:
 575 0162 0546     		mov	r5, r0
 576              	.LVL86:
 577 0164 FFF7FEFF 		bl	atiny_gettime_ms
 578              	.LVL87:
 579 0168 40F23513 		movw	r3, #309
 580 016c 0093     		str	r3, [sp]
 581 016e 0A4B     		ldr	r3, .L60+4
 582 0170 0246     		mov	r2, r0
 583 0172 2946     		mov	r1, r5
 584 0174 0D48     		ldr	r0, .L60+24
ARM GAS  c:\Users\lenovo\AppData\Local\Temp\ccaOosBf.s 			page 21


 585 0176 FFF7FEFF 		bl	atiny_printf
 586              	.LVL88:
 237:C:/Users/lenovo/Desktop/liteos/Project2/BearPi_LiteOS/components/connectivity/agent_tiny/atiny_lwm2m\connection.c **** 
 587              		.loc 1 237 0 discriminator 1
 588 017a 0025     		movs	r5, #0
 589 017c 8AE7     		b	.L35
 590              	.LVL89:
 591              	.L55:
 327:C:/Users/lenovo/Desktop/liteos/Project2/BearPi_LiteOS/components/connectivity/agent_tiny/atiny_lwm2m\connection.c ****     {
 592              		.loc 1 327 0 discriminator 1
 593 017e 002C     		cmp	r4, #0
 594 0180 8ED0     		beq	.L30
 329:C:/Users/lenovo/Desktop/liteos/Project2/BearPi_LiteOS/components/connectivity/agent_tiny/atiny_lwm2m\connection.c ****     }
 595              		.loc 1 329 0
 596 0182 2046     		mov	r0, r4
 597 0184 FFF7FEFF 		bl	lwm2m_free
 598              	.LVL90:
 599 0188 8AE7     		b	.L30
 600              	.LVL91:
 601              	.L43:
 244:C:/Users/lenovo/Desktop/liteos/Project2/BearPi_LiteOS/components/connectivity/agent_tiny/atiny_lwm2m\connection.c ****     }
 602              		.loc 1 244 0
 603 018a 0025     		movs	r5, #0
 604 018c 88E7     		b	.L30
 605              	.LVL92:
 606              	.L44:
 607 018e 0025     		movs	r5, #0
 608              	.LVL93:
 609 0190 86E7     		b	.L30
 610              	.L61:
 611 0192 00BF     		.align	2
 612              	.L60:
 613 0194 00000000 		.word	.LC0
 614 0198 00000000 		.word	.LANCHOR1
 615 019c 00000000 		.word	.LC7
 616 01a0 38000000 		.word	.LC8
 617 01a4 08000000 		.word	.LC1
 618 01a8 60000000 		.word	.LC9
 619 01ac 84000000 		.word	.LC10
 620              		.cfi_endproc
 621              	.LFE144:
 623              		.section	.text.connection_free,"ax",%progbits
 624              		.align	1
 625              		.global	connection_free
 626              		.syntax unified
 627              		.thumb
 628              		.thumb_func
 629              		.fpu fpv4-sp-d16
 631              	connection_free:
 632              	.LFB145:
 336:C:/Users/lenovo/Desktop/liteos/Project2/BearPi_LiteOS/components/connectivity/agent_tiny/atiny_lwm2m\connection.c ****     if(connP == NULL)
 633              		.loc 1 336 0
 634              		.cfi_startproc
 635              		@ args = 0, pretend = 0, frame = 0
 636              		@ frame_needed = 0, uses_anonymous_args = 0
 637              	.LVL94:
 337:C:/Users/lenovo/Desktop/liteos/Project2/BearPi_LiteOS/components/connectivity/agent_tiny/atiny_lwm2m\connection.c ****     {
ARM GAS  c:\Users\lenovo\AppData\Local\Temp\ccaOosBf.s 			page 22


 638              		.loc 1 337 0
 639 0000 20B1     		cbz	r0, .L65
 336:C:/Users/lenovo/Desktop/liteos/Project2/BearPi_LiteOS/components/connectivity/agent_tiny/atiny_lwm2m\connection.c ****     if(connP == NULL)
 640              		.loc 1 336 0
 641 0002 08B5     		push	{r3, lr}
 642              	.LCFI8:
 643              		.cfi_def_cfa_offset 8
 644              		.cfi_offset 3, -8
 645              		.cfi_offset 14, -4
 350:C:/Users/lenovo/Desktop/liteos/Project2/BearPi_LiteOS/components/connectivity/agent_tiny/atiny_lwm2m\connection.c ****     }
 646              		.loc 1 350 0
 647 0004 4068     		ldr	r0, [r0, #4]
 648              	.LVL95:
 649 0006 FFF7FEFF 		bl	atiny_net_close
 650              	.LVL96:
 354:C:/Users/lenovo/Desktop/liteos/Project2/BearPi_LiteOS/components/connectivity/agent_tiny/atiny_lwm2m\connection.c **** 
 651              		.loc 1 354 0
 652 000a 08BD     		pop	{r3, pc}
 653              	.LVL97:
 654              	.L65:
 655              	.LCFI9:
 656              		.cfi_def_cfa_offset 0
 657              		.cfi_restore 3
 658              		.cfi_restore 14
 659 000c 7047     		bx	lr
 660              		.cfi_endproc
 661              	.LFE145:
 663              		.section	.text.lwm2m_connect_server,"ax",%progbits
 664              		.align	1
 665              		.global	lwm2m_connect_server
 666              		.syntax unified
 667              		.thumb
 668              		.thumb_func
 669              		.fpu fpv4-sp-d16
 671              	lwm2m_connect_server:
 672              	.LFB146:
 358:C:/Users/lenovo/Desktop/liteos/Project2/BearPi_LiteOS/components/connectivity/agent_tiny/atiny_lwm2m\connection.c ****     client_data_t *dataP;
 673              		.loc 1 358 0
 674              		.cfi_startproc
 675              		@ args = 0, pretend = 0, frame = 0
 676              		@ frame_needed = 0, uses_anonymous_args = 0
 677              	.LVL98:
 678 0000 2DE9F041 		push	{r4, r5, r6, r7, r8, lr}
 679              	.LCFI10:
 680              		.cfi_def_cfa_offset 24
 681              		.cfi_offset 4, -24
 682              		.cfi_offset 5, -20
 683              		.cfi_offset 6, -16
 684              		.cfi_offset 7, -12
 685              		.cfi_offset 8, -8
 686              		.cfi_offset 14, -4
 687 0004 82B0     		sub	sp, sp, #8
 688              	.LCFI11:
 689              		.cfi_def_cfa_offset 32
 690 0006 0646     		mov	r6, r0
 691 0008 0C46     		mov	r4, r1
 692 000a 1546     		mov	r5, r2
ARM GAS  c:\Users\lenovo\AppData\Local\Temp\ccaOosBf.s 			page 23


 693              	.LVL99:
 365:C:/Users/lenovo/Desktop/liteos/Project2/BearPi_LiteOS/components/connectivity/agent_tiny/atiny_lwm2m\connection.c **** 
 694              		.loc 1 365 0
 695 000c 0F68     		ldr	r7, [r1]
 696              	.LVL100:
 367:C:/Users/lenovo/Desktop/liteos/Project2/BearPi_LiteOS/components/connectivity/agent_tiny/atiny_lwm2m\connection.c **** 
 697              		.loc 1 367 0
 698 000e FFF7FEFF 		bl	atiny_get_log_level
 699              	.LVL101:
 700 0012 0128     		cmp	r0, #1
 701 0014 18D9     		bls	.L76
 702              	.L69:
 369:C:/Users/lenovo/Desktop/liteos/Project2/BearPi_LiteOS/components/connectivity/agent_tiny/atiny_lwm2m\connection.c **** 
 703              		.loc 1 369 0
 704 0016 2368     		ldr	r3, [r4]
 705 0018 3146     		mov	r1, r6
 706 001a 9868     		ldr	r0, [r3, #8]
 707 001c FFF7FEFF 		bl	lwm2m_list_find
 708              	.LVL102:
 371:C:/Users/lenovo/Desktop/liteos/Project2/BearPi_LiteOS/components/connectivity/agent_tiny/atiny_lwm2m\connection.c ****     {
 709              		.loc 1 371 0
 710 0020 0028     		cmp	r0, #0
 711 0022 49D0     		beq	.L73
 376:C:/Users/lenovo/Desktop/liteos/Project2/BearPi_LiteOS/components/connectivity/agent_tiny/atiny_lwm2m\connection.c ****                                 isServer ? LWM2M_IS_SERVER : LWM2M_IS_CLIENT);
 712              		.loc 1 376 0
 713 0024 8288     		ldrh	r2, [r0, #4]
 714 0026 0095     		str	r5, [sp]
 715 0028 E368     		ldr	r3, [r4, #12]
 716 002a 3946     		mov	r1, r7
 717 002c A068     		ldr	r0, [r4, #8]
 718              	.LVL103:
 719 002e FFF7FEFF 		bl	connection_create
 720              	.LVL104:
 379:C:/Users/lenovo/Desktop/liteos/Project2/BearPi_LiteOS/components/connectivity/agent_tiny/atiny_lwm2m\connection.c ****     {
 721              		.loc 1 379 0
 722 0032 0546     		mov	r5, r0
 723 0034 C8B1     		cbz	r0, .L77
 384:C:/Users/lenovo/Desktop/liteos/Project2/BearPi_LiteOS/components/connectivity/agent_tiny/atiny_lwm2m\connection.c ****     dataP->connList = newConnP;
 724              		.loc 1 384 0
 725 0036 FFF7FEFF 		bl	atiny_get_log_level
 726              	.LVL105:
 727 003a 0128     		cmp	r0, #1
 728 003c 2CD9     		bls	.L78
 729              	.L72:
 385:C:/Users/lenovo/Desktop/liteos/Project2/BearPi_LiteOS/components/connectivity/agent_tiny/atiny_lwm2m\connection.c **** 
 730              		.loc 1 385 0
 731 003e A560     		str	r5, [r4, #8]
 732              	.LVL106:
 733              	.L68:
 388:C:/Users/lenovo/Desktop/liteos/Project2/BearPi_LiteOS/components/connectivity/agent_tiny/atiny_lwm2m\connection.c **** 
 734              		.loc 1 388 0
 735 0040 2846     		mov	r0, r5
 736 0042 02B0     		add	sp, sp, #8
 737              	.LCFI12:
 738              		.cfi_remember_state
 739              		.cfi_def_cfa_offset 24
 740              		@ sp needed
ARM GAS  c:\Users\lenovo\AppData\Local\Temp\ccaOosBf.s 			page 24


 741 0044 BDE8F081 		pop	{r4, r5, r6, r7, r8, pc}
 742              	.LVL107:
 743              	.L76:
 744              	.LCFI13:
 745              		.cfi_restore_state
 367:C:/Users/lenovo/Desktop/liteos/Project2/BearPi_LiteOS/components/connectivity/agent_tiny/atiny_lwm2m\connection.c **** 
 746              		.loc 1 367 0 discriminator 1
 747 0048 0120     		movs	r0, #1
 748 004a FFF7FEFF 		bl	atiny_get_log_level_name
 749              	.LVL108:
 750 004e 8046     		mov	r8, r0
 751 0050 FFF7FEFF 		bl	atiny_gettime_ms
 752              	.LVL109:
 753 0054 0195     		str	r5, [sp, #4]
 754 0056 40F26F13 		movw	r3, #367
 755 005a 0093     		str	r3, [sp]
 756 005c 174B     		ldr	r3, .L80
 757 005e 0246     		mov	r2, r0
 758 0060 4146     		mov	r1, r8
 759 0062 1748     		ldr	r0, .L80+4
 760 0064 FFF7FEFF 		bl	atiny_printf
 761              	.LVL110:
 762 0068 D5E7     		b	.L69
 763              	.LVL111:
 764              	.L77:
 381:C:/Users/lenovo/Desktop/liteos/Project2/BearPi_LiteOS/components/connectivity/agent_tiny/atiny_lwm2m\connection.c ****         return NULL;
 765              		.loc 1 381 0
 766 006a FFF7FEFF 		bl	atiny_get_log_level
 767              	.LVL112:
 768 006e 0128     		cmp	r0, #1
 769 0070 01D9     		bls	.L79
 382:C:/Users/lenovo/Desktop/liteos/Project2/BearPi_LiteOS/components/connectivity/agent_tiny/atiny_lwm2m\connection.c ****     }
 770              		.loc 1 382 0
 771 0072 0025     		movs	r5, #0
 772              	.LVL113:
 773 0074 E4E7     		b	.L68
 774              	.LVL114:
 775              	.L79:
 381:C:/Users/lenovo/Desktop/liteos/Project2/BearPi_LiteOS/components/connectivity/agent_tiny/atiny_lwm2m\connection.c ****         return NULL;
 776              		.loc 1 381 0 discriminator 1
 777 0076 0120     		movs	r0, #1
 778 0078 FFF7FEFF 		bl	atiny_get_log_level_name
 779              	.LVL115:
 780 007c 0446     		mov	r4, r0
 781              	.LVL116:
 782 007e FFF7FEFF 		bl	atiny_gettime_ms
 783              	.LVL117:
 784 0082 40F27D13 		movw	r3, #381
 785 0086 0093     		str	r3, [sp]
 786 0088 0C4B     		ldr	r3, .L80
 787 008a 0246     		mov	r2, r0
 788 008c 2146     		mov	r1, r4
 789 008e 0D48     		ldr	r0, .L80+8
 790 0090 FFF7FEFF 		bl	atiny_printf
 791              	.LVL118:
 382:C:/Users/lenovo/Desktop/liteos/Project2/BearPi_LiteOS/components/connectivity/agent_tiny/atiny_lwm2m\connection.c ****     }
 792              		.loc 1 382 0 discriminator 1
ARM GAS  c:\Users\lenovo\AppData\Local\Temp\ccaOosBf.s 			page 25


 793 0094 0025     		movs	r5, #0
 794              	.LVL119:
 795 0096 D3E7     		b	.L68
 796              	.LVL120:
 797              	.L78:
 384:C:/Users/lenovo/Desktop/liteos/Project2/BearPi_LiteOS/components/connectivity/agent_tiny/atiny_lwm2m\connection.c ****     dataP->connList = newConnP;
 798              		.loc 1 384 0 discriminator 1
 799 0098 0120     		movs	r0, #1
 800 009a FFF7FEFF 		bl	atiny_get_log_level_name
 801              	.LVL121:
 802 009e 0646     		mov	r6, r0
 803 00a0 FFF7FEFF 		bl	atiny_gettime_ms
 804              	.LVL122:
 805 00a4 4FF4C073 		mov	r3, #384
 806 00a8 0093     		str	r3, [sp]
 807 00aa 044B     		ldr	r3, .L80
 808 00ac 0246     		mov	r2, r0
 809 00ae 3146     		mov	r1, r6
 810 00b0 0548     		ldr	r0, .L80+12
 811 00b2 FFF7FEFF 		bl	atiny_printf
 812              	.LVL123:
 813 00b6 C2E7     		b	.L72
 814              	.LVL124:
 815              	.L73:
 373:C:/Users/lenovo/Desktop/liteos/Project2/BearPi_LiteOS/components/connectivity/agent_tiny/atiny_lwm2m\connection.c ****     }
 816              		.loc 1 373 0
 817 00b8 0025     		movs	r5, #0
 818 00ba C1E7     		b	.L68
 819              	.L81:
 820              		.align	2
 821              	.L80:
 822 00bc 00000000 		.word	.LANCHOR2
 823 00c0 00000000 		.word	.LC11
 824 00c4 54000000 		.word	.LC12
 825 00c8 84000000 		.word	.LC13
 826              		.cfi_endproc
 827              	.LFE146:
 829              		.section	.text.lwm2m_close_connection,"ax",%progbits
 830              		.align	1
 831              		.global	lwm2m_close_connection
 832              		.syntax unified
 833              		.thumb
 834              		.thumb_func
 835              		.fpu fpv4-sp-d16
 837              	lwm2m_close_connection:
 838              	.LFB147:
 391:C:/Users/lenovo/Desktop/liteos/Project2/BearPi_LiteOS/components/connectivity/agent_tiny/atiny_lwm2m\connection.c ****     client_data_t *app_data;
 839              		.loc 1 391 0
 840              		.cfi_startproc
 841              		@ args = 0, pretend = 0, frame = 0
 842              		@ frame_needed = 0, uses_anonymous_args = 0
 843              	.LVL125:
 844 0000 10B5     		push	{r4, lr}
 845              	.LCFI14:
 846              		.cfi_def_cfa_offset 8
 847              		.cfi_offset 4, -8
 848              		.cfi_offset 14, -4
ARM GAS  c:\Users\lenovo\AppData\Local\Temp\ccaOosBf.s 			page 26


 849 0002 0446     		mov	r4, r0
 850              	.LVL126:
 400:C:/Users/lenovo/Desktop/liteos/Project2/BearPi_LiteOS/components/connectivity/agent_tiny/atiny_lwm2m\connection.c ****     {
 851              		.loc 1 400 0
 852 0004 8B68     		ldr	r3, [r1, #8]
 853 0006 8342     		cmp	r3, r0
 854 0008 08D1     		bne	.L83
 402:C:/Users/lenovo/Desktop/liteos/Project2/BearPi_LiteOS/components/connectivity/agent_tiny/atiny_lwm2m\connection.c ****         connection_free(targetP);
 855              		.loc 1 402 0
 856 000a 0368     		ldr	r3, [r0]
 857 000c 8B60     		str	r3, [r1, #8]
 403:C:/Users/lenovo/Desktop/liteos/Project2/BearPi_LiteOS/components/connectivity/agent_tiny/atiny_lwm2m\connection.c ****         lwm2m_free(targetP);
 858              		.loc 1 403 0
 859 000e FFF7FEFF 		bl	connection_free
 860              	.LVL127:
 404:C:/Users/lenovo/Desktop/liteos/Project2/BearPi_LiteOS/components/connectivity/agent_tiny/atiny_lwm2m\connection.c ****     }
 861              		.loc 1 404 0
 862 0012 2046     		mov	r0, r4
 863 0014 FFF7FEFF 		bl	lwm2m_free
 864              	.LVL128:
 865 0018 0DE0     		b	.L82
 866              	.LVL129:
 867              	.L86:
 868              	.LBB6:
 414:C:/Users/lenovo/Desktop/liteos/Project2/BearPi_LiteOS/components/connectivity/agent_tiny/atiny_lwm2m\connection.c ****         }
 869              		.loc 1 414 0
 870 001a 1346     		mov	r3, r2
 871              	.LVL130:
 872              	.L83:
 412:C:/Users/lenovo/Desktop/liteos/Project2/BearPi_LiteOS/components/connectivity/agent_tiny/atiny_lwm2m\connection.c ****         {
 873              		.loc 1 412 0
 874 001c 13B1     		cbz	r3, .L85
 412:C:/Users/lenovo/Desktop/liteos/Project2/BearPi_LiteOS/components/connectivity/agent_tiny/atiny_lwm2m\connection.c ****         {
 875              		.loc 1 412 0 is_stmt 0 discriminator 1
 876 001e 1A68     		ldr	r2, [r3]
 877 0020 A242     		cmp	r2, r4
 878 0022 FAD1     		bne	.L86
 879              	.L85:
 417:C:/Users/lenovo/Desktop/liteos/Project2/BearPi_LiteOS/components/connectivity/agent_tiny/atiny_lwm2m\connection.c ****         {
 880              		.loc 1 417 0 is_stmt 1
 881 0024 3BB1     		cbz	r3, .L82
 419:C:/Users/lenovo/Desktop/liteos/Project2/BearPi_LiteOS/components/connectivity/agent_tiny/atiny_lwm2m\connection.c ****             connection_free(targetP);
 882              		.loc 1 419 0
 883 0026 2268     		ldr	r2, [r4]
 884 0028 1A60     		str	r2, [r3]
 420:C:/Users/lenovo/Desktop/liteos/Project2/BearPi_LiteOS/components/connectivity/agent_tiny/atiny_lwm2m\connection.c ****             lwm2m_free(targetP);
 885              		.loc 1 420 0
 886 002a 2046     		mov	r0, r4
 887              	.LVL131:
 888 002c FFF7FEFF 		bl	connection_free
 889              	.LVL132:
 421:C:/Users/lenovo/Desktop/liteos/Project2/BearPi_LiteOS/components/connectivity/agent_tiny/atiny_lwm2m\connection.c ****         }
 890              		.loc 1 421 0
 891 0030 2046     		mov	r0, r4
 892 0032 FFF7FEFF 		bl	lwm2m_free
 893              	.LVL133:
 894              	.L82:
ARM GAS  c:\Users\lenovo\AppData\Local\Temp\ccaOosBf.s 			page 27


 895              	.LBE6:
 426:C:/Users/lenovo/Desktop/liteos/Project2/BearPi_LiteOS/components/connectivity/agent_tiny/atiny_lwm2m\connection.c **** 
 896              		.loc 1 426 0
 897 0036 10BD     		pop	{r4, pc}
 898              		.cfi_endproc
 899              	.LFE147:
 901              		.section	.text.lwm2m_buffer_recv,"ax",%progbits
 902              		.align	1
 903              		.global	lwm2m_buffer_recv
 904              		.syntax unified
 905              		.thumb
 906              		.thumb_func
 907              		.fpu fpv4-sp-d16
 909              	lwm2m_buffer_recv:
 910              	.LFB148:
 430:C:/Users/lenovo/Desktop/liteos/Project2/BearPi_LiteOS/components/connectivity/agent_tiny/atiny_lwm2m\connection.c ****     connection_t *connP = (connection_t *) sessionH;
 911              		.loc 1 430 0
 912              		.cfi_startproc
 913              		@ args = 0, pretend = 0, frame = 0
 914              		@ frame_needed = 0, uses_anonymous_args = 0
 915              	.LVL134:
 916 0000 38B5     		push	{r3, r4, r5, lr}
 917              	.LCFI15:
 918              		.cfi_def_cfa_offset 16
 919              		.cfi_offset 3, -16
 920              		.cfi_offset 4, -12
 921              		.cfi_offset 5, -8
 922              		.cfi_offset 14, -4
 923 0002 0446     		mov	r4, r0
 924              	.LVL135:
 446:C:/Users/lenovo/Desktop/liteos/Project2/BearPi_LiteOS/components/connectivity/agent_tiny/atiny_lwm2m\connection.c ****     }
 925              		.loc 1 446 0
 926 0004 4FF47A70 		mov	r0, #1000
 927              	.LVL136:
 928 0008 00FB03F3 		mul	r3, r0, r3
 929              	.LVL137:
 930 000c 6068     		ldr	r0, [r4, #4]
 931 000e FFF7FEFF 		bl	atiny_net_recv_timeout
 932              	.LVL138:
 449:C:/Users/lenovo/Desktop/liteos/Project2/BearPi_LiteOS/components/connectivity/agent_tiny/atiny_lwm2m\connection.c ****     {
 933              		.loc 1 449 0
 934 0012 051E     		subs	r5, r0, #0
 935 0014 03DB     		blt	.L92
 936              	.L89:
 455:C:/Users/lenovo/Desktop/liteos/Project2/BearPi_LiteOS/components/connectivity/agent_tiny/atiny_lwm2m\connection.c ****     }
 937              		.loc 1 455 0
 938 0016 0023     		movs	r3, #0
 939 0018 6383     		strh	r3, [r4, #26]	@ movhi
 940              	.LVL139:
 941              	.L88:
 458:C:/Users/lenovo/Desktop/liteos/Project2/BearPi_LiteOS/components/connectivity/agent_tiny/atiny_lwm2m\connection.c **** 
 942              		.loc 1 458 0
 943 001a 2846     		mov	r0, r5
 944 001c 38BD     		pop	{r3, r4, r5, pc}
 945              	.LVL140:
 946              	.L92:
 449:C:/Users/lenovo/Desktop/liteos/Project2/BearPi_LiteOS/components/connectivity/agent_tiny/atiny_lwm2m\connection.c ****     {
ARM GAS  c:\Users\lenovo\AppData\Local\Temp\ccaOosBf.s 			page 28


 947              		.loc 1 449 0 discriminator 1
 948 001e 15F1020F 		cmn	r5, #2
 949 0022 F8D0     		beq	.L89
 950              	.LVL141:
 951              	.LBB7:
 952              	.LBB8:
  74:C:/Users/lenovo/Desktop/liteos/Project2/BearPi_LiteOS/components/connectivity/agent_tiny/atiny_lwm2m\connection.c ****     if(connection->errs[type] >= max_num[type])
 953              		.loc 1 74 0
 954 0024 638B     		ldrh	r3, [r4, #26]
 955 0026 0133     		adds	r3, r3, #1
 956 0028 9BB2     		uxth	r3, r3
 957 002a 6383     		strh	r3, [r4, #26]	@ movhi
  75:C:/Users/lenovo/Desktop/liteos/Project2/BearPi_LiteOS/components/connectivity/agent_tiny/atiny_lwm2m\connection.c ****     {
 958              		.loc 1 75 0
 959 002c 092B     		cmp	r3, #9
 960 002e F4D9     		bls	.L88
  77:C:/Users/lenovo/Desktop/liteos/Project2/BearPi_LiteOS/components/connectivity/agent_tiny/atiny_lwm2m\connection.c ****         if(g_connection_err_notify)
 961              		.loc 1 77 0
 962 0030 0023     		movs	r3, #0
 963 0032 6383     		strh	r3, [r4, #26]	@ movhi
  78:C:/Users/lenovo/Desktop/liteos/Project2/BearPi_LiteOS/components/connectivity/agent_tiny/atiny_lwm2m\connection.c ****         {
 964              		.loc 1 78 0
 965 0034 054B     		ldr	r3, .L93
 966 0036 1B68     		ldr	r3, [r3]
 967 0038 002B     		cmp	r3, #0
 968 003a EED0     		beq	.L88
  80:C:/Users/lenovo/Desktop/liteos/Project2/BearPi_LiteOS/components/connectivity/agent_tiny/atiny_lwm2m\connection.c ****         }
 969              		.loc 1 80 0
 970 003c 628A     		ldrh	r2, [r4, #18]
 971 003e 0032     		adds	r2, r2, #0
 972 0040 18BF     		it	ne
 973 0042 0122     		movne	r2, #1
 974 0044 0121     		movs	r1, #1
 975 0046 6069     		ldr	r0, [r4, #20]
 976              	.LVL142:
 977 0048 9847     		blx	r3
 978              	.LVL143:
 979 004a E6E7     		b	.L88
 980              	.L94:
 981              		.align	2
 982              	.L93:
 983 004c 00000000 		.word	.LANCHOR3
 984              	.LBE8:
 985              	.LBE7:
 986              		.cfi_endproc
 987              	.LFE148:
 989              		.section	.text.lwm2m_buffer_send,"ax",%progbits
 990              		.align	1
 991              		.global	lwm2m_buffer_send
 992              		.syntax unified
 993              		.thumb
 994              		.thumb_func
 995              		.fpu fpv4-sp-d16
 997              	lwm2m_buffer_send:
 998              	.LFB150:
 481:C:/Users/lenovo/Desktop/liteos/Project2/BearPi_LiteOS/components/connectivity/agent_tiny/atiny_lwm2m\connection.c **** 
 482:C:/Users/lenovo/Desktop/liteos/Project2/BearPi_LiteOS/components/connectivity/agent_tiny/atiny_lwm2m\connection.c **** uint8_t lwm2m_buffer_send(void *sessionH,
ARM GAS  c:\Users\lenovo\AppData\Local\Temp\ccaOosBf.s 			page 29


 483:C:/Users/lenovo/Desktop/liteos/Project2/BearPi_LiteOS/components/connectivity/agent_tiny/atiny_lwm2m\connection.c ****                           uint8_t *buffer,
 484:C:/Users/lenovo/Desktop/liteos/Project2/BearPi_LiteOS/components/connectivity/agent_tiny/atiny_lwm2m\connection.c ****                           size_t length,
 485:C:/Users/lenovo/Desktop/liteos/Project2/BearPi_LiteOS/components/connectivity/agent_tiny/atiny_lwm2m\connection.c ****                           void *userdata)
 486:C:/Users/lenovo/Desktop/liteos/Project2/BearPi_LiteOS/components/connectivity/agent_tiny/atiny_lwm2m\connection.c **** {
 999              		.loc 1 486 0
 1000              		.cfi_startproc
 1001              		@ args = 0, pretend = 0, frame = 0
 1002              		@ frame_needed = 0, uses_anonymous_args = 0
 1003              	.LVL144:
 1004 0000 F0B5     		push	{r4, r5, r6, r7, lr}
 1005              	.LCFI16:
 1006              		.cfi_def_cfa_offset 20
 1007              		.cfi_offset 4, -20
 1008              		.cfi_offset 5, -16
 1009              		.cfi_offset 6, -12
 1010              		.cfi_offset 7, -8
 1011              		.cfi_offset 14, -4
 1012 0002 83B0     		sub	sp, sp, #12
 1013              	.LCFI17:
 1014              		.cfi_def_cfa_offset 32
 1015 0004 1546     		mov	r5, r2
 1016              	.LVL145:
 487:C:/Users/lenovo/Desktop/liteos/Project2/BearPi_LiteOS/components/connectivity/agent_tiny/atiny_lwm2m\connection.c ****     connection_t *connP = (connection_t *) sessionH;
 488:C:/Users/lenovo/Desktop/liteos/Project2/BearPi_LiteOS/components/connectivity/agent_tiny/atiny_lwm2m\connection.c ****     int ret;
 489:C:/Users/lenovo/Desktop/liteos/Project2/BearPi_LiteOS/components/connectivity/agent_tiny/atiny_lwm2m\connection.c ****     /* should check the valid of the connection,because coap tranctions does not update the session
 490:C:/Users/lenovo/Desktop/liteos/Project2/BearPi_LiteOS/components/connectivity/agent_tiny/atiny_lwm2m\connection.c ****     if (connP == NULL || (!connection_is_valid(userdata, sessionH)))
 1017              		.loc 1 490 0
 1018 0006 30B1     		cbz	r0, .L96
 1019 0008 0E46     		mov	r6, r1
 1020 000a 0446     		mov	r4, r0
 1021              		.loc 1 490 0 is_stmt 0 discriminator 1
 1022 000c 0146     		mov	r1, r0
 1023              	.LVL146:
 1024 000e 1846     		mov	r0, r3
 1025              	.LVL147:
 1026 0010 FFF7FEFF 		bl	connection_is_valid
 1027              	.LVL148:
 1028 0014 C0B9     		cbnz	r0, .L97
 1029              	.LVL149:
 1030              	.L96:
 491:C:/Users/lenovo/Desktop/liteos/Project2/BearPi_LiteOS/components/connectivity/agent_tiny/atiny_lwm2m\connection.c ****     {
 492:C:/Users/lenovo/Desktop/liteos/Project2/BearPi_LiteOS/components/connectivity/agent_tiny/atiny_lwm2m\connection.c ****         ATINY_LOG(LOG_INFO, "#> failed sending %lu bytes, missing connection\r\n", (unsigned long)l
 1031              		.loc 1 492 0 is_stmt 1
 1032 0016 FFF7FEFF 		bl	atiny_get_log_level
 1033              	.LVL150:
 1034 001a 0128     		cmp	r0, #1
 1035 001c 02D9     		bls	.L105
 493:C:/Users/lenovo/Desktop/liteos/Project2/BearPi_LiteOS/components/connectivity/agent_tiny/atiny_lwm2m\connection.c ****         return COAP_500_INTERNAL_SERVER_ERROR ;
 1036              		.loc 1 493 0
 1037 001e A020     		movs	r0, #160
 1038              	.L98:
 494:C:/Users/lenovo/Desktop/liteos/Project2/BearPi_LiteOS/components/connectivity/agent_tiny/atiny_lwm2m\connection.c ****     }
 495:C:/Users/lenovo/Desktop/liteos/Project2/BearPi_LiteOS/components/connectivity/agent_tiny/atiny_lwm2m\connection.c **** 
 496:C:/Users/lenovo/Desktop/liteos/Project2/BearPi_LiteOS/components/connectivity/agent_tiny/atiny_lwm2m\connection.c ****     ATINY_LOG(LOG_INFO, "call connection_send in lwm2m_buffer_send, length is %d\n", length);
 497:C:/Users/lenovo/Desktop/liteos/Project2/BearPi_LiteOS/components/connectivity/agent_tiny/atiny_lwm2m\connection.c **** 
 498:C:/Users/lenovo/Desktop/liteos/Project2/BearPi_LiteOS/components/connectivity/agent_tiny/atiny_lwm2m\connection.c **** #ifdef WITH_DTLS
 499:C:/Users/lenovo/Desktop/liteos/Project2/BearPi_LiteOS/components/connectivity/agent_tiny/atiny_lwm2m\connection.c **** 
ARM GAS  c:\Users\lenovo\AppData\Local\Temp\ccaOosBf.s 			page 30


 500:C:/Users/lenovo/Desktop/liteos/Project2/BearPi_LiteOS/components/connectivity/agent_tiny/atiny_lwm2m\connection.c ****     if (connP->dtls_flag == true)
 501:C:/Users/lenovo/Desktop/liteos/Project2/BearPi_LiteOS/components/connectivity/agent_tiny/atiny_lwm2m\connection.c ****     {
 502:C:/Users/lenovo/Desktop/liteos/Project2/BearPi_LiteOS/components/connectivity/agent_tiny/atiny_lwm2m\connection.c ****         // security
 503:C:/Users/lenovo/Desktop/liteos/Project2/BearPi_LiteOS/components/connectivity/agent_tiny/atiny_lwm2m\connection.c ****         ret = dtls_write(connP->net_context, buffer, length);
 504:C:/Users/lenovo/Desktop/liteos/Project2/BearPi_LiteOS/components/connectivity/agent_tiny/atiny_lwm2m\connection.c ****     }
 505:C:/Users/lenovo/Desktop/liteos/Project2/BearPi_LiteOS/components/connectivity/agent_tiny/atiny_lwm2m\connection.c ****     else
 506:C:/Users/lenovo/Desktop/liteos/Project2/BearPi_LiteOS/components/connectivity/agent_tiny/atiny_lwm2m\connection.c **** #endif
 507:C:/Users/lenovo/Desktop/liteos/Project2/BearPi_LiteOS/components/connectivity/agent_tiny/atiny_lwm2m\connection.c ****     {
 508:C:/Users/lenovo/Desktop/liteos/Project2/BearPi_LiteOS/components/connectivity/agent_tiny/atiny_lwm2m\connection.c ****         ret = atiny_net_send(connP->net_context, buffer, length);
 509:C:/Users/lenovo/Desktop/liteos/Project2/BearPi_LiteOS/components/connectivity/agent_tiny/atiny_lwm2m\connection.c ****     }
 510:C:/Users/lenovo/Desktop/liteos/Project2/BearPi_LiteOS/components/connectivity/agent_tiny/atiny_lwm2m\connection.c **** 
 511:C:/Users/lenovo/Desktop/liteos/Project2/BearPi_LiteOS/components/connectivity/agent_tiny/atiny_lwm2m\connection.c ****     if(ret >= 0)
 512:C:/Users/lenovo/Desktop/liteos/Project2/BearPi_LiteOS/components/connectivity/agent_tiny/atiny_lwm2m\connection.c ****     {
 513:C:/Users/lenovo/Desktop/liteos/Project2/BearPi_LiteOS/components/connectivity/agent_tiny/atiny_lwm2m\connection.c ****         connP->errs[CONNECTION_SEND_ERR] = 0;
 514:C:/Users/lenovo/Desktop/liteos/Project2/BearPi_LiteOS/components/connectivity/agent_tiny/atiny_lwm2m\connection.c ****         return COAP_NO_ERROR;
 515:C:/Users/lenovo/Desktop/liteos/Project2/BearPi_LiteOS/components/connectivity/agent_tiny/atiny_lwm2m\connection.c ****     }
 516:C:/Users/lenovo/Desktop/liteos/Project2/BearPi_LiteOS/components/connectivity/agent_tiny/atiny_lwm2m\connection.c ****     else
 517:C:/Users/lenovo/Desktop/liteos/Project2/BearPi_LiteOS/components/connectivity/agent_tiny/atiny_lwm2m\connection.c ****     {
 518:C:/Users/lenovo/Desktop/liteos/Project2/BearPi_LiteOS/components/connectivity/agent_tiny/atiny_lwm2m\connection.c ****         inc_connection_stat(connP, CONNECTION_SEND_ERR);
 519:C:/Users/lenovo/Desktop/liteos/Project2/BearPi_LiteOS/components/connectivity/agent_tiny/atiny_lwm2m\connection.c ****         return COAP_500_INTERNAL_SERVER_ERROR;
 520:C:/Users/lenovo/Desktop/liteos/Project2/BearPi_LiteOS/components/connectivity/agent_tiny/atiny_lwm2m\connection.c ****     }
 521:C:/Users/lenovo/Desktop/liteos/Project2/BearPi_LiteOS/components/connectivity/agent_tiny/atiny_lwm2m\connection.c **** }
 1039              		.loc 1 521 0
 1040 0020 03B0     		add	sp, sp, #12
 1041              	.LCFI18:
 1042              		.cfi_remember_state
 1043              		.cfi_def_cfa_offset 20
 1044              		@ sp needed
 1045 0022 F0BD     		pop	{r4, r5, r6, r7, pc}
 1046              	.LVL151:
 1047              	.L105:
 1048              	.LCFI19:
 1049              		.cfi_restore_state
 492:C:/Users/lenovo/Desktop/liteos/Project2/BearPi_LiteOS/components/connectivity/agent_tiny/atiny_lwm2m\connection.c ****         return COAP_500_INTERNAL_SERVER_ERROR ;
 1050              		.loc 1 492 0 discriminator 1
 1051 0024 0120     		movs	r0, #1
 1052 0026 FFF7FEFF 		bl	atiny_get_log_level_name
 1053              	.LVL152:
 1054 002a 0446     		mov	r4, r0
 1055 002c FFF7FEFF 		bl	atiny_gettime_ms
 1056              	.LVL153:
 1057 0030 0195     		str	r5, [sp, #4]
 1058 0032 4FF4F673 		mov	r3, #492
 1059 0036 0093     		str	r3, [sp]
 1060 0038 1F4B     		ldr	r3, .L107
 1061 003a 0246     		mov	r2, r0
 1062 003c 2146     		mov	r1, r4
 1063 003e 1F48     		ldr	r0, .L107+4
 1064 0040 FFF7FEFF 		bl	atiny_printf
 1065              	.LVL154:
 493:C:/Users/lenovo/Desktop/liteos/Project2/BearPi_LiteOS/components/connectivity/agent_tiny/atiny_lwm2m\connection.c ****         return COAP_500_INTERNAL_SERVER_ERROR ;
 1066              		.loc 1 493 0 discriminator 1
 1067 0044 A020     		movs	r0, #160
 1068 0046 EBE7     		b	.L98
 1069              	.LVL155:
 1070              	.L97:
 496:C:/Users/lenovo/Desktop/liteos/Project2/BearPi_LiteOS/components/connectivity/agent_tiny/atiny_lwm2m\connection.c **** 
ARM GAS  c:\Users\lenovo\AppData\Local\Temp\ccaOosBf.s 			page 31


 1071              		.loc 1 496 0
 1072 0048 FFF7FEFF 		bl	atiny_get_log_level
 1073              	.LVL156:
 1074 004c 0128     		cmp	r0, #1
 1075 004e 09D9     		bls	.L106
 1076              	.L99:
 508:C:/Users/lenovo/Desktop/liteos/Project2/BearPi_LiteOS/components/connectivity/agent_tiny/atiny_lwm2m\connection.c ****     }
 1077              		.loc 1 508 0
 1078 0050 2A46     		mov	r2, r5
 1079 0052 3146     		mov	r1, r6
 1080 0054 6068     		ldr	r0, [r4, #4]
 1081 0056 FFF7FEFF 		bl	atiny_net_send
 1082              	.LVL157:
 511:C:/Users/lenovo/Desktop/liteos/Project2/BearPi_LiteOS/components/connectivity/agent_tiny/atiny_lwm2m\connection.c ****     {
 1083              		.loc 1 511 0
 1084 005a 0028     		cmp	r0, #0
 1085 005c 13DB     		blt	.L100
 513:C:/Users/lenovo/Desktop/liteos/Project2/BearPi_LiteOS/components/connectivity/agent_tiny/atiny_lwm2m\connection.c ****         return COAP_NO_ERROR;
 1086              		.loc 1 513 0
 1087 005e 0020     		movs	r0, #0
 1088              	.LVL158:
 1089 0060 2083     		strh	r0, [r4, #24]	@ movhi
 514:C:/Users/lenovo/Desktop/liteos/Project2/BearPi_LiteOS/components/connectivity/agent_tiny/atiny_lwm2m\connection.c ****     }
 1090              		.loc 1 514 0
 1091 0062 DDE7     		b	.L98
 1092              	.L106:
 496:C:/Users/lenovo/Desktop/liteos/Project2/BearPi_LiteOS/components/connectivity/agent_tiny/atiny_lwm2m\connection.c **** 
 1093              		.loc 1 496 0 discriminator 1
 1094 0064 0120     		movs	r0, #1
 1095 0066 FFF7FEFF 		bl	atiny_get_log_level_name
 1096              	.LVL159:
 1097 006a 0746     		mov	r7, r0
 1098 006c FFF7FEFF 		bl	atiny_gettime_ms
 1099              	.LVL160:
 1100 0070 0195     		str	r5, [sp, #4]
 1101 0072 4FF4F873 		mov	r3, #496
 1102 0076 0093     		str	r3, [sp]
 1103 0078 0F4B     		ldr	r3, .L107
 1104 007a 0246     		mov	r2, r0
 1105 007c 3946     		mov	r1, r7
 1106 007e 1048     		ldr	r0, .L107+8
 1107 0080 FFF7FEFF 		bl	atiny_printf
 1108              	.LVL161:
 1109 0084 E4E7     		b	.L99
 1110              	.LVL162:
 1111              	.L100:
 1112              	.LBB9:
 1113              	.LBB10:
  74:C:/Users/lenovo/Desktop/liteos/Project2/BearPi_LiteOS/components/connectivity/agent_tiny/atiny_lwm2m\connection.c ****     if(connection->errs[type] >= max_num[type])
 1114              		.loc 1 74 0
 1115 0086 238B     		ldrh	r3, [r4, #24]
 1116 0088 0133     		adds	r3, r3, #1
 1117 008a 9BB2     		uxth	r3, r3
 1118 008c 2383     		strh	r3, [r4, #24]	@ movhi
  75:C:/Users/lenovo/Desktop/liteos/Project2/BearPi_LiteOS/components/connectivity/agent_tiny/atiny_lwm2m\connection.c ****     {
 1119              		.loc 1 75 0
 1120 008e 092B     		cmp	r3, #9
ARM GAS  c:\Users\lenovo\AppData\Local\Temp\ccaOosBf.s 			page 32


 1121 0090 0DD9     		bls	.L102
  77:C:/Users/lenovo/Desktop/liteos/Project2/BearPi_LiteOS/components/connectivity/agent_tiny/atiny_lwm2m\connection.c ****         if(g_connection_err_notify)
 1122              		.loc 1 77 0
 1123 0092 0023     		movs	r3, #0
 1124 0094 2383     		strh	r3, [r4, #24]	@ movhi
  78:C:/Users/lenovo/Desktop/liteos/Project2/BearPi_LiteOS/components/connectivity/agent_tiny/atiny_lwm2m\connection.c ****         {
 1125              		.loc 1 78 0
 1126 0096 0B4B     		ldr	r3, .L107+12
 1127 0098 1B68     		ldr	r3, [r3]
 1128 009a 53B1     		cbz	r3, .L103
  80:C:/Users/lenovo/Desktop/liteos/Project2/BearPi_LiteOS/components/connectivity/agent_tiny/atiny_lwm2m\connection.c ****         }
 1129              		.loc 1 80 0
 1130 009c 628A     		ldrh	r2, [r4, #18]
 1131 009e 0032     		adds	r2, r2, #0
 1132 00a0 18BF     		it	ne
 1133 00a2 0122     		movne	r2, #1
 1134 00a4 0021     		movs	r1, #0
 1135 00a6 6069     		ldr	r0, [r4, #20]
 1136              	.LVL163:
 1137 00a8 9847     		blx	r3
 1138              	.LVL164:
 1139              	.LBE10:
 1140              	.LBE9:
 519:C:/Users/lenovo/Desktop/liteos/Project2/BearPi_LiteOS/components/connectivity/agent_tiny/atiny_lwm2m\connection.c ****     }
 1141              		.loc 1 519 0
 1142 00aa A020     		movs	r0, #160
 1143 00ac B8E7     		b	.L98
 1144              	.LVL165:
 1145              	.L102:
 1146 00ae A020     		movs	r0, #160
 1147              	.LVL166:
 1148 00b0 B6E7     		b	.L98
 1149              	.LVL167:
 1150              	.L103:
 1151 00b2 A020     		movs	r0, #160
 1152              	.LVL168:
 1153 00b4 B4E7     		b	.L98
 1154              	.L108:
 1155 00b6 00BF     		.align	2
 1156              	.L107:
 1157 00b8 00000000 		.word	.LANCHOR4
 1158 00bc 00000000 		.word	.LC14
 1159 00c0 44000000 		.word	.LC15
 1160 00c4 00000000 		.word	.LANCHOR3
 1161              		.cfi_endproc
 1162              	.LFE150:
 1164              		.section	.text.lwm2m_session_is_equal,"ax",%progbits
 1165              		.align	1
 1166              		.global	lwm2m_session_is_equal
 1167              		.syntax unified
 1168              		.thumb
 1169              		.thumb_func
 1170              		.fpu fpv4-sp-d16
 1172              	lwm2m_session_is_equal:
 1173              	.LFB151:
 522:C:/Users/lenovo/Desktop/liteos/Project2/BearPi_LiteOS/components/connectivity/agent_tiny/atiny_lwm2m\connection.c **** 
 523:C:/Users/lenovo/Desktop/liteos/Project2/BearPi_LiteOS/components/connectivity/agent_tiny/atiny_lwm2m\connection.c **** bool lwm2m_session_is_equal(void *session1, void *session2, void *userData)
ARM GAS  c:\Users\lenovo\AppData\Local\Temp\ccaOosBf.s 			page 33


 524:C:/Users/lenovo/Desktop/liteos/Project2/BearPi_LiteOS/components/connectivity/agent_tiny/atiny_lwm2m\connection.c **** {
 1174              		.loc 1 524 0
 1175              		.cfi_startproc
 1176              		@ args = 0, pretend = 0, frame = 0
 1177              		@ frame_needed = 0, uses_anonymous_args = 0
 1178              		@ link register save eliminated.
 1179              	.LVL169:
 525:C:/Users/lenovo/Desktop/liteos/Project2/BearPi_LiteOS/components/connectivity/agent_tiny/atiny_lwm2m\connection.c ****     return (session1 == session2);
 526:C:/Users/lenovo/Desktop/liteos/Project2/BearPi_LiteOS/components/connectivity/agent_tiny/atiny_lwm2m\connection.c **** }
 1180              		.loc 1 526 0
 1181 0000 8142     		cmp	r1, r0
 1182 0002 14BF     		ite	ne
 1183 0004 0020     		movne	r0, #0
 1184              	.LVL170:
 1185 0006 0120     		moveq	r0, #1
 1186 0008 7047     		bx	lr
 1187              		.cfi_endproc
 1188              	.LFE151:
 1190              		.section	.text.lwm2m_register_connection_err_notify,"ax",%progbits
 1191              		.align	1
 1192              		.global	lwm2m_register_connection_err_notify
 1193              		.syntax unified
 1194              		.thumb
 1195              		.thumb_func
 1196              		.fpu fpv4-sp-d16
 1198              	lwm2m_register_connection_err_notify:
 1199              	.LFB152:
 527:C:/Users/lenovo/Desktop/liteos/Project2/BearPi_LiteOS/components/connectivity/agent_tiny/atiny_lwm2m\connection.c **** 
 528:C:/Users/lenovo/Desktop/liteos/Project2/BearPi_LiteOS/components/connectivity/agent_tiny/atiny_lwm2m\connection.c **** void lwm2m_register_connection_err_notify(lwm2m_connection_err_notify_t nofiy)
 529:C:/Users/lenovo/Desktop/liteos/Project2/BearPi_LiteOS/components/connectivity/agent_tiny/atiny_lwm2m\connection.c **** {
 1200              		.loc 1 529 0
 1201              		.cfi_startproc
 1202              		@ args = 0, pretend = 0, frame = 0
 1203              		@ frame_needed = 0, uses_anonymous_args = 0
 1204              		@ link register save eliminated.
 1205              	.LVL171:
 530:C:/Users/lenovo/Desktop/liteos/Project2/BearPi_LiteOS/components/connectivity/agent_tiny/atiny_lwm2m\connection.c ****     g_connection_err_notify = nofiy;
 1206              		.loc 1 530 0
 1207 0000 014B     		ldr	r3, .L111
 1208 0002 1860     		str	r0, [r3]
 531:C:/Users/lenovo/Desktop/liteos/Project2/BearPi_LiteOS/components/connectivity/agent_tiny/atiny_lwm2m\connection.c **** }
 1209              		.loc 1 531 0
 1210 0004 7047     		bx	lr
 1211              	.L112:
 1212 0006 00BF     		.align	2
 1213              	.L111:
 1214 0008 00000000 		.word	.LANCHOR3
 1215              		.cfi_endproc
 1216              	.LFE152:
 1218              		.section	.bss.g_connection_err_notify,"aw",%nobits
 1219              		.align	2
 1220              		.set	.LANCHOR3,. + 0
 1223              	g_connection_err_notify:
 1224 0000 00000000 		.space	4
 1225              		.section	.rodata.__FUNCTION__.11977,"a",%progbits
 1226              		.align	2
 1227              		.set	.LANCHOR0,. + 0
ARM GAS  c:\Users\lenovo\AppData\Local\Temp\ccaOosBf.s 			page 34


 1230              	__FUNCTION__.11977:
 1231 0000 636F6E6E 		.ascii	"connection_parse_host_ip\000"
 1231      65637469 
 1231      6F6E5F70 
 1231      61727365 
 1231      5F686F73 
 1232              		.section	.rodata.__FUNCTION__.11991,"a",%progbits
 1233              		.align	2
 1234              		.set	.LANCHOR1,. + 0
 1237              	__FUNCTION__.11991:
 1238 0000 636F6E6E 		.ascii	"connection_create\000"
 1238      65637469 
 1238      6F6E5F63 
 1238      72656174 
 1238      6500
 1239              		.section	.rodata.__FUNCTION__.12005,"a",%progbits
 1240              		.align	2
 1241              		.set	.LANCHOR2,. + 0
 1244              	__FUNCTION__.12005:
 1245 0000 6C776D32 		.ascii	"lwm2m_connect_server\000"
 1245      6D5F636F 
 1245      6E6E6563 
 1245      745F7365 
 1245      72766572 
 1246              		.section	.rodata.__FUNCTION__.12042,"a",%progbits
 1247              		.align	2
 1248              		.set	.LANCHOR4,. + 0
 1251              	__FUNCTION__.12042:
 1252 0000 6C776D32 		.ascii	"lwm2m_buffer_send\000"
 1252      6D5F6275 
 1252      66666572 
 1252      5F73656E 
 1252      6400
 1253              		.section	.rodata.connection_create.str1.4,"aMS",%progbits,1
 1254              		.align	2
 1255              	.LC7:
 1256 0000 5B25735D 		.ascii	"[%s][%u][%s:%d] now come into connection_create!!!\015"
 1256      5B25755D 
 1256      5B25733A 
 1256      25645D20 
 1256      6E6F7720 
 1257 0033 0A00     		.ascii	"\012\000"
 1258 0035 000000   		.space	3
 1259              	.LC8:
 1260 0038 5B25735D 		.ascii	"[%s][%u][%s:%d] atiny_strdup null!!!\015\012\000"
 1260      5B25755D 
 1260      5B25733A 
 1260      25645D20 
 1260      6174696E 
 1261 005f 00       		.space	1
 1262              	.LC9:
 1263 0060 5B25735D 		.ascii	"[%s][%u][%s:%d] connP is NULL!!!\015\012\000"
 1263      5B25755D 
 1263      5B25733A 
 1263      25645D20 
 1263      636F6E6E 
 1264 0083 00       		.space	1
ARM GAS  c:\Users\lenovo\AppData\Local\Temp\ccaOosBf.s 			page 35


 1265              	.LC10:
 1266 0084 5B25735D 		.ascii	"[%s][%u][%s:%d] net_context is NULL in connection_c"
 1266      5B25755D 
 1266      5B25733A 
 1266      25645D20 
 1266      6E65745F 
 1267 00b7 72656174 		.ascii	"reate\015\012\000"
 1267      650D0A00 
 1268              		.section	.rodata.connection_parse_host_ip.str1.4,"aMS",%progbits,1
 1269              		.align	2
 1270              	.LC0:
 1271 0000 35363834 		.ascii	"5684\000"
 1271      00
 1272 0005 000000   		.space	3
 1273              	.LC1:
 1274 0008 35363833 		.ascii	"5683\000"
 1274      00
 1275 000d 000000   		.space	3
 1276              	.LC2:
 1277 0010 5B25735D 		.ascii	"[%s][%u][%s:%d] uri is NULL!!!\015\012\000"
 1277      5B25755D 
 1277      5B25733A 
 1277      25645D20 
 1277      75726920 
 1278 0031 000000   		.space	3
 1279              	.LC3:
 1280 0034 636F6170 		.ascii	"coaps://\000"
 1280      733A2F2F 
 1280      00
 1281 003d 000000   		.space	3
 1282              	.LC4:
 1283 0040 636F6170 		.ascii	"coap://\000"
 1283      3A2F2F00 
 1284              	.LC5:
 1285 0048 5B25735D 		.ascii	"[%s][%u][%s:%d] come here1!!!\015\012\000"
 1285      5B25755D 
 1285      5B25733A 
 1285      25645D20 
 1285      636F6D65 
 1286              	.LC6:
 1287 0068 5B25735D 		.ascii	"[%s][%u][%s:%d] come here2!!!\015\012\000"
 1287      5B25755D 
 1287      5B25733A 
 1287      25645D20 
 1287      636F6D65 
 1288              		.section	.rodata.lwm2m_buffer_send.str1.4,"aMS",%progbits,1
 1289              		.align	2
 1290              	.LC14:
 1291 0000 5B25735D 		.ascii	"[%s][%u][%s:%d] #> failed sending %lu bytes, missin"
 1291      5B25755D 
 1291      5B25733A 
 1291      25645D20 
 1291      233E2066 
 1292 0033 6720636F 		.ascii	"g connection\015\012\015\012\000"
 1292      6E6E6563 
 1292      74696F6E 
 1292      0D0A0D0A 
ARM GAS  c:\Users\lenovo\AppData\Local\Temp\ccaOosBf.s 			page 36


 1292      00
 1293              	.LC15:
 1294 0044 5B25735D 		.ascii	"[%s][%u][%s:%d] call connection_send in lwm2m_buffe"
 1294      5B25755D 
 1294      5B25733A 
 1294      25645D20 
 1294      63616C6C 
 1295 0077 725F7365 		.ascii	"r_send, length is %d\012\015\012\000"
 1295      6E642C20 
 1295      6C656E67 
 1295      74682069 
 1295      73202564 
 1296              		.section	.rodata.lwm2m_connect_server.str1.4,"aMS",%progbits,1
 1297              		.align	2
 1298              	.LC11:
 1299 0000 5B25735D 		.ascii	"[%s][%u][%s:%d] Now come into Connection creation i"
 1299      5B25755D 
 1299      5B25733A 
 1299      25645D20 
 1299      4E6F7720 
 1300 0033 6E206C77 		.ascii	"n lwm2m_connect_server %d.\012\015\012\000"
 1300      6D326D5F 
 1300      636F6E6E 
 1300      6563745F 
 1300      73657276 
 1301 0051 000000   		.space	3
 1302              	.LC12:
 1303 0054 5B25735D 		.ascii	"[%s][%u][%s:%d] Connection creation failed.\012\015"
 1303      5B25755D 
 1303      5B25733A 
 1303      25645D20 
 1303      436F6E6E 
 1304 0081 0A00     		.ascii	"\012\000"
 1305 0083 00       		.space	1
 1306              	.LC13:
 1307 0084 5B25735D 		.ascii	"[%s][%u][%s:%d] Connection creation successfully in"
 1307      5B25755D 
 1307      5B25733A 
 1307      25645D20 
 1307      436F6E6E 
 1308 00b7 206C776D 		.ascii	" lwm2m_connect_server.\012\015\012\000"
 1308      326D5F63 
 1308      6F6E6E65 
 1308      63745F73 
 1308      65727665 
 1309              		.text
 1310              	.Letext0:
 1311              		.file 2 "c:\\program files (x86)\\liteos studio\\resources\\arm-none-eabi\\arm-none-eabi\\include\
 1312              		.file 3 "c:\\program files (x86)\\liteos studio\\resources\\arm-none-eabi\\lib\\gcc\\arm-none-eabi
 1313              		.file 4 "c:\\program files (x86)\\liteos studio\\resources\\arm-none-eabi\\arm-none-eabi\\include\
 1314              		.file 5 "c:\\program files (x86)\\liteos studio\\resources\\arm-none-eabi\\arm-none-eabi\\include\
 1315              		.file 6 "c:\\program files (x86)\\liteos studio\\resources\\arm-none-eabi\\arm-none-eabi\\include\
 1316              		.file 7 "c:\\program files (x86)\\liteos studio\\resources\\arm-none-eabi\\arm-none-eabi\\include\
 1317              		.file 8 "c:\\program files (x86)\\liteos studio\\resources\\arm-none-eabi\\arm-none-eabi\\include\
 1318              		.file 9 "c:\\program files (x86)\\liteos studio\\resources\\arm-none-eabi\\arm-none-eabi\\include\
 1319              		.file 10 "c:\\program files (x86)\\liteos studio\\resources\\arm-none-eabi\\arm-none-eabi\\include
 1320              		.file 11 "C:/Users/lenovo/Desktop/liteos/Project2/BearPi_LiteOS/components/connectivity/lwm2m/core
ARM GAS  c:\Users\lenovo\AppData\Local\Temp\ccaOosBf.s 			page 37


 1321              		.file 12 "C:/Users/lenovo/Desktop/liteos/Project2/BearPi_LiteOS/components/connectivity/lwm2m/core
 1322              		.file 13 "C:/Users/lenovo/Desktop/liteos/Project2/BearPi_LiteOS/kernel/include/los_typedef.h"
 1323              		.file 14 "C:/Users/lenovo/Desktop/liteos/Project2/BearPi_LiteOS/arch/arm/common/cmsis/core_cm4.h"
 1324              		.file 15 "C:/Users/lenovo/Desktop/liteos/Project2/BearPi_LiteOS/targets/STM32L431_BearPi/Inc/syste
 1325              		.file 16 "C:/Users/lenovo/Desktop/liteos/Project2/BearPi_LiteOS/kernel/include/los_list.h"
 1326              		.file 17 "C:/Users/lenovo/Desktop/liteos/Project2/BearPi_LiteOS/kernel/include/los_err.h"
 1327              		.file 18 "C:/Users/lenovo/Desktop/liteos/Project2/BearPi_LiteOS/arch/arm/arm-m/include/los_hwi.h"
 1328              		.file 19 "C:/Users/lenovo/Desktop/liteos/Project2/BearPi_LiteOS/kernel/include/los_tick.h"
 1329              		.file 20 "C:/Users/lenovo/Desktop/liteos/Project2/BearPi_LiteOS/kernel/include/los_event.h"
 1330              		.file 21 "C:/Users/lenovo/Desktop/liteos/Project2/BearPi_LiteOS/kernel/include/los_task.h"
 1331              		.file 22 "C:/Users/lenovo/Desktop/liteos/Project2/BearPi_LiteOS/kernel/base/include/los_task.ph"
 1332              		.file 23 "C:/Users/lenovo/Desktop/liteos/Project2/BearPi_LiteOS/targets/STM32L431_BearPi/Inc/main.
 1333              		.file 24 "C:/Users/lenovo/Desktop/liteos/Project2/BearPi_LiteOS/targets/STM32L431_BearPi/OS_CONFIG
 1334              		.file 25 "C:/Users/lenovo/Desktop/liteos/Project2/BearPi_LiteOS/kernel/include/los_config.h"
 1335              		.file 26 "C:/Users/lenovo/Desktop/liteos/Project2/BearPi_LiteOS/components/connectivity/lwm2m/core
 1336              		.file 27 "C:/Users/lenovo/Desktop/liteos/Project2/BearPi_LiteOS/components/connectivity/agent_tiny
 1337              		.file 28 "C:/Users/lenovo/Desktop/liteos/Project2/BearPi_LiteOS/include/log/atiny_log.h"
 1338              		.file 29 "c:\\program files (x86)\\liteos studio\\resources\\arm-none-eabi\\arm-none-eabi\\include
 1339              		.file 30 "C:/Users/lenovo/Desktop/liteos/Project2/BearPi_LiteOS/components/connectivity/agent_tiny
 1340              		.file 31 "C:/Users/lenovo/Desktop/liteos/Project2/BearPi_LiteOS/include/osdepends/atiny_osdep.h"
 1341              		.file 32 "C:/Users/lenovo/Desktop/liteos/Project2/BearPi_LiteOS/include/sal/atiny_socket.h"
 1342              		.file 33 "c:\\program files (x86)\\liteos studio\\resources\\arm-none-eabi\\arm-none-eabi\\include
ARM GAS  c:\Users\lenovo\AppData\Local\Temp\ccaOosBf.s 			page 38

