ARM GAS  c:\Users\lenovo\AppData\Local\Temp\ccubMjjd.s 			page 1


   1              		.cpu cortex-m4
   2              		.eabi_attribute 27, 1
   3              		.eabi_attribute 28, 1
   4              		.eabi_attribute 20, 1
   5              		.eabi_attribute 21, 1
   6              		.eabi_attribute 23, 3
   7              		.eabi_attribute 24, 1
   8              		.eabi_attribute 25, 1
   9              		.eabi_attribute 26, 1
  10              		.eabi_attribute 30, 1
  11              		.eabi_attribute 34, 1
  12              		.eabi_attribute 18, 4
  13              		.file	"ctr_drbg.c"
  14              		.text
  15              	.Ltext0:
  16              		.cfi_sections	.debug_frame
  17              		.section	.text.mbedtls_zeroize,"ax",%progbits
  18              		.align	1
  19              		.syntax unified
  20              		.thumb
  21              		.thumb_func
  22              		.fpu fpv4-sp-d16
  24              	mbedtls_zeroize:
  25              	.LFB0:
  26              		.file 1 "C:/Users/lenovo/Desktop/liteos/Project2/BearPi_LiteOS/components/security/mbedtls/mbedtls
   1:C:/Users/lenovo/Desktop/liteos/Project2/BearPi_LiteOS/components/security/mbedtls/mbedtls-2.6.0/library\ctr_drbg.c **** /*
   2:C:/Users/lenovo/Desktop/liteos/Project2/BearPi_LiteOS/components/security/mbedtls/mbedtls-2.6.0/library\ctr_drbg.c ****  *  CTR_DRBG implementation based on AES-256 (NIST SP 800-90)
   3:C:/Users/lenovo/Desktop/liteos/Project2/BearPi_LiteOS/components/security/mbedtls/mbedtls-2.6.0/library\ctr_drbg.c ****  *
   4:C:/Users/lenovo/Desktop/liteos/Project2/BearPi_LiteOS/components/security/mbedtls/mbedtls-2.6.0/library\ctr_drbg.c ****  *  Copyright (C) 2006-2015, ARM Limited, All Rights Reserved
   5:C:/Users/lenovo/Desktop/liteos/Project2/BearPi_LiteOS/components/security/mbedtls/mbedtls-2.6.0/library\ctr_drbg.c ****  *  SPDX-License-Identifier: Apache-2.0
   6:C:/Users/lenovo/Desktop/liteos/Project2/BearPi_LiteOS/components/security/mbedtls/mbedtls-2.6.0/library\ctr_drbg.c ****  *
   7:C:/Users/lenovo/Desktop/liteos/Project2/BearPi_LiteOS/components/security/mbedtls/mbedtls-2.6.0/library\ctr_drbg.c ****  *  Licensed under the Apache License, Version 2.0 (the "License"); you may
   8:C:/Users/lenovo/Desktop/liteos/Project2/BearPi_LiteOS/components/security/mbedtls/mbedtls-2.6.0/library\ctr_drbg.c ****  *  not use this file except in compliance with the License.
   9:C:/Users/lenovo/Desktop/liteos/Project2/BearPi_LiteOS/components/security/mbedtls/mbedtls-2.6.0/library\ctr_drbg.c ****  *  You may obtain a copy of the License at
  10:C:/Users/lenovo/Desktop/liteos/Project2/BearPi_LiteOS/components/security/mbedtls/mbedtls-2.6.0/library\ctr_drbg.c ****  *
  11:C:/Users/lenovo/Desktop/liteos/Project2/BearPi_LiteOS/components/security/mbedtls/mbedtls-2.6.0/library\ctr_drbg.c ****  *  http://www.apache.org/licenses/LICENSE-2.0
  12:C:/Users/lenovo/Desktop/liteos/Project2/BearPi_LiteOS/components/security/mbedtls/mbedtls-2.6.0/library\ctr_drbg.c ****  *
  13:C:/Users/lenovo/Desktop/liteos/Project2/BearPi_LiteOS/components/security/mbedtls/mbedtls-2.6.0/library\ctr_drbg.c ****  *  Unless required by applicable law or agreed to in writing, software
  14:C:/Users/lenovo/Desktop/liteos/Project2/BearPi_LiteOS/components/security/mbedtls/mbedtls-2.6.0/library\ctr_drbg.c ****  *  distributed under the License is distributed on an "AS IS" BASIS, WITHOUT
  15:C:/Users/lenovo/Desktop/liteos/Project2/BearPi_LiteOS/components/security/mbedtls/mbedtls-2.6.0/library\ctr_drbg.c ****  *  WARRANTIES OR CONDITIONS OF ANY KIND, either express or implied.
  16:C:/Users/lenovo/Desktop/liteos/Project2/BearPi_LiteOS/components/security/mbedtls/mbedtls-2.6.0/library\ctr_drbg.c ****  *  See the License for the specific language governing permissions and
  17:C:/Users/lenovo/Desktop/liteos/Project2/BearPi_LiteOS/components/security/mbedtls/mbedtls-2.6.0/library\ctr_drbg.c ****  *  limitations under the License.
  18:C:/Users/lenovo/Desktop/liteos/Project2/BearPi_LiteOS/components/security/mbedtls/mbedtls-2.6.0/library\ctr_drbg.c ****  *
  19:C:/Users/lenovo/Desktop/liteos/Project2/BearPi_LiteOS/components/security/mbedtls/mbedtls-2.6.0/library\ctr_drbg.c ****  *  This file is part of mbed TLS (https://tls.mbed.org)
  20:C:/Users/lenovo/Desktop/liteos/Project2/BearPi_LiteOS/components/security/mbedtls/mbedtls-2.6.0/library\ctr_drbg.c ****  */
  21:C:/Users/lenovo/Desktop/liteos/Project2/BearPi_LiteOS/components/security/mbedtls/mbedtls-2.6.0/library\ctr_drbg.c **** /*
  22:C:/Users/lenovo/Desktop/liteos/Project2/BearPi_LiteOS/components/security/mbedtls/mbedtls-2.6.0/library\ctr_drbg.c ****  *  The NIST SP 800-90 DRBGs are described in the following publucation.
  23:C:/Users/lenovo/Desktop/liteos/Project2/BearPi_LiteOS/components/security/mbedtls/mbedtls-2.6.0/library\ctr_drbg.c ****  *
  24:C:/Users/lenovo/Desktop/liteos/Project2/BearPi_LiteOS/components/security/mbedtls/mbedtls-2.6.0/library\ctr_drbg.c ****  *  http://csrc.nist.gov/publications/nistpubs/800-90/SP800-90revised_March2007.pdf
  25:C:/Users/lenovo/Desktop/liteos/Project2/BearPi_LiteOS/components/security/mbedtls/mbedtls-2.6.0/library\ctr_drbg.c ****  */
  26:C:/Users/lenovo/Desktop/liteos/Project2/BearPi_LiteOS/components/security/mbedtls/mbedtls-2.6.0/library\ctr_drbg.c **** 
  27:C:/Users/lenovo/Desktop/liteos/Project2/BearPi_LiteOS/components/security/mbedtls/mbedtls-2.6.0/library\ctr_drbg.c **** #if !defined(MBEDTLS_CONFIG_FILE)
  28:C:/Users/lenovo/Desktop/liteos/Project2/BearPi_LiteOS/components/security/mbedtls/mbedtls-2.6.0/library\ctr_drbg.c **** #include "mbedtls/config.h"
  29:C:/Users/lenovo/Desktop/liteos/Project2/BearPi_LiteOS/components/security/mbedtls/mbedtls-2.6.0/library\ctr_drbg.c **** #else
  30:C:/Users/lenovo/Desktop/liteos/Project2/BearPi_LiteOS/components/security/mbedtls/mbedtls-2.6.0/library\ctr_drbg.c **** #include MBEDTLS_CONFIG_FILE
  31:C:/Users/lenovo/Desktop/liteos/Project2/BearPi_LiteOS/components/security/mbedtls/mbedtls-2.6.0/library\ctr_drbg.c **** #endif
  32:C:/Users/lenovo/Desktop/liteos/Project2/BearPi_LiteOS/components/security/mbedtls/mbedtls-2.6.0/library\ctr_drbg.c **** 
ARM GAS  c:\Users\lenovo\AppData\Local\Temp\ccubMjjd.s 			page 2


  33:C:/Users/lenovo/Desktop/liteos/Project2/BearPi_LiteOS/components/security/mbedtls/mbedtls-2.6.0/library\ctr_drbg.c **** #if defined(MBEDTLS_CTR_DRBG_C)
  34:C:/Users/lenovo/Desktop/liteos/Project2/BearPi_LiteOS/components/security/mbedtls/mbedtls-2.6.0/library\ctr_drbg.c **** 
  35:C:/Users/lenovo/Desktop/liteos/Project2/BearPi_LiteOS/components/security/mbedtls/mbedtls-2.6.0/library\ctr_drbg.c **** #include "mbedtls/ctr_drbg.h"
  36:C:/Users/lenovo/Desktop/liteos/Project2/BearPi_LiteOS/components/security/mbedtls/mbedtls-2.6.0/library\ctr_drbg.c **** 
  37:C:/Users/lenovo/Desktop/liteos/Project2/BearPi_LiteOS/components/security/mbedtls/mbedtls-2.6.0/library\ctr_drbg.c **** #include <string.h>
  38:C:/Users/lenovo/Desktop/liteos/Project2/BearPi_LiteOS/components/security/mbedtls/mbedtls-2.6.0/library\ctr_drbg.c **** 
  39:C:/Users/lenovo/Desktop/liteos/Project2/BearPi_LiteOS/components/security/mbedtls/mbedtls-2.6.0/library\ctr_drbg.c **** #if defined(MBEDTLS_FS_IO)
  40:C:/Users/lenovo/Desktop/liteos/Project2/BearPi_LiteOS/components/security/mbedtls/mbedtls-2.6.0/library\ctr_drbg.c **** #include <stdio.h>
  41:C:/Users/lenovo/Desktop/liteos/Project2/BearPi_LiteOS/components/security/mbedtls/mbedtls-2.6.0/library\ctr_drbg.c **** #endif
  42:C:/Users/lenovo/Desktop/liteos/Project2/BearPi_LiteOS/components/security/mbedtls/mbedtls-2.6.0/library\ctr_drbg.c **** 
  43:C:/Users/lenovo/Desktop/liteos/Project2/BearPi_LiteOS/components/security/mbedtls/mbedtls-2.6.0/library\ctr_drbg.c **** #if defined(MBEDTLS_SELF_TEST)
  44:C:/Users/lenovo/Desktop/liteos/Project2/BearPi_LiteOS/components/security/mbedtls/mbedtls-2.6.0/library\ctr_drbg.c **** #if defined(MBEDTLS_PLATFORM_C)
  45:C:/Users/lenovo/Desktop/liteos/Project2/BearPi_LiteOS/components/security/mbedtls/mbedtls-2.6.0/library\ctr_drbg.c **** #include "mbedtls/platform.h"
  46:C:/Users/lenovo/Desktop/liteos/Project2/BearPi_LiteOS/components/security/mbedtls/mbedtls-2.6.0/library\ctr_drbg.c **** #else
  47:C:/Users/lenovo/Desktop/liteos/Project2/BearPi_LiteOS/components/security/mbedtls/mbedtls-2.6.0/library\ctr_drbg.c **** #include <stdio.h>
  48:C:/Users/lenovo/Desktop/liteos/Project2/BearPi_LiteOS/components/security/mbedtls/mbedtls-2.6.0/library\ctr_drbg.c **** #define mbedtls_printf printf
  49:C:/Users/lenovo/Desktop/liteos/Project2/BearPi_LiteOS/components/security/mbedtls/mbedtls-2.6.0/library\ctr_drbg.c **** #endif /* MBEDTLS_PLATFORM_C */
  50:C:/Users/lenovo/Desktop/liteos/Project2/BearPi_LiteOS/components/security/mbedtls/mbedtls-2.6.0/library\ctr_drbg.c **** #endif /* MBEDTLS_SELF_TEST */
  51:C:/Users/lenovo/Desktop/liteos/Project2/BearPi_LiteOS/components/security/mbedtls/mbedtls-2.6.0/library\ctr_drbg.c **** 
  52:C:/Users/lenovo/Desktop/liteos/Project2/BearPi_LiteOS/components/security/mbedtls/mbedtls-2.6.0/library\ctr_drbg.c **** /* Implementation that should never be optimized out by the compiler */
  53:C:/Users/lenovo/Desktop/liteos/Project2/BearPi_LiteOS/components/security/mbedtls/mbedtls-2.6.0/library\ctr_drbg.c **** static void mbedtls_zeroize( void *v, size_t n ) {
  27              		.loc 1 53 0
  28              		.cfi_startproc
  29              		@ args = 0, pretend = 0, frame = 0
  30              		@ frame_needed = 0, uses_anonymous_args = 0
  31              		@ link register save eliminated.
  32              	.LVL0:
  54:C:/Users/lenovo/Desktop/liteos/Project2/BearPi_LiteOS/components/security/mbedtls/mbedtls-2.6.0/library\ctr_drbg.c ****     volatile unsigned char *p = v; while( n-- ) *p++ = 0;
  33              		.loc 1 54 0
  34 0000 03E0     		b	.L2
  35              	.LVL1:
  36              	.L3:
  37              		.loc 1 54 0 is_stmt 0 discriminator 3
  38 0002 0022     		movs	r2, #0
  39 0004 0270     		strb	r2, [r0]
  40 0006 0130     		adds	r0, r0, #1
  41              	.LVL2:
  42 0008 1946     		mov	r1, r3
  43              	.LVL3:
  44              	.L2:
  45              		.loc 1 54 0 discriminator 1
  46 000a 4B1E     		subs	r3, r1, #1
  47              	.LVL4:
  48 000c 0029     		cmp	r1, #0
  49 000e F8D1     		bne	.L3
  55:C:/Users/lenovo/Desktop/liteos/Project2/BearPi_LiteOS/components/security/mbedtls/mbedtls-2.6.0/library\ctr_drbg.c **** }
  50              		.loc 1 55 0 is_stmt 1
  51 0010 7047     		bx	lr
  52              		.cfi_endproc
  53              	.LFE0:
  55              		.section	.text.block_cipher_df,"ax",%progbits
  56              		.align	1
  57              		.syntax unified
  58              		.thumb
  59              		.thumb_func
  60              		.fpu fpv4-sp-d16
  62              	block_cipher_df:
ARM GAS  c:\Users\lenovo\AppData\Local\Temp\ccubMjjd.s 			page 3


  63              	.LFB8:
  56:C:/Users/lenovo/Desktop/liteos/Project2/BearPi_LiteOS/components/security/mbedtls/mbedtls-2.6.0/library\ctr_drbg.c **** 
  57:C:/Users/lenovo/Desktop/liteos/Project2/BearPi_LiteOS/components/security/mbedtls/mbedtls-2.6.0/library\ctr_drbg.c **** /*
  58:C:/Users/lenovo/Desktop/liteos/Project2/BearPi_LiteOS/components/security/mbedtls/mbedtls-2.6.0/library\ctr_drbg.c ****  * CTR_DRBG context initialization
  59:C:/Users/lenovo/Desktop/liteos/Project2/BearPi_LiteOS/components/security/mbedtls/mbedtls-2.6.0/library\ctr_drbg.c ****  */
  60:C:/Users/lenovo/Desktop/liteos/Project2/BearPi_LiteOS/components/security/mbedtls/mbedtls-2.6.0/library\ctr_drbg.c **** void mbedtls_ctr_drbg_init( mbedtls_ctr_drbg_context *ctx )
  61:C:/Users/lenovo/Desktop/liteos/Project2/BearPi_LiteOS/components/security/mbedtls/mbedtls-2.6.0/library\ctr_drbg.c **** {
  62:C:/Users/lenovo/Desktop/liteos/Project2/BearPi_LiteOS/components/security/mbedtls/mbedtls-2.6.0/library\ctr_drbg.c ****     memset( ctx, 0, sizeof( mbedtls_ctr_drbg_context ) );
  63:C:/Users/lenovo/Desktop/liteos/Project2/BearPi_LiteOS/components/security/mbedtls/mbedtls-2.6.0/library\ctr_drbg.c **** 
  64:C:/Users/lenovo/Desktop/liteos/Project2/BearPi_LiteOS/components/security/mbedtls/mbedtls-2.6.0/library\ctr_drbg.c **** #if defined(MBEDTLS_THREADING_C)
  65:C:/Users/lenovo/Desktop/liteos/Project2/BearPi_LiteOS/components/security/mbedtls/mbedtls-2.6.0/library\ctr_drbg.c ****     mbedtls_mutex_init( &ctx->mutex );
  66:C:/Users/lenovo/Desktop/liteos/Project2/BearPi_LiteOS/components/security/mbedtls/mbedtls-2.6.0/library\ctr_drbg.c **** #endif
  67:C:/Users/lenovo/Desktop/liteos/Project2/BearPi_LiteOS/components/security/mbedtls/mbedtls-2.6.0/library\ctr_drbg.c **** }
  68:C:/Users/lenovo/Desktop/liteos/Project2/BearPi_LiteOS/components/security/mbedtls/mbedtls-2.6.0/library\ctr_drbg.c **** 
  69:C:/Users/lenovo/Desktop/liteos/Project2/BearPi_LiteOS/components/security/mbedtls/mbedtls-2.6.0/library\ctr_drbg.c **** /*
  70:C:/Users/lenovo/Desktop/liteos/Project2/BearPi_LiteOS/components/security/mbedtls/mbedtls-2.6.0/library\ctr_drbg.c ****  * Non-public function wrapped by mbedtls_ctr_drbg_seed(). Necessary to allow
  71:C:/Users/lenovo/Desktop/liteos/Project2/BearPi_LiteOS/components/security/mbedtls/mbedtls-2.6.0/library\ctr_drbg.c ****  * NIST tests to succeed (which require known length fixed entropy)
  72:C:/Users/lenovo/Desktop/liteos/Project2/BearPi_LiteOS/components/security/mbedtls/mbedtls-2.6.0/library\ctr_drbg.c ****  */
  73:C:/Users/lenovo/Desktop/liteos/Project2/BearPi_LiteOS/components/security/mbedtls/mbedtls-2.6.0/library\ctr_drbg.c **** int mbedtls_ctr_drbg_seed_entropy_len(
  74:C:/Users/lenovo/Desktop/liteos/Project2/BearPi_LiteOS/components/security/mbedtls/mbedtls-2.6.0/library\ctr_drbg.c ****                    mbedtls_ctr_drbg_context *ctx,
  75:C:/Users/lenovo/Desktop/liteos/Project2/BearPi_LiteOS/components/security/mbedtls/mbedtls-2.6.0/library\ctr_drbg.c ****                    int (*f_entropy)(void *, unsigned char *, size_t),
  76:C:/Users/lenovo/Desktop/liteos/Project2/BearPi_LiteOS/components/security/mbedtls/mbedtls-2.6.0/library\ctr_drbg.c ****                    void *p_entropy,
  77:C:/Users/lenovo/Desktop/liteos/Project2/BearPi_LiteOS/components/security/mbedtls/mbedtls-2.6.0/library\ctr_drbg.c ****                    const unsigned char *custom,
  78:C:/Users/lenovo/Desktop/liteos/Project2/BearPi_LiteOS/components/security/mbedtls/mbedtls-2.6.0/library\ctr_drbg.c ****                    size_t len,
  79:C:/Users/lenovo/Desktop/liteos/Project2/BearPi_LiteOS/components/security/mbedtls/mbedtls-2.6.0/library\ctr_drbg.c ****                    size_t entropy_len )
  80:C:/Users/lenovo/Desktop/liteos/Project2/BearPi_LiteOS/components/security/mbedtls/mbedtls-2.6.0/library\ctr_drbg.c **** {
  81:C:/Users/lenovo/Desktop/liteos/Project2/BearPi_LiteOS/components/security/mbedtls/mbedtls-2.6.0/library\ctr_drbg.c ****     int ret;
  82:C:/Users/lenovo/Desktop/liteos/Project2/BearPi_LiteOS/components/security/mbedtls/mbedtls-2.6.0/library\ctr_drbg.c ****     unsigned char key[MBEDTLS_CTR_DRBG_KEYSIZE];
  83:C:/Users/lenovo/Desktop/liteos/Project2/BearPi_LiteOS/components/security/mbedtls/mbedtls-2.6.0/library\ctr_drbg.c **** 
  84:C:/Users/lenovo/Desktop/liteos/Project2/BearPi_LiteOS/components/security/mbedtls/mbedtls-2.6.0/library\ctr_drbg.c ****     memset( key, 0, MBEDTLS_CTR_DRBG_KEYSIZE );
  85:C:/Users/lenovo/Desktop/liteos/Project2/BearPi_LiteOS/components/security/mbedtls/mbedtls-2.6.0/library\ctr_drbg.c **** 
  86:C:/Users/lenovo/Desktop/liteos/Project2/BearPi_LiteOS/components/security/mbedtls/mbedtls-2.6.0/library\ctr_drbg.c ****     mbedtls_aes_init( &ctx->aes_ctx );
  87:C:/Users/lenovo/Desktop/liteos/Project2/BearPi_LiteOS/components/security/mbedtls/mbedtls-2.6.0/library\ctr_drbg.c **** 
  88:C:/Users/lenovo/Desktop/liteos/Project2/BearPi_LiteOS/components/security/mbedtls/mbedtls-2.6.0/library\ctr_drbg.c ****     ctx->f_entropy = f_entropy;
  89:C:/Users/lenovo/Desktop/liteos/Project2/BearPi_LiteOS/components/security/mbedtls/mbedtls-2.6.0/library\ctr_drbg.c ****     ctx->p_entropy = p_entropy;
  90:C:/Users/lenovo/Desktop/liteos/Project2/BearPi_LiteOS/components/security/mbedtls/mbedtls-2.6.0/library\ctr_drbg.c **** 
  91:C:/Users/lenovo/Desktop/liteos/Project2/BearPi_LiteOS/components/security/mbedtls/mbedtls-2.6.0/library\ctr_drbg.c ****     ctx->entropy_len = entropy_len;
  92:C:/Users/lenovo/Desktop/liteos/Project2/BearPi_LiteOS/components/security/mbedtls/mbedtls-2.6.0/library\ctr_drbg.c ****     ctx->reseed_interval = MBEDTLS_CTR_DRBG_RESEED_INTERVAL;
  93:C:/Users/lenovo/Desktop/liteos/Project2/BearPi_LiteOS/components/security/mbedtls/mbedtls-2.6.0/library\ctr_drbg.c **** 
  94:C:/Users/lenovo/Desktop/liteos/Project2/BearPi_LiteOS/components/security/mbedtls/mbedtls-2.6.0/library\ctr_drbg.c ****     /*
  95:C:/Users/lenovo/Desktop/liteos/Project2/BearPi_LiteOS/components/security/mbedtls/mbedtls-2.6.0/library\ctr_drbg.c ****      * Initialize with an empty key
  96:C:/Users/lenovo/Desktop/liteos/Project2/BearPi_LiteOS/components/security/mbedtls/mbedtls-2.6.0/library\ctr_drbg.c ****      */
  97:C:/Users/lenovo/Desktop/liteos/Project2/BearPi_LiteOS/components/security/mbedtls/mbedtls-2.6.0/library\ctr_drbg.c ****     mbedtls_aes_setkey_enc( &ctx->aes_ctx, key, MBEDTLS_CTR_DRBG_KEYBITS );
  98:C:/Users/lenovo/Desktop/liteos/Project2/BearPi_LiteOS/components/security/mbedtls/mbedtls-2.6.0/library\ctr_drbg.c **** 
  99:C:/Users/lenovo/Desktop/liteos/Project2/BearPi_LiteOS/components/security/mbedtls/mbedtls-2.6.0/library\ctr_drbg.c ****     if( ( ret = mbedtls_ctr_drbg_reseed( ctx, custom, len ) ) != 0 )
 100:C:/Users/lenovo/Desktop/liteos/Project2/BearPi_LiteOS/components/security/mbedtls/mbedtls-2.6.0/library\ctr_drbg.c ****         return( ret );
 101:C:/Users/lenovo/Desktop/liteos/Project2/BearPi_LiteOS/components/security/mbedtls/mbedtls-2.6.0/library\ctr_drbg.c **** 
 102:C:/Users/lenovo/Desktop/liteos/Project2/BearPi_LiteOS/components/security/mbedtls/mbedtls-2.6.0/library\ctr_drbg.c ****     return( 0 );
 103:C:/Users/lenovo/Desktop/liteos/Project2/BearPi_LiteOS/components/security/mbedtls/mbedtls-2.6.0/library\ctr_drbg.c **** }
 104:C:/Users/lenovo/Desktop/liteos/Project2/BearPi_LiteOS/components/security/mbedtls/mbedtls-2.6.0/library\ctr_drbg.c **** 
 105:C:/Users/lenovo/Desktop/liteos/Project2/BearPi_LiteOS/components/security/mbedtls/mbedtls-2.6.0/library\ctr_drbg.c **** int mbedtls_ctr_drbg_seed( mbedtls_ctr_drbg_context *ctx,
 106:C:/Users/lenovo/Desktop/liteos/Project2/BearPi_LiteOS/components/security/mbedtls/mbedtls-2.6.0/library\ctr_drbg.c ****                    int (*f_entropy)(void *, unsigned char *, size_t),
 107:C:/Users/lenovo/Desktop/liteos/Project2/BearPi_LiteOS/components/security/mbedtls/mbedtls-2.6.0/library\ctr_drbg.c ****                    void *p_entropy,
 108:C:/Users/lenovo/Desktop/liteos/Project2/BearPi_LiteOS/components/security/mbedtls/mbedtls-2.6.0/library\ctr_drbg.c ****                    const unsigned char *custom,
 109:C:/Users/lenovo/Desktop/liteos/Project2/BearPi_LiteOS/components/security/mbedtls/mbedtls-2.6.0/library\ctr_drbg.c ****                    size_t len )
 110:C:/Users/lenovo/Desktop/liteos/Project2/BearPi_LiteOS/components/security/mbedtls/mbedtls-2.6.0/library\ctr_drbg.c **** {
 111:C:/Users/lenovo/Desktop/liteos/Project2/BearPi_LiteOS/components/security/mbedtls/mbedtls-2.6.0/library\ctr_drbg.c ****     return( mbedtls_ctr_drbg_seed_entropy_len( ctx, f_entropy, p_entropy, custom, len,
ARM GAS  c:\Users\lenovo\AppData\Local\Temp\ccubMjjd.s 			page 4


 112:C:/Users/lenovo/Desktop/liteos/Project2/BearPi_LiteOS/components/security/mbedtls/mbedtls-2.6.0/library\ctr_drbg.c ****                                        MBEDTLS_CTR_DRBG_ENTROPY_LEN ) );
 113:C:/Users/lenovo/Desktop/liteos/Project2/BearPi_LiteOS/components/security/mbedtls/mbedtls-2.6.0/library\ctr_drbg.c **** }
 114:C:/Users/lenovo/Desktop/liteos/Project2/BearPi_LiteOS/components/security/mbedtls/mbedtls-2.6.0/library\ctr_drbg.c **** 
 115:C:/Users/lenovo/Desktop/liteos/Project2/BearPi_LiteOS/components/security/mbedtls/mbedtls-2.6.0/library\ctr_drbg.c **** void mbedtls_ctr_drbg_free( mbedtls_ctr_drbg_context *ctx )
 116:C:/Users/lenovo/Desktop/liteos/Project2/BearPi_LiteOS/components/security/mbedtls/mbedtls-2.6.0/library\ctr_drbg.c **** {
 117:C:/Users/lenovo/Desktop/liteos/Project2/BearPi_LiteOS/components/security/mbedtls/mbedtls-2.6.0/library\ctr_drbg.c ****     if( ctx == NULL )
 118:C:/Users/lenovo/Desktop/liteos/Project2/BearPi_LiteOS/components/security/mbedtls/mbedtls-2.6.0/library\ctr_drbg.c ****         return;
 119:C:/Users/lenovo/Desktop/liteos/Project2/BearPi_LiteOS/components/security/mbedtls/mbedtls-2.6.0/library\ctr_drbg.c **** 
 120:C:/Users/lenovo/Desktop/liteos/Project2/BearPi_LiteOS/components/security/mbedtls/mbedtls-2.6.0/library\ctr_drbg.c **** #if defined(MBEDTLS_THREADING_C)
 121:C:/Users/lenovo/Desktop/liteos/Project2/BearPi_LiteOS/components/security/mbedtls/mbedtls-2.6.0/library\ctr_drbg.c ****     mbedtls_mutex_free( &ctx->mutex );
 122:C:/Users/lenovo/Desktop/liteos/Project2/BearPi_LiteOS/components/security/mbedtls/mbedtls-2.6.0/library\ctr_drbg.c **** #endif
 123:C:/Users/lenovo/Desktop/liteos/Project2/BearPi_LiteOS/components/security/mbedtls/mbedtls-2.6.0/library\ctr_drbg.c ****     mbedtls_aes_free( &ctx->aes_ctx );
 124:C:/Users/lenovo/Desktop/liteos/Project2/BearPi_LiteOS/components/security/mbedtls/mbedtls-2.6.0/library\ctr_drbg.c ****     mbedtls_zeroize( ctx, sizeof( mbedtls_ctr_drbg_context ) );
 125:C:/Users/lenovo/Desktop/liteos/Project2/BearPi_LiteOS/components/security/mbedtls/mbedtls-2.6.0/library\ctr_drbg.c **** }
 126:C:/Users/lenovo/Desktop/liteos/Project2/BearPi_LiteOS/components/security/mbedtls/mbedtls-2.6.0/library\ctr_drbg.c **** 
 127:C:/Users/lenovo/Desktop/liteos/Project2/BearPi_LiteOS/components/security/mbedtls/mbedtls-2.6.0/library\ctr_drbg.c **** void mbedtls_ctr_drbg_set_prediction_resistance( mbedtls_ctr_drbg_context *ctx, int resistance )
 128:C:/Users/lenovo/Desktop/liteos/Project2/BearPi_LiteOS/components/security/mbedtls/mbedtls-2.6.0/library\ctr_drbg.c **** {
 129:C:/Users/lenovo/Desktop/liteos/Project2/BearPi_LiteOS/components/security/mbedtls/mbedtls-2.6.0/library\ctr_drbg.c ****     ctx->prediction_resistance = resistance;
 130:C:/Users/lenovo/Desktop/liteos/Project2/BearPi_LiteOS/components/security/mbedtls/mbedtls-2.6.0/library\ctr_drbg.c **** }
 131:C:/Users/lenovo/Desktop/liteos/Project2/BearPi_LiteOS/components/security/mbedtls/mbedtls-2.6.0/library\ctr_drbg.c **** 
 132:C:/Users/lenovo/Desktop/liteos/Project2/BearPi_LiteOS/components/security/mbedtls/mbedtls-2.6.0/library\ctr_drbg.c **** void mbedtls_ctr_drbg_set_entropy_len( mbedtls_ctr_drbg_context *ctx, size_t len )
 133:C:/Users/lenovo/Desktop/liteos/Project2/BearPi_LiteOS/components/security/mbedtls/mbedtls-2.6.0/library\ctr_drbg.c **** {
 134:C:/Users/lenovo/Desktop/liteos/Project2/BearPi_LiteOS/components/security/mbedtls/mbedtls-2.6.0/library\ctr_drbg.c ****     ctx->entropy_len = len;
 135:C:/Users/lenovo/Desktop/liteos/Project2/BearPi_LiteOS/components/security/mbedtls/mbedtls-2.6.0/library\ctr_drbg.c **** }
 136:C:/Users/lenovo/Desktop/liteos/Project2/BearPi_LiteOS/components/security/mbedtls/mbedtls-2.6.0/library\ctr_drbg.c **** 
 137:C:/Users/lenovo/Desktop/liteos/Project2/BearPi_LiteOS/components/security/mbedtls/mbedtls-2.6.0/library\ctr_drbg.c **** void mbedtls_ctr_drbg_set_reseed_interval( mbedtls_ctr_drbg_context *ctx, int interval )
 138:C:/Users/lenovo/Desktop/liteos/Project2/BearPi_LiteOS/components/security/mbedtls/mbedtls-2.6.0/library\ctr_drbg.c **** {
 139:C:/Users/lenovo/Desktop/liteos/Project2/BearPi_LiteOS/components/security/mbedtls/mbedtls-2.6.0/library\ctr_drbg.c ****     ctx->reseed_interval = interval;
 140:C:/Users/lenovo/Desktop/liteos/Project2/BearPi_LiteOS/components/security/mbedtls/mbedtls-2.6.0/library\ctr_drbg.c **** }
 141:C:/Users/lenovo/Desktop/liteos/Project2/BearPi_LiteOS/components/security/mbedtls/mbedtls-2.6.0/library\ctr_drbg.c **** 
 142:C:/Users/lenovo/Desktop/liteos/Project2/BearPi_LiteOS/components/security/mbedtls/mbedtls-2.6.0/library\ctr_drbg.c **** static int block_cipher_df( unsigned char *output,
 143:C:/Users/lenovo/Desktop/liteos/Project2/BearPi_LiteOS/components/security/mbedtls/mbedtls-2.6.0/library\ctr_drbg.c ****                             const unsigned char *data, size_t data_len )
 144:C:/Users/lenovo/Desktop/liteos/Project2/BearPi_LiteOS/components/security/mbedtls/mbedtls-2.6.0/library\ctr_drbg.c **** {
  64              		.loc 1 144 0
  65              		.cfi_startproc
  66              		@ args = 0, pretend = 0, frame = 792
  67              		@ frame_needed = 0, uses_anonymous_args = 0
  68              	.LVL5:
 145:C:/Users/lenovo/Desktop/liteos/Project2/BearPi_LiteOS/components/security/mbedtls/mbedtls-2.6.0/library\ctr_drbg.c ****     unsigned char buf[MBEDTLS_CTR_DRBG_MAX_SEED_INPUT + MBEDTLS_CTR_DRBG_BLOCKSIZE + 16];
 146:C:/Users/lenovo/Desktop/liteos/Project2/BearPi_LiteOS/components/security/mbedtls/mbedtls-2.6.0/library\ctr_drbg.c ****     unsigned char tmp[MBEDTLS_CTR_DRBG_SEEDLEN];
 147:C:/Users/lenovo/Desktop/liteos/Project2/BearPi_LiteOS/components/security/mbedtls/mbedtls-2.6.0/library\ctr_drbg.c ****     unsigned char key[MBEDTLS_CTR_DRBG_KEYSIZE];
 148:C:/Users/lenovo/Desktop/liteos/Project2/BearPi_LiteOS/components/security/mbedtls/mbedtls-2.6.0/library\ctr_drbg.c ****     unsigned char chain[MBEDTLS_CTR_DRBG_BLOCKSIZE];
 149:C:/Users/lenovo/Desktop/liteos/Project2/BearPi_LiteOS/components/security/mbedtls/mbedtls-2.6.0/library\ctr_drbg.c ****     unsigned char *p, *iv;
 150:C:/Users/lenovo/Desktop/liteos/Project2/BearPi_LiteOS/components/security/mbedtls/mbedtls-2.6.0/library\ctr_drbg.c ****     mbedtls_aes_context aes_ctx;
 151:C:/Users/lenovo/Desktop/liteos/Project2/BearPi_LiteOS/components/security/mbedtls/mbedtls-2.6.0/library\ctr_drbg.c **** 
 152:C:/Users/lenovo/Desktop/liteos/Project2/BearPi_LiteOS/components/security/mbedtls/mbedtls-2.6.0/library\ctr_drbg.c ****     int i, j;
 153:C:/Users/lenovo/Desktop/liteos/Project2/BearPi_LiteOS/components/security/mbedtls/mbedtls-2.6.0/library\ctr_drbg.c ****     size_t buf_len, use_len;
 154:C:/Users/lenovo/Desktop/liteos/Project2/BearPi_LiteOS/components/security/mbedtls/mbedtls-2.6.0/library\ctr_drbg.c **** 
 155:C:/Users/lenovo/Desktop/liteos/Project2/BearPi_LiteOS/components/security/mbedtls/mbedtls-2.6.0/library\ctr_drbg.c ****     if( data_len > MBEDTLS_CTR_DRBG_MAX_SEED_INPUT )
  69              		.loc 1 155 0
  70 0000 B2F5C07F 		cmp	r2, #384
  71 0004 00F28C80 		bhi	.L15
 144:C:/Users/lenovo/Desktop/liteos/Project2/BearPi_LiteOS/components/security/mbedtls/mbedtls-2.6.0/library\ctr_drbg.c ****     unsigned char buf[MBEDTLS_CTR_DRBG_MAX_SEED_INPUT + MBEDTLS_CTR_DRBG_BLOCKSIZE + 16];
  72              		.loc 1 144 0
  73 0008 2DE9F041 		push	{r4, r5, r6, r7, r8, lr}
  74              	.LCFI0:
  75              		.cfi_def_cfa_offset 24
ARM GAS  c:\Users\lenovo\AppData\Local\Temp\ccubMjjd.s 			page 5


  76              		.cfi_offset 4, -24
  77              		.cfi_offset 5, -20
  78              		.cfi_offset 6, -16
  79              		.cfi_offset 7, -12
  80              		.cfi_offset 8, -8
  81              		.cfi_offset 14, -4
  82 000c ADF5467D 		sub	sp, sp, #792
  83              	.LCFI1:
  84              		.cfi_def_cfa_offset 816
  85 0010 0646     		mov	r6, r0
  86 0012 0D46     		mov	r5, r1
  87 0014 9046     		mov	r8, r2
 156:C:/Users/lenovo/Desktop/liteos/Project2/BearPi_LiteOS/components/security/mbedtls/mbedtls-2.6.0/library\ctr_drbg.c ****         return( MBEDTLS_ERR_CTR_DRBG_INPUT_TOO_BIG );
 157:C:/Users/lenovo/Desktop/liteos/Project2/BearPi_LiteOS/components/security/mbedtls/mbedtls-2.6.0/library\ctr_drbg.c **** 
 158:C:/Users/lenovo/Desktop/liteos/Project2/BearPi_LiteOS/components/security/mbedtls/mbedtls-2.6.0/library\ctr_drbg.c ****     memset( buf, 0, MBEDTLS_CTR_DRBG_MAX_SEED_INPUT + MBEDTLS_CTR_DRBG_BLOCKSIZE + 16 );
  88              		.loc 1 158 0
  89 0016 4FF4D072 		mov	r2, #416
  90              	.LVL6:
  91 001a 0021     		movs	r1, #0
  92              	.LVL7:
  93 001c 5EA8     		add	r0, sp, #376
  94              	.LVL8:
  95 001e FFF7FEFF 		bl	memset
  96              	.LVL9:
 159:C:/Users/lenovo/Desktop/liteos/Project2/BearPi_LiteOS/components/security/mbedtls/mbedtls-2.6.0/library\ctr_drbg.c ****     mbedtls_aes_init( &aes_ctx );
  97              		.loc 1 159 0
  98 0022 6846     		mov	r0, sp
  99 0024 FFF7FEFF 		bl	mbedtls_aes_init
 100              	.LVL10:
 160:C:/Users/lenovo/Desktop/liteos/Project2/BearPi_LiteOS/components/security/mbedtls/mbedtls-2.6.0/library\ctr_drbg.c **** 
 161:C:/Users/lenovo/Desktop/liteos/Project2/BearPi_LiteOS/components/security/mbedtls/mbedtls-2.6.0/library\ctr_drbg.c ****     /*
 162:C:/Users/lenovo/Desktop/liteos/Project2/BearPi_LiteOS/components/security/mbedtls/mbedtls-2.6.0/library\ctr_drbg.c ****      * Construct IV (16 bytes) and S in buffer
 163:C:/Users/lenovo/Desktop/liteos/Project2/BearPi_LiteOS/components/security/mbedtls/mbedtls-2.6.0/library\ctr_drbg.c ****      * IV = Counter (in 32-bits) padded to 16 with zeroes
 164:C:/Users/lenovo/Desktop/liteos/Project2/BearPi_LiteOS/components/security/mbedtls/mbedtls-2.6.0/library\ctr_drbg.c ****      * S = Length input string (in 32-bits) || Length of output (in 32-bits) ||
 165:C:/Users/lenovo/Desktop/liteos/Project2/BearPi_LiteOS/components/security/mbedtls/mbedtls-2.6.0/library\ctr_drbg.c ****      *     data || 0x80
 166:C:/Users/lenovo/Desktop/liteos/Project2/BearPi_LiteOS/components/security/mbedtls/mbedtls-2.6.0/library\ctr_drbg.c ****      *     (Total is padded to a multiple of 16-bytes with zeroes)
 167:C:/Users/lenovo/Desktop/liteos/Project2/BearPi_LiteOS/components/security/mbedtls/mbedtls-2.6.0/library\ctr_drbg.c ****      */
 168:C:/Users/lenovo/Desktop/liteos/Project2/BearPi_LiteOS/components/security/mbedtls/mbedtls-2.6.0/library\ctr_drbg.c ****     p = buf + MBEDTLS_CTR_DRBG_BLOCKSIZE;
 169:C:/Users/lenovo/Desktop/liteos/Project2/BearPi_LiteOS/components/security/mbedtls/mbedtls-2.6.0/library\ctr_drbg.c ****     *p++ = ( data_len >> 24 ) & 0xff;
 101              		.loc 1 169 0
 102 0028 4FEA1863 		lsr	r3, r8, #24
 103              	.LVL11:
 104 002c 8DF88831 		strb	r3, [sp, #392]
 170:C:/Users/lenovo/Desktop/liteos/Project2/BearPi_LiteOS/components/security/mbedtls/mbedtls-2.6.0/library\ctr_drbg.c ****     *p++ = ( data_len >> 16 ) & 0xff;
 105              		.loc 1 170 0
 106 0030 4FEA1843 		lsr	r3, r8, #16
 107              	.LVL12:
 108 0034 8DF88931 		strb	r3, [sp, #393]
 171:C:/Users/lenovo/Desktop/liteos/Project2/BearPi_LiteOS/components/security/mbedtls/mbedtls-2.6.0/library\ctr_drbg.c ****     *p++ = ( data_len >> 8  ) & 0xff;
 109              		.loc 1 171 0
 110 0038 4FEA1823 		lsr	r3, r8, #8
 111              	.LVL13:
 112 003c 8DF88A31 		strb	r3, [sp, #394]
 113              	.LVL14:
 172:C:/Users/lenovo/Desktop/liteos/Project2/BearPi_LiteOS/components/security/mbedtls/mbedtls-2.6.0/library\ctr_drbg.c ****     *p++ = ( data_len       ) & 0xff;
 114              		.loc 1 172 0
 115 0040 8DF88B81 		strb	r8, [sp, #395]
ARM GAS  c:\Users\lenovo\AppData\Local\Temp\ccubMjjd.s 			page 6


 116              	.LVL15:
 173:C:/Users/lenovo/Desktop/liteos/Project2/BearPi_LiteOS/components/security/mbedtls/mbedtls-2.6.0/library\ctr_drbg.c ****     p += 3;
 174:C:/Users/lenovo/Desktop/liteos/Project2/BearPi_LiteOS/components/security/mbedtls/mbedtls-2.6.0/library\ctr_drbg.c ****     *p++ = MBEDTLS_CTR_DRBG_SEEDLEN;
 117              		.loc 1 174 0
 118 0044 3023     		movs	r3, #48
 119 0046 8DF88F31 		strb	r3, [sp, #399]
 175:C:/Users/lenovo/Desktop/liteos/Project2/BearPi_LiteOS/components/security/mbedtls/mbedtls-2.6.0/library\ctr_drbg.c ****     memcpy( p, data, data_len );
 120              		.loc 1 175 0
 121 004a 64AC     		add	r4, sp, #400
 122              	.LVL16:
 123 004c 4246     		mov	r2, r8
 124 004e 2946     		mov	r1, r5
 125 0050 2046     		mov	r0, r4
 126 0052 FFF7FEFF 		bl	memcpy
 127              	.LVL17:
 176:C:/Users/lenovo/Desktop/liteos/Project2/BearPi_LiteOS/components/security/mbedtls/mbedtls-2.6.0/library\ctr_drbg.c ****     p[data_len] = 0x80;
 128              		.loc 1 176 0
 129 0056 8023     		movs	r3, #128
 130 0058 04F80830 		strb	r3, [r4, r8]
 177:C:/Users/lenovo/Desktop/liteos/Project2/BearPi_LiteOS/components/security/mbedtls/mbedtls-2.6.0/library\ctr_drbg.c **** 
 178:C:/Users/lenovo/Desktop/liteos/Project2/BearPi_LiteOS/components/security/mbedtls/mbedtls-2.6.0/library\ctr_drbg.c ****     buf_len = MBEDTLS_CTR_DRBG_BLOCKSIZE + 8 + data_len + 1;
 131              		.loc 1 178 0
 132 005c 08F11908 		add	r8, r8, #25
 133              	.LVL18:
 179:C:/Users/lenovo/Desktop/liteos/Project2/BearPi_LiteOS/components/security/mbedtls/mbedtls-2.6.0/library\ctr_drbg.c **** 
 180:C:/Users/lenovo/Desktop/liteos/Project2/BearPi_LiteOS/components/security/mbedtls/mbedtls-2.6.0/library\ctr_drbg.c ****     for( i = 0; i < MBEDTLS_CTR_DRBG_KEYSIZE; i++ )
 134              		.loc 1 180 0
 135 0060 0023     		movs	r3, #0
 136 0062 02E0     		b	.L6
 137              	.LVL19:
 138              	.L7:
 181:C:/Users/lenovo/Desktop/liteos/Project2/BearPi_LiteOS/components/security/mbedtls/mbedtls-2.6.0/library\ctr_drbg.c ****         key[i] = i;
 139              		.loc 1 181 0 discriminator 3
 140 0064 4AAA     		add	r2, sp, #296
 141 0066 D354     		strb	r3, [r2, r3]
 180:C:/Users/lenovo/Desktop/liteos/Project2/BearPi_LiteOS/components/security/mbedtls/mbedtls-2.6.0/library\ctr_drbg.c ****         key[i] = i;
 142              		.loc 1 180 0 discriminator 3
 143 0068 0133     		adds	r3, r3, #1
 144              	.LVL20:
 145              	.L6:
 180:C:/Users/lenovo/Desktop/liteos/Project2/BearPi_LiteOS/components/security/mbedtls/mbedtls-2.6.0/library\ctr_drbg.c ****         key[i] = i;
 146              		.loc 1 180 0 is_stmt 0 discriminator 1
 147 006a 1F2B     		cmp	r3, #31
 148 006c FADD     		ble	.L7
 182:C:/Users/lenovo/Desktop/liteos/Project2/BearPi_LiteOS/components/security/mbedtls/mbedtls-2.6.0/library\ctr_drbg.c **** 
 183:C:/Users/lenovo/Desktop/liteos/Project2/BearPi_LiteOS/components/security/mbedtls/mbedtls-2.6.0/library\ctr_drbg.c ****     mbedtls_aes_setkey_enc( &aes_ctx, key, MBEDTLS_CTR_DRBG_KEYBITS );
 149              		.loc 1 183 0 is_stmt 1
 150 006e 4FF48072 		mov	r2, #256
 151 0072 4AA9     		add	r1, sp, #296
 152 0074 6846     		mov	r0, sp
 153 0076 FFF7FEFF 		bl	mbedtls_aes_setkey_enc
 154              	.LVL21:
 184:C:/Users/lenovo/Desktop/liteos/Project2/BearPi_LiteOS/components/security/mbedtls/mbedtls-2.6.0/library\ctr_drbg.c **** 
 185:C:/Users/lenovo/Desktop/liteos/Project2/BearPi_LiteOS/components/security/mbedtls/mbedtls-2.6.0/library\ctr_drbg.c ****     /*
 186:C:/Users/lenovo/Desktop/liteos/Project2/BearPi_LiteOS/components/security/mbedtls/mbedtls-2.6.0/library\ctr_drbg.c ****      * Reduce data to MBEDTLS_CTR_DRBG_SEEDLEN bytes of data
 187:C:/Users/lenovo/Desktop/liteos/Project2/BearPi_LiteOS/components/security/mbedtls/mbedtls-2.6.0/library\ctr_drbg.c ****      */
 188:C:/Users/lenovo/Desktop/liteos/Project2/BearPi_LiteOS/components/security/mbedtls/mbedtls-2.6.0/library\ctr_drbg.c ****     for( j = 0; j < MBEDTLS_CTR_DRBG_SEEDLEN; j += MBEDTLS_CTR_DRBG_BLOCKSIZE )
ARM GAS  c:\Users\lenovo\AppData\Local\Temp\ccubMjjd.s 			page 7


 155              		.loc 1 188 0
 156 007a 0027     		movs	r7, #0
 157 007c 26E0     		b	.L8
 158              	.LVL22:
 159              	.L10:
 189:C:/Users/lenovo/Desktop/liteos/Project2/BearPi_LiteOS/components/security/mbedtls/mbedtls-2.6.0/library\ctr_drbg.c ****     {
 190:C:/Users/lenovo/Desktop/liteos/Project2/BearPi_LiteOS/components/security/mbedtls/mbedtls-2.6.0/library\ctr_drbg.c ****         p = buf;
 191:C:/Users/lenovo/Desktop/liteos/Project2/BearPi_LiteOS/components/security/mbedtls/mbedtls-2.6.0/library\ctr_drbg.c ****         memset( chain, 0, MBEDTLS_CTR_DRBG_BLOCKSIZE );
 192:C:/Users/lenovo/Desktop/liteos/Project2/BearPi_LiteOS/components/security/mbedtls/mbedtls-2.6.0/library\ctr_drbg.c ****         use_len = buf_len;
 193:C:/Users/lenovo/Desktop/liteos/Project2/BearPi_LiteOS/components/security/mbedtls/mbedtls-2.6.0/library\ctr_drbg.c **** 
 194:C:/Users/lenovo/Desktop/liteos/Project2/BearPi_LiteOS/components/security/mbedtls/mbedtls-2.6.0/library\ctr_drbg.c ****         while( use_len > 0 )
 195:C:/Users/lenovo/Desktop/liteos/Project2/BearPi_LiteOS/components/security/mbedtls/mbedtls-2.6.0/library\ctr_drbg.c ****         {
 196:C:/Users/lenovo/Desktop/liteos/Project2/BearPi_LiteOS/components/security/mbedtls/mbedtls-2.6.0/library\ctr_drbg.c ****             for( i = 0; i < MBEDTLS_CTR_DRBG_BLOCKSIZE; i++ )
 197:C:/Users/lenovo/Desktop/liteos/Project2/BearPi_LiteOS/components/security/mbedtls/mbedtls-2.6.0/library\ctr_drbg.c ****                 chain[i] ^= p[i];
 160              		.loc 1 197 0 discriminator 3
 161 007e E25C     		ldrb	r2, [r4, r3]	@ zero_extendqisi2
 162 0080 46A9     		add	r1, sp, #280
 163 0082 C85C     		ldrb	r0, [r1, r3]	@ zero_extendqisi2
 164 0084 4240     		eors	r2, r2, r0
 165 0086 CA54     		strb	r2, [r1, r3]
 196:C:/Users/lenovo/Desktop/liteos/Project2/BearPi_LiteOS/components/security/mbedtls/mbedtls-2.6.0/library\ctr_drbg.c ****                 chain[i] ^= p[i];
 166              		.loc 1 196 0 discriminator 3
 167 0088 0133     		adds	r3, r3, #1
 168              	.LVL23:
 169              	.L11:
 196:C:/Users/lenovo/Desktop/liteos/Project2/BearPi_LiteOS/components/security/mbedtls/mbedtls-2.6.0/library\ctr_drbg.c ****                 chain[i] ^= p[i];
 170              		.loc 1 196 0 is_stmt 0 discriminator 1
 171 008a 0F2B     		cmp	r3, #15
 172 008c F7DD     		ble	.L10
 198:C:/Users/lenovo/Desktop/liteos/Project2/BearPi_LiteOS/components/security/mbedtls/mbedtls-2.6.0/library\ctr_drbg.c ****             p += MBEDTLS_CTR_DRBG_BLOCKSIZE;
 173              		.loc 1 198 0 is_stmt 1
 174 008e 1034     		adds	r4, r4, #16
 175              	.LVL24:
 199:C:/Users/lenovo/Desktop/liteos/Project2/BearPi_LiteOS/components/security/mbedtls/mbedtls-2.6.0/library\ctr_drbg.c ****             use_len -= ( use_len >= MBEDTLS_CTR_DRBG_BLOCKSIZE ) ?
 176              		.loc 1 199 0
 177 0090 102D     		cmp	r5, #16
 178 0092 94BF     		ite	ls
 179 0094 6D1B     		subls	r5, r5, r5
 180              	.LVL25:
 181 0096 103D     		subhi	r5, r5, #16
 182              	.LVL26:
 200:C:/Users/lenovo/Desktop/liteos/Project2/BearPi_LiteOS/components/security/mbedtls/mbedtls-2.6.0/library\ctr_drbg.c ****                        MBEDTLS_CTR_DRBG_BLOCKSIZE : use_len;
 201:C:/Users/lenovo/Desktop/liteos/Project2/BearPi_LiteOS/components/security/mbedtls/mbedtls-2.6.0/library\ctr_drbg.c **** 
 202:C:/Users/lenovo/Desktop/liteos/Project2/BearPi_LiteOS/components/security/mbedtls/mbedtls-2.6.0/library\ctr_drbg.c ****             mbedtls_aes_crypt_ecb( &aes_ctx, MBEDTLS_AES_ENCRYPT, chain, chain );
 183              		.loc 1 202 0
 184 0098 46AB     		add	r3, sp, #280
 185              	.LVL27:
 186 009a 1A46     		mov	r2, r3
 187 009c 0121     		movs	r1, #1
 188 009e 6846     		mov	r0, sp
 189 00a0 FFF7FEFF 		bl	mbedtls_aes_crypt_ecb
 190              	.LVL28:
 191              	.L9:
 194:C:/Users/lenovo/Desktop/liteos/Project2/BearPi_LiteOS/components/security/mbedtls/mbedtls-2.6.0/library\ctr_drbg.c ****         {
 192              		.loc 1 194 0
 193 00a4 0DB1     		cbz	r5, .L21
 196:C:/Users/lenovo/Desktop/liteos/Project2/BearPi_LiteOS/components/security/mbedtls/mbedtls-2.6.0/library\ctr_drbg.c ****                 chain[i] ^= p[i];
ARM GAS  c:\Users\lenovo\AppData\Local\Temp\ccubMjjd.s 			page 8


 194              		.loc 1 196 0
 195 00a6 0023     		movs	r3, #0
 196 00a8 EFE7     		b	.L11
 197              	.L21:
 203:C:/Users/lenovo/Desktop/liteos/Project2/BearPi_LiteOS/components/security/mbedtls/mbedtls-2.6.0/library\ctr_drbg.c ****         }
 204:C:/Users/lenovo/Desktop/liteos/Project2/BearPi_LiteOS/components/security/mbedtls/mbedtls-2.6.0/library\ctr_drbg.c **** 
 205:C:/Users/lenovo/Desktop/liteos/Project2/BearPi_LiteOS/components/security/mbedtls/mbedtls-2.6.0/library\ctr_drbg.c ****         memcpy( tmp + j, chain, MBEDTLS_CTR_DRBG_BLOCKSIZE );
 198              		.loc 1 205 0 discriminator 2
 199 00aa 0DF5A47C 		add	ip, sp, #328
 200 00ae 0CEB0705 		add	r5, ip, r7
 201              	.LVL29:
 202 00b2 46AC     		add	r4, sp, #280
 203              	.LVL30:
 204 00b4 0FCC     		ldmia	r4!, {r0, r1, r2, r3}
 205 00b6 4CF80700 		str	r0, [ip, r7]	@ unaligned
 206 00ba 6960     		str	r1, [r5, #4]	@ unaligned
 207 00bc AA60     		str	r2, [r5, #8]	@ unaligned
 208 00be EB60     		str	r3, [r5, #12]	@ unaligned
 206:C:/Users/lenovo/Desktop/liteos/Project2/BearPi_LiteOS/components/security/mbedtls/mbedtls-2.6.0/library\ctr_drbg.c **** 
 207:C:/Users/lenovo/Desktop/liteos/Project2/BearPi_LiteOS/components/security/mbedtls/mbedtls-2.6.0/library\ctr_drbg.c ****         /*
 208:C:/Users/lenovo/Desktop/liteos/Project2/BearPi_LiteOS/components/security/mbedtls/mbedtls-2.6.0/library\ctr_drbg.c ****          * Update IV
 209:C:/Users/lenovo/Desktop/liteos/Project2/BearPi_LiteOS/components/security/mbedtls/mbedtls-2.6.0/library\ctr_drbg.c ****          */
 210:C:/Users/lenovo/Desktop/liteos/Project2/BearPi_LiteOS/components/security/mbedtls/mbedtls-2.6.0/library\ctr_drbg.c ****         buf[3]++;
 209              		.loc 1 210 0 discriminator 2
 210 00c0 9DF87B31 		ldrb	r3, [sp, #379]	@ zero_extendqisi2
 211 00c4 0133     		adds	r3, r3, #1
 212 00c6 8DF87B31 		strb	r3, [sp, #379]
 188:C:/Users/lenovo/Desktop/liteos/Project2/BearPi_LiteOS/components/security/mbedtls/mbedtls-2.6.0/library\ctr_drbg.c ****     {
 213              		.loc 1 188 0 discriminator 2
 214 00ca 1037     		adds	r7, r7, #16
 215              	.LVL31:
 216              	.L8:
 188:C:/Users/lenovo/Desktop/liteos/Project2/BearPi_LiteOS/components/security/mbedtls/mbedtls-2.6.0/library\ctr_drbg.c ****     {
 217              		.loc 1 188 0 is_stmt 0 discriminator 1
 218 00cc 2F2F     		cmp	r7, #47
 219 00ce 07DC     		bgt	.L22
 220              	.LVL32:
 191:C:/Users/lenovo/Desktop/liteos/Project2/BearPi_LiteOS/components/security/mbedtls/mbedtls-2.6.0/library\ctr_drbg.c ****         use_len = buf_len;
 221              		.loc 1 191 0 is_stmt 1
 222 00d0 0023     		movs	r3, #0
 223 00d2 4693     		str	r3, [sp, #280]
 224 00d4 4793     		str	r3, [sp, #284]
 225 00d6 4893     		str	r3, [sp, #288]
 226 00d8 4993     		str	r3, [sp, #292]
 227              	.LVL33:
 192:C:/Users/lenovo/Desktop/liteos/Project2/BearPi_LiteOS/components/security/mbedtls/mbedtls-2.6.0/library\ctr_drbg.c **** 
 228              		.loc 1 192 0
 229 00da 4546     		mov	r5, r8
 190:C:/Users/lenovo/Desktop/liteos/Project2/BearPi_LiteOS/components/security/mbedtls/mbedtls-2.6.0/library\ctr_drbg.c ****         memset( chain, 0, MBEDTLS_CTR_DRBG_BLOCKSIZE );
 230              		.loc 1 190 0
 231 00dc 5EAC     		add	r4, sp, #376
 232              	.LVL34:
 194:C:/Users/lenovo/Desktop/liteos/Project2/BearPi_LiteOS/components/security/mbedtls/mbedtls-2.6.0/library\ctr_drbg.c ****         {
 233              		.loc 1 194 0
 234 00de E1E7     		b	.L9
 235              	.LVL35:
 236              	.L22:
ARM GAS  c:\Users\lenovo\AppData\Local\Temp\ccubMjjd.s 			page 9


 211:C:/Users/lenovo/Desktop/liteos/Project2/BearPi_LiteOS/components/security/mbedtls/mbedtls-2.6.0/library\ctr_drbg.c ****     }
 212:C:/Users/lenovo/Desktop/liteos/Project2/BearPi_LiteOS/components/security/mbedtls/mbedtls-2.6.0/library\ctr_drbg.c **** 
 213:C:/Users/lenovo/Desktop/liteos/Project2/BearPi_LiteOS/components/security/mbedtls/mbedtls-2.6.0/library\ctr_drbg.c ****     /*
 214:C:/Users/lenovo/Desktop/liteos/Project2/BearPi_LiteOS/components/security/mbedtls/mbedtls-2.6.0/library\ctr_drbg.c ****      * Do final encryption with reduced data
 215:C:/Users/lenovo/Desktop/liteos/Project2/BearPi_LiteOS/components/security/mbedtls/mbedtls-2.6.0/library\ctr_drbg.c ****      */
 216:C:/Users/lenovo/Desktop/liteos/Project2/BearPi_LiteOS/components/security/mbedtls/mbedtls-2.6.0/library\ctr_drbg.c ****     mbedtls_aes_setkey_enc( &aes_ctx, tmp, MBEDTLS_CTR_DRBG_KEYBITS );
 237              		.loc 1 216 0
 238 00e0 4FF48072 		mov	r2, #256
 239 00e4 52A9     		add	r1, sp, #328
 240 00e6 6846     		mov	r0, sp
 241 00e8 FFF7FEFF 		bl	mbedtls_aes_setkey_enc
 242              	.LVL36:
 217:C:/Users/lenovo/Desktop/liteos/Project2/BearPi_LiteOS/components/security/mbedtls/mbedtls-2.6.0/library\ctr_drbg.c ****     iv = tmp + MBEDTLS_CTR_DRBG_KEYSIZE;
 218:C:/Users/lenovo/Desktop/liteos/Project2/BearPi_LiteOS/components/security/mbedtls/mbedtls-2.6.0/library\ctr_drbg.c ****     p = output;
 219:C:/Users/lenovo/Desktop/liteos/Project2/BearPi_LiteOS/components/security/mbedtls/mbedtls-2.6.0/library\ctr_drbg.c **** 
 220:C:/Users/lenovo/Desktop/liteos/Project2/BearPi_LiteOS/components/security/mbedtls/mbedtls-2.6.0/library\ctr_drbg.c ****     for( j = 0; j < MBEDTLS_CTR_DRBG_SEEDLEN; j += MBEDTLS_CTR_DRBG_BLOCKSIZE )
 243              		.loc 1 220 0
 244 00ec 0025     		movs	r5, #0
 245 00ee 0DE0     		b	.L13
 246              	.LVL37:
 247              	.L14:
 221:C:/Users/lenovo/Desktop/liteos/Project2/BearPi_LiteOS/components/security/mbedtls/mbedtls-2.6.0/library\ctr_drbg.c ****     {
 222:C:/Users/lenovo/Desktop/liteos/Project2/BearPi_LiteOS/components/security/mbedtls/mbedtls-2.6.0/library\ctr_drbg.c ****         mbedtls_aes_crypt_ecb( &aes_ctx, MBEDTLS_AES_ENCRYPT, iv, iv );
 248              		.loc 1 222 0 discriminator 3
 249 00f0 5AAB     		add	r3, sp, #360
 250              	.LVL38:
 251 00f2 1A46     		mov	r2, r3
 252 00f4 0121     		movs	r1, #1
 253 00f6 6846     		mov	r0, sp
 254 00f8 FFF7FEFF 		bl	mbedtls_aes_crypt_ecb
 255              	.LVL39:
 223:C:/Users/lenovo/Desktop/liteos/Project2/BearPi_LiteOS/components/security/mbedtls/mbedtls-2.6.0/library\ctr_drbg.c ****         memcpy( p, iv, MBEDTLS_CTR_DRBG_BLOCKSIZE );
 256              		.loc 1 223 0 discriminator 3
 257 00fc 5AAC     		add	r4, sp, #360
 258              	.LVL40:
 259 00fe 0FCC     		ldmia	r4!, {r0, r1, r2, r3}
 260              	.LVL41:
 261 0100 3060     		str	r0, [r6]	@ unaligned
 262 0102 7160     		str	r1, [r6, #4]	@ unaligned
 263 0104 B260     		str	r2, [r6, #8]	@ unaligned
 264 0106 F360     		str	r3, [r6, #12]	@ unaligned
 224:C:/Users/lenovo/Desktop/liteos/Project2/BearPi_LiteOS/components/security/mbedtls/mbedtls-2.6.0/library\ctr_drbg.c ****         p += MBEDTLS_CTR_DRBG_BLOCKSIZE;
 265              		.loc 1 224 0 discriminator 3
 266 0108 1036     		adds	r6, r6, #16
 267              	.LVL42:
 220:C:/Users/lenovo/Desktop/liteos/Project2/BearPi_LiteOS/components/security/mbedtls/mbedtls-2.6.0/library\ctr_drbg.c ****     {
 268              		.loc 1 220 0 discriminator 3
 269 010a 1035     		adds	r5, r5, #16
 270              	.LVL43:
 271              	.L13:
 220:C:/Users/lenovo/Desktop/liteos/Project2/BearPi_LiteOS/components/security/mbedtls/mbedtls-2.6.0/library\ctr_drbg.c ****     {
 272              		.loc 1 220 0 is_stmt 0 discriminator 1
 273 010c 2F2D     		cmp	r5, #47
 274 010e EFDD     		ble	.L14
 225:C:/Users/lenovo/Desktop/liteos/Project2/BearPi_LiteOS/components/security/mbedtls/mbedtls-2.6.0/library\ctr_drbg.c ****     }
 226:C:/Users/lenovo/Desktop/liteos/Project2/BearPi_LiteOS/components/security/mbedtls/mbedtls-2.6.0/library\ctr_drbg.c **** 
 227:C:/Users/lenovo/Desktop/liteos/Project2/BearPi_LiteOS/components/security/mbedtls/mbedtls-2.6.0/library\ctr_drbg.c ****     mbedtls_aes_free( &aes_ctx );
ARM GAS  c:\Users\lenovo\AppData\Local\Temp\ccubMjjd.s 			page 10


 275              		.loc 1 227 0 is_stmt 1
 276 0110 6846     		mov	r0, sp
 277 0112 FFF7FEFF 		bl	mbedtls_aes_free
 278              	.LVL44:
 228:C:/Users/lenovo/Desktop/liteos/Project2/BearPi_LiteOS/components/security/mbedtls/mbedtls-2.6.0/library\ctr_drbg.c **** 
 229:C:/Users/lenovo/Desktop/liteos/Project2/BearPi_LiteOS/components/security/mbedtls/mbedtls-2.6.0/library\ctr_drbg.c ****     return( 0 );
 279              		.loc 1 229 0
 280 0116 0020     		movs	r0, #0
 230:C:/Users/lenovo/Desktop/liteos/Project2/BearPi_LiteOS/components/security/mbedtls/mbedtls-2.6.0/library\ctr_drbg.c **** }
 281              		.loc 1 230 0
 282 0118 0DF5467D 		add	sp, sp, #792
 283              	.LCFI2:
 284              		.cfi_def_cfa_offset 24
 285              		@ sp needed
 286 011c BDE8F081 		pop	{r4, r5, r6, r7, r8, pc}
 287              	.LVL45:
 288              	.L15:
 289              	.LCFI3:
 290              		.cfi_def_cfa_offset 0
 291              		.cfi_restore 4
 292              		.cfi_restore 5
 293              		.cfi_restore 6
 294              		.cfi_restore 7
 295              		.cfi_restore 8
 296              		.cfi_restore 14
 156:C:/Users/lenovo/Desktop/liteos/Project2/BearPi_LiteOS/components/security/mbedtls/mbedtls-2.6.0/library\ctr_drbg.c **** 
 297              		.loc 1 156 0
 298 0120 6FF03700 		mvn	r0, #55
 299              	.LVL46:
 300              		.loc 1 230 0
 301 0124 7047     		bx	lr
 302              		.cfi_endproc
 303              	.LFE8:
 305              		.section	.text.ctr_drbg_update_internal,"ax",%progbits
 306              		.align	1
 307              		.syntax unified
 308              		.thumb
 309              		.thumb_func
 310              		.fpu fpv4-sp-d16
 312              	ctr_drbg_update_internal:
 313              	.LFB9:
 231:C:/Users/lenovo/Desktop/liteos/Project2/BearPi_LiteOS/components/security/mbedtls/mbedtls-2.6.0/library\ctr_drbg.c **** 
 232:C:/Users/lenovo/Desktop/liteos/Project2/BearPi_LiteOS/components/security/mbedtls/mbedtls-2.6.0/library\ctr_drbg.c **** static int ctr_drbg_update_internal( mbedtls_ctr_drbg_context *ctx,
 233:C:/Users/lenovo/Desktop/liteos/Project2/BearPi_LiteOS/components/security/mbedtls/mbedtls-2.6.0/library\ctr_drbg.c ****                               const unsigned char data[MBEDTLS_CTR_DRBG_SEEDLEN] )
 234:C:/Users/lenovo/Desktop/liteos/Project2/BearPi_LiteOS/components/security/mbedtls/mbedtls-2.6.0/library\ctr_drbg.c **** {
 314              		.loc 1 234 0
 315              		.cfi_startproc
 316              		@ args = 0, pretend = 0, frame = 48
 317              		@ frame_needed = 0, uses_anonymous_args = 0
 318              	.LVL47:
 319 0000 F0B5     		push	{r4, r5, r6, r7, lr}
 320              	.LCFI4:
 321              		.cfi_def_cfa_offset 20
 322              		.cfi_offset 4, -20
 323              		.cfi_offset 5, -16
 324              		.cfi_offset 6, -12
 325              		.cfi_offset 7, -8
ARM GAS  c:\Users\lenovo\AppData\Local\Temp\ccubMjjd.s 			page 11


 326              		.cfi_offset 14, -4
 327 0002 8DB0     		sub	sp, sp, #52
 328              	.LCFI5:
 329              		.cfi_def_cfa_offset 72
 330 0004 0446     		mov	r4, r0
 331 0006 0D46     		mov	r5, r1
 332              	.LVL48:
 235:C:/Users/lenovo/Desktop/liteos/Project2/BearPi_LiteOS/components/security/mbedtls/mbedtls-2.6.0/library\ctr_drbg.c ****     unsigned char tmp[MBEDTLS_CTR_DRBG_SEEDLEN];
 236:C:/Users/lenovo/Desktop/liteos/Project2/BearPi_LiteOS/components/security/mbedtls/mbedtls-2.6.0/library\ctr_drbg.c ****     unsigned char *p = tmp;
 237:C:/Users/lenovo/Desktop/liteos/Project2/BearPi_LiteOS/components/security/mbedtls/mbedtls-2.6.0/library\ctr_drbg.c ****     int i, j;
 238:C:/Users/lenovo/Desktop/liteos/Project2/BearPi_LiteOS/components/security/mbedtls/mbedtls-2.6.0/library\ctr_drbg.c **** 
 239:C:/Users/lenovo/Desktop/liteos/Project2/BearPi_LiteOS/components/security/mbedtls/mbedtls-2.6.0/library\ctr_drbg.c ****     memset( tmp, 0, MBEDTLS_CTR_DRBG_SEEDLEN );
 333              		.loc 1 239 0
 334 0008 3022     		movs	r2, #48
 335 000a 0021     		movs	r1, #0
 336              	.LVL49:
 337 000c 6846     		mov	r0, sp
 338              	.LVL50:
 339 000e FFF7FEFF 		bl	memset
 340              	.LVL51:
 240:C:/Users/lenovo/Desktop/liteos/Project2/BearPi_LiteOS/components/security/mbedtls/mbedtls-2.6.0/library\ctr_drbg.c **** 
 241:C:/Users/lenovo/Desktop/liteos/Project2/BearPi_LiteOS/components/security/mbedtls/mbedtls-2.6.0/library\ctr_drbg.c ****     for( j = 0; j < MBEDTLS_CTR_DRBG_SEEDLEN; j += MBEDTLS_CTR_DRBG_BLOCKSIZE )
 341              		.loc 1 241 0
 342 0012 0027     		movs	r7, #0
 236:C:/Users/lenovo/Desktop/liteos/Project2/BearPi_LiteOS/components/security/mbedtls/mbedtls-2.6.0/library\ctr_drbg.c ****     int i, j;
 343              		.loc 1 236 0
 344 0014 6E46     		mov	r6, sp
 345              		.loc 1 241 0
 346 0016 08E0     		b	.L24
 347              	.LVL52:
 348              	.L25:
 242:C:/Users/lenovo/Desktop/liteos/Project2/BearPi_LiteOS/components/security/mbedtls/mbedtls-2.6.0/library\ctr_drbg.c ****     {
 243:C:/Users/lenovo/Desktop/liteos/Project2/BearPi_LiteOS/components/security/mbedtls/mbedtls-2.6.0/library\ctr_drbg.c ****         /*
 244:C:/Users/lenovo/Desktop/liteos/Project2/BearPi_LiteOS/components/security/mbedtls/mbedtls-2.6.0/library\ctr_drbg.c ****          * Increase counter
 245:C:/Users/lenovo/Desktop/liteos/Project2/BearPi_LiteOS/components/security/mbedtls/mbedtls-2.6.0/library\ctr_drbg.c ****          */
 246:C:/Users/lenovo/Desktop/liteos/Project2/BearPi_LiteOS/components/security/mbedtls/mbedtls-2.6.0/library\ctr_drbg.c ****         for( i = MBEDTLS_CTR_DRBG_BLOCKSIZE; i > 0; i-- )
 247:C:/Users/lenovo/Desktop/liteos/Project2/BearPi_LiteOS/components/security/mbedtls/mbedtls-2.6.0/library\ctr_drbg.c ****             if( ++ctx->counter[i - 1] != 0 )
 248:C:/Users/lenovo/Desktop/liteos/Project2/BearPi_LiteOS/components/security/mbedtls/mbedtls-2.6.0/library\ctr_drbg.c ****                 break;
 249:C:/Users/lenovo/Desktop/liteos/Project2/BearPi_LiteOS/components/security/mbedtls/mbedtls-2.6.0/library\ctr_drbg.c **** 
 250:C:/Users/lenovo/Desktop/liteos/Project2/BearPi_LiteOS/components/security/mbedtls/mbedtls-2.6.0/library\ctr_drbg.c ****         /*
 251:C:/Users/lenovo/Desktop/liteos/Project2/BearPi_LiteOS/components/security/mbedtls/mbedtls-2.6.0/library\ctr_drbg.c ****          * Crypt counter block
 252:C:/Users/lenovo/Desktop/liteos/Project2/BearPi_LiteOS/components/security/mbedtls/mbedtls-2.6.0/library\ctr_drbg.c ****          */
 253:C:/Users/lenovo/Desktop/liteos/Project2/BearPi_LiteOS/components/security/mbedtls/mbedtls-2.6.0/library\ctr_drbg.c ****         mbedtls_aes_crypt_ecb( &ctx->aes_ctx, MBEDTLS_AES_ENCRYPT, ctx->counter, p );
 349              		.loc 1 253 0 discriminator 2
 350 0018 3346     		mov	r3, r6
 351 001a 2246     		mov	r2, r4
 352 001c 0121     		movs	r1, #1
 353 001e 04F12000 		add	r0, r4, #32
 354 0022 FFF7FEFF 		bl	mbedtls_aes_crypt_ecb
 355              	.LVL53:
 254:C:/Users/lenovo/Desktop/liteos/Project2/BearPi_LiteOS/components/security/mbedtls/mbedtls-2.6.0/library\ctr_drbg.c **** 
 255:C:/Users/lenovo/Desktop/liteos/Project2/BearPi_LiteOS/components/security/mbedtls/mbedtls-2.6.0/library\ctr_drbg.c ****         p += MBEDTLS_CTR_DRBG_BLOCKSIZE;
 356              		.loc 1 255 0 discriminator 2
 357 0026 1036     		adds	r6, r6, #16
 358              	.LVL54:
 241:C:/Users/lenovo/Desktop/liteos/Project2/BearPi_LiteOS/components/security/mbedtls/mbedtls-2.6.0/library\ctr_drbg.c ****     {
 359              		.loc 1 241 0 discriminator 2
ARM GAS  c:\Users\lenovo\AppData\Local\Temp\ccubMjjd.s 			page 12


 360 0028 1037     		adds	r7, r7, #16
 361              	.LVL55:
 362              	.L24:
 241:C:/Users/lenovo/Desktop/liteos/Project2/BearPi_LiteOS/components/security/mbedtls/mbedtls-2.6.0/library\ctr_drbg.c ****     {
 363              		.loc 1 241 0 is_stmt 0 discriminator 1
 364 002a 2F2F     		cmp	r7, #47
 365 002c 0ADC     		bgt	.L32
 246:C:/Users/lenovo/Desktop/liteos/Project2/BearPi_LiteOS/components/security/mbedtls/mbedtls-2.6.0/library\ctr_drbg.c ****             if( ++ctx->counter[i - 1] != 0 )
 366              		.loc 1 246 0 is_stmt 1
 367 002e 1022     		movs	r2, #16
 368              	.L27:
 369              	.LVL56:
 246:C:/Users/lenovo/Desktop/liteos/Project2/BearPi_LiteOS/components/security/mbedtls/mbedtls-2.6.0/library\ctr_drbg.c ****             if( ++ctx->counter[i - 1] != 0 )
 370              		.loc 1 246 0 is_stmt 0 discriminator 1
 371 0030 002A     		cmp	r2, #0
 372 0032 F1DD     		ble	.L25
 247:C:/Users/lenovo/Desktop/liteos/Project2/BearPi_LiteOS/components/security/mbedtls/mbedtls-2.6.0/library\ctr_drbg.c ****                 break;
 373              		.loc 1 247 0 is_stmt 1
 374 0034 013A     		subs	r2, r2, #1
 375              	.LVL57:
 376 0036 A35C     		ldrb	r3, [r4, r2]	@ zero_extendqisi2
 377 0038 0133     		adds	r3, r3, #1
 378 003a DBB2     		uxtb	r3, r3
 379 003c A354     		strb	r3, [r4, r2]
 380 003e 002B     		cmp	r3, #0
 381 0040 F6D0     		beq	.L27
 382 0042 E9E7     		b	.L25
 383              	.LVL58:
 384              	.L32:
 256:C:/Users/lenovo/Desktop/liteos/Project2/BearPi_LiteOS/components/security/mbedtls/mbedtls-2.6.0/library\ctr_drbg.c ****     }
 257:C:/Users/lenovo/Desktop/liteos/Project2/BearPi_LiteOS/components/security/mbedtls/mbedtls-2.6.0/library\ctr_drbg.c **** 
 258:C:/Users/lenovo/Desktop/liteos/Project2/BearPi_LiteOS/components/security/mbedtls/mbedtls-2.6.0/library\ctr_drbg.c ****     for( i = 0; i < MBEDTLS_CTR_DRBG_SEEDLEN; i++ )
 385              		.loc 1 258 0
 386 0044 0023     		movs	r3, #0
 387 0046 08E0     		b	.L28
 388              	.LVL59:
 389              	.L29:
 259:C:/Users/lenovo/Desktop/liteos/Project2/BearPi_LiteOS/components/security/mbedtls/mbedtls-2.6.0/library\ctr_drbg.c ****         tmp[i] ^= data[i];
 390              		.loc 1 259 0 discriminator 3
 391 0048 EA5C     		ldrb	r2, [r5, r3]	@ zero_extendqisi2
 392 004a 0CA9     		add	r1, sp, #48
 393 004c 1944     		add	r1, r1, r3
 394 004e 11F8300C 		ldrb	r0, [r1, #-48]	@ zero_extendqisi2
 395 0052 4240     		eors	r2, r2, r0
 396 0054 01F8302C 		strb	r2, [r1, #-48]
 258:C:/Users/lenovo/Desktop/liteos/Project2/BearPi_LiteOS/components/security/mbedtls/mbedtls-2.6.0/library\ctr_drbg.c ****         tmp[i] ^= data[i];
 397              		.loc 1 258 0 discriminator 3
 398 0058 0133     		adds	r3, r3, #1
 399              	.LVL60:
 400              	.L28:
 258:C:/Users/lenovo/Desktop/liteos/Project2/BearPi_LiteOS/components/security/mbedtls/mbedtls-2.6.0/library\ctr_drbg.c ****         tmp[i] ^= data[i];
 401              		.loc 1 258 0 is_stmt 0 discriminator 1
 402 005a 2F2B     		cmp	r3, #47
 403 005c F4DD     		ble	.L29
 260:C:/Users/lenovo/Desktop/liteos/Project2/BearPi_LiteOS/components/security/mbedtls/mbedtls-2.6.0/library\ctr_drbg.c **** 
 261:C:/Users/lenovo/Desktop/liteos/Project2/BearPi_LiteOS/components/security/mbedtls/mbedtls-2.6.0/library\ctr_drbg.c ****     /*
 262:C:/Users/lenovo/Desktop/liteos/Project2/BearPi_LiteOS/components/security/mbedtls/mbedtls-2.6.0/library\ctr_drbg.c ****      * Update key and counter
ARM GAS  c:\Users\lenovo\AppData\Local\Temp\ccubMjjd.s 			page 13


 263:C:/Users/lenovo/Desktop/liteos/Project2/BearPi_LiteOS/components/security/mbedtls/mbedtls-2.6.0/library\ctr_drbg.c ****      */
 264:C:/Users/lenovo/Desktop/liteos/Project2/BearPi_LiteOS/components/security/mbedtls/mbedtls-2.6.0/library\ctr_drbg.c ****     mbedtls_aes_setkey_enc( &ctx->aes_ctx, tmp, MBEDTLS_CTR_DRBG_KEYBITS );
 404              		.loc 1 264 0 is_stmt 1
 405 005e 4FF48072 		mov	r2, #256
 406 0062 6946     		mov	r1, sp
 407 0064 04F12000 		add	r0, r4, #32
 408 0068 FFF7FEFF 		bl	mbedtls_aes_setkey_enc
 409              	.LVL61:
 265:C:/Users/lenovo/Desktop/liteos/Project2/BearPi_LiteOS/components/security/mbedtls/mbedtls-2.6.0/library\ctr_drbg.c ****     memcpy( ctx->counter, tmp + MBEDTLS_CTR_DRBG_KEYSIZE, MBEDTLS_CTR_DRBG_BLOCKSIZE );
 410              		.loc 1 265 0
 411 006c 08AD     		add	r5, sp, #32
 412              	.LVL62:
 413 006e 0FCD     		ldmia	r5!, {r0, r1, r2, r3}
 414 0070 2060     		str	r0, [r4]	@ unaligned
 415 0072 6160     		str	r1, [r4, #4]	@ unaligned
 416 0074 A260     		str	r2, [r4, #8]	@ unaligned
 417 0076 E360     		str	r3, [r4, #12]	@ unaligned
 266:C:/Users/lenovo/Desktop/liteos/Project2/BearPi_LiteOS/components/security/mbedtls/mbedtls-2.6.0/library\ctr_drbg.c **** 
 267:C:/Users/lenovo/Desktop/liteos/Project2/BearPi_LiteOS/components/security/mbedtls/mbedtls-2.6.0/library\ctr_drbg.c ****     return( 0 );
 268:C:/Users/lenovo/Desktop/liteos/Project2/BearPi_LiteOS/components/security/mbedtls/mbedtls-2.6.0/library\ctr_drbg.c **** }
 418              		.loc 1 268 0
 419 0078 0020     		movs	r0, #0
 420 007a 0DB0     		add	sp, sp, #52
 421              	.LCFI6:
 422              		.cfi_def_cfa_offset 20
 423              		@ sp needed
 424 007c F0BD     		pop	{r4, r5, r6, r7, pc}
 425              		.cfi_endproc
 426              	.LFE9:
 428              		.section	.text.mbedtls_ctr_drbg_init,"ax",%progbits
 429              		.align	1
 430              		.global	mbedtls_ctr_drbg_init
 431              		.syntax unified
 432              		.thumb
 433              		.thumb_func
 434              		.fpu fpv4-sp-d16
 436              	mbedtls_ctr_drbg_init:
 437              	.LFB1:
  61:C:/Users/lenovo/Desktop/liteos/Project2/BearPi_LiteOS/components/security/mbedtls/mbedtls-2.6.0/library\ctr_drbg.c ****     memset( ctx, 0, sizeof( mbedtls_ctr_drbg_context ) );
 438              		.loc 1 61 0
 439              		.cfi_startproc
 440              		@ args = 0, pretend = 0, frame = 0
 441              		@ frame_needed = 0, uses_anonymous_args = 0
 442              	.LVL63:
 443 0000 08B5     		push	{r3, lr}
 444              	.LCFI7:
 445              		.cfi_def_cfa_offset 8
 446              		.cfi_offset 3, -8
 447              		.cfi_offset 14, -4
  62:C:/Users/lenovo/Desktop/liteos/Project2/BearPi_LiteOS/components/security/mbedtls/mbedtls-2.6.0/library\ctr_drbg.c **** 
 448              		.loc 1 62 0
 449 0002 4FF4A072 		mov	r2, #320
 450 0006 0021     		movs	r1, #0
 451 0008 FFF7FEFF 		bl	memset
 452              	.LVL64:
  67:C:/Users/lenovo/Desktop/liteos/Project2/BearPi_LiteOS/components/security/mbedtls/mbedtls-2.6.0/library\ctr_drbg.c **** 
 453              		.loc 1 67 0
ARM GAS  c:\Users\lenovo\AppData\Local\Temp\ccubMjjd.s 			page 14


 454 000c 08BD     		pop	{r3, pc}
 455              		.cfi_endproc
 456              	.LFE1:
 458              		.section	.text.mbedtls_ctr_drbg_free,"ax",%progbits
 459              		.align	1
 460              		.global	mbedtls_ctr_drbg_free
 461              		.syntax unified
 462              		.thumb
 463              		.thumb_func
 464              		.fpu fpv4-sp-d16
 466              	mbedtls_ctr_drbg_free:
 467              	.LFB4:
 116:C:/Users/lenovo/Desktop/liteos/Project2/BearPi_LiteOS/components/security/mbedtls/mbedtls-2.6.0/library\ctr_drbg.c ****     if( ctx == NULL )
 468              		.loc 1 116 0
 469              		.cfi_startproc
 470              		@ args = 0, pretend = 0, frame = 0
 471              		@ frame_needed = 0, uses_anonymous_args = 0
 472              	.LVL65:
 117:C:/Users/lenovo/Desktop/liteos/Project2/BearPi_LiteOS/components/security/mbedtls/mbedtls-2.6.0/library\ctr_drbg.c ****         return;
 473              		.loc 1 117 0
 474 0000 50B1     		cbz	r0, .L38
 116:C:/Users/lenovo/Desktop/liteos/Project2/BearPi_LiteOS/components/security/mbedtls/mbedtls-2.6.0/library\ctr_drbg.c ****     if( ctx == NULL )
 475              		.loc 1 116 0
 476 0002 10B5     		push	{r4, lr}
 477              	.LCFI8:
 478              		.cfi_def_cfa_offset 8
 479              		.cfi_offset 4, -8
 480              		.cfi_offset 14, -4
 481 0004 0446     		mov	r4, r0
 123:C:/Users/lenovo/Desktop/liteos/Project2/BearPi_LiteOS/components/security/mbedtls/mbedtls-2.6.0/library\ctr_drbg.c ****     mbedtls_zeroize( ctx, sizeof( mbedtls_ctr_drbg_context ) );
 482              		.loc 1 123 0
 483 0006 2030     		adds	r0, r0, #32
 484              	.LVL66:
 485 0008 FFF7FEFF 		bl	mbedtls_aes_free
 486              	.LVL67:
 124:C:/Users/lenovo/Desktop/liteos/Project2/BearPi_LiteOS/components/security/mbedtls/mbedtls-2.6.0/library\ctr_drbg.c **** }
 487              		.loc 1 124 0
 488 000c 4FF4A071 		mov	r1, #320
 489 0010 2046     		mov	r0, r4
 490 0012 FFF7FEFF 		bl	mbedtls_zeroize
 491              	.LVL68:
 125:C:/Users/lenovo/Desktop/liteos/Project2/BearPi_LiteOS/components/security/mbedtls/mbedtls-2.6.0/library\ctr_drbg.c **** 
 492              		.loc 1 125 0
 493 0016 10BD     		pop	{r4, pc}
 494              	.LVL69:
 495              	.L38:
 496              	.LCFI9:
 497              		.cfi_def_cfa_offset 0
 498              		.cfi_restore 4
 499              		.cfi_restore 14
 500 0018 7047     		bx	lr
 501              		.cfi_endproc
 502              	.LFE4:
 504              		.section	.text.mbedtls_ctr_drbg_set_prediction_resistance,"ax",%progbits
 505              		.align	1
 506              		.global	mbedtls_ctr_drbg_set_prediction_resistance
 507              		.syntax unified
ARM GAS  c:\Users\lenovo\AppData\Local\Temp\ccubMjjd.s 			page 15


 508              		.thumb
 509              		.thumb_func
 510              		.fpu fpv4-sp-d16
 512              	mbedtls_ctr_drbg_set_prediction_resistance:
 513              	.LFB5:
 128:C:/Users/lenovo/Desktop/liteos/Project2/BearPi_LiteOS/components/security/mbedtls/mbedtls-2.6.0/library\ctr_drbg.c ****     ctx->prediction_resistance = resistance;
 514              		.loc 1 128 0
 515              		.cfi_startproc
 516              		@ args = 0, pretend = 0, frame = 0
 517              		@ frame_needed = 0, uses_anonymous_args = 0
 518              		@ link register save eliminated.
 519              	.LVL70:
 129:C:/Users/lenovo/Desktop/liteos/Project2/BearPi_LiteOS/components/security/mbedtls/mbedtls-2.6.0/library\ctr_drbg.c **** }
 520              		.loc 1 129 0
 521 0000 4161     		str	r1, [r0, #20]
 130:C:/Users/lenovo/Desktop/liteos/Project2/BearPi_LiteOS/components/security/mbedtls/mbedtls-2.6.0/library\ctr_drbg.c **** 
 522              		.loc 1 130 0
 523 0002 7047     		bx	lr
 524              		.cfi_endproc
 525              	.LFE5:
 527              		.section	.text.mbedtls_ctr_drbg_set_entropy_len,"ax",%progbits
 528              		.align	1
 529              		.global	mbedtls_ctr_drbg_set_entropy_len
 530              		.syntax unified
 531              		.thumb
 532              		.thumb_func
 533              		.fpu fpv4-sp-d16
 535              	mbedtls_ctr_drbg_set_entropy_len:
 536              	.LFB6:
 133:C:/Users/lenovo/Desktop/liteos/Project2/BearPi_LiteOS/components/security/mbedtls/mbedtls-2.6.0/library\ctr_drbg.c ****     ctx->entropy_len = len;
 537              		.loc 1 133 0
 538              		.cfi_startproc
 539              		@ args = 0, pretend = 0, frame = 0
 540              		@ frame_needed = 0, uses_anonymous_args = 0
 541              		@ link register save eliminated.
 542              	.LVL71:
 134:C:/Users/lenovo/Desktop/liteos/Project2/BearPi_LiteOS/components/security/mbedtls/mbedtls-2.6.0/library\ctr_drbg.c **** }
 543              		.loc 1 134 0
 544 0000 8161     		str	r1, [r0, #24]
 135:C:/Users/lenovo/Desktop/liteos/Project2/BearPi_LiteOS/components/security/mbedtls/mbedtls-2.6.0/library\ctr_drbg.c **** 
 545              		.loc 1 135 0
 546 0002 7047     		bx	lr
 547              		.cfi_endproc
 548              	.LFE6:
 550              		.section	.text.mbedtls_ctr_drbg_set_reseed_interval,"ax",%progbits
 551              		.align	1
 552              		.global	mbedtls_ctr_drbg_set_reseed_interval
 553              		.syntax unified
 554              		.thumb
 555              		.thumb_func
 556              		.fpu fpv4-sp-d16
 558              	mbedtls_ctr_drbg_set_reseed_interval:
 559              	.LFB7:
 138:C:/Users/lenovo/Desktop/liteos/Project2/BearPi_LiteOS/components/security/mbedtls/mbedtls-2.6.0/library\ctr_drbg.c ****     ctx->reseed_interval = interval;
 560              		.loc 1 138 0
 561              		.cfi_startproc
 562              		@ args = 0, pretend = 0, frame = 0
ARM GAS  c:\Users\lenovo\AppData\Local\Temp\ccubMjjd.s 			page 16


 563              		@ frame_needed = 0, uses_anonymous_args = 0
 564              		@ link register save eliminated.
 565              	.LVL72:
 139:C:/Users/lenovo/Desktop/liteos/Project2/BearPi_LiteOS/components/security/mbedtls/mbedtls-2.6.0/library\ctr_drbg.c **** }
 566              		.loc 1 139 0
 567 0000 C161     		str	r1, [r0, #28]
 140:C:/Users/lenovo/Desktop/liteos/Project2/BearPi_LiteOS/components/security/mbedtls/mbedtls-2.6.0/library\ctr_drbg.c **** 
 568              		.loc 1 140 0
 569 0002 7047     		bx	lr
 570              		.cfi_endproc
 571              	.LFE7:
 573              		.section	.text.mbedtls_ctr_drbg_update,"ax",%progbits
 574              		.align	1
 575              		.global	mbedtls_ctr_drbg_update
 576              		.syntax unified
 577              		.thumb
 578              		.thumb_func
 579              		.fpu fpv4-sp-d16
 581              	mbedtls_ctr_drbg_update:
 582              	.LFB10:
 269:C:/Users/lenovo/Desktop/liteos/Project2/BearPi_LiteOS/components/security/mbedtls/mbedtls-2.6.0/library\ctr_drbg.c **** 
 270:C:/Users/lenovo/Desktop/liteos/Project2/BearPi_LiteOS/components/security/mbedtls/mbedtls-2.6.0/library\ctr_drbg.c **** void mbedtls_ctr_drbg_update( mbedtls_ctr_drbg_context *ctx,
 271:C:/Users/lenovo/Desktop/liteos/Project2/BearPi_LiteOS/components/security/mbedtls/mbedtls-2.6.0/library\ctr_drbg.c ****                       const unsigned char *additional, size_t add_len )
 272:C:/Users/lenovo/Desktop/liteos/Project2/BearPi_LiteOS/components/security/mbedtls/mbedtls-2.6.0/library\ctr_drbg.c **** {
 583              		.loc 1 272 0
 584              		.cfi_startproc
 585              		@ args = 0, pretend = 0, frame = 48
 586              		@ frame_needed = 0, uses_anonymous_args = 0
 587              	.LVL73:
 273:C:/Users/lenovo/Desktop/liteos/Project2/BearPi_LiteOS/components/security/mbedtls/mbedtls-2.6.0/library\ctr_drbg.c ****     unsigned char add_input[MBEDTLS_CTR_DRBG_SEEDLEN];
 274:C:/Users/lenovo/Desktop/liteos/Project2/BearPi_LiteOS/components/security/mbedtls/mbedtls-2.6.0/library\ctr_drbg.c **** 
 275:C:/Users/lenovo/Desktop/liteos/Project2/BearPi_LiteOS/components/security/mbedtls/mbedtls-2.6.0/library\ctr_drbg.c ****     if( add_len > 0 )
 588              		.loc 1 275 0
 589 0000 92B1     		cbz	r2, .L49
 272:C:/Users/lenovo/Desktop/liteos/Project2/BearPi_LiteOS/components/security/mbedtls/mbedtls-2.6.0/library\ctr_drbg.c ****     unsigned char add_input[MBEDTLS_CTR_DRBG_SEEDLEN];
 590              		.loc 1 272 0
 591 0002 10B5     		push	{r4, lr}
 592              	.LCFI10:
 593              		.cfi_def_cfa_offset 8
 594              		.cfi_offset 4, -8
 595              		.cfi_offset 14, -4
 596 0004 8CB0     		sub	sp, sp, #48
 597              	.LCFI11:
 598              		.cfi_def_cfa_offset 56
 599 0006 0446     		mov	r4, r0
 600 0008 1346     		mov	r3, r2
 276:C:/Users/lenovo/Desktop/liteos/Project2/BearPi_LiteOS/components/security/mbedtls/mbedtls-2.6.0/library\ctr_drbg.c ****     {
 277:C:/Users/lenovo/Desktop/liteos/Project2/BearPi_LiteOS/components/security/mbedtls/mbedtls-2.6.0/library\ctr_drbg.c ****         /* MAX_INPUT would be more logical here, but we have to match
 278:C:/Users/lenovo/Desktop/liteos/Project2/BearPi_LiteOS/components/security/mbedtls/mbedtls-2.6.0/library\ctr_drbg.c ****          * block_cipher_df()'s limits since we can't propagate errors */
 279:C:/Users/lenovo/Desktop/liteos/Project2/BearPi_LiteOS/components/security/mbedtls/mbedtls-2.6.0/library\ctr_drbg.c ****         if( add_len > MBEDTLS_CTR_DRBG_MAX_SEED_INPUT )
 601              		.loc 1 279 0
 602 000a B2F5C07F 		cmp	r2, #384
 603 000e 01D9     		bls	.L46
 280:C:/Users/lenovo/Desktop/liteos/Project2/BearPi_LiteOS/components/security/mbedtls/mbedtls-2.6.0/library\ctr_drbg.c ****             add_len = MBEDTLS_CTR_DRBG_MAX_SEED_INPUT;
 604              		.loc 1 280 0
 605 0010 4FF4C073 		mov	r3, #384
 606              	.L46:
ARM GAS  c:\Users\lenovo\AppData\Local\Temp\ccubMjjd.s 			page 17


 607              	.LVL74:
 281:C:/Users/lenovo/Desktop/liteos/Project2/BearPi_LiteOS/components/security/mbedtls/mbedtls-2.6.0/library\ctr_drbg.c **** 
 282:C:/Users/lenovo/Desktop/liteos/Project2/BearPi_LiteOS/components/security/mbedtls/mbedtls-2.6.0/library\ctr_drbg.c ****         block_cipher_df( add_input, additional, add_len );
 608              		.loc 1 282 0
 609 0014 1A46     		mov	r2, r3
 610 0016 6846     		mov	r0, sp
 611              	.LVL75:
 612 0018 FFF7FEFF 		bl	block_cipher_df
 613              	.LVL76:
 283:C:/Users/lenovo/Desktop/liteos/Project2/BearPi_LiteOS/components/security/mbedtls/mbedtls-2.6.0/library\ctr_drbg.c ****         ctr_drbg_update_internal( ctx, add_input );
 614              		.loc 1 283 0
 615 001c 6946     		mov	r1, sp
 616 001e 2046     		mov	r0, r4
 617 0020 FFF7FEFF 		bl	ctr_drbg_update_internal
 618              	.LVL77:
 284:C:/Users/lenovo/Desktop/liteos/Project2/BearPi_LiteOS/components/security/mbedtls/mbedtls-2.6.0/library\ctr_drbg.c ****     }
 285:C:/Users/lenovo/Desktop/liteos/Project2/BearPi_LiteOS/components/security/mbedtls/mbedtls-2.6.0/library\ctr_drbg.c **** }
 619              		.loc 1 285 0
 620 0024 0CB0     		add	sp, sp, #48
 621              	.LCFI12:
 622              		.cfi_def_cfa_offset 8
 623              		@ sp needed
 624 0026 10BD     		pop	{r4, pc}
 625              	.LVL78:
 626              	.L49:
 627              	.LCFI13:
 628              		.cfi_def_cfa_offset 0
 629              		.cfi_restore 4
 630              		.cfi_restore 14
 631 0028 7047     		bx	lr
 632              		.cfi_endproc
 633              	.LFE10:
 635              		.section	.text.mbedtls_ctr_drbg_reseed,"ax",%progbits
 636              		.align	1
 637              		.global	mbedtls_ctr_drbg_reseed
 638              		.syntax unified
 639              		.thumb
 640              		.thumb_func
 641              		.fpu fpv4-sp-d16
 643              	mbedtls_ctr_drbg_reseed:
 644              	.LFB11:
 286:C:/Users/lenovo/Desktop/liteos/Project2/BearPi_LiteOS/components/security/mbedtls/mbedtls-2.6.0/library\ctr_drbg.c **** 
 287:C:/Users/lenovo/Desktop/liteos/Project2/BearPi_LiteOS/components/security/mbedtls/mbedtls-2.6.0/library\ctr_drbg.c **** int mbedtls_ctr_drbg_reseed( mbedtls_ctr_drbg_context *ctx,
 288:C:/Users/lenovo/Desktop/liteos/Project2/BearPi_LiteOS/components/security/mbedtls/mbedtls-2.6.0/library\ctr_drbg.c ****                      const unsigned char *additional, size_t len )
 289:C:/Users/lenovo/Desktop/liteos/Project2/BearPi_LiteOS/components/security/mbedtls/mbedtls-2.6.0/library\ctr_drbg.c **** {
 645              		.loc 1 289 0
 646              		.cfi_startproc
 647              		@ args = 0, pretend = 0, frame = 384
 648              		@ frame_needed = 0, uses_anonymous_args = 0
 649              	.LVL79:
 650 0000 2DE9F041 		push	{r4, r5, r6, r7, r8, lr}
 651              	.LCFI14:
 652              		.cfi_def_cfa_offset 24
 653              		.cfi_offset 4, -24
 654              		.cfi_offset 5, -20
 655              		.cfi_offset 6, -16
 656              		.cfi_offset 7, -12
ARM GAS  c:\Users\lenovo\AppData\Local\Temp\ccubMjjd.s 			page 18


 657              		.cfi_offset 8, -8
 658              		.cfi_offset 14, -4
 659 0004 E0B0     		sub	sp, sp, #384
 660              	.LCFI15:
 661              		.cfi_def_cfa_offset 408
 662              	.LVL80:
 290:C:/Users/lenovo/Desktop/liteos/Project2/BearPi_LiteOS/components/security/mbedtls/mbedtls-2.6.0/library\ctr_drbg.c ****     unsigned char seed[MBEDTLS_CTR_DRBG_MAX_SEED_INPUT];
 291:C:/Users/lenovo/Desktop/liteos/Project2/BearPi_LiteOS/components/security/mbedtls/mbedtls-2.6.0/library\ctr_drbg.c ****     size_t seedlen = 0;
 292:C:/Users/lenovo/Desktop/liteos/Project2/BearPi_LiteOS/components/security/mbedtls/mbedtls-2.6.0/library\ctr_drbg.c **** 
 293:C:/Users/lenovo/Desktop/liteos/Project2/BearPi_LiteOS/components/security/mbedtls/mbedtls-2.6.0/library\ctr_drbg.c ****     if( ctx->entropy_len > MBEDTLS_CTR_DRBG_MAX_SEED_INPUT ||
 663              		.loc 1 293 0
 664 0006 8369     		ldr	r3, [r0, #24]
 665 0008 B3F5C07F 		cmp	r3, #384
 666 000c 2FD8     		bhi	.L55
 294:C:/Users/lenovo/Desktop/liteos/Project2/BearPi_LiteOS/components/security/mbedtls/mbedtls-2.6.0/library\ctr_drbg.c ****         len > MBEDTLS_CTR_DRBG_MAX_SEED_INPUT - ctx->entropy_len )
 667              		.loc 1 294 0 discriminator 1
 668 000e C3F5C073 		rsb	r3, r3, #384
 293:C:/Users/lenovo/Desktop/liteos/Project2/BearPi_LiteOS/components/security/mbedtls/mbedtls-2.6.0/library\ctr_drbg.c ****         len > MBEDTLS_CTR_DRBG_MAX_SEED_INPUT - ctx->entropy_len )
 669              		.loc 1 293 0 discriminator 1
 670 0012 9342     		cmp	r3, r2
 671 0014 2ED3     		bcc	.L56
 672 0016 1546     		mov	r5, r2
 673 0018 0E46     		mov	r6, r1
 674 001a 0446     		mov	r4, r0
 295:C:/Users/lenovo/Desktop/liteos/Project2/BearPi_LiteOS/components/security/mbedtls/mbedtls-2.6.0/library\ctr_drbg.c ****         return( MBEDTLS_ERR_CTR_DRBG_INPUT_TOO_BIG );
 296:C:/Users/lenovo/Desktop/liteos/Project2/BearPi_LiteOS/components/security/mbedtls/mbedtls-2.6.0/library\ctr_drbg.c **** 
 297:C:/Users/lenovo/Desktop/liteos/Project2/BearPi_LiteOS/components/security/mbedtls/mbedtls-2.6.0/library\ctr_drbg.c ****     memset( seed, 0, MBEDTLS_CTR_DRBG_MAX_SEED_INPUT );
 675              		.loc 1 297 0
 676 001c 4FF4C072 		mov	r2, #384
 677              	.LVL81:
 678 0020 0021     		movs	r1, #0
 679              	.LVL82:
 680 0022 6846     		mov	r0, sp
 681              	.LVL83:
 682 0024 FFF7FEFF 		bl	memset
 683              	.LVL84:
 298:C:/Users/lenovo/Desktop/liteos/Project2/BearPi_LiteOS/components/security/mbedtls/mbedtls-2.6.0/library\ctr_drbg.c **** 
 299:C:/Users/lenovo/Desktop/liteos/Project2/BearPi_LiteOS/components/security/mbedtls/mbedtls-2.6.0/library\ctr_drbg.c ****     /*
 300:C:/Users/lenovo/Desktop/liteos/Project2/BearPi_LiteOS/components/security/mbedtls/mbedtls-2.6.0/library\ctr_drbg.c ****      * Gather entropy_len bytes of entropy to seed state
 301:C:/Users/lenovo/Desktop/liteos/Project2/BearPi_LiteOS/components/security/mbedtls/mbedtls-2.6.0/library\ctr_drbg.c ****      */
 302:C:/Users/lenovo/Desktop/liteos/Project2/BearPi_LiteOS/components/security/mbedtls/mbedtls-2.6.0/library\ctr_drbg.c ****     if( 0 != ctx->f_entropy( ctx->p_entropy, seed,
 684              		.loc 1 302 0
 685 0028 D4F83831 		ldr	r3, [r4, #312]
 686 002c A269     		ldr	r2, [r4, #24]
 687 002e 6946     		mov	r1, sp
 688 0030 D4F83C01 		ldr	r0, [r4, #316]
 689 0034 9847     		blx	r3
 690              	.LVL85:
 691 0036 8046     		mov	r8, r0
 692 0038 F8B9     		cbnz	r0, .L57
 303:C:/Users/lenovo/Desktop/liteos/Project2/BearPi_LiteOS/components/security/mbedtls/mbedtls-2.6.0/library\ctr_drbg.c ****                              ctx->entropy_len ) )
 304:C:/Users/lenovo/Desktop/liteos/Project2/BearPi_LiteOS/components/security/mbedtls/mbedtls-2.6.0/library\ctr_drbg.c ****     {
 305:C:/Users/lenovo/Desktop/liteos/Project2/BearPi_LiteOS/components/security/mbedtls/mbedtls-2.6.0/library\ctr_drbg.c ****         return( MBEDTLS_ERR_CTR_DRBG_ENTROPY_SOURCE_FAILED );
 306:C:/Users/lenovo/Desktop/liteos/Project2/BearPi_LiteOS/components/security/mbedtls/mbedtls-2.6.0/library\ctr_drbg.c ****     }
 307:C:/Users/lenovo/Desktop/liteos/Project2/BearPi_LiteOS/components/security/mbedtls/mbedtls-2.6.0/library\ctr_drbg.c **** 
 308:C:/Users/lenovo/Desktop/liteos/Project2/BearPi_LiteOS/components/security/mbedtls/mbedtls-2.6.0/library\ctr_drbg.c ****     seedlen += ctx->entropy_len;
 693              		.loc 1 308 0
ARM GAS  c:\Users\lenovo\AppData\Local\Temp\ccubMjjd.s 			page 19


 694 003a A769     		ldr	r7, [r4, #24]
 695              	.LVL86:
 309:C:/Users/lenovo/Desktop/liteos/Project2/BearPi_LiteOS/components/security/mbedtls/mbedtls-2.6.0/library\ctr_drbg.c **** 
 310:C:/Users/lenovo/Desktop/liteos/Project2/BearPi_LiteOS/components/security/mbedtls/mbedtls-2.6.0/library\ctr_drbg.c ****     /*
 311:C:/Users/lenovo/Desktop/liteos/Project2/BearPi_LiteOS/components/security/mbedtls/mbedtls-2.6.0/library\ctr_drbg.c ****      * Add additional data
 312:C:/Users/lenovo/Desktop/liteos/Project2/BearPi_LiteOS/components/security/mbedtls/mbedtls-2.6.0/library\ctr_drbg.c ****      */
 313:C:/Users/lenovo/Desktop/liteos/Project2/BearPi_LiteOS/components/security/mbedtls/mbedtls-2.6.0/library\ctr_drbg.c ****     if( additional && len )
 696              		.loc 1 313 0
 697 003c 06B1     		cbz	r6, .L54
 698              		.loc 1 313 0 is_stmt 0 discriminator 1
 699 003e 75B9     		cbnz	r5, .L59
 700              	.L54:
 314:C:/Users/lenovo/Desktop/liteos/Project2/BearPi_LiteOS/components/security/mbedtls/mbedtls-2.6.0/library\ctr_drbg.c ****     {
 315:C:/Users/lenovo/Desktop/liteos/Project2/BearPi_LiteOS/components/security/mbedtls/mbedtls-2.6.0/library\ctr_drbg.c ****         memcpy( seed + seedlen, additional, len );
 316:C:/Users/lenovo/Desktop/liteos/Project2/BearPi_LiteOS/components/security/mbedtls/mbedtls-2.6.0/library\ctr_drbg.c ****         seedlen += len;
 317:C:/Users/lenovo/Desktop/liteos/Project2/BearPi_LiteOS/components/security/mbedtls/mbedtls-2.6.0/library\ctr_drbg.c ****     }
 318:C:/Users/lenovo/Desktop/liteos/Project2/BearPi_LiteOS/components/security/mbedtls/mbedtls-2.6.0/library\ctr_drbg.c **** 
 319:C:/Users/lenovo/Desktop/liteos/Project2/BearPi_LiteOS/components/security/mbedtls/mbedtls-2.6.0/library\ctr_drbg.c ****     /*
 320:C:/Users/lenovo/Desktop/liteos/Project2/BearPi_LiteOS/components/security/mbedtls/mbedtls-2.6.0/library\ctr_drbg.c ****      * Reduce to 384 bits
 321:C:/Users/lenovo/Desktop/liteos/Project2/BearPi_LiteOS/components/security/mbedtls/mbedtls-2.6.0/library\ctr_drbg.c ****      */
 322:C:/Users/lenovo/Desktop/liteos/Project2/BearPi_LiteOS/components/security/mbedtls/mbedtls-2.6.0/library\ctr_drbg.c ****     block_cipher_df( seed, seed, seedlen );
 701              		.loc 1 322 0 is_stmt 1
 702 0040 3A46     		mov	r2, r7
 703 0042 6946     		mov	r1, sp
 704 0044 6846     		mov	r0, sp
 705 0046 FFF7FEFF 		bl	block_cipher_df
 706              	.LVL87:
 323:C:/Users/lenovo/Desktop/liteos/Project2/BearPi_LiteOS/components/security/mbedtls/mbedtls-2.6.0/library\ctr_drbg.c **** 
 324:C:/Users/lenovo/Desktop/liteos/Project2/BearPi_LiteOS/components/security/mbedtls/mbedtls-2.6.0/library\ctr_drbg.c ****     /*
 325:C:/Users/lenovo/Desktop/liteos/Project2/BearPi_LiteOS/components/security/mbedtls/mbedtls-2.6.0/library\ctr_drbg.c ****      * Update state
 326:C:/Users/lenovo/Desktop/liteos/Project2/BearPi_LiteOS/components/security/mbedtls/mbedtls-2.6.0/library\ctr_drbg.c ****      */
 327:C:/Users/lenovo/Desktop/liteos/Project2/BearPi_LiteOS/components/security/mbedtls/mbedtls-2.6.0/library\ctr_drbg.c ****     ctr_drbg_update_internal( ctx, seed );
 707              		.loc 1 327 0
 708 004a 6946     		mov	r1, sp
 709 004c 2046     		mov	r0, r4
 710 004e FFF7FEFF 		bl	ctr_drbg_update_internal
 711              	.LVL88:
 328:C:/Users/lenovo/Desktop/liteos/Project2/BearPi_LiteOS/components/security/mbedtls/mbedtls-2.6.0/library\ctr_drbg.c ****     ctx->reseed_counter = 1;
 712              		.loc 1 328 0
 713 0052 0123     		movs	r3, #1
 714 0054 2361     		str	r3, [r4, #16]
 715              	.LVL89:
 716              	.L52:
 329:C:/Users/lenovo/Desktop/liteos/Project2/BearPi_LiteOS/components/security/mbedtls/mbedtls-2.6.0/library\ctr_drbg.c **** 
 330:C:/Users/lenovo/Desktop/liteos/Project2/BearPi_LiteOS/components/security/mbedtls/mbedtls-2.6.0/library\ctr_drbg.c ****     return( 0 );
 331:C:/Users/lenovo/Desktop/liteos/Project2/BearPi_LiteOS/components/security/mbedtls/mbedtls-2.6.0/library\ctr_drbg.c **** }
 717              		.loc 1 331 0
 718 0056 4046     		mov	r0, r8
 719 0058 60B0     		add	sp, sp, #384
 720              	.LCFI16:
 721              		.cfi_remember_state
 722              		.cfi_def_cfa_offset 24
 723              		@ sp needed
 724 005a BDE8F081 		pop	{r4, r5, r6, r7, r8, pc}
 725              	.LVL90:
 726              	.L59:
 727              	.LCFI17:
ARM GAS  c:\Users\lenovo\AppData\Local\Temp\ccubMjjd.s 			page 20


 728              		.cfi_restore_state
 315:C:/Users/lenovo/Desktop/liteos/Project2/BearPi_LiteOS/components/security/mbedtls/mbedtls-2.6.0/library\ctr_drbg.c ****         seedlen += len;
 729              		.loc 1 315 0
 730 005e 2A46     		mov	r2, r5
 731 0060 3146     		mov	r1, r6
 732 0062 0DEB0700 		add	r0, sp, r7
 733 0066 FFF7FEFF 		bl	memcpy
 734              	.LVL91:
 316:C:/Users/lenovo/Desktop/liteos/Project2/BearPi_LiteOS/components/security/mbedtls/mbedtls-2.6.0/library\ctr_drbg.c ****     }
 735              		.loc 1 316 0
 736 006a 2F44     		add	r7, r7, r5
 737              	.LVL92:
 738 006c E8E7     		b	.L54
 739              	.LVL93:
 740              	.L55:
 295:C:/Users/lenovo/Desktop/liteos/Project2/BearPi_LiteOS/components/security/mbedtls/mbedtls-2.6.0/library\ctr_drbg.c **** 
 741              		.loc 1 295 0
 742 006e 6FF03708 		mvn	r8, #55
 743 0072 F0E7     		b	.L52
 744              	.L56:
 745 0074 6FF03708 		mvn	r8, #55
 746 0078 EDE7     		b	.L52
 747              	.LVL94:
 748              	.L57:
 305:C:/Users/lenovo/Desktop/liteos/Project2/BearPi_LiteOS/components/security/mbedtls/mbedtls-2.6.0/library\ctr_drbg.c ****     }
 749              		.loc 1 305 0
 750 007a 6FF03308 		mvn	r8, #51
 751 007e EAE7     		b	.L52
 752              		.cfi_endproc
 753              	.LFE11:
 755              		.section	.text.mbedtls_ctr_drbg_seed_entropy_len,"ax",%progbits
 756              		.align	1
 757              		.global	mbedtls_ctr_drbg_seed_entropy_len
 758              		.syntax unified
 759              		.thumb
 760              		.thumb_func
 761              		.fpu fpv4-sp-d16
 763              	mbedtls_ctr_drbg_seed_entropy_len:
 764              	.LFB2:
  80:C:/Users/lenovo/Desktop/liteos/Project2/BearPi_LiteOS/components/security/mbedtls/mbedtls-2.6.0/library\ctr_drbg.c ****     int ret;
 765              		.loc 1 80 0
 766              		.cfi_startproc
 767              		@ args = 8, pretend = 0, frame = 32
 768              		@ frame_needed = 0, uses_anonymous_args = 0
 769              	.LVL95:
 770 0000 2DE9F041 		push	{r4, r5, r6, r7, r8, lr}
 771              	.LCFI18:
 772              		.cfi_def_cfa_offset 24
 773              		.cfi_offset 4, -24
 774              		.cfi_offset 5, -20
 775              		.cfi_offset 6, -16
 776              		.cfi_offset 7, -12
 777              		.cfi_offset 8, -8
 778              		.cfi_offset 14, -4
 779 0004 88B0     		sub	sp, sp, #32
 780              	.LCFI19:
 781              		.cfi_def_cfa_offset 56
ARM GAS  c:\Users\lenovo\AppData\Local\Temp\ccubMjjd.s 			page 21


 782 0006 0446     		mov	r4, r0
 783 0008 8846     		mov	r8, r1
 784 000a 1746     		mov	r7, r2
 785 000c 1E46     		mov	r6, r3
  84:C:/Users/lenovo/Desktop/liteos/Project2/BearPi_LiteOS/components/security/mbedtls/mbedtls-2.6.0/library\ctr_drbg.c **** 
 786              		.loc 1 84 0
 787 000e 2022     		movs	r2, #32
 788              	.LVL96:
 789 0010 0021     		movs	r1, #0
 790              	.LVL97:
 791 0012 6846     		mov	r0, sp
 792              	.LVL98:
 793 0014 FFF7FEFF 		bl	memset
 794              	.LVL99:
  86:C:/Users/lenovo/Desktop/liteos/Project2/BearPi_LiteOS/components/security/mbedtls/mbedtls-2.6.0/library\ctr_drbg.c **** 
 795              		.loc 1 86 0
 796 0018 04F12005 		add	r5, r4, #32
 797 001c 2846     		mov	r0, r5
 798 001e FFF7FEFF 		bl	mbedtls_aes_init
 799              	.LVL100:
  88:C:/Users/lenovo/Desktop/liteos/Project2/BearPi_LiteOS/components/security/mbedtls/mbedtls-2.6.0/library\ctr_drbg.c ****     ctx->p_entropy = p_entropy;
 800              		.loc 1 88 0
 801 0022 C4F83881 		str	r8, [r4, #312]
  89:C:/Users/lenovo/Desktop/liteos/Project2/BearPi_LiteOS/components/security/mbedtls/mbedtls-2.6.0/library\ctr_drbg.c **** 
 802              		.loc 1 89 0
 803 0026 C4F83C71 		str	r7, [r4, #316]
  91:C:/Users/lenovo/Desktop/liteos/Project2/BearPi_LiteOS/components/security/mbedtls/mbedtls-2.6.0/library\ctr_drbg.c ****     ctx->reseed_interval = MBEDTLS_CTR_DRBG_RESEED_INTERVAL;
 804              		.loc 1 91 0
 805 002a 0F9B     		ldr	r3, [sp, #60]
 806 002c A361     		str	r3, [r4, #24]
  92:C:/Users/lenovo/Desktop/liteos/Project2/BearPi_LiteOS/components/security/mbedtls/mbedtls-2.6.0/library\ctr_drbg.c **** 
 807              		.loc 1 92 0
 808 002e 42F21073 		movw	r3, #10000
 809 0032 E361     		str	r3, [r4, #28]
  97:C:/Users/lenovo/Desktop/liteos/Project2/BearPi_LiteOS/components/security/mbedtls/mbedtls-2.6.0/library\ctr_drbg.c **** 
 810              		.loc 1 97 0
 811 0034 4FF48072 		mov	r2, #256
 812 0038 6946     		mov	r1, sp
 813 003a 2846     		mov	r0, r5
 814 003c FFF7FEFF 		bl	mbedtls_aes_setkey_enc
 815              	.LVL101:
  99:C:/Users/lenovo/Desktop/liteos/Project2/BearPi_LiteOS/components/security/mbedtls/mbedtls-2.6.0/library\ctr_drbg.c ****         return( ret );
 816              		.loc 1 99 0
 817 0040 0E9A     		ldr	r2, [sp, #56]
 818 0042 3146     		mov	r1, r6
 819 0044 2046     		mov	r0, r4
 820 0046 FFF7FEFF 		bl	mbedtls_ctr_drbg_reseed
 821              	.LVL102:
 103:C:/Users/lenovo/Desktop/liteos/Project2/BearPi_LiteOS/components/security/mbedtls/mbedtls-2.6.0/library\ctr_drbg.c **** 
 822              		.loc 1 103 0
 823 004a 08B0     		add	sp, sp, #32
 824              	.LCFI20:
 825              		.cfi_def_cfa_offset 24
 826              		@ sp needed
 827 004c BDE8F081 		pop	{r4, r5, r6, r7, r8, pc}
 828              		.cfi_endproc
 829              	.LFE2:
ARM GAS  c:\Users\lenovo\AppData\Local\Temp\ccubMjjd.s 			page 22


 831              		.section	.text.mbedtls_ctr_drbg_seed,"ax",%progbits
 832              		.align	1
 833              		.global	mbedtls_ctr_drbg_seed
 834              		.syntax unified
 835              		.thumb
 836              		.thumb_func
 837              		.fpu fpv4-sp-d16
 839              	mbedtls_ctr_drbg_seed:
 840              	.LFB3:
 110:C:/Users/lenovo/Desktop/liteos/Project2/BearPi_LiteOS/components/security/mbedtls/mbedtls-2.6.0/library\ctr_drbg.c ****     return( mbedtls_ctr_drbg_seed_entropy_len( ctx, f_entropy, p_entropy, custom, len,
 841              		.loc 1 110 0
 842              		.cfi_startproc
 843              		@ args = 4, pretend = 0, frame = 0
 844              		@ frame_needed = 0, uses_anonymous_args = 0
 845              	.LVL103:
 846 0000 10B5     		push	{r4, lr}
 847              	.LCFI21:
 848              		.cfi_def_cfa_offset 8
 849              		.cfi_offset 4, -8
 850              		.cfi_offset 14, -4
 851 0002 82B0     		sub	sp, sp, #8
 852              	.LCFI22:
 853              		.cfi_def_cfa_offset 16
 111:C:/Users/lenovo/Desktop/liteos/Project2/BearPi_LiteOS/components/security/mbedtls/mbedtls-2.6.0/library\ctr_drbg.c ****                                        MBEDTLS_CTR_DRBG_ENTROPY_LEN ) );
 854              		.loc 1 111 0
 855 0004 2024     		movs	r4, #32
 856 0006 0194     		str	r4, [sp, #4]
 857 0008 049C     		ldr	r4, [sp, #16]
 858 000a 0094     		str	r4, [sp]
 859 000c FFF7FEFF 		bl	mbedtls_ctr_drbg_seed_entropy_len
 860              	.LVL104:
 113:C:/Users/lenovo/Desktop/liteos/Project2/BearPi_LiteOS/components/security/mbedtls/mbedtls-2.6.0/library\ctr_drbg.c **** 
 861              		.loc 1 113 0
 862 0010 02B0     		add	sp, sp, #8
 863              	.LCFI23:
 864              		.cfi_def_cfa_offset 8
 865              		@ sp needed
 866 0012 10BD     		pop	{r4, pc}
 867              		.cfi_endproc
 868              	.LFE3:
 870              		.section	.text.mbedtls_ctr_drbg_random_with_add,"ax",%progbits
 871              		.align	1
 872              		.global	mbedtls_ctr_drbg_random_with_add
 873              		.syntax unified
 874              		.thumb
 875              		.thumb_func
 876              		.fpu fpv4-sp-d16
 878              	mbedtls_ctr_drbg_random_with_add:
 879              	.LFB12:
 332:C:/Users/lenovo/Desktop/liteos/Project2/BearPi_LiteOS/components/security/mbedtls/mbedtls-2.6.0/library\ctr_drbg.c **** 
 333:C:/Users/lenovo/Desktop/liteos/Project2/BearPi_LiteOS/components/security/mbedtls/mbedtls-2.6.0/library\ctr_drbg.c **** int mbedtls_ctr_drbg_random_with_add( void *p_rng,
 334:C:/Users/lenovo/Desktop/liteos/Project2/BearPi_LiteOS/components/security/mbedtls/mbedtls-2.6.0/library\ctr_drbg.c ****                               unsigned char *output, size_t output_len,
 335:C:/Users/lenovo/Desktop/liteos/Project2/BearPi_LiteOS/components/security/mbedtls/mbedtls-2.6.0/library\ctr_drbg.c ****                               const unsigned char *additional, size_t add_len )
 336:C:/Users/lenovo/Desktop/liteos/Project2/BearPi_LiteOS/components/security/mbedtls/mbedtls-2.6.0/library\ctr_drbg.c **** {
 880              		.loc 1 336 0
 881              		.cfi_startproc
 882              		@ args = 4, pretend = 0, frame = 64
ARM GAS  c:\Users\lenovo\AppData\Local\Temp\ccubMjjd.s 			page 23


 883              		@ frame_needed = 0, uses_anonymous_args = 0
 884              	.LVL105:
 885 0000 2DE9F041 		push	{r4, r5, r6, r7, r8, lr}
 886              	.LCFI24:
 887              		.cfi_def_cfa_offset 24
 888              		.cfi_offset 4, -24
 889              		.cfi_offset 5, -20
 890              		.cfi_offset 6, -16
 891              		.cfi_offset 7, -12
 892              		.cfi_offset 8, -8
 893              		.cfi_offset 14, -4
 894 0004 90B0     		sub	sp, sp, #64
 895              	.LCFI25:
 896              		.cfi_def_cfa_offset 88
 897 0006 169E     		ldr	r6, [sp, #88]
 898              	.LVL106:
 337:C:/Users/lenovo/Desktop/liteos/Project2/BearPi_LiteOS/components/security/mbedtls/mbedtls-2.6.0/library\ctr_drbg.c ****     int ret = 0;
 338:C:/Users/lenovo/Desktop/liteos/Project2/BearPi_LiteOS/components/security/mbedtls/mbedtls-2.6.0/library\ctr_drbg.c ****     mbedtls_ctr_drbg_context *ctx = (mbedtls_ctr_drbg_context *) p_rng;
 339:C:/Users/lenovo/Desktop/liteos/Project2/BearPi_LiteOS/components/security/mbedtls/mbedtls-2.6.0/library\ctr_drbg.c ****     unsigned char add_input[MBEDTLS_CTR_DRBG_SEEDLEN];
 340:C:/Users/lenovo/Desktop/liteos/Project2/BearPi_LiteOS/components/security/mbedtls/mbedtls-2.6.0/library\ctr_drbg.c ****     unsigned char *p = output;
 341:C:/Users/lenovo/Desktop/liteos/Project2/BearPi_LiteOS/components/security/mbedtls/mbedtls-2.6.0/library\ctr_drbg.c ****     unsigned char tmp[MBEDTLS_CTR_DRBG_BLOCKSIZE];
 342:C:/Users/lenovo/Desktop/liteos/Project2/BearPi_LiteOS/components/security/mbedtls/mbedtls-2.6.0/library\ctr_drbg.c ****     int i;
 343:C:/Users/lenovo/Desktop/liteos/Project2/BearPi_LiteOS/components/security/mbedtls/mbedtls-2.6.0/library\ctr_drbg.c ****     size_t use_len;
 344:C:/Users/lenovo/Desktop/liteos/Project2/BearPi_LiteOS/components/security/mbedtls/mbedtls-2.6.0/library\ctr_drbg.c **** 
 345:C:/Users/lenovo/Desktop/liteos/Project2/BearPi_LiteOS/components/security/mbedtls/mbedtls-2.6.0/library\ctr_drbg.c ****     if( output_len > MBEDTLS_CTR_DRBG_MAX_REQUEST )
 899              		.loc 1 345 0
 900 0008 B2F5806F 		cmp	r2, #1024
 901 000c 4ED8     		bhi	.L73
 902 000e 0446     		mov	r4, r0
 903 0010 0F46     		mov	r7, r1
 904 0012 1546     		mov	r5, r2
 905 0014 9846     		mov	r8, r3
 346:C:/Users/lenovo/Desktop/liteos/Project2/BearPi_LiteOS/components/security/mbedtls/mbedtls-2.6.0/library\ctr_drbg.c ****         return( MBEDTLS_ERR_CTR_DRBG_REQUEST_TOO_BIG );
 347:C:/Users/lenovo/Desktop/liteos/Project2/BearPi_LiteOS/components/security/mbedtls/mbedtls-2.6.0/library\ctr_drbg.c **** 
 348:C:/Users/lenovo/Desktop/liteos/Project2/BearPi_LiteOS/components/security/mbedtls/mbedtls-2.6.0/library\ctr_drbg.c ****     if( add_len > MBEDTLS_CTR_DRBG_MAX_INPUT )
 906              		.loc 1 348 0
 907 0016 B6F5807F 		cmp	r6, #256
 908 001a 4AD8     		bhi	.L74
 349:C:/Users/lenovo/Desktop/liteos/Project2/BearPi_LiteOS/components/security/mbedtls/mbedtls-2.6.0/library\ctr_drbg.c ****         return( MBEDTLS_ERR_CTR_DRBG_INPUT_TOO_BIG );
 350:C:/Users/lenovo/Desktop/liteos/Project2/BearPi_LiteOS/components/security/mbedtls/mbedtls-2.6.0/library\ctr_drbg.c **** 
 351:C:/Users/lenovo/Desktop/liteos/Project2/BearPi_LiteOS/components/security/mbedtls/mbedtls-2.6.0/library\ctr_drbg.c ****     memset( add_input, 0, MBEDTLS_CTR_DRBG_SEEDLEN );
 909              		.loc 1 351 0
 910 001c 3022     		movs	r2, #48
 911              	.LVL107:
 912 001e 0021     		movs	r1, #0
 913              	.LVL108:
 914 0020 04A8     		add	r0, sp, #16
 915              	.LVL109:
 916 0022 FFF7FEFF 		bl	memset
 917              	.LVL110:
 352:C:/Users/lenovo/Desktop/liteos/Project2/BearPi_LiteOS/components/security/mbedtls/mbedtls-2.6.0/library\ctr_drbg.c **** 
 353:C:/Users/lenovo/Desktop/liteos/Project2/BearPi_LiteOS/components/security/mbedtls/mbedtls-2.6.0/library\ctr_drbg.c ****     if( ctx->reseed_counter > ctx->reseed_interval ||
 918              		.loc 1 353 0
 919 0026 2269     		ldr	r2, [r4, #16]
 920 0028 E369     		ldr	r3, [r4, #28]
 921 002a 9A42     		cmp	r2, r3
 922 002c 01DC     		bgt	.L66
ARM GAS  c:\Users\lenovo\AppData\Local\Temp\ccubMjjd.s 			page 24


 354:C:/Users/lenovo/Desktop/liteos/Project2/BearPi_LiteOS/components/security/mbedtls/mbedtls-2.6.0/library\ctr_drbg.c ****         ctx->prediction_resistance )
 923              		.loc 1 354 0 discriminator 1
 924 002e 6369     		ldr	r3, [r4, #20]
 353:C:/Users/lenovo/Desktop/liteos/Project2/BearPi_LiteOS/components/security/mbedtls/mbedtls-2.6.0/library\ctr_drbg.c ****         ctx->prediction_resistance )
 925              		.loc 1 353 0 discriminator 1
 926 0030 3BB1     		cbz	r3, .L67
 927              	.L66:
 355:C:/Users/lenovo/Desktop/liteos/Project2/BearPi_LiteOS/components/security/mbedtls/mbedtls-2.6.0/library\ctr_drbg.c ****     {
 356:C:/Users/lenovo/Desktop/liteos/Project2/BearPi_LiteOS/components/security/mbedtls/mbedtls-2.6.0/library\ctr_drbg.c ****         if( ( ret = mbedtls_ctr_drbg_reseed( ctx, additional, add_len ) ) != 0 )
 928              		.loc 1 356 0
 929 0032 3246     		mov	r2, r6
 930 0034 4146     		mov	r1, r8
 931 0036 2046     		mov	r0, r4
 932 0038 FFF7FEFF 		bl	mbedtls_ctr_drbg_reseed
 933              	.LVL111:
 934 003c 0346     		mov	r3, r0
 935 003e E8B1     		cbz	r0, .L71
 936 0040 30E0     		b	.L64
 937              	.LVL112:
 938              	.L67:
 357:C:/Users/lenovo/Desktop/liteos/Project2/BearPi_LiteOS/components/security/mbedtls/mbedtls-2.6.0/library\ctr_drbg.c ****             return( ret );
 358:C:/Users/lenovo/Desktop/liteos/Project2/BearPi_LiteOS/components/security/mbedtls/mbedtls-2.6.0/library\ctr_drbg.c **** 
 359:C:/Users/lenovo/Desktop/liteos/Project2/BearPi_LiteOS/components/security/mbedtls/mbedtls-2.6.0/library\ctr_drbg.c ****         add_len = 0;
 360:C:/Users/lenovo/Desktop/liteos/Project2/BearPi_LiteOS/components/security/mbedtls/mbedtls-2.6.0/library\ctr_drbg.c ****     }
 361:C:/Users/lenovo/Desktop/liteos/Project2/BearPi_LiteOS/components/security/mbedtls/mbedtls-2.6.0/library\ctr_drbg.c **** 
 362:C:/Users/lenovo/Desktop/liteos/Project2/BearPi_LiteOS/components/security/mbedtls/mbedtls-2.6.0/library\ctr_drbg.c ****     if( add_len > 0 )
 939              		.loc 1 362 0
 940 0042 DEB1     		cbz	r6, .L71
 363:C:/Users/lenovo/Desktop/liteos/Project2/BearPi_LiteOS/components/security/mbedtls/mbedtls-2.6.0/library\ctr_drbg.c ****     {
 364:C:/Users/lenovo/Desktop/liteos/Project2/BearPi_LiteOS/components/security/mbedtls/mbedtls-2.6.0/library\ctr_drbg.c ****         block_cipher_df( add_input, additional, add_len );
 941              		.loc 1 364 0
 942 0044 3246     		mov	r2, r6
 943 0046 4146     		mov	r1, r8
 944 0048 04A8     		add	r0, sp, #16
 945 004a FFF7FEFF 		bl	block_cipher_df
 946              	.LVL113:
 365:C:/Users/lenovo/Desktop/liteos/Project2/BearPi_LiteOS/components/security/mbedtls/mbedtls-2.6.0/library\ctr_drbg.c ****         ctr_drbg_update_internal( ctx, add_input );
 947              		.loc 1 365 0
 948 004e 04A9     		add	r1, sp, #16
 949 0050 2046     		mov	r0, r4
 950 0052 FFF7FEFF 		bl	ctr_drbg_update_internal
 951              	.LVL114:
 952 0056 11E0     		b	.L71
 953              	.LVL115:
 954              	.L69:
 366:C:/Users/lenovo/Desktop/liteos/Project2/BearPi_LiteOS/components/security/mbedtls/mbedtls-2.6.0/library\ctr_drbg.c ****     }
 367:C:/Users/lenovo/Desktop/liteos/Project2/BearPi_LiteOS/components/security/mbedtls/mbedtls-2.6.0/library\ctr_drbg.c **** 
 368:C:/Users/lenovo/Desktop/liteos/Project2/BearPi_LiteOS/components/security/mbedtls/mbedtls-2.6.0/library\ctr_drbg.c ****     while( output_len > 0 )
 369:C:/Users/lenovo/Desktop/liteos/Project2/BearPi_LiteOS/components/security/mbedtls/mbedtls-2.6.0/library\ctr_drbg.c ****     {
 370:C:/Users/lenovo/Desktop/liteos/Project2/BearPi_LiteOS/components/security/mbedtls/mbedtls-2.6.0/library\ctr_drbg.c ****         /*
 371:C:/Users/lenovo/Desktop/liteos/Project2/BearPi_LiteOS/components/security/mbedtls/mbedtls-2.6.0/library\ctr_drbg.c ****          * Increase counter
 372:C:/Users/lenovo/Desktop/liteos/Project2/BearPi_LiteOS/components/security/mbedtls/mbedtls-2.6.0/library\ctr_drbg.c ****          */
 373:C:/Users/lenovo/Desktop/liteos/Project2/BearPi_LiteOS/components/security/mbedtls/mbedtls-2.6.0/library\ctr_drbg.c ****         for( i = MBEDTLS_CTR_DRBG_BLOCKSIZE; i > 0; i-- )
 374:C:/Users/lenovo/Desktop/liteos/Project2/BearPi_LiteOS/components/security/mbedtls/mbedtls-2.6.0/library\ctr_drbg.c ****             if( ++ctx->counter[i - 1] != 0 )
 375:C:/Users/lenovo/Desktop/liteos/Project2/BearPi_LiteOS/components/security/mbedtls/mbedtls-2.6.0/library\ctr_drbg.c ****                 break;
 376:C:/Users/lenovo/Desktop/liteos/Project2/BearPi_LiteOS/components/security/mbedtls/mbedtls-2.6.0/library\ctr_drbg.c **** 
 377:C:/Users/lenovo/Desktop/liteos/Project2/BearPi_LiteOS/components/security/mbedtls/mbedtls-2.6.0/library\ctr_drbg.c ****         /*
ARM GAS  c:\Users\lenovo\AppData\Local\Temp\ccubMjjd.s 			page 25


 378:C:/Users/lenovo/Desktop/liteos/Project2/BearPi_LiteOS/components/security/mbedtls/mbedtls-2.6.0/library\ctr_drbg.c ****          * Crypt counter block
 379:C:/Users/lenovo/Desktop/liteos/Project2/BearPi_LiteOS/components/security/mbedtls/mbedtls-2.6.0/library\ctr_drbg.c ****          */
 380:C:/Users/lenovo/Desktop/liteos/Project2/BearPi_LiteOS/components/security/mbedtls/mbedtls-2.6.0/library\ctr_drbg.c ****         mbedtls_aes_crypt_ecb( &ctx->aes_ctx, MBEDTLS_AES_ENCRYPT, ctx->counter, tmp );
 955              		.loc 1 380 0
 956 0058 6B46     		mov	r3, sp
 957 005a 2246     		mov	r2, r4
 958 005c 0121     		movs	r1, #1
 959 005e 04F12000 		add	r0, r4, #32
 960 0062 FFF7FEFF 		bl	mbedtls_aes_crypt_ecb
 961              	.LVL116:
 381:C:/Users/lenovo/Desktop/liteos/Project2/BearPi_LiteOS/components/security/mbedtls/mbedtls-2.6.0/library\ctr_drbg.c **** 
 382:C:/Users/lenovo/Desktop/liteos/Project2/BearPi_LiteOS/components/security/mbedtls/mbedtls-2.6.0/library\ctr_drbg.c ****         use_len = ( output_len > MBEDTLS_CTR_DRBG_BLOCKSIZE ) ? MBEDTLS_CTR_DRBG_BLOCKSIZE :
 962              		.loc 1 382 0
 963 0066 2E46     		mov	r6, r5
 964 0068 102D     		cmp	r5, #16
 965 006a 28BF     		it	cs
 966 006c 1026     		movcs	r6, #16
 967              	.LVL117:
 383:C:/Users/lenovo/Desktop/liteos/Project2/BearPi_LiteOS/components/security/mbedtls/mbedtls-2.6.0/library\ctr_drbg.c ****                                                        output_len;
 384:C:/Users/lenovo/Desktop/liteos/Project2/BearPi_LiteOS/components/security/mbedtls/mbedtls-2.6.0/library\ctr_drbg.c ****         /*
 385:C:/Users/lenovo/Desktop/liteos/Project2/BearPi_LiteOS/components/security/mbedtls/mbedtls-2.6.0/library\ctr_drbg.c ****          * Copy random block to destination
 386:C:/Users/lenovo/Desktop/liteos/Project2/BearPi_LiteOS/components/security/mbedtls/mbedtls-2.6.0/library\ctr_drbg.c ****          */
 387:C:/Users/lenovo/Desktop/liteos/Project2/BearPi_LiteOS/components/security/mbedtls/mbedtls-2.6.0/library\ctr_drbg.c ****         memcpy( p, tmp, use_len );
 968              		.loc 1 387 0
 969 006e 3246     		mov	r2, r6
 970 0070 6946     		mov	r1, sp
 971 0072 3846     		mov	r0, r7
 972 0074 FFF7FEFF 		bl	memcpy
 973              	.LVL118:
 388:C:/Users/lenovo/Desktop/liteos/Project2/BearPi_LiteOS/components/security/mbedtls/mbedtls-2.6.0/library\ctr_drbg.c ****         p += use_len;
 974              		.loc 1 388 0
 975 0078 3744     		add	r7, r7, r6
 976              	.LVL119:
 389:C:/Users/lenovo/Desktop/liteos/Project2/BearPi_LiteOS/components/security/mbedtls/mbedtls-2.6.0/library\ctr_drbg.c ****         output_len -= use_len;
 977              		.loc 1 389 0
 978 007a AD1B     		subs	r5, r5, r6
 979              	.LVL120:
 980              	.L71:
 368:C:/Users/lenovo/Desktop/liteos/Project2/BearPi_LiteOS/components/security/mbedtls/mbedtls-2.6.0/library\ctr_drbg.c ****     {
 981              		.loc 1 368 0
 982 007c 55B1     		cbz	r5, .L77
 373:C:/Users/lenovo/Desktop/liteos/Project2/BearPi_LiteOS/components/security/mbedtls/mbedtls-2.6.0/library\ctr_drbg.c ****             if( ++ctx->counter[i - 1] != 0 )
 983              		.loc 1 373 0
 984 007e 1022     		movs	r2, #16
 985              	.L72:
 986              	.LVL121:
 373:C:/Users/lenovo/Desktop/liteos/Project2/BearPi_LiteOS/components/security/mbedtls/mbedtls-2.6.0/library\ctr_drbg.c ****             if( ++ctx->counter[i - 1] != 0 )
 987              		.loc 1 373 0 is_stmt 0 discriminator 1
 988 0080 002A     		cmp	r2, #0
 989 0082 E9DD     		ble	.L69
 374:C:/Users/lenovo/Desktop/liteos/Project2/BearPi_LiteOS/components/security/mbedtls/mbedtls-2.6.0/library\ctr_drbg.c ****                 break;
 990              		.loc 1 374 0 is_stmt 1
 991 0084 013A     		subs	r2, r2, #1
 992              	.LVL122:
 993 0086 A35C     		ldrb	r3, [r4, r2]	@ zero_extendqisi2
 994 0088 0133     		adds	r3, r3, #1
 995 008a DBB2     		uxtb	r3, r3
ARM GAS  c:\Users\lenovo\AppData\Local\Temp\ccubMjjd.s 			page 26


 996 008c A354     		strb	r3, [r4, r2]
 997 008e 002B     		cmp	r3, #0
 998 0090 F6D0     		beq	.L72
 999 0092 E1E7     		b	.L69
 1000              	.LVL123:
 1001              	.L77:
 390:C:/Users/lenovo/Desktop/liteos/Project2/BearPi_LiteOS/components/security/mbedtls/mbedtls-2.6.0/library\ctr_drbg.c ****     }
 391:C:/Users/lenovo/Desktop/liteos/Project2/BearPi_LiteOS/components/security/mbedtls/mbedtls-2.6.0/library\ctr_drbg.c **** 
 392:C:/Users/lenovo/Desktop/liteos/Project2/BearPi_LiteOS/components/security/mbedtls/mbedtls-2.6.0/library\ctr_drbg.c ****     ctr_drbg_update_internal( ctx, add_input );
 1002              		.loc 1 392 0
 1003 0094 04A9     		add	r1, sp, #16
 1004 0096 2046     		mov	r0, r4
 1005 0098 FFF7FEFF 		bl	ctr_drbg_update_internal
 1006              	.LVL124:
 393:C:/Users/lenovo/Desktop/liteos/Project2/BearPi_LiteOS/components/security/mbedtls/mbedtls-2.6.0/library\ctr_drbg.c **** 
 394:C:/Users/lenovo/Desktop/liteos/Project2/BearPi_LiteOS/components/security/mbedtls/mbedtls-2.6.0/library\ctr_drbg.c ****     ctx->reseed_counter++;
 1007              		.loc 1 394 0
 1008 009c 2369     		ldr	r3, [r4, #16]
 1009 009e 0133     		adds	r3, r3, #1
 1010 00a0 2361     		str	r3, [r4, #16]
 395:C:/Users/lenovo/Desktop/liteos/Project2/BearPi_LiteOS/components/security/mbedtls/mbedtls-2.6.0/library\ctr_drbg.c **** 
 396:C:/Users/lenovo/Desktop/liteos/Project2/BearPi_LiteOS/components/security/mbedtls/mbedtls-2.6.0/library\ctr_drbg.c ****     return( 0 );
 1011              		.loc 1 396 0
 1012 00a2 0023     		movs	r3, #0
 1013              	.LVL125:
 1014              	.L64:
 397:C:/Users/lenovo/Desktop/liteos/Project2/BearPi_LiteOS/components/security/mbedtls/mbedtls-2.6.0/library\ctr_drbg.c **** }
 1015              		.loc 1 397 0
 1016 00a4 1846     		mov	r0, r3
 1017 00a6 10B0     		add	sp, sp, #64
 1018              	.LCFI26:
 1019              		.cfi_remember_state
 1020              		.cfi_def_cfa_offset 24
 1021              		@ sp needed
 1022 00a8 BDE8F081 		pop	{r4, r5, r6, r7, r8, pc}
 1023              	.LVL126:
 1024              	.L73:
 1025              	.LCFI27:
 1026              		.cfi_restore_state
 346:C:/Users/lenovo/Desktop/liteos/Project2/BearPi_LiteOS/components/security/mbedtls/mbedtls-2.6.0/library\ctr_drbg.c **** 
 1027              		.loc 1 346 0
 1028 00ac 6FF03503 		mvn	r3, #53
 1029              	.LVL127:
 1030 00b0 F8E7     		b	.L64
 1031              	.LVL128:
 1032              	.L74:
 349:C:/Users/lenovo/Desktop/liteos/Project2/BearPi_LiteOS/components/security/mbedtls/mbedtls-2.6.0/library\ctr_drbg.c **** 
 1033              		.loc 1 349 0
 1034 00b2 6FF03703 		mvn	r3, #55
 1035              	.LVL129:
 1036 00b6 F5E7     		b	.L64
 1037              		.cfi_endproc
 1038              	.LFE12:
 1040              		.section	.text.mbedtls_ctr_drbg_random,"ax",%progbits
 1041              		.align	1
 1042              		.global	mbedtls_ctr_drbg_random
 1043              		.syntax unified
ARM GAS  c:\Users\lenovo\AppData\Local\Temp\ccubMjjd.s 			page 27


 1044              		.thumb
 1045              		.thumb_func
 1046              		.fpu fpv4-sp-d16
 1048              	mbedtls_ctr_drbg_random:
 1049              	.LFB13:
 398:C:/Users/lenovo/Desktop/liteos/Project2/BearPi_LiteOS/components/security/mbedtls/mbedtls-2.6.0/library\ctr_drbg.c **** 
 399:C:/Users/lenovo/Desktop/liteos/Project2/BearPi_LiteOS/components/security/mbedtls/mbedtls-2.6.0/library\ctr_drbg.c **** int mbedtls_ctr_drbg_random( void *p_rng, unsigned char *output, size_t output_len )
 400:C:/Users/lenovo/Desktop/liteos/Project2/BearPi_LiteOS/components/security/mbedtls/mbedtls-2.6.0/library\ctr_drbg.c **** {
 1050              		.loc 1 400 0
 1051              		.cfi_startproc
 1052              		@ args = 0, pretend = 0, frame = 0
 1053              		@ frame_needed = 0, uses_anonymous_args = 0
 1054              	.LVL130:
 1055 0000 00B5     		push	{lr}
 1056              	.LCFI28:
 1057              		.cfi_def_cfa_offset 4
 1058              		.cfi_offset 14, -4
 1059 0002 83B0     		sub	sp, sp, #12
 1060              	.LCFI29:
 1061              		.cfi_def_cfa_offset 16
 1062              	.LVL131:
 401:C:/Users/lenovo/Desktop/liteos/Project2/BearPi_LiteOS/components/security/mbedtls/mbedtls-2.6.0/library\ctr_drbg.c ****     int ret;
 402:C:/Users/lenovo/Desktop/liteos/Project2/BearPi_LiteOS/components/security/mbedtls/mbedtls-2.6.0/library\ctr_drbg.c ****     mbedtls_ctr_drbg_context *ctx = (mbedtls_ctr_drbg_context *) p_rng;
 403:C:/Users/lenovo/Desktop/liteos/Project2/BearPi_LiteOS/components/security/mbedtls/mbedtls-2.6.0/library\ctr_drbg.c **** 
 404:C:/Users/lenovo/Desktop/liteos/Project2/BearPi_LiteOS/components/security/mbedtls/mbedtls-2.6.0/library\ctr_drbg.c **** #if defined(MBEDTLS_THREADING_C)
 405:C:/Users/lenovo/Desktop/liteos/Project2/BearPi_LiteOS/components/security/mbedtls/mbedtls-2.6.0/library\ctr_drbg.c ****     if( ( ret = mbedtls_mutex_lock( &ctx->mutex ) ) != 0 )
 406:C:/Users/lenovo/Desktop/liteos/Project2/BearPi_LiteOS/components/security/mbedtls/mbedtls-2.6.0/library\ctr_drbg.c ****         return( ret );
 407:C:/Users/lenovo/Desktop/liteos/Project2/BearPi_LiteOS/components/security/mbedtls/mbedtls-2.6.0/library\ctr_drbg.c **** #endif
 408:C:/Users/lenovo/Desktop/liteos/Project2/BearPi_LiteOS/components/security/mbedtls/mbedtls-2.6.0/library\ctr_drbg.c **** 
 409:C:/Users/lenovo/Desktop/liteos/Project2/BearPi_LiteOS/components/security/mbedtls/mbedtls-2.6.0/library\ctr_drbg.c ****     ret = mbedtls_ctr_drbg_random_with_add( ctx, output, output_len, NULL, 0 );
 1063              		.loc 1 409 0
 1064 0004 0023     		movs	r3, #0
 1065 0006 0093     		str	r3, [sp]
 1066 0008 FFF7FEFF 		bl	mbedtls_ctr_drbg_random_with_add
 1067              	.LVL132:
 410:C:/Users/lenovo/Desktop/liteos/Project2/BearPi_LiteOS/components/security/mbedtls/mbedtls-2.6.0/library\ctr_drbg.c **** 
 411:C:/Users/lenovo/Desktop/liteos/Project2/BearPi_LiteOS/components/security/mbedtls/mbedtls-2.6.0/library\ctr_drbg.c **** #if defined(MBEDTLS_THREADING_C)
 412:C:/Users/lenovo/Desktop/liteos/Project2/BearPi_LiteOS/components/security/mbedtls/mbedtls-2.6.0/library\ctr_drbg.c ****     if( mbedtls_mutex_unlock( &ctx->mutex ) != 0 )
 413:C:/Users/lenovo/Desktop/liteos/Project2/BearPi_LiteOS/components/security/mbedtls/mbedtls-2.6.0/library\ctr_drbg.c ****         return( MBEDTLS_ERR_THREADING_MUTEX_ERROR );
 414:C:/Users/lenovo/Desktop/liteos/Project2/BearPi_LiteOS/components/security/mbedtls/mbedtls-2.6.0/library\ctr_drbg.c **** #endif
 415:C:/Users/lenovo/Desktop/liteos/Project2/BearPi_LiteOS/components/security/mbedtls/mbedtls-2.6.0/library\ctr_drbg.c **** 
 416:C:/Users/lenovo/Desktop/liteos/Project2/BearPi_LiteOS/components/security/mbedtls/mbedtls-2.6.0/library\ctr_drbg.c ****     return( ret );
 417:C:/Users/lenovo/Desktop/liteos/Project2/BearPi_LiteOS/components/security/mbedtls/mbedtls-2.6.0/library\ctr_drbg.c **** }
 1068              		.loc 1 417 0
 1069 000c 03B0     		add	sp, sp, #12
 1070              	.LCFI30:
 1071              		.cfi_def_cfa_offset 4
 1072              		@ sp needed
 1073 000e 5DF804FB 		ldr	pc, [sp], #4
 1074              		.cfi_endproc
 1075              	.LFE13:
 1077              		.text
 1078              	.Letext0:
 1079              		.file 2 "c:\\program files (x86)\\liteos studio\\resources\\arm-none-eabi\\arm-none-eabi\\include\
 1080              		.file 3 "c:\\program files (x86)\\liteos studio\\resources\\arm-none-eabi\\lib\\gcc\\arm-none-eabi
 1081              		.file 4 "c:\\program files (x86)\\liteos studio\\resources\\arm-none-eabi\\arm-none-eabi\\include\
 1082              		.file 5 "C:/Users/lenovo/Desktop/liteos/Project2/BearPi_LiteOS/components/security/mbedtls/mbedtls
ARM GAS  c:\Users\lenovo\AppData\Local\Temp\ccubMjjd.s 			page 28


 1083              		.file 6 "C:/Users/lenovo/Desktop/liteos/Project2/BearPi_LiteOS/components/security/mbedtls/mbedtls
 1084              		.file 7 "c:\\program files (x86)\\liteos studio\\resources\\arm-none-eabi\\arm-none-eabi\\include\
 1085              		.file 8 "c:\\program files (x86)\\liteos studio\\resources\\arm-none-eabi\\arm-none-eabi\\include\
 1086              		.file 9 "c:\\program files (x86)\\liteos studio\\resources\\arm-none-eabi\\arm-none-eabi\\include\
 1087              		.file 10 "<built-in>"
ARM GAS  c:\Users\lenovo\AppData\Local\Temp\ccubMjjd.s 			page 29

