ARM GAS  c:\Users\lenovo\AppData\Local\Temp\ccF1rFV3.s 			page 1


   1              		.cpu cortex-m4
   2              		.eabi_attribute 27, 1
   3              		.eabi_attribute 28, 1
   4              		.eabi_attribute 20, 1
   5              		.eabi_attribute 21, 1
   6              		.eabi_attribute 23, 3
   7              		.eabi_attribute 24, 1
   8              		.eabi_attribute 25, 1
   9              		.eabi_attribute 26, 1
  10              		.eabi_attribute 30, 1
  11              		.eabi_attribute 34, 1
  12              		.eabi_attribute 18, 4
  13              		.file	"debug.c"
  14              		.text
  15              	.Ltext0:
  16              		.cfi_sections	.debug_frame
  17              		.section	.text.mbedtls_debug_set_threshold,"ax",%progbits
  18              		.align	1
  19              		.global	mbedtls_debug_set_threshold
  20              		.syntax unified
  21              		.thumb
  22              		.thumb_func
  23              		.fpu fpv4-sp-d16
  25              	mbedtls_debug_set_threshold:
  26              	.LFB14:
  27              		.file 1 "C:/Users/lenovo/Desktop/liteos/Project2/BearPi_LiteOS/components/security/mbedtls/mbedtls
   1:C:/Users/lenovo/Desktop/liteos/Project2/BearPi_LiteOS/components/security/mbedtls/mbedtls-2.6.0/library\debug.c **** /*
   2:C:/Users/lenovo/Desktop/liteos/Project2/BearPi_LiteOS/components/security/mbedtls/mbedtls-2.6.0/library\debug.c ****  *  Debugging routines
   3:C:/Users/lenovo/Desktop/liteos/Project2/BearPi_LiteOS/components/security/mbedtls/mbedtls-2.6.0/library\debug.c ****  *
   4:C:/Users/lenovo/Desktop/liteos/Project2/BearPi_LiteOS/components/security/mbedtls/mbedtls-2.6.0/library\debug.c ****  *  Copyright (C) 2006-2015, ARM Limited, All Rights Reserved
   5:C:/Users/lenovo/Desktop/liteos/Project2/BearPi_LiteOS/components/security/mbedtls/mbedtls-2.6.0/library\debug.c ****  *  SPDX-License-Identifier: Apache-2.0
   6:C:/Users/lenovo/Desktop/liteos/Project2/BearPi_LiteOS/components/security/mbedtls/mbedtls-2.6.0/library\debug.c ****  *
   7:C:/Users/lenovo/Desktop/liteos/Project2/BearPi_LiteOS/components/security/mbedtls/mbedtls-2.6.0/library\debug.c ****  *  Licensed under the Apache License, Version 2.0 (the "License"); you may
   8:C:/Users/lenovo/Desktop/liteos/Project2/BearPi_LiteOS/components/security/mbedtls/mbedtls-2.6.0/library\debug.c ****  *  not use this file except in compliance with the License.
   9:C:/Users/lenovo/Desktop/liteos/Project2/BearPi_LiteOS/components/security/mbedtls/mbedtls-2.6.0/library\debug.c ****  *  You may obtain a copy of the License at
  10:C:/Users/lenovo/Desktop/liteos/Project2/BearPi_LiteOS/components/security/mbedtls/mbedtls-2.6.0/library\debug.c ****  *
  11:C:/Users/lenovo/Desktop/liteos/Project2/BearPi_LiteOS/components/security/mbedtls/mbedtls-2.6.0/library\debug.c ****  *  http://www.apache.org/licenses/LICENSE-2.0
  12:C:/Users/lenovo/Desktop/liteos/Project2/BearPi_LiteOS/components/security/mbedtls/mbedtls-2.6.0/library\debug.c ****  *
  13:C:/Users/lenovo/Desktop/liteos/Project2/BearPi_LiteOS/components/security/mbedtls/mbedtls-2.6.0/library\debug.c ****  *  Unless required by applicable law or agreed to in writing, software
  14:C:/Users/lenovo/Desktop/liteos/Project2/BearPi_LiteOS/components/security/mbedtls/mbedtls-2.6.0/library\debug.c ****  *  distributed under the License is distributed on an "AS IS" BASIS, WITHOUT
  15:C:/Users/lenovo/Desktop/liteos/Project2/BearPi_LiteOS/components/security/mbedtls/mbedtls-2.6.0/library\debug.c ****  *  WARRANTIES OR CONDITIONS OF ANY KIND, either express or implied.
  16:C:/Users/lenovo/Desktop/liteos/Project2/BearPi_LiteOS/components/security/mbedtls/mbedtls-2.6.0/library\debug.c ****  *  See the License for the specific language governing permissions and
  17:C:/Users/lenovo/Desktop/liteos/Project2/BearPi_LiteOS/components/security/mbedtls/mbedtls-2.6.0/library\debug.c ****  *  limitations under the License.
  18:C:/Users/lenovo/Desktop/liteos/Project2/BearPi_LiteOS/components/security/mbedtls/mbedtls-2.6.0/library\debug.c ****  *
  19:C:/Users/lenovo/Desktop/liteos/Project2/BearPi_LiteOS/components/security/mbedtls/mbedtls-2.6.0/library\debug.c ****  *  This file is part of mbed TLS (https://tls.mbed.org)
  20:C:/Users/lenovo/Desktop/liteos/Project2/BearPi_LiteOS/components/security/mbedtls/mbedtls-2.6.0/library\debug.c ****  */
  21:C:/Users/lenovo/Desktop/liteos/Project2/BearPi_LiteOS/components/security/mbedtls/mbedtls-2.6.0/library\debug.c **** 
  22:C:/Users/lenovo/Desktop/liteos/Project2/BearPi_LiteOS/components/security/mbedtls/mbedtls-2.6.0/library\debug.c **** #if !defined(MBEDTLS_CONFIG_FILE)
  23:C:/Users/lenovo/Desktop/liteos/Project2/BearPi_LiteOS/components/security/mbedtls/mbedtls-2.6.0/library\debug.c **** #include "mbedtls/config.h"
  24:C:/Users/lenovo/Desktop/liteos/Project2/BearPi_LiteOS/components/security/mbedtls/mbedtls-2.6.0/library\debug.c **** #else
  25:C:/Users/lenovo/Desktop/liteos/Project2/BearPi_LiteOS/components/security/mbedtls/mbedtls-2.6.0/library\debug.c **** #include MBEDTLS_CONFIG_FILE
  26:C:/Users/lenovo/Desktop/liteos/Project2/BearPi_LiteOS/components/security/mbedtls/mbedtls-2.6.0/library\debug.c **** #endif
  27:C:/Users/lenovo/Desktop/liteos/Project2/BearPi_LiteOS/components/security/mbedtls/mbedtls-2.6.0/library\debug.c **** 
  28:C:/Users/lenovo/Desktop/liteos/Project2/BearPi_LiteOS/components/security/mbedtls/mbedtls-2.6.0/library\debug.c **** #if defined(MBEDTLS_DEBUG_C)
  29:C:/Users/lenovo/Desktop/liteos/Project2/BearPi_LiteOS/components/security/mbedtls/mbedtls-2.6.0/library\debug.c **** 
  30:C:/Users/lenovo/Desktop/liteos/Project2/BearPi_LiteOS/components/security/mbedtls/mbedtls-2.6.0/library\debug.c **** #if defined(MBEDTLS_PLATFORM_C)
  31:C:/Users/lenovo/Desktop/liteos/Project2/BearPi_LiteOS/components/security/mbedtls/mbedtls-2.6.0/library\debug.c **** #include "mbedtls/platform.h"
ARM GAS  c:\Users\lenovo\AppData\Local\Temp\ccF1rFV3.s 			page 2


  32:C:/Users/lenovo/Desktop/liteos/Project2/BearPi_LiteOS/components/security/mbedtls/mbedtls-2.6.0/library\debug.c **** #else
  33:C:/Users/lenovo/Desktop/liteos/Project2/BearPi_LiteOS/components/security/mbedtls/mbedtls-2.6.0/library\debug.c **** #include <stdlib.h>
  34:C:/Users/lenovo/Desktop/liteos/Project2/BearPi_LiteOS/components/security/mbedtls/mbedtls-2.6.0/library\debug.c **** #define mbedtls_calloc      calloc
  35:C:/Users/lenovo/Desktop/liteos/Project2/BearPi_LiteOS/components/security/mbedtls/mbedtls-2.6.0/library\debug.c **** #define mbedtls_free        free
  36:C:/Users/lenovo/Desktop/liteos/Project2/BearPi_LiteOS/components/security/mbedtls/mbedtls-2.6.0/library\debug.c **** #define mbedtls_time_t      time_t
  37:C:/Users/lenovo/Desktop/liteos/Project2/BearPi_LiteOS/components/security/mbedtls/mbedtls-2.6.0/library\debug.c **** #define mbedtls_snprintf    snprintf
  38:C:/Users/lenovo/Desktop/liteos/Project2/BearPi_LiteOS/components/security/mbedtls/mbedtls-2.6.0/library\debug.c **** #endif
  39:C:/Users/lenovo/Desktop/liteos/Project2/BearPi_LiteOS/components/security/mbedtls/mbedtls-2.6.0/library\debug.c **** 
  40:C:/Users/lenovo/Desktop/liteos/Project2/BearPi_LiteOS/components/security/mbedtls/mbedtls-2.6.0/library\debug.c **** #include "mbedtls/debug.h"
  41:C:/Users/lenovo/Desktop/liteos/Project2/BearPi_LiteOS/components/security/mbedtls/mbedtls-2.6.0/library\debug.c **** 
  42:C:/Users/lenovo/Desktop/liteos/Project2/BearPi_LiteOS/components/security/mbedtls/mbedtls-2.6.0/library\debug.c **** #include <stdarg.h>
  43:C:/Users/lenovo/Desktop/liteos/Project2/BearPi_LiteOS/components/security/mbedtls/mbedtls-2.6.0/library\debug.c **** #include <stdio.h>
  44:C:/Users/lenovo/Desktop/liteos/Project2/BearPi_LiteOS/components/security/mbedtls/mbedtls-2.6.0/library\debug.c **** #include <string.h>
  45:C:/Users/lenovo/Desktop/liteos/Project2/BearPi_LiteOS/components/security/mbedtls/mbedtls-2.6.0/library\debug.c **** 
  46:C:/Users/lenovo/Desktop/liteos/Project2/BearPi_LiteOS/components/security/mbedtls/mbedtls-2.6.0/library\debug.c **** #if ( defined(__ARMCC_VERSION) || defined(_MSC_VER) ) && \
  47:C:/Users/lenovo/Desktop/liteos/Project2/BearPi_LiteOS/components/security/mbedtls/mbedtls-2.6.0/library\debug.c ****     !defined(inline) && !defined(__cplusplus)
  48:C:/Users/lenovo/Desktop/liteos/Project2/BearPi_LiteOS/components/security/mbedtls/mbedtls-2.6.0/library\debug.c **** #define inline __inline
  49:C:/Users/lenovo/Desktop/liteos/Project2/BearPi_LiteOS/components/security/mbedtls/mbedtls-2.6.0/library\debug.c **** #endif
  50:C:/Users/lenovo/Desktop/liteos/Project2/BearPi_LiteOS/components/security/mbedtls/mbedtls-2.6.0/library\debug.c **** 
  51:C:/Users/lenovo/Desktop/liteos/Project2/BearPi_LiteOS/components/security/mbedtls/mbedtls-2.6.0/library\debug.c **** #define DEBUG_BUF_SIZE      512
  52:C:/Users/lenovo/Desktop/liteos/Project2/BearPi_LiteOS/components/security/mbedtls/mbedtls-2.6.0/library\debug.c **** 
  53:C:/Users/lenovo/Desktop/liteos/Project2/BearPi_LiteOS/components/security/mbedtls/mbedtls-2.6.0/library\debug.c **** static int debug_threshold = 0;
  54:C:/Users/lenovo/Desktop/liteos/Project2/BearPi_LiteOS/components/security/mbedtls/mbedtls-2.6.0/library\debug.c **** 
  55:C:/Users/lenovo/Desktop/liteos/Project2/BearPi_LiteOS/components/security/mbedtls/mbedtls-2.6.0/library\debug.c **** void mbedtls_debug_set_threshold( int threshold )
  56:C:/Users/lenovo/Desktop/liteos/Project2/BearPi_LiteOS/components/security/mbedtls/mbedtls-2.6.0/library\debug.c **** {
  28              		.loc 1 56 0
  29              		.cfi_startproc
  30              		@ args = 0, pretend = 0, frame = 0
  31              		@ frame_needed = 0, uses_anonymous_args = 0
  32              		@ link register save eliminated.
  33              	.LVL0:
  57:C:/Users/lenovo/Desktop/liteos/Project2/BearPi_LiteOS/components/security/mbedtls/mbedtls-2.6.0/library\debug.c ****     debug_threshold = threshold;
  34              		.loc 1 57 0
  35 0000 014B     		ldr	r3, .L2
  36 0002 1860     		str	r0, [r3]
  58:C:/Users/lenovo/Desktop/liteos/Project2/BearPi_LiteOS/components/security/mbedtls/mbedtls-2.6.0/library\debug.c **** }
  37              		.loc 1 58 0
  38 0004 7047     		bx	lr
  39              	.L3:
  40 0006 00BF     		.align	2
  41              	.L2:
  42 0008 00000000 		.word	.LANCHOR0
  43              		.cfi_endproc
  44              	.LFE14:
  46              		.section	.text.mbedtls_debug_print_msg,"ax",%progbits
  47              		.align	1
  48              		.global	mbedtls_debug_print_msg
  49              		.syntax unified
  50              		.thumb
  51              		.thumb_func
  52              		.fpu fpv4-sp-d16
  54              	mbedtls_debug_print_msg:
  55              	.LFB16:
  59:C:/Users/lenovo/Desktop/liteos/Project2/BearPi_LiteOS/components/security/mbedtls/mbedtls-2.6.0/library\debug.c **** 
  60:C:/Users/lenovo/Desktop/liteos/Project2/BearPi_LiteOS/components/security/mbedtls/mbedtls-2.6.0/library\debug.c **** /*
  61:C:/Users/lenovo/Desktop/liteos/Project2/BearPi_LiteOS/components/security/mbedtls/mbedtls-2.6.0/library\debug.c ****  * All calls to f_dbg must be made via this function
  62:C:/Users/lenovo/Desktop/liteos/Project2/BearPi_LiteOS/components/security/mbedtls/mbedtls-2.6.0/library\debug.c ****  */
ARM GAS  c:\Users\lenovo\AppData\Local\Temp\ccF1rFV3.s 			page 3


  63:C:/Users/lenovo/Desktop/liteos/Project2/BearPi_LiteOS/components/security/mbedtls/mbedtls-2.6.0/library\debug.c **** static inline void debug_send_line( const mbedtls_ssl_context *ssl, int level,
  64:C:/Users/lenovo/Desktop/liteos/Project2/BearPi_LiteOS/components/security/mbedtls/mbedtls-2.6.0/library\debug.c ****                                     const char *file, int line,
  65:C:/Users/lenovo/Desktop/liteos/Project2/BearPi_LiteOS/components/security/mbedtls/mbedtls-2.6.0/library\debug.c ****                                     const char *str )
  66:C:/Users/lenovo/Desktop/liteos/Project2/BearPi_LiteOS/components/security/mbedtls/mbedtls-2.6.0/library\debug.c **** {
  67:C:/Users/lenovo/Desktop/liteos/Project2/BearPi_LiteOS/components/security/mbedtls/mbedtls-2.6.0/library\debug.c ****     /*
  68:C:/Users/lenovo/Desktop/liteos/Project2/BearPi_LiteOS/components/security/mbedtls/mbedtls-2.6.0/library\debug.c ****      * If in a threaded environment, we need a thread identifier.
  69:C:/Users/lenovo/Desktop/liteos/Project2/BearPi_LiteOS/components/security/mbedtls/mbedtls-2.6.0/library\debug.c ****      * Since there is no portable way to get one, use the address of the ssl
  70:C:/Users/lenovo/Desktop/liteos/Project2/BearPi_LiteOS/components/security/mbedtls/mbedtls-2.6.0/library\debug.c ****      * context instead, as it shouldn't be shared between threads.
  71:C:/Users/lenovo/Desktop/liteos/Project2/BearPi_LiteOS/components/security/mbedtls/mbedtls-2.6.0/library\debug.c ****      */
  72:C:/Users/lenovo/Desktop/liteos/Project2/BearPi_LiteOS/components/security/mbedtls/mbedtls-2.6.0/library\debug.c **** #if defined(MBEDTLS_THREADING_C)
  73:C:/Users/lenovo/Desktop/liteos/Project2/BearPi_LiteOS/components/security/mbedtls/mbedtls-2.6.0/library\debug.c ****     char idstr[20 + DEBUG_BUF_SIZE]; /* 0x + 16 nibbles + ': ' */
  74:C:/Users/lenovo/Desktop/liteos/Project2/BearPi_LiteOS/components/security/mbedtls/mbedtls-2.6.0/library\debug.c ****     mbedtls_snprintf( idstr, sizeof( idstr ), "%p: %s", (void*)ssl, str );
  75:C:/Users/lenovo/Desktop/liteos/Project2/BearPi_LiteOS/components/security/mbedtls/mbedtls-2.6.0/library\debug.c ****     ssl->conf->f_dbg( ssl->conf->p_dbg, level, file, line, idstr );
  76:C:/Users/lenovo/Desktop/liteos/Project2/BearPi_LiteOS/components/security/mbedtls/mbedtls-2.6.0/library\debug.c **** #else
  77:C:/Users/lenovo/Desktop/liteos/Project2/BearPi_LiteOS/components/security/mbedtls/mbedtls-2.6.0/library\debug.c ****     ssl->conf->f_dbg( ssl->conf->p_dbg, level, file, line, str );
  78:C:/Users/lenovo/Desktop/liteos/Project2/BearPi_LiteOS/components/security/mbedtls/mbedtls-2.6.0/library\debug.c **** #endif
  79:C:/Users/lenovo/Desktop/liteos/Project2/BearPi_LiteOS/components/security/mbedtls/mbedtls-2.6.0/library\debug.c **** }
  80:C:/Users/lenovo/Desktop/liteos/Project2/BearPi_LiteOS/components/security/mbedtls/mbedtls-2.6.0/library\debug.c **** 
  81:C:/Users/lenovo/Desktop/liteos/Project2/BearPi_LiteOS/components/security/mbedtls/mbedtls-2.6.0/library\debug.c **** void mbedtls_debug_print_msg( const mbedtls_ssl_context *ssl, int level,
  82:C:/Users/lenovo/Desktop/liteos/Project2/BearPi_LiteOS/components/security/mbedtls/mbedtls-2.6.0/library\debug.c ****                               const char *file, int line,
  83:C:/Users/lenovo/Desktop/liteos/Project2/BearPi_LiteOS/components/security/mbedtls/mbedtls-2.6.0/library\debug.c ****                               const char *format, ... )
  84:C:/Users/lenovo/Desktop/liteos/Project2/BearPi_LiteOS/components/security/mbedtls/mbedtls-2.6.0/library\debug.c **** {
  56              		.loc 1 84 0
  57              		.cfi_startproc
  58              		@ args = 4, pretend = 0, frame = 520
  59              		@ frame_needed = 0, uses_anonymous_args = 1
  60              	.LVL1:
  85:C:/Users/lenovo/Desktop/liteos/Project2/BearPi_LiteOS/components/security/mbedtls/mbedtls-2.6.0/library\debug.c ****     va_list argp;
  86:C:/Users/lenovo/Desktop/liteos/Project2/BearPi_LiteOS/components/security/mbedtls/mbedtls-2.6.0/library\debug.c ****     char str[DEBUG_BUF_SIZE];
  87:C:/Users/lenovo/Desktop/liteos/Project2/BearPi_LiteOS/components/security/mbedtls/mbedtls-2.6.0/library\debug.c ****     int ret;
  88:C:/Users/lenovo/Desktop/liteos/Project2/BearPi_LiteOS/components/security/mbedtls/mbedtls-2.6.0/library\debug.c **** 
  89:C:/Users/lenovo/Desktop/liteos/Project2/BearPi_LiteOS/components/security/mbedtls/mbedtls-2.6.0/library\debug.c ****     if( NULL == ssl || NULL == ssl->conf || NULL == ssl->conf->f_dbg || level > debug_threshold )
  61              		.loc 1 89 0
  62 0000 60B3     		cbz	r0, .L9
  84:C:/Users/lenovo/Desktop/liteos/Project2/BearPi_LiteOS/components/security/mbedtls/mbedtls-2.6.0/library\debug.c ****     va_list argp;
  63              		.loc 1 84 0 discriminator 1
  64 0002 F0B5     		push	{r4, r5, r6, r7, lr}
  65              	.LCFI0:
  66              		.cfi_def_cfa_offset 20
  67              		.cfi_offset 4, -20
  68              		.cfi_offset 5, -16
  69              		.cfi_offset 6, -12
  70              		.cfi_offset 7, -8
  71              		.cfi_offset 14, -4
  72 0004 ADF5057D 		sub	sp, sp, #532
  73              	.LCFI1:
  74              		.cfi_def_cfa_offset 552
  75 0008 0446     		mov	r4, r0
  76              		.loc 1 89 0 discriminator 1
  77 000a 0068     		ldr	r0, [r0]
  78              	.LVL2:
  79 000c 28B1     		cbz	r0, .L4
  80              		.loc 1 89 0 is_stmt 0 discriminator 2
  81 000e 0069     		ldr	r0, [r0, #16]
  82 0010 18B1     		cbz	r0, .L4
  83              		.loc 1 89 0 discriminator 3
  84 0012 1348     		ldr	r0, .L13
ARM GAS  c:\Users\lenovo\AppData\Local\Temp\ccF1rFV3.s 			page 4


  85 0014 0068     		ldr	r0, [r0]
  86 0016 8842     		cmp	r0, r1
  87 0018 02DA     		bge	.L12
  88              	.LVL3:
  89              	.L4:
  90:C:/Users/lenovo/Desktop/liteos/Project2/BearPi_LiteOS/components/security/mbedtls/mbedtls-2.6.0/library\debug.c ****         return;
  91:C:/Users/lenovo/Desktop/liteos/Project2/BearPi_LiteOS/components/security/mbedtls/mbedtls-2.6.0/library\debug.c **** 
  92:C:/Users/lenovo/Desktop/liteos/Project2/BearPi_LiteOS/components/security/mbedtls/mbedtls-2.6.0/library\debug.c ****     va_start( argp, format );
  93:C:/Users/lenovo/Desktop/liteos/Project2/BearPi_LiteOS/components/security/mbedtls/mbedtls-2.6.0/library\debug.c **** #if defined(_WIN32)
  94:C:/Users/lenovo/Desktop/liteos/Project2/BearPi_LiteOS/components/security/mbedtls/mbedtls-2.6.0/library\debug.c **** #if defined(_TRUNCATE)
  95:C:/Users/lenovo/Desktop/liteos/Project2/BearPi_LiteOS/components/security/mbedtls/mbedtls-2.6.0/library\debug.c ****     ret = _vsnprintf_s( str, DEBUG_BUF_SIZE, _TRUNCATE, format, argp );
  96:C:/Users/lenovo/Desktop/liteos/Project2/BearPi_LiteOS/components/security/mbedtls/mbedtls-2.6.0/library\debug.c **** #else
  97:C:/Users/lenovo/Desktop/liteos/Project2/BearPi_LiteOS/components/security/mbedtls/mbedtls-2.6.0/library\debug.c ****     ret = _vsnprintf( str, DEBUG_BUF_SIZE, format, argp );
  98:C:/Users/lenovo/Desktop/liteos/Project2/BearPi_LiteOS/components/security/mbedtls/mbedtls-2.6.0/library\debug.c ****     if( ret < 0 || (size_t) ret == DEBUG_BUF_SIZE )
  99:C:/Users/lenovo/Desktop/liteos/Project2/BearPi_LiteOS/components/security/mbedtls/mbedtls-2.6.0/library\debug.c ****     {
 100:C:/Users/lenovo/Desktop/liteos/Project2/BearPi_LiteOS/components/security/mbedtls/mbedtls-2.6.0/library\debug.c ****         str[DEBUG_BUF_SIZE-1] = '\0';
 101:C:/Users/lenovo/Desktop/liteos/Project2/BearPi_LiteOS/components/security/mbedtls/mbedtls-2.6.0/library\debug.c ****         ret = -1;
 102:C:/Users/lenovo/Desktop/liteos/Project2/BearPi_LiteOS/components/security/mbedtls/mbedtls-2.6.0/library\debug.c ****     }
 103:C:/Users/lenovo/Desktop/liteos/Project2/BearPi_LiteOS/components/security/mbedtls/mbedtls-2.6.0/library\debug.c **** #endif
 104:C:/Users/lenovo/Desktop/liteos/Project2/BearPi_LiteOS/components/security/mbedtls/mbedtls-2.6.0/library\debug.c **** #else
 105:C:/Users/lenovo/Desktop/liteos/Project2/BearPi_LiteOS/components/security/mbedtls/mbedtls-2.6.0/library\debug.c ****     ret = vsnprintf( str, DEBUG_BUF_SIZE, format, argp );
 106:C:/Users/lenovo/Desktop/liteos/Project2/BearPi_LiteOS/components/security/mbedtls/mbedtls-2.6.0/library\debug.c **** #endif
 107:C:/Users/lenovo/Desktop/liteos/Project2/BearPi_LiteOS/components/security/mbedtls/mbedtls-2.6.0/library\debug.c ****     va_end( argp );
 108:C:/Users/lenovo/Desktop/liteos/Project2/BearPi_LiteOS/components/security/mbedtls/mbedtls-2.6.0/library\debug.c **** 
 109:C:/Users/lenovo/Desktop/liteos/Project2/BearPi_LiteOS/components/security/mbedtls/mbedtls-2.6.0/library\debug.c ****     if( ret >= 0 && ret < DEBUG_BUF_SIZE - 1 )
 110:C:/Users/lenovo/Desktop/liteos/Project2/BearPi_LiteOS/components/security/mbedtls/mbedtls-2.6.0/library\debug.c ****     {
 111:C:/Users/lenovo/Desktop/liteos/Project2/BearPi_LiteOS/components/security/mbedtls/mbedtls-2.6.0/library\debug.c ****         str[ret]     = '\n';
 112:C:/Users/lenovo/Desktop/liteos/Project2/BearPi_LiteOS/components/security/mbedtls/mbedtls-2.6.0/library\debug.c ****         str[ret + 1] = '\0';
 113:C:/Users/lenovo/Desktop/liteos/Project2/BearPi_LiteOS/components/security/mbedtls/mbedtls-2.6.0/library\debug.c ****     }
 114:C:/Users/lenovo/Desktop/liteos/Project2/BearPi_LiteOS/components/security/mbedtls/mbedtls-2.6.0/library\debug.c **** 
 115:C:/Users/lenovo/Desktop/liteos/Project2/BearPi_LiteOS/components/security/mbedtls/mbedtls-2.6.0/library\debug.c ****     debug_send_line( ssl, level, file, line, str );
 116:C:/Users/lenovo/Desktop/liteos/Project2/BearPi_LiteOS/components/security/mbedtls/mbedtls-2.6.0/library\debug.c **** }
  90              		.loc 1 116 0 is_stmt 1
  91 001a 0DF5057D 		add	sp, sp, #532
  92              	.LCFI2:
  93              		.cfi_remember_state
  94              		.cfi_def_cfa_offset 20
  95              		@ sp needed
  96 001e F0BD     		pop	{r4, r5, r6, r7, pc}
  97              	.LVL4:
  98              	.L12:
  99              	.LCFI3:
 100              		.cfi_restore_state
 101 0020 1F46     		mov	r7, r3
 102 0022 1646     		mov	r6, r2
 103 0024 0D46     		mov	r5, r1
  92:C:/Users/lenovo/Desktop/liteos/Project2/BearPi_LiteOS/components/security/mbedtls/mbedtls-2.6.0/library\debug.c **** #if defined(_WIN32)
 104              		.loc 1 92 0
 105 0026 8BAB     		add	r3, sp, #556
 106              	.LVL5:
 107 0028 8393     		str	r3, [sp, #524]
 105:C:/Users/lenovo/Desktop/liteos/Project2/BearPi_LiteOS/components/security/mbedtls/mbedtls-2.6.0/library\debug.c **** #endif
 108              		.loc 1 105 0
 109 002a 8A9A     		ldr	r2, [sp, #552]
 110              	.LVL6:
 111 002c 4FF40071 		mov	r1, #512
 112              	.LVL7:
ARM GAS  c:\Users\lenovo\AppData\Local\Temp\ccF1rFV3.s 			page 5


 113 0030 03A8     		add	r0, sp, #12
 114 0032 FFF7FEFF 		bl	vsnprintf
 115              	.LVL8:
 109:C:/Users/lenovo/Desktop/liteos/Project2/BearPi_LiteOS/components/security/mbedtls/mbedtls-2.6.0/library\debug.c ****     {
 116              		.loc 1 109 0
 117 0036 B0F5FF7F 		cmp	r0, #510
 118 003a 05D8     		bhi	.L6
 111:C:/Users/lenovo/Desktop/liteos/Project2/BearPi_LiteOS/components/security/mbedtls/mbedtls-2.6.0/library\debug.c ****         str[ret + 1] = '\0';
 119              		.loc 1 111 0
 120 003c 03AB     		add	r3, sp, #12
 121 003e 0A22     		movs	r2, #10
 122 0040 1A54     		strb	r2, [r3, r0]
 112:C:/Users/lenovo/Desktop/liteos/Project2/BearPi_LiteOS/components/security/mbedtls/mbedtls-2.6.0/library\debug.c ****     }
 123              		.loc 1 112 0
 124 0042 0130     		adds	r0, r0, #1
 125              	.LVL9:
 126 0044 0022     		movs	r2, #0
 127 0046 1A54     		strb	r2, [r3, r0]
 128              	.LVL10:
 129              	.L6:
 130              	.LBB18:
 131              	.LBB19:
  77:C:/Users/lenovo/Desktop/liteos/Project2/BearPi_LiteOS/components/security/mbedtls/mbedtls-2.6.0/library\debug.c **** #endif
 132              		.loc 1 77 0
 133 0048 2368     		ldr	r3, [r4]
 134 004a 1C69     		ldr	r4, [r3, #16]
 135              	.LVL11:
 136 004c 5869     		ldr	r0, [r3, #20]
 137 004e 03AB     		add	r3, sp, #12
 138              	.LVL12:
 139 0050 0093     		str	r3, [sp]
 140 0052 3B46     		mov	r3, r7
 141              	.LVL13:
 142 0054 3246     		mov	r2, r6
 143 0056 2946     		mov	r1, r5
 144 0058 A047     		blx	r4
 145              	.LVL14:
 146              	.LBE19:
 147              	.LBE18:
 148 005a DEE7     		b	.L4
 149              	.LVL15:
 150              	.L9:
 151              	.LCFI4:
 152              		.cfi_def_cfa_offset 0
 153              		.cfi_restore 4
 154              		.cfi_restore 5
 155              		.cfi_restore 6
 156              		.cfi_restore 7
 157              		.cfi_restore 14
 158 005c 7047     		bx	lr
 159              	.L14:
 160 005e 00BF     		.align	2
 161              	.L13:
 162 0060 00000000 		.word	.LANCHOR0
 163              		.cfi_endproc
 164              	.LFE16:
 166              		.section	.text.mbedtls_debug_print_ret,"ax",%progbits
ARM GAS  c:\Users\lenovo\AppData\Local\Temp\ccF1rFV3.s 			page 6


 167              		.align	1
 168              		.global	mbedtls_debug_print_ret
 169              		.syntax unified
 170              		.thumb
 171              		.thumb_func
 172              		.fpu fpv4-sp-d16
 174              	mbedtls_debug_print_ret:
 175              	.LFB17:
 117:C:/Users/lenovo/Desktop/liteos/Project2/BearPi_LiteOS/components/security/mbedtls/mbedtls-2.6.0/library\debug.c **** 
 118:C:/Users/lenovo/Desktop/liteos/Project2/BearPi_LiteOS/components/security/mbedtls/mbedtls-2.6.0/library\debug.c **** void mbedtls_debug_print_ret( const mbedtls_ssl_context *ssl, int level,
 119:C:/Users/lenovo/Desktop/liteos/Project2/BearPi_LiteOS/components/security/mbedtls/mbedtls-2.6.0/library\debug.c ****                       const char *file, int line,
 120:C:/Users/lenovo/Desktop/liteos/Project2/BearPi_LiteOS/components/security/mbedtls/mbedtls-2.6.0/library\debug.c ****                       const char *text, int ret )
 121:C:/Users/lenovo/Desktop/liteos/Project2/BearPi_LiteOS/components/security/mbedtls/mbedtls-2.6.0/library\debug.c **** {
 176              		.loc 1 121 0
 177              		.cfi_startproc
 178              		@ args = 8, pretend = 0, frame = 512
 179              		@ frame_needed = 0, uses_anonymous_args = 0
 180              	.LVL16:
 181 0000 2DE9F043 		push	{r4, r5, r6, r7, r8, r9, lr}
 182              	.LCFI5:
 183              		.cfi_def_cfa_offset 28
 184              		.cfi_offset 4, -28
 185              		.cfi_offset 5, -24
 186              		.cfi_offset 6, -20
 187              		.cfi_offset 7, -16
 188              		.cfi_offset 8, -12
 189              		.cfi_offset 9, -8
 190              		.cfi_offset 14, -4
 191 0004 ADF5037D 		sub	sp, sp, #524
 192              	.LCFI6:
 193              		.cfi_def_cfa_offset 552
 122:C:/Users/lenovo/Desktop/liteos/Project2/BearPi_LiteOS/components/security/mbedtls/mbedtls-2.6.0/library\debug.c ****     char str[DEBUG_BUF_SIZE];
 123:C:/Users/lenovo/Desktop/liteos/Project2/BearPi_LiteOS/components/security/mbedtls/mbedtls-2.6.0/library\debug.c **** 
 124:C:/Users/lenovo/Desktop/liteos/Project2/BearPi_LiteOS/components/security/mbedtls/mbedtls-2.6.0/library\debug.c ****     if( ssl->conf == NULL || ssl->conf->f_dbg == NULL || level > debug_threshold )
 194              		.loc 1 124 0
 195 0008 0468     		ldr	r4, [r0]
 196 000a 2CB3     		cbz	r4, .L15
 197              		.loc 1 124 0 is_stmt 0 discriminator 1
 198 000c 2469     		ldr	r4, [r4, #16]
 199 000e 1CB3     		cbz	r4, .L15
 200              		.loc 1 124 0 discriminator 2
 201 0010 134C     		ldr	r4, .L19
 202 0012 2468     		ldr	r4, [r4]
 203 0014 8C42     		cmp	r4, r1
 204 0016 1FDB     		blt	.L15
 125:C:/Users/lenovo/Desktop/liteos/Project2/BearPi_LiteOS/components/security/mbedtls/mbedtls-2.6.0/library\debug.c ****         return;
 126:C:/Users/lenovo/Desktop/liteos/Project2/BearPi_LiteOS/components/security/mbedtls/mbedtls-2.6.0/library\debug.c **** 
 127:C:/Users/lenovo/Desktop/liteos/Project2/BearPi_LiteOS/components/security/mbedtls/mbedtls-2.6.0/library\debug.c ****     /*
 128:C:/Users/lenovo/Desktop/liteos/Project2/BearPi_LiteOS/components/security/mbedtls/mbedtls-2.6.0/library\debug.c ****      * With non-blocking I/O and examples that just retry immediately,
 129:C:/Users/lenovo/Desktop/liteos/Project2/BearPi_LiteOS/components/security/mbedtls/mbedtls-2.6.0/library\debug.c ****      * the logs would be quickly flooded with WANT_READ, so ignore that.
 130:C:/Users/lenovo/Desktop/liteos/Project2/BearPi_LiteOS/components/security/mbedtls/mbedtls-2.6.0/library\debug.c ****      * Don't ignore WANT_WRITE however, since is is usually rare.
 131:C:/Users/lenovo/Desktop/liteos/Project2/BearPi_LiteOS/components/security/mbedtls/mbedtls-2.6.0/library\debug.c ****      */
 132:C:/Users/lenovo/Desktop/liteos/Project2/BearPi_LiteOS/components/security/mbedtls/mbedtls-2.6.0/library\debug.c ****     if( ret == MBEDTLS_ERR_SSL_WANT_READ )
 205              		.loc 1 132 0 is_stmt 1
 206 0018 8B9C     		ldr	r4, [sp, #556]
 207 001a 14F5D24F 		cmn	r4, #26880
 208 001e 1BD0     		beq	.L15
ARM GAS  c:\Users\lenovo\AppData\Local\Temp\ccF1rFV3.s 			page 7


 209 0020 1F46     		mov	r7, r3
 210 0022 1646     		mov	r6, r2
 211 0024 8946     		mov	r9, r1
 212 0026 0446     		mov	r4, r0
 133:C:/Users/lenovo/Desktop/liteos/Project2/BearPi_LiteOS/components/security/mbedtls/mbedtls-2.6.0/library\debug.c ****         return;
 134:C:/Users/lenovo/Desktop/liteos/Project2/BearPi_LiteOS/components/security/mbedtls/mbedtls-2.6.0/library\debug.c **** 
 135:C:/Users/lenovo/Desktop/liteos/Project2/BearPi_LiteOS/components/security/mbedtls/mbedtls-2.6.0/library\debug.c ****     mbedtls_snprintf( str, sizeof( str ), "%s() returned %d (-0x%04x)\n",
 213              		.loc 1 135 0
 214 0028 0DF10808 		add	r8, sp, #8
 215 002c 8B9B     		ldr	r3, [sp, #556]
 216              	.LVL17:
 217 002e 5B42     		negs	r3, r3
 218 0030 0193     		str	r3, [sp, #4]
 219 0032 8B9B     		ldr	r3, [sp, #556]
 220 0034 0093     		str	r3, [sp]
 221 0036 0B4B     		ldr	r3, .L19+4
 222 0038 1D68     		ldr	r5, [r3]
 223 003a 8A9B     		ldr	r3, [sp, #552]
 224 003c 0A4A     		ldr	r2, .L19+8
 225              	.LVL18:
 226 003e 4FF40071 		mov	r1, #512
 227              	.LVL19:
 228 0042 4046     		mov	r0, r8
 229              	.LVL20:
 230 0044 A847     		blx	r5
 231              	.LVL21:
 232              	.LBB20:
 233              	.LBB21:
  77:C:/Users/lenovo/Desktop/liteos/Project2/BearPi_LiteOS/components/security/mbedtls/mbedtls-2.6.0/library\debug.c **** #endif
 234              		.loc 1 77 0
 235 0046 2368     		ldr	r3, [r4]
 236 0048 1C69     		ldr	r4, [r3, #16]
 237              	.LVL22:
 238 004a 5869     		ldr	r0, [r3, #20]
 239 004c CDF80080 		str	r8, [sp]
 240 0050 3B46     		mov	r3, r7
 241 0052 3246     		mov	r2, r6
 242 0054 4946     		mov	r1, r9
 243 0056 A047     		blx	r4
 244              	.LVL23:
 245              	.L15:
 246              	.LBE21:
 247              	.LBE20:
 136:C:/Users/lenovo/Desktop/liteos/Project2/BearPi_LiteOS/components/security/mbedtls/mbedtls-2.6.0/library\debug.c ****               text, ret, -ret );
 137:C:/Users/lenovo/Desktop/liteos/Project2/BearPi_LiteOS/components/security/mbedtls/mbedtls-2.6.0/library\debug.c **** 
 138:C:/Users/lenovo/Desktop/liteos/Project2/BearPi_LiteOS/components/security/mbedtls/mbedtls-2.6.0/library\debug.c ****     debug_send_line( ssl, level, file, line, str );
 139:C:/Users/lenovo/Desktop/liteos/Project2/BearPi_LiteOS/components/security/mbedtls/mbedtls-2.6.0/library\debug.c **** }
 248              		.loc 1 139 0
 249 0058 0DF5037D 		add	sp, sp, #524
 250              	.LCFI7:
 251              		.cfi_def_cfa_offset 28
 252              		@ sp needed
 253 005c BDE8F083 		pop	{r4, r5, r6, r7, r8, r9, pc}
 254              	.LVL24:
 255              	.L20:
 256              		.align	2
 257              	.L19:
ARM GAS  c:\Users\lenovo\AppData\Local\Temp\ccF1rFV3.s 			page 8


 258 0060 00000000 		.word	.LANCHOR0
 259 0064 00000000 		.word	mbedtls_snprintf
 260 0068 00000000 		.word	.LC0
 261              		.cfi_endproc
 262              	.LFE17:
 264              		.section	.text.mbedtls_debug_print_buf,"ax",%progbits
 265              		.align	1
 266              		.global	mbedtls_debug_print_buf
 267              		.syntax unified
 268              		.thumb
 269              		.thumb_func
 270              		.fpu fpv4-sp-d16
 272              	mbedtls_debug_print_buf:
 273              	.LFB18:
 140:C:/Users/lenovo/Desktop/liteos/Project2/BearPi_LiteOS/components/security/mbedtls/mbedtls-2.6.0/library\debug.c **** 
 141:C:/Users/lenovo/Desktop/liteos/Project2/BearPi_LiteOS/components/security/mbedtls/mbedtls-2.6.0/library\debug.c **** void mbedtls_debug_print_buf( const mbedtls_ssl_context *ssl, int level,
 142:C:/Users/lenovo/Desktop/liteos/Project2/BearPi_LiteOS/components/security/mbedtls/mbedtls-2.6.0/library\debug.c ****                       const char *file, int line, const char *text,
 143:C:/Users/lenovo/Desktop/liteos/Project2/BearPi_LiteOS/components/security/mbedtls/mbedtls-2.6.0/library\debug.c ****                       const unsigned char *buf, size_t len )
 144:C:/Users/lenovo/Desktop/liteos/Project2/BearPi_LiteOS/components/security/mbedtls/mbedtls-2.6.0/library\debug.c **** {
 274              		.loc 1 144 0
 275              		.cfi_startproc
 276              		@ args = 12, pretend = 0, frame = 552
 277              		@ frame_needed = 0, uses_anonymous_args = 0
 278              	.LVL25:
 279 0000 2DE9F04F 		push	{r4, r5, r6, r7, r8, r9, r10, fp, lr}
 280              	.LCFI8:
 281              		.cfi_def_cfa_offset 36
 282              		.cfi_offset 4, -36
 283              		.cfi_offset 5, -32
 284              		.cfi_offset 6, -28
 285              		.cfi_offset 7, -24
 286              		.cfi_offset 8, -20
 287              		.cfi_offset 9, -16
 288              		.cfi_offset 10, -12
 289              		.cfi_offset 11, -8
 290              		.cfi_offset 14, -4
 291 0004 ADF50D7D 		sub	sp, sp, #564
 292              	.LCFI9:
 293              		.cfi_def_cfa_offset 600
 294 0008 979F     		ldr	r7, [sp, #604]
 295 000a DDF86092 		ldr	r9, [sp, #608]
 296              	.LVL26:
 145:C:/Users/lenovo/Desktop/liteos/Project2/BearPi_LiteOS/components/security/mbedtls/mbedtls-2.6.0/library\debug.c ****     char str[DEBUG_BUF_SIZE];
 146:C:/Users/lenovo/Desktop/liteos/Project2/BearPi_LiteOS/components/security/mbedtls/mbedtls-2.6.0/library\debug.c ****     char txt[17];
 147:C:/Users/lenovo/Desktop/liteos/Project2/BearPi_LiteOS/components/security/mbedtls/mbedtls-2.6.0/library\debug.c ****     size_t i, idx = 0;
 148:C:/Users/lenovo/Desktop/liteos/Project2/BearPi_LiteOS/components/security/mbedtls/mbedtls-2.6.0/library\debug.c **** 
 149:C:/Users/lenovo/Desktop/liteos/Project2/BearPi_LiteOS/components/security/mbedtls/mbedtls-2.6.0/library\debug.c ****     if( ssl->conf == NULL || ssl->conf->f_dbg == NULL || level > debug_threshold )
 297              		.loc 1 149 0
 298 000e 0468     		ldr	r4, [r0]
 299 0010 002C     		cmp	r4, #0
 300 0012 00F09980 		beq	.L21
 301              		.loc 1 149 0 is_stmt 0 discriminator 1
 302 0016 2469     		ldr	r4, [r4, #16]
 303 0018 002C     		cmp	r4, #0
 304 001a 00F09580 		beq	.L21
 305              		.loc 1 149 0 discriminator 2
 306 001e 4C4C     		ldr	r4, .L35
ARM GAS  c:\Users\lenovo\AppData\Local\Temp\ccF1rFV3.s 			page 9


 307 0020 2468     		ldr	r4, [r4]
 308 0022 8C42     		cmp	r4, r1
 309 0024 C0F29080 		blt	.L21
 310 0028 9B46     		mov	fp, r3
 311 002a 0593     		str	r3, [sp, #20]
 312 002c 9046     		mov	r8, r2
 313 002e 0492     		str	r2, [sp, #16]
 314 0030 0E46     		mov	r6, r1
 315 0032 0391     		str	r1, [sp, #12]
 316 0034 8246     		mov	r10, r0
 150:C:/Users/lenovo/Desktop/liteos/Project2/BearPi_LiteOS/components/security/mbedtls/mbedtls-2.6.0/library\debug.c ****         return;
 151:C:/Users/lenovo/Desktop/liteos/Project2/BearPi_LiteOS/components/security/mbedtls/mbedtls-2.6.0/library\debug.c **** 
 152:C:/Users/lenovo/Desktop/liteos/Project2/BearPi_LiteOS/components/security/mbedtls/mbedtls-2.6.0/library\debug.c ****     mbedtls_snprintf( str + idx, sizeof( str ) - idx, "dumping '%s' (%u bytes)\n",
 317              		.loc 1 152 0 is_stmt 1
 318 0036 0CAC     		add	r4, sp, #48
 319 0038 CDF80090 		str	r9, [sp]
 320 003c 454B     		ldr	r3, .L35+4
 321              	.LVL27:
 322 003e 1D68     		ldr	r5, [r3]
 323 0040 969B     		ldr	r3, [sp, #600]
 324 0042 454A     		ldr	r2, .L35+8
 325              	.LVL28:
 326 0044 4FF40071 		mov	r1, #512
 327              	.LVL29:
 328 0048 2046     		mov	r0, r4
 329              	.LVL30:
 330 004a A847     		blx	r5
 331              	.LVL31:
 332              	.LBB22:
 333              	.LBB23:
  77:C:/Users/lenovo/Desktop/liteos/Project2/BearPi_LiteOS/components/security/mbedtls/mbedtls-2.6.0/library\debug.c **** #endif
 334              		.loc 1 77 0
 335 004c DAF80030 		ldr	r3, [r10]
 336 0050 1D69     		ldr	r5, [r3, #16]
 337 0052 5869     		ldr	r0, [r3, #20]
 338 0054 0094     		str	r4, [sp]
 339 0056 5B46     		mov	r3, fp
 340 0058 4246     		mov	r2, r8
 341 005a 3146     		mov	r1, r6
 342 005c A847     		blx	r5
 343              	.LVL32:
 344              	.LBE23:
 345              	.LBE22:
 153:C:/Users/lenovo/Desktop/liteos/Project2/BearPi_LiteOS/components/security/mbedtls/mbedtls-2.6.0/library\debug.c ****               text, (unsigned int) len );
 154:C:/Users/lenovo/Desktop/liteos/Project2/BearPi_LiteOS/components/security/mbedtls/mbedtls-2.6.0/library\debug.c **** 
 155:C:/Users/lenovo/Desktop/liteos/Project2/BearPi_LiteOS/components/security/mbedtls/mbedtls-2.6.0/library\debug.c ****     debug_send_line( ssl, level, file, line, str );
 156:C:/Users/lenovo/Desktop/liteos/Project2/BearPi_LiteOS/components/security/mbedtls/mbedtls-2.6.0/library\debug.c **** 
 157:C:/Users/lenovo/Desktop/liteos/Project2/BearPi_LiteOS/components/security/mbedtls/mbedtls-2.6.0/library\debug.c ****     idx = 0;
 158:C:/Users/lenovo/Desktop/liteos/Project2/BearPi_LiteOS/components/security/mbedtls/mbedtls-2.6.0/library\debug.c ****     memset( txt, 0, sizeof( txt ) );
 346              		.loc 1 158 0
 347 005e 0024     		movs	r4, #0
 348 0060 0794     		str	r4, [sp, #28]
 349 0062 0894     		str	r4, [sp, #32]
 350 0064 0994     		str	r4, [sp, #36]
 351 0066 0A94     		str	r4, [sp, #40]
 352 0068 8DF82C40 		strb	r4, [sp, #44]
 353              	.LVL33:
ARM GAS  c:\Users\lenovo\AppData\Local\Temp\ccF1rFV3.s 			page 10


 157:C:/Users/lenovo/Desktop/liteos/Project2/BearPi_LiteOS/components/security/mbedtls/mbedtls-2.6.0/library\debug.c ****     memset( txt, 0, sizeof( txt ) );
 354              		.loc 1 157 0
 355 006c 2546     		mov	r5, r4
 159:C:/Users/lenovo/Desktop/liteos/Project2/BearPi_LiteOS/components/security/mbedtls/mbedtls-2.6.0/library\debug.c ****     for( i = 0; i < len; i++ )
 356              		.loc 1 159 0
 357 006e 1FE0     		b	.L23
 358              	.LVL34:
 359              	.L26:
 160:C:/Users/lenovo/Desktop/liteos/Project2/BearPi_LiteOS/components/security/mbedtls/mbedtls-2.6.0/library\debug.c ****     {
 161:C:/Users/lenovo/Desktop/liteos/Project2/BearPi_LiteOS/components/security/mbedtls/mbedtls-2.6.0/library\debug.c ****         if( i >= 4096 )
 162:C:/Users/lenovo/Desktop/liteos/Project2/BearPi_LiteOS/components/security/mbedtls/mbedtls-2.6.0/library\debug.c ****             break;
 163:C:/Users/lenovo/Desktop/liteos/Project2/BearPi_LiteOS/components/security/mbedtls/mbedtls-2.6.0/library\debug.c **** 
 164:C:/Users/lenovo/Desktop/liteos/Project2/BearPi_LiteOS/components/security/mbedtls/mbedtls-2.6.0/library\debug.c ****         if( i % 16 == 0 )
 165:C:/Users/lenovo/Desktop/liteos/Project2/BearPi_LiteOS/components/security/mbedtls/mbedtls-2.6.0/library\debug.c ****         {
 166:C:/Users/lenovo/Desktop/liteos/Project2/BearPi_LiteOS/components/security/mbedtls/mbedtls-2.6.0/library\debug.c ****             if( i > 0 )
 167:C:/Users/lenovo/Desktop/liteos/Project2/BearPi_LiteOS/components/security/mbedtls/mbedtls-2.6.0/library\debug.c ****             {
 168:C:/Users/lenovo/Desktop/liteos/Project2/BearPi_LiteOS/components/security/mbedtls/mbedtls-2.6.0/library\debug.c ****                 mbedtls_snprintf( str + idx, sizeof( str ) - idx, "  %s\n", txt );
 169:C:/Users/lenovo/Desktop/liteos/Project2/BearPi_LiteOS/components/security/mbedtls/mbedtls-2.6.0/library\debug.c ****                 debug_send_line( ssl, level, file, line, str );
 170:C:/Users/lenovo/Desktop/liteos/Project2/BearPi_LiteOS/components/security/mbedtls/mbedtls-2.6.0/library\debug.c **** 
 171:C:/Users/lenovo/Desktop/liteos/Project2/BearPi_LiteOS/components/security/mbedtls/mbedtls-2.6.0/library\debug.c ****                 idx = 0;
 172:C:/Users/lenovo/Desktop/liteos/Project2/BearPi_LiteOS/components/security/mbedtls/mbedtls-2.6.0/library\debug.c ****                 memset( txt, 0, sizeof( txt ) );
 173:C:/Users/lenovo/Desktop/liteos/Project2/BearPi_LiteOS/components/security/mbedtls/mbedtls-2.6.0/library\debug.c ****             }
 174:C:/Users/lenovo/Desktop/liteos/Project2/BearPi_LiteOS/components/security/mbedtls/mbedtls-2.6.0/library\debug.c **** 
 175:C:/Users/lenovo/Desktop/liteos/Project2/BearPi_LiteOS/components/security/mbedtls/mbedtls-2.6.0/library\debug.c ****             idx += mbedtls_snprintf( str + idx, sizeof( str ) - idx, "%04x: ",
 360              		.loc 1 175 0
 361 0070 384B     		ldr	r3, .L35+4
 362 0072 D3F80080 		ldr	r8, [r3]
 363 0076 2346     		mov	r3, r4
 364 0078 384A     		ldr	r2, .L35+12
 365 007a C5F50071 		rsb	r1, r5, #512
 366 007e 0CA8     		add	r0, sp, #48
 367 0080 2844     		add	r0, r0, r5
 368 0082 C047     		blx	r8
 369              	.LVL35:
 370 0084 0544     		add	r5, r5, r0
 371              	.LVL36:
 372              	.L25:
 176:C:/Users/lenovo/Desktop/liteos/Project2/BearPi_LiteOS/components/security/mbedtls/mbedtls-2.6.0/library\debug.c ****                              (unsigned int) i );
 177:C:/Users/lenovo/Desktop/liteos/Project2/BearPi_LiteOS/components/security/mbedtls/mbedtls-2.6.0/library\debug.c **** 
 178:C:/Users/lenovo/Desktop/liteos/Project2/BearPi_LiteOS/components/security/mbedtls/mbedtls-2.6.0/library\debug.c ****         }
 179:C:/Users/lenovo/Desktop/liteos/Project2/BearPi_LiteOS/components/security/mbedtls/mbedtls-2.6.0/library\debug.c **** 
 180:C:/Users/lenovo/Desktop/liteos/Project2/BearPi_LiteOS/components/security/mbedtls/mbedtls-2.6.0/library\debug.c ****         idx += mbedtls_snprintf( str + idx, sizeof( str ) - idx, " %02x",
 373              		.loc 1 180 0
 374 0086 334B     		ldr	r3, .L35+4
 375 0088 D3F80080 		ldr	r8, [r3]
 376 008c 3B5D     		ldrb	r3, [r7, r4]	@ zero_extendqisi2
 377 008e 344A     		ldr	r2, .L35+16
 378 0090 C5F50071 		rsb	r1, r5, #512
 379 0094 0CA8     		add	r0, sp, #48
 380 0096 2844     		add	r0, r0, r5
 381 0098 C047     		blx	r8
 382              	.LVL37:
 383 009a 0544     		add	r5, r5, r0
 384              	.LVL38:
 181:C:/Users/lenovo/Desktop/liteos/Project2/BearPi_LiteOS/components/security/mbedtls/mbedtls-2.6.0/library\debug.c ****                          (unsigned int) buf[i] );
 182:C:/Users/lenovo/Desktop/liteos/Project2/BearPi_LiteOS/components/security/mbedtls/mbedtls-2.6.0/library\debug.c ****         txt[i % 16] = ( buf[i] > 31 && buf[i] < 127 ) ? buf[i] : '.' ;
 385              		.loc 1 182 0
ARM GAS  c:\Users\lenovo\AppData\Local\Temp\ccF1rFV3.s 			page 11


 386 009c 3A5D     		ldrb	r2, [r7, r4]	@ zero_extendqisi2
 387 009e A2F12003 		sub	r3, r2, #32
 388 00a2 DBB2     		uxtb	r3, r3
 389 00a4 5E2B     		cmp	r3, #94
 390 00a6 00D9     		bls	.L27
 391 00a8 2E22     		movs	r2, #46
 392              	.L27:
 393              		.loc 1 182 0 is_stmt 0 discriminator 4
 394 00aa 07AB     		add	r3, sp, #28
 395 00ac 9A55     		strb	r2, [r3, r6]
 159:C:/Users/lenovo/Desktop/liteos/Project2/BearPi_LiteOS/components/security/mbedtls/mbedtls-2.6.0/library\debug.c ****     {
 396              		.loc 1 159 0 is_stmt 1 discriminator 4
 397 00ae 0134     		adds	r4, r4, #1
 398              	.LVL39:
 399              	.L23:
 159:C:/Users/lenovo/Desktop/liteos/Project2/BearPi_LiteOS/components/security/mbedtls/mbedtls-2.6.0/library\debug.c ****     {
 400              		.loc 1 159 0 is_stmt 0 discriminator 2
 401 00b0 4C45     		cmp	r4, r9
 402 00b2 26D2     		bcs	.L24
 161:C:/Users/lenovo/Desktop/liteos/Project2/BearPi_LiteOS/components/security/mbedtls/mbedtls-2.6.0/library\debug.c ****             break;
 403              		.loc 1 161 0 is_stmt 1
 404 00b4 B4F5805F 		cmp	r4, #4096
 405 00b8 23D2     		bcs	.L24
 164:C:/Users/lenovo/Desktop/liteos/Project2/BearPi_LiteOS/components/security/mbedtls/mbedtls-2.6.0/library\debug.c ****         {
 406              		.loc 1 164 0
 407 00ba 14F00F06 		ands	r6, r4, #15
 408 00be E2D1     		bne	.L25
 166:C:/Users/lenovo/Desktop/liteos/Project2/BearPi_LiteOS/components/security/mbedtls/mbedtls-2.6.0/library\debug.c ****             {
 409              		.loc 1 166 0
 410 00c0 002C     		cmp	r4, #0
 411 00c2 D5D0     		beq	.L26
 168:C:/Users/lenovo/Desktop/liteos/Project2/BearPi_LiteOS/components/security/mbedtls/mbedtls-2.6.0/library\debug.c ****                 debug_send_line( ssl, level, file, line, str );
 412              		.loc 1 168 0
 413 00c4 0DF13008 		add	r8, sp, #48
 414 00c8 224B     		ldr	r3, .L35+4
 415 00ca D3F800B0 		ldr	fp, [r3]
 416 00ce 07AB     		add	r3, sp, #28
 417 00d0 244A     		ldr	r2, .L35+20
 418 00d2 C5F50071 		rsb	r1, r5, #512
 419 00d6 08EB0500 		add	r0, r8, r5
 420 00da D847     		blx	fp
 421              	.LVL40:
 422              	.LBB24:
 423              	.LBB25:
  77:C:/Users/lenovo/Desktop/liteos/Project2/BearPi_LiteOS/components/security/mbedtls/mbedtls-2.6.0/library\debug.c **** #endif
 424              		.loc 1 77 0
 425 00dc DAF80030 		ldr	r3, [r10]
 426 00e0 1D69     		ldr	r5, [r3, #16]
 427              	.LVL41:
 428 00e2 5869     		ldr	r0, [r3, #20]
 429 00e4 CDF80080 		str	r8, [sp]
 430 00e8 059B     		ldr	r3, [sp, #20]
 431 00ea 049A     		ldr	r2, [sp, #16]
 432 00ec 0399     		ldr	r1, [sp, #12]
 433 00ee A847     		blx	r5
 434              	.LVL42:
 435              	.LBE25:
ARM GAS  c:\Users\lenovo\AppData\Local\Temp\ccF1rFV3.s 			page 12


 436              	.LBE24:
 172:C:/Users/lenovo/Desktop/liteos/Project2/BearPi_LiteOS/components/security/mbedtls/mbedtls-2.6.0/library\debug.c ****             }
 437              		.loc 1 172 0
 438 00f0 0023     		movs	r3, #0
 439 00f2 0793     		str	r3, [sp, #28]
 440 00f4 0893     		str	r3, [sp, #32]
 441 00f6 0993     		str	r3, [sp, #36]
 442 00f8 0A93     		str	r3, [sp, #40]
 443 00fa 8DF82C30 		strb	r3, [sp, #44]
 171:C:/Users/lenovo/Desktop/liteos/Project2/BearPi_LiteOS/components/security/mbedtls/mbedtls-2.6.0/library\debug.c ****                 memset( txt, 0, sizeof( txt ) );
 444              		.loc 1 171 0
 445 00fe 3546     		mov	r5, r6
 446 0100 B6E7     		b	.L26
 447              	.LVL43:
 448              	.L24:
 183:C:/Users/lenovo/Desktop/liteos/Project2/BearPi_LiteOS/components/security/mbedtls/mbedtls-2.6.0/library\debug.c ****     }
 184:C:/Users/lenovo/Desktop/liteos/Project2/BearPi_LiteOS/components/security/mbedtls/mbedtls-2.6.0/library\debug.c **** 
 185:C:/Users/lenovo/Desktop/liteos/Project2/BearPi_LiteOS/components/security/mbedtls/mbedtls-2.6.0/library\debug.c ****     if( len > 0 )
 449              		.loc 1 185 0
 450 0102 B9F1000F 		cmp	r9, #0
 451 0106 0AD1     		bne	.L29
 452 0108 1EE0     		b	.L21
 453              	.L31:
 186:C:/Users/lenovo/Desktop/liteos/Project2/BearPi_LiteOS/components/security/mbedtls/mbedtls-2.6.0/library\debug.c ****     {
 187:C:/Users/lenovo/Desktop/liteos/Project2/BearPi_LiteOS/components/security/mbedtls/mbedtls-2.6.0/library\debug.c ****         for( /* i = i */; i % 16 != 0; i++ )
 188:C:/Users/lenovo/Desktop/liteos/Project2/BearPi_LiteOS/components/security/mbedtls/mbedtls-2.6.0/library\debug.c ****             idx += mbedtls_snprintf( str + idx, sizeof( str ) - idx, "   " );
 454              		.loc 1 188 0 discriminator 2
 455 010a 124B     		ldr	r3, .L35+4
 456 010c 1B68     		ldr	r3, [r3]
 457 010e 164A     		ldr	r2, .L35+24
 458 0110 C5F50071 		rsb	r1, r5, #512
 459 0114 0CA8     		add	r0, sp, #48
 460 0116 2844     		add	r0, r0, r5
 461 0118 9847     		blx	r3
 462              	.LVL44:
 463 011a 0544     		add	r5, r5, r0
 464              	.LVL45:
 187:C:/Users/lenovo/Desktop/liteos/Project2/BearPi_LiteOS/components/security/mbedtls/mbedtls-2.6.0/library\debug.c ****             idx += mbedtls_snprintf( str + idx, sizeof( str ) - idx, "   " );
 465              		.loc 1 187 0 discriminator 2
 466 011c 0134     		adds	r4, r4, #1
 467              	.LVL46:
 468              	.L29:
 187:C:/Users/lenovo/Desktop/liteos/Project2/BearPi_LiteOS/components/security/mbedtls/mbedtls-2.6.0/library\debug.c ****             idx += mbedtls_snprintf( str + idx, sizeof( str ) - idx, "   " );
 469              		.loc 1 187 0 is_stmt 0 discriminator 1
 470 011e 14F00F0F 		tst	r4, #15
 471 0122 F2D1     		bne	.L31
 189:C:/Users/lenovo/Desktop/liteos/Project2/BearPi_LiteOS/components/security/mbedtls/mbedtls-2.6.0/library\debug.c **** 
 190:C:/Users/lenovo/Desktop/liteos/Project2/BearPi_LiteOS/components/security/mbedtls/mbedtls-2.6.0/library\debug.c ****         mbedtls_snprintf( str + idx, sizeof( str ) - idx, "  %s\n", txt );
 472              		.loc 1 190 0 is_stmt 1
 473 0124 0CAC     		add	r4, sp, #48
 474              	.LVL47:
 475 0126 0B4B     		ldr	r3, .L35+4
 476 0128 1E68     		ldr	r6, [r3]
 477 012a 07AB     		add	r3, sp, #28
 478 012c 0D4A     		ldr	r2, .L35+20
 479 012e C5F50071 		rsb	r1, r5, #512
 480 0132 6019     		adds	r0, r4, r5
ARM GAS  c:\Users\lenovo\AppData\Local\Temp\ccF1rFV3.s 			page 13


 481 0134 B047     		blx	r6
 482              	.LVL48:
 483              	.LBB26:
 484              	.LBB27:
  77:C:/Users/lenovo/Desktop/liteos/Project2/BearPi_LiteOS/components/security/mbedtls/mbedtls-2.6.0/library\debug.c **** #endif
 485              		.loc 1 77 0
 486 0136 DAF80030 		ldr	r3, [r10]
 487 013a 1D69     		ldr	r5, [r3, #16]
 488              	.LVL49:
 489 013c 5869     		ldr	r0, [r3, #20]
 490 013e 0094     		str	r4, [sp]
 491 0140 059B     		ldr	r3, [sp, #20]
 492 0142 049A     		ldr	r2, [sp, #16]
 493 0144 0399     		ldr	r1, [sp, #12]
 494 0146 A847     		blx	r5
 495              	.LVL50:
 496              	.L21:
 497              	.LBE27:
 498              	.LBE26:
 191:C:/Users/lenovo/Desktop/liteos/Project2/BearPi_LiteOS/components/security/mbedtls/mbedtls-2.6.0/library\debug.c ****         debug_send_line( ssl, level, file, line, str );
 192:C:/Users/lenovo/Desktop/liteos/Project2/BearPi_LiteOS/components/security/mbedtls/mbedtls-2.6.0/library\debug.c ****     }
 193:C:/Users/lenovo/Desktop/liteos/Project2/BearPi_LiteOS/components/security/mbedtls/mbedtls-2.6.0/library\debug.c **** }
 499              		.loc 1 193 0
 500 0148 0DF50D7D 		add	sp, sp, #564
 501              	.LCFI10:
 502              		.cfi_def_cfa_offset 36
 503              		@ sp needed
 504 014c BDE8F08F 		pop	{r4, r5, r6, r7, r8, r9, r10, fp, pc}
 505              	.LVL51:
 506              	.L36:
 507              		.align	2
 508              	.L35:
 509 0150 00000000 		.word	.LANCHOR0
 510 0154 00000000 		.word	mbedtls_snprintf
 511 0158 00000000 		.word	.LC1
 512 015c 24000000 		.word	.LC3
 513 0160 2C000000 		.word	.LC4
 514 0164 1C000000 		.word	.LC2
 515 0168 34000000 		.word	.LC5
 516              		.cfi_endproc
 517              	.LFE18:
 519              		.section	.text.mbedtls_debug_print_mpi,"ax",%progbits
 520              		.align	1
 521              		.global	mbedtls_debug_print_mpi
 522              		.syntax unified
 523              		.thumb
 524              		.thumb_func
 525              		.fpu fpv4-sp-d16
 527              	mbedtls_debug_print_mpi:
 528              	.LFB19:
 194:C:/Users/lenovo/Desktop/liteos/Project2/BearPi_LiteOS/components/security/mbedtls/mbedtls-2.6.0/library\debug.c **** 
 195:C:/Users/lenovo/Desktop/liteos/Project2/BearPi_LiteOS/components/security/mbedtls/mbedtls-2.6.0/library\debug.c **** #if defined(MBEDTLS_ECP_C)
 196:C:/Users/lenovo/Desktop/liteos/Project2/BearPi_LiteOS/components/security/mbedtls/mbedtls-2.6.0/library\debug.c **** void mbedtls_debug_print_ecp( const mbedtls_ssl_context *ssl, int level,
 197:C:/Users/lenovo/Desktop/liteos/Project2/BearPi_LiteOS/components/security/mbedtls/mbedtls-2.6.0/library\debug.c ****                       const char *file, int line,
 198:C:/Users/lenovo/Desktop/liteos/Project2/BearPi_LiteOS/components/security/mbedtls/mbedtls-2.6.0/library\debug.c ****                       const char *text, const mbedtls_ecp_point *X )
 199:C:/Users/lenovo/Desktop/liteos/Project2/BearPi_LiteOS/components/security/mbedtls/mbedtls-2.6.0/library\debug.c **** {
 200:C:/Users/lenovo/Desktop/liteos/Project2/BearPi_LiteOS/components/security/mbedtls/mbedtls-2.6.0/library\debug.c ****     char str[DEBUG_BUF_SIZE];
ARM GAS  c:\Users\lenovo\AppData\Local\Temp\ccF1rFV3.s 			page 14


 201:C:/Users/lenovo/Desktop/liteos/Project2/BearPi_LiteOS/components/security/mbedtls/mbedtls-2.6.0/library\debug.c **** 
 202:C:/Users/lenovo/Desktop/liteos/Project2/BearPi_LiteOS/components/security/mbedtls/mbedtls-2.6.0/library\debug.c ****     if( ssl->conf == NULL || ssl->conf->f_dbg == NULL || level > debug_threshold )
 203:C:/Users/lenovo/Desktop/liteos/Project2/BearPi_LiteOS/components/security/mbedtls/mbedtls-2.6.0/library\debug.c ****         return;
 204:C:/Users/lenovo/Desktop/liteos/Project2/BearPi_LiteOS/components/security/mbedtls/mbedtls-2.6.0/library\debug.c **** 
 205:C:/Users/lenovo/Desktop/liteos/Project2/BearPi_LiteOS/components/security/mbedtls/mbedtls-2.6.0/library\debug.c ****     mbedtls_snprintf( str, sizeof( str ), "%s(X)", text );
 206:C:/Users/lenovo/Desktop/liteos/Project2/BearPi_LiteOS/components/security/mbedtls/mbedtls-2.6.0/library\debug.c ****     mbedtls_debug_print_mpi( ssl, level, file, line, str, &X->X );
 207:C:/Users/lenovo/Desktop/liteos/Project2/BearPi_LiteOS/components/security/mbedtls/mbedtls-2.6.0/library\debug.c **** 
 208:C:/Users/lenovo/Desktop/liteos/Project2/BearPi_LiteOS/components/security/mbedtls/mbedtls-2.6.0/library\debug.c ****     mbedtls_snprintf( str, sizeof( str ), "%s(Y)", text );
 209:C:/Users/lenovo/Desktop/liteos/Project2/BearPi_LiteOS/components/security/mbedtls/mbedtls-2.6.0/library\debug.c ****     mbedtls_debug_print_mpi( ssl, level, file, line, str, &X->Y );
 210:C:/Users/lenovo/Desktop/liteos/Project2/BearPi_LiteOS/components/security/mbedtls/mbedtls-2.6.0/library\debug.c **** }
 211:C:/Users/lenovo/Desktop/liteos/Project2/BearPi_LiteOS/components/security/mbedtls/mbedtls-2.6.0/library\debug.c **** #endif /* MBEDTLS_ECP_C */
 212:C:/Users/lenovo/Desktop/liteos/Project2/BearPi_LiteOS/components/security/mbedtls/mbedtls-2.6.0/library\debug.c **** 
 213:C:/Users/lenovo/Desktop/liteos/Project2/BearPi_LiteOS/components/security/mbedtls/mbedtls-2.6.0/library\debug.c **** #if defined(MBEDTLS_BIGNUM_C)
 214:C:/Users/lenovo/Desktop/liteos/Project2/BearPi_LiteOS/components/security/mbedtls/mbedtls-2.6.0/library\debug.c **** void mbedtls_debug_print_mpi( const mbedtls_ssl_context *ssl, int level,
 215:C:/Users/lenovo/Desktop/liteos/Project2/BearPi_LiteOS/components/security/mbedtls/mbedtls-2.6.0/library\debug.c ****                       const char *file, int line,
 216:C:/Users/lenovo/Desktop/liteos/Project2/BearPi_LiteOS/components/security/mbedtls/mbedtls-2.6.0/library\debug.c ****                       const char *text, const mbedtls_mpi *X )
 217:C:/Users/lenovo/Desktop/liteos/Project2/BearPi_LiteOS/components/security/mbedtls/mbedtls-2.6.0/library\debug.c **** {
 529              		.loc 1 217 0
 530              		.cfi_startproc
 531              		@ args = 8, pretend = 0, frame = 520
 532              		@ frame_needed = 0, uses_anonymous_args = 0
 533              	.LVL52:
 534 0000 2DE9F04F 		push	{r4, r5, r6, r7, r8, r9, r10, fp, lr}
 535              	.LCFI11:
 536              		.cfi_def_cfa_offset 36
 537              		.cfi_offset 4, -36
 538              		.cfi_offset 5, -32
 539              		.cfi_offset 6, -28
 540              		.cfi_offset 7, -24
 541              		.cfi_offset 8, -20
 542              		.cfi_offset 9, -16
 543              		.cfi_offset 10, -12
 544              		.cfi_offset 11, -8
 545              		.cfi_offset 14, -4
 546 0004 ADF5057D 		sub	sp, sp, #532
 547              	.LCFI12:
 548              		.cfi_def_cfa_offset 568
 549 0008 8F9F     		ldr	r7, [sp, #572]
 550              	.LVL53:
 218:C:/Users/lenovo/Desktop/liteos/Project2/BearPi_LiteOS/components/security/mbedtls/mbedtls-2.6.0/library\debug.c ****     char str[DEBUG_BUF_SIZE];
 219:C:/Users/lenovo/Desktop/liteos/Project2/BearPi_LiteOS/components/security/mbedtls/mbedtls-2.6.0/library\debug.c ****     int j, k, zeros = 1;
 220:C:/Users/lenovo/Desktop/liteos/Project2/BearPi_LiteOS/components/security/mbedtls/mbedtls-2.6.0/library\debug.c ****     size_t i, n, idx = 0;
 221:C:/Users/lenovo/Desktop/liteos/Project2/BearPi_LiteOS/components/security/mbedtls/mbedtls-2.6.0/library\debug.c **** 
 222:C:/Users/lenovo/Desktop/liteos/Project2/BearPi_LiteOS/components/security/mbedtls/mbedtls-2.6.0/library\debug.c ****     if( ssl->conf == NULL || ssl->conf->f_dbg == NULL || X == NULL || level > debug_threshold )
 551              		.loc 1 222 0
 552 000a 0468     		ldr	r4, [r0]
 553 000c 002C     		cmp	r4, #0
 554 000e 00F0B180 		beq	.L37
 555              		.loc 1 222 0 is_stmt 0 discriminator 1
 556 0012 2469     		ldr	r4, [r4, #16]
 557 0014 002C     		cmp	r4, #0
 558 0016 00F0AD80 		beq	.L37
 559              		.loc 1 222 0 discriminator 2
 560 001a 002F     		cmp	r7, #0
 561 001c 00F0AA80 		beq	.L37
 562              		.loc 1 222 0 discriminator 3
 563 0020 564C     		ldr	r4, .L61
ARM GAS  c:\Users\lenovo\AppData\Local\Temp\ccF1rFV3.s 			page 15


 564 0022 2468     		ldr	r4, [r4]
 565 0024 8C42     		cmp	r4, r1
 566 0026 C0F2A580 		blt	.L37
 223:C:/Users/lenovo/Desktop/liteos/Project2/BearPi_LiteOS/components/security/mbedtls/mbedtls-2.6.0/library\debug.c ****         return;
 224:C:/Users/lenovo/Desktop/liteos/Project2/BearPi_LiteOS/components/security/mbedtls/mbedtls-2.6.0/library\debug.c **** 
 225:C:/Users/lenovo/Desktop/liteos/Project2/BearPi_LiteOS/components/security/mbedtls/mbedtls-2.6.0/library\debug.c ****     for( n = X->n - 1; n > 0; n-- )
 567              		.loc 1 225 0 is_stmt 1
 568 002a 7C68     		ldr	r4, [r7, #4]
 569 002c 013C     		subs	r4, r4, #1
 570              	.LVL54:
 571              	.L39:
 572              		.loc 1 225 0 is_stmt 0 discriminator 1
 573 002e 2CB1     		cbz	r4, .L59
 226:C:/Users/lenovo/Desktop/liteos/Project2/BearPi_LiteOS/components/security/mbedtls/mbedtls-2.6.0/library\debug.c ****         if( X->p[n] != 0 )
 574              		.loc 1 226 0 is_stmt 1
 575 0030 BD68     		ldr	r5, [r7, #8]
 576 0032 55F82450 		ldr	r5, [r5, r4, lsl #2]
 577 0036 6DB9     		cbnz	r5, .L56
 225:C:/Users/lenovo/Desktop/liteos/Project2/BearPi_LiteOS/components/security/mbedtls/mbedtls-2.6.0/library\debug.c ****         if( X->p[n] != 0 )
 578              		.loc 1 225 0 discriminator 2
 579 0038 013C     		subs	r4, r4, #1
 580              	.LVL55:
 581 003a F8E7     		b	.L39
 582              	.L59:
 583 003c 1F25     		movs	r5, #31
 584              	.L43:
 585              	.LVL56:
 227:C:/Users/lenovo/Desktop/liteos/Project2/BearPi_LiteOS/components/security/mbedtls/mbedtls-2.6.0/library\debug.c ****             break;
 228:C:/Users/lenovo/Desktop/liteos/Project2/BearPi_LiteOS/components/security/mbedtls/mbedtls-2.6.0/library\debug.c **** 
 229:C:/Users/lenovo/Desktop/liteos/Project2/BearPi_LiteOS/components/security/mbedtls/mbedtls-2.6.0/library\debug.c ****     for( j = ( sizeof(mbedtls_mpi_uint) << 3 ) - 1; j >= 0; j-- )
 586              		.loc 1 229 0 discriminator 1
 587 003e 002D     		cmp	r5, #0
 588 0040 0ADB     		blt	.L42
 230:C:/Users/lenovo/Desktop/liteos/Project2/BearPi_LiteOS/components/security/mbedtls/mbedtls-2.6.0/library\debug.c ****         if( ( ( X->p[n] >> j ) & 1 ) != 0 )
 589              		.loc 1 230 0
 590 0042 BE68     		ldr	r6, [r7, #8]
 591 0044 56F82460 		ldr	r6, [r6, r4, lsl #2]
 592 0048 EE40     		lsrs	r6, r6, r5
 593 004a 16F0010F 		tst	r6, #1
 594 004e 03D1     		bne	.L42
 229:C:/Users/lenovo/Desktop/liteos/Project2/BearPi_LiteOS/components/security/mbedtls/mbedtls-2.6.0/library\debug.c ****         if( ( ( X->p[n] >> j ) & 1 ) != 0 )
 595              		.loc 1 229 0 discriminator 2
 596 0050 013D     		subs	r5, r5, #1
 597              	.LVL57:
 598 0052 F4E7     		b	.L43
 599              	.LVL58:
 600              	.L56:
 601 0054 1F25     		movs	r5, #31
 602 0056 F2E7     		b	.L43
 603              	.LVL59:
 604              	.L42:
 605 0058 9B46     		mov	fp, r3
 606 005a 9146     		mov	r9, r2
 607 005c 0392     		str	r2, [sp, #12]
 608 005e 8846     		mov	r8, r1
 609 0060 0291     		str	r1, [sp, #8]
 610 0062 8246     		mov	r10, r0
ARM GAS  c:\Users\lenovo\AppData\Local\Temp\ccF1rFV3.s 			page 16


 231:C:/Users/lenovo/Desktop/liteos/Project2/BearPi_LiteOS/components/security/mbedtls/mbedtls-2.6.0/library\debug.c ****             break;
 232:C:/Users/lenovo/Desktop/liteos/Project2/BearPi_LiteOS/components/security/mbedtls/mbedtls-2.6.0/library\debug.c **** 
 233:C:/Users/lenovo/Desktop/liteos/Project2/BearPi_LiteOS/components/security/mbedtls/mbedtls-2.6.0/library\debug.c ****     mbedtls_snprintf( str + idx, sizeof( str ) - idx, "value of '%s' (%d bits) is:\n",
 234:C:/Users/lenovo/Desktop/liteos/Project2/BearPi_LiteOS/components/security/mbedtls/mbedtls-2.6.0/library\debug.c ****               text, (int) ( ( n * ( sizeof(mbedtls_mpi_uint) << 3 ) ) + j + 1 ) );
 611              		.loc 1 234 0
 612 0064 05EB4415 		add	r5, r5, r4, lsl #5
 613              	.LVL60:
 614 0068 0135     		adds	r5, r5, #1
 233:C:/Users/lenovo/Desktop/liteos/Project2/BearPi_LiteOS/components/security/mbedtls/mbedtls-2.6.0/library\debug.c ****               text, (int) ( ( n * ( sizeof(mbedtls_mpi_uint) << 3 ) ) + j + 1 ) );
 615              		.loc 1 233 0
 616 006a 04AE     		add	r6, sp, #16
 617 006c 0095     		str	r5, [sp]
 618 006e 444B     		ldr	r3, .L61+4
 619              	.LVL61:
 620 0070 1D68     		ldr	r5, [r3]
 621 0072 8E9B     		ldr	r3, [sp, #568]
 622 0074 434A     		ldr	r2, .L61+8
 623              	.LVL62:
 624 0076 4FF40071 		mov	r1, #512
 625              	.LVL63:
 626 007a 3046     		mov	r0, r6
 627              	.LVL64:
 628 007c A847     		blx	r5
 629              	.LVL65:
 630              	.LBB28:
 631              	.LBB29:
  77:C:/Users/lenovo/Desktop/liteos/Project2/BearPi_LiteOS/components/security/mbedtls/mbedtls-2.6.0/library\debug.c **** #endif
 632              		.loc 1 77 0
 633 007e DAF80030 		ldr	r3, [r10]
 634 0082 1D69     		ldr	r5, [r3, #16]
 635 0084 5869     		ldr	r0, [r3, #20]
 636 0086 0096     		str	r6, [sp]
 637 0088 5B46     		mov	r3, fp
 638 008a 4A46     		mov	r2, r9
 639 008c 4146     		mov	r1, r8
 640 008e A847     		blx	r5
 641              	.LVL66:
 642              	.LBE29:
 643              	.LBE28:
 235:C:/Users/lenovo/Desktop/liteos/Project2/BearPi_LiteOS/components/security/mbedtls/mbedtls-2.6.0/library\debug.c **** 
 236:C:/Users/lenovo/Desktop/liteos/Project2/BearPi_LiteOS/components/security/mbedtls/mbedtls-2.6.0/library\debug.c ****     debug_send_line( ssl, level, file, line, str );
 237:C:/Users/lenovo/Desktop/liteos/Project2/BearPi_LiteOS/components/security/mbedtls/mbedtls-2.6.0/library\debug.c **** 
 238:C:/Users/lenovo/Desktop/liteos/Project2/BearPi_LiteOS/components/security/mbedtls/mbedtls-2.6.0/library\debug.c ****     idx = 0;
 239:C:/Users/lenovo/Desktop/liteos/Project2/BearPi_LiteOS/components/security/mbedtls/mbedtls-2.6.0/library\debug.c ****     for( i = n + 1, j = 0; i > 0; i-- )
 644              		.loc 1 239 0
 645 0090 0134     		adds	r4, r4, #1
 646              	.LVL67:
 238:C:/Users/lenovo/Desktop/liteos/Project2/BearPi_LiteOS/components/security/mbedtls/mbedtls-2.6.0/library\debug.c ****     for( i = n + 1, j = 0; i > 0; i-- )
 647              		.loc 1 238 0
 648 0092 0025     		movs	r5, #0
 219:C:/Users/lenovo/Desktop/liteos/Project2/BearPi_LiteOS/components/security/mbedtls/mbedtls-2.6.0/library\debug.c ****     size_t i, n, idx = 0;
 649              		.loc 1 219 0
 650 0094 0121     		movs	r1, #1
 651              		.loc 1 239 0
 652 0096 A846     		mov	r8, r5
 653              	.LVL68:
 654 0098 B946     		mov	r9, r7
ARM GAS  c:\Users\lenovo\AppData\Local\Temp\ccF1rFV3.s 			page 17


 655              	.LVL69:
 656 009a 42E0     		b	.L45
 657              	.LVL70:
 658              	.L48:
 240:C:/Users/lenovo/Desktop/liteos/Project2/BearPi_LiteOS/components/security/mbedtls/mbedtls-2.6.0/library\debug.c ****     {
 241:C:/Users/lenovo/Desktop/liteos/Project2/BearPi_LiteOS/components/security/mbedtls/mbedtls-2.6.0/library\debug.c ****         if( zeros && X->p[i - 1] == 0 )
 242:C:/Users/lenovo/Desktop/liteos/Project2/BearPi_LiteOS/components/security/mbedtls/mbedtls-2.6.0/library\debug.c ****             continue;
 243:C:/Users/lenovo/Desktop/liteos/Project2/BearPi_LiteOS/components/security/mbedtls/mbedtls-2.6.0/library\debug.c **** 
 244:C:/Users/lenovo/Desktop/liteos/Project2/BearPi_LiteOS/components/security/mbedtls/mbedtls-2.6.0/library\debug.c ****         for( k = sizeof( mbedtls_mpi_uint ) - 1; k >= 0; k-- )
 245:C:/Users/lenovo/Desktop/liteos/Project2/BearPi_LiteOS/components/security/mbedtls/mbedtls-2.6.0/library\debug.c ****         {
 246:C:/Users/lenovo/Desktop/liteos/Project2/BearPi_LiteOS/components/security/mbedtls/mbedtls-2.6.0/library\debug.c ****             if( zeros && ( ( X->p[i - 1] >> ( k << 3 ) ) & 0xFF ) == 0 )
 247:C:/Users/lenovo/Desktop/liteos/Project2/BearPi_LiteOS/components/security/mbedtls/mbedtls-2.6.0/library\debug.c ****                 continue;
 248:C:/Users/lenovo/Desktop/liteos/Project2/BearPi_LiteOS/components/security/mbedtls/mbedtls-2.6.0/library\debug.c ****             else
 249:C:/Users/lenovo/Desktop/liteos/Project2/BearPi_LiteOS/components/security/mbedtls/mbedtls-2.6.0/library\debug.c ****                 zeros = 0;
 250:C:/Users/lenovo/Desktop/liteos/Project2/BearPi_LiteOS/components/security/mbedtls/mbedtls-2.6.0/library\debug.c **** 
 251:C:/Users/lenovo/Desktop/liteos/Project2/BearPi_LiteOS/components/security/mbedtls/mbedtls-2.6.0/library\debug.c ****             if( j % 16 == 0 )
 659              		.loc 1 251 0
 660 009c 18F00F0F 		tst	r8, #15
 661 00a0 14D1     		bne	.L50
 252:C:/Users/lenovo/Desktop/liteos/Project2/BearPi_LiteOS/components/security/mbedtls/mbedtls-2.6.0/library\debug.c ****             {
 253:C:/Users/lenovo/Desktop/liteos/Project2/BearPi_LiteOS/components/security/mbedtls/mbedtls-2.6.0/library\debug.c ****                 if( j > 0 )
 662              		.loc 1 253 0
 663 00a2 B8F1000F 		cmp	r8, #0
 664 00a6 11DD     		ble	.L50
 254:C:/Users/lenovo/Desktop/liteos/Project2/BearPi_LiteOS/components/security/mbedtls/mbedtls-2.6.0/library\debug.c ****                 {
 255:C:/Users/lenovo/Desktop/liteos/Project2/BearPi_LiteOS/components/security/mbedtls/mbedtls-2.6.0/library\debug.c ****                     mbedtls_snprintf( str + idx, sizeof( str ) - idx, "\n" );
 665              		.loc 1 255 0
 666 00a8 04AF     		add	r7, sp, #16
 667 00aa 354B     		ldr	r3, .L61+4
 668 00ac 1B68     		ldr	r3, [r3]
 669 00ae 364A     		ldr	r2, .L61+12
 670 00b0 C5F50071 		rsb	r1, r5, #512
 671 00b4 7819     		adds	r0, r7, r5
 672 00b6 9847     		blx	r3
 673              	.LVL71:
 674              	.LBB30:
 675              	.LBB31:
  77:C:/Users/lenovo/Desktop/liteos/Project2/BearPi_LiteOS/components/security/mbedtls/mbedtls-2.6.0/library\debug.c **** #endif
 676              		.loc 1 77 0
 677 00b8 DAF80030 		ldr	r3, [r10]
 678 00bc 1D69     		ldr	r5, [r3, #16]
 679              	.LVL72:
 680 00be 5869     		ldr	r0, [r3, #20]
 681 00c0 0097     		str	r7, [sp]
 682 00c2 5B46     		mov	r3, fp
 683 00c4 039A     		ldr	r2, [sp, #12]
 684 00c6 0299     		ldr	r1, [sp, #8]
 685 00c8 A847     		blx	r5
 686              	.LVL73:
 687              	.LBE31:
 688              	.LBE30:
 256:C:/Users/lenovo/Desktop/liteos/Project2/BearPi_LiteOS/components/security/mbedtls/mbedtls-2.6.0/library\debug.c ****                     debug_send_line( ssl, level, file, line, str );
 257:C:/Users/lenovo/Desktop/liteos/Project2/BearPi_LiteOS/components/security/mbedtls/mbedtls-2.6.0/library\debug.c ****                     idx = 0;
 689              		.loc 1 257 0
 690 00ca 0025     		movs	r5, #0
 691              	.LVL74:
 692              	.L50:
ARM GAS  c:\Users\lenovo\AppData\Local\Temp\ccF1rFV3.s 			page 18


 258:C:/Users/lenovo/Desktop/liteos/Project2/BearPi_LiteOS/components/security/mbedtls/mbedtls-2.6.0/library\debug.c ****                 }
 259:C:/Users/lenovo/Desktop/liteos/Project2/BearPi_LiteOS/components/security/mbedtls/mbedtls-2.6.0/library\debug.c ****             }
 260:C:/Users/lenovo/Desktop/liteos/Project2/BearPi_LiteOS/components/security/mbedtls/mbedtls-2.6.0/library\debug.c **** 
 261:C:/Users/lenovo/Desktop/liteos/Project2/BearPi_LiteOS/components/security/mbedtls/mbedtls-2.6.0/library\debug.c ****             idx += mbedtls_snprintf( str + idx, sizeof( str ) - idx, " %02x", (unsigned int)
 262:C:/Users/lenovo/Desktop/liteos/Project2/BearPi_LiteOS/components/security/mbedtls/mbedtls-2.6.0/library\debug.c ****                              ( X->p[i - 1] >> ( k << 3 ) ) & 0xFF );
 693              		.loc 1 262 0
 694 00cc D9F80820 		ldr	r2, [r9, #8]
 695 00d0 04F18043 		add	r3, r4, #1073741824
 696 00d4 013B     		subs	r3, r3, #1
 697 00d6 52F82330 		ldr	r3, [r2, r3, lsl #2]
 698 00da F200     		lsls	r2, r6, #3
 699 00dc D340     		lsrs	r3, r3, r2
 261:C:/Users/lenovo/Desktop/liteos/Project2/BearPi_LiteOS/components/security/mbedtls/mbedtls-2.6.0/library\debug.c ****                              ( X->p[i - 1] >> ( k << 3 ) ) & 0xFF );
 700              		.loc 1 261 0
 701 00de 284A     		ldr	r2, .L61+4
 702 00e0 1768     		ldr	r7, [r2]
 703 00e2 DBB2     		uxtb	r3, r3
 704 00e4 294A     		ldr	r2, .L61+16
 705 00e6 C5F50071 		rsb	r1, r5, #512
 706 00ea 04A8     		add	r0, sp, #16
 707 00ec 2844     		add	r0, r0, r5
 708 00ee B847     		blx	r7
 709              	.LVL75:
 710 00f0 0544     		add	r5, r5, r0
 711              	.LVL76:
 263:C:/Users/lenovo/Desktop/liteos/Project2/BearPi_LiteOS/components/security/mbedtls/mbedtls-2.6.0/library\debug.c **** 
 264:C:/Users/lenovo/Desktop/liteos/Project2/BearPi_LiteOS/components/security/mbedtls/mbedtls-2.6.0/library\debug.c ****             j++;
 712              		.loc 1 264 0
 713 00f2 08F10108 		add	r8, r8, #1
 714              	.LVL77:
 249:C:/Users/lenovo/Desktop/liteos/Project2/BearPi_LiteOS/components/security/mbedtls/mbedtls-2.6.0/library\debug.c **** 
 715              		.loc 1 249 0
 716 00f6 0021     		movs	r1, #0
 717              	.LVL78:
 718              	.L49:
 244:C:/Users/lenovo/Desktop/liteos/Project2/BearPi_LiteOS/components/security/mbedtls/mbedtls-2.6.0/library\debug.c ****         {
 719              		.loc 1 244 0 discriminator 2
 720 00f8 013E     		subs	r6, r6, #1
 721              	.LVL79:
 722              	.L51:
 244:C:/Users/lenovo/Desktop/liteos/Project2/BearPi_LiteOS/components/security/mbedtls/mbedtls-2.6.0/library\debug.c ****         {
 723              		.loc 1 244 0 is_stmt 0 discriminator 1
 724 00fa 002E     		cmp	r6, #0
 725 00fc 10DB     		blt	.L47
 246:C:/Users/lenovo/Desktop/liteos/Project2/BearPi_LiteOS/components/security/mbedtls/mbedtls-2.6.0/library\debug.c ****                 continue;
 726              		.loc 1 246 0 is_stmt 1
 727 00fe 0029     		cmp	r1, #0
 728 0100 CCD0     		beq	.L48
 246:C:/Users/lenovo/Desktop/liteos/Project2/BearPi_LiteOS/components/security/mbedtls/mbedtls-2.6.0/library\debug.c ****                 continue;
 729              		.loc 1 246 0 is_stmt 0 discriminator 1
 730 0102 D9F80820 		ldr	r2, [r9, #8]
 731 0106 04F18043 		add	r3, r4, #1073741824
 732 010a 013B     		subs	r3, r3, #1
 733 010c 52F82330 		ldr	r3, [r2, r3, lsl #2]
 734 0110 F200     		lsls	r2, r6, #3
 735 0112 D340     		lsrs	r3, r3, r2
 736 0114 13F0FF0F 		tst	r3, #255
ARM GAS  c:\Users\lenovo\AppData\Local\Temp\ccF1rFV3.s 			page 19


 737 0118 C0D1     		bne	.L48
 738 011a EDE7     		b	.L49
 739              	.LVL80:
 740              	.L57:
 741 011c 0326     		movs	r6, #3
 742 011e ECE7     		b	.L51
 743              	.L47:
 239:C:/Users/lenovo/Desktop/liteos/Project2/BearPi_LiteOS/components/security/mbedtls/mbedtls-2.6.0/library\debug.c ****     {
 744              		.loc 1 239 0 is_stmt 1 discriminator 2
 745 0120 013C     		subs	r4, r4, #1
 746              	.LVL81:
 747              	.L45:
 239:C:/Users/lenovo/Desktop/liteos/Project2/BearPi_LiteOS/components/security/mbedtls/mbedtls-2.6.0/library\debug.c ****     {
 748              		.loc 1 239 0 is_stmt 0 discriminator 1
 749 0122 64B1     		cbz	r4, .L60
 241:C:/Users/lenovo/Desktop/liteos/Project2/BearPi_LiteOS/components/security/mbedtls/mbedtls-2.6.0/library\debug.c ****             continue;
 750              		.loc 1 241 0 is_stmt 1
 751 0124 0029     		cmp	r1, #0
 752 0126 F9D0     		beq	.L57
 241:C:/Users/lenovo/Desktop/liteos/Project2/BearPi_LiteOS/components/security/mbedtls/mbedtls-2.6.0/library\debug.c ****             continue;
 753              		.loc 1 241 0 is_stmt 0 discriminator 1
 754 0128 D9F80820 		ldr	r2, [r9, #8]
 755 012c 04F18043 		add	r3, r4, #1073741824
 756 0130 013B     		subs	r3, r3, #1
 757 0132 52F82330 		ldr	r3, [r2, r3, lsl #2]
 758 0136 002B     		cmp	r3, #0
 759 0138 F2D0     		beq	.L47
 760 013a 0326     		movs	r6, #3
 761 013c DDE7     		b	.L51
 762              	.L60:
 265:C:/Users/lenovo/Desktop/liteos/Project2/BearPi_LiteOS/components/security/mbedtls/mbedtls-2.6.0/library\debug.c ****         }
 266:C:/Users/lenovo/Desktop/liteos/Project2/BearPi_LiteOS/components/security/mbedtls/mbedtls-2.6.0/library\debug.c **** 
 267:C:/Users/lenovo/Desktop/liteos/Project2/BearPi_LiteOS/components/security/mbedtls/mbedtls-2.6.0/library\debug.c ****     }
 268:C:/Users/lenovo/Desktop/liteos/Project2/BearPi_LiteOS/components/security/mbedtls/mbedtls-2.6.0/library\debug.c **** 
 269:C:/Users/lenovo/Desktop/liteos/Project2/BearPi_LiteOS/components/security/mbedtls/mbedtls-2.6.0/library\debug.c ****     if( zeros == 1 )
 763              		.loc 1 269 0 is_stmt 1
 764 013e 41B1     		cbz	r1, .L54
 270:C:/Users/lenovo/Desktop/liteos/Project2/BearPi_LiteOS/components/security/mbedtls/mbedtls-2.6.0/library\debug.c ****         idx += mbedtls_snprintf( str + idx, sizeof( str ) - idx, " 00" );
 765              		.loc 1 270 0
 766 0140 0F4B     		ldr	r3, .L61+4
 767 0142 1B68     		ldr	r3, [r3]
 768 0144 124A     		ldr	r2, .L61+20
 769 0146 C5F50071 		rsb	r1, r5, #512
 770              	.LVL82:
 771 014a 04A8     		add	r0, sp, #16
 772 014c 2844     		add	r0, r0, r5
 773 014e 9847     		blx	r3
 774              	.LVL83:
 775 0150 0544     		add	r5, r5, r0
 776              	.LVL84:
 777              	.L54:
 271:C:/Users/lenovo/Desktop/liteos/Project2/BearPi_LiteOS/components/security/mbedtls/mbedtls-2.6.0/library\debug.c **** 
 272:C:/Users/lenovo/Desktop/liteos/Project2/BearPi_LiteOS/components/security/mbedtls/mbedtls-2.6.0/library\debug.c ****     mbedtls_snprintf( str + idx, sizeof( str ) - idx, "\n" );
 778              		.loc 1 272 0
 779 0152 04AC     		add	r4, sp, #16
 780              	.LVL85:
 781 0154 0A4B     		ldr	r3, .L61+4
ARM GAS  c:\Users\lenovo\AppData\Local\Temp\ccF1rFV3.s 			page 20


 782 0156 1B68     		ldr	r3, [r3]
 783 0158 0B4A     		ldr	r2, .L61+12
 784 015a C5F50071 		rsb	r1, r5, #512
 785 015e 6019     		adds	r0, r4, r5
 786 0160 9847     		blx	r3
 787              	.LVL86:
 788              	.LBB32:
 789              	.LBB33:
  77:C:/Users/lenovo/Desktop/liteos/Project2/BearPi_LiteOS/components/security/mbedtls/mbedtls-2.6.0/library\debug.c **** #endif
 790              		.loc 1 77 0
 791 0162 DAF80030 		ldr	r3, [r10]
 792 0166 1D69     		ldr	r5, [r3, #16]
 793              	.LVL87:
 794 0168 5869     		ldr	r0, [r3, #20]
 795 016a 0094     		str	r4, [sp]
 796 016c 5B46     		mov	r3, fp
 797 016e 039A     		ldr	r2, [sp, #12]
 798 0170 0299     		ldr	r1, [sp, #8]
 799 0172 A847     		blx	r5
 800              	.LVL88:
 801              	.L37:
 802              	.LBE33:
 803              	.LBE32:
 273:C:/Users/lenovo/Desktop/liteos/Project2/BearPi_LiteOS/components/security/mbedtls/mbedtls-2.6.0/library\debug.c ****     debug_send_line( ssl, level, file, line, str );
 274:C:/Users/lenovo/Desktop/liteos/Project2/BearPi_LiteOS/components/security/mbedtls/mbedtls-2.6.0/library\debug.c **** }
 804              		.loc 1 274 0
 805 0174 0DF5057D 		add	sp, sp, #532
 806              	.LCFI13:
 807              		.cfi_def_cfa_offset 36
 808              		@ sp needed
 809 0178 BDE8F08F 		pop	{r4, r5, r6, r7, r8, r9, r10, fp, pc}
 810              	.LVL89:
 811              	.L62:
 812              		.align	2
 813              	.L61:
 814 017c 00000000 		.word	.LANCHOR0
 815 0180 00000000 		.word	mbedtls_snprintf
 816 0184 00000000 		.word	.LC6
 817 0188 20000000 		.word	.LC7
 818 018c 2C000000 		.word	.LC4
 819 0190 24000000 		.word	.LC8
 820              		.cfi_endproc
 821              	.LFE19:
 823              		.section	.bss.debug_threshold,"aw",%nobits
 824              		.align	2
 825              		.set	.LANCHOR0,. + 0
 828              	debug_threshold:
 829 0000 00000000 		.space	4
 830              		.section	.rodata.mbedtls_debug_print_buf.str1.4,"aMS",%progbits,1
 831              		.align	2
 832              	.LC1:
 833 0000 64756D70 		.ascii	"dumping '%s' (%u bytes)\012\000"
 833      696E6720 
 833      27257327 
 833      20282575 
 833      20627974 
 834 0019 000000   		.space	3
ARM GAS  c:\Users\lenovo\AppData\Local\Temp\ccF1rFV3.s 			page 21


 835              	.LC2:
 836 001c 20202573 		.ascii	"  %s\012\000"
 836      0A00
 837 0022 0000     		.space	2
 838              	.LC3:
 839 0024 25303478 		.ascii	"%04x: \000"
 839      3A2000
 840 002b 00       		.space	1
 841              	.LC4:
 842 002c 20253032 		.ascii	" %02x\000"
 842      7800
 843 0032 0000     		.space	2
 844              	.LC5:
 845 0034 20202000 		.ascii	"   \000"
 846              		.section	.rodata.mbedtls_debug_print_mpi.str1.4,"aMS",%progbits,1
 847              		.align	2
 848              	.LC6:
 849 0000 76616C75 		.ascii	"value of '%s' (%d bits) is:\012\000"
 849      65206F66 
 849      20272573 
 849      27202825 
 849      64206269 
 850 001d 000000   		.space	3
 851              	.LC7:
 852 0020 0A00     		.ascii	"\012\000"
 853 0022 0000     		.space	2
 854              	.LC8:
 855 0024 20303000 		.ascii	" 00\000"
 856              		.section	.rodata.mbedtls_debug_print_ret.str1.4,"aMS",%progbits,1
 857              		.align	2
 858              	.LC0:
 859 0000 25732829 		.ascii	"%s() returned %d (-0x%04x)\012\000"
 859      20726574 
 859      75726E65 
 859      64202564 
 859      20282D30 
 860              		.text
 861              	.Letext0:
 862              		.file 2 "c:\\program files (x86)\\liteos studio\\resources\\arm-none-eabi\\arm-none-eabi\\include\
 863              		.file 3 "c:\\program files (x86)\\liteos studio\\resources\\arm-none-eabi\\lib\\gcc\\arm-none-eabi
 864              		.file 4 "c:\\program files (x86)\\liteos studio\\resources\\arm-none-eabi\\lib\\gcc\\arm-none-eabi
 865              		.file 5 "c:\\program files (x86)\\liteos studio\\resources\\arm-none-eabi\\arm-none-eabi\\include\
 866              		.file 6 "c:\\program files (x86)\\liteos studio\\resources\\arm-none-eabi\\arm-none-eabi\\include\
 867              		.file 7 "c:\\program files (x86)\\liteos studio\\resources\\arm-none-eabi\\arm-none-eabi\\include\
 868              		.file 8 "c:\\program files (x86)\\liteos studio\\resources\\arm-none-eabi\\arm-none-eabi\\include\
 869              		.file 9 "<built-in>"
 870              		.file 10 "c:\\program files (x86)\\liteos studio\\resources\\arm-none-eabi\\arm-none-eabi\\include
 871              		.file 11 "c:\\program files (x86)\\liteos studio\\resources\\arm-none-eabi\\arm-none-eabi\\include
 872              		.file 12 "c:\\program files (x86)\\liteos studio\\resources\\arm-none-eabi\\arm-none-eabi\\include
 873              		.file 13 "C:/Users/lenovo/Desktop/liteos/Project2/BearPi_LiteOS/components/security/mbedtls/mbedtl
 874              		.file 14 "C:/Users/lenovo/Desktop/liteos/Project2/BearPi_LiteOS/components/security/mbedtls/mbedtl
 875              		.file 15 "C:/Users/lenovo/Desktop/liteos/Project2/BearPi_LiteOS/components/security/mbedtls/mbedtl
ARM GAS  c:\Users\lenovo\AppData\Local\Temp\ccF1rFV3.s 			page 22

