ARM GAS  c:\Users\lenovo\AppData\Local\Temp\ccYuaKY9.s 			page 1


   1              		.cpu cortex-m4
   2              		.eabi_attribute 27, 1
   3              		.eabi_attribute 28, 1
   4              		.eabi_attribute 20, 1
   5              		.eabi_attribute 21, 1
   6              		.eabi_attribute 23, 3
   7              		.eabi_attribute 24, 1
   8              		.eabi_attribute 25, 1
   9              		.eabi_attribute 26, 1
  10              		.eabi_attribute 30, 1
  11              		.eabi_attribute 34, 1
  12              		.eabi_attribute 18, 4
  13              		.file	"discover.c"
  14              		.text
  15              	.Ltext0:
  16              		.cfi_sections	.debug_frame
  17              		.section	.text.prv_findAttributes,"ax",%progbits
  18              		.align	1
  19              		.syntax unified
  20              		.thumb
  21              		.thumb_func
  22              		.fpu fpv4-sp-d16
  24              	prv_findAttributes:
  25              	.LFB134:
  26              		.file 1 "C:/Users/lenovo/Desktop/liteos/Project2/BearPi_LiteOS/components/connectivity/lwm2m/core/
   1:C:/Users/lenovo/Desktop/liteos/Project2/BearPi_LiteOS/components/connectivity/lwm2m/core\discover.c **** /*******************************************************************************
   2:C:/Users/lenovo/Desktop/liteos/Project2/BearPi_LiteOS/components/connectivity/lwm2m/core\discover.c **** *
   3:C:/Users/lenovo/Desktop/liteos/Project2/BearPi_LiteOS/components/connectivity/lwm2m/core\discover.c **** * Copyright (c) 2015 Intel Corporation and others.
   4:C:/Users/lenovo/Desktop/liteos/Project2/BearPi_LiteOS/components/connectivity/lwm2m/core\discover.c **** * All rights reserved. This program and the accompanying materials
   5:C:/Users/lenovo/Desktop/liteos/Project2/BearPi_LiteOS/components/connectivity/lwm2m/core\discover.c **** * are made available under the terms of the Eclipse Public License v1.0
   6:C:/Users/lenovo/Desktop/liteos/Project2/BearPi_LiteOS/components/connectivity/lwm2m/core\discover.c **** * and Eclipse Distribution License v1.0 which accompany this distribution.
   7:C:/Users/lenovo/Desktop/liteos/Project2/BearPi_LiteOS/components/connectivity/lwm2m/core\discover.c **** *
   8:C:/Users/lenovo/Desktop/liteos/Project2/BearPi_LiteOS/components/connectivity/lwm2m/core\discover.c **** * The Eclipse Public License is available at
   9:C:/Users/lenovo/Desktop/liteos/Project2/BearPi_LiteOS/components/connectivity/lwm2m/core\discover.c **** *    http://www.eclipse.org/legal/epl-v10.html
  10:C:/Users/lenovo/Desktop/liteos/Project2/BearPi_LiteOS/components/connectivity/lwm2m/core\discover.c **** * The Eclipse Distribution License is available at
  11:C:/Users/lenovo/Desktop/liteos/Project2/BearPi_LiteOS/components/connectivity/lwm2m/core\discover.c **** *    http://www.eclipse.org/org/documents/edl-v10.php.
  12:C:/Users/lenovo/Desktop/liteos/Project2/BearPi_LiteOS/components/connectivity/lwm2m/core\discover.c **** *
  13:C:/Users/lenovo/Desktop/liteos/Project2/BearPi_LiteOS/components/connectivity/lwm2m/core\discover.c **** * Contributors:
  14:C:/Users/lenovo/Desktop/liteos/Project2/BearPi_LiteOS/components/connectivity/lwm2m/core\discover.c **** *    David Navarro, Intel Corporation - initial API and implementation
  15:C:/Users/lenovo/Desktop/liteos/Project2/BearPi_LiteOS/components/connectivity/lwm2m/core\discover.c **** *
  16:C:/Users/lenovo/Desktop/liteos/Project2/BearPi_LiteOS/components/connectivity/lwm2m/core\discover.c **** *******************************************************************************/
  17:C:/Users/lenovo/Desktop/liteos/Project2/BearPi_LiteOS/components/connectivity/lwm2m/core\discover.c **** 
  18:C:/Users/lenovo/Desktop/liteos/Project2/BearPi_LiteOS/components/connectivity/lwm2m/core\discover.c **** 
  19:C:/Users/lenovo/Desktop/liteos/Project2/BearPi_LiteOS/components/connectivity/lwm2m/core\discover.c **** #include "internals.h"
  20:C:/Users/lenovo/Desktop/liteos/Project2/BearPi_LiteOS/components/connectivity/lwm2m/core\discover.c **** 
  21:C:/Users/lenovo/Desktop/liteos/Project2/BearPi_LiteOS/components/connectivity/lwm2m/core\discover.c **** #define PRV_LINK_BUFFER_SIZE  1024
  22:C:/Users/lenovo/Desktop/liteos/Project2/BearPi_LiteOS/components/connectivity/lwm2m/core\discover.c **** 
  23:C:/Users/lenovo/Desktop/liteos/Project2/BearPi_LiteOS/components/connectivity/lwm2m/core\discover.c **** 
  24:C:/Users/lenovo/Desktop/liteos/Project2/BearPi_LiteOS/components/connectivity/lwm2m/core\discover.c **** #define PRV_CONCAT_STR(buf, len, index, str, str_len)    \
  25:C:/Users/lenovo/Desktop/liteos/Project2/BearPi_LiteOS/components/connectivity/lwm2m/core\discover.c ****     {                                                    \
  26:C:/Users/lenovo/Desktop/liteos/Project2/BearPi_LiteOS/components/connectivity/lwm2m/core\discover.c ****         if ((len)-(index) < (str_len)) return -1;        \
  27:C:/Users/lenovo/Desktop/liteos/Project2/BearPi_LiteOS/components/connectivity/lwm2m/core\discover.c ****         memcpy((buf)+(index), (str), (str_len));         \
  28:C:/Users/lenovo/Desktop/liteos/Project2/BearPi_LiteOS/components/connectivity/lwm2m/core\discover.c ****         (index) += (str_len);                            \
  29:C:/Users/lenovo/Desktop/liteos/Project2/BearPi_LiteOS/components/connectivity/lwm2m/core\discover.c ****     }
  30:C:/Users/lenovo/Desktop/liteos/Project2/BearPi_LiteOS/components/connectivity/lwm2m/core\discover.c **** 
  31:C:/Users/lenovo/Desktop/liteos/Project2/BearPi_LiteOS/components/connectivity/lwm2m/core\discover.c **** 
  32:C:/Users/lenovo/Desktop/liteos/Project2/BearPi_LiteOS/components/connectivity/lwm2m/core\discover.c **** #ifdef LWM2M_CLIENT_MODE
ARM GAS  c:\Users\lenovo\AppData\Local\Temp\ccYuaKY9.s 			page 2


  33:C:/Users/lenovo/Desktop/liteos/Project2/BearPi_LiteOS/components/connectivity/lwm2m/core\discover.c **** 
  34:C:/Users/lenovo/Desktop/liteos/Project2/BearPi_LiteOS/components/connectivity/lwm2m/core\discover.c **** static lwm2m_attributes_t *prv_findAttributes(lwm2m_context_t *contextP,
  35:C:/Users/lenovo/Desktop/liteos/Project2/BearPi_LiteOS/components/connectivity/lwm2m/core\discover.c ****         lwm2m_uri_t *uriP,
  36:C:/Users/lenovo/Desktop/liteos/Project2/BearPi_LiteOS/components/connectivity/lwm2m/core\discover.c ****         lwm2m_server_t *serverP)
  37:C:/Users/lenovo/Desktop/liteos/Project2/BearPi_LiteOS/components/connectivity/lwm2m/core\discover.c **** {
  27              		.loc 1 37 0
  28              		.cfi_startproc
  29              		@ args = 0, pretend = 0, frame = 0
  30              		@ frame_needed = 0, uses_anonymous_args = 0
  31              	.LVL0:
  38:C:/Users/lenovo/Desktop/liteos/Project2/BearPi_LiteOS/components/connectivity/lwm2m/core\discover.c ****     lwm2m_observed_t *observedP;
  39:C:/Users/lenovo/Desktop/liteos/Project2/BearPi_LiteOS/components/connectivity/lwm2m/core\discover.c ****     lwm2m_watcher_t *watcherP;
  40:C:/Users/lenovo/Desktop/liteos/Project2/BearPi_LiteOS/components/connectivity/lwm2m/core\discover.c ****     lwm2m_attributes_t *paramP;
  41:C:/Users/lenovo/Desktop/liteos/Project2/BearPi_LiteOS/components/connectivity/lwm2m/core\discover.c **** 
  42:C:/Users/lenovo/Desktop/liteos/Project2/BearPi_LiteOS/components/connectivity/lwm2m/core\discover.c ****     paramP = NULL;
  43:C:/Users/lenovo/Desktop/liteos/Project2/BearPi_LiteOS/components/connectivity/lwm2m/core\discover.c **** 
  44:C:/Users/lenovo/Desktop/liteos/Project2/BearPi_LiteOS/components/connectivity/lwm2m/core\discover.c ****     if (contextP == NULL) return NULL;
  32              		.loc 1 44 0
  33 0000 80B1     		cbz	r0, .L6
  45:C:/Users/lenovo/Desktop/liteos/Project2/BearPi_LiteOS/components/connectivity/lwm2m/core\discover.c ****     if (serverP == NULL) return NULL;
  34              		.loc 1 45 0
  35 0002 8AB1     		cbz	r2, .L7
  37:C:/Users/lenovo/Desktop/liteos/Project2/BearPi_LiteOS/components/connectivity/lwm2m/core\discover.c ****     lwm2m_observed_t *observedP;
  36              		.loc 1 37 0
  37 0004 10B5     		push	{r4, lr}
  38              	.LCFI0:
  39              		.cfi_def_cfa_offset 8
  40              		.cfi_offset 4, -8
  41              		.cfi_offset 14, -4
  42 0006 1446     		mov	r4, r2
  46:C:/Users/lenovo/Desktop/liteos/Project2/BearPi_LiteOS/components/connectivity/lwm2m/core\discover.c **** 
  47:C:/Users/lenovo/Desktop/liteos/Project2/BearPi_LiteOS/components/connectivity/lwm2m/core\discover.c ****     observedP = observe_findByUri(contextP, uriP);
  43              		.loc 1 47 0
  44 0008 FFF7FEFF 		bl	observe_findByUri
  45              	.LVL1:
  48:C:/Users/lenovo/Desktop/liteos/Project2/BearPi_LiteOS/components/connectivity/lwm2m/core\discover.c ****     if (observedP == NULL || observedP->watcherList == NULL) return NULL;
  46              		.loc 1 48 0
  47 000c 70B1     		cbz	r0, .L8
  48              		.loc 1 48 0 is_stmt 0 discriminator 2
  49 000e C368     		ldr	r3, [r0, #12]
  50 0010 73B1     		cbz	r3, .L9
  42:C:/Users/lenovo/Desktop/liteos/Project2/BearPi_LiteOS/components/connectivity/lwm2m/core\discover.c **** 
  51              		.loc 1 42 0 is_stmt 1
  52 0012 0020     		movs	r0, #0
  53              	.LVL2:
  54 0014 00E0     		b	.L3
  55              	.LVL3:
  56              	.L4:
  49:C:/Users/lenovo/Desktop/liteos/Project2/BearPi_LiteOS/components/connectivity/lwm2m/core\discover.c **** 
  50:C:/Users/lenovo/Desktop/liteos/Project2/BearPi_LiteOS/components/connectivity/lwm2m/core\discover.c ****     for (watcherP = observedP->watcherList; watcherP != NULL; watcherP = watcherP->next)
  57              		.loc 1 50 0 discriminator 2
  58 0016 1B68     		ldr	r3, [r3]
  59              	.LVL4:
  60              	.L3:
  61              		.loc 1 50 0 is_stmt 0 discriminator 1
  62 0018 4BB1     		cbz	r3, .L1
  51:C:/Users/lenovo/Desktop/liteos/Project2/BearPi_LiteOS/components/connectivity/lwm2m/core\discover.c ****     {
ARM GAS  c:\Users\lenovo\AppData\Local\Temp\ccYuaKY9.s 			page 3


  52:C:/Users/lenovo/Desktop/liteos/Project2/BearPi_LiteOS/components/connectivity/lwm2m/core\discover.c ****         if (watcherP->server == serverP)
  63              		.loc 1 52 0 is_stmt 1
  64 001a 9968     		ldr	r1, [r3, #8]
  65 001c A142     		cmp	r1, r4
  66 001e FAD1     		bne	.L4
  53:C:/Users/lenovo/Desktop/liteos/Project2/BearPi_LiteOS/components/connectivity/lwm2m/core\discover.c ****         {
  54:C:/Users/lenovo/Desktop/liteos/Project2/BearPi_LiteOS/components/connectivity/lwm2m/core\discover.c ****             paramP = watcherP->parameters;
  67              		.loc 1 54 0
  68 0020 D868     		ldr	r0, [r3, #12]
  69              	.LVL5:
  70 0022 F8E7     		b	.L4
  71              	.LVL6:
  72              	.L6:
  73              	.LCFI1:
  74              		.cfi_def_cfa_offset 0
  75              		.cfi_restore 4
  76              		.cfi_restore 14
  44:C:/Users/lenovo/Desktop/liteos/Project2/BearPi_LiteOS/components/connectivity/lwm2m/core\discover.c ****     if (serverP == NULL) return NULL;
  77              		.loc 1 44 0
  78 0024 0020     		movs	r0, #0
  79              	.LVL7:
  80 0026 7047     		bx	lr
  81              	.LVL8:
  82              	.L7:
  45:C:/Users/lenovo/Desktop/liteos/Project2/BearPi_LiteOS/components/connectivity/lwm2m/core\discover.c **** 
  83              		.loc 1 45 0
  84 0028 0020     		movs	r0, #0
  85              	.LVL9:
  55:C:/Users/lenovo/Desktop/liteos/Project2/BearPi_LiteOS/components/connectivity/lwm2m/core\discover.c ****         }
  56:C:/Users/lenovo/Desktop/liteos/Project2/BearPi_LiteOS/components/connectivity/lwm2m/core\discover.c ****     }
  57:C:/Users/lenovo/Desktop/liteos/Project2/BearPi_LiteOS/components/connectivity/lwm2m/core\discover.c **** 
  58:C:/Users/lenovo/Desktop/liteos/Project2/BearPi_LiteOS/components/connectivity/lwm2m/core\discover.c ****     return paramP;
  59:C:/Users/lenovo/Desktop/liteos/Project2/BearPi_LiteOS/components/connectivity/lwm2m/core\discover.c **** }
  86              		.loc 1 59 0
  87 002a 7047     		bx	lr
  88              	.LVL10:
  89              	.L8:
  90              	.LCFI2:
  91              		.cfi_def_cfa_offset 8
  92              		.cfi_offset 4, -8
  93              		.cfi_offset 14, -4
  48:C:/Users/lenovo/Desktop/liteos/Project2/BearPi_LiteOS/components/connectivity/lwm2m/core\discover.c **** 
  94              		.loc 1 48 0
  95 002c 0020     		movs	r0, #0
  96              	.LVL11:
  97              	.L1:
  98              		.loc 1 59 0
  99 002e 10BD     		pop	{r4, pc}
 100              	.LVL12:
 101              	.L9:
  48:C:/Users/lenovo/Desktop/liteos/Project2/BearPi_LiteOS/components/connectivity/lwm2m/core\discover.c **** 
 102              		.loc 1 48 0
 103 0030 0020     		movs	r0, #0
 104              	.LVL13:
 105 0032 FCE7     		b	.L1
 106              		.cfi_endproc
 107              	.LFE134:
ARM GAS  c:\Users\lenovo\AppData\Local\Temp\ccYuaKY9.s 			page 4


 109              		.section	.text.prv_serializeAttributes,"ax",%progbits
 110              		.align	1
 111              		.syntax unified
 112              		.thumb
 113              		.thumb_func
 114              		.fpu fpv4-sp-d16
 116              	prv_serializeAttributes:
 117              	.LFB135:
  60:C:/Users/lenovo/Desktop/liteos/Project2/BearPi_LiteOS/components/connectivity/lwm2m/core\discover.c **** 
  61:C:/Users/lenovo/Desktop/liteos/Project2/BearPi_LiteOS/components/connectivity/lwm2m/core\discover.c **** static int prv_serializeAttributes(lwm2m_context_t *contextP,
  62:C:/Users/lenovo/Desktop/liteos/Project2/BearPi_LiteOS/components/connectivity/lwm2m/core\discover.c ****                                    lwm2m_uri_t *uriP,
  63:C:/Users/lenovo/Desktop/liteos/Project2/BearPi_LiteOS/components/connectivity/lwm2m/core\discover.c ****                                    lwm2m_server_t *serverP,
  64:C:/Users/lenovo/Desktop/liteos/Project2/BearPi_LiteOS/components/connectivity/lwm2m/core\discover.c ****                                    lwm2m_attributes_t *objectParamP,
  65:C:/Users/lenovo/Desktop/liteos/Project2/BearPi_LiteOS/components/connectivity/lwm2m/core\discover.c ****                                    uint8_t *buffer,
  66:C:/Users/lenovo/Desktop/liteos/Project2/BearPi_LiteOS/components/connectivity/lwm2m/core\discover.c ****                                    size_t uriLen,
  67:C:/Users/lenovo/Desktop/liteos/Project2/BearPi_LiteOS/components/connectivity/lwm2m/core\discover.c ****                                    size_t bufferLen)
  68:C:/Users/lenovo/Desktop/liteos/Project2/BearPi_LiteOS/components/connectivity/lwm2m/core\discover.c **** {
 118              		.loc 1 68 0
 119              		.cfi_startproc
 120              		@ args = 12, pretend = 0, frame = 0
 121              		@ frame_needed = 0, uses_anonymous_args = 0
 122              	.LVL14:
 123 0000 2DE9F843 		push	{r3, r4, r5, r6, r7, r8, r9, lr}
 124              	.LCFI3:
 125              		.cfi_def_cfa_offset 32
 126              		.cfi_offset 3, -32
 127              		.cfi_offset 4, -28
 128              		.cfi_offset 5, -24
 129              		.cfi_offset 6, -20
 130              		.cfi_offset 7, -16
 131              		.cfi_offset 8, -12
 132              		.cfi_offset 9, -8
 133              		.cfi_offset 14, -4
 134 0004 9846     		mov	r8, r3
 135 0006 089C     		ldr	r4, [sp, #32]
 136 0008 099F     		ldr	r7, [sp, #36]
 137 000a 0A9D     		ldr	r5, [sp, #40]
 138              	.LVL15:
  69:C:/Users/lenovo/Desktop/liteos/Project2/BearPi_LiteOS/components/connectivity/lwm2m/core\discover.c ****     int head;
  70:C:/Users/lenovo/Desktop/liteos/Project2/BearPi_LiteOS/components/connectivity/lwm2m/core\discover.c ****     int res;
  71:C:/Users/lenovo/Desktop/liteos/Project2/BearPi_LiteOS/components/connectivity/lwm2m/core\discover.c ****     lwm2m_attributes_t *paramP;
  72:C:/Users/lenovo/Desktop/liteos/Project2/BearPi_LiteOS/components/connectivity/lwm2m/core\discover.c **** 
  73:C:/Users/lenovo/Desktop/liteos/Project2/BearPi_LiteOS/components/connectivity/lwm2m/core\discover.c ****     head = 0;
  74:C:/Users/lenovo/Desktop/liteos/Project2/BearPi_LiteOS/components/connectivity/lwm2m/core\discover.c **** 
  75:C:/Users/lenovo/Desktop/liteos/Project2/BearPi_LiteOS/components/connectivity/lwm2m/core\discover.c ****     paramP = prv_findAttributes(contextP, uriP, serverP);
 139              		.loc 1 75 0
 140 000c FFF7FEFF 		bl	prv_findAttributes
 141              	.LVL16:
  76:C:/Users/lenovo/Desktop/liteos/Project2/BearPi_LiteOS/components/connectivity/lwm2m/core\discover.c ****     if (paramP == NULL) paramP = objectParamP;
 142              		.loc 1 76 0
 143 0010 0646     		mov	r6, r0
 144 0012 0028     		cmp	r0, #0
 145 0014 00F0C980 		beq	.L49
 146              	.L15:
 147              	.LVL17:
  77:C:/Users/lenovo/Desktop/liteos/Project2/BearPi_LiteOS/components/connectivity/lwm2m/core\discover.c **** 
  78:C:/Users/lenovo/Desktop/liteos/Project2/BearPi_LiteOS/components/connectivity/lwm2m/core\discover.c ****     if (paramP != NULL)
ARM GAS  c:\Users\lenovo\AppData\Local\Temp\ccYuaKY9.s 			page 5


 148              		.loc 1 78 0
 149 0018 002E     		cmp	r6, #0
 150 001a 00F01281 		beq	.L25
  79:C:/Users/lenovo/Desktop/liteos/Project2/BearPi_LiteOS/components/connectivity/lwm2m/core\discover.c ****     {
  80:C:/Users/lenovo/Desktop/liteos/Project2/BearPi_LiteOS/components/connectivity/lwm2m/core\discover.c ****         head = uriLen;
 151              		.loc 1 80 0
 152 001e 3B46     		mov	r3, r7
 153              	.LVL18:
  81:C:/Users/lenovo/Desktop/liteos/Project2/BearPi_LiteOS/components/connectivity/lwm2m/core\discover.c **** 
  82:C:/Users/lenovo/Desktop/liteos/Project2/BearPi_LiteOS/components/connectivity/lwm2m/core\discover.c ****         if (paramP->toSet & LWM2M_ATTR_FLAG_MIN_PERIOD)
 154              		.loc 1 82 0
 155 0020 3278     		ldrb	r2, [r6]	@ zero_extendqisi2
 156 0022 12F0010F 		tst	r2, #1
 157 0026 00F0C280 		beq	.L17
  83:C:/Users/lenovo/Desktop/liteos/Project2/BearPi_LiteOS/components/connectivity/lwm2m/core\discover.c ****         {
  84:C:/Users/lenovo/Desktop/liteos/Project2/BearPi_LiteOS/components/connectivity/lwm2m/core\discover.c ****             PRV_CONCAT_STR(buffer, bufferLen, head, LINK_ATTR_SEPARATOR, LINK_ATTR_SEPARATOR_SIZE);
 158              		.loc 1 84 0
 159 002a AF42     		cmp	r7, r5
 160 002c 00F00B81 		beq	.L26
 161              		.loc 1 84 0 is_stmt 0 discriminator 2
 162 0030 3B23     		movs	r3, #59
 163              	.LVL19:
 164 0032 E355     		strb	r3, [r4, r7]
 165 0034 7B1C     		adds	r3, r7, #1
 166              	.LVL20:
  85:C:/Users/lenovo/Desktop/liteos/Project2/BearPi_LiteOS/components/connectivity/lwm2m/core\discover.c ****             PRV_CONCAT_STR(buffer, bufferLen, head, ATTR_MIN_PERIOD_STR, ATTR_MIN_PERIOD_LEN);
 167              		.loc 1 85 0 is_stmt 1 discriminator 2
 168 0036 EA1A     		subs	r2, r5, r3
 169 0038 042A     		cmp	r2, #4
 170 003a 40F20781 		bls	.L27
 171 003e E118     		adds	r1, r4, r3
 172 0040 A24A     		ldr	r2, .L50
 173 0042 1068     		ldr	r0, [r2]
 174 0044 E050     		str	r0, [r4, r3]	@ unaligned
 175 0046 1379     		ldrb	r3, [r2, #4]	@ zero_extendqisi2
 176 0048 0B71     		strb	r3, [r1, #4]
 177 004a 07F10609 		add	r9, r7, #6
 178              	.LVL21:
  86:C:/Users/lenovo/Desktop/liteos/Project2/BearPi_LiteOS/components/connectivity/lwm2m/core\discover.c **** 
  87:C:/Users/lenovo/Desktop/liteos/Project2/BearPi_LiteOS/components/connectivity/lwm2m/core\discover.c ****             res = utils_intToText(paramP->minPeriod, buffer + head, bufferLen - head);
 179              		.loc 1 87 0 discriminator 2
 180 004e A5EB0903 		sub	r3, r5, r9
 181 0052 04EB0902 		add	r2, r4, r9
 182 0056 7068     		ldr	r0, [r6, #4]
 183 0058 0021     		movs	r1, #0
 184 005a FFF7FEFF 		bl	utils_intToText
 185              	.LVL22:
  88:C:/Users/lenovo/Desktop/liteos/Project2/BearPi_LiteOS/components/connectivity/lwm2m/core\discover.c ****             if (res <= 0) return -1;
 186              		.loc 1 88 0 discriminator 2
 187 005e 0028     		cmp	r0, #0
 188 0060 40F3F780 		ble	.L28
  89:C:/Users/lenovo/Desktop/liteos/Project2/BearPi_LiteOS/components/connectivity/lwm2m/core\discover.c ****             head += res;
 189              		.loc 1 89 0
 190 0064 09EB0003 		add	r3, r9, r0
 191              	.LVL23:
 192              	.L18:
  90:C:/Users/lenovo/Desktop/liteos/Project2/BearPi_LiteOS/components/connectivity/lwm2m/core\discover.c ****         }
ARM GAS  c:\Users\lenovo\AppData\Local\Temp\ccYuaKY9.s 			page 6


  91:C:/Users/lenovo/Desktop/liteos/Project2/BearPi_LiteOS/components/connectivity/lwm2m/core\discover.c ****         else if (objectParamP->toSet & LWM2M_ATTR_FLAG_MIN_PERIOD)
  92:C:/Users/lenovo/Desktop/liteos/Project2/BearPi_LiteOS/components/connectivity/lwm2m/core\discover.c ****         {
  93:C:/Users/lenovo/Desktop/liteos/Project2/BearPi_LiteOS/components/connectivity/lwm2m/core\discover.c ****             PRV_CONCAT_STR(buffer, bufferLen, head, LINK_ATTR_SEPARATOR, LINK_ATTR_SEPARATOR_SIZE);
  94:C:/Users/lenovo/Desktop/liteos/Project2/BearPi_LiteOS/components/connectivity/lwm2m/core\discover.c ****             PRV_CONCAT_STR(buffer, bufferLen, head, ATTR_MIN_PERIOD_STR, ATTR_MIN_PERIOD_LEN);
  95:C:/Users/lenovo/Desktop/liteos/Project2/BearPi_LiteOS/components/connectivity/lwm2m/core\discover.c **** 
  96:C:/Users/lenovo/Desktop/liteos/Project2/BearPi_LiteOS/components/connectivity/lwm2m/core\discover.c ****             res = utils_intToText(objectParamP->minPeriod, buffer + head, bufferLen - head);
  97:C:/Users/lenovo/Desktop/liteos/Project2/BearPi_LiteOS/components/connectivity/lwm2m/core\discover.c ****             if (res <= 0) return -1;
  98:C:/Users/lenovo/Desktop/liteos/Project2/BearPi_LiteOS/components/connectivity/lwm2m/core\discover.c ****             head += res;
  99:C:/Users/lenovo/Desktop/liteos/Project2/BearPi_LiteOS/components/connectivity/lwm2m/core\discover.c ****         }
 100:C:/Users/lenovo/Desktop/liteos/Project2/BearPi_LiteOS/components/connectivity/lwm2m/core\discover.c **** 
 101:C:/Users/lenovo/Desktop/liteos/Project2/BearPi_LiteOS/components/connectivity/lwm2m/core\discover.c ****         if (paramP->toSet & LWM2M_ATTR_FLAG_MAX_PERIOD)
 193              		.loc 1 101 0
 194 0068 3278     		ldrb	r2, [r6]	@ zero_extendqisi2
 195 006a 12F0020F 		tst	r2, #2
 196 006e 00F0C280 		beq	.L19
 102:C:/Users/lenovo/Desktop/liteos/Project2/BearPi_LiteOS/components/connectivity/lwm2m/core\discover.c ****         {
 103:C:/Users/lenovo/Desktop/liteos/Project2/BearPi_LiteOS/components/connectivity/lwm2m/core\discover.c ****             PRV_CONCAT_STR(buffer, bufferLen, head, LINK_ATTR_SEPARATOR, LINK_ATTR_SEPARATOR_SIZE);
 197              		.loc 1 103 0
 198 0072 AB42     		cmp	r3, r5
 199 0074 00F0F980 		beq	.L32
 200              		.loc 1 103 0 is_stmt 0 discriminator 2
 201 0078 3B22     		movs	r2, #59
 202 007a E254     		strb	r2, [r4, r3]
 203 007c 5A1C     		adds	r2, r3, #1
 204              	.LVL24:
 104:C:/Users/lenovo/Desktop/liteos/Project2/BearPi_LiteOS/components/connectivity/lwm2m/core\discover.c ****             PRV_CONCAT_STR(buffer, bufferLen, head, ATTR_MAX_PERIOD_STR, ATTR_MAX_PERIOD_LEN);
 205              		.loc 1 104 0 is_stmt 1 discriminator 2
 206 007e A91A     		subs	r1, r5, r2
 207 0080 0429     		cmp	r1, #4
 208 0082 40F2F580 		bls	.L33
 209 0086 04EB020C 		add	ip, r4, r2
 210 008a 9149     		ldr	r1, .L50+4
 211 008c 0868     		ldr	r0, [r1]
 212 008e A050     		str	r0, [r4, r2]	@ unaligned
 213 0090 0A79     		ldrb	r2, [r1, #4]	@ zero_extendqisi2
 214 0092 8CF80420 		strb	r2, [ip, #4]
 215 0096 03F10608 		add	r8, r3, #6
 216              	.LVL25:
 105:C:/Users/lenovo/Desktop/liteos/Project2/BearPi_LiteOS/components/connectivity/lwm2m/core\discover.c **** 
 106:C:/Users/lenovo/Desktop/liteos/Project2/BearPi_LiteOS/components/connectivity/lwm2m/core\discover.c ****             res = utils_intToText(paramP->maxPeriod, buffer + head, bufferLen - head);
 217              		.loc 1 106 0 discriminator 2
 218 009a A5EB0803 		sub	r3, r5, r8
 219 009e 04EB0802 		add	r2, r4, r8
 220 00a2 B068     		ldr	r0, [r6, #8]
 221 00a4 0021     		movs	r1, #0
 222 00a6 FFF7FEFF 		bl	utils_intToText
 223              	.LVL26:
 107:C:/Users/lenovo/Desktop/liteos/Project2/BearPi_LiteOS/components/connectivity/lwm2m/core\discover.c ****             if (res <= 0) return -1;
 224              		.loc 1 107 0 discriminator 2
 225 00aa 0028     		cmp	r0, #0
 226 00ac 40F3E380 		ble	.L34
 108:C:/Users/lenovo/Desktop/liteos/Project2/BearPi_LiteOS/components/connectivity/lwm2m/core\discover.c ****             head += res;
 227              		.loc 1 108 0
 228 00b0 08EB0003 		add	r3, r8, r0
 229              	.LVL27:
 230              	.L20:
 109:C:/Users/lenovo/Desktop/liteos/Project2/BearPi_LiteOS/components/connectivity/lwm2m/core\discover.c ****         }
ARM GAS  c:\Users\lenovo\AppData\Local\Temp\ccYuaKY9.s 			page 7


 110:C:/Users/lenovo/Desktop/liteos/Project2/BearPi_LiteOS/components/connectivity/lwm2m/core\discover.c ****         else if (objectParamP->toSet & LWM2M_ATTR_FLAG_MAX_PERIOD)
 111:C:/Users/lenovo/Desktop/liteos/Project2/BearPi_LiteOS/components/connectivity/lwm2m/core\discover.c ****         {
 112:C:/Users/lenovo/Desktop/liteos/Project2/BearPi_LiteOS/components/connectivity/lwm2m/core\discover.c ****             PRV_CONCAT_STR(buffer, bufferLen, head, LINK_ATTR_SEPARATOR, LINK_ATTR_SEPARATOR_SIZE);
 113:C:/Users/lenovo/Desktop/liteos/Project2/BearPi_LiteOS/components/connectivity/lwm2m/core\discover.c ****             PRV_CONCAT_STR(buffer, bufferLen, head, ATTR_MAX_PERIOD_STR, ATTR_MAX_PERIOD_LEN);
 114:C:/Users/lenovo/Desktop/liteos/Project2/BearPi_LiteOS/components/connectivity/lwm2m/core\discover.c **** 
 115:C:/Users/lenovo/Desktop/liteos/Project2/BearPi_LiteOS/components/connectivity/lwm2m/core\discover.c ****             res = utils_intToText(objectParamP->maxPeriod, buffer + head, bufferLen - head);
 116:C:/Users/lenovo/Desktop/liteos/Project2/BearPi_LiteOS/components/connectivity/lwm2m/core\discover.c ****             if (res <= 0) return -1;
 117:C:/Users/lenovo/Desktop/liteos/Project2/BearPi_LiteOS/components/connectivity/lwm2m/core\discover.c ****             head += res;
 118:C:/Users/lenovo/Desktop/liteos/Project2/BearPi_LiteOS/components/connectivity/lwm2m/core\discover.c ****         }
 119:C:/Users/lenovo/Desktop/liteos/Project2/BearPi_LiteOS/components/connectivity/lwm2m/core\discover.c **** 
 120:C:/Users/lenovo/Desktop/liteos/Project2/BearPi_LiteOS/components/connectivity/lwm2m/core\discover.c ****         if (paramP->toSet & LWM2M_ATTR_FLAG_GREATER_THAN)
 231              		.loc 1 120 0
 232 00b4 3278     		ldrb	r2, [r6]	@ zero_extendqisi2
 233 00b6 12F0040F 		tst	r2, #4
 234 00ba 20D0     		beq	.L21
 121:C:/Users/lenovo/Desktop/liteos/Project2/BearPi_LiteOS/components/connectivity/lwm2m/core\discover.c ****         {
 122:C:/Users/lenovo/Desktop/liteos/Project2/BearPi_LiteOS/components/connectivity/lwm2m/core\discover.c ****             PRV_CONCAT_STR(buffer, bufferLen, head, LINK_ATTR_SEPARATOR, LINK_ATTR_SEPARATOR_SIZE);
 235              		.loc 1 122 0
 236 00bc AB42     		cmp	r3, r5
 237 00be 00F0E680 		beq	.L38
 238              		.loc 1 122 0 is_stmt 0 discriminator 2
 239 00c2 3B22     		movs	r2, #59
 240 00c4 E254     		strb	r2, [r4, r3]
 241 00c6 5A1C     		adds	r2, r3, #1
 242              	.LVL28:
 123:C:/Users/lenovo/Desktop/liteos/Project2/BearPi_LiteOS/components/connectivity/lwm2m/core\discover.c ****             PRV_CONCAT_STR(buffer, bufferLen, head, ATTR_GREATER_THAN_STR, ATTR_GREATER_THAN_LEN);
 243              		.loc 1 123 0 is_stmt 1 discriminator 2
 244 00c8 A91A     		subs	r1, r5, r2
 245 00ca 0229     		cmp	r1, #2
 246 00cc 40F2E280 		bls	.L39
 247 00d0 A018     		adds	r0, r4, r2
 248 00d2 8049     		ldr	r1, .L50+8
 249 00d4 B1F800C0 		ldrh	ip, [r1]	@ unaligned
 250 00d8 8978     		ldrb	r1, [r1, #2]	@ zero_extendqisi2
 251 00da 24F802C0 		strh	ip, [r4, r2]	@ unaligned
 252 00de 8170     		strb	r1, [r0, #2]
 253 00e0 03F10408 		add	r8, r3, #4
 254              	.LVL29:
 124:C:/Users/lenovo/Desktop/liteos/Project2/BearPi_LiteOS/components/connectivity/lwm2m/core\discover.c **** 
 125:C:/Users/lenovo/Desktop/liteos/Project2/BearPi_LiteOS/components/connectivity/lwm2m/core\discover.c ****             res = utils_floatToText(paramP->greaterThan, buffer + head, bufferLen - head);
 255              		.loc 1 125 0 discriminator 2
 256 00e4 A5EB0801 		sub	r1, r5, r8
 257 00e8 04EB0800 		add	r0, r4, r8
 258 00ec 96ED040B 		vldr.64	d0, [r6, #16]
 259 00f0 FFF7FEFF 		bl	utils_floatToText
 260              	.LVL30:
 126:C:/Users/lenovo/Desktop/liteos/Project2/BearPi_LiteOS/components/connectivity/lwm2m/core\discover.c ****             if (res <= 0) return -1;
 261              		.loc 1 126 0 discriminator 2
 262 00f4 0028     		cmp	r0, #0
 263 00f6 40F3D080 		ble	.L40
 127:C:/Users/lenovo/Desktop/liteos/Project2/BearPi_LiteOS/components/connectivity/lwm2m/core\discover.c ****             head += res;
 264              		.loc 1 127 0
 265 00fa 08EB0003 		add	r3, r8, r0
 266              	.LVL31:
 267              	.L21:
 128:C:/Users/lenovo/Desktop/liteos/Project2/BearPi_LiteOS/components/connectivity/lwm2m/core\discover.c ****         }
 129:C:/Users/lenovo/Desktop/liteos/Project2/BearPi_LiteOS/components/connectivity/lwm2m/core\discover.c ****         if (paramP->toSet & LWM2M_ATTR_FLAG_LESS_THAN)
ARM GAS  c:\Users\lenovo\AppData\Local\Temp\ccYuaKY9.s 			page 8


 268              		.loc 1 129 0
 269 00fe 3278     		ldrb	r2, [r6]	@ zero_extendqisi2
 270 0100 12F0080F 		tst	r2, #8
 271 0104 20D0     		beq	.L22
 130:C:/Users/lenovo/Desktop/liteos/Project2/BearPi_LiteOS/components/connectivity/lwm2m/core\discover.c ****         {
 131:C:/Users/lenovo/Desktop/liteos/Project2/BearPi_LiteOS/components/connectivity/lwm2m/core\discover.c ****             PRV_CONCAT_STR(buffer, bufferLen, head, LINK_ATTR_SEPARATOR, LINK_ATTR_SEPARATOR_SIZE);
 272              		.loc 1 131 0
 273 0106 AB42     		cmp	r3, r5
 274 0108 00F0CA80 		beq	.L41
 275              		.loc 1 131 0 is_stmt 0 discriminator 2
 276 010c 3B22     		movs	r2, #59
 277 010e E254     		strb	r2, [r4, r3]
 278 0110 5A1C     		adds	r2, r3, #1
 279              	.LVL32:
 132:C:/Users/lenovo/Desktop/liteos/Project2/BearPi_LiteOS/components/connectivity/lwm2m/core\discover.c ****             PRV_CONCAT_STR(buffer, bufferLen, head, ATTR_LESS_THAN_STR, ATTR_LESS_THAN_LEN);
 280              		.loc 1 132 0 is_stmt 1 discriminator 2
 281 0112 A91A     		subs	r1, r5, r2
 282 0114 0229     		cmp	r1, #2
 283 0116 40F2C680 		bls	.L42
 284 011a A018     		adds	r0, r4, r2
 285 011c 6E49     		ldr	r1, .L50+12
 286 011e B1F800C0 		ldrh	ip, [r1]	@ unaligned
 287 0122 8978     		ldrb	r1, [r1, #2]	@ zero_extendqisi2
 288 0124 24F802C0 		strh	ip, [r4, r2]	@ unaligned
 289 0128 8170     		strb	r1, [r0, #2]
 290 012a 03F10408 		add	r8, r3, #4
 291              	.LVL33:
 133:C:/Users/lenovo/Desktop/liteos/Project2/BearPi_LiteOS/components/connectivity/lwm2m/core\discover.c **** 
 134:C:/Users/lenovo/Desktop/liteos/Project2/BearPi_LiteOS/components/connectivity/lwm2m/core\discover.c ****             res = utils_floatToText(paramP->lessThan, buffer + head, bufferLen - head);
 292              		.loc 1 134 0 discriminator 2
 293 012e A5EB0801 		sub	r1, r5, r8
 294 0132 04EB0800 		add	r0, r4, r8
 295 0136 96ED060B 		vldr.64	d0, [r6, #24]
 296 013a FFF7FEFF 		bl	utils_floatToText
 297              	.LVL34:
 135:C:/Users/lenovo/Desktop/liteos/Project2/BearPi_LiteOS/components/connectivity/lwm2m/core\discover.c ****             if (res <= 0) return -1;
 298              		.loc 1 135 0 discriminator 2
 299 013e 0028     		cmp	r0, #0
 300 0140 40F3B480 		ble	.L43
 136:C:/Users/lenovo/Desktop/liteos/Project2/BearPi_LiteOS/components/connectivity/lwm2m/core\discover.c ****             head += res;
 301              		.loc 1 136 0
 302 0144 08EB0003 		add	r3, r8, r0
 303              	.LVL35:
 304              	.L22:
 137:C:/Users/lenovo/Desktop/liteos/Project2/BearPi_LiteOS/components/connectivity/lwm2m/core\discover.c ****         }
 138:C:/Users/lenovo/Desktop/liteos/Project2/BearPi_LiteOS/components/connectivity/lwm2m/core\discover.c ****         if (paramP->toSet & LWM2M_ATTR_FLAG_STEP)
 305              		.loc 1 138 0
 306 0148 3278     		ldrb	r2, [r6]	@ zero_extendqisi2
 307 014a 12F0100F 		tst	r2, #16
 308 014e 20D0     		beq	.L23
 139:C:/Users/lenovo/Desktop/liteos/Project2/BearPi_LiteOS/components/connectivity/lwm2m/core\discover.c ****         {
 140:C:/Users/lenovo/Desktop/liteos/Project2/BearPi_LiteOS/components/connectivity/lwm2m/core\discover.c ****             PRV_CONCAT_STR(buffer, bufferLen, head, LINK_ATTR_SEPARATOR, LINK_ATTR_SEPARATOR_SIZE);
 309              		.loc 1 140 0
 310 0150 AB42     		cmp	r3, r5
 311 0152 00F0AE80 		beq	.L44
 312              		.loc 1 140 0 is_stmt 0 discriminator 2
 313 0156 3B22     		movs	r2, #59
ARM GAS  c:\Users\lenovo\AppData\Local\Temp\ccYuaKY9.s 			page 9


 314 0158 E254     		strb	r2, [r4, r3]
 315 015a 5A1C     		adds	r2, r3, #1
 316              	.LVL36:
 141:C:/Users/lenovo/Desktop/liteos/Project2/BearPi_LiteOS/components/connectivity/lwm2m/core\discover.c ****             PRV_CONCAT_STR(buffer, bufferLen, head, ATTR_STEP_STR, ATTR_STEP_LEN);
 317              		.loc 1 141 0 is_stmt 1 discriminator 2
 318 015c A91A     		subs	r1, r5, r2
 319 015e 0229     		cmp	r1, #2
 320 0160 40F2AA80 		bls	.L45
 321 0164 A018     		adds	r0, r4, r2
 322 0166 5D49     		ldr	r1, .L50+16
 323 0168 B1F800C0 		ldrh	ip, [r1]	@ unaligned
 324 016c 8978     		ldrb	r1, [r1, #2]	@ zero_extendqisi2
 325 016e 24F802C0 		strh	ip, [r4, r2]	@ unaligned
 326 0172 8170     		strb	r1, [r0, #2]
 327 0174 03F10408 		add	r8, r3, #4
 328              	.LVL37:
 142:C:/Users/lenovo/Desktop/liteos/Project2/BearPi_LiteOS/components/connectivity/lwm2m/core\discover.c **** 
 143:C:/Users/lenovo/Desktop/liteos/Project2/BearPi_LiteOS/components/connectivity/lwm2m/core\discover.c ****             res = utils_floatToText(paramP->step, buffer + head, bufferLen - head);
 329              		.loc 1 143 0 discriminator 2
 330 0178 A5EB0801 		sub	r1, r5, r8
 331 017c 04EB0800 		add	r0, r4, r8
 332 0180 96ED080B 		vldr.64	d0, [r6, #32]
 333 0184 FFF7FEFF 		bl	utils_floatToText
 334              	.LVL38:
 144:C:/Users/lenovo/Desktop/liteos/Project2/BearPi_LiteOS/components/connectivity/lwm2m/core\discover.c ****             if (res <= 0) return -1;
 335              		.loc 1 144 0 discriminator 2
 336 0188 0028     		cmp	r0, #0
 337 018a 40F39880 		ble	.L46
 145:C:/Users/lenovo/Desktop/liteos/Project2/BearPi_LiteOS/components/connectivity/lwm2m/core\discover.c ****             head += res;
 338              		.loc 1 145 0
 339 018e 08EB0003 		add	r3, r8, r0
 340              	.LVL39:
 341              	.L23:
 146:C:/Users/lenovo/Desktop/liteos/Project2/BearPi_LiteOS/components/connectivity/lwm2m/core\discover.c ****         }
 147:C:/Users/lenovo/Desktop/liteos/Project2/BearPi_LiteOS/components/connectivity/lwm2m/core\discover.c ****         PRV_CONCAT_STR(buffer, bufferLen, head, LINK_ITEM_ATTR_END, LINK_ITEM_ATTR_END_SIZE);
 342              		.loc 1 147 0
 343 0192 AB42     		cmp	r3, r5
 344 0194 00F09680 		beq	.L47
 345              		.loc 1 147 0 is_stmt 0 discriminator 2
 346 0198 2C22     		movs	r2, #44
 347 019a E254     		strb	r2, [r4, r3]
 348 019c 581C     		adds	r0, r3, #1
 349              	.LVL40:
 148:C:/Users/lenovo/Desktop/liteos/Project2/BearPi_LiteOS/components/connectivity/lwm2m/core\discover.c ****     }
 149:C:/Users/lenovo/Desktop/liteos/Project2/BearPi_LiteOS/components/connectivity/lwm2m/core\discover.c **** 
 150:C:/Users/lenovo/Desktop/liteos/Project2/BearPi_LiteOS/components/connectivity/lwm2m/core\discover.c ****     if (head > 0) head -= uriLen + 1;
 350              		.loc 1 150 0 is_stmt 1 discriminator 2
 351 019e 0028     		cmp	r0, #0
 352 01a0 01DD     		ble	.L14
 353              		.loc 1 150 0 is_stmt 0 discriminator 1
 354 01a2 C01B     		subs	r0, r0, r7
 355              	.LVL41:
 356 01a4 0138     		subs	r0, r0, #1
 357              	.LVL42:
 358              	.L14:
 151:C:/Users/lenovo/Desktop/liteos/Project2/BearPi_LiteOS/components/connectivity/lwm2m/core\discover.c **** 
 152:C:/Users/lenovo/Desktop/liteos/Project2/BearPi_LiteOS/components/connectivity/lwm2m/core\discover.c ****     return head;
ARM GAS  c:\Users\lenovo\AppData\Local\Temp\ccYuaKY9.s 			page 10


 153:C:/Users/lenovo/Desktop/liteos/Project2/BearPi_LiteOS/components/connectivity/lwm2m/core\discover.c **** }
 359              		.loc 1 153 0 is_stmt 1
 360 01a6 BDE8F883 		pop	{r3, r4, r5, r6, r7, r8, r9, pc}
 361              	.LVL43:
 362              	.L49:
  76:C:/Users/lenovo/Desktop/liteos/Project2/BearPi_LiteOS/components/connectivity/lwm2m/core\discover.c **** 
 363              		.loc 1 76 0
 364 01aa 4646     		mov	r6, r8
 365 01ac 34E7     		b	.L15
 366              	.LVL44:
 367              	.L17:
  91:C:/Users/lenovo/Desktop/liteos/Project2/BearPi_LiteOS/components/connectivity/lwm2m/core\discover.c ****         {
 368              		.loc 1 91 0
 369 01ae 98F80020 		ldrb	r2, [r8]	@ zero_extendqisi2
 370 01b2 12F0010F 		tst	r2, #1
 371 01b6 3FF457AF 		beq	.L18
  93:C:/Users/lenovo/Desktop/liteos/Project2/BearPi_LiteOS/components/connectivity/lwm2m/core\discover.c ****             PRV_CONCAT_STR(buffer, bufferLen, head, ATTR_MIN_PERIOD_STR, ATTR_MIN_PERIOD_LEN);
 372              		.loc 1 93 0
 373 01ba AF42     		cmp	r7, r5
 374 01bc 4CD0     		beq	.L29
  93:C:/Users/lenovo/Desktop/liteos/Project2/BearPi_LiteOS/components/connectivity/lwm2m/core\discover.c ****             PRV_CONCAT_STR(buffer, bufferLen, head, ATTR_MIN_PERIOD_STR, ATTR_MIN_PERIOD_LEN);
 375              		.loc 1 93 0 is_stmt 0 discriminator 2
 376 01be 3B23     		movs	r3, #59
 377              	.LVL45:
 378 01c0 E355     		strb	r3, [r4, r7]
 379 01c2 7B1C     		adds	r3, r7, #1
 380              	.LVL46:
  94:C:/Users/lenovo/Desktop/liteos/Project2/BearPi_LiteOS/components/connectivity/lwm2m/core\discover.c **** 
 381              		.loc 1 94 0 is_stmt 1 discriminator 2
 382 01c4 EA1A     		subs	r2, r5, r3
 383 01c6 042A     		cmp	r2, #4
 384 01c8 49D9     		bls	.L30
 385 01ca E118     		adds	r1, r4, r3
 386 01cc 3F4A     		ldr	r2, .L50
 387 01ce 1068     		ldr	r0, [r2]
 388 01d0 E050     		str	r0, [r4, r3]	@ unaligned
 389 01d2 1379     		ldrb	r3, [r2, #4]	@ zero_extendqisi2
 390 01d4 0B71     		strb	r3, [r1, #4]
 391 01d6 07F10609 		add	r9, r7, #6
 392              	.LVL47:
  96:C:/Users/lenovo/Desktop/liteos/Project2/BearPi_LiteOS/components/connectivity/lwm2m/core\discover.c ****             if (res <= 0) return -1;
 393              		.loc 1 96 0 discriminator 2
 394 01da A5EB0903 		sub	r3, r5, r9
 395 01de 04EB0902 		add	r2, r4, r9
 396 01e2 D8F80400 		ldr	r0, [r8, #4]
 397 01e6 0021     		movs	r1, #0
 398 01e8 FFF7FEFF 		bl	utils_intToText
 399              	.LVL48:
  97:C:/Users/lenovo/Desktop/liteos/Project2/BearPi_LiteOS/components/connectivity/lwm2m/core\discover.c ****             head += res;
 400              		.loc 1 97 0 discriminator 2
 401 01ec 0028     		cmp	r0, #0
 402 01ee 39DD     		ble	.L31
  98:C:/Users/lenovo/Desktop/liteos/Project2/BearPi_LiteOS/components/connectivity/lwm2m/core\discover.c ****         }
 403              		.loc 1 98 0
 404 01f0 09EB0003 		add	r3, r9, r0
 405              	.LVL49:
 406 01f4 38E7     		b	.L18
ARM GAS  c:\Users\lenovo\AppData\Local\Temp\ccYuaKY9.s 			page 11


 407              	.LVL50:
 408              	.L19:
 110:C:/Users/lenovo/Desktop/liteos/Project2/BearPi_LiteOS/components/connectivity/lwm2m/core\discover.c ****         {
 409              		.loc 1 110 0
 410 01f6 98F80020 		ldrb	r2, [r8]	@ zero_extendqisi2
 411 01fa 12F0020F 		tst	r2, #2
 412 01fe 3FF459AF 		beq	.L20
 112:C:/Users/lenovo/Desktop/liteos/Project2/BearPi_LiteOS/components/connectivity/lwm2m/core\discover.c ****             PRV_CONCAT_STR(buffer, bufferLen, head, ATTR_MAX_PERIOD_STR, ATTR_MAX_PERIOD_LEN);
 413              		.loc 1 112 0
 414 0202 AB42     		cmp	r3, r5
 415 0204 3AD0     		beq	.L35
 112:C:/Users/lenovo/Desktop/liteos/Project2/BearPi_LiteOS/components/connectivity/lwm2m/core\discover.c ****             PRV_CONCAT_STR(buffer, bufferLen, head, ATTR_MAX_PERIOD_STR, ATTR_MAX_PERIOD_LEN);
 416              		.loc 1 112 0 is_stmt 0 discriminator 2
 417 0206 3B22     		movs	r2, #59
 418 0208 E254     		strb	r2, [r4, r3]
 419 020a 5A1C     		adds	r2, r3, #1
 420              	.LVL51:
 113:C:/Users/lenovo/Desktop/liteos/Project2/BearPi_LiteOS/components/connectivity/lwm2m/core\discover.c **** 
 421              		.loc 1 113 0 is_stmt 1 discriminator 2
 422 020c A91A     		subs	r1, r5, r2
 423 020e 0429     		cmp	r1, #4
 424 0210 37D9     		bls	.L36
 425 0212 04EB020C 		add	ip, r4, r2
 426 0216 2E49     		ldr	r1, .L50+4
 427 0218 0868     		ldr	r0, [r1]
 428 021a A050     		str	r0, [r4, r2]	@ unaligned
 429 021c 0A79     		ldrb	r2, [r1, #4]	@ zero_extendqisi2
 430 021e 8CF80420 		strb	r2, [ip, #4]
 431 0222 03F10609 		add	r9, r3, #6
 432              	.LVL52:
 115:C:/Users/lenovo/Desktop/liteos/Project2/BearPi_LiteOS/components/connectivity/lwm2m/core\discover.c ****             if (res <= 0) return -1;
 433              		.loc 1 115 0 discriminator 2
 434 0226 A5EB0903 		sub	r3, r5, r9
 435 022a 04EB0902 		add	r2, r4, r9
 436 022e D8F80800 		ldr	r0, [r8, #8]
 437 0232 0021     		movs	r1, #0
 438 0234 FFF7FEFF 		bl	utils_intToText
 439              	.LVL53:
 116:C:/Users/lenovo/Desktop/liteos/Project2/BearPi_LiteOS/components/connectivity/lwm2m/core\discover.c ****             head += res;
 440              		.loc 1 116 0 discriminator 2
 441 0238 0028     		cmp	r0, #0
 442 023a 25DD     		ble	.L37
 117:C:/Users/lenovo/Desktop/liteos/Project2/BearPi_LiteOS/components/connectivity/lwm2m/core\discover.c ****         }
 443              		.loc 1 117 0
 444 023c 09EB0003 		add	r3, r9, r0
 445              	.LVL54:
 446 0240 38E7     		b	.L20
 447              	.LVL55:
 448              	.L25:
  73:C:/Users/lenovo/Desktop/liteos/Project2/BearPi_LiteOS/components/connectivity/lwm2m/core\discover.c **** 
 449              		.loc 1 73 0
 450 0242 0020     		movs	r0, #0
 451 0244 AFE7     		b	.L14
 452              	.LVL56:
 453              	.L26:
  84:C:/Users/lenovo/Desktop/liteos/Project2/BearPi_LiteOS/components/connectivity/lwm2m/core\discover.c ****             PRV_CONCAT_STR(buffer, bufferLen, head, ATTR_MIN_PERIOD_STR, ATTR_MIN_PERIOD_LEN);
 454              		.loc 1 84 0
ARM GAS  c:\Users\lenovo\AppData\Local\Temp\ccYuaKY9.s 			page 12


 455 0246 4FF0FF30 		mov	r0, #-1
 456 024a ACE7     		b	.L14
 457              	.LVL57:
 458              	.L27:
  85:C:/Users/lenovo/Desktop/liteos/Project2/BearPi_LiteOS/components/connectivity/lwm2m/core\discover.c **** 
 459              		.loc 1 85 0
 460 024c 4FF0FF30 		mov	r0, #-1
 461 0250 A9E7     		b	.L14
 462              	.LVL58:
 463              	.L28:
  88:C:/Users/lenovo/Desktop/liteos/Project2/BearPi_LiteOS/components/connectivity/lwm2m/core\discover.c ****             head += res;
 464              		.loc 1 88 0
 465 0252 4FF0FF30 		mov	r0, #-1
 466              	.LVL59:
 467 0256 A6E7     		b	.L14
 468              	.LVL60:
 469              	.L29:
  93:C:/Users/lenovo/Desktop/liteos/Project2/BearPi_LiteOS/components/connectivity/lwm2m/core\discover.c ****             PRV_CONCAT_STR(buffer, bufferLen, head, ATTR_MIN_PERIOD_STR, ATTR_MIN_PERIOD_LEN);
 470              		.loc 1 93 0
 471 0258 4FF0FF30 		mov	r0, #-1
 472 025c A3E7     		b	.L14
 473              	.LVL61:
 474              	.L30:
  94:C:/Users/lenovo/Desktop/liteos/Project2/BearPi_LiteOS/components/connectivity/lwm2m/core\discover.c **** 
 475              		.loc 1 94 0
 476 025e 4FF0FF30 		mov	r0, #-1
 477 0262 A0E7     		b	.L14
 478              	.LVL62:
 479              	.L31:
  97:C:/Users/lenovo/Desktop/liteos/Project2/BearPi_LiteOS/components/connectivity/lwm2m/core\discover.c ****             head += res;
 480              		.loc 1 97 0
 481 0264 4FF0FF30 		mov	r0, #-1
 482              	.LVL63:
 483 0268 9DE7     		b	.L14
 484              	.LVL64:
 485              	.L32:
 103:C:/Users/lenovo/Desktop/liteos/Project2/BearPi_LiteOS/components/connectivity/lwm2m/core\discover.c ****             PRV_CONCAT_STR(buffer, bufferLen, head, ATTR_MAX_PERIOD_STR, ATTR_MAX_PERIOD_LEN);
 486              		.loc 1 103 0
 487 026a 4FF0FF30 		mov	r0, #-1
 488 026e 9AE7     		b	.L14
 489              	.LVL65:
 490              	.L33:
 104:C:/Users/lenovo/Desktop/liteos/Project2/BearPi_LiteOS/components/connectivity/lwm2m/core\discover.c **** 
 491              		.loc 1 104 0
 492 0270 4FF0FF30 		mov	r0, #-1
 493 0274 97E7     		b	.L14
 494              	.LVL66:
 495              	.L34:
 107:C:/Users/lenovo/Desktop/liteos/Project2/BearPi_LiteOS/components/connectivity/lwm2m/core\discover.c ****             head += res;
 496              		.loc 1 107 0
 497 0276 4FF0FF30 		mov	r0, #-1
 498              	.LVL67:
 499 027a 94E7     		b	.L14
 500              	.LVL68:
 501              	.L35:
 112:C:/Users/lenovo/Desktop/liteos/Project2/BearPi_LiteOS/components/connectivity/lwm2m/core\discover.c ****             PRV_CONCAT_STR(buffer, bufferLen, head, ATTR_MAX_PERIOD_STR, ATTR_MAX_PERIOD_LEN);
 502              		.loc 1 112 0
ARM GAS  c:\Users\lenovo\AppData\Local\Temp\ccYuaKY9.s 			page 13


 503 027c 4FF0FF30 		mov	r0, #-1
 504 0280 91E7     		b	.L14
 505              	.LVL69:
 506              	.L36:
 113:C:/Users/lenovo/Desktop/liteos/Project2/BearPi_LiteOS/components/connectivity/lwm2m/core\discover.c **** 
 507              		.loc 1 113 0
 508 0282 4FF0FF30 		mov	r0, #-1
 509 0286 8EE7     		b	.L14
 510              	.LVL70:
 511              	.L37:
 116:C:/Users/lenovo/Desktop/liteos/Project2/BearPi_LiteOS/components/connectivity/lwm2m/core\discover.c ****             head += res;
 512              		.loc 1 116 0
 513 0288 4FF0FF30 		mov	r0, #-1
 514              	.LVL71:
 515 028c 8BE7     		b	.L14
 516              	.LVL72:
 517              	.L38:
 122:C:/Users/lenovo/Desktop/liteos/Project2/BearPi_LiteOS/components/connectivity/lwm2m/core\discover.c ****             PRV_CONCAT_STR(buffer, bufferLen, head, ATTR_GREATER_THAN_STR, ATTR_GREATER_THAN_LEN);
 518              		.loc 1 122 0
 519 028e 4FF0FF30 		mov	r0, #-1
 520 0292 88E7     		b	.L14
 521              	.LVL73:
 522              	.L39:
 123:C:/Users/lenovo/Desktop/liteos/Project2/BearPi_LiteOS/components/connectivity/lwm2m/core\discover.c **** 
 523              		.loc 1 123 0
 524 0294 4FF0FF30 		mov	r0, #-1
 525 0298 85E7     		b	.L14
 526              	.LVL74:
 527              	.L40:
 126:C:/Users/lenovo/Desktop/liteos/Project2/BearPi_LiteOS/components/connectivity/lwm2m/core\discover.c ****             head += res;
 528              		.loc 1 126 0
 529 029a 4FF0FF30 		mov	r0, #-1
 530              	.LVL75:
 531 029e 82E7     		b	.L14
 532              	.LVL76:
 533              	.L41:
 131:C:/Users/lenovo/Desktop/liteos/Project2/BearPi_LiteOS/components/connectivity/lwm2m/core\discover.c ****             PRV_CONCAT_STR(buffer, bufferLen, head, ATTR_LESS_THAN_STR, ATTR_LESS_THAN_LEN);
 534              		.loc 1 131 0
 535 02a0 4FF0FF30 		mov	r0, #-1
 536 02a4 7FE7     		b	.L14
 537              	.LVL77:
 538              	.L42:
 132:C:/Users/lenovo/Desktop/liteos/Project2/BearPi_LiteOS/components/connectivity/lwm2m/core\discover.c **** 
 539              		.loc 1 132 0
 540 02a6 4FF0FF30 		mov	r0, #-1
 541 02aa 7CE7     		b	.L14
 542              	.LVL78:
 543              	.L43:
 135:C:/Users/lenovo/Desktop/liteos/Project2/BearPi_LiteOS/components/connectivity/lwm2m/core\discover.c ****             head += res;
 544              		.loc 1 135 0
 545 02ac 4FF0FF30 		mov	r0, #-1
 546              	.LVL79:
 547 02b0 79E7     		b	.L14
 548              	.LVL80:
 549              	.L44:
 140:C:/Users/lenovo/Desktop/liteos/Project2/BearPi_LiteOS/components/connectivity/lwm2m/core\discover.c ****             PRV_CONCAT_STR(buffer, bufferLen, head, ATTR_STEP_STR, ATTR_STEP_LEN);
 550              		.loc 1 140 0
ARM GAS  c:\Users\lenovo\AppData\Local\Temp\ccYuaKY9.s 			page 14


 551 02b2 4FF0FF30 		mov	r0, #-1
 552 02b6 76E7     		b	.L14
 553              	.LVL81:
 554              	.L45:
 141:C:/Users/lenovo/Desktop/liteos/Project2/BearPi_LiteOS/components/connectivity/lwm2m/core\discover.c **** 
 555              		.loc 1 141 0
 556 02b8 4FF0FF30 		mov	r0, #-1
 557 02bc 73E7     		b	.L14
 558              	.LVL82:
 559              	.L46:
 144:C:/Users/lenovo/Desktop/liteos/Project2/BearPi_LiteOS/components/connectivity/lwm2m/core\discover.c ****             head += res;
 560              		.loc 1 144 0
 561 02be 4FF0FF30 		mov	r0, #-1
 562              	.LVL83:
 563 02c2 70E7     		b	.L14
 564              	.LVL84:
 565              	.L47:
 147:C:/Users/lenovo/Desktop/liteos/Project2/BearPi_LiteOS/components/connectivity/lwm2m/core\discover.c ****     }
 566              		.loc 1 147 0
 567 02c4 4FF0FF30 		mov	r0, #-1
 568 02c8 6DE7     		b	.L14
 569              	.L51:
 570 02ca 00BF     		.align	2
 571              	.L50:
 572 02cc 00000000 		.word	.LC0
 573 02d0 08000000 		.word	.LC1
 574 02d4 10000000 		.word	.LC2
 575 02d8 14000000 		.word	.LC3
 576 02dc 18000000 		.word	.LC4
 577              		.cfi_endproc
 578              	.LFE135:
 580              		.section	.text.prv_serializeLinkData,"ax",%progbits
 581              		.align	1
 582              		.syntax unified
 583              		.thumb
 584              		.thumb_func
 585              		.fpu fpv4-sp-d16
 587              	prv_serializeLinkData:
 588              	.LFB136:
 154:C:/Users/lenovo/Desktop/liteos/Project2/BearPi_LiteOS/components/connectivity/lwm2m/core\discover.c **** 
 155:C:/Users/lenovo/Desktop/liteos/Project2/BearPi_LiteOS/components/connectivity/lwm2m/core\discover.c **** static int prv_serializeLinkData(lwm2m_context_t *contextP,
 156:C:/Users/lenovo/Desktop/liteos/Project2/BearPi_LiteOS/components/connectivity/lwm2m/core\discover.c ****                                  lwm2m_data_t *tlvP,
 157:C:/Users/lenovo/Desktop/liteos/Project2/BearPi_LiteOS/components/connectivity/lwm2m/core\discover.c ****                                  lwm2m_server_t *serverP,
 158:C:/Users/lenovo/Desktop/liteos/Project2/BearPi_LiteOS/components/connectivity/lwm2m/core\discover.c ****                                  lwm2m_attributes_t *objectParamP,
 159:C:/Users/lenovo/Desktop/liteos/Project2/BearPi_LiteOS/components/connectivity/lwm2m/core\discover.c ****                                  lwm2m_uri_t *parentUriP,
 160:C:/Users/lenovo/Desktop/liteos/Project2/BearPi_LiteOS/components/connectivity/lwm2m/core\discover.c ****                                  uint8_t *parentUriStr,
 161:C:/Users/lenovo/Desktop/liteos/Project2/BearPi_LiteOS/components/connectivity/lwm2m/core\discover.c ****                                  size_t parentUriLen,
 162:C:/Users/lenovo/Desktop/liteos/Project2/BearPi_LiteOS/components/connectivity/lwm2m/core\discover.c ****                                  uint8_t *buffer,
 163:C:/Users/lenovo/Desktop/liteos/Project2/BearPi_LiteOS/components/connectivity/lwm2m/core\discover.c ****                                  size_t bufferLen)
 164:C:/Users/lenovo/Desktop/liteos/Project2/BearPi_LiteOS/components/connectivity/lwm2m/core\discover.c **** {
 589              		.loc 1 164 0
 590              		.cfi_startproc
 591              		@ args = 20, pretend = 0, frame = 40
 592              		@ frame_needed = 0, uses_anonymous_args = 0
 593              	.LVL85:
 594 0000 2DE9F04F 		push	{r4, r5, r6, r7, r8, r9, r10, fp, lr}
 595              	.LCFI4:
ARM GAS  c:\Users\lenovo\AppData\Local\Temp\ccYuaKY9.s 			page 15


 596              		.cfi_def_cfa_offset 36
 597              		.cfi_offset 4, -36
 598              		.cfi_offset 5, -32
 599              		.cfi_offset 6, -28
 600              		.cfi_offset 7, -24
 601              		.cfi_offset 8, -20
 602              		.cfi_offset 9, -16
 603              		.cfi_offset 10, -12
 604              		.cfi_offset 11, -8
 605              		.cfi_offset 14, -4
 606 0004 91B0     		sub	sp, sp, #68
 607              	.LCFI5:
 608              		.cfi_def_cfa_offset 104
 609 0006 8346     		mov	fp, r0
 610 0008 0D46     		mov	r5, r1
 611 000a 9146     		mov	r9, r2
 612 000c 0793     		str	r3, [sp, #28]
 613 000e 1C9C     		ldr	r4, [sp, #112]
 614 0010 1D9E     		ldr	r6, [sp, #116]
 615 0012 1E9F     		ldr	r7, [sp, #120]
 616              	.LVL86:
 165:C:/Users/lenovo/Desktop/liteos/Project2/BearPi_LiteOS/components/connectivity/lwm2m/core\discover.c ****     int head;
 166:C:/Users/lenovo/Desktop/liteos/Project2/BearPi_LiteOS/components/connectivity/lwm2m/core\discover.c ****     int res;
 167:C:/Users/lenovo/Desktop/liteos/Project2/BearPi_LiteOS/components/connectivity/lwm2m/core\discover.c ****     lwm2m_uri_t uri;
 168:C:/Users/lenovo/Desktop/liteos/Project2/BearPi_LiteOS/components/connectivity/lwm2m/core\discover.c **** 
 169:C:/Users/lenovo/Desktop/liteos/Project2/BearPi_LiteOS/components/connectivity/lwm2m/core\discover.c ****     head = 0;
 170:C:/Users/lenovo/Desktop/liteos/Project2/BearPi_LiteOS/components/connectivity/lwm2m/core\discover.c **** 
 171:C:/Users/lenovo/Desktop/liteos/Project2/BearPi_LiteOS/components/connectivity/lwm2m/core\discover.c ****     switch (tlvP->type)
 617              		.loc 1 171 0
 618 0014 0B78     		ldrb	r3, [r1]	@ zero_extendqisi2
 619              	.LVL87:
 620 0016 092B     		cmp	r3, #9
 621 0018 00F2ED80 		bhi	.L65
 622 001c DFE813F0 		tbh	[pc, r3, lsl #1]
 623              	.LVL88:
 624              	.L55:
 625 0020 0A00     		.2byte	(.L54-.L55)/2
 626 0022 EB00     		.2byte	(.L65-.L55)/2
 627 0024 7600     		.2byte	(.L56-.L55)/2
 628 0026 0A00     		.2byte	(.L54-.L55)/2
 629 0028 0A00     		.2byte	(.L54-.L55)/2
 630 002a 0A00     		.2byte	(.L54-.L55)/2
 631 002c 0A00     		.2byte	(.L54-.L55)/2
 632 002e 0A00     		.2byte	(.L54-.L55)/2
 633 0030 0A00     		.2byte	(.L54-.L55)/2
 634 0032 0A00     		.2byte	(.L54-.L55)/2
 635              		.p2align 1
 636              	.L54:
 172:C:/Users/lenovo/Desktop/liteos/Project2/BearPi_LiteOS/components/connectivity/lwm2m/core\discover.c ****     {
 173:C:/Users/lenovo/Desktop/liteos/Project2/BearPi_LiteOS/components/connectivity/lwm2m/core\discover.c ****     case LWM2M_TYPE_UNDEFINED:
 174:C:/Users/lenovo/Desktop/liteos/Project2/BearPi_LiteOS/components/connectivity/lwm2m/core\discover.c ****     case LWM2M_TYPE_STRING:
 175:C:/Users/lenovo/Desktop/liteos/Project2/BearPi_LiteOS/components/connectivity/lwm2m/core\discover.c ****     case LWM2M_TYPE_OPAQUE:
 176:C:/Users/lenovo/Desktop/liteos/Project2/BearPi_LiteOS/components/connectivity/lwm2m/core\discover.c ****     case LWM2M_TYPE_INTEGER:
 177:C:/Users/lenovo/Desktop/liteos/Project2/BearPi_LiteOS/components/connectivity/lwm2m/core\discover.c ****     case LWM2M_TYPE_FLOAT:
 178:C:/Users/lenovo/Desktop/liteos/Project2/BearPi_LiteOS/components/connectivity/lwm2m/core\discover.c ****     case LWM2M_TYPE_BOOLEAN:
 179:C:/Users/lenovo/Desktop/liteos/Project2/BearPi_LiteOS/components/connectivity/lwm2m/core\discover.c ****     case LWM2M_TYPE_OBJECT_LINK:
 180:C:/Users/lenovo/Desktop/liteos/Project2/BearPi_LiteOS/components/connectivity/lwm2m/core\discover.c ****     case LWM2M_TYPE_MULTIPLE_RESOURCE:
ARM GAS  c:\Users\lenovo\AppData\Local\Temp\ccYuaKY9.s 			page 16


 181:C:/Users/lenovo/Desktop/liteos/Project2/BearPi_LiteOS/components/connectivity/lwm2m/core\discover.c ****         if (bufferLen < LINK_ITEM_START_SIZE) return -1;
 637              		.loc 1 181 0
 638 0034 002F     		cmp	r7, #0
 639 0036 00F0E480 		beq	.L66
 182:C:/Users/lenovo/Desktop/liteos/Project2/BearPi_LiteOS/components/connectivity/lwm2m/core\discover.c ****         memcpy(buffer + head, LINK_ITEM_START, LINK_ITEM_START_SIZE);
 640              		.loc 1 182 0
 641 003a 3C23     		movs	r3, #60
 642 003c 3370     		strb	r3, [r6]
 643              	.LVL89:
 183:C:/Users/lenovo/Desktop/liteos/Project2/BearPi_LiteOS/components/connectivity/lwm2m/core\discover.c ****         head = LINK_ITEM_START_SIZE;
 184:C:/Users/lenovo/Desktop/liteos/Project2/BearPi_LiteOS/components/connectivity/lwm2m/core\discover.c **** 
 185:C:/Users/lenovo/Desktop/liteos/Project2/BearPi_LiteOS/components/connectivity/lwm2m/core\discover.c ****         if (parentUriLen > 0)
 644              		.loc 1 185 0
 645 003e 54B1     		cbz	r4, .L67
 186:C:/Users/lenovo/Desktop/liteos/Project2/BearPi_LiteOS/components/connectivity/lwm2m/core\discover.c ****         {
 187:C:/Users/lenovo/Desktop/liteos/Project2/BearPi_LiteOS/components/connectivity/lwm2m/core\discover.c ****             if (bufferLen - head < parentUriLen) return -1;
 646              		.loc 1 187 0
 647 0040 7B1E     		subs	r3, r7, #1
 648 0042 A342     		cmp	r3, r4
 649 0044 C0F0E080 		bcc	.L68
 188:C:/Users/lenovo/Desktop/liteos/Project2/BearPi_LiteOS/components/connectivity/lwm2m/core\discover.c ****             memcpy(buffer + head, parentUriStr, parentUriLen);
 650              		.loc 1 188 0
 651 0048 2246     		mov	r2, r4
 652 004a 1B99     		ldr	r1, [sp, #108]
 653              	.LVL90:
 654 004c 701C     		adds	r0, r6, #1
 655              	.LVL91:
 656 004e FFF7FEFF 		bl	memcpy
 657              	.LVL92:
 189:C:/Users/lenovo/Desktop/liteos/Project2/BearPi_LiteOS/components/connectivity/lwm2m/core\discover.c ****             head += parentUriLen;
 658              		.loc 1 189 0
 659 0052 0134     		adds	r4, r4, #1
 660              	.LVL93:
 661 0054 00E0     		b	.L57
 662              	.LVL94:
 663              	.L67:
 183:C:/Users/lenovo/Desktop/liteos/Project2/BearPi_LiteOS/components/connectivity/lwm2m/core\discover.c **** 
 664              		.loc 1 183 0
 665 0056 0124     		movs	r4, #1
 666              	.LVL95:
 667              	.L57:
 190:C:/Users/lenovo/Desktop/liteos/Project2/BearPi_LiteOS/components/connectivity/lwm2m/core\discover.c ****         }
 191:C:/Users/lenovo/Desktop/liteos/Project2/BearPi_LiteOS/components/connectivity/lwm2m/core\discover.c **** 
 192:C:/Users/lenovo/Desktop/liteos/Project2/BearPi_LiteOS/components/connectivity/lwm2m/core\discover.c ****         if (bufferLen - head < LINK_URI_SEPARATOR_SIZE) return -1;
 668              		.loc 1 192 0
 669 0058 BC42     		cmp	r4, r7
 670 005a 00F0D880 		beq	.L69
 193:C:/Users/lenovo/Desktop/liteos/Project2/BearPi_LiteOS/components/connectivity/lwm2m/core\discover.c ****         memcpy(buffer + head, LINK_URI_SEPARATOR, LINK_URI_SEPARATOR_SIZE);
 671              		.loc 1 193 0
 672 005e 2F23     		movs	r3, #47
 673 0060 3355     		strb	r3, [r6, r4]
 194:C:/Users/lenovo/Desktop/liteos/Project2/BearPi_LiteOS/components/connectivity/lwm2m/core\discover.c ****         head += LINK_URI_SEPARATOR_SIZE;
 674              		.loc 1 194 0
 675 0062 0134     		adds	r4, r4, #1
 676              	.LVL96:
 195:C:/Users/lenovo/Desktop/liteos/Project2/BearPi_LiteOS/components/connectivity/lwm2m/core\discover.c **** 
 196:C:/Users/lenovo/Desktop/liteos/Project2/BearPi_LiteOS/components/connectivity/lwm2m/core\discover.c ****         res = utils_intToText(tlvP->id, buffer + head, bufferLen - head);
ARM GAS  c:\Users\lenovo\AppData\Local\Temp\ccYuaKY9.s 			page 17


 677              		.loc 1 196 0
 678 0064 3B1B     		subs	r3, r7, r4
 679 0066 3219     		adds	r2, r6, r4
 680 0068 6888     		ldrh	r0, [r5, #2]
 681 006a 0021     		movs	r1, #0
 682 006c FFF7FEFF 		bl	utils_intToText
 683              	.LVL97:
 197:C:/Users/lenovo/Desktop/liteos/Project2/BearPi_LiteOS/components/connectivity/lwm2m/core\discover.c ****         if (res <= 0) return -1;
 684              		.loc 1 197 0
 685 0070 0028     		cmp	r0, #0
 686 0072 40F3CF80 		ble	.L70
 198:C:/Users/lenovo/Desktop/liteos/Project2/BearPi_LiteOS/components/connectivity/lwm2m/core\discover.c ****         head += res;
 687              		.loc 1 198 0
 688 0076 0444     		add	r4, r4, r0
 689              	.LVL98:
 199:C:/Users/lenovo/Desktop/liteos/Project2/BearPi_LiteOS/components/connectivity/lwm2m/core\discover.c **** 
 200:C:/Users/lenovo/Desktop/liteos/Project2/BearPi_LiteOS/components/connectivity/lwm2m/core\discover.c ****         if (tlvP->type == LWM2M_TYPE_MULTIPLE_RESOURCE)
 690              		.loc 1 200 0
 691 0078 2B78     		ldrb	r3, [r5]	@ zero_extendqisi2
 692 007a 032B     		cmp	r3, #3
 693 007c 2AD0     		beq	.L78
 201:C:/Users/lenovo/Desktop/liteos/Project2/BearPi_LiteOS/components/connectivity/lwm2m/core\discover.c ****         {
 202:C:/Users/lenovo/Desktop/liteos/Project2/BearPi_LiteOS/components/connectivity/lwm2m/core\discover.c ****             if (bufferLen - head < LINK_ITEM_DIM_START_SIZE) return -1;
 203:C:/Users/lenovo/Desktop/liteos/Project2/BearPi_LiteOS/components/connectivity/lwm2m/core\discover.c ****             memcpy(buffer + head, LINK_ITEM_DIM_START, LINK_ITEM_DIM_START_SIZE);
 204:C:/Users/lenovo/Desktop/liteos/Project2/BearPi_LiteOS/components/connectivity/lwm2m/core\discover.c ****             head += LINK_ITEM_DIM_START_SIZE;
 205:C:/Users/lenovo/Desktop/liteos/Project2/BearPi_LiteOS/components/connectivity/lwm2m/core\discover.c **** 
 206:C:/Users/lenovo/Desktop/liteos/Project2/BearPi_LiteOS/components/connectivity/lwm2m/core\discover.c ****             res = utils_intToText(tlvP->value.asChildren.count, buffer + head, bufferLen - head);
 207:C:/Users/lenovo/Desktop/liteos/Project2/BearPi_LiteOS/components/connectivity/lwm2m/core\discover.c ****             if (res <= 0) return -1;
 208:C:/Users/lenovo/Desktop/liteos/Project2/BearPi_LiteOS/components/connectivity/lwm2m/core\discover.c ****             head += res;
 209:C:/Users/lenovo/Desktop/liteos/Project2/BearPi_LiteOS/components/connectivity/lwm2m/core\discover.c **** 
 210:C:/Users/lenovo/Desktop/liteos/Project2/BearPi_LiteOS/components/connectivity/lwm2m/core\discover.c ****             if (bufferLen - head < LINK_ITEM_ATTR_END_SIZE) return -1;
 211:C:/Users/lenovo/Desktop/liteos/Project2/BearPi_LiteOS/components/connectivity/lwm2m/core\discover.c ****             memcpy(buffer + head, LINK_ITEM_ATTR_END, LINK_ITEM_ATTR_END_SIZE);
 212:C:/Users/lenovo/Desktop/liteos/Project2/BearPi_LiteOS/components/connectivity/lwm2m/core\discover.c ****             head += LINK_ITEM_ATTR_END_SIZE;
 213:C:/Users/lenovo/Desktop/liteos/Project2/BearPi_LiteOS/components/connectivity/lwm2m/core\discover.c ****         }
 214:C:/Users/lenovo/Desktop/liteos/Project2/BearPi_LiteOS/components/connectivity/lwm2m/core\discover.c ****         else
 215:C:/Users/lenovo/Desktop/liteos/Project2/BearPi_LiteOS/components/connectivity/lwm2m/core\discover.c ****         {
 216:C:/Users/lenovo/Desktop/liteos/Project2/BearPi_LiteOS/components/connectivity/lwm2m/core\discover.c ****             if (bufferLen - head < LINK_ITEM_END_SIZE) return -1;
 694              		.loc 1 216 0
 695 007e 3B1B     		subs	r3, r7, r4
 696 0080 012B     		cmp	r3, #1
 697 0082 40F2D380 		bls	.L74
 217:C:/Users/lenovo/Desktop/liteos/Project2/BearPi_LiteOS/components/connectivity/lwm2m/core\discover.c ****             memcpy(buffer + head, LINK_ITEM_END, LINK_ITEM_END_SIZE);
 698              		.loc 1 217 0
 699 0086 6C4B     		ldr	r3, .L79
 700 0088 1B88     		ldrh	r3, [r3]	@ unaligned
 701 008a 3353     		strh	r3, [r6, r4]	@ unaligned
 218:C:/Users/lenovo/Desktop/liteos/Project2/BearPi_LiteOS/components/connectivity/lwm2m/core\discover.c ****             head += LINK_ITEM_END_SIZE;
 702              		.loc 1 218 0
 703 008c 0234     		adds	r4, r4, #2
 704              	.LVL99:
 705              	.L59:
 219:C:/Users/lenovo/Desktop/liteos/Project2/BearPi_LiteOS/components/connectivity/lwm2m/core\discover.c ****         }
 220:C:/Users/lenovo/Desktop/liteos/Project2/BearPi_LiteOS/components/connectivity/lwm2m/core\discover.c **** 
 221:C:/Users/lenovo/Desktop/liteos/Project2/BearPi_LiteOS/components/connectivity/lwm2m/core\discover.c ****         if (serverP != NULL)
 706              		.loc 1 221 0
 707 008e B9F1000F 		cmp	r9, #0
 708 0092 00F0B280 		beq	.L52
ARM GAS  c:\Users\lenovo\AppData\Local\Temp\ccYuaKY9.s 			page 18


 222:C:/Users/lenovo/Desktop/liteos/Project2/BearPi_LiteOS/components/connectivity/lwm2m/core\discover.c ****         {
 223:C:/Users/lenovo/Desktop/liteos/Project2/BearPi_LiteOS/components/connectivity/lwm2m/core\discover.c ****             memcpy(&uri, parentUriP, sizeof(lwm2m_uri_t));
 709              		.loc 1 223 0
 710 0096 0EAB     		add	r3, sp, #56
 711 0098 1A9A     		ldr	r2, [sp, #104]
 712 009a 1068     		ldr	r0, [r2]	@ unaligned
 713              	.LVL100:
 714 009c 5168     		ldr	r1, [r2, #4]	@ unaligned
 715 009e 03C3     		stmia	r3!, {r0, r1}
 224:C:/Users/lenovo/Desktop/liteos/Project2/BearPi_LiteOS/components/connectivity/lwm2m/core\discover.c ****             uri.resourceId = tlvP->id;
 716              		.loc 1 224 0
 717 00a0 6B88     		ldrh	r3, [r5, #2]
 718 00a2 ADF83E30 		strh	r3, [sp, #62]	@ movhi
 225:C:/Users/lenovo/Desktop/liteos/Project2/BearPi_LiteOS/components/connectivity/lwm2m/core\discover.c ****             uri.flag |= LWM2M_URI_FLAG_RESOURCE_ID;
 719              		.loc 1 225 0
 720 00a6 9DF83830 		ldrb	r3, [sp, #56]	@ zero_extendqisi2
 721 00aa 43F00103 		orr	r3, r3, #1
 722 00ae 8DF83830 		strb	r3, [sp, #56]
 226:C:/Users/lenovo/Desktop/liteos/Project2/BearPi_LiteOS/components/connectivity/lwm2m/core\discover.c ****             res = prv_serializeAttributes(contextP, &uri, serverP, objectParamP, buffer, head - 1, 
 723              		.loc 1 226 0
 724 00b2 631E     		subs	r3, r4, #1
 725 00b4 0297     		str	r7, [sp, #8]
 726 00b6 0193     		str	r3, [sp, #4]
 727 00b8 0096     		str	r6, [sp]
 728 00ba 079B     		ldr	r3, [sp, #28]
 729 00bc 4A46     		mov	r2, r9
 730 00be 0EA9     		add	r1, sp, #56
 731 00c0 5846     		mov	r0, fp
 732 00c2 FFF7FEFF 		bl	prv_serializeAttributes
 733              	.LVL101:
 227:C:/Users/lenovo/Desktop/liteos/Project2/BearPi_LiteOS/components/connectivity/lwm2m/core\discover.c ****             if (res < 0) return -1;    // careful, 0 is valid
 734              		.loc 1 227 0
 735 00c6 0028     		cmp	r0, #0
 736 00c8 C0F2B380 		blt	.L75
 228:C:/Users/lenovo/Desktop/liteos/Project2/BearPi_LiteOS/components/connectivity/lwm2m/core\discover.c ****             if (res > 0) head += res;
 737              		.loc 1 228 0
 738 00cc 40F39580 		ble	.L52
 739              		.loc 1 228 0 is_stmt 0 discriminator 1
 740 00d0 0444     		add	r4, r4, r0
 741              	.LVL102:
 742 00d2 92E0     		b	.L52
 743              	.L78:
 202:C:/Users/lenovo/Desktop/liteos/Project2/BearPi_LiteOS/components/connectivity/lwm2m/core\discover.c ****             memcpy(buffer + head, LINK_ITEM_DIM_START, LINK_ITEM_DIM_START_SIZE);
 744              		.loc 1 202 0 is_stmt 1
 745 00d4 3B1B     		subs	r3, r7, r4
 746 00d6 052B     		cmp	r3, #5
 747 00d8 40F29F80 		bls	.L71
 203:C:/Users/lenovo/Desktop/liteos/Project2/BearPi_LiteOS/components/connectivity/lwm2m/core\discover.c ****             head += LINK_ITEM_DIM_START_SIZE;
 748              		.loc 1 203 0
 749 00dc 3219     		adds	r2, r6, r4
 750 00de 574B     		ldr	r3, .L79+4
 751 00e0 1868     		ldr	r0, [r3]
 752              	.LVL103:
 753 00e2 3051     		str	r0, [r6, r4]	@ unaligned
 754 00e4 9B88     		ldrh	r3, [r3, #4]	@ unaligned
 755 00e6 9380     		strh	r3, [r2, #4]	@ unaligned
 204:C:/Users/lenovo/Desktop/liteos/Project2/BearPi_LiteOS/components/connectivity/lwm2m/core\discover.c **** 
ARM GAS  c:\Users\lenovo\AppData\Local\Temp\ccYuaKY9.s 			page 19


 756              		.loc 1 204 0
 757 00e8 0634     		adds	r4, r4, #6
 758              	.LVL104:
 206:C:/Users/lenovo/Desktop/liteos/Project2/BearPi_LiteOS/components/connectivity/lwm2m/core\discover.c ****             if (res <= 0) return -1;
 759              		.loc 1 206 0
 760 00ea 3B1B     		subs	r3, r7, r4
 761 00ec 3219     		adds	r2, r6, r4
 762 00ee A868     		ldr	r0, [r5, #8]
 763 00f0 0021     		movs	r1, #0
 764 00f2 FFF7FEFF 		bl	utils_intToText
 765              	.LVL105:
 207:C:/Users/lenovo/Desktop/liteos/Project2/BearPi_LiteOS/components/connectivity/lwm2m/core\discover.c ****             head += res;
 766              		.loc 1 207 0
 767 00f6 0028     		cmp	r0, #0
 768 00f8 40F39280 		ble	.L72
 208:C:/Users/lenovo/Desktop/liteos/Project2/BearPi_LiteOS/components/connectivity/lwm2m/core\discover.c **** 
 769              		.loc 1 208 0
 770 00fc 0444     		add	r4, r4, r0
 771              	.LVL106:
 210:C:/Users/lenovo/Desktop/liteos/Project2/BearPi_LiteOS/components/connectivity/lwm2m/core\discover.c ****             memcpy(buffer + head, LINK_ITEM_ATTR_END, LINK_ITEM_ATTR_END_SIZE);
 772              		.loc 1 210 0
 773 00fe BC42     		cmp	r4, r7
 774 0100 00F09180 		beq	.L73
 211:C:/Users/lenovo/Desktop/liteos/Project2/BearPi_LiteOS/components/connectivity/lwm2m/core\discover.c ****             head += LINK_ITEM_ATTR_END_SIZE;
 775              		.loc 1 211 0
 776 0104 2C23     		movs	r3, #44
 777 0106 3355     		strb	r3, [r6, r4]
 212:C:/Users/lenovo/Desktop/liteos/Project2/BearPi_LiteOS/components/connectivity/lwm2m/core\discover.c ****         }
 778              		.loc 1 212 0
 779 0108 0134     		adds	r4, r4, #1
 780              	.LVL107:
 781 010a C0E7     		b	.L59
 782              	.LVL108:
 783              	.L56:
 784              	.LBB2:
 229:C:/Users/lenovo/Desktop/liteos/Project2/BearPi_LiteOS/components/connectivity/lwm2m/core\discover.c ****         }
 230:C:/Users/lenovo/Desktop/liteos/Project2/BearPi_LiteOS/components/connectivity/lwm2m/core\discover.c ****         break;
 231:C:/Users/lenovo/Desktop/liteos/Project2/BearPi_LiteOS/components/connectivity/lwm2m/core\discover.c **** 
 232:C:/Users/lenovo/Desktop/liteos/Project2/BearPi_LiteOS/components/connectivity/lwm2m/core\discover.c ****     case LWM2M_TYPE_OBJECT_INSTANCE:
 233:C:/Users/lenovo/Desktop/liteos/Project2/BearPi_LiteOS/components/connectivity/lwm2m/core\discover.c ****     {
 234:C:/Users/lenovo/Desktop/liteos/Project2/BearPi_LiteOS/components/connectivity/lwm2m/core\discover.c ****         uint8_t uriStr[URI_MAX_STRING_LEN];
 235:C:/Users/lenovo/Desktop/liteos/Project2/BearPi_LiteOS/components/connectivity/lwm2m/core\discover.c ****         size_t uriLen;
 236:C:/Users/lenovo/Desktop/liteos/Project2/BearPi_LiteOS/components/connectivity/lwm2m/core\discover.c ****         size_t index;
 237:C:/Users/lenovo/Desktop/liteos/Project2/BearPi_LiteOS/components/connectivity/lwm2m/core\discover.c **** 
 238:C:/Users/lenovo/Desktop/liteos/Project2/BearPi_LiteOS/components/connectivity/lwm2m/core\discover.c ****         if (parentUriLen > 0)
 785              		.loc 1 238 0
 786 010c 44B1     		cbz	r4, .L60
 239:C:/Users/lenovo/Desktop/liteos/Project2/BearPi_LiteOS/components/connectivity/lwm2m/core\discover.c ****         {
 240:C:/Users/lenovo/Desktop/liteos/Project2/BearPi_LiteOS/components/connectivity/lwm2m/core\discover.c ****             if (URI_MAX_STRING_LEN < parentUriLen) return -1;
 787              		.loc 1 240 0
 788 010e 122C     		cmp	r4, #18
 789 0110 6ED8     		bhi	.L61
 241:C:/Users/lenovo/Desktop/liteos/Project2/BearPi_LiteOS/components/connectivity/lwm2m/core\discover.c ****             memcpy(uriStr, parentUriStr, parentUriLen);
 790              		.loc 1 241 0
 791 0112 2246     		mov	r2, r4
 792 0114 1B99     		ldr	r1, [sp, #108]
 793              	.LVL109:
ARM GAS  c:\Users\lenovo\AppData\Local\Temp\ccYuaKY9.s 			page 20


 794 0116 09A8     		add	r0, sp, #36
 795              	.LVL110:
 796 0118 FFF7FEFF 		bl	memcpy
 797              	.LVL111:
 242:C:/Users/lenovo/Desktop/liteos/Project2/BearPi_LiteOS/components/connectivity/lwm2m/core\discover.c ****             uriLen = parentUriLen;
 243:C:/Users/lenovo/Desktop/liteos/Project2/BearPi_LiteOS/components/connectivity/lwm2m/core\discover.c ****         }
 244:C:/Users/lenovo/Desktop/liteos/Project2/BearPi_LiteOS/components/connectivity/lwm2m/core\discover.c ****         else
 245:C:/Users/lenovo/Desktop/liteos/Project2/BearPi_LiteOS/components/connectivity/lwm2m/core\discover.c ****         {
 246:C:/Users/lenovo/Desktop/liteos/Project2/BearPi_LiteOS/components/connectivity/lwm2m/core\discover.c ****             uriLen = 0;
 247:C:/Users/lenovo/Desktop/liteos/Project2/BearPi_LiteOS/components/connectivity/lwm2m/core\discover.c ****         }
 248:C:/Users/lenovo/Desktop/liteos/Project2/BearPi_LiteOS/components/connectivity/lwm2m/core\discover.c **** 
 249:C:/Users/lenovo/Desktop/liteos/Project2/BearPi_LiteOS/components/connectivity/lwm2m/core\discover.c ****         if (URI_MAX_STRING_LEN - uriLen < LINK_URI_SEPARATOR_SIZE) return -1;
 798              		.loc 1 249 0
 799 011c 122C     		cmp	r4, #18
 800 011e 67D0     		beq	.L61
 801              	.LVL112:
 802              	.L60:
 250:C:/Users/lenovo/Desktop/liteos/Project2/BearPi_LiteOS/components/connectivity/lwm2m/core\discover.c ****         memcpy(uriStr + uriLen, LINK_URI_SEPARATOR, LINK_URI_SEPARATOR_SIZE);
 803              		.loc 1 250 0
 804 0120 09AA     		add	r2, sp, #36
 805 0122 2F23     		movs	r3, #47
 806 0124 1355     		strb	r3, [r2, r4]
 251:C:/Users/lenovo/Desktop/liteos/Project2/BearPi_LiteOS/components/connectivity/lwm2m/core\discover.c ****         uriLen += LINK_URI_SEPARATOR_SIZE;
 807              		.loc 1 251 0
 808 0126 0134     		adds	r4, r4, #1
 809              	.LVL113:
 252:C:/Users/lenovo/Desktop/liteos/Project2/BearPi_LiteOS/components/connectivity/lwm2m/core\discover.c **** 
 253:C:/Users/lenovo/Desktop/liteos/Project2/BearPi_LiteOS/components/connectivity/lwm2m/core\discover.c ****         res = utils_intToText(tlvP->id, uriStr + uriLen, URI_MAX_STRING_LEN - uriLen);
 810              		.loc 1 253 0
 811 0128 C4F11203 		rsb	r3, r4, #18
 812 012c 2244     		add	r2, r2, r4
 813 012e 6888     		ldrh	r0, [r5, #2]
 814 0130 0021     		movs	r1, #0
 815 0132 FFF7FEFF 		bl	utils_intToText
 816              	.LVL114:
 254:C:/Users/lenovo/Desktop/liteos/Project2/BearPi_LiteOS/components/connectivity/lwm2m/core\discover.c ****         if (res <= 0) return -1;
 817              		.loc 1 254 0
 818 0136 0028     		cmp	r0, #0
 819 0138 5ADD     		ble	.L61
 255:C:/Users/lenovo/Desktop/liteos/Project2/BearPi_LiteOS/components/connectivity/lwm2m/core\discover.c ****         uriLen += res;
 820              		.loc 1 255 0
 821 013a 00EB040A 		add	r10, r0, r4
 822              	.LVL115:
 256:C:/Users/lenovo/Desktop/liteos/Project2/BearPi_LiteOS/components/connectivity/lwm2m/core\discover.c **** 
 257:C:/Users/lenovo/Desktop/liteos/Project2/BearPi_LiteOS/components/connectivity/lwm2m/core\discover.c ****         memcpy(&uri, parentUriP, sizeof(lwm2m_uri_t));
 823              		.loc 1 257 0
 824 013e 0EAB     		add	r3, sp, #56
 825 0140 1A9A     		ldr	r2, [sp, #104]
 826 0142 1068     		ldr	r0, [r2]	@ unaligned
 827              	.LVL116:
 828 0144 5168     		ldr	r1, [r2, #4]	@ unaligned
 829 0146 03C3     		stmia	r3!, {r0, r1}
 258:C:/Users/lenovo/Desktop/liteos/Project2/BearPi_LiteOS/components/connectivity/lwm2m/core\discover.c ****         uri.instanceId = tlvP->id;
 830              		.loc 1 258 0
 831 0148 6B88     		ldrh	r3, [r5, #2]
 832 014a ADF83C30 		strh	r3, [sp, #60]	@ movhi
 259:C:/Users/lenovo/Desktop/liteos/Project2/BearPi_LiteOS/components/connectivity/lwm2m/core\discover.c ****         uri.flag |= LWM2M_URI_FLAG_INSTANCE_ID;
ARM GAS  c:\Users\lenovo\AppData\Local\Temp\ccYuaKY9.s 			page 21


 833              		.loc 1 259 0
 834 014e 9DF83830 		ldrb	r3, [sp, #56]	@ zero_extendqisi2
 835 0152 43F00203 		orr	r3, r3, #2
 836 0156 8DF83830 		strb	r3, [sp, #56]
 260:C:/Users/lenovo/Desktop/liteos/Project2/BearPi_LiteOS/components/connectivity/lwm2m/core\discover.c **** 
 261:C:/Users/lenovo/Desktop/liteos/Project2/BearPi_LiteOS/components/connectivity/lwm2m/core\discover.c ****         head = 0;
 262:C:/Users/lenovo/Desktop/liteos/Project2/BearPi_LiteOS/components/connectivity/lwm2m/core\discover.c ****         PRV_CONCAT_STR(buffer, bufferLen, head, LINK_ITEM_START, LINK_ITEM_START_SIZE);
 837              		.loc 1 262 0
 838 015a 002F     		cmp	r7, #0
 839 015c 48D0     		beq	.L61
 840              		.loc 1 262 0 is_stmt 0 discriminator 2
 841 015e 3C23     		movs	r3, #60
 842 0160 3370     		strb	r3, [r6]
 843              	.LVL117:
 263:C:/Users/lenovo/Desktop/liteos/Project2/BearPi_LiteOS/components/connectivity/lwm2m/core\discover.c ****         PRV_CONCAT_STR(buffer, bufferLen, head, uriStr, uriLen);
 844              		.loc 1 263 0 is_stmt 1 discriminator 2
 845 0162 7B1E     		subs	r3, r7, #1
 846 0164 5345     		cmp	r3, r10
 847 0166 43D3     		bcc	.L61
 848 0168 5246     		mov	r2, r10
 849 016a 09A9     		add	r1, sp, #36
 850 016c 701C     		adds	r0, r6, #1
 851 016e FFF7FEFF 		bl	memcpy
 852              	.LVL118:
 853 0172 0AF10103 		add	r3, r10, #1
 854              	.LVL119:
 264:C:/Users/lenovo/Desktop/liteos/Project2/BearPi_LiteOS/components/connectivity/lwm2m/core\discover.c ****         PRV_CONCAT_STR(buffer, bufferLen, head, LINK_ITEM_END, LINK_ITEM_END_SIZE);
 855              		.loc 1 264 0 discriminator 2
 856 0176 FA1A     		subs	r2, r7, r3
 857 0178 012A     		cmp	r2, #1
 858 017a 39D9     		bls	.L61
 859 017c 2E4A     		ldr	r2, .L79
 860 017e 1288     		ldrh	r2, [r2]	@ unaligned
 861 0180 F252     		strh	r2, [r6, r3]	@ unaligned
 862 0182 0AF10304 		add	r4, r10, #3
 863              	.LVL120:
 265:C:/Users/lenovo/Desktop/liteos/Project2/BearPi_LiteOS/components/connectivity/lwm2m/core\discover.c ****         if (serverP != NULL)
 864              		.loc 1 265 0 discriminator 2
 865 0186 B9F1000F 		cmp	r9, #0
 866 018a 10D0     		beq	.L62
 266:C:/Users/lenovo/Desktop/liteos/Project2/BearPi_LiteOS/components/connectivity/lwm2m/core\discover.c ****         {
 267:C:/Users/lenovo/Desktop/liteos/Project2/BearPi_LiteOS/components/connectivity/lwm2m/core\discover.c ****             res = prv_serializeAttributes(contextP, &uri, serverP, NULL, buffer, head - 1, bufferLe
 867              		.loc 1 267 0
 868 018c 0AF10203 		add	r3, r10, #2
 869 0190 0297     		str	r7, [sp, #8]
 870 0192 0193     		str	r3, [sp, #4]
 871 0194 0096     		str	r6, [sp]
 872 0196 0023     		movs	r3, #0
 873 0198 4A46     		mov	r2, r9
 874 019a 0EA9     		add	r1, sp, #56
 875 019c 5846     		mov	r0, fp
 876 019e FFF7FEFF 		bl	prv_serializeAttributes
 877              	.LVL121:
 268:C:/Users/lenovo/Desktop/liteos/Project2/BearPi_LiteOS/components/connectivity/lwm2m/core\discover.c ****             if (res < 0) return -1;    // careful, 0 is valid
 878              		.loc 1 268 0
 879 01a2 0028     		cmp	r0, #0
 880 01a4 24DB     		blt	.L61
ARM GAS  c:\Users\lenovo\AppData\Local\Temp\ccYuaKY9.s 			page 22


 269:C:/Users/lenovo/Desktop/liteos/Project2/BearPi_LiteOS/components/connectivity/lwm2m/core\discover.c ****             if (res == 0) head = 0;    // rewind
 881              		.loc 1 269 0
 882 01a6 08B1     		cbz	r0, .L76
 270:C:/Users/lenovo/Desktop/liteos/Project2/BearPi_LiteOS/components/connectivity/lwm2m/core\discover.c ****             else head += res;
 883              		.loc 1 270 0
 884 01a8 0444     		add	r4, r4, r0
 885              	.LVL122:
 886 01aa 00E0     		b	.L62
 887              	.L76:
 269:C:/Users/lenovo/Desktop/liteos/Project2/BearPi_LiteOS/components/connectivity/lwm2m/core\discover.c ****             if (res == 0) head = 0;    // rewind
 888              		.loc 1 269 0
 889 01ac 0446     		mov	r4, r0
 890              	.LVL123:
 891              	.L62:
 269:C:/Users/lenovo/Desktop/liteos/Project2/BearPi_LiteOS/components/connectivity/lwm2m/core\discover.c ****             if (res == 0) head = 0;    // rewind
 892              		.loc 1 269 0 is_stmt 0 discriminator 1
 893 01ae 4FF00008 		mov	r8, #0
 894 01b2 1D96     		str	r6, [sp, #116]
 895              	.LVL124:
 896 01b4 5646     		mov	r6, r10
 897 01b6 DDF874A0 		ldr	r10, [sp, #116]
 898              	.LVL125:
 899              	.L63:
 271:C:/Users/lenovo/Desktop/liteos/Project2/BearPi_LiteOS/components/connectivity/lwm2m/core\discover.c ****         }
 272:C:/Users/lenovo/Desktop/liteos/Project2/BearPi_LiteOS/components/connectivity/lwm2m/core\discover.c ****         for (index = 0; index < tlvP->value.asChildren.count; index++)
 900              		.loc 1 272 0 is_stmt 1 discriminator 1
 901 01ba AB68     		ldr	r3, [r5, #8]
 902 01bc 4345     		cmp	r3, r8
 903 01be 1CD9     		bls	.L52
 273:C:/Users/lenovo/Desktop/liteos/Project2/BearPi_LiteOS/components/connectivity/lwm2m/core\discover.c ****         {
 274:C:/Users/lenovo/Desktop/liteos/Project2/BearPi_LiteOS/components/connectivity/lwm2m/core\discover.c ****             res = prv_serializeLinkData(contextP, tlvP->value.asChildren.array + index, serverP, ob
 904              		.loc 1 274 0
 905 01c0 E968     		ldr	r1, [r5, #12]
 906 01c2 0AEB0403 		add	r3, r10, r4
 907 01c6 3A1B     		subs	r2, r7, r4
 908 01c8 0492     		str	r2, [sp, #16]
 909 01ca 0393     		str	r3, [sp, #12]
 910 01cc 0296     		str	r6, [sp, #8]
 911 01ce 09AB     		add	r3, sp, #36
 912 01d0 0193     		str	r3, [sp, #4]
 913 01d2 0EAB     		add	r3, sp, #56
 914 01d4 0093     		str	r3, [sp]
 915 01d6 079B     		ldr	r3, [sp, #28]
 916 01d8 4A46     		mov	r2, r9
 917 01da 01EB0811 		add	r1, r1, r8, lsl #4
 918 01de 5846     		mov	r0, fp
 919 01e0 FFF70EFF 		bl	prv_serializeLinkData
 920              	.LVL126:
 275:C:/Users/lenovo/Desktop/liteos/Project2/BearPi_LiteOS/components/connectivity/lwm2m/core\discover.c ****             if (res < 0) return -1;
 921              		.loc 1 275 0
 922 01e4 0028     		cmp	r0, #0
 923 01e6 03DB     		blt	.L61
 276:C:/Users/lenovo/Desktop/liteos/Project2/BearPi_LiteOS/components/connectivity/lwm2m/core\discover.c ****             head += res;
 924              		.loc 1 276 0 discriminator 2
 925 01e8 0444     		add	r4, r4, r0
 926              	.LVL127:
 272:C:/Users/lenovo/Desktop/liteos/Project2/BearPi_LiteOS/components/connectivity/lwm2m/core\discover.c ****         {
ARM GAS  c:\Users\lenovo\AppData\Local\Temp\ccYuaKY9.s 			page 23


 927              		.loc 1 272 0 discriminator 2
 928 01ea 08F10108 		add	r8, r8, #1
 929              	.LVL128:
 930 01ee E4E7     		b	.L63
 931              	.LVL129:
 932              	.L61:
 240:C:/Users/lenovo/Desktop/liteos/Project2/BearPi_LiteOS/components/connectivity/lwm2m/core\discover.c ****             memcpy(uriStr, parentUriStr, parentUriLen);
 933              		.loc 1 240 0 discriminator 2
 934 01f0 4FF0FF34 		mov	r4, #-1
 935 01f4 01E0     		b	.L52
 936              	.LVL130:
 937              	.L65:
 938              	.LBE2:
 277:C:/Users/lenovo/Desktop/liteos/Project2/BearPi_LiteOS/components/connectivity/lwm2m/core\discover.c ****         }
 278:C:/Users/lenovo/Desktop/liteos/Project2/BearPi_LiteOS/components/connectivity/lwm2m/core\discover.c ****     }
 279:C:/Users/lenovo/Desktop/liteos/Project2/BearPi_LiteOS/components/connectivity/lwm2m/core\discover.c ****     break;
 280:C:/Users/lenovo/Desktop/liteos/Project2/BearPi_LiteOS/components/connectivity/lwm2m/core\discover.c **** 
 281:C:/Users/lenovo/Desktop/liteos/Project2/BearPi_LiteOS/components/connectivity/lwm2m/core\discover.c ****     case LWM2M_TYPE_OBJECT:
 282:C:/Users/lenovo/Desktop/liteos/Project2/BearPi_LiteOS/components/connectivity/lwm2m/core\discover.c ****     default:
 283:C:/Users/lenovo/Desktop/liteos/Project2/BearPi_LiteOS/components/connectivity/lwm2m/core\discover.c ****         return -1;
 939              		.loc 1 283 0
 940 01f6 4FF0FF34 		mov	r4, #-1
 941              	.LVL131:
 942              	.L52:
 284:C:/Users/lenovo/Desktop/liteos/Project2/BearPi_LiteOS/components/connectivity/lwm2m/core\discover.c ****     }
 285:C:/Users/lenovo/Desktop/liteos/Project2/BearPi_LiteOS/components/connectivity/lwm2m/core\discover.c **** 
 286:C:/Users/lenovo/Desktop/liteos/Project2/BearPi_LiteOS/components/connectivity/lwm2m/core\discover.c ****     return head;
 287:C:/Users/lenovo/Desktop/liteos/Project2/BearPi_LiteOS/components/connectivity/lwm2m/core\discover.c **** }
 943              		.loc 1 287 0
 944 01fa 2046     		mov	r0, r4
 945 01fc 11B0     		add	sp, sp, #68
 946              	.LCFI6:
 947              		.cfi_remember_state
 948              		.cfi_def_cfa_offset 36
 949              		@ sp needed
 950 01fe BDE8F08F 		pop	{r4, r5, r6, r7, r8, r9, r10, fp, pc}
 951              	.LVL132:
 952              	.L66:
 953              	.LCFI7:
 954              		.cfi_restore_state
 181:C:/Users/lenovo/Desktop/liteos/Project2/BearPi_LiteOS/components/connectivity/lwm2m/core\discover.c ****         memcpy(buffer + head, LINK_ITEM_START, LINK_ITEM_START_SIZE);
 955              		.loc 1 181 0
 956 0202 4FF0FF34 		mov	r4, #-1
 957 0206 F8E7     		b	.L52
 958              	.LVL133:
 959              	.L68:
 187:C:/Users/lenovo/Desktop/liteos/Project2/BearPi_LiteOS/components/connectivity/lwm2m/core\discover.c ****             memcpy(buffer + head, parentUriStr, parentUriLen);
 960              		.loc 1 187 0
 961 0208 4FF0FF34 		mov	r4, #-1
 962 020c F5E7     		b	.L52
 963              	.LVL134:
 964              	.L69:
 192:C:/Users/lenovo/Desktop/liteos/Project2/BearPi_LiteOS/components/connectivity/lwm2m/core\discover.c ****         memcpy(buffer + head, LINK_URI_SEPARATOR, LINK_URI_SEPARATOR_SIZE);
 965              		.loc 1 192 0
 966 020e 4FF0FF34 		mov	r4, #-1
 967              	.LVL135:
 968 0212 F2E7     		b	.L52
ARM GAS  c:\Users\lenovo\AppData\Local\Temp\ccYuaKY9.s 			page 24


 969              	.LVL136:
 970              	.L70:
 197:C:/Users/lenovo/Desktop/liteos/Project2/BearPi_LiteOS/components/connectivity/lwm2m/core\discover.c ****         head += res;
 971              		.loc 1 197 0
 972 0214 4FF0FF34 		mov	r4, #-1
 973              	.LVL137:
 974 0218 EFE7     		b	.L52
 975              	.LVL138:
 976              	.L71:
 202:C:/Users/lenovo/Desktop/liteos/Project2/BearPi_LiteOS/components/connectivity/lwm2m/core\discover.c ****             memcpy(buffer + head, LINK_ITEM_DIM_START, LINK_ITEM_DIM_START_SIZE);
 977              		.loc 1 202 0
 978 021a 4FF0FF34 		mov	r4, #-1
 979              	.LVL139:
 980 021e ECE7     		b	.L52
 981              	.LVL140:
 982              	.L72:
 207:C:/Users/lenovo/Desktop/liteos/Project2/BearPi_LiteOS/components/connectivity/lwm2m/core\discover.c ****             head += res;
 983              		.loc 1 207 0
 984 0220 4FF0FF34 		mov	r4, #-1
 985              	.LVL141:
 986 0224 E9E7     		b	.L52
 987              	.LVL142:
 988              	.L73:
 210:C:/Users/lenovo/Desktop/liteos/Project2/BearPi_LiteOS/components/connectivity/lwm2m/core\discover.c ****             memcpy(buffer + head, LINK_ITEM_ATTR_END, LINK_ITEM_ATTR_END_SIZE);
 989              		.loc 1 210 0
 990 0226 4FF0FF34 		mov	r4, #-1
 991              	.LVL143:
 992 022a E6E7     		b	.L52
 993              	.LVL144:
 994              	.L74:
 216:C:/Users/lenovo/Desktop/liteos/Project2/BearPi_LiteOS/components/connectivity/lwm2m/core\discover.c ****             memcpy(buffer + head, LINK_ITEM_END, LINK_ITEM_END_SIZE);
 995              		.loc 1 216 0
 996 022c 4FF0FF34 		mov	r4, #-1
 997              	.LVL145:
 998 0230 E3E7     		b	.L52
 999              	.LVL146:
 1000              	.L75:
 227:C:/Users/lenovo/Desktop/liteos/Project2/BearPi_LiteOS/components/connectivity/lwm2m/core\discover.c ****             if (res > 0) head += res;
 1001              		.loc 1 227 0
 1002 0232 4FF0FF34 		mov	r4, #-1
 1003              	.LVL147:
 1004 0236 E0E7     		b	.L52
 1005              	.L80:
 1006              		.align	2
 1007              	.L79:
 1008 0238 08000000 		.word	.LC6
 1009 023c 00000000 		.word	.LC5
 1010              		.cfi_endproc
 1011              	.LFE136:
 1013              		.section	.text.discover_serialize,"ax",%progbits
 1014              		.align	1
 1015              		.global	discover_serialize
 1016              		.syntax unified
 1017              		.thumb
 1018              		.thumb_func
 1019              		.fpu fpv4-sp-d16
 1021              	discover_serialize:
ARM GAS  c:\Users\lenovo\AppData\Local\Temp\ccYuaKY9.s 			page 25


 1022              	.LFB137:
 288:C:/Users/lenovo/Desktop/liteos/Project2/BearPi_LiteOS/components/connectivity/lwm2m/core\discover.c **** 
 289:C:/Users/lenovo/Desktop/liteos/Project2/BearPi_LiteOS/components/connectivity/lwm2m/core\discover.c **** int discover_serialize(lwm2m_context_t *contextP,
 290:C:/Users/lenovo/Desktop/liteos/Project2/BearPi_LiteOS/components/connectivity/lwm2m/core\discover.c ****                        lwm2m_uri_t *uriP,
 291:C:/Users/lenovo/Desktop/liteos/Project2/BearPi_LiteOS/components/connectivity/lwm2m/core\discover.c ****                        lwm2m_server_t *serverP,
 292:C:/Users/lenovo/Desktop/liteos/Project2/BearPi_LiteOS/components/connectivity/lwm2m/core\discover.c ****                        int size,
 293:C:/Users/lenovo/Desktop/liteos/Project2/BearPi_LiteOS/components/connectivity/lwm2m/core\discover.c ****                        lwm2m_data_t *dataP,
 294:C:/Users/lenovo/Desktop/liteos/Project2/BearPi_LiteOS/components/connectivity/lwm2m/core\discover.c ****                        uint8_t **bufferP)
 295:C:/Users/lenovo/Desktop/liteos/Project2/BearPi_LiteOS/components/connectivity/lwm2m/core\discover.c **** {
 1023              		.loc 1 295 0
 1024              		.cfi_startproc
 1025              		@ args = 8, pretend = 0, frame = 1112
 1026              		@ frame_needed = 0, uses_anonymous_args = 0
 1027              	.LVL148:
 1028 0000 2DE9F04F 		push	{r4, r5, r6, r7, r8, r9, r10, fp, lr}
 1029              	.LCFI8:
 1030              		.cfi_def_cfa_offset 36
 1031              		.cfi_offset 4, -36
 1032              		.cfi_offset 5, -32
 1033              		.cfi_offset 6, -28
 1034              		.cfi_offset 7, -24
 1035              		.cfi_offset 8, -20
 1036              		.cfi_offset 9, -16
 1037              		.cfi_offset 10, -12
 1038              		.cfi_offset 11, -8
 1039              		.cfi_offset 14, -4
 1040 0004 ADF2744D 		subw	sp, sp, #1140
 1041              	.LCFI9:
 1042              		.cfi_def_cfa_offset 1176
 1043 0008 0790     		str	r0, [sp, #28]
 1044 000a 0E46     		mov	r6, r1
 1045 000c 9146     		mov	r9, r2
 1046 000e 9846     		mov	r8, r3
 1047 0010 DDF898B4 		ldr	fp, [sp, #1176]
 296:C:/Users/lenovo/Desktop/liteos/Project2/BearPi_LiteOS/components/connectivity/lwm2m/core\discover.c ****     uint8_t bufferLink[PRV_LINK_BUFFER_SIZE];
 297:C:/Users/lenovo/Desktop/liteos/Project2/BearPi_LiteOS/components/connectivity/lwm2m/core\discover.c ****     uint8_t baseUriStr[URI_MAX_STRING_LEN];
 298:C:/Users/lenovo/Desktop/liteos/Project2/BearPi_LiteOS/components/connectivity/lwm2m/core\discover.c ****     int baseUriLen;
 299:C:/Users/lenovo/Desktop/liteos/Project2/BearPi_LiteOS/components/connectivity/lwm2m/core\discover.c ****     int index;
 300:C:/Users/lenovo/Desktop/liteos/Project2/BearPi_LiteOS/components/connectivity/lwm2m/core\discover.c ****     size_t head;
 301:C:/Users/lenovo/Desktop/liteos/Project2/BearPi_LiteOS/components/connectivity/lwm2m/core\discover.c ****     int res;
 302:C:/Users/lenovo/Desktop/liteos/Project2/BearPi_LiteOS/components/connectivity/lwm2m/core\discover.c ****     lwm2m_uri_t parentUri;
 303:C:/Users/lenovo/Desktop/liteos/Project2/BearPi_LiteOS/components/connectivity/lwm2m/core\discover.c ****     lwm2m_attributes_t *paramP;
 304:C:/Users/lenovo/Desktop/liteos/Project2/BearPi_LiteOS/components/connectivity/lwm2m/core\discover.c ****     lwm2m_attributes_t mergedParam;
 305:C:/Users/lenovo/Desktop/liteos/Project2/BearPi_LiteOS/components/connectivity/lwm2m/core\discover.c **** 
 306:C:/Users/lenovo/Desktop/liteos/Project2/BearPi_LiteOS/components/connectivity/lwm2m/core\discover.c ****     LOG_ARG("size: %d", size);
 1048              		.loc 1 306 0
 1049 0014 FFF7FEFF 		bl	lwm2m_gettime
 1050              	.LVL149:
 1051 0018 CDF80080 		str	r8, [sp]
 1052 001c 4FF49973 		mov	r3, #306
 1053 0020 B34A     		ldr	r2, .L121
 1054 0022 0146     		mov	r1, r0
 1055 0024 B348     		ldr	r0, .L121+4
 1056 0026 FFF7FEFF 		bl	atiny_printf
 1057              	.LVL150:
 307:C:/Users/lenovo/Desktop/liteos/Project2/BearPi_LiteOS/components/connectivity/lwm2m/core\discover.c ****     LOG_URI(uriP);
 1058              		.loc 1 307 0
ARM GAS  c:\Users\lenovo\AppData\Local\Temp\ccYuaKY9.s 			page 26


 1059 002a 002E     		cmp	r6, #0
 1060 002c 6FD0     		beq	.L115
 1061              		.loc 1 307 0 is_stmt 0 discriminator 2
 1062 002e 7388     		ldrh	r3, [r6, #2]
 1063 0030 40F23312 		movw	r2, #307
 1064 0034 AE49     		ldr	r1, .L121
 1065 0036 B048     		ldr	r0, .L121+8
 1066 0038 FFF7FEFF 		bl	atiny_printf
 1067              	.LVL151:
 1068 003c 3378     		ldrb	r3, [r6]	@ zero_extendqisi2
 1069 003e 13F0020F 		tst	r3, #2
 1070 0042 6BD1     		bne	.L116
 1071              	.L84:
 1072              		.loc 1 307 0 discriminator 5
 1073 0044 3378     		ldrb	r3, [r6]	@ zero_extendqisi2
 1074 0046 13F0010F 		tst	r3, #1
 1075 004a 6CD1     		bne	.L117
 1076              	.L85:
 1077              		.loc 1 307 0 discriminator 8
 1078 004c AB48     		ldr	r0, .L121+12
 1079 004e FFF7FEFF 		bl	atiny_printf
 1080              	.LVL152:
 1081              	.L83:
 308:C:/Users/lenovo/Desktop/liteos/Project2/BearPi_LiteOS/components/connectivity/lwm2m/core\discover.c **** 
 309:C:/Users/lenovo/Desktop/liteos/Project2/BearPi_LiteOS/components/connectivity/lwm2m/core\discover.c ****     head = 0;
 310:C:/Users/lenovo/Desktop/liteos/Project2/BearPi_LiteOS/components/connectivity/lwm2m/core\discover.c ****     memset(&parentUri, 0, sizeof(lwm2m_uri_t));
 1082              		.loc 1 310 0 is_stmt 1
 1083 0052 0023     		movs	r3, #0
 1084 0054 1593     		str	r3, [sp, #84]
 1085 0056 1693     		str	r3, [sp, #88]
 311:C:/Users/lenovo/Desktop/liteos/Project2/BearPi_LiteOS/components/connectivity/lwm2m/core\discover.c ****     parentUri.objectId = uriP->objectId;
 1086              		.loc 1 311 0
 1087 0058 7388     		ldrh	r3, [r6, #2]
 1088 005a ADF85630 		strh	r3, [sp, #86]	@ movhi
 312:C:/Users/lenovo/Desktop/liteos/Project2/BearPi_LiteOS/components/connectivity/lwm2m/core\discover.c ****     parentUri.flag = LWM2M_URI_FLAG_OBJECT_ID;
 1089              		.loc 1 312 0
 1090 005e 0423     		movs	r3, #4
 1091 0060 8DF85430 		strb	r3, [sp, #84]
 313:C:/Users/lenovo/Desktop/liteos/Project2/BearPi_LiteOS/components/connectivity/lwm2m/core\discover.c **** 
 314:C:/Users/lenovo/Desktop/liteos/Project2/BearPi_LiteOS/components/connectivity/lwm2m/core\discover.c ****     if (LWM2M_URI_IS_SET_RESOURCE(uriP))
 1092              		.loc 1 314 0
 1093 0064 3378     		ldrb	r3, [r6]	@ zero_extendqisi2
 1094 0066 13F0010F 		tst	r3, #1
 1095 006a 61D1     		bne	.L118
 1096              	.LVL153:
 315:C:/Users/lenovo/Desktop/liteos/Project2/BearPi_LiteOS/components/connectivity/lwm2m/core\discover.c ****     {
 316:C:/Users/lenovo/Desktop/liteos/Project2/BearPi_LiteOS/components/connectivity/lwm2m/core\discover.c ****         lwm2m_uri_t tempUri;
 317:C:/Users/lenovo/Desktop/liteos/Project2/BearPi_LiteOS/components/connectivity/lwm2m/core\discover.c ****         lwm2m_attributes_t *objParamP;
 318:C:/Users/lenovo/Desktop/liteos/Project2/BearPi_LiteOS/components/connectivity/lwm2m/core\discover.c ****         lwm2m_attributes_t *instParamP;
 319:C:/Users/lenovo/Desktop/liteos/Project2/BearPi_LiteOS/components/connectivity/lwm2m/core\discover.c **** 
 320:C:/Users/lenovo/Desktop/liteos/Project2/BearPi_LiteOS/components/connectivity/lwm2m/core\discover.c ****         memset(&parentUri, 0, sizeof(lwm2m_uri_t));
 321:C:/Users/lenovo/Desktop/liteos/Project2/BearPi_LiteOS/components/connectivity/lwm2m/core\discover.c ****         tempUri.objectId = uriP->objectId;
 322:C:/Users/lenovo/Desktop/liteos/Project2/BearPi_LiteOS/components/connectivity/lwm2m/core\discover.c ****         tempUri.flag = LWM2M_URI_FLAG_OBJECT_ID;
 323:C:/Users/lenovo/Desktop/liteos/Project2/BearPi_LiteOS/components/connectivity/lwm2m/core\discover.c **** 
 324:C:/Users/lenovo/Desktop/liteos/Project2/BearPi_LiteOS/components/connectivity/lwm2m/core\discover.c ****         // get object level attributes
 325:C:/Users/lenovo/Desktop/liteos/Project2/BearPi_LiteOS/components/connectivity/lwm2m/core\discover.c ****         objParamP = prv_findAttributes(contextP, &tempUri, serverP);
 326:C:/Users/lenovo/Desktop/liteos/Project2/BearPi_LiteOS/components/connectivity/lwm2m/core\discover.c **** 
ARM GAS  c:\Users\lenovo\AppData\Local\Temp\ccYuaKY9.s 			page 27


 327:C:/Users/lenovo/Desktop/liteos/Project2/BearPi_LiteOS/components/connectivity/lwm2m/core\discover.c ****         // get object instance level attributes
 328:C:/Users/lenovo/Desktop/liteos/Project2/BearPi_LiteOS/components/connectivity/lwm2m/core\discover.c ****         tempUri.instanceId = uriP->instanceId;
 329:C:/Users/lenovo/Desktop/liteos/Project2/BearPi_LiteOS/components/connectivity/lwm2m/core\discover.c ****         tempUri.flag = LWM2M_URI_FLAG_INSTANCE_ID;
 330:C:/Users/lenovo/Desktop/liteos/Project2/BearPi_LiteOS/components/connectivity/lwm2m/core\discover.c ****         instParamP = prv_findAttributes(contextP, &tempUri, serverP);
 331:C:/Users/lenovo/Desktop/liteos/Project2/BearPi_LiteOS/components/connectivity/lwm2m/core\discover.c **** 
 332:C:/Users/lenovo/Desktop/liteos/Project2/BearPi_LiteOS/components/connectivity/lwm2m/core\discover.c ****         if (objParamP != NULL)
 333:C:/Users/lenovo/Desktop/liteos/Project2/BearPi_LiteOS/components/connectivity/lwm2m/core\discover.c ****         {
 334:C:/Users/lenovo/Desktop/liteos/Project2/BearPi_LiteOS/components/connectivity/lwm2m/core\discover.c ****             if (instParamP != NULL)
 335:C:/Users/lenovo/Desktop/liteos/Project2/BearPi_LiteOS/components/connectivity/lwm2m/core\discover.c ****             {
 336:C:/Users/lenovo/Desktop/liteos/Project2/BearPi_LiteOS/components/connectivity/lwm2m/core\discover.c ****                 memset(&mergedParam, 0, sizeof(lwm2m_attributes_t));
 337:C:/Users/lenovo/Desktop/liteos/Project2/BearPi_LiteOS/components/connectivity/lwm2m/core\discover.c ****                 mergedParam.toSet = objParamP->toSet | instParamP->toSet;
 338:C:/Users/lenovo/Desktop/liteos/Project2/BearPi_LiteOS/components/connectivity/lwm2m/core\discover.c ****                 if (mergedParam.toSet & LWM2M_ATTR_FLAG_MIN_PERIOD)
 339:C:/Users/lenovo/Desktop/liteos/Project2/BearPi_LiteOS/components/connectivity/lwm2m/core\discover.c ****                 {
 340:C:/Users/lenovo/Desktop/liteos/Project2/BearPi_LiteOS/components/connectivity/lwm2m/core\discover.c ****                     if (instParamP->toSet & LWM2M_ATTR_FLAG_MIN_PERIOD)
 341:C:/Users/lenovo/Desktop/liteos/Project2/BearPi_LiteOS/components/connectivity/lwm2m/core\discover.c ****                     {
 342:C:/Users/lenovo/Desktop/liteos/Project2/BearPi_LiteOS/components/connectivity/lwm2m/core\discover.c ****                         mergedParam.minPeriod = instParamP->minPeriod;
 343:C:/Users/lenovo/Desktop/liteos/Project2/BearPi_LiteOS/components/connectivity/lwm2m/core\discover.c ****                     }
 344:C:/Users/lenovo/Desktop/liteos/Project2/BearPi_LiteOS/components/connectivity/lwm2m/core\discover.c ****                     else
 345:C:/Users/lenovo/Desktop/liteos/Project2/BearPi_LiteOS/components/connectivity/lwm2m/core\discover.c ****                     {
 346:C:/Users/lenovo/Desktop/liteos/Project2/BearPi_LiteOS/components/connectivity/lwm2m/core\discover.c ****                         mergedParam.minPeriod = objParamP->minPeriod;
 347:C:/Users/lenovo/Desktop/liteos/Project2/BearPi_LiteOS/components/connectivity/lwm2m/core\discover.c ****                     }
 348:C:/Users/lenovo/Desktop/liteos/Project2/BearPi_LiteOS/components/connectivity/lwm2m/core\discover.c ****                 }
 349:C:/Users/lenovo/Desktop/liteos/Project2/BearPi_LiteOS/components/connectivity/lwm2m/core\discover.c ****                 if (mergedParam.toSet & LWM2M_ATTR_FLAG_MAX_PERIOD)
 350:C:/Users/lenovo/Desktop/liteos/Project2/BearPi_LiteOS/components/connectivity/lwm2m/core\discover.c ****                 {
 351:C:/Users/lenovo/Desktop/liteos/Project2/BearPi_LiteOS/components/connectivity/lwm2m/core\discover.c ****                     if (instParamP->toSet & LWM2M_ATTR_FLAG_MAX_PERIOD)
 352:C:/Users/lenovo/Desktop/liteos/Project2/BearPi_LiteOS/components/connectivity/lwm2m/core\discover.c ****                     {
 353:C:/Users/lenovo/Desktop/liteos/Project2/BearPi_LiteOS/components/connectivity/lwm2m/core\discover.c ****                         mergedParam.maxPeriod = instParamP->maxPeriod;
 354:C:/Users/lenovo/Desktop/liteos/Project2/BearPi_LiteOS/components/connectivity/lwm2m/core\discover.c ****                     }
 355:C:/Users/lenovo/Desktop/liteos/Project2/BearPi_LiteOS/components/connectivity/lwm2m/core\discover.c ****                     else
 356:C:/Users/lenovo/Desktop/liteos/Project2/BearPi_LiteOS/components/connectivity/lwm2m/core\discover.c ****                     {
 357:C:/Users/lenovo/Desktop/liteos/Project2/BearPi_LiteOS/components/connectivity/lwm2m/core\discover.c ****                         mergedParam.maxPeriod = objParamP->maxPeriod;
 358:C:/Users/lenovo/Desktop/liteos/Project2/BearPi_LiteOS/components/connectivity/lwm2m/core\discover.c ****                     }
 359:C:/Users/lenovo/Desktop/liteos/Project2/BearPi_LiteOS/components/connectivity/lwm2m/core\discover.c ****                 }
 360:C:/Users/lenovo/Desktop/liteos/Project2/BearPi_LiteOS/components/connectivity/lwm2m/core\discover.c ****                 paramP = &mergedParam;
 361:C:/Users/lenovo/Desktop/liteos/Project2/BearPi_LiteOS/components/connectivity/lwm2m/core\discover.c ****             }
 362:C:/Users/lenovo/Desktop/liteos/Project2/BearPi_LiteOS/components/connectivity/lwm2m/core\discover.c ****             else
 363:C:/Users/lenovo/Desktop/liteos/Project2/BearPi_LiteOS/components/connectivity/lwm2m/core\discover.c ****             {
 364:C:/Users/lenovo/Desktop/liteos/Project2/BearPi_LiteOS/components/connectivity/lwm2m/core\discover.c ****                 paramP = objParamP;
 365:C:/Users/lenovo/Desktop/liteos/Project2/BearPi_LiteOS/components/connectivity/lwm2m/core\discover.c ****             }
 366:C:/Users/lenovo/Desktop/liteos/Project2/BearPi_LiteOS/components/connectivity/lwm2m/core\discover.c ****         }
 367:C:/Users/lenovo/Desktop/liteos/Project2/BearPi_LiteOS/components/connectivity/lwm2m/core\discover.c ****         else
 368:C:/Users/lenovo/Desktop/liteos/Project2/BearPi_LiteOS/components/connectivity/lwm2m/core\discover.c ****         {
 369:C:/Users/lenovo/Desktop/liteos/Project2/BearPi_LiteOS/components/connectivity/lwm2m/core\discover.c ****             paramP = instParamP;
 370:C:/Users/lenovo/Desktop/liteos/Project2/BearPi_LiteOS/components/connectivity/lwm2m/core\discover.c ****         }
 371:C:/Users/lenovo/Desktop/liteos/Project2/BearPi_LiteOS/components/connectivity/lwm2m/core\discover.c ****         uriP->flag &= ~LWM2M_URI_FLAG_RESOURCE_ID;
 372:C:/Users/lenovo/Desktop/liteos/Project2/BearPi_LiteOS/components/connectivity/lwm2m/core\discover.c ****     }
 373:C:/Users/lenovo/Desktop/liteos/Project2/BearPi_LiteOS/components/connectivity/lwm2m/core\discover.c ****     else
 374:C:/Users/lenovo/Desktop/liteos/Project2/BearPi_LiteOS/components/connectivity/lwm2m/core\discover.c ****     {
 375:C:/Users/lenovo/Desktop/liteos/Project2/BearPi_LiteOS/components/connectivity/lwm2m/core\discover.c ****         paramP = NULL;
 376:C:/Users/lenovo/Desktop/liteos/Project2/BearPi_LiteOS/components/connectivity/lwm2m/core\discover.c **** 
 377:C:/Users/lenovo/Desktop/liteos/Project2/BearPi_LiteOS/components/connectivity/lwm2m/core\discover.c ****         if (LWM2M_URI_IS_SET_INSTANCE(uriP))
 1097              		.loc 1 377 0
 1098 006c 13F0020F 		tst	r3, #2
 1099 0070 00F0D880 		beq	.L92
 378:C:/Users/lenovo/Desktop/liteos/Project2/BearPi_LiteOS/components/connectivity/lwm2m/core\discover.c ****         {
 379:C:/Users/lenovo/Desktop/liteos/Project2/BearPi_LiteOS/components/connectivity/lwm2m/core\discover.c ****             PRV_CONCAT_STR(bufferLink, PRV_LINK_BUFFER_SIZE, head, LINK_ITEM_START, LINK_ITEM_START
 1100              		.loc 1 379 0 discriminator 2
ARM GAS  c:\Users\lenovo\AppData\Local\Temp\ccYuaKY9.s 			page 28


 1101 0074 3C23     		movs	r3, #60
 1102 0076 8DF87030 		strb	r3, [sp, #112]
 1103              	.LVL154:
 380:C:/Users/lenovo/Desktop/liteos/Project2/BearPi_LiteOS/components/connectivity/lwm2m/core\discover.c ****             PRV_CONCAT_STR(bufferLink, PRV_LINK_BUFFER_SIZE, head, LINK_URI_SEPARATOR, LINK_URI_SEP
 1104              		.loc 1 380 0 discriminator 2
 1105 007a 2F23     		movs	r3, #47
 1106 007c 8DF87130 		strb	r3, [sp, #113]
 1107              	.LVL155:
 381:C:/Users/lenovo/Desktop/liteos/Project2/BearPi_LiteOS/components/connectivity/lwm2m/core\discover.c ****             res = utils_intToText(uriP->objectId, bufferLink + head, PRV_LINK_BUFFER_SIZE - head);
 1108              		.loc 1 381 0 discriminator 2
 1109 0080 40F2FE33 		movw	r3, #1022
 1110 0084 0DF17202 		add	r2, sp, #114
 1111 0088 7088     		ldrh	r0, [r6, #2]
 1112 008a 0021     		movs	r1, #0
 1113 008c FFF7FEFF 		bl	utils_intToText
 1114              	.LVL156:
 382:C:/Users/lenovo/Desktop/liteos/Project2/BearPi_LiteOS/components/connectivity/lwm2m/core\discover.c ****             if (res <= 0) return -1;
 1115              		.loc 1 382 0 discriminator 2
 1116 0090 0028     		cmp	r0, #0
 1117 0092 40F30C81 		ble	.L101
 383:C:/Users/lenovo/Desktop/liteos/Project2/BearPi_LiteOS/components/connectivity/lwm2m/core\discover.c ****             head += res;
 1118              		.loc 1 383 0
 1119 0096 831C     		adds	r3, r0, #2
 1120              	.LVL157:
 384:C:/Users/lenovo/Desktop/liteos/Project2/BearPi_LiteOS/components/connectivity/lwm2m/core\discover.c ****             PRV_CONCAT_STR(bufferLink, PRV_LINK_BUFFER_SIZE, head, LINK_URI_SEPARATOR, LINK_URI_SEP
 1121              		.loc 1 384 0
 1122 0098 B3F5806F 		cmp	r3, #1024
 1123 009c 00F00A81 		beq	.L102
 1124              		.loc 1 384 0 is_stmt 0 discriminator 2
 1125 00a0 1CAA     		add	r2, sp, #112
 1126 00a2 2F21     		movs	r1, #47
 1127 00a4 D154     		strb	r1, [r2, r3]
 1128 00a6 C41C     		adds	r4, r0, #3
 1129              	.LVL158:
 385:C:/Users/lenovo/Desktop/liteos/Project2/BearPi_LiteOS/components/connectivity/lwm2m/core\discover.c ****             res = utils_intToText(uriP->instanceId, bufferLink + head, PRV_LINK_BUFFER_SIZE - head)
 1130              		.loc 1 385 0 is_stmt 1 discriminator 2
 1131 00a8 C4F58063 		rsb	r3, r4, #1024
 1132 00ac 2244     		add	r2, r2, r4
 1133 00ae B088     		ldrh	r0, [r6, #4]
 1134              	.LVL159:
 1135 00b0 0021     		movs	r1, #0
 1136 00b2 FFF7FEFF 		bl	utils_intToText
 1137              	.LVL160:
 386:C:/Users/lenovo/Desktop/liteos/Project2/BearPi_LiteOS/components/connectivity/lwm2m/core\discover.c ****             if (res <= 0) return -1;
 1138              		.loc 1 386 0 discriminator 2
 1139 00b6 0028     		cmp	r0, #0
 1140 00b8 40F3FF80 		ble	.L103
 387:C:/Users/lenovo/Desktop/liteos/Project2/BearPi_LiteOS/components/connectivity/lwm2m/core\discover.c ****             head += res;
 1141              		.loc 1 387 0
 1142 00bc 2044     		add	r0, r0, r4
 1143              	.LVL161:
 388:C:/Users/lenovo/Desktop/liteos/Project2/BearPi_LiteOS/components/connectivity/lwm2m/core\discover.c ****             PRV_CONCAT_STR(bufferLink, PRV_LINK_BUFFER_SIZE, head, LINK_ITEM_END, LINK_ITEM_END_SIZ
 1144              		.loc 1 388 0
 1145 00be C0F58063 		rsb	r3, r0, #1024
 1146 00c2 012B     		cmp	r3, #1
 1147 00c4 40F2FC80 		bls	.L104
 1148              		.loc 1 388 0 is_stmt 0 discriminator 2
ARM GAS  c:\Users\lenovo\AppData\Local\Temp\ccYuaKY9.s 			page 29


 1149 00c8 8D4B     		ldr	r3, .L121+16
 1150 00ca 1A88     		ldrh	r2, [r3]	@ unaligned
 1151 00cc 1CAB     		add	r3, sp, #112
 1152 00ce 1A52     		strh	r2, [r3, r0]	@ unaligned
 1153 00d0 841C     		adds	r4, r0, #2
 1154              	.LVL162:
 389:C:/Users/lenovo/Desktop/liteos/Project2/BearPi_LiteOS/components/connectivity/lwm2m/core\discover.c ****             parentUri.instanceId = uriP->instanceId;
 1155              		.loc 1 389 0 is_stmt 1 discriminator 2
 1156 00d2 B388     		ldrh	r3, [r6, #4]
 1157 00d4 ADF85830 		strh	r3, [sp, #88]	@ movhi
 390:C:/Users/lenovo/Desktop/liteos/Project2/BearPi_LiteOS/components/connectivity/lwm2m/core\discover.c ****             parentUri.flag = LWM2M_URI_FLAG_INSTANCE_ID;
 1158              		.loc 1 390 0 discriminator 2
 1159 00d8 0223     		movs	r3, #2
 1160 00da 8DF85430 		strb	r3, [sp, #84]
 391:C:/Users/lenovo/Desktop/liteos/Project2/BearPi_LiteOS/components/connectivity/lwm2m/core\discover.c ****             if (serverP != NULL)
 1161              		.loc 1 391 0 discriminator 2
 1162 00de B9F1000F 		cmp	r9, #0
 1163 00e2 00F09D80 		beq	.L105
 392:C:/Users/lenovo/Desktop/liteos/Project2/BearPi_LiteOS/components/connectivity/lwm2m/core\discover.c ****             {
 393:C:/Users/lenovo/Desktop/liteos/Project2/BearPi_LiteOS/components/connectivity/lwm2m/core\discover.c ****                 res = prv_serializeAttributes(contextP, &parentUri, serverP, NULL, bufferLink, head
 1164              		.loc 1 393 0
 1165 00e6 0130     		adds	r0, r0, #1
 1166 00e8 4FF48063 		mov	r3, #1024
 1167 00ec 0293     		str	r3, [sp, #8]
 1168 00ee 0190     		str	r0, [sp, #4]
 1169 00f0 1CAB     		add	r3, sp, #112
 1170 00f2 0093     		str	r3, [sp]
 1171 00f4 0023     		movs	r3, #0
 1172 00f6 4A46     		mov	r2, r9
 1173 00f8 15A9     		add	r1, sp, #84
 1174 00fa 0798     		ldr	r0, [sp, #28]
 1175 00fc FFF7FEFF 		bl	prv_serializeAttributes
 1176              	.LVL163:
 394:C:/Users/lenovo/Desktop/liteos/Project2/BearPi_LiteOS/components/connectivity/lwm2m/core\discover.c ****                 if (res < 0) return -1;    // careful, 0 is valid
 1177              		.loc 1 394 0
 1178 0100 0028     		cmp	r0, #0
 1179 0102 C0F2E080 		blt	.L119
 1180              	.LVL164:
 1181              	.L94:
 395:C:/Users/lenovo/Desktop/liteos/Project2/BearPi_LiteOS/components/connectivity/lwm2m/core\discover.c ****             }
 396:C:/Users/lenovo/Desktop/liteos/Project2/BearPi_LiteOS/components/connectivity/lwm2m/core\discover.c ****             else
 397:C:/Users/lenovo/Desktop/liteos/Project2/BearPi_LiteOS/components/connectivity/lwm2m/core\discover.c ****             {
 398:C:/Users/lenovo/Desktop/liteos/Project2/BearPi_LiteOS/components/connectivity/lwm2m/core\discover.c ****                 res = 0;
 399:C:/Users/lenovo/Desktop/liteos/Project2/BearPi_LiteOS/components/connectivity/lwm2m/core\discover.c ****             }
 400:C:/Users/lenovo/Desktop/liteos/Project2/BearPi_LiteOS/components/connectivity/lwm2m/core\discover.c ****             head += res;
 1182              		.loc 1 400 0
 1183 0106 0444     		add	r4, r4, r0
 1184              	.LVL165:
 375:C:/Users/lenovo/Desktop/liteos/Project2/BearPi_LiteOS/components/connectivity/lwm2m/core\discover.c **** 
 1185              		.loc 1 375 0
 1186 0108 4FF0000A 		mov	r10, #0
 1187 010c 60E0     		b	.L91
 1188              	.LVL166:
 1189              	.L115:
 307:C:/Users/lenovo/Desktop/liteos/Project2/BearPi_LiteOS/components/connectivity/lwm2m/core\discover.c **** 
 1190              		.loc 1 307 0 discriminator 1
 1191 010e 40F23312 		movw	r2, #307
ARM GAS  c:\Users\lenovo\AppData\Local\Temp\ccYuaKY9.s 			page 30


 1192 0112 7749     		ldr	r1, .L121
 1193 0114 7B48     		ldr	r0, .L121+20
 1194 0116 FFF7FEFF 		bl	atiny_printf
 1195              	.LVL167:
 1196 011a 9AE7     		b	.L83
 1197              	.L116:
 307:C:/Users/lenovo/Desktop/liteos/Project2/BearPi_LiteOS/components/connectivity/lwm2m/core\discover.c **** 
 1198              		.loc 1 307 0 is_stmt 0 discriminator 3
 1199 011c B188     		ldrh	r1, [r6, #4]
 1200 011e 7A48     		ldr	r0, .L121+24
 1201 0120 FFF7FEFF 		bl	atiny_printf
 1202              	.LVL168:
 1203 0124 8EE7     		b	.L84
 1204              	.L117:
 307:C:/Users/lenovo/Desktop/liteos/Project2/BearPi_LiteOS/components/connectivity/lwm2m/core\discover.c **** 
 1205              		.loc 1 307 0 discriminator 6
 1206 0126 F188     		ldrh	r1, [r6, #6]
 1207 0128 7748     		ldr	r0, .L121+24
 1208 012a FFF7FEFF 		bl	atiny_printf
 1209              	.LVL169:
 1210 012e 8DE7     		b	.L85
 1211              	.LVL170:
 1212              	.L118:
 1213              	.LBB3:
 320:C:/Users/lenovo/Desktop/liteos/Project2/BearPi_LiteOS/components/connectivity/lwm2m/core\discover.c ****         tempUri.objectId = uriP->objectId;
 1214              		.loc 1 320 0 is_stmt 1
 1215 0130 0023     		movs	r3, #0
 1216 0132 1593     		str	r3, [sp, #84]
 321:C:/Users/lenovo/Desktop/liteos/Project2/BearPi_LiteOS/components/connectivity/lwm2m/core\discover.c ****         tempUri.flag = LWM2M_URI_FLAG_OBJECT_ID;
 1217              		.loc 1 321 0
 1218 0134 7388     		ldrh	r3, [r6, #2]
 1219 0136 ADF82230 		strh	r3, [sp, #34]	@ movhi
 322:C:/Users/lenovo/Desktop/liteos/Project2/BearPi_LiteOS/components/connectivity/lwm2m/core\discover.c **** 
 1220              		.loc 1 322 0
 1221 013a 0423     		movs	r3, #4
 1222 013c 8DF82030 		strb	r3, [sp, #32]
 325:C:/Users/lenovo/Desktop/liteos/Project2/BearPi_LiteOS/components/connectivity/lwm2m/core\discover.c **** 
 1223              		.loc 1 325 0
 1224 0140 4A46     		mov	r2, r9
 1225 0142 08A9     		add	r1, sp, #32
 1226 0144 079C     		ldr	r4, [sp, #28]
 1227 0146 2046     		mov	r0, r4
 1228 0148 FFF7FEFF 		bl	prv_findAttributes
 1229              	.LVL171:
 1230 014c 8246     		mov	r10, r0
 1231              	.LVL172:
 328:C:/Users/lenovo/Desktop/liteos/Project2/BearPi_LiteOS/components/connectivity/lwm2m/core\discover.c ****         tempUri.flag = LWM2M_URI_FLAG_INSTANCE_ID;
 1232              		.loc 1 328 0
 1233 014e B388     		ldrh	r3, [r6, #4]
 1234 0150 ADF82430 		strh	r3, [sp, #36]	@ movhi
 329:C:/Users/lenovo/Desktop/liteos/Project2/BearPi_LiteOS/components/connectivity/lwm2m/core\discover.c ****         instParamP = prv_findAttributes(contextP, &tempUri, serverP);
 1235              		.loc 1 329 0
 1236 0154 0223     		movs	r3, #2
 1237 0156 8DF82030 		strb	r3, [sp, #32]
 330:C:/Users/lenovo/Desktop/liteos/Project2/BearPi_LiteOS/components/connectivity/lwm2m/core\discover.c **** 
 1238              		.loc 1 330 0
 1239 015a 4A46     		mov	r2, r9
ARM GAS  c:\Users\lenovo\AppData\Local\Temp\ccYuaKY9.s 			page 31


 1240 015c 08A9     		add	r1, sp, #32
 1241 015e 2046     		mov	r0, r4
 1242              	.LVL173:
 1243 0160 FFF7FEFF 		bl	prv_findAttributes
 1244              	.LVL174:
 1245 0164 0446     		mov	r4, r0
 1246              	.LVL175:
 332:C:/Users/lenovo/Desktop/liteos/Project2/BearPi_LiteOS/components/connectivity/lwm2m/core\discover.c ****         {
 1247              		.loc 1 332 0
 1248 0166 BAF1000F 		cmp	r10, #0
 1249 016a 2BD0     		beq	.L99
 334:C:/Users/lenovo/Desktop/liteos/Project2/BearPi_LiteOS/components/connectivity/lwm2m/core\discover.c ****             {
 1250              		.loc 1 334 0
 1251 016c 58B3     		cbz	r0, .L87
 336:C:/Users/lenovo/Desktop/liteos/Project2/BearPi_LiteOS/components/connectivity/lwm2m/core\discover.c ****                 mergedParam.toSet = objParamP->toSet | instParamP->toSet;
 1252              		.loc 1 336 0
 1253 016e 2822     		movs	r2, #40
 1254 0170 0021     		movs	r1, #0
 1255 0172 0DEB0200 		add	r0, sp, r2
 1256              	.LVL176:
 1257 0176 FFF7FEFF 		bl	memset
 1258              	.LVL177:
 337:C:/Users/lenovo/Desktop/liteos/Project2/BearPi_LiteOS/components/connectivity/lwm2m/core\discover.c ****                 if (mergedParam.toSet & LWM2M_ATTR_FLAG_MIN_PERIOD)
 1259              		.loc 1 337 0
 1260 017a 9AF80030 		ldrb	r3, [r10]	@ zero_extendqisi2
 1261 017e 2278     		ldrb	r2, [r4]	@ zero_extendqisi2
 1262 0180 1343     		orrs	r3, r3, r2
 1263 0182 8DF82830 		strb	r3, [sp, #40]
 338:C:/Users/lenovo/Desktop/liteos/Project2/BearPi_LiteOS/components/connectivity/lwm2m/core\discover.c ****                 {
 1264              		.loc 1 338 0
 1265 0186 13F0010F 		tst	r3, #1
 1266 018a 05D0     		beq	.L88
 340:C:/Users/lenovo/Desktop/liteos/Project2/BearPi_LiteOS/components/connectivity/lwm2m/core\discover.c ****                     {
 1267              		.loc 1 340 0
 1268 018c 2278     		ldrb	r2, [r4]	@ zero_extendqisi2
 1269 018e 12F0010F 		tst	r2, #1
 1270 0192 0DD0     		beq	.L89
 342:C:/Users/lenovo/Desktop/liteos/Project2/BearPi_LiteOS/components/connectivity/lwm2m/core\discover.c ****                     }
 1271              		.loc 1 342 0
 1272 0194 6268     		ldr	r2, [r4, #4]
 1273 0196 0B92     		str	r2, [sp, #44]
 1274              	.L88:
 349:C:/Users/lenovo/Desktop/liteos/Project2/BearPi_LiteOS/components/connectivity/lwm2m/core\discover.c ****                 {
 1275              		.loc 1 349 0
 1276 0198 13F0020F 		tst	r3, #2
 1277 019c 3DD0     		beq	.L100
 351:C:/Users/lenovo/Desktop/liteos/Project2/BearPi_LiteOS/components/connectivity/lwm2m/core\discover.c ****                     {
 1278              		.loc 1 351 0
 1279 019e 2378     		ldrb	r3, [r4]	@ zero_extendqisi2
 1280 01a0 13F0020F 		tst	r3, #2
 1281 01a4 08D0     		beq	.L90
 353:C:/Users/lenovo/Desktop/liteos/Project2/BearPi_LiteOS/components/connectivity/lwm2m/core\discover.c ****                     }
 1282              		.loc 1 353 0
 1283 01a6 A368     		ldr	r3, [r4, #8]
 1284 01a8 0C93     		str	r3, [sp, #48]
 360:C:/Users/lenovo/Desktop/liteos/Project2/BearPi_LiteOS/components/connectivity/lwm2m/core\discover.c ****             }
 1285              		.loc 1 360 0
ARM GAS  c:\Users\lenovo\AppData\Local\Temp\ccYuaKY9.s 			page 32


 1286 01aa 0DF1280A 		add	r10, sp, #40
 1287              	.LVL178:
 1288 01ae 0AE0     		b	.L87
 1289              	.LVL179:
 1290              	.L89:
 346:C:/Users/lenovo/Desktop/liteos/Project2/BearPi_LiteOS/components/connectivity/lwm2m/core\discover.c ****                     }
 1291              		.loc 1 346 0
 1292 01b0 DAF80420 		ldr	r2, [r10, #4]
 1293 01b4 0B92     		str	r2, [sp, #44]
 1294 01b6 EFE7     		b	.L88
 1295              	.L90:
 357:C:/Users/lenovo/Desktop/liteos/Project2/BearPi_LiteOS/components/connectivity/lwm2m/core\discover.c ****                     }
 1296              		.loc 1 357 0
 1297 01b8 DAF80830 		ldr	r3, [r10, #8]
 1298 01bc 0C93     		str	r3, [sp, #48]
 360:C:/Users/lenovo/Desktop/liteos/Project2/BearPi_LiteOS/components/connectivity/lwm2m/core\discover.c ****             }
 1299              		.loc 1 360 0
 1300 01be 0DF1280A 		add	r10, sp, #40
 1301              	.LVL180:
 1302 01c2 00E0     		b	.L87
 1303              	.LVL181:
 1304              	.L99:
 369:C:/Users/lenovo/Desktop/liteos/Project2/BearPi_LiteOS/components/connectivity/lwm2m/core\discover.c ****         }
 1305              		.loc 1 369 0
 1306 01c4 8246     		mov	r10, r0
 1307              	.LVL182:
 1308              	.L87:
 371:C:/Users/lenovo/Desktop/liteos/Project2/BearPi_LiteOS/components/connectivity/lwm2m/core\discover.c ****     }
 1309              		.loc 1 371 0 discriminator 1
 1310 01c6 3378     		ldrb	r3, [r6]	@ zero_extendqisi2
 1311 01c8 23F00103 		bic	r3, r3, #1
 1312 01cc 3370     		strb	r3, [r6]
 1313              	.LBE3:
 309:C:/Users/lenovo/Desktop/liteos/Project2/BearPi_LiteOS/components/connectivity/lwm2m/core\discover.c ****     memset(&parentUri, 0, sizeof(lwm2m_uri_t));
 1314              		.loc 1 309 0 discriminator 1
 1315 01ce 0024     		movs	r4, #0
 1316              	.LVL183:
 1317              	.L91:
 401:C:/Users/lenovo/Desktop/liteos/Project2/BearPi_LiteOS/components/connectivity/lwm2m/core\discover.c ****         }
 402:C:/Users/lenovo/Desktop/liteos/Project2/BearPi_LiteOS/components/connectivity/lwm2m/core\discover.c ****         else
 403:C:/Users/lenovo/Desktop/liteos/Project2/BearPi_LiteOS/components/connectivity/lwm2m/core\discover.c ****         {
 404:C:/Users/lenovo/Desktop/liteos/Project2/BearPi_LiteOS/components/connectivity/lwm2m/core\discover.c ****             PRV_CONCAT_STR(bufferLink, PRV_LINK_BUFFER_SIZE, head, LINK_ITEM_START, LINK_ITEM_START
 405:C:/Users/lenovo/Desktop/liteos/Project2/BearPi_LiteOS/components/connectivity/lwm2m/core\discover.c ****             PRV_CONCAT_STR(bufferLink, PRV_LINK_BUFFER_SIZE, head, LINK_URI_SEPARATOR, LINK_URI_SEP
 406:C:/Users/lenovo/Desktop/liteos/Project2/BearPi_LiteOS/components/connectivity/lwm2m/core\discover.c ****             res = utils_intToText(uriP->objectId, bufferLink + head, PRV_LINK_BUFFER_SIZE - head);
 407:C:/Users/lenovo/Desktop/liteos/Project2/BearPi_LiteOS/components/connectivity/lwm2m/core\discover.c ****             if (res <= 0) return -1;
 408:C:/Users/lenovo/Desktop/liteos/Project2/BearPi_LiteOS/components/connectivity/lwm2m/core\discover.c ****             head += res;
 409:C:/Users/lenovo/Desktop/liteos/Project2/BearPi_LiteOS/components/connectivity/lwm2m/core\discover.c ****             PRV_CONCAT_STR(bufferLink, PRV_LINK_BUFFER_SIZE, head, LINK_ITEM_END, LINK_ITEM_END_SIZ
 410:C:/Users/lenovo/Desktop/liteos/Project2/BearPi_LiteOS/components/connectivity/lwm2m/core\discover.c **** 
 411:C:/Users/lenovo/Desktop/liteos/Project2/BearPi_LiteOS/components/connectivity/lwm2m/core\discover.c ****             if (serverP != NULL)
 412:C:/Users/lenovo/Desktop/liteos/Project2/BearPi_LiteOS/components/connectivity/lwm2m/core\discover.c ****             {
 413:C:/Users/lenovo/Desktop/liteos/Project2/BearPi_LiteOS/components/connectivity/lwm2m/core\discover.c ****                 res = prv_serializeAttributes(contextP, &parentUri, serverP, NULL, bufferLink, head
 414:C:/Users/lenovo/Desktop/liteos/Project2/BearPi_LiteOS/components/connectivity/lwm2m/core\discover.c ****                 if (res < 0) return -1;    // careful, 0 is valid
 415:C:/Users/lenovo/Desktop/liteos/Project2/BearPi_LiteOS/components/connectivity/lwm2m/core\discover.c ****                 head += res;
 416:C:/Users/lenovo/Desktop/liteos/Project2/BearPi_LiteOS/components/connectivity/lwm2m/core\discover.c ****             }
 417:C:/Users/lenovo/Desktop/liteos/Project2/BearPi_LiteOS/components/connectivity/lwm2m/core\discover.c ****         }
 418:C:/Users/lenovo/Desktop/liteos/Project2/BearPi_LiteOS/components/connectivity/lwm2m/core\discover.c ****     }
 419:C:/Users/lenovo/Desktop/liteos/Project2/BearPi_LiteOS/components/connectivity/lwm2m/core\discover.c **** 
ARM GAS  c:\Users\lenovo\AppData\Local\Temp\ccYuaKY9.s 			page 33


 420:C:/Users/lenovo/Desktop/liteos/Project2/BearPi_LiteOS/components/connectivity/lwm2m/core\discover.c ****     baseUriLen = uri_toString(uriP, baseUriStr, URI_MAX_STRING_LEN, NULL);
 1318              		.loc 1 420 0
 1319 01d0 0023     		movs	r3, #0
 1320 01d2 1222     		movs	r2, #18
 1321 01d4 17A9     		add	r1, sp, #92
 1322 01d6 3046     		mov	r0, r6
 1323 01d8 FFF7FEFF 		bl	uri_toString
 1324              	.LVL184:
 421:C:/Users/lenovo/Desktop/liteos/Project2/BearPi_LiteOS/components/connectivity/lwm2m/core\discover.c ****     if (baseUriLen < 0) return -1;
 1325              		.loc 1 421 0
 1326 01dc 0028     		cmp	r0, #0
 1327 01de 7EDB     		blt	.L111
 422:C:/Users/lenovo/Desktop/liteos/Project2/BearPi_LiteOS/components/connectivity/lwm2m/core\discover.c ****     baseUriLen -= 1;
 1328              		.loc 1 422 0
 1329 01e0 471E     		subs	r7, r0, #1
 1330              	.LVL185:
 423:C:/Users/lenovo/Desktop/liteos/Project2/BearPi_LiteOS/components/connectivity/lwm2m/core\discover.c **** 
 424:C:/Users/lenovo/Desktop/liteos/Project2/BearPi_LiteOS/components/connectivity/lwm2m/core\discover.c ****     for (index = 0; index < size && head < PRV_LINK_BUFFER_SIZE; index++)
 1331              		.loc 1 424 0
 1332 01e2 0025     		movs	r5, #0
 1333              	.LVL186:
 1334              	.L95:
 1335              		.loc 1 424 0 is_stmt 0 discriminator 1
 1336 01e4 4545     		cmp	r5, r8
 1337 01e6 4FDA     		bge	.L96
 1338              		.loc 1 424 0 discriminator 3
 1339 01e8 B4F5806F 		cmp	r4, #1024
 1340 01ec 4CD2     		bcs	.L96
 425:C:/Users/lenovo/Desktop/liteos/Project2/BearPi_LiteOS/components/connectivity/lwm2m/core\discover.c ****     {
 426:C:/Users/lenovo/Desktop/liteos/Project2/BearPi_LiteOS/components/connectivity/lwm2m/core\discover.c ****         res = prv_serializeLinkData(contextP, dataP + index, serverP, paramP, uriP, baseUriStr, bas
 1341              		.loc 1 426 0 is_stmt 1
 1342 01ee 1CAB     		add	r3, sp, #112
 1343 01f0 2344     		add	r3, r3, r4
 1344 01f2 C4F58062 		rsb	r2, r4, #1024
 1345 01f6 0492     		str	r2, [sp, #16]
 1346 01f8 0393     		str	r3, [sp, #12]
 1347 01fa 0297     		str	r7, [sp, #8]
 1348 01fc 17AB     		add	r3, sp, #92
 1349 01fe 0193     		str	r3, [sp, #4]
 1350 0200 0096     		str	r6, [sp]
 1351 0202 5346     		mov	r3, r10
 1352 0204 4A46     		mov	r2, r9
 1353 0206 0BEB0511 		add	r1, fp, r5, lsl #4
 1354 020a 0798     		ldr	r0, [sp, #28]
 1355 020c FFF7FEFF 		bl	prv_serializeLinkData
 1356              	.LVL187:
 427:C:/Users/lenovo/Desktop/liteos/Project2/BearPi_LiteOS/components/connectivity/lwm2m/core\discover.c ****         if (res < 0) return -1;
 1357              		.loc 1 427 0
 1358 0210 0028     		cmp	r0, #0
 1359 0212 67DB     		blt	.L112
 428:C:/Users/lenovo/Desktop/liteos/Project2/BearPi_LiteOS/components/connectivity/lwm2m/core\discover.c ****         head += res;
 1360              		.loc 1 428 0 discriminator 2
 1361 0214 0444     		add	r4, r4, r0
 1362              	.LVL188:
 424:C:/Users/lenovo/Desktop/liteos/Project2/BearPi_LiteOS/components/connectivity/lwm2m/core\discover.c ****     {
 1363              		.loc 1 424 0 discriminator 2
 1364 0216 0135     		adds	r5, r5, #1
ARM GAS  c:\Users\lenovo\AppData\Local\Temp\ccYuaKY9.s 			page 34


 1365              	.LVL189:
 1366 0218 E4E7     		b	.L95
 1367              	.LVL190:
 1368              	.L100:
 1369              	.LBB4:
 360:C:/Users/lenovo/Desktop/liteos/Project2/BearPi_LiteOS/components/connectivity/lwm2m/core\discover.c ****             }
 1370              		.loc 1 360 0
 1371 021a 0DF1280A 		add	r10, sp, #40
 1372              	.LVL191:
 1373 021e D2E7     		b	.L87
 1374              	.LVL192:
 1375              	.L105:
 1376              	.LBE4:
 398:C:/Users/lenovo/Desktop/liteos/Project2/BearPi_LiteOS/components/connectivity/lwm2m/core\discover.c ****             }
 1377              		.loc 1 398 0
 1378 0220 0020     		movs	r0, #0
 1379 0222 70E7     		b	.L94
 1380              	.LVL193:
 1381              	.L92:
 404:C:/Users/lenovo/Desktop/liteos/Project2/BearPi_LiteOS/components/connectivity/lwm2m/core\discover.c ****             PRV_CONCAT_STR(bufferLink, PRV_LINK_BUFFER_SIZE, head, LINK_URI_SEPARATOR, LINK_URI_SEP
 1382              		.loc 1 404 0 discriminator 2
 1383 0224 3C23     		movs	r3, #60
 1384 0226 8DF87030 		strb	r3, [sp, #112]
 1385              	.LVL194:
 405:C:/Users/lenovo/Desktop/liteos/Project2/BearPi_LiteOS/components/connectivity/lwm2m/core\discover.c ****             res = utils_intToText(uriP->objectId, bufferLink + head, PRV_LINK_BUFFER_SIZE - head);
 1386              		.loc 1 405 0 discriminator 2
 1387 022a 2F23     		movs	r3, #47
 1388 022c 8DF87130 		strb	r3, [sp, #113]
 1389              	.LVL195:
 406:C:/Users/lenovo/Desktop/liteos/Project2/BearPi_LiteOS/components/connectivity/lwm2m/core\discover.c ****             if (res <= 0) return -1;
 1390              		.loc 1 406 0 discriminator 2
 1391 0230 40F2FE33 		movw	r3, #1022
 1392 0234 0DF17202 		add	r2, sp, #114
 1393 0238 7088     		ldrh	r0, [r6, #2]
 1394 023a 0021     		movs	r1, #0
 1395 023c FFF7FEFF 		bl	utils_intToText
 1396              	.LVL196:
 407:C:/Users/lenovo/Desktop/liteos/Project2/BearPi_LiteOS/components/connectivity/lwm2m/core\discover.c ****             head += res;
 1397              		.loc 1 407 0 discriminator 2
 1398 0240 0028     		cmp	r0, #0
 1399 0242 43DD     		ble	.L107
 408:C:/Users/lenovo/Desktop/liteos/Project2/BearPi_LiteOS/components/connectivity/lwm2m/core\discover.c ****             PRV_CONCAT_STR(bufferLink, PRV_LINK_BUFFER_SIZE, head, LINK_ITEM_END, LINK_ITEM_END_SIZ
 1400              		.loc 1 408 0
 1401 0244 831C     		adds	r3, r0, #2
 1402              	.LVL197:
 409:C:/Users/lenovo/Desktop/liteos/Project2/BearPi_LiteOS/components/connectivity/lwm2m/core\discover.c **** 
 1403              		.loc 1 409 0
 1404 0246 C3F58062 		rsb	r2, r3, #1024
 1405 024a 012A     		cmp	r2, #1
 1406 024c 41D9     		bls	.L108
 409:C:/Users/lenovo/Desktop/liteos/Project2/BearPi_LiteOS/components/connectivity/lwm2m/core\discover.c **** 
 1407              		.loc 1 409 0 is_stmt 0 discriminator 2
 1408 024e 2C4A     		ldr	r2, .L121+16
 1409 0250 1188     		ldrh	r1, [r2]	@ unaligned
 1410 0252 1CAA     		add	r2, sp, #112
 1411 0254 D152     		strh	r1, [r2, r3]	@ unaligned
 1412 0256 041D     		adds	r4, r0, #4
ARM GAS  c:\Users\lenovo\AppData\Local\Temp\ccYuaKY9.s 			page 35


 1413              	.LVL198:
 411:C:/Users/lenovo/Desktop/liteos/Project2/BearPi_LiteOS/components/connectivity/lwm2m/core\discover.c ****             {
 1414              		.loc 1 411 0 is_stmt 1 discriminator 2
 1415 0258 B9F1000F 		cmp	r9, #0
 1416 025c 11D0     		beq	.L109
 413:C:/Users/lenovo/Desktop/liteos/Project2/BearPi_LiteOS/components/connectivity/lwm2m/core\discover.c ****                 if (res < 0) return -1;    // careful, 0 is valid
 1417              		.loc 1 413 0
 1418 025e 0330     		adds	r0, r0, #3
 1419              	.LVL199:
 1420 0260 4FF48063 		mov	r3, #1024
 1421 0264 0293     		str	r3, [sp, #8]
 1422 0266 0190     		str	r0, [sp, #4]
 1423 0268 0092     		str	r2, [sp]
 1424 026a 0023     		movs	r3, #0
 1425 026c 4A46     		mov	r2, r9
 1426 026e 15A9     		add	r1, sp, #84
 1427 0270 0798     		ldr	r0, [sp, #28]
 1428              	.LVL200:
 1429 0272 FFF7FEFF 		bl	prv_serializeAttributes
 1430              	.LVL201:
 414:C:/Users/lenovo/Desktop/liteos/Project2/BearPi_LiteOS/components/connectivity/lwm2m/core\discover.c ****                 head += res;
 1431              		.loc 1 414 0
 1432 0276 0028     		cmp	r0, #0
 1433 0278 2EDB     		blt	.L110
 415:C:/Users/lenovo/Desktop/liteos/Project2/BearPi_LiteOS/components/connectivity/lwm2m/core\discover.c ****             }
 1434              		.loc 1 415 0
 1435 027a 0444     		add	r4, r4, r0
 1436              	.LVL202:
 375:C:/Users/lenovo/Desktop/liteos/Project2/BearPi_LiteOS/components/connectivity/lwm2m/core\discover.c **** 
 1437              		.loc 1 375 0
 1438 027c 4FF0000A 		mov	r10, #0
 1439 0280 A6E7     		b	.L91
 1440              	.L109:
 1441 0282 4FF0000A 		mov	r10, #0
 1442 0286 A3E7     		b	.L91
 1443              	.LVL203:
 1444              	.L96:
 429:C:/Users/lenovo/Desktop/liteos/Project2/BearPi_LiteOS/components/connectivity/lwm2m/core\discover.c ****     }
 430:C:/Users/lenovo/Desktop/liteos/Project2/BearPi_LiteOS/components/connectivity/lwm2m/core\discover.c **** 
 431:C:/Users/lenovo/Desktop/liteos/Project2/BearPi_LiteOS/components/connectivity/lwm2m/core\discover.c ****     if (head > 0)
 1445              		.loc 1 431 0
 1446 0288 24B9     		cbnz	r4, .L120
 1447              	.L98:
 432:C:/Users/lenovo/Desktop/liteos/Project2/BearPi_LiteOS/components/connectivity/lwm2m/core\discover.c ****     {
 433:C:/Users/lenovo/Desktop/liteos/Project2/BearPi_LiteOS/components/connectivity/lwm2m/core\discover.c ****         head -= 1;
 434:C:/Users/lenovo/Desktop/liteos/Project2/BearPi_LiteOS/components/connectivity/lwm2m/core\discover.c **** 
 435:C:/Users/lenovo/Desktop/liteos/Project2/BearPi_LiteOS/components/connectivity/lwm2m/core\discover.c ****         *bufferP = (uint8_t *)lwm2m_malloc(head);
 436:C:/Users/lenovo/Desktop/liteos/Project2/BearPi_LiteOS/components/connectivity/lwm2m/core\discover.c ****         if (*bufferP == NULL) return 0;
 437:C:/Users/lenovo/Desktop/liteos/Project2/BearPi_LiteOS/components/connectivity/lwm2m/core\discover.c ****         memcpy(*bufferP, bufferLink, head);
 438:C:/Users/lenovo/Desktop/liteos/Project2/BearPi_LiteOS/components/connectivity/lwm2m/core\discover.c ****     }
 439:C:/Users/lenovo/Desktop/liteos/Project2/BearPi_LiteOS/components/connectivity/lwm2m/core\discover.c **** 
 440:C:/Users/lenovo/Desktop/liteos/Project2/BearPi_LiteOS/components/connectivity/lwm2m/core\discover.c ****     return (int)head;
 1448              		.loc 1 440 0
 1449 028a 2046     		mov	r0, r4
 1450              	.LVL204:
 1451              	.L81:
 441:C:/Users/lenovo/Desktop/liteos/Project2/BearPi_LiteOS/components/connectivity/lwm2m/core\discover.c **** }
ARM GAS  c:\Users\lenovo\AppData\Local\Temp\ccYuaKY9.s 			page 36


 1452              		.loc 1 441 0
 1453 028c 0DF2744D 		addw	sp, sp, #1140
 1454              	.LCFI10:
 1455              		.cfi_remember_state
 1456              		.cfi_def_cfa_offset 36
 1457              		@ sp needed
 1458 0290 BDE8F08F 		pop	{r4, r5, r6, r7, r8, r9, r10, fp, pc}
 1459              	.LVL205:
 1460              	.L120:
 1461              	.LCFI11:
 1462              		.cfi_restore_state
 433:C:/Users/lenovo/Desktop/liteos/Project2/BearPi_LiteOS/components/connectivity/lwm2m/core\discover.c **** 
 1463              		.loc 1 433 0
 1464 0294 013C     		subs	r4, r4, #1
 1465              	.LVL206:
 435:C:/Users/lenovo/Desktop/liteos/Project2/BearPi_LiteOS/components/connectivity/lwm2m/core\discover.c ****         if (*bufferP == NULL) return 0;
 1466              		.loc 1 435 0
 1467 0296 2046     		mov	r0, r4
 1468 0298 FFF7FEFF 		bl	lwm2m_malloc
 1469              	.LVL207:
 1470 029c DDF89C34 		ldr	r3, [sp, #1180]
 1471 02a0 1860     		str	r0, [r3]
 436:C:/Users/lenovo/Desktop/liteos/Project2/BearPi_LiteOS/components/connectivity/lwm2m/core\discover.c ****         memcpy(*bufferP, bufferLink, head);
 1472              		.loc 1 436 0
 1473 02a2 10B3     		cbz	r0, .L113
 437:C:/Users/lenovo/Desktop/liteos/Project2/BearPi_LiteOS/components/connectivity/lwm2m/core\discover.c ****     }
 1474              		.loc 1 437 0
 1475 02a4 2246     		mov	r2, r4
 1476 02a6 1CA9     		add	r1, sp, #112
 1477 02a8 FFF7FEFF 		bl	memcpy
 1478              	.LVL208:
 1479 02ac EDE7     		b	.L98
 1480              	.LVL209:
 1481              	.L101:
 382:C:/Users/lenovo/Desktop/liteos/Project2/BearPi_LiteOS/components/connectivity/lwm2m/core\discover.c ****             head += res;
 1482              		.loc 1 382 0
 1483 02ae 4FF0FF30 		mov	r0, #-1
 1484              	.LVL210:
 1485 02b2 EBE7     		b	.L81
 1486              	.LVL211:
 1487              	.L102:
 384:C:/Users/lenovo/Desktop/liteos/Project2/BearPi_LiteOS/components/connectivity/lwm2m/core\discover.c ****             res = utils_intToText(uriP->instanceId, bufferLink + head, PRV_LINK_BUFFER_SIZE - head)
 1488              		.loc 1 384 0
 1489 02b4 4FF0FF30 		mov	r0, #-1
 1490              	.LVL212:
 1491 02b8 E8E7     		b	.L81
 1492              	.LVL213:
 1493              	.L103:
 386:C:/Users/lenovo/Desktop/liteos/Project2/BearPi_LiteOS/components/connectivity/lwm2m/core\discover.c ****             head += res;
 1494              		.loc 1 386 0
 1495 02ba 4FF0FF30 		mov	r0, #-1
 1496              	.LVL214:
 1497 02be E5E7     		b	.L81
 1498              	.LVL215:
 1499              	.L104:
 388:C:/Users/lenovo/Desktop/liteos/Project2/BearPi_LiteOS/components/connectivity/lwm2m/core\discover.c ****             parentUri.instanceId = uriP->instanceId;
 1500              		.loc 1 388 0
ARM GAS  c:\Users\lenovo\AppData\Local\Temp\ccYuaKY9.s 			page 37


 1501 02c0 4FF0FF30 		mov	r0, #-1
 1502              	.LVL216:
 1503 02c4 E2E7     		b	.L81
 1504              	.LVL217:
 1505              	.L119:
 394:C:/Users/lenovo/Desktop/liteos/Project2/BearPi_LiteOS/components/connectivity/lwm2m/core\discover.c ****             }
 1506              		.loc 1 394 0
 1507 02c6 4FF0FF30 		mov	r0, #-1
 1508              	.LVL218:
 1509 02ca DFE7     		b	.L81
 1510              	.LVL219:
 1511              	.L107:
 407:C:/Users/lenovo/Desktop/liteos/Project2/BearPi_LiteOS/components/connectivity/lwm2m/core\discover.c ****             head += res;
 1512              		.loc 1 407 0
 1513 02cc 4FF0FF30 		mov	r0, #-1
 1514              	.LVL220:
 1515 02d0 DCE7     		b	.L81
 1516              	.LVL221:
 1517              	.L108:
 409:C:/Users/lenovo/Desktop/liteos/Project2/BearPi_LiteOS/components/connectivity/lwm2m/core\discover.c **** 
 1518              		.loc 1 409 0
 1519 02d2 4FF0FF30 		mov	r0, #-1
 1520              	.LVL222:
 1521 02d6 D9E7     		b	.L81
 1522              	.LVL223:
 1523              	.L110:
 414:C:/Users/lenovo/Desktop/liteos/Project2/BearPi_LiteOS/components/connectivity/lwm2m/core\discover.c ****                 head += res;
 1524              		.loc 1 414 0
 1525 02d8 4FF0FF30 		mov	r0, #-1
 1526              	.LVL224:
 1527 02dc D6E7     		b	.L81
 1528              	.LVL225:
 1529              	.L111:
 421:C:/Users/lenovo/Desktop/liteos/Project2/BearPi_LiteOS/components/connectivity/lwm2m/core\discover.c ****     baseUriLen -= 1;
 1530              		.loc 1 421 0
 1531 02de 4FF0FF30 		mov	r0, #-1
 1532              	.LVL226:
 1533 02e2 D3E7     		b	.L81
 1534              	.LVL227:
 1535              	.L112:
 427:C:/Users/lenovo/Desktop/liteos/Project2/BearPi_LiteOS/components/connectivity/lwm2m/core\discover.c ****         head += res;
 1536              		.loc 1 427 0
 1537 02e4 4FF0FF30 		mov	r0, #-1
 1538              	.LVL228:
 1539 02e8 D0E7     		b	.L81
 1540              	.L113:
 436:C:/Users/lenovo/Desktop/liteos/Project2/BearPi_LiteOS/components/connectivity/lwm2m/core\discover.c ****         memcpy(*bufferP, bufferLink, head);
 1541              		.loc 1 436 0
 1542 02ea 0020     		movs	r0, #0
 1543 02ec CEE7     		b	.L81
 1544              	.L122:
 1545 02ee 00BF     		.align	2
 1546              	.L121:
 1547 02f0 00000000 		.word	.LANCHOR0
 1548 02f4 00000000 		.word	.LC7
 1549 02f8 28000000 		.word	.LC9
 1550 02fc 38000000 		.word	.LC11
ARM GAS  c:\Users\lenovo\AppData\Local\Temp\ccYuaKY9.s 			page 38


 1551 0300 08000000 		.word	.LC6
 1552 0304 18000000 		.word	.LC8
 1553 0308 34000000 		.word	.LC10
 1554              		.cfi_endproc
 1555              	.LFE137:
 1557              		.section	.rodata.__func__.11642,"a",%progbits
 1558              		.align	2
 1559              		.set	.LANCHOR0,. + 0
 1562              	__func__.11642:
 1563 0000 64697363 		.ascii	"discover_serialize\000"
 1563      6F766572 
 1563      5F736572 
 1563      69616C69 
 1563      7A6500
 1564              		.section	.rodata.discover_serialize.str1.4,"aMS",%progbits,1
 1565              		.align	2
 1566              	.LC7:
 1567 0000 5B25645D 		.ascii	"[%d][%s:%d] size: %d\015\012\000"
 1567      5B25733A 
 1567      25645D20 
 1567      73697A65 
 1567      3A202564 
 1568 0017 00       		.space	1
 1569              	.LC8:
 1570 0018 5B25733A 		.ascii	"[%s:%d] NULL\015\012\000"
 1570      25645D20 
 1570      4E554C4C 
 1570      0D0A00
 1571 0027 00       		.space	1
 1572              	.LC9:
 1573 0028 5B25733A 		.ascii	"[%s:%d] /%d\000"
 1573      25645D20 
 1573      2F256400 
 1574              	.LC10:
 1575 0034 2F256400 		.ascii	"/%d\000"
 1576              	.LC11:
 1577 0038 0D0A00   		.ascii	"\015\012\000"
 1578              		.section	.rodata.prv_serializeAttributes.str1.4,"aMS",%progbits,1
 1579              		.align	2
 1580              	.LC0:
 1581 0000 706D696E 		.ascii	"pmin=\000"
 1581      3D00
 1582 0006 0000     		.space	2
 1583              	.LC1:
 1584 0008 706D6178 		.ascii	"pmax=\000"
 1584      3D00
 1585 000e 0000     		.space	2
 1586              	.LC2:
 1587 0010 67743D00 		.ascii	"gt=\000"
 1588              	.LC3:
 1589 0014 6C743D00 		.ascii	"lt=\000"
 1590              	.LC4:
 1591 0018 73743D00 		.ascii	"st=\000"
 1592              		.section	.rodata.prv_serializeLinkData.str1.4,"aMS",%progbits,1
 1593              		.align	2
 1594              	.LC5:
 1595 0000 3E3B6469 		.ascii	">;dim=\000"
ARM GAS  c:\Users\lenovo\AppData\Local\Temp\ccYuaKY9.s 			page 39


 1595      6D3D00
 1596 0007 00       		.space	1
 1597              	.LC6:
 1598 0008 3E2C00   		.ascii	">,\000"
 1599              		.text
 1600              	.Letext0:
 1601              		.file 2 "c:\\program files (x86)\\liteos studio\\resources\\arm-none-eabi\\arm-none-eabi\\include\
 1602              		.file 3 "c:\\program files (x86)\\liteos studio\\resources\\arm-none-eabi\\arm-none-eabi\\include\
 1603              		.file 4 "C:/Users/lenovo/Desktop/liteos/Project2/BearPi_LiteOS/components/connectivity/lwm2m/core/
 1604              		.file 5 "c:\\program files (x86)\\liteos studio\\resources\\arm-none-eabi\\lib\\gcc\\arm-none-eabi
 1605              		.file 6 "c:\\program files (x86)\\liteos studio\\resources\\arm-none-eabi\\arm-none-eabi\\include\
 1606              		.file 7 "c:\\program files (x86)\\liteos studio\\resources\\arm-none-eabi\\arm-none-eabi\\include\
 1607              		.file 8 "c:\\program files (x86)\\liteos studio\\resources\\arm-none-eabi\\arm-none-eabi\\include\
 1608              		.file 9 "c:\\program files (x86)\\liteos studio\\resources\\arm-none-eabi\\arm-none-eabi\\include\
 1609              		.file 10 "c:\\program files (x86)\\liteos studio\\resources\\arm-none-eabi\\arm-none-eabi\\include
 1610              		.file 11 "C:/Users/lenovo/Desktop/liteos/Project2/BearPi_LiteOS/components/connectivity/lwm2m/core
 1611              		.file 12 "C:/Users/lenovo/Desktop/liteos/Project2/BearPi_LiteOS/kernel/include/los_typedef.h"
 1612              		.file 13 "C:/Users/lenovo/Desktop/liteos/Project2/BearPi_LiteOS/arch/arm/common/cmsis/core_cm4.h"
 1613              		.file 14 "C:/Users/lenovo/Desktop/liteos/Project2/BearPi_LiteOS/targets/STM32L431_BearPi/Inc/syste
 1614              		.file 15 "C:/Users/lenovo/Desktop/liteos/Project2/BearPi_LiteOS/kernel/include/los_list.h"
 1615              		.file 16 "C:/Users/lenovo/Desktop/liteos/Project2/BearPi_LiteOS/kernel/include/los_err.h"
 1616              		.file 17 "C:/Users/lenovo/Desktop/liteos/Project2/BearPi_LiteOS/arch/arm/arm-m/include/los_hwi.h"
 1617              		.file 18 "C:/Users/lenovo/Desktop/liteos/Project2/BearPi_LiteOS/kernel/include/los_tick.h"
 1618              		.file 19 "C:/Users/lenovo/Desktop/liteos/Project2/BearPi_LiteOS/kernel/include/los_event.h"
 1619              		.file 20 "C:/Users/lenovo/Desktop/liteos/Project2/BearPi_LiteOS/kernel/include/los_task.h"
 1620              		.file 21 "C:/Users/lenovo/Desktop/liteos/Project2/BearPi_LiteOS/kernel/base/include/los_task.ph"
 1621              		.file 22 "C:/Users/lenovo/Desktop/liteos/Project2/BearPi_LiteOS/targets/STM32L431_BearPi/Inc/main.
 1622              		.file 23 "C:/Users/lenovo/Desktop/liteos/Project2/BearPi_LiteOS/targets/STM32L431_BearPi/OS_CONFIG
 1623              		.file 24 "C:/Users/lenovo/Desktop/liteos/Project2/BearPi_LiteOS/kernel/include/los_config.h"
 1624              		.file 25 "C:/Users/lenovo/Desktop/liteos/Project2/BearPi_LiteOS/components/connectivity/lwm2m/core
 1625              		.file 26 "c:\\program files (x86)\\liteos studio\\resources\\arm-none-eabi\\arm-none-eabi\\include
 1626              		.file 27 "c:\\program files (x86)\\liteos studio\\resources\\arm-none-eabi\\arm-none-eabi\\include
 1627              		.file 28 "C:/Users/lenovo/Desktop/liteos/Project2/BearPi_LiteOS/include/osdepends/atiny_osdep.h"
 1628              		.file 29 "C:/Users/lenovo/Desktop/liteos/Project2/BearPi_LiteOS/components/connectivity/lwm2m/core
 1629              		.file 30 "<built-in>"
ARM GAS  c:\Users\lenovo\AppData\Local\Temp\ccYuaKY9.s 			page 40

