ARM GAS  c:\Users\lenovo\AppData\Local\Temp\cc9y9OZN.s 			page 1


   1              		.cpu cortex-m4
   2              		.eabi_attribute 27, 1
   3              		.eabi_attribute 28, 1
   4              		.eabi_attribute 20, 1
   5              		.eabi_attribute 21, 1
   6              		.eabi_attribute 23, 3
   7              		.eabi_attribute 24, 1
   8              		.eabi_attribute 25, 1
   9              		.eabi_attribute 26, 1
  10              		.eabi_attribute 30, 1
  11              		.eabi_attribute 34, 1
  12              		.eabi_attribute 18, 4
  13              		.file	"dtls_interface.c"
  14              		.text
  15              	.Ltext0:
  16              		.cfi_sections	.debug_frame
  17              		.section	.text.atiny_calloc,"ax",%progbits
  18              		.align	1
  19              		.syntax unified
  20              		.thumb
  21              		.thumb_func
  22              		.fpu fpv4-sp-d16
  24              	atiny_calloc:
  25              	.LFB144:
  26              		.file 1 "C:/Users/lenovo/Desktop/liteos/Project2/BearPi_LiteOS/components/security/mbedtls/mbedtls
   1:C:/Users/lenovo/Desktop/liteos/Project2/BearPi_LiteOS/components/security/mbedtls/mbedtls_port\dtls_interface.c **** /*----------------------------------------------------------------------------
   2:C:/Users/lenovo/Desktop/liteos/Project2/BearPi_LiteOS/components/security/mbedtls/mbedtls_port\dtls_interface.c ****  * Copyright (c) <2016-2018>, <Huawei Technologies Co., Ltd>
   3:C:/Users/lenovo/Desktop/liteos/Project2/BearPi_LiteOS/components/security/mbedtls/mbedtls_port\dtls_interface.c ****  * All rights reserved.
   4:C:/Users/lenovo/Desktop/liteos/Project2/BearPi_LiteOS/components/security/mbedtls/mbedtls_port\dtls_interface.c ****  * Redistribution and use in source and binary forms, with or without modification,
   5:C:/Users/lenovo/Desktop/liteos/Project2/BearPi_LiteOS/components/security/mbedtls/mbedtls_port\dtls_interface.c ****  * are permitted provided that the following conditions are met:
   6:C:/Users/lenovo/Desktop/liteos/Project2/BearPi_LiteOS/components/security/mbedtls/mbedtls_port\dtls_interface.c ****  * 1. Redistributions of source code must retain the above copyright notice, this list of
   7:C:/Users/lenovo/Desktop/liteos/Project2/BearPi_LiteOS/components/security/mbedtls/mbedtls_port\dtls_interface.c ****  * conditions and the following disclaimer.
   8:C:/Users/lenovo/Desktop/liteos/Project2/BearPi_LiteOS/components/security/mbedtls/mbedtls_port\dtls_interface.c ****  * 2. Redistributions in binary form must reproduce the above copyright notice, this list
   9:C:/Users/lenovo/Desktop/liteos/Project2/BearPi_LiteOS/components/security/mbedtls/mbedtls_port\dtls_interface.c ****  * of conditions and the following disclaimer in the documentation and/or other materials
  10:C:/Users/lenovo/Desktop/liteos/Project2/BearPi_LiteOS/components/security/mbedtls/mbedtls_port\dtls_interface.c ****  * provided with the distribution.
  11:C:/Users/lenovo/Desktop/liteos/Project2/BearPi_LiteOS/components/security/mbedtls/mbedtls_port\dtls_interface.c ****  * 3. Neither the name of the copyright holder nor the names of its contributors may be used
  12:C:/Users/lenovo/Desktop/liteos/Project2/BearPi_LiteOS/components/security/mbedtls/mbedtls_port\dtls_interface.c ****  * to endorse or promote products derived from this software without specific prior written
  13:C:/Users/lenovo/Desktop/liteos/Project2/BearPi_LiteOS/components/security/mbedtls/mbedtls_port\dtls_interface.c ****  * permission.
  14:C:/Users/lenovo/Desktop/liteos/Project2/BearPi_LiteOS/components/security/mbedtls/mbedtls_port\dtls_interface.c ****  * THIS SOFTWARE IS PROVIDED BY THE COPYRIGHT HOLDERS AND CONTRIBUTORS
  15:C:/Users/lenovo/Desktop/liteos/Project2/BearPi_LiteOS/components/security/mbedtls/mbedtls_port\dtls_interface.c ****  * "AS IS" AND ANY EXPRESS OR IMPLIED WARRANTIES, INCLUDING, BUT NOT LIMITED TO,
  16:C:/Users/lenovo/Desktop/liteos/Project2/BearPi_LiteOS/components/security/mbedtls/mbedtls_port\dtls_interface.c ****  * THE IMPLIED WARRANTIES OF MERCHANTABILITY AND FITNESS FOR A PARTICULAR
  17:C:/Users/lenovo/Desktop/liteos/Project2/BearPi_LiteOS/components/security/mbedtls/mbedtls_port\dtls_interface.c ****  * PURPOSE ARE DISCLAIMED. IN NO EVENT SHALL THE COPYRIGHT HOLDER OR
  18:C:/Users/lenovo/Desktop/liteos/Project2/BearPi_LiteOS/components/security/mbedtls/mbedtls_port\dtls_interface.c ****  * CONTRIBUTORS BE LIABLE FOR ANY DIRECT, INDIRECT, INCIDENTAL, SPECIAL,
  19:C:/Users/lenovo/Desktop/liteos/Project2/BearPi_LiteOS/components/security/mbedtls/mbedtls_port\dtls_interface.c ****  * EXEMPLARY, OR CONSEQUENTIAL DAMAGES (INCLUDING, BUT NOT LIMITED TO,
  20:C:/Users/lenovo/Desktop/liteos/Project2/BearPi_LiteOS/components/security/mbedtls/mbedtls_port\dtls_interface.c ****  * PROCUREMENT OF SUBSTITUTE GOODS OR SERVICES; LOSS OF USE, DATA, OR PROFITS;
  21:C:/Users/lenovo/Desktop/liteos/Project2/BearPi_LiteOS/components/security/mbedtls/mbedtls_port\dtls_interface.c ****  * OR BUSINESS INTERRUPTION) HOWEVER CAUSED AND ON ANY THEORY OF LIABILITY,
  22:C:/Users/lenovo/Desktop/liteos/Project2/BearPi_LiteOS/components/security/mbedtls/mbedtls_port\dtls_interface.c ****  * WHETHER IN CONTRACT, STRICT LIABILITY, OR TORT (INCLUDING NEGLIGENCE OR
  23:C:/Users/lenovo/Desktop/liteos/Project2/BearPi_LiteOS/components/security/mbedtls/mbedtls_port\dtls_interface.c ****  * OTHERWISE) ARISING IN ANY WAY OUT OF THE USE OF THIS SOFTWARE, EVEN IF
  24:C:/Users/lenovo/Desktop/liteos/Project2/BearPi_LiteOS/components/security/mbedtls/mbedtls_port\dtls_interface.c ****  * ADVISED OF THE POSSIBILITY OF SUCH DAMAGE.
  25:C:/Users/lenovo/Desktop/liteos/Project2/BearPi_LiteOS/components/security/mbedtls/mbedtls_port\dtls_interface.c ****  *---------------------------------------------------------------------------*/
  26:C:/Users/lenovo/Desktop/liteos/Project2/BearPi_LiteOS/components/security/mbedtls/mbedtls_port\dtls_interface.c **** /*----------------------------------------------------------------------------
  27:C:/Users/lenovo/Desktop/liteos/Project2/BearPi_LiteOS/components/security/mbedtls/mbedtls_port\dtls_interface.c ****  * Notice of Export Control Law
  28:C:/Users/lenovo/Desktop/liteos/Project2/BearPi_LiteOS/components/security/mbedtls/mbedtls_port\dtls_interface.c ****  * ===============================================
  29:C:/Users/lenovo/Desktop/liteos/Project2/BearPi_LiteOS/components/security/mbedtls/mbedtls_port\dtls_interface.c ****  * Huawei LiteOS may be subject to applicable export control laws and regulations, which might
  30:C:/Users/lenovo/Desktop/liteos/Project2/BearPi_LiteOS/components/security/mbedtls/mbedtls_port\dtls_interface.c ****  * include those applicable to Huawei LiteOS of U.S. and the country in which you are located.
  31:C:/Users/lenovo/Desktop/liteos/Project2/BearPi_LiteOS/components/security/mbedtls/mbedtls_port\dtls_interface.c ****  * Import, export and usage of Huawei LiteOS in any manner by you shall be in compliance with such
  32:C:/Users/lenovo/Desktop/liteos/Project2/BearPi_LiteOS/components/security/mbedtls/mbedtls_port\dtls_interface.c ****  * applicable export control laws and regulations.
ARM GAS  c:\Users\lenovo\AppData\Local\Temp\cc9y9OZN.s 			page 2


  33:C:/Users/lenovo/Desktop/liteos/Project2/BearPi_LiteOS/components/security/mbedtls/mbedtls_port\dtls_interface.c ****  *---------------------------------------------------------------------------*/
  34:C:/Users/lenovo/Desktop/liteos/Project2/BearPi_LiteOS/components/security/mbedtls/mbedtls_port\dtls_interface.c **** 
  35:C:/Users/lenovo/Desktop/liteos/Project2/BearPi_LiteOS/components/security/mbedtls/mbedtls_port\dtls_interface.c **** /*
  36:C:/Users/lenovo/Desktop/liteos/Project2/BearPi_LiteOS/components/security/mbedtls/mbedtls_port\dtls_interface.c ****  *  Simple DTLS client demonstration program
  37:C:/Users/lenovo/Desktop/liteos/Project2/BearPi_LiteOS/components/security/mbedtls/mbedtls_port\dtls_interface.c ****  *
  38:C:/Users/lenovo/Desktop/liteos/Project2/BearPi_LiteOS/components/security/mbedtls/mbedtls_port\dtls_interface.c ****  *  Copyright (C) 2006-2015, ARM Limited, All Rights Reserved
  39:C:/Users/lenovo/Desktop/liteos/Project2/BearPi_LiteOS/components/security/mbedtls/mbedtls_port\dtls_interface.c ****  *  SPDX-License-Identifier: Apache-2.0
  40:C:/Users/lenovo/Desktop/liteos/Project2/BearPi_LiteOS/components/security/mbedtls/mbedtls_port\dtls_interface.c ****  *
  41:C:/Users/lenovo/Desktop/liteos/Project2/BearPi_LiteOS/components/security/mbedtls/mbedtls_port\dtls_interface.c ****  *  Licensed under the Apache License, Version 2.0 (the "License"); you may
  42:C:/Users/lenovo/Desktop/liteos/Project2/BearPi_LiteOS/components/security/mbedtls/mbedtls_port\dtls_interface.c ****  *  not use this file except in compliance with the License.
  43:C:/Users/lenovo/Desktop/liteos/Project2/BearPi_LiteOS/components/security/mbedtls/mbedtls_port\dtls_interface.c ****  *  You may obtain a copy of the License at
  44:C:/Users/lenovo/Desktop/liteos/Project2/BearPi_LiteOS/components/security/mbedtls/mbedtls_port\dtls_interface.c ****  *
  45:C:/Users/lenovo/Desktop/liteos/Project2/BearPi_LiteOS/components/security/mbedtls/mbedtls_port\dtls_interface.c ****  *  http://www.apache.org/licenses/LICENSE-2.0
  46:C:/Users/lenovo/Desktop/liteos/Project2/BearPi_LiteOS/components/security/mbedtls/mbedtls_port\dtls_interface.c ****  *
  47:C:/Users/lenovo/Desktop/liteos/Project2/BearPi_LiteOS/components/security/mbedtls/mbedtls_port\dtls_interface.c ****  *  Unless required by applicable law or agreed to in writing, software
  48:C:/Users/lenovo/Desktop/liteos/Project2/BearPi_LiteOS/components/security/mbedtls/mbedtls_port\dtls_interface.c ****  *  distributed under the License is distributed on an "AS IS" BASIS, WITHOUT
  49:C:/Users/lenovo/Desktop/liteos/Project2/BearPi_LiteOS/components/security/mbedtls/mbedtls_port\dtls_interface.c ****  *  WARRANTIES OR CONDITIONS OF ANY KIND, either express or implied.
  50:C:/Users/lenovo/Desktop/liteos/Project2/BearPi_LiteOS/components/security/mbedtls/mbedtls_port\dtls_interface.c ****  *  See the License for the specific language governing permissions and
  51:C:/Users/lenovo/Desktop/liteos/Project2/BearPi_LiteOS/components/security/mbedtls/mbedtls_port\dtls_interface.c ****  *  limitations under the License.
  52:C:/Users/lenovo/Desktop/liteos/Project2/BearPi_LiteOS/components/security/mbedtls/mbedtls_port\dtls_interface.c ****  *
  53:C:/Users/lenovo/Desktop/liteos/Project2/BearPi_LiteOS/components/security/mbedtls/mbedtls_port\dtls_interface.c ****  *  This file is part of mbed TLS (https://tls.mbed.org)
  54:C:/Users/lenovo/Desktop/liteos/Project2/BearPi_LiteOS/components/security/mbedtls/mbedtls_port\dtls_interface.c ****  */
  55:C:/Users/lenovo/Desktop/liteos/Project2/BearPi_LiteOS/components/security/mbedtls/mbedtls_port\dtls_interface.c **** 
  56:C:/Users/lenovo/Desktop/liteos/Project2/BearPi_LiteOS/components/security/mbedtls/mbedtls_port\dtls_interface.c **** #include "dtls_interface.h"
  57:C:/Users/lenovo/Desktop/liteos/Project2/BearPi_LiteOS/components/security/mbedtls/mbedtls_port\dtls_interface.c **** #include "osdepends/atiny_osdep.h"
  58:C:/Users/lenovo/Desktop/liteos/Project2/BearPi_LiteOS/components/security/mbedtls/mbedtls_port\dtls_interface.c **** #include "mbedtls/net_sockets.h"
  59:C:/Users/lenovo/Desktop/liteos/Project2/BearPi_LiteOS/components/security/mbedtls/mbedtls_port\dtls_interface.c **** #include "sal/atiny_socket.h"
  60:C:/Users/lenovo/Desktop/liteos/Project2/BearPi_LiteOS/components/security/mbedtls/mbedtls_port\dtls_interface.c **** 
  61:C:/Users/lenovo/Desktop/liteos/Project2/BearPi_LiteOS/components/security/mbedtls/mbedtls_port\dtls_interface.c **** #define MBEDTLS_DEBUG
  62:C:/Users/lenovo/Desktop/liteos/Project2/BearPi_LiteOS/components/security/mbedtls/mbedtls_port\dtls_interface.c **** 
  63:C:/Users/lenovo/Desktop/liteos/Project2/BearPi_LiteOS/components/security/mbedtls/mbedtls_port\dtls_interface.c **** #ifdef MBEDTLS_DEBUG
  64:C:/Users/lenovo/Desktop/liteos/Project2/BearPi_LiteOS/components/security/mbedtls/mbedtls_port\dtls_interface.c **** #define MBEDTLS_LOG(fmt, ...) \
  65:C:/Users/lenovo/Desktop/liteos/Project2/BearPi_LiteOS/components/security/mbedtls/mbedtls_port\dtls_interface.c ****     do \
  66:C:/Users/lenovo/Desktop/liteos/Project2/BearPi_LiteOS/components/security/mbedtls/mbedtls_port\dtls_interface.c ****     { \
  67:C:/Users/lenovo/Desktop/liteos/Project2/BearPi_LiteOS/components/security/mbedtls/mbedtls_port\dtls_interface.c ****         (void)atiny_printf("[MBEDTLS][%s:%d] " fmt "\r\n", \
  68:C:/Users/lenovo/Desktop/liteos/Project2/BearPi_LiteOS/components/security/mbedtls/mbedtls_port\dtls_interface.c ****         __FUNCTION__, __LINE__, ##__VA_ARGS__); \
  69:C:/Users/lenovo/Desktop/liteos/Project2/BearPi_LiteOS/components/security/mbedtls/mbedtls_port\dtls_interface.c ****     } while (0)
  70:C:/Users/lenovo/Desktop/liteos/Project2/BearPi_LiteOS/components/security/mbedtls/mbedtls_port\dtls_interface.c **** #else
  71:C:/Users/lenovo/Desktop/liteos/Project2/BearPi_LiteOS/components/security/mbedtls/mbedtls_port\dtls_interface.c **** #define MBEDTLS_LOG(fmt, ...) ((void)0)
  72:C:/Users/lenovo/Desktop/liteos/Project2/BearPi_LiteOS/components/security/mbedtls/mbedtls_port\dtls_interface.c **** #endif
  73:C:/Users/lenovo/Desktop/liteos/Project2/BearPi_LiteOS/components/security/mbedtls/mbedtls_port\dtls_interface.c **** 
  74:C:/Users/lenovo/Desktop/liteos/Project2/BearPi_LiteOS/components/security/mbedtls/mbedtls_port\dtls_interface.c **** 
  75:C:/Users/lenovo/Desktop/liteos/Project2/BearPi_LiteOS/components/security/mbedtls/mbedtls_port\dtls_interface.c **** static void *atiny_calloc(size_t n, size_t size)
  76:C:/Users/lenovo/Desktop/liteos/Project2/BearPi_LiteOS/components/security/mbedtls/mbedtls_port\dtls_interface.c **** {
  27              		.loc 1 76 0
  28              		.cfi_startproc
  29              		@ args = 0, pretend = 0, frame = 0
  30              		@ frame_needed = 0, uses_anonymous_args = 0
  31              	.LVL0:
  32 0000 38B5     		push	{r3, r4, r5, lr}
  33              	.LCFI0:
  34              		.cfi_def_cfa_offset 16
  35              		.cfi_offset 3, -16
  36              		.cfi_offset 4, -12
  37              		.cfi_offset 5, -8
  38              		.cfi_offset 14, -4
  77:C:/Users/lenovo/Desktop/liteos/Project2/BearPi_LiteOS/components/security/mbedtls/mbedtls_port\dtls_interface.c ****     void *p = atiny_malloc(n * size);
ARM GAS  c:\Users\lenovo\AppData\Local\Temp\cc9y9OZN.s 			page 3


  39              		.loc 1 77 0
  40 0002 01FB00F5 		mul	r5, r1, r0
  41 0006 2846     		mov	r0, r5
  42              	.LVL1:
  43 0008 FFF7FEFF 		bl	atiny_malloc
  44              	.LVL2:
  78:C:/Users/lenovo/Desktop/liteos/Project2/BearPi_LiteOS/components/security/mbedtls/mbedtls_port\dtls_interface.c ****     if(p)
  45              		.loc 1 78 0
  46 000c 0446     		mov	r4, r0
  47 000e 18B1     		cbz	r0, .L1
  79:C:/Users/lenovo/Desktop/liteos/Project2/BearPi_LiteOS/components/security/mbedtls/mbedtls_port\dtls_interface.c ****     {
  80:C:/Users/lenovo/Desktop/liteos/Project2/BearPi_LiteOS/components/security/mbedtls/mbedtls_port\dtls_interface.c ****         memset(p, 0, n * size);
  48              		.loc 1 80 0
  49 0010 2A46     		mov	r2, r5
  50 0012 0021     		movs	r1, #0
  51 0014 FFF7FEFF 		bl	memset
  52              	.LVL3:
  53              	.L1:
  81:C:/Users/lenovo/Desktop/liteos/Project2/BearPi_LiteOS/components/security/mbedtls/mbedtls_port\dtls_interface.c ****     }
  82:C:/Users/lenovo/Desktop/liteos/Project2/BearPi_LiteOS/components/security/mbedtls/mbedtls_port\dtls_interface.c **** 
  83:C:/Users/lenovo/Desktop/liteos/Project2/BearPi_LiteOS/components/security/mbedtls/mbedtls_port\dtls_interface.c ****     return p;
  84:C:/Users/lenovo/Desktop/liteos/Project2/BearPi_LiteOS/components/security/mbedtls/mbedtls_port\dtls_interface.c **** }
  54              		.loc 1 84 0
  55 0018 2046     		mov	r0, r4
  56 001a 38BD     		pop	{r3, r4, r5, pc}
  57              		.cfi_endproc
  58              	.LFE144:
  60              		.global	__aeabi_uldivmod
  61              		.section	.text.dtls_shakehand,"ax",%progbits
  62              		.align	1
  63              		.global	dtls_shakehand
  64              		.syntax unified
  65              		.thumb
  66              		.thumb_func
  67              		.fpu fpv4-sp-d16
  69              	dtls_shakehand:
  70              	.LFB147:
  85:C:/Users/lenovo/Desktop/liteos/Project2/BearPi_LiteOS/components/security/mbedtls/mbedtls_port\dtls_interface.c **** 
  86:C:/Users/lenovo/Desktop/liteos/Project2/BearPi_LiteOS/components/security/mbedtls/mbedtls_port\dtls_interface.c **** mbedtls_ssl_context *dtls_ssl_new(dtls_establish_info_s *info, char plat_type)
  87:C:/Users/lenovo/Desktop/liteos/Project2/BearPi_LiteOS/components/security/mbedtls/mbedtls_port\dtls_interface.c **** {
  88:C:/Users/lenovo/Desktop/liteos/Project2/BearPi_LiteOS/components/security/mbedtls/mbedtls_port\dtls_interface.c ****     int ret;
  89:C:/Users/lenovo/Desktop/liteos/Project2/BearPi_LiteOS/components/security/mbedtls/mbedtls_port\dtls_interface.c ****     mbedtls_ssl_context *ssl = NULL;
  90:C:/Users/lenovo/Desktop/liteos/Project2/BearPi_LiteOS/components/security/mbedtls/mbedtls_port\dtls_interface.c ****     mbedtls_ssl_config *conf = NULL;
  91:C:/Users/lenovo/Desktop/liteos/Project2/BearPi_LiteOS/components/security/mbedtls/mbedtls_port\dtls_interface.c ****     mbedtls_entropy_context *entropy = NULL;
  92:C:/Users/lenovo/Desktop/liteos/Project2/BearPi_LiteOS/components/security/mbedtls/mbedtls_port\dtls_interface.c ****     mbedtls_ctr_drbg_context *ctr_drbg = NULL;
  93:C:/Users/lenovo/Desktop/liteos/Project2/BearPi_LiteOS/components/security/mbedtls/mbedtls_port\dtls_interface.c ****     mbedtls_timing_delay_context *timer = NULL;
  94:C:/Users/lenovo/Desktop/liteos/Project2/BearPi_LiteOS/components/security/mbedtls/mbedtls_port\dtls_interface.c **** #if defined(MBEDTLS_X509_CRT_PARSE_C)
  95:C:/Users/lenovo/Desktop/liteos/Project2/BearPi_LiteOS/components/security/mbedtls/mbedtls_port\dtls_interface.c ****     mbedtls_x509_crt *cacert;
  96:C:/Users/lenovo/Desktop/liteos/Project2/BearPi_LiteOS/components/security/mbedtls/mbedtls_port\dtls_interface.c **** #endif
  97:C:/Users/lenovo/Desktop/liteos/Project2/BearPi_LiteOS/components/security/mbedtls/mbedtls_port\dtls_interface.c **** 
  98:C:/Users/lenovo/Desktop/liteos/Project2/BearPi_LiteOS/components/security/mbedtls/mbedtls_port\dtls_interface.c ****     const char *pers = "ssl_client";
  99:C:/Users/lenovo/Desktop/liteos/Project2/BearPi_LiteOS/components/security/mbedtls/mbedtls_port\dtls_interface.c **** 
 100:C:/Users/lenovo/Desktop/liteos/Project2/BearPi_LiteOS/components/security/mbedtls/mbedtls_port\dtls_interface.c ****     dtls_init();
 101:C:/Users/lenovo/Desktop/liteos/Project2/BearPi_LiteOS/components/security/mbedtls/mbedtls_port\dtls_interface.c **** 
 102:C:/Users/lenovo/Desktop/liteos/Project2/BearPi_LiteOS/components/security/mbedtls/mbedtls_port\dtls_interface.c ****     ssl       = mbedtls_calloc(1, sizeof(mbedtls_ssl_context));
 103:C:/Users/lenovo/Desktop/liteos/Project2/BearPi_LiteOS/components/security/mbedtls/mbedtls_port\dtls_interface.c ****     conf      = mbedtls_calloc(1, sizeof(mbedtls_ssl_config));
 104:C:/Users/lenovo/Desktop/liteos/Project2/BearPi_LiteOS/components/security/mbedtls/mbedtls_port\dtls_interface.c ****     entropy   = mbedtls_calloc(1, sizeof(mbedtls_entropy_context));
ARM GAS  c:\Users\lenovo\AppData\Local\Temp\cc9y9OZN.s 			page 4


 105:C:/Users/lenovo/Desktop/liteos/Project2/BearPi_LiteOS/components/security/mbedtls/mbedtls_port\dtls_interface.c ****     ctr_drbg  = mbedtls_calloc(1, sizeof(mbedtls_ctr_drbg_context));
 106:C:/Users/lenovo/Desktop/liteos/Project2/BearPi_LiteOS/components/security/mbedtls/mbedtls_port\dtls_interface.c **** #if defined(MBEDTLS_X509_CRT_PARSE_C)
 107:C:/Users/lenovo/Desktop/liteos/Project2/BearPi_LiteOS/components/security/mbedtls/mbedtls_port\dtls_interface.c ****     cacert    = mbedtls_calloc(1, sizeof(mbedtls_x509_crt));
 108:C:/Users/lenovo/Desktop/liteos/Project2/BearPi_LiteOS/components/security/mbedtls/mbedtls_port\dtls_interface.c **** #endif
 109:C:/Users/lenovo/Desktop/liteos/Project2/BearPi_LiteOS/components/security/mbedtls/mbedtls_port\dtls_interface.c **** 
 110:C:/Users/lenovo/Desktop/liteos/Project2/BearPi_LiteOS/components/security/mbedtls/mbedtls_port\dtls_interface.c ****     if (NULL == info || NULL == ssl
 111:C:/Users/lenovo/Desktop/liteos/Project2/BearPi_LiteOS/components/security/mbedtls/mbedtls_port\dtls_interface.c ****         || NULL == conf || NULL == entropy
 112:C:/Users/lenovo/Desktop/liteos/Project2/BearPi_LiteOS/components/security/mbedtls/mbedtls_port\dtls_interface.c ****         || NULL == ctr_drbg
 113:C:/Users/lenovo/Desktop/liteos/Project2/BearPi_LiteOS/components/security/mbedtls/mbedtls_port\dtls_interface.c **** #if defined(MBEDTLS_X509_CRT_PARSE_C)
 114:C:/Users/lenovo/Desktop/liteos/Project2/BearPi_LiteOS/components/security/mbedtls/mbedtls_port\dtls_interface.c ****         || NULL == cacert
 115:C:/Users/lenovo/Desktop/liteos/Project2/BearPi_LiteOS/components/security/mbedtls/mbedtls_port\dtls_interface.c **** #endif
 116:C:/Users/lenovo/Desktop/liteos/Project2/BearPi_LiteOS/components/security/mbedtls/mbedtls_port\dtls_interface.c ****         )
 117:C:/Users/lenovo/Desktop/liteos/Project2/BearPi_LiteOS/components/security/mbedtls/mbedtls_port\dtls_interface.c ****     {
 118:C:/Users/lenovo/Desktop/liteos/Project2/BearPi_LiteOS/components/security/mbedtls/mbedtls_port\dtls_interface.c ****         goto exit_fail;
 119:C:/Users/lenovo/Desktop/liteos/Project2/BearPi_LiteOS/components/security/mbedtls/mbedtls_port\dtls_interface.c ****     }
 120:C:/Users/lenovo/Desktop/liteos/Project2/BearPi_LiteOS/components/security/mbedtls/mbedtls_port\dtls_interface.c **** 
 121:C:/Users/lenovo/Desktop/liteos/Project2/BearPi_LiteOS/components/security/mbedtls/mbedtls_port\dtls_interface.c ****     if (info->udp_or_tcp == MBEDTLS_NET_PROTO_UDP)
 122:C:/Users/lenovo/Desktop/liteos/Project2/BearPi_LiteOS/components/security/mbedtls/mbedtls_port\dtls_interface.c ****     {
 123:C:/Users/lenovo/Desktop/liteos/Project2/BearPi_LiteOS/components/security/mbedtls/mbedtls_port\dtls_interface.c ****         timer = mbedtls_calloc(1, sizeof(mbedtls_timing_delay_context));
 124:C:/Users/lenovo/Desktop/liteos/Project2/BearPi_LiteOS/components/security/mbedtls/mbedtls_port\dtls_interface.c ****         if (NULL == timer) goto exit_fail;
 125:C:/Users/lenovo/Desktop/liteos/Project2/BearPi_LiteOS/components/security/mbedtls/mbedtls_port\dtls_interface.c ****     }
 126:C:/Users/lenovo/Desktop/liteos/Project2/BearPi_LiteOS/components/security/mbedtls/mbedtls_port\dtls_interface.c **** 
 127:C:/Users/lenovo/Desktop/liteos/Project2/BearPi_LiteOS/components/security/mbedtls/mbedtls_port\dtls_interface.c ****     mbedtls_ssl_init(ssl);
 128:C:/Users/lenovo/Desktop/liteos/Project2/BearPi_LiteOS/components/security/mbedtls/mbedtls_port\dtls_interface.c ****     mbedtls_ssl_config_init(conf);
 129:C:/Users/lenovo/Desktop/liteos/Project2/BearPi_LiteOS/components/security/mbedtls/mbedtls_port\dtls_interface.c ****     mbedtls_ctr_drbg_init(ctr_drbg);
 130:C:/Users/lenovo/Desktop/liteos/Project2/BearPi_LiteOS/components/security/mbedtls/mbedtls_port\dtls_interface.c ****     mbedtls_entropy_init(entropy);
 131:C:/Users/lenovo/Desktop/liteos/Project2/BearPi_LiteOS/components/security/mbedtls/mbedtls_port\dtls_interface.c **** 
 132:C:/Users/lenovo/Desktop/liteos/Project2/BearPi_LiteOS/components/security/mbedtls/mbedtls_port\dtls_interface.c **** #if defined(MBEDTLS_X509_CRT_PARSE_C)
 133:C:/Users/lenovo/Desktop/liteos/Project2/BearPi_LiteOS/components/security/mbedtls/mbedtls_port\dtls_interface.c ****     if (info->psk_or_cert == VERIFY_WITH_CERT)
 134:C:/Users/lenovo/Desktop/liteos/Project2/BearPi_LiteOS/components/security/mbedtls/mbedtls_port\dtls_interface.c ****     {
 135:C:/Users/lenovo/Desktop/liteos/Project2/BearPi_LiteOS/components/security/mbedtls/mbedtls_port\dtls_interface.c ****         mbedtls_x509_crt_init(cacert);
 136:C:/Users/lenovo/Desktop/liteos/Project2/BearPi_LiteOS/components/security/mbedtls/mbedtls_port\dtls_interface.c ****     }
 137:C:/Users/lenovo/Desktop/liteos/Project2/BearPi_LiteOS/components/security/mbedtls/mbedtls_port\dtls_interface.c **** #endif
 138:C:/Users/lenovo/Desktop/liteos/Project2/BearPi_LiteOS/components/security/mbedtls/mbedtls_port\dtls_interface.c **** 
 139:C:/Users/lenovo/Desktop/liteos/Project2/BearPi_LiteOS/components/security/mbedtls/mbedtls_port\dtls_interface.c ****     if ((ret = mbedtls_ctr_drbg_seed(ctr_drbg, mbedtls_entropy_func, entropy,
 140:C:/Users/lenovo/Desktop/liteos/Project2/BearPi_LiteOS/components/security/mbedtls/mbedtls_port\dtls_interface.c ****                                      (const unsigned char *) pers,
 141:C:/Users/lenovo/Desktop/liteos/Project2/BearPi_LiteOS/components/security/mbedtls/mbedtls_port\dtls_interface.c ****                                      strlen(pers))) != 0)
 142:C:/Users/lenovo/Desktop/liteos/Project2/BearPi_LiteOS/components/security/mbedtls/mbedtls_port\dtls_interface.c ****     {
 143:C:/Users/lenovo/Desktop/liteos/Project2/BearPi_LiteOS/components/security/mbedtls/mbedtls_port\dtls_interface.c ****         MBEDTLS_LOG("mbedtls_ctr_drbg_seed failed: -0x%x", -ret);
 144:C:/Users/lenovo/Desktop/liteos/Project2/BearPi_LiteOS/components/security/mbedtls/mbedtls_port\dtls_interface.c ****         goto exit_fail;
 145:C:/Users/lenovo/Desktop/liteos/Project2/BearPi_LiteOS/components/security/mbedtls/mbedtls_port\dtls_interface.c ****     }
 146:C:/Users/lenovo/Desktop/liteos/Project2/BearPi_LiteOS/components/security/mbedtls/mbedtls_port\dtls_interface.c **** 
 147:C:/Users/lenovo/Desktop/liteos/Project2/BearPi_LiteOS/components/security/mbedtls/mbedtls_port\dtls_interface.c ****     MBEDTLS_LOG("setting up the SSL structure");
 148:C:/Users/lenovo/Desktop/liteos/Project2/BearPi_LiteOS/components/security/mbedtls/mbedtls_port\dtls_interface.c **** 
 149:C:/Users/lenovo/Desktop/liteos/Project2/BearPi_LiteOS/components/security/mbedtls/mbedtls_port\dtls_interface.c ****     if (info->udp_or_tcp == MBEDTLS_NET_PROTO_UDP)
 150:C:/Users/lenovo/Desktop/liteos/Project2/BearPi_LiteOS/components/security/mbedtls/mbedtls_port\dtls_interface.c ****     {
 151:C:/Users/lenovo/Desktop/liteos/Project2/BearPi_LiteOS/components/security/mbedtls/mbedtls_port\dtls_interface.c ****         ret = mbedtls_ssl_config_defaults(conf,
 152:C:/Users/lenovo/Desktop/liteos/Project2/BearPi_LiteOS/components/security/mbedtls/mbedtls_port\dtls_interface.c ****                                           plat_type,
 153:C:/Users/lenovo/Desktop/liteos/Project2/BearPi_LiteOS/components/security/mbedtls/mbedtls_port\dtls_interface.c ****                                           MBEDTLS_SSL_TRANSPORT_DATAGRAM,
 154:C:/Users/lenovo/Desktop/liteos/Project2/BearPi_LiteOS/components/security/mbedtls/mbedtls_port\dtls_interface.c ****                                           MBEDTLS_SSL_PRESET_DEFAULT);
 155:C:/Users/lenovo/Desktop/liteos/Project2/BearPi_LiteOS/components/security/mbedtls/mbedtls_port\dtls_interface.c ****     }
 156:C:/Users/lenovo/Desktop/liteos/Project2/BearPi_LiteOS/components/security/mbedtls/mbedtls_port\dtls_interface.c ****     else
 157:C:/Users/lenovo/Desktop/liteos/Project2/BearPi_LiteOS/components/security/mbedtls/mbedtls_port\dtls_interface.c ****     {
 158:C:/Users/lenovo/Desktop/liteos/Project2/BearPi_LiteOS/components/security/mbedtls/mbedtls_port\dtls_interface.c ****         ret = mbedtls_ssl_config_defaults(conf,
 159:C:/Users/lenovo/Desktop/liteos/Project2/BearPi_LiteOS/components/security/mbedtls/mbedtls_port\dtls_interface.c ****                                           plat_type,
 160:C:/Users/lenovo/Desktop/liteos/Project2/BearPi_LiteOS/components/security/mbedtls/mbedtls_port\dtls_interface.c ****                                           MBEDTLS_SSL_TRANSPORT_STREAM,
 161:C:/Users/lenovo/Desktop/liteos/Project2/BearPi_LiteOS/components/security/mbedtls/mbedtls_port\dtls_interface.c ****                                           MBEDTLS_SSL_PRESET_DEFAULT);
ARM GAS  c:\Users\lenovo\AppData\Local\Temp\cc9y9OZN.s 			page 5


 162:C:/Users/lenovo/Desktop/liteos/Project2/BearPi_LiteOS/components/security/mbedtls/mbedtls_port\dtls_interface.c ****     }
 163:C:/Users/lenovo/Desktop/liteos/Project2/BearPi_LiteOS/components/security/mbedtls/mbedtls_port\dtls_interface.c **** 
 164:C:/Users/lenovo/Desktop/liteos/Project2/BearPi_LiteOS/components/security/mbedtls/mbedtls_port\dtls_interface.c ****     if (ret != 0)
 165:C:/Users/lenovo/Desktop/liteos/Project2/BearPi_LiteOS/components/security/mbedtls/mbedtls_port\dtls_interface.c ****     {
 166:C:/Users/lenovo/Desktop/liteos/Project2/BearPi_LiteOS/components/security/mbedtls/mbedtls_port\dtls_interface.c ****         MBEDTLS_LOG("mbedtls_ssl_config_defaults failed: -0x%x", -ret);
 167:C:/Users/lenovo/Desktop/liteos/Project2/BearPi_LiteOS/components/security/mbedtls/mbedtls_port\dtls_interface.c ****         goto exit_fail;
 168:C:/Users/lenovo/Desktop/liteos/Project2/BearPi_LiteOS/components/security/mbedtls/mbedtls_port\dtls_interface.c ****     }
 169:C:/Users/lenovo/Desktop/liteos/Project2/BearPi_LiteOS/components/security/mbedtls/mbedtls_port\dtls_interface.c **** 
 170:C:/Users/lenovo/Desktop/liteos/Project2/BearPi_LiteOS/components/security/mbedtls/mbedtls_port\dtls_interface.c ****     mbedtls_ssl_conf_authmode(conf, MBEDTLS_SSL_VERIFY_OPTIONAL);
 171:C:/Users/lenovo/Desktop/liteos/Project2/BearPi_LiteOS/components/security/mbedtls/mbedtls_port\dtls_interface.c ****     mbedtls_ssl_conf_rng(conf, mbedtls_ctr_drbg_random, ctr_drbg);
 172:C:/Users/lenovo/Desktop/liteos/Project2/BearPi_LiteOS/components/security/mbedtls/mbedtls_port\dtls_interface.c **** 
 173:C:/Users/lenovo/Desktop/liteos/Project2/BearPi_LiteOS/components/security/mbedtls/mbedtls_port\dtls_interface.c ****     if (info->udp_or_tcp == MBEDTLS_NET_PROTO_TCP)
 174:C:/Users/lenovo/Desktop/liteos/Project2/BearPi_LiteOS/components/security/mbedtls/mbedtls_port\dtls_interface.c ****     {
 175:C:/Users/lenovo/Desktop/liteos/Project2/BearPi_LiteOS/components/security/mbedtls/mbedtls_port\dtls_interface.c ****         mbedtls_ssl_conf_read_timeout(conf, TLS_SHAKEHAND_TIMEOUT);
 176:C:/Users/lenovo/Desktop/liteos/Project2/BearPi_LiteOS/components/security/mbedtls/mbedtls_port\dtls_interface.c ****     }
 177:C:/Users/lenovo/Desktop/liteos/Project2/BearPi_LiteOS/components/security/mbedtls/mbedtls_port\dtls_interface.c **** 
 178:C:/Users/lenovo/Desktop/liteos/Project2/BearPi_LiteOS/components/security/mbedtls/mbedtls_port\dtls_interface.c **** #if defined(MBEDTLS_KEY_EXCHANGE__SOME__PSK_ENABLED)
 179:C:/Users/lenovo/Desktop/liteos/Project2/BearPi_LiteOS/components/security/mbedtls/mbedtls_port\dtls_interface.c ****     if (info->psk_or_cert == VERIFY_WITH_PSK)
 180:C:/Users/lenovo/Desktop/liteos/Project2/BearPi_LiteOS/components/security/mbedtls/mbedtls_port\dtls_interface.c ****     {
 181:C:/Users/lenovo/Desktop/liteos/Project2/BearPi_LiteOS/components/security/mbedtls/mbedtls_port\dtls_interface.c ****         if ((ret = mbedtls_ssl_conf_psk(conf,
 182:C:/Users/lenovo/Desktop/liteos/Project2/BearPi_LiteOS/components/security/mbedtls/mbedtls_port\dtls_interface.c ****                                         info->v.p.psk,
 183:C:/Users/lenovo/Desktop/liteos/Project2/BearPi_LiteOS/components/security/mbedtls/mbedtls_port\dtls_interface.c ****                                         info->v.p.psk_len,
 184:C:/Users/lenovo/Desktop/liteos/Project2/BearPi_LiteOS/components/security/mbedtls/mbedtls_port\dtls_interface.c ****                                         info->v.p.psk_identity,
 185:C:/Users/lenovo/Desktop/liteos/Project2/BearPi_LiteOS/components/security/mbedtls/mbedtls_port\dtls_interface.c ****                                         strlen((const char *)info->v.p.psk_identity))) != 0)
 186:C:/Users/lenovo/Desktop/liteos/Project2/BearPi_LiteOS/components/security/mbedtls/mbedtls_port\dtls_interface.c ****         {
 187:C:/Users/lenovo/Desktop/liteos/Project2/BearPi_LiteOS/components/security/mbedtls/mbedtls_port\dtls_interface.c ****             MBEDTLS_LOG("mbedtls_ssl_conf_psk failed: -0x%x", -ret);
 188:C:/Users/lenovo/Desktop/liteos/Project2/BearPi_LiteOS/components/security/mbedtls/mbedtls_port\dtls_interface.c ****             goto exit_fail;
 189:C:/Users/lenovo/Desktop/liteos/Project2/BearPi_LiteOS/components/security/mbedtls/mbedtls_port\dtls_interface.c ****         }
 190:C:/Users/lenovo/Desktop/liteos/Project2/BearPi_LiteOS/components/security/mbedtls/mbedtls_port\dtls_interface.c ****     }
 191:C:/Users/lenovo/Desktop/liteos/Project2/BearPi_LiteOS/components/security/mbedtls/mbedtls_port\dtls_interface.c **** #endif
 192:C:/Users/lenovo/Desktop/liteos/Project2/BearPi_LiteOS/components/security/mbedtls/mbedtls_port\dtls_interface.c **** 
 193:C:/Users/lenovo/Desktop/liteos/Project2/BearPi_LiteOS/components/security/mbedtls/mbedtls_port\dtls_interface.c **** #if defined(MBEDTLS_X509_CRT_PARSE_C)
 194:C:/Users/lenovo/Desktop/liteos/Project2/BearPi_LiteOS/components/security/mbedtls/mbedtls_port\dtls_interface.c ****     if (info->psk_or_cert == VERIFY_WITH_CERT)
 195:C:/Users/lenovo/Desktop/liteos/Project2/BearPi_LiteOS/components/security/mbedtls/mbedtls_port\dtls_interface.c ****     {
 196:C:/Users/lenovo/Desktop/liteos/Project2/BearPi_LiteOS/components/security/mbedtls/mbedtls_port\dtls_interface.c ****         ret = mbedtls_x509_crt_parse(cacert, info->v.c.ca_cert, info->v.c.cert_len);
 197:C:/Users/lenovo/Desktop/liteos/Project2/BearPi_LiteOS/components/security/mbedtls/mbedtls_port\dtls_interface.c ****         if(ret < 0)
 198:C:/Users/lenovo/Desktop/liteos/Project2/BearPi_LiteOS/components/security/mbedtls/mbedtls_port\dtls_interface.c ****         {
 199:C:/Users/lenovo/Desktop/liteos/Project2/BearPi_LiteOS/components/security/mbedtls/mbedtls_port\dtls_interface.c ****             MBEDTLS_LOG("mbedtls_x509_crt_parse failed -0x%x", -ret);
 200:C:/Users/lenovo/Desktop/liteos/Project2/BearPi_LiteOS/components/security/mbedtls/mbedtls_port\dtls_interface.c ****             goto exit_fail;
 201:C:/Users/lenovo/Desktop/liteos/Project2/BearPi_LiteOS/components/security/mbedtls/mbedtls_port\dtls_interface.c ****         }
 202:C:/Users/lenovo/Desktop/liteos/Project2/BearPi_LiteOS/components/security/mbedtls/mbedtls_port\dtls_interface.c ****         mbedtls_ssl_conf_authmode(conf, MBEDTLS_SSL_VERIFY_REQUIRED);
 203:C:/Users/lenovo/Desktop/liteos/Project2/BearPi_LiteOS/components/security/mbedtls/mbedtls_port\dtls_interface.c ****         mbedtls_ssl_conf_ca_chain(conf, cacert, NULL);
 204:C:/Users/lenovo/Desktop/liteos/Project2/BearPi_LiteOS/components/security/mbedtls/mbedtls_port\dtls_interface.c ****     }
 205:C:/Users/lenovo/Desktop/liteos/Project2/BearPi_LiteOS/components/security/mbedtls/mbedtls_port\dtls_interface.c **** #endif
 206:C:/Users/lenovo/Desktop/liteos/Project2/BearPi_LiteOS/components/security/mbedtls/mbedtls_port\dtls_interface.c **** 
 207:C:/Users/lenovo/Desktop/liteos/Project2/BearPi_LiteOS/components/security/mbedtls/mbedtls_port\dtls_interface.c **** 
 208:C:/Users/lenovo/Desktop/liteos/Project2/BearPi_LiteOS/components/security/mbedtls/mbedtls_port\dtls_interface.c **** #ifndef WITH_MQTT
 209:C:/Users/lenovo/Desktop/liteos/Project2/BearPi_LiteOS/components/security/mbedtls/mbedtls_port\dtls_interface.c ****     if (info->udp_or_tcp == MBEDTLS_NET_PROTO_UDP)
 210:C:/Users/lenovo/Desktop/liteos/Project2/BearPi_LiteOS/components/security/mbedtls/mbedtls_port\dtls_interface.c ****     {
 211:C:/Users/lenovo/Desktop/liteos/Project2/BearPi_LiteOS/components/security/mbedtls/mbedtls_port\dtls_interface.c ****         mbedtls_ssl_conf_dtls_cookies(conf, NULL, NULL,NULL);
 212:C:/Users/lenovo/Desktop/liteos/Project2/BearPi_LiteOS/components/security/mbedtls/mbedtls_port\dtls_interface.c ****     }
 213:C:/Users/lenovo/Desktop/liteos/Project2/BearPi_LiteOS/components/security/mbedtls/mbedtls_port\dtls_interface.c **** #endif
 214:C:/Users/lenovo/Desktop/liteos/Project2/BearPi_LiteOS/components/security/mbedtls/mbedtls_port\dtls_interface.c ****     if ((ret = mbedtls_ssl_setup(ssl, conf)) != 0)
 215:C:/Users/lenovo/Desktop/liteos/Project2/BearPi_LiteOS/components/security/mbedtls/mbedtls_port\dtls_interface.c ****     {
 216:C:/Users/lenovo/Desktop/liteos/Project2/BearPi_LiteOS/components/security/mbedtls/mbedtls_port\dtls_interface.c ****         MBEDTLS_LOG("mbedtls_ssl_setup failed: -0x%x", -ret);
 217:C:/Users/lenovo/Desktop/liteos/Project2/BearPi_LiteOS/components/security/mbedtls/mbedtls_port\dtls_interface.c ****         goto exit_fail;
 218:C:/Users/lenovo/Desktop/liteos/Project2/BearPi_LiteOS/components/security/mbedtls/mbedtls_port\dtls_interface.c ****     }
ARM GAS  c:\Users\lenovo\AppData\Local\Temp\cc9y9OZN.s 			page 6


 219:C:/Users/lenovo/Desktop/liteos/Project2/BearPi_LiteOS/components/security/mbedtls/mbedtls_port\dtls_interface.c **** 
 220:C:/Users/lenovo/Desktop/liteos/Project2/BearPi_LiteOS/components/security/mbedtls/mbedtls_port\dtls_interface.c ****     if (info->udp_or_tcp == MBEDTLS_NET_PROTO_UDP)
 221:C:/Users/lenovo/Desktop/liteos/Project2/BearPi_LiteOS/components/security/mbedtls/mbedtls_port\dtls_interface.c ****     {
 222:C:/Users/lenovo/Desktop/liteos/Project2/BearPi_LiteOS/components/security/mbedtls/mbedtls_port\dtls_interface.c ****         mbedtls_ssl_set_timer_cb(ssl, timer, mbedtls_timing_set_delay,
 223:C:/Users/lenovo/Desktop/liteos/Project2/BearPi_LiteOS/components/security/mbedtls/mbedtls_port\dtls_interface.c ****                                  mbedtls_timing_get_delay);
 224:C:/Users/lenovo/Desktop/liteos/Project2/BearPi_LiteOS/components/security/mbedtls/mbedtls_port\dtls_interface.c ****     }
 225:C:/Users/lenovo/Desktop/liteos/Project2/BearPi_LiteOS/components/security/mbedtls/mbedtls_port\dtls_interface.c **** 
 226:C:/Users/lenovo/Desktop/liteos/Project2/BearPi_LiteOS/components/security/mbedtls/mbedtls_port\dtls_interface.c ****     MBEDTLS_LOG("set SSL structure succeed");
 227:C:/Users/lenovo/Desktop/liteos/Project2/BearPi_LiteOS/components/security/mbedtls/mbedtls_port\dtls_interface.c **** 
 228:C:/Users/lenovo/Desktop/liteos/Project2/BearPi_LiteOS/components/security/mbedtls/mbedtls_port\dtls_interface.c ****     return ssl;
 229:C:/Users/lenovo/Desktop/liteos/Project2/BearPi_LiteOS/components/security/mbedtls/mbedtls_port\dtls_interface.c **** 
 230:C:/Users/lenovo/Desktop/liteos/Project2/BearPi_LiteOS/components/security/mbedtls/mbedtls_port\dtls_interface.c **** exit_fail:
 231:C:/Users/lenovo/Desktop/liteos/Project2/BearPi_LiteOS/components/security/mbedtls/mbedtls_port\dtls_interface.c **** 
 232:C:/Users/lenovo/Desktop/liteos/Project2/BearPi_LiteOS/components/security/mbedtls/mbedtls_port\dtls_interface.c ****     if (conf)
 233:C:/Users/lenovo/Desktop/liteos/Project2/BearPi_LiteOS/components/security/mbedtls/mbedtls_port\dtls_interface.c ****     {
 234:C:/Users/lenovo/Desktop/liteos/Project2/BearPi_LiteOS/components/security/mbedtls/mbedtls_port\dtls_interface.c ****         mbedtls_ssl_config_free(conf);
 235:C:/Users/lenovo/Desktop/liteos/Project2/BearPi_LiteOS/components/security/mbedtls/mbedtls_port\dtls_interface.c ****         mbedtls_free(conf);
 236:C:/Users/lenovo/Desktop/liteos/Project2/BearPi_LiteOS/components/security/mbedtls/mbedtls_port\dtls_interface.c ****     }
 237:C:/Users/lenovo/Desktop/liteos/Project2/BearPi_LiteOS/components/security/mbedtls/mbedtls_port\dtls_interface.c **** 
 238:C:/Users/lenovo/Desktop/liteos/Project2/BearPi_LiteOS/components/security/mbedtls/mbedtls_port\dtls_interface.c ****     if (ctr_drbg)
 239:C:/Users/lenovo/Desktop/liteos/Project2/BearPi_LiteOS/components/security/mbedtls/mbedtls_port\dtls_interface.c ****     {
 240:C:/Users/lenovo/Desktop/liteos/Project2/BearPi_LiteOS/components/security/mbedtls/mbedtls_port\dtls_interface.c ****         mbedtls_ctr_drbg_free(ctr_drbg);
 241:C:/Users/lenovo/Desktop/liteos/Project2/BearPi_LiteOS/components/security/mbedtls/mbedtls_port\dtls_interface.c ****         mbedtls_free(ctr_drbg);
 242:C:/Users/lenovo/Desktop/liteos/Project2/BearPi_LiteOS/components/security/mbedtls/mbedtls_port\dtls_interface.c ****     }
 243:C:/Users/lenovo/Desktop/liteos/Project2/BearPi_LiteOS/components/security/mbedtls/mbedtls_port\dtls_interface.c **** 
 244:C:/Users/lenovo/Desktop/liteos/Project2/BearPi_LiteOS/components/security/mbedtls/mbedtls_port\dtls_interface.c ****     if (entropy)
 245:C:/Users/lenovo/Desktop/liteos/Project2/BearPi_LiteOS/components/security/mbedtls/mbedtls_port\dtls_interface.c ****     {
 246:C:/Users/lenovo/Desktop/liteos/Project2/BearPi_LiteOS/components/security/mbedtls/mbedtls_port\dtls_interface.c ****         mbedtls_entropy_free(entropy);
 247:C:/Users/lenovo/Desktop/liteos/Project2/BearPi_LiteOS/components/security/mbedtls/mbedtls_port\dtls_interface.c ****         mbedtls_free(entropy);
 248:C:/Users/lenovo/Desktop/liteos/Project2/BearPi_LiteOS/components/security/mbedtls/mbedtls_port\dtls_interface.c ****     }
 249:C:/Users/lenovo/Desktop/liteos/Project2/BearPi_LiteOS/components/security/mbedtls/mbedtls_port\dtls_interface.c **** 
 250:C:/Users/lenovo/Desktop/liteos/Project2/BearPi_LiteOS/components/security/mbedtls/mbedtls_port\dtls_interface.c ****     if (timer)
 251:C:/Users/lenovo/Desktop/liteos/Project2/BearPi_LiteOS/components/security/mbedtls/mbedtls_port\dtls_interface.c ****     {
 252:C:/Users/lenovo/Desktop/liteos/Project2/BearPi_LiteOS/components/security/mbedtls/mbedtls_port\dtls_interface.c ****         mbedtls_free(timer);
 253:C:/Users/lenovo/Desktop/liteos/Project2/BearPi_LiteOS/components/security/mbedtls/mbedtls_port\dtls_interface.c ****     }
 254:C:/Users/lenovo/Desktop/liteos/Project2/BearPi_LiteOS/components/security/mbedtls/mbedtls_port\dtls_interface.c **** 
 255:C:/Users/lenovo/Desktop/liteos/Project2/BearPi_LiteOS/components/security/mbedtls/mbedtls_port\dtls_interface.c **** #if defined(MBEDTLS_X509_CRT_PARSE_C)
 256:C:/Users/lenovo/Desktop/liteos/Project2/BearPi_LiteOS/components/security/mbedtls/mbedtls_port\dtls_interface.c ****     if (cacert)
 257:C:/Users/lenovo/Desktop/liteos/Project2/BearPi_LiteOS/components/security/mbedtls/mbedtls_port\dtls_interface.c ****     {
 258:C:/Users/lenovo/Desktop/liteos/Project2/BearPi_LiteOS/components/security/mbedtls/mbedtls_port\dtls_interface.c ****         mbedtls_x509_crt_free(cacert);
 259:C:/Users/lenovo/Desktop/liteos/Project2/BearPi_LiteOS/components/security/mbedtls/mbedtls_port\dtls_interface.c ****         mbedtls_free(cacert);
 260:C:/Users/lenovo/Desktop/liteos/Project2/BearPi_LiteOS/components/security/mbedtls/mbedtls_port\dtls_interface.c ****     }
 261:C:/Users/lenovo/Desktop/liteos/Project2/BearPi_LiteOS/components/security/mbedtls/mbedtls_port\dtls_interface.c **** #endif
 262:C:/Users/lenovo/Desktop/liteos/Project2/BearPi_LiteOS/components/security/mbedtls/mbedtls_port\dtls_interface.c **** 
 263:C:/Users/lenovo/Desktop/liteos/Project2/BearPi_LiteOS/components/security/mbedtls/mbedtls_port\dtls_interface.c ****     if (ssl)
 264:C:/Users/lenovo/Desktop/liteos/Project2/BearPi_LiteOS/components/security/mbedtls/mbedtls_port\dtls_interface.c ****     {
 265:C:/Users/lenovo/Desktop/liteos/Project2/BearPi_LiteOS/components/security/mbedtls/mbedtls_port\dtls_interface.c ****         mbedtls_ssl_free(ssl);
 266:C:/Users/lenovo/Desktop/liteos/Project2/BearPi_LiteOS/components/security/mbedtls/mbedtls_port\dtls_interface.c ****         mbedtls_free(ssl);
 267:C:/Users/lenovo/Desktop/liteos/Project2/BearPi_LiteOS/components/security/mbedtls/mbedtls_port\dtls_interface.c ****     }
 268:C:/Users/lenovo/Desktop/liteos/Project2/BearPi_LiteOS/components/security/mbedtls/mbedtls_port\dtls_interface.c ****     return NULL;
 269:C:/Users/lenovo/Desktop/liteos/Project2/BearPi_LiteOS/components/security/mbedtls/mbedtls_port\dtls_interface.c **** }
 270:C:/Users/lenovo/Desktop/liteos/Project2/BearPi_LiteOS/components/security/mbedtls/mbedtls_port\dtls_interface.c **** 
 271:C:/Users/lenovo/Desktop/liteos/Project2/BearPi_LiteOS/components/security/mbedtls/mbedtls_port\dtls_interface.c **** static inline uint32_t dtls_gettime()
 272:C:/Users/lenovo/Desktop/liteos/Project2/BearPi_LiteOS/components/security/mbedtls/mbedtls_port\dtls_interface.c **** {
 273:C:/Users/lenovo/Desktop/liteos/Project2/BearPi_LiteOS/components/security/mbedtls/mbedtls_port\dtls_interface.c ****     return (uint32_t)(atiny_gettime_ms() / 1000);
 274:C:/Users/lenovo/Desktop/liteos/Project2/BearPi_LiteOS/components/security/mbedtls/mbedtls_port\dtls_interface.c **** }
 275:C:/Users/lenovo/Desktop/liteos/Project2/BearPi_LiteOS/components/security/mbedtls/mbedtls_port\dtls_interface.c **** 
ARM GAS  c:\Users\lenovo\AppData\Local\Temp\cc9y9OZN.s 			page 7


 276:C:/Users/lenovo/Desktop/liteos/Project2/BearPi_LiteOS/components/security/mbedtls/mbedtls_port\dtls_interface.c **** int dtls_shakehand(mbedtls_ssl_context *ssl, const dtls_shakehand_info_s *info)
 277:C:/Users/lenovo/Desktop/liteos/Project2/BearPi_LiteOS/components/security/mbedtls/mbedtls_port\dtls_interface.c **** {
  71              		.loc 1 277 0
  72              		.cfi_startproc
  73              		@ args = 0, pretend = 0, frame = 0
  74              		@ frame_needed = 0, uses_anonymous_args = 0
  75              	.LVL4:
  76 0000 2DE9F043 		push	{r4, r5, r6, r7, r8, r9, lr}
  77              	.LCFI1:
  78              		.cfi_def_cfa_offset 28
  79              		.cfi_offset 4, -28
  80              		.cfi_offset 5, -24
  81              		.cfi_offset 6, -20
  82              		.cfi_offset 7, -16
  83              		.cfi_offset 8, -12
  84              		.cfi_offset 9, -8
  85              		.cfi_offset 14, -4
  86 0004 83B0     		sub	sp, sp, #12
  87              	.LCFI2:
  88              		.cfi_def_cfa_offset 40
  89 0006 0746     		mov	r7, r0
  90 0008 0C46     		mov	r4, r1
  91              	.LVL5:
 278:C:/Users/lenovo/Desktop/liteos/Project2/BearPi_LiteOS/components/security/mbedtls/mbedtls_port\dtls_interface.c ****     int ret = MBEDTLS_ERR_NET_CONNECT_FAILED;
 279:C:/Users/lenovo/Desktop/liteos/Project2/BearPi_LiteOS/components/security/mbedtls/mbedtls_port\dtls_interface.c ****     uint32_t change_value = 0;
 280:C:/Users/lenovo/Desktop/liteos/Project2/BearPi_LiteOS/components/security/mbedtls/mbedtls_port\dtls_interface.c ****     mbedtls_net_context *server_fd = NULL;
 281:C:/Users/lenovo/Desktop/liteos/Project2/BearPi_LiteOS/components/security/mbedtls/mbedtls_port\dtls_interface.c ****     uint32_t max_value;
 282:C:/Users/lenovo/Desktop/liteos/Project2/BearPi_LiteOS/components/security/mbedtls/mbedtls_port\dtls_interface.c **** #if defined(MBEDTLS_X509_CRT_PARSE_C)
 283:C:/Users/lenovo/Desktop/liteos/Project2/BearPi_LiteOS/components/security/mbedtls/mbedtls_port\dtls_interface.c ****     unsigned int flags;
 284:C:/Users/lenovo/Desktop/liteos/Project2/BearPi_LiteOS/components/security/mbedtls/mbedtls_port\dtls_interface.c **** #endif
 285:C:/Users/lenovo/Desktop/liteos/Project2/BearPi_LiteOS/components/security/mbedtls/mbedtls_port\dtls_interface.c **** 
 286:C:/Users/lenovo/Desktop/liteos/Project2/BearPi_LiteOS/components/security/mbedtls/mbedtls_port\dtls_interface.c ****     MBEDTLS_LOG("connecting to server");
  92              		.loc 1 286 0
  93 000a 4FF48F72 		mov	r2, #286
  94 000e 4349     		ldr	r1, .L23
  95              	.LVL6:
  96 0010 4348     		ldr	r0, .L23+4
  97              	.LVL7:
  98 0012 FFF7FEFF 		bl	atiny_printf
  99              	.LVL8:
 287:C:/Users/lenovo/Desktop/liteos/Project2/BearPi_LiteOS/components/security/mbedtls/mbedtls_port\dtls_interface.c **** 
 288:C:/Users/lenovo/Desktop/liteos/Project2/BearPi_LiteOS/components/security/mbedtls/mbedtls_port\dtls_interface.c ****     if (MBEDTLS_SSL_IS_CLIENT == info->client_or_server)
 100              		.loc 1 288 0
 101 0016 E368     		ldr	r3, [r4, #12]
 102 0018 03BB     		cbnz	r3, .L5
 289:C:/Users/lenovo/Desktop/liteos/Project2/BearPi_LiteOS/components/security/mbedtls/mbedtls_port\dtls_interface.c ****     {
 290:C:/Users/lenovo/Desktop/liteos/Project2/BearPi_LiteOS/components/security/mbedtls/mbedtls_port\dtls_interface.c ****         server_fd = mbedtls_net_connect(info->u.c.host, info->u.c.port, info->udp_or_tcp);
 103              		.loc 1 290 0
 104 001a 2269     		ldr	r2, [r4, #16]
 105 001c 6168     		ldr	r1, [r4, #4]
 106 001e 2068     		ldr	r0, [r4]
 107 0020 FFF7FEFF 		bl	mbedtls_net_connect
 108              	.LVL9:
 109 0024 8146     		mov	r9, r0
 110              	.LVL10:
 111              	.L6:
 291:C:/Users/lenovo/Desktop/liteos/Project2/BearPi_LiteOS/components/security/mbedtls/mbedtls_port\dtls_interface.c ****     }
ARM GAS  c:\Users\lenovo\AppData\Local\Temp\cc9y9OZN.s 			page 8


 292:C:/Users/lenovo/Desktop/liteos/Project2/BearPi_LiteOS/components/security/mbedtls/mbedtls_port\dtls_interface.c ****     else
 293:C:/Users/lenovo/Desktop/liteos/Project2/BearPi_LiteOS/components/security/mbedtls/mbedtls_port\dtls_interface.c ****     {
 294:C:/Users/lenovo/Desktop/liteos/Project2/BearPi_LiteOS/components/security/mbedtls/mbedtls_port\dtls_interface.c ****         server_fd = (mbedtls_net_context*)atiny_net_bind(NULL, info->u.s.local_port, MBEDTLS_NET_PR
 295:C:/Users/lenovo/Desktop/liteos/Project2/BearPi_LiteOS/components/security/mbedtls/mbedtls_port\dtls_interface.c ****     }
 296:C:/Users/lenovo/Desktop/liteos/Project2/BearPi_LiteOS/components/security/mbedtls/mbedtls_port\dtls_interface.c **** 
 297:C:/Users/lenovo/Desktop/liteos/Project2/BearPi_LiteOS/components/security/mbedtls/mbedtls_port\dtls_interface.c ****     if (server_fd == NULL)
 112              		.loc 1 297 0
 113 0026 B9F1000F 		cmp	r9, #0
 114 002a 1ED0     		beq	.L22
 298:C:/Users/lenovo/Desktop/liteos/Project2/BearPi_LiteOS/components/security/mbedtls/mbedtls_port\dtls_interface.c ****     {
 299:C:/Users/lenovo/Desktop/liteos/Project2/BearPi_LiteOS/components/security/mbedtls/mbedtls_port\dtls_interface.c ****         MBEDTLS_LOG("connect failed! mode %d", info->client_or_server);
 300:C:/Users/lenovo/Desktop/liteos/Project2/BearPi_LiteOS/components/security/mbedtls/mbedtls_port\dtls_interface.c ****         ret = MBEDTLS_ERR_NET_CONNECT_FAILED;
 301:C:/Users/lenovo/Desktop/liteos/Project2/BearPi_LiteOS/components/security/mbedtls/mbedtls_port\dtls_interface.c ****         goto exit_fail;
 302:C:/Users/lenovo/Desktop/liteos/Project2/BearPi_LiteOS/components/security/mbedtls/mbedtls_port\dtls_interface.c ****     }
 303:C:/Users/lenovo/Desktop/liteos/Project2/BearPi_LiteOS/components/security/mbedtls/mbedtls_port\dtls_interface.c **** 
 304:C:/Users/lenovo/Desktop/liteos/Project2/BearPi_LiteOS/components/security/mbedtls/mbedtls_port\dtls_interface.c ****     mbedtls_ssl_set_bio(ssl, server_fd,
 115              		.loc 1 304 0
 116 002c 3D4B     		ldr	r3, .L23+8
 117 002e 0093     		str	r3, [sp]
 118 0030 3D4B     		ldr	r3, .L23+12
 119 0032 3E4A     		ldr	r2, .L23+16
 120 0034 4946     		mov	r1, r9
 121 0036 3846     		mov	r0, r7
 122              	.LVL11:
 123 0038 FFF7FEFF 		bl	mbedtls_ssl_set_bio
 124              	.LVL12:
 305:C:/Users/lenovo/Desktop/liteos/Project2/BearPi_LiteOS/components/security/mbedtls/mbedtls_port\dtls_interface.c ****                         mbedtls_net_send, mbedtls_net_recv, mbedtls_net_recv_timeout);
 306:C:/Users/lenovo/Desktop/liteos/Project2/BearPi_LiteOS/components/security/mbedtls/mbedtls_port\dtls_interface.c **** 
 307:C:/Users/lenovo/Desktop/liteos/Project2/BearPi_LiteOS/components/security/mbedtls/mbedtls_port\dtls_interface.c ****     MBEDTLS_LOG("performing the SSL/TLS handshake");
 125              		.loc 1 307 0
 126 003c 40F23312 		movw	r2, #307
 127 0040 3649     		ldr	r1, .L23
 128 0042 3B48     		ldr	r0, .L23+20
 129 0044 FFF7FEFF 		bl	atiny_printf
 130              	.LVL13:
 308:C:/Users/lenovo/Desktop/liteos/Project2/BearPi_LiteOS/components/security/mbedtls/mbedtls_port\dtls_interface.c **** 
 309:C:/Users/lenovo/Desktop/liteos/Project2/BearPi_LiteOS/components/security/mbedtls/mbedtls_port\dtls_interface.c ****     max_value = ((MBEDTLS_SSL_IS_SERVER == info->client_or_server || info->udp_or_tcp == MBEDTLS_NE
 131              		.loc 1 309 0
 132 0048 E368     		ldr	r3, [r4, #12]
 310:C:/Users/lenovo/Desktop/liteos/Project2/BearPi_LiteOS/components/security/mbedtls/mbedtls_port\dtls_interface.c ****                 (dtls_gettime() + info->timeout) :  50);
 133              		.loc 1 310 0
 134 004a 012B     		cmp	r3, #1
 135 004c 17D0     		beq	.L9
 309:C:/Users/lenovo/Desktop/liteos/Project2/BearPi_LiteOS/components/security/mbedtls/mbedtls_port\dtls_interface.c ****                 (dtls_gettime() + info->timeout) :  50);
 136              		.loc 1 309 0
 137 004e 2369     		ldr	r3, [r4, #16]
 138 0050 012B     		cmp	r3, #1
 139 0052 14D0     		beq	.L9
 140              		.loc 1 310 0
 141 0054 4FF03208 		mov	r8, #50
 142              	.L10:
 143              	.LVL14:
 279:C:/Users/lenovo/Desktop/liteos/Project2/BearPi_LiteOS/components/security/mbedtls/mbedtls_port\dtls_interface.c ****     mbedtls_net_context *server_fd = NULL;
 144              		.loc 1 279 0
 145 0058 0026     		movs	r6, #0
 146 005a 34E0     		b	.L16
 147              	.LVL15:
ARM GAS  c:\Users\lenovo\AppData\Local\Temp\cc9y9OZN.s 			page 9


 148              	.L5:
 294:C:/Users/lenovo/Desktop/liteos/Project2/BearPi_LiteOS/components/security/mbedtls/mbedtls_port\dtls_interface.c ****     }
 149              		.loc 1 294 0
 150 005c 0122     		movs	r2, #1
 151 005e 2168     		ldr	r1, [r4]
 152 0060 0020     		movs	r0, #0
 153 0062 FFF7FEFF 		bl	atiny_net_bind
 154              	.LVL16:
 155 0066 8146     		mov	r9, r0
 156              	.LVL17:
 157 0068 DDE7     		b	.L6
 158              	.L22:
 299:C:/Users/lenovo/Desktop/liteos/Project2/BearPi_LiteOS/components/security/mbedtls/mbedtls_port\dtls_interface.c ****         ret = MBEDTLS_ERR_NET_CONNECT_FAILED;
 159              		.loc 1 299 0
 160 006a E368     		ldr	r3, [r4, #12]
 161 006c 40F22B12 		movw	r2, #299
 162 0070 2A49     		ldr	r1, .L23
 163 0072 3048     		ldr	r0, .L23+24
 164              	.LVL18:
 165 0074 FFF7FEFF 		bl	atiny_printf
 166              	.LVL19:
 300:C:/Users/lenovo/Desktop/liteos/Project2/BearPi_LiteOS/components/security/mbedtls/mbedtls_port\dtls_interface.c ****         goto exit_fail;
 167              		.loc 1 300 0
 168 0078 6FF04305 		mvn	r5, #67
 301:C:/Users/lenovo/Desktop/liteos/Project2/BearPi_LiteOS/components/security/mbedtls/mbedtls_port\dtls_interface.c ****     }
 169              		.loc 1 301 0
 170 007c 3BE0     		b	.L8
 171              	.L9:
 172              	.LBB6:
 173              	.LBB7:
 273:C:/Users/lenovo/Desktop/liteos/Project2/BearPi_LiteOS/components/security/mbedtls/mbedtls_port\dtls_interface.c **** }
 174              		.loc 1 273 0
 175 007e FFF7FEFF 		bl	atiny_gettime_ms
 176              	.LVL20:
 177 0082 4FF47A72 		mov	r2, #1000
 178 0086 0023     		movs	r3, #0
 179 0088 FFF7FEFF 		bl	__aeabi_uldivmod
 180              	.LVL21:
 181              	.LBE7:
 182              	.LBE6:
 183              		.loc 1 310 0
 184 008c A368     		ldr	r3, [r4, #8]
 185 008e 03EB0008 		add	r8, r3, r0
 186 0092 E1E7     		b	.L10
 187              	.LVL22:
 188              	.L11:
 189              	.LBB8:
 190              	.LBB9:
 273:C:/Users/lenovo/Desktop/liteos/Project2/BearPi_LiteOS/components/security/mbedtls/mbedtls_port\dtls_interface.c **** }
 191              		.loc 1 273 0
 192 0094 FFF7FEFF 		bl	atiny_gettime_ms
 193              	.LVL23:
 194 0098 4FF47A72 		mov	r2, #1000
 195 009c 0023     		movs	r3, #0
 196 009e FFF7FEFF 		bl	__aeabi_uldivmod
 197              	.LVL24:
 198 00a2 0646     		mov	r6, r0
ARM GAS  c:\Users\lenovo\AppData\Local\Temp\cc9y9OZN.s 			page 10


 199              	.LVL25:
 200              	.L12:
 201              	.LBE9:
 202              	.LBE8:
 311:C:/Users/lenovo/Desktop/liteos/Project2/BearPi_LiteOS/components/security/mbedtls/mbedtls_port\dtls_interface.c **** 
 312:C:/Users/lenovo/Desktop/liteos/Project2/BearPi_LiteOS/components/security/mbedtls/mbedtls_port\dtls_interface.c ****     do
 313:C:/Users/lenovo/Desktop/liteos/Project2/BearPi_LiteOS/components/security/mbedtls/mbedtls_port\dtls_interface.c ****     {
 314:C:/Users/lenovo/Desktop/liteos/Project2/BearPi_LiteOS/components/security/mbedtls/mbedtls_port\dtls_interface.c ****         ret = mbedtls_ssl_handshake(ssl);
 315:C:/Users/lenovo/Desktop/liteos/Project2/BearPi_LiteOS/components/security/mbedtls/mbedtls_port\dtls_interface.c ****         //MBEDTLS_LOG("mbedtls_ssl_handshake %d %d", change_value, max_value);
 316:C:/Users/lenovo/Desktop/liteos/Project2/BearPi_LiteOS/components/security/mbedtls/mbedtls_port\dtls_interface.c ****         //LOS_TaskDelay(1);
 317:C:/Users/lenovo/Desktop/liteos/Project2/BearPi_LiteOS/components/security/mbedtls/mbedtls_port\dtls_interface.c ****         if (MBEDTLS_SSL_IS_CLIENT == info->client_or_server && info->udp_or_tcp == MBEDTLS_NET_PROT
 318:C:/Users/lenovo/Desktop/liteos/Project2/BearPi_LiteOS/components/security/mbedtls/mbedtls_port\dtls_interface.c ****         {
 319:C:/Users/lenovo/Desktop/liteos/Project2/BearPi_LiteOS/components/security/mbedtls/mbedtls_port\dtls_interface.c ****             change_value++;
 320:C:/Users/lenovo/Desktop/liteos/Project2/BearPi_LiteOS/components/security/mbedtls/mbedtls_port\dtls_interface.c ****         }
 321:C:/Users/lenovo/Desktop/liteos/Project2/BearPi_LiteOS/components/security/mbedtls/mbedtls_port\dtls_interface.c ****         else
 322:C:/Users/lenovo/Desktop/liteos/Project2/BearPi_LiteOS/components/security/mbedtls/mbedtls_port\dtls_interface.c ****         {
 323:C:/Users/lenovo/Desktop/liteos/Project2/BearPi_LiteOS/components/security/mbedtls/mbedtls_port\dtls_interface.c ****             change_value = dtls_gettime();
 324:C:/Users/lenovo/Desktop/liteos/Project2/BearPi_LiteOS/components/security/mbedtls/mbedtls_port\dtls_interface.c ****         }
 325:C:/Users/lenovo/Desktop/liteos/Project2/BearPi_LiteOS/components/security/mbedtls/mbedtls_port\dtls_interface.c **** 
 326:C:/Users/lenovo/Desktop/liteos/Project2/BearPi_LiteOS/components/security/mbedtls/mbedtls_port\dtls_interface.c ****         if (info->step_notify)
 203              		.loc 1 326 0
 204 00a4 A369     		ldr	r3, [r4, #24]
 205 00a6 0BB1     		cbz	r3, .L13
 327:C:/Users/lenovo/Desktop/liteos/Project2/BearPi_LiteOS/components/security/mbedtls/mbedtls_port\dtls_interface.c ****         {
 328:C:/Users/lenovo/Desktop/liteos/Project2/BearPi_LiteOS/components/security/mbedtls/mbedtls_port\dtls_interface.c ****             info->step_notify(info->param);
 206              		.loc 1 328 0
 207 00a8 206A     		ldr	r0, [r4, #32]
 208 00aa 9847     		blx	r3
 209              	.LVL26:
 210              	.L13:
 329:C:/Users/lenovo/Desktop/liteos/Project2/BearPi_LiteOS/components/security/mbedtls/mbedtls_port\dtls_interface.c ****         }
 330:C:/Users/lenovo/Desktop/liteos/Project2/BearPi_LiteOS/components/security/mbedtls/mbedtls_port\dtls_interface.c ****     }
 331:C:/Users/lenovo/Desktop/liteos/Project2/BearPi_LiteOS/components/security/mbedtls/mbedtls_port\dtls_interface.c ****     while ((ret == MBEDTLS_ERR_SSL_WANT_READ ||
 332:C:/Users/lenovo/Desktop/liteos/Project2/BearPi_LiteOS/components/security/mbedtls/mbedtls_port\dtls_interface.c ****             ret == MBEDTLS_ERR_SSL_WANT_WRITE ||
 333:C:/Users/lenovo/Desktop/liteos/Project2/BearPi_LiteOS/components/security/mbedtls/mbedtls_port\dtls_interface.c ****             (ret == MBEDTLS_ERR_SSL_TIMEOUT &&
 334:C:/Users/lenovo/Desktop/liteos/Project2/BearPi_LiteOS/components/security/mbedtls/mbedtls_port\dtls_interface.c ****             info->udp_or_tcp == MBEDTLS_NET_PROTO_TCP)) &&
 335:C:/Users/lenovo/Desktop/liteos/Project2/BearPi_LiteOS/components/security/mbedtls/mbedtls_port\dtls_interface.c ****             (change_value < max_value));
 211              		.loc 1 335 0
 212 00ac 15F5D24F 		cmn	r5, #26880
 213 00b0 07D0     		beq	.L14
 331:C:/Users/lenovo/Desktop/liteos/Project2/BearPi_LiteOS/components/security/mbedtls/mbedtls_port\dtls_interface.c ****             ret == MBEDTLS_ERR_SSL_WANT_WRITE ||
 214              		.loc 1 331 0
 215 00b2 15F5D14F 		cmn	r5, #26752
 216 00b6 04D0     		beq	.L14
 332:C:/Users/lenovo/Desktop/liteos/Project2/BearPi_LiteOS/components/security/mbedtls/mbedtls_port\dtls_interface.c ****             (ret == MBEDTLS_ERR_SSL_TIMEOUT &&
 217              		.loc 1 332 0
 218 00b8 15F5D04F 		cmn	r5, #26624
 219 00bc 0FD1     		bne	.L15
 334:C:/Users/lenovo/Desktop/liteos/Project2/BearPi_LiteOS/components/security/mbedtls/mbedtls_port\dtls_interface.c ****             (change_value < max_value));
 220              		.loc 1 334 0
 221 00be 2369     		ldr	r3, [r4, #16]
 333:C:/Users/lenovo/Desktop/liteos/Project2/BearPi_LiteOS/components/security/mbedtls/mbedtls_port\dtls_interface.c ****             info->udp_or_tcp == MBEDTLS_NET_PROTO_TCP)) &&
 222              		.loc 1 333 0
 223 00c0 6BB9     		cbnz	r3, .L15
 224              	.L14:
 334:C:/Users/lenovo/Desktop/liteos/Project2/BearPi_LiteOS/components/security/mbedtls/mbedtls_port\dtls_interface.c ****             (change_value < max_value));
 225              		.loc 1 334 0
ARM GAS  c:\Users\lenovo\AppData\Local\Temp\cc9y9OZN.s 			page 11


 226 00c2 4645     		cmp	r6, r8
 227 00c4 0BD2     		bcs	.L15
 228              	.LVL27:
 229              	.L16:
 314:C:/Users/lenovo/Desktop/liteos/Project2/BearPi_LiteOS/components/security/mbedtls/mbedtls_port\dtls_interface.c ****         //MBEDTLS_LOG("mbedtls_ssl_handshake %d %d", change_value, max_value);
 230              		.loc 1 314 0
 231 00c6 3846     		mov	r0, r7
 232 00c8 FFF7FEFF 		bl	mbedtls_ssl_handshake
 233              	.LVL28:
 234 00cc 0546     		mov	r5, r0
 235              	.LVL29:
 317:C:/Users/lenovo/Desktop/liteos/Project2/BearPi_LiteOS/components/security/mbedtls/mbedtls_port\dtls_interface.c ****         {
 236              		.loc 1 317 0
 237 00ce E368     		ldr	r3, [r4, #12]
 238 00d0 002B     		cmp	r3, #0
 239 00d2 DFD1     		bne	.L11
 317:C:/Users/lenovo/Desktop/liteos/Project2/BearPi_LiteOS/components/security/mbedtls/mbedtls_port\dtls_interface.c ****         {
 240              		.loc 1 317 0 is_stmt 0 discriminator 1
 241 00d4 2369     		ldr	r3, [r4, #16]
 242 00d6 002B     		cmp	r3, #0
 243 00d8 DCD1     		bne	.L11
 319:C:/Users/lenovo/Desktop/liteos/Project2/BearPi_LiteOS/components/security/mbedtls/mbedtls_port\dtls_interface.c ****         }
 244              		.loc 1 319 0 is_stmt 1
 245 00da 0136     		adds	r6, r6, #1
 246              	.LVL30:
 247 00dc E2E7     		b	.L12
 248              	.LVL31:
 249              	.L15:
 336:C:/Users/lenovo/Desktop/liteos/Project2/BearPi_LiteOS/components/security/mbedtls/mbedtls_port\dtls_interface.c **** 
 337:C:/Users/lenovo/Desktop/liteos/Project2/BearPi_LiteOS/components/security/mbedtls/mbedtls_port\dtls_interface.c ****     if (info->finish_notify)
 250              		.loc 1 337 0
 251 00de E369     		ldr	r3, [r4, #28]
 252 00e0 0BB1     		cbz	r3, .L17
 338:C:/Users/lenovo/Desktop/liteos/Project2/BearPi_LiteOS/components/security/mbedtls/mbedtls_port\dtls_interface.c ****     {
 339:C:/Users/lenovo/Desktop/liteos/Project2/BearPi_LiteOS/components/security/mbedtls/mbedtls_port\dtls_interface.c ****         info->finish_notify(info->param);
 253              		.loc 1 339 0
 254 00e2 206A     		ldr	r0, [r4, #32]
 255 00e4 9847     		blx	r3
 256              	.LVL32:
 257              	.L17:
 340:C:/Users/lenovo/Desktop/liteos/Project2/BearPi_LiteOS/components/security/mbedtls/mbedtls_port\dtls_interface.c ****     }
 341:C:/Users/lenovo/Desktop/liteos/Project2/BearPi_LiteOS/components/security/mbedtls/mbedtls_port\dtls_interface.c **** 
 342:C:/Users/lenovo/Desktop/liteos/Project2/BearPi_LiteOS/components/security/mbedtls/mbedtls_port\dtls_interface.c ****     if (ret != 0)
 258              		.loc 1 342 0
 259 00e6 95B1     		cbz	r5, .L18
 343:C:/Users/lenovo/Desktop/liteos/Project2/BearPi_LiteOS/components/security/mbedtls/mbedtls_port\dtls_interface.c ****     {
 344:C:/Users/lenovo/Desktop/liteos/Project2/BearPi_LiteOS/components/security/mbedtls/mbedtls_port\dtls_interface.c ****         MBEDTLS_LOG("mbedtls_ssl_handshake failed: -0x%x", -ret);
 260              		.loc 1 344 0
 261 00e8 6B42     		negs	r3, r5
 262 00ea 4FF4AC72 		mov	r2, #344
 263 00ee 0B49     		ldr	r1, .L23
 264 00f0 1148     		ldr	r0, .L23+28
 265 00f2 FFF7FEFF 		bl	atiny_printf
 266              	.LVL33:
 267              	.L8:
 345:C:/Users/lenovo/Desktop/liteos/Project2/BearPi_LiteOS/components/security/mbedtls/mbedtls_port\dtls_interface.c ****         goto exit_fail;
 346:C:/Users/lenovo/Desktop/liteos/Project2/BearPi_LiteOS/components/security/mbedtls/mbedtls_port\dtls_interface.c ****     }
ARM GAS  c:\Users\lenovo\AppData\Local\Temp\cc9y9OZN.s 			page 12


 347:C:/Users/lenovo/Desktop/liteos/Project2/BearPi_LiteOS/components/security/mbedtls/mbedtls_port\dtls_interface.c **** 
 348:C:/Users/lenovo/Desktop/liteos/Project2/BearPi_LiteOS/components/security/mbedtls/mbedtls_port\dtls_interface.c **** #if defined(MBEDTLS_X509_CRT_PARSE_C)
 349:C:/Users/lenovo/Desktop/liteos/Project2/BearPi_LiteOS/components/security/mbedtls/mbedtls_port\dtls_interface.c ****     if (info->psk_or_cert == VERIFY_WITH_CERT)
 350:C:/Users/lenovo/Desktop/liteos/Project2/BearPi_LiteOS/components/security/mbedtls/mbedtls_port\dtls_interface.c ****     {
 351:C:/Users/lenovo/Desktop/liteos/Project2/BearPi_LiteOS/components/security/mbedtls/mbedtls_port\dtls_interface.c ****         if((flags = mbedtls_ssl_get_verify_result(ssl)) != 0)
 352:C:/Users/lenovo/Desktop/liteos/Project2/BearPi_LiteOS/components/security/mbedtls/mbedtls_port\dtls_interface.c ****         {
 353:C:/Users/lenovo/Desktop/liteos/Project2/BearPi_LiteOS/components/security/mbedtls/mbedtls_port\dtls_interface.c ****             char vrfy_buf[512];
 354:C:/Users/lenovo/Desktop/liteos/Project2/BearPi_LiteOS/components/security/mbedtls/mbedtls_port\dtls_interface.c ****             mbedtls_x509_crt_verify_info(vrfy_buf, sizeof(vrfy_buf), "  ! ", flags);
 355:C:/Users/lenovo/Desktop/liteos/Project2/BearPi_LiteOS/components/security/mbedtls/mbedtls_port\dtls_interface.c ****             MBEDTLS_LOG("cert verify failed: %s", vrfy_buf);
 356:C:/Users/lenovo/Desktop/liteos/Project2/BearPi_LiteOS/components/security/mbedtls/mbedtls_port\dtls_interface.c ****             goto exit_fail;
 357:C:/Users/lenovo/Desktop/liteos/Project2/BearPi_LiteOS/components/security/mbedtls/mbedtls_port\dtls_interface.c ****         }
 358:C:/Users/lenovo/Desktop/liteos/Project2/BearPi_LiteOS/components/security/mbedtls/mbedtls_port\dtls_interface.c ****         else
 359:C:/Users/lenovo/Desktop/liteos/Project2/BearPi_LiteOS/components/security/mbedtls/mbedtls_port\dtls_interface.c ****             MBEDTLS_LOG("cert verify succeed");
 360:C:/Users/lenovo/Desktop/liteos/Project2/BearPi_LiteOS/components/security/mbedtls/mbedtls_port\dtls_interface.c ****     }
 361:C:/Users/lenovo/Desktop/liteos/Project2/BearPi_LiteOS/components/security/mbedtls/mbedtls_port\dtls_interface.c **** #endif
 362:C:/Users/lenovo/Desktop/liteos/Project2/BearPi_LiteOS/components/security/mbedtls/mbedtls_port\dtls_interface.c **** 
 363:C:/Users/lenovo/Desktop/liteos/Project2/BearPi_LiteOS/components/security/mbedtls/mbedtls_port\dtls_interface.c ****     MBEDTLS_LOG("handshake succeed");
 364:C:/Users/lenovo/Desktop/liteos/Project2/BearPi_LiteOS/components/security/mbedtls/mbedtls_port\dtls_interface.c **** 
 365:C:/Users/lenovo/Desktop/liteos/Project2/BearPi_LiteOS/components/security/mbedtls/mbedtls_port\dtls_interface.c ****     return 0;
 366:C:/Users/lenovo/Desktop/liteos/Project2/BearPi_LiteOS/components/security/mbedtls/mbedtls_port\dtls_interface.c **** 
 367:C:/Users/lenovo/Desktop/liteos/Project2/BearPi_LiteOS/components/security/mbedtls/mbedtls_port\dtls_interface.c **** exit_fail:
 368:C:/Users/lenovo/Desktop/liteos/Project2/BearPi_LiteOS/components/security/mbedtls/mbedtls_port\dtls_interface.c **** 
 369:C:/Users/lenovo/Desktop/liteos/Project2/BearPi_LiteOS/components/security/mbedtls/mbedtls_port\dtls_interface.c ****     if (server_fd)
 268              		.loc 1 369 0
 269 00f6 B9F1000F 		cmp	r9, #0
 270 00fa 04D0     		beq	.L4
 370:C:/Users/lenovo/Desktop/liteos/Project2/BearPi_LiteOS/components/security/mbedtls/mbedtls_port\dtls_interface.c ****     {
 371:C:/Users/lenovo/Desktop/liteos/Project2/BearPi_LiteOS/components/security/mbedtls/mbedtls_port\dtls_interface.c ****         mbedtls_net_free(server_fd);
 271              		.loc 1 371 0
 272 00fc 4846     		mov	r0, r9
 273 00fe FFF7FEFF 		bl	mbedtls_net_free
 274              	.LVL34:
 372:C:/Users/lenovo/Desktop/liteos/Project2/BearPi_LiteOS/components/security/mbedtls/mbedtls_port\dtls_interface.c ****         ssl->p_bio = NULL;
 275              		.loc 1 372 0
 276 0102 0023     		movs	r3, #0
 277 0104 7B62     		str	r3, [r7, #36]
 278              	.L4:
 373:C:/Users/lenovo/Desktop/liteos/Project2/BearPi_LiteOS/components/security/mbedtls/mbedtls_port\dtls_interface.c ****     }
 374:C:/Users/lenovo/Desktop/liteos/Project2/BearPi_LiteOS/components/security/mbedtls/mbedtls_port\dtls_interface.c **** 
 375:C:/Users/lenovo/Desktop/liteos/Project2/BearPi_LiteOS/components/security/mbedtls/mbedtls_port\dtls_interface.c ****     return ret;
 376:C:/Users/lenovo/Desktop/liteos/Project2/BearPi_LiteOS/components/security/mbedtls/mbedtls_port\dtls_interface.c **** 
 377:C:/Users/lenovo/Desktop/liteos/Project2/BearPi_LiteOS/components/security/mbedtls/mbedtls_port\dtls_interface.c **** }
 279              		.loc 1 377 0
 280 0106 2846     		mov	r0, r5
 281 0108 03B0     		add	sp, sp, #12
 282              	.LCFI3:
 283              		.cfi_remember_state
 284              		.cfi_def_cfa_offset 28
 285              		@ sp needed
 286 010a BDE8F083 		pop	{r4, r5, r6, r7, r8, r9, pc}
 287              	.LVL35:
 288              	.L18:
 289              	.LCFI4:
 290              		.cfi_restore_state
 363:C:/Users/lenovo/Desktop/liteos/Project2/BearPi_LiteOS/components/security/mbedtls/mbedtls_port\dtls_interface.c **** 
 291              		.loc 1 363 0
 292 010e 40F26B12 		movw	r2, #363
ARM GAS  c:\Users\lenovo\AppData\Local\Temp\cc9y9OZN.s 			page 13


 293 0112 0249     		ldr	r1, .L23
 294 0114 0948     		ldr	r0, .L23+32
 295 0116 FFF7FEFF 		bl	atiny_printf
 296              	.LVL36:
 365:C:/Users/lenovo/Desktop/liteos/Project2/BearPi_LiteOS/components/security/mbedtls/mbedtls_port\dtls_interface.c **** 
 297              		.loc 1 365 0
 298 011a F4E7     		b	.L4
 299              	.L24:
 300              		.align	2
 301              	.L23:
 302 011c 00000000 		.word	.LANCHOR0
 303 0120 00000000 		.word	.LC0
 304 0124 00000000 		.word	mbedtls_net_recv_timeout
 305 0128 00000000 		.word	mbedtls_net_recv
 306 012c 00000000 		.word	mbedtls_net_send
 307 0130 54000000 		.word	.LC2
 308 0134 28000000 		.word	.LC1
 309 0138 88000000 		.word	.LC3
 310 013c C0000000 		.word	.LC4
 311              		.cfi_endproc
 312              	.LFE147:
 314              		.section	.text.dtls_ssl_destroy,"ax",%progbits
 315              		.align	1
 316              		.global	dtls_ssl_destroy
 317              		.syntax unified
 318              		.thumb
 319              		.thumb_func
 320              		.fpu fpv4-sp-d16
 322              	dtls_ssl_destroy:
 323              	.LFB148:
 378:C:/Users/lenovo/Desktop/liteos/Project2/BearPi_LiteOS/components/security/mbedtls/mbedtls_port\dtls_interface.c **** void dtls_ssl_destroy(mbedtls_ssl_context *ssl)
 379:C:/Users/lenovo/Desktop/liteos/Project2/BearPi_LiteOS/components/security/mbedtls/mbedtls_port\dtls_interface.c **** {
 324              		.loc 1 379 0
 325              		.cfi_startproc
 326              		@ args = 0, pretend = 0, frame = 0
 327              		@ frame_needed = 0, uses_anonymous_args = 0
 328              	.LVL37:
 380:C:/Users/lenovo/Desktop/liteos/Project2/BearPi_LiteOS/components/security/mbedtls/mbedtls_port\dtls_interface.c ****     mbedtls_ssl_config           *conf = NULL;
 381:C:/Users/lenovo/Desktop/liteos/Project2/BearPi_LiteOS/components/security/mbedtls/mbedtls_port\dtls_interface.c ****     mbedtls_ctr_drbg_context     *ctr_drbg = NULL;
 382:C:/Users/lenovo/Desktop/liteos/Project2/BearPi_LiteOS/components/security/mbedtls/mbedtls_port\dtls_interface.c ****     mbedtls_entropy_context      *entropy = NULL;
 383:C:/Users/lenovo/Desktop/liteos/Project2/BearPi_LiteOS/components/security/mbedtls/mbedtls_port\dtls_interface.c ****     mbedtls_net_context          *server_fd = NULL;
 384:C:/Users/lenovo/Desktop/liteos/Project2/BearPi_LiteOS/components/security/mbedtls/mbedtls_port\dtls_interface.c ****     mbedtls_timing_delay_context *timer = NULL;
 385:C:/Users/lenovo/Desktop/liteos/Project2/BearPi_LiteOS/components/security/mbedtls/mbedtls_port\dtls_interface.c **** #if defined(MBEDTLS_X509_CRT_PARSE_C)
 386:C:/Users/lenovo/Desktop/liteos/Project2/BearPi_LiteOS/components/security/mbedtls/mbedtls_port\dtls_interface.c ****     mbedtls_x509_crt             *cacert = NULL;
 387:C:/Users/lenovo/Desktop/liteos/Project2/BearPi_LiteOS/components/security/mbedtls/mbedtls_port\dtls_interface.c **** #endif
 388:C:/Users/lenovo/Desktop/liteos/Project2/BearPi_LiteOS/components/security/mbedtls/mbedtls_port\dtls_interface.c **** 
 389:C:/Users/lenovo/Desktop/liteos/Project2/BearPi_LiteOS/components/security/mbedtls/mbedtls_port\dtls_interface.c ****     if (ssl == NULL)
 329              		.loc 1 389 0
 330 0000 0028     		cmp	r0, #0
 331 0002 3FD0     		beq	.L36
 379:C:/Users/lenovo/Desktop/liteos/Project2/BearPi_LiteOS/components/security/mbedtls/mbedtls_port\dtls_interface.c ****     mbedtls_ssl_config           *conf = NULL;
 332              		.loc 1 379 0
 333 0004 2DE9F041 		push	{r4, r5, r6, r7, r8, lr}
 334              	.LCFI5:
 335              		.cfi_def_cfa_offset 24
 336              		.cfi_offset 4, -24
 337              		.cfi_offset 5, -20
ARM GAS  c:\Users\lenovo\AppData\Local\Temp\cc9y9OZN.s 			page 14


 338              		.cfi_offset 6, -16
 339              		.cfi_offset 7, -12
 340              		.cfi_offset 8, -8
 341              		.cfi_offset 14, -4
 342 0008 0446     		mov	r4, r0
 390:C:/Users/lenovo/Desktop/liteos/Project2/BearPi_LiteOS/components/security/mbedtls/mbedtls_port\dtls_interface.c ****     {
 391:C:/Users/lenovo/Desktop/liteos/Project2/BearPi_LiteOS/components/security/mbedtls/mbedtls_port\dtls_interface.c ****         return;
 392:C:/Users/lenovo/Desktop/liteos/Project2/BearPi_LiteOS/components/security/mbedtls/mbedtls_port\dtls_interface.c ****     }
 393:C:/Users/lenovo/Desktop/liteos/Project2/BearPi_LiteOS/components/security/mbedtls/mbedtls_port\dtls_interface.c **** 
 394:C:/Users/lenovo/Desktop/liteos/Project2/BearPi_LiteOS/components/security/mbedtls/mbedtls_port\dtls_interface.c ****     conf       = ssl->conf;
 343              		.loc 1 394 0
 344 000a 0568     		ldr	r5, [r0]
 345              	.LVL38:
 395:C:/Users/lenovo/Desktop/liteos/Project2/BearPi_LiteOS/components/security/mbedtls/mbedtls_port\dtls_interface.c ****     server_fd  = (mbedtls_net_context *)ssl->p_bio;
 346              		.loc 1 395 0
 347 000c 406A     		ldr	r0, [r0, #36]
 348              	.LVL39:
 396:C:/Users/lenovo/Desktop/liteos/Project2/BearPi_LiteOS/components/security/mbedtls/mbedtls_port\dtls_interface.c ****     timer      = (mbedtls_timing_delay_context *)ssl->p_timer;
 349              		.loc 1 396 0
 350 000e D4F84C80 		ldr	r8, [r4, #76]
 351              	.LVL40:
 397:C:/Users/lenovo/Desktop/liteos/Project2/BearPi_LiteOS/components/security/mbedtls/mbedtls_port\dtls_interface.c **** #if defined(MBEDTLS_X509_CRT_PARSE_C)
 398:C:/Users/lenovo/Desktop/liteos/Project2/BearPi_LiteOS/components/security/mbedtls/mbedtls_port\dtls_interface.c ****     cacert     = (mbedtls_x509_crt *)conf->ca_chain;
 399:C:/Users/lenovo/Desktop/liteos/Project2/BearPi_LiteOS/components/security/mbedtls/mbedtls_port\dtls_interface.c **** #endif
 400:C:/Users/lenovo/Desktop/liteos/Project2/BearPi_LiteOS/components/security/mbedtls/mbedtls_port\dtls_interface.c **** 
 401:C:/Users/lenovo/Desktop/liteos/Project2/BearPi_LiteOS/components/security/mbedtls/mbedtls_port\dtls_interface.c ****     if (conf)
 352              		.loc 1 401 0
 353 0012 002D     		cmp	r5, #0
 354 0014 31D0     		beq	.L33
 402:C:/Users/lenovo/Desktop/liteos/Project2/BearPi_LiteOS/components/security/mbedtls/mbedtls_port\dtls_interface.c ****     {
 403:C:/Users/lenovo/Desktop/liteos/Project2/BearPi_LiteOS/components/security/mbedtls/mbedtls_port\dtls_interface.c ****         ctr_drbg   = conf->p_rng;
 355              		.loc 1 403 0
 356 0016 EE69     		ldr	r6, [r5, #28]
 357              	.LVL41:
 404:C:/Users/lenovo/Desktop/liteos/Project2/BearPi_LiteOS/components/security/mbedtls/mbedtls_port\dtls_interface.c **** 
 405:C:/Users/lenovo/Desktop/liteos/Project2/BearPi_LiteOS/components/security/mbedtls/mbedtls_port\dtls_interface.c ****         if (ctr_drbg)
 358              		.loc 1 405 0
 359 0018 002E     		cmp	r6, #0
 360 001a 31D0     		beq	.L34
 406:C:/Users/lenovo/Desktop/liteos/Project2/BearPi_LiteOS/components/security/mbedtls/mbedtls_port\dtls_interface.c ****         {
 407:C:/Users/lenovo/Desktop/liteos/Project2/BearPi_LiteOS/components/security/mbedtls/mbedtls_port\dtls_interface.c ****             entropy =  ctr_drbg->p_entropy;
 361              		.loc 1 407 0
 362 001c D6F83C71 		ldr	r7, [r6, #316]
 363              	.LVL42:
 364              	.L27:
 408:C:/Users/lenovo/Desktop/liteos/Project2/BearPi_LiteOS/components/security/mbedtls/mbedtls_port\dtls_interface.c ****         }
 409:C:/Users/lenovo/Desktop/liteos/Project2/BearPi_LiteOS/components/security/mbedtls/mbedtls_port\dtls_interface.c ****     }
 410:C:/Users/lenovo/Desktop/liteos/Project2/BearPi_LiteOS/components/security/mbedtls/mbedtls_port\dtls_interface.c **** 
 411:C:/Users/lenovo/Desktop/liteos/Project2/BearPi_LiteOS/components/security/mbedtls/mbedtls_port\dtls_interface.c ****     if (server_fd)
 365              		.loc 1 411 0
 366 0020 08B1     		cbz	r0, .L28
 412:C:/Users/lenovo/Desktop/liteos/Project2/BearPi_LiteOS/components/security/mbedtls/mbedtls_port\dtls_interface.c ****     {
 413:C:/Users/lenovo/Desktop/liteos/Project2/BearPi_LiteOS/components/security/mbedtls/mbedtls_port\dtls_interface.c ****         mbedtls_net_free(server_fd);
 367              		.loc 1 413 0
 368 0022 FFF7FEFF 		bl	mbedtls_net_free
 369              	.LVL43:
 370              	.L28:
ARM GAS  c:\Users\lenovo\AppData\Local\Temp\cc9y9OZN.s 			page 15


 414:C:/Users/lenovo/Desktop/liteos/Project2/BearPi_LiteOS/components/security/mbedtls/mbedtls_port\dtls_interface.c ****     }
 415:C:/Users/lenovo/Desktop/liteos/Project2/BearPi_LiteOS/components/security/mbedtls/mbedtls_port\dtls_interface.c **** 
 416:C:/Users/lenovo/Desktop/liteos/Project2/BearPi_LiteOS/components/security/mbedtls/mbedtls_port\dtls_interface.c ****     if (conf)
 371              		.loc 1 416 0
 372 0026 45B1     		cbz	r5, .L29
 417:C:/Users/lenovo/Desktop/liteos/Project2/BearPi_LiteOS/components/security/mbedtls/mbedtls_port\dtls_interface.c ****     {
 418:C:/Users/lenovo/Desktop/liteos/Project2/BearPi_LiteOS/components/security/mbedtls/mbedtls_port\dtls_interface.c ****         mbedtls_ssl_config_free(conf);
 373              		.loc 1 418 0
 374 0028 2846     		mov	r0, r5
 375 002a FFF7FEFF 		bl	mbedtls_ssl_config_free
 376              	.LVL44:
 419:C:/Users/lenovo/Desktop/liteos/Project2/BearPi_LiteOS/components/security/mbedtls/mbedtls_port\dtls_interface.c ****         mbedtls_free(conf);
 377              		.loc 1 419 0
 378 002e 164B     		ldr	r3, .L39
 379 0030 1B68     		ldr	r3, [r3]
 380 0032 2846     		mov	r0, r5
 381 0034 9847     		blx	r3
 382              	.LVL45:
 420:C:/Users/lenovo/Desktop/liteos/Project2/BearPi_LiteOS/components/security/mbedtls/mbedtls_port\dtls_interface.c ****         ssl->conf = NULL; //  need by mbedtls_debug_print_msg(), see mbedtls_ssl_free(ssl)
 383              		.loc 1 420 0
 384 0036 0023     		movs	r3, #0
 385 0038 2360     		str	r3, [r4]
 386              	.L29:
 421:C:/Users/lenovo/Desktop/liteos/Project2/BearPi_LiteOS/components/security/mbedtls/mbedtls_port\dtls_interface.c ****     }
 422:C:/Users/lenovo/Desktop/liteos/Project2/BearPi_LiteOS/components/security/mbedtls/mbedtls_port\dtls_interface.c **** 
 423:C:/Users/lenovo/Desktop/liteos/Project2/BearPi_LiteOS/components/security/mbedtls/mbedtls_port\dtls_interface.c ****     if (ctr_drbg)
 387              		.loc 1 423 0
 388 003a 36B1     		cbz	r6, .L30
 424:C:/Users/lenovo/Desktop/liteos/Project2/BearPi_LiteOS/components/security/mbedtls/mbedtls_port\dtls_interface.c ****     {
 425:C:/Users/lenovo/Desktop/liteos/Project2/BearPi_LiteOS/components/security/mbedtls/mbedtls_port\dtls_interface.c ****         mbedtls_ctr_drbg_free(ctr_drbg);
 389              		.loc 1 425 0
 390 003c 3046     		mov	r0, r6
 391 003e FFF7FEFF 		bl	mbedtls_ctr_drbg_free
 392              	.LVL46:
 426:C:/Users/lenovo/Desktop/liteos/Project2/BearPi_LiteOS/components/security/mbedtls/mbedtls_port\dtls_interface.c ****         mbedtls_free(ctr_drbg);
 393              		.loc 1 426 0
 394 0042 114B     		ldr	r3, .L39
 395 0044 1B68     		ldr	r3, [r3]
 396 0046 3046     		mov	r0, r6
 397 0048 9847     		blx	r3
 398              	.LVL47:
 399              	.L30:
 427:C:/Users/lenovo/Desktop/liteos/Project2/BearPi_LiteOS/components/security/mbedtls/mbedtls_port\dtls_interface.c ****     }
 428:C:/Users/lenovo/Desktop/liteos/Project2/BearPi_LiteOS/components/security/mbedtls/mbedtls_port\dtls_interface.c **** 
 429:C:/Users/lenovo/Desktop/liteos/Project2/BearPi_LiteOS/components/security/mbedtls/mbedtls_port\dtls_interface.c ****     if (entropy)
 400              		.loc 1 429 0
 401 004a 37B1     		cbz	r7, .L31
 430:C:/Users/lenovo/Desktop/liteos/Project2/BearPi_LiteOS/components/security/mbedtls/mbedtls_port\dtls_interface.c ****     {
 431:C:/Users/lenovo/Desktop/liteos/Project2/BearPi_LiteOS/components/security/mbedtls/mbedtls_port\dtls_interface.c ****         mbedtls_entropy_free(entropy);
 402              		.loc 1 431 0
 403 004c 3846     		mov	r0, r7
 404 004e FFF7FEFF 		bl	mbedtls_entropy_free
 405              	.LVL48:
 432:C:/Users/lenovo/Desktop/liteos/Project2/BearPi_LiteOS/components/security/mbedtls/mbedtls_port\dtls_interface.c ****         mbedtls_free(entropy);
 406              		.loc 1 432 0
 407 0052 0D4B     		ldr	r3, .L39
 408 0054 1B68     		ldr	r3, [r3]
ARM GAS  c:\Users\lenovo\AppData\Local\Temp\cc9y9OZN.s 			page 16


 409 0056 3846     		mov	r0, r7
 410 0058 9847     		blx	r3
 411              	.LVL49:
 412              	.L31:
 433:C:/Users/lenovo/Desktop/liteos/Project2/BearPi_LiteOS/components/security/mbedtls/mbedtls_port\dtls_interface.c ****     }
 434:C:/Users/lenovo/Desktop/liteos/Project2/BearPi_LiteOS/components/security/mbedtls/mbedtls_port\dtls_interface.c **** 
 435:C:/Users/lenovo/Desktop/liteos/Project2/BearPi_LiteOS/components/security/mbedtls/mbedtls_port\dtls_interface.c ****     if (timer)
 413              		.loc 1 435 0
 414 005a B8F1000F 		cmp	r8, #0
 415 005e 03D0     		beq	.L32
 436:C:/Users/lenovo/Desktop/liteos/Project2/BearPi_LiteOS/components/security/mbedtls/mbedtls_port\dtls_interface.c ****     {
 437:C:/Users/lenovo/Desktop/liteos/Project2/BearPi_LiteOS/components/security/mbedtls/mbedtls_port\dtls_interface.c ****         mbedtls_free(timer);
 416              		.loc 1 437 0
 417 0060 094B     		ldr	r3, .L39
 418 0062 1B68     		ldr	r3, [r3]
 419 0064 4046     		mov	r0, r8
 420 0066 9847     		blx	r3
 421              	.LVL50:
 422              	.L32:
 438:C:/Users/lenovo/Desktop/liteos/Project2/BearPi_LiteOS/components/security/mbedtls/mbedtls_port\dtls_interface.c ****     }
 439:C:/Users/lenovo/Desktop/liteos/Project2/BearPi_LiteOS/components/security/mbedtls/mbedtls_port\dtls_interface.c **** 
 440:C:/Users/lenovo/Desktop/liteos/Project2/BearPi_LiteOS/components/security/mbedtls/mbedtls_port\dtls_interface.c **** #if defined(MBEDTLS_X509_CRT_PARSE_C)
 441:C:/Users/lenovo/Desktop/liteos/Project2/BearPi_LiteOS/components/security/mbedtls/mbedtls_port\dtls_interface.c ****     if (cacert)
 442:C:/Users/lenovo/Desktop/liteos/Project2/BearPi_LiteOS/components/security/mbedtls/mbedtls_port\dtls_interface.c ****     {
 443:C:/Users/lenovo/Desktop/liteos/Project2/BearPi_LiteOS/components/security/mbedtls/mbedtls_port\dtls_interface.c ****         mbedtls_x509_crt_free(cacert);
 444:C:/Users/lenovo/Desktop/liteos/Project2/BearPi_LiteOS/components/security/mbedtls/mbedtls_port\dtls_interface.c ****         mbedtls_free(cacert);
 445:C:/Users/lenovo/Desktop/liteos/Project2/BearPi_LiteOS/components/security/mbedtls/mbedtls_port\dtls_interface.c ****     }
 446:C:/Users/lenovo/Desktop/liteos/Project2/BearPi_LiteOS/components/security/mbedtls/mbedtls_port\dtls_interface.c **** #endif
 447:C:/Users/lenovo/Desktop/liteos/Project2/BearPi_LiteOS/components/security/mbedtls/mbedtls_port\dtls_interface.c **** 
 448:C:/Users/lenovo/Desktop/liteos/Project2/BearPi_LiteOS/components/security/mbedtls/mbedtls_port\dtls_interface.c ****     mbedtls_ssl_free(ssl);
 423              		.loc 1 448 0
 424 0068 2046     		mov	r0, r4
 425 006a FFF7FEFF 		bl	mbedtls_ssl_free
 426              	.LVL51:
 449:C:/Users/lenovo/Desktop/liteos/Project2/BearPi_LiteOS/components/security/mbedtls/mbedtls_port\dtls_interface.c ****     mbedtls_free(ssl);
 427              		.loc 1 449 0
 428 006e 064B     		ldr	r3, .L39
 429 0070 1B68     		ldr	r3, [r3]
 430 0072 2046     		mov	r0, r4
 431 0074 9847     		blx	r3
 432              	.LVL52:
 450:C:/Users/lenovo/Desktop/liteos/Project2/BearPi_LiteOS/components/security/mbedtls/mbedtls_port\dtls_interface.c **** }
 433              		.loc 1 450 0
 434 0076 BDE8F081 		pop	{r4, r5, r6, r7, r8, pc}
 435              	.LVL53:
 436              	.L33:
 382:C:/Users/lenovo/Desktop/liteos/Project2/BearPi_LiteOS/components/security/mbedtls/mbedtls_port\dtls_interface.c ****     mbedtls_net_context          *server_fd = NULL;
 437              		.loc 1 382 0
 438 007a 0027     		movs	r7, #0
 381:C:/Users/lenovo/Desktop/liteos/Project2/BearPi_LiteOS/components/security/mbedtls/mbedtls_port\dtls_interface.c ****     mbedtls_entropy_context      *entropy = NULL;
 439              		.loc 1 381 0
 440 007c 3E46     		mov	r6, r7
 441 007e CFE7     		b	.L27
 442              	.LVL54:
 443              	.L34:
 382:C:/Users/lenovo/Desktop/liteos/Project2/BearPi_LiteOS/components/security/mbedtls/mbedtls_port\dtls_interface.c ****     mbedtls_net_context          *server_fd = NULL;
 444              		.loc 1 382 0
ARM GAS  c:\Users\lenovo\AppData\Local\Temp\cc9y9OZN.s 			page 17


 445 0080 0027     		movs	r7, #0
 446 0082 CDE7     		b	.L27
 447              	.LVL55:
 448              	.L36:
 449              	.LCFI6:
 450              		.cfi_def_cfa_offset 0
 451              		.cfi_restore 4
 452              		.cfi_restore 5
 453              		.cfi_restore 6
 454              		.cfi_restore 7
 455              		.cfi_restore 8
 456              		.cfi_restore 14
 457 0084 7047     		bx	lr
 458              	.L40:
 459 0086 00BF     		.align	2
 460              	.L39:
 461 0088 00000000 		.word	mbedtls_free
 462              		.cfi_endproc
 463              	.LFE148:
 465              		.section	.text.dtls_write,"ax",%progbits
 466              		.align	1
 467              		.global	dtls_write
 468              		.syntax unified
 469              		.thumb
 470              		.thumb_func
 471              		.fpu fpv4-sp-d16
 473              	dtls_write:
 474              	.LFB149:
 451:C:/Users/lenovo/Desktop/liteos/Project2/BearPi_LiteOS/components/security/mbedtls/mbedtls_port\dtls_interface.c **** 
 452:C:/Users/lenovo/Desktop/liteos/Project2/BearPi_LiteOS/components/security/mbedtls/mbedtls_port\dtls_interface.c **** int dtls_write(mbedtls_ssl_context *ssl, const unsigned char *buf, size_t len)
 453:C:/Users/lenovo/Desktop/liteos/Project2/BearPi_LiteOS/components/security/mbedtls/mbedtls_port\dtls_interface.c **** {
 475              		.loc 1 453 0
 476              		.cfi_startproc
 477              		@ args = 0, pretend = 0, frame = 0
 478              		@ frame_needed = 0, uses_anonymous_args = 0
 479              	.LVL56:
 480 0000 08B5     		push	{r3, lr}
 481              	.LCFI7:
 482              		.cfi_def_cfa_offset 8
 483              		.cfi_offset 3, -8
 484              		.cfi_offset 14, -4
 454:C:/Users/lenovo/Desktop/liteos/Project2/BearPi_LiteOS/components/security/mbedtls/mbedtls_port\dtls_interface.c ****     int ret = mbedtls_ssl_write(ssl, (unsigned char *) buf, len);
 485              		.loc 1 454 0
 486 0002 FFF7FEFF 		bl	mbedtls_ssl_write
 487              	.LVL57:
 455:C:/Users/lenovo/Desktop/liteos/Project2/BearPi_LiteOS/components/security/mbedtls/mbedtls_port\dtls_interface.c **** 
 456:C:/Users/lenovo/Desktop/liteos/Project2/BearPi_LiteOS/components/security/mbedtls/mbedtls_port\dtls_interface.c ****     if (ret == MBEDTLS_ERR_SSL_WANT_WRITE)
 488              		.loc 1 456 0
 489 0006 10F5D14F 		cmn	r0, #26752
 490 000a 05D0     		beq	.L43
 457:C:/Users/lenovo/Desktop/liteos/Project2/BearPi_LiteOS/components/security/mbedtls/mbedtls_port\dtls_interface.c ****     {
 458:C:/Users/lenovo/Desktop/liteos/Project2/BearPi_LiteOS/components/security/mbedtls/mbedtls_port\dtls_interface.c ****         return 0;
 459:C:/Users/lenovo/Desktop/liteos/Project2/BearPi_LiteOS/components/security/mbedtls/mbedtls_port\dtls_interface.c ****     }
 460:C:/Users/lenovo/Desktop/liteos/Project2/BearPi_LiteOS/components/security/mbedtls/mbedtls_port\dtls_interface.c ****     else if (ret < 0)
 491              		.loc 1 460 0
 492 000c 0028     		cmp	r0, #0
 493 000e 00DB     		blt	.L45
ARM GAS  c:\Users\lenovo\AppData\Local\Temp\cc9y9OZN.s 			page 18


 494              	.LVL58:
 495              	.L41:
 461:C:/Users/lenovo/Desktop/liteos/Project2/BearPi_LiteOS/components/security/mbedtls/mbedtls_port\dtls_interface.c ****     {
 462:C:/Users/lenovo/Desktop/liteos/Project2/BearPi_LiteOS/components/security/mbedtls/mbedtls_port\dtls_interface.c ****         return -1;
 463:C:/Users/lenovo/Desktop/liteos/Project2/BearPi_LiteOS/components/security/mbedtls/mbedtls_port\dtls_interface.c ****     }
 464:C:/Users/lenovo/Desktop/liteos/Project2/BearPi_LiteOS/components/security/mbedtls/mbedtls_port\dtls_interface.c **** 
 465:C:/Users/lenovo/Desktop/liteos/Project2/BearPi_LiteOS/components/security/mbedtls/mbedtls_port\dtls_interface.c ****     return ret;
 466:C:/Users/lenovo/Desktop/liteos/Project2/BearPi_LiteOS/components/security/mbedtls/mbedtls_port\dtls_interface.c **** }
 496              		.loc 1 466 0
 497 0010 08BD     		pop	{r3, pc}
 498              	.LVL59:
 499              	.L45:
 462:C:/Users/lenovo/Desktop/liteos/Project2/BearPi_LiteOS/components/security/mbedtls/mbedtls_port\dtls_interface.c ****     }
 500              		.loc 1 462 0
 501 0012 4FF0FF30 		mov	r0, #-1
 502              	.LVL60:
 503 0016 FBE7     		b	.L41
 504              	.LVL61:
 505              	.L43:
 458:C:/Users/lenovo/Desktop/liteos/Project2/BearPi_LiteOS/components/security/mbedtls/mbedtls_port\dtls_interface.c ****     }
 506              		.loc 1 458 0
 507 0018 0020     		movs	r0, #0
 508              	.LVL62:
 509 001a F9E7     		b	.L41
 510              		.cfi_endproc
 511              	.LFE149:
 513              		.section	.text.dtls_read,"ax",%progbits
 514              		.align	1
 515              		.global	dtls_read
 516              		.syntax unified
 517              		.thumb
 518              		.thumb_func
 519              		.fpu fpv4-sp-d16
 521              	dtls_read:
 522              	.LFB150:
 467:C:/Users/lenovo/Desktop/liteos/Project2/BearPi_LiteOS/components/security/mbedtls/mbedtls_port\dtls_interface.c **** 
 468:C:/Users/lenovo/Desktop/liteos/Project2/BearPi_LiteOS/components/security/mbedtls/mbedtls_port\dtls_interface.c **** int dtls_read(mbedtls_ssl_context *ssl, unsigned char *buf, size_t len, uint32_t timeout)
 469:C:/Users/lenovo/Desktop/liteos/Project2/BearPi_LiteOS/components/security/mbedtls/mbedtls_port\dtls_interface.c **** {
 523              		.loc 1 469 0
 524              		.cfi_startproc
 525              		@ args = 0, pretend = 0, frame = 0
 526              		@ frame_needed = 0, uses_anonymous_args = 0
 527              	.LVL63:
 528 0000 70B5     		push	{r4, r5, r6, lr}
 529              	.LCFI8:
 530              		.cfi_def_cfa_offset 16
 531              		.cfi_offset 4, -16
 532              		.cfi_offset 5, -12
 533              		.cfi_offset 6, -8
 534              		.cfi_offset 14, -4
 535 0002 0446     		mov	r4, r0
 536 0004 0D46     		mov	r5, r1
 537 0006 1646     		mov	r6, r2
 470:C:/Users/lenovo/Desktop/liteos/Project2/BearPi_LiteOS/components/security/mbedtls/mbedtls_port\dtls_interface.c ****     int ret;
 471:C:/Users/lenovo/Desktop/liteos/Project2/BearPi_LiteOS/components/security/mbedtls/mbedtls_port\dtls_interface.c **** 
 472:C:/Users/lenovo/Desktop/liteos/Project2/BearPi_LiteOS/components/security/mbedtls/mbedtls_port\dtls_interface.c ****     mbedtls_ssl_conf_read_timeout(ssl->conf, timeout);
 538              		.loc 1 472 0
ARM GAS  c:\Users\lenovo\AppData\Local\Temp\cc9y9OZN.s 			page 19


 539 0008 1946     		mov	r1, r3
 540              	.LVL64:
 541 000a 0068     		ldr	r0, [r0]
 542              	.LVL65:
 543 000c FFF7FEFF 		bl	mbedtls_ssl_conf_read_timeout
 544              	.LVL66:
 473:C:/Users/lenovo/Desktop/liteos/Project2/BearPi_LiteOS/components/security/mbedtls/mbedtls_port\dtls_interface.c **** 
 474:C:/Users/lenovo/Desktop/liteos/Project2/BearPi_LiteOS/components/security/mbedtls/mbedtls_port\dtls_interface.c ****     ret = mbedtls_ssl_read(ssl, buf, len);
 545              		.loc 1 474 0
 546 0010 3246     		mov	r2, r6
 547 0012 2946     		mov	r1, r5
 548 0014 2046     		mov	r0, r4
 549 0016 FFF7FEFF 		bl	mbedtls_ssl_read
 550              	.LVL67:
 475:C:/Users/lenovo/Desktop/liteos/Project2/BearPi_LiteOS/components/security/mbedtls/mbedtls_port\dtls_interface.c **** 
 476:C:/Users/lenovo/Desktop/liteos/Project2/BearPi_LiteOS/components/security/mbedtls/mbedtls_port\dtls_interface.c ****     if (ret == MBEDTLS_ERR_SSL_WANT_READ)
 551              		.loc 1 476 0
 552 001a 10F5D24F 		cmn	r0, #26880
 553 001e 08D0     		beq	.L48
 477:C:/Users/lenovo/Desktop/liteos/Project2/BearPi_LiteOS/components/security/mbedtls/mbedtls_port\dtls_interface.c ****     {
 478:C:/Users/lenovo/Desktop/liteos/Project2/BearPi_LiteOS/components/security/mbedtls/mbedtls_port\dtls_interface.c ****         return 0;
 479:C:/Users/lenovo/Desktop/liteos/Project2/BearPi_LiteOS/components/security/mbedtls/mbedtls_port\dtls_interface.c ****     }
 480:C:/Users/lenovo/Desktop/liteos/Project2/BearPi_LiteOS/components/security/mbedtls/mbedtls_port\dtls_interface.c ****     else if (ret == MBEDTLS_ERR_SSL_TIMEOUT)
 554              		.loc 1 480 0
 555 0020 10F5D04F 		cmn	r0, #26624
 556 0024 07D0     		beq	.L49
 481:C:/Users/lenovo/Desktop/liteos/Project2/BearPi_LiteOS/components/security/mbedtls/mbedtls_port\dtls_interface.c ****     {
 482:C:/Users/lenovo/Desktop/liteos/Project2/BearPi_LiteOS/components/security/mbedtls/mbedtls_port\dtls_interface.c ****         return -2;
 483:C:/Users/lenovo/Desktop/liteos/Project2/BearPi_LiteOS/components/security/mbedtls/mbedtls_port\dtls_interface.c ****     }
 484:C:/Users/lenovo/Desktop/liteos/Project2/BearPi_LiteOS/components/security/mbedtls/mbedtls_port\dtls_interface.c ****     else if (ret < 0)
 557              		.loc 1 484 0
 558 0026 0028     		cmp	r0, #0
 559 0028 00DB     		blt	.L51
 560              	.LVL68:
 561              	.L46:
 485:C:/Users/lenovo/Desktop/liteos/Project2/BearPi_LiteOS/components/security/mbedtls/mbedtls_port\dtls_interface.c ****     {
 486:C:/Users/lenovo/Desktop/liteos/Project2/BearPi_LiteOS/components/security/mbedtls/mbedtls_port\dtls_interface.c ****         return -1;
 487:C:/Users/lenovo/Desktop/liteos/Project2/BearPi_LiteOS/components/security/mbedtls/mbedtls_port\dtls_interface.c ****     }
 488:C:/Users/lenovo/Desktop/liteos/Project2/BearPi_LiteOS/components/security/mbedtls/mbedtls_port\dtls_interface.c **** 
 489:C:/Users/lenovo/Desktop/liteos/Project2/BearPi_LiteOS/components/security/mbedtls/mbedtls_port\dtls_interface.c ****     return ret;
 490:C:/Users/lenovo/Desktop/liteos/Project2/BearPi_LiteOS/components/security/mbedtls/mbedtls_port\dtls_interface.c **** }
 562              		.loc 1 490 0
 563 002a 70BD     		pop	{r4, r5, r6, pc}
 564              	.LVL69:
 565              	.L51:
 486:C:/Users/lenovo/Desktop/liteos/Project2/BearPi_LiteOS/components/security/mbedtls/mbedtls_port\dtls_interface.c ****     }
 566              		.loc 1 486 0
 567 002c 4FF0FF30 		mov	r0, #-1
 568              	.LVL70:
 569 0030 FBE7     		b	.L46
 570              	.LVL71:
 571              	.L48:
 478:C:/Users/lenovo/Desktop/liteos/Project2/BearPi_LiteOS/components/security/mbedtls/mbedtls_port\dtls_interface.c ****     }
 572              		.loc 1 478 0
 573 0032 0020     		movs	r0, #0
 574              	.LVL72:
 575 0034 F9E7     		b	.L46
ARM GAS  c:\Users\lenovo\AppData\Local\Temp\cc9y9OZN.s 			page 20


 576              	.LVL73:
 577              	.L49:
 482:C:/Users/lenovo/Desktop/liteos/Project2/BearPi_LiteOS/components/security/mbedtls/mbedtls_port\dtls_interface.c ****     }
 578              		.loc 1 482 0
 579 0036 6FF00100 		mvn	r0, #1
 580              	.LVL74:
 581 003a F6E7     		b	.L46
 582              		.cfi_endproc
 583              	.LFE150:
 585              		.section	.text.dtls_init,"ax",%progbits
 586              		.align	1
 587              		.global	dtls_init
 588              		.syntax unified
 589              		.thumb
 590              		.thumb_func
 591              		.fpu fpv4-sp-d16
 593              	dtls_init:
 594              	.LFB151:
 491:C:/Users/lenovo/Desktop/liteos/Project2/BearPi_LiteOS/components/security/mbedtls/mbedtls_port\dtls_interface.c **** 
 492:C:/Users/lenovo/Desktop/liteos/Project2/BearPi_LiteOS/components/security/mbedtls/mbedtls_port\dtls_interface.c **** void dtls_init(void)
 493:C:/Users/lenovo/Desktop/liteos/Project2/BearPi_LiteOS/components/security/mbedtls/mbedtls_port\dtls_interface.c **** {
 595              		.loc 1 493 0
 596              		.cfi_startproc
 597              		@ args = 0, pretend = 0, frame = 0
 598              		@ frame_needed = 0, uses_anonymous_args = 0
 599 0000 08B5     		push	{r3, lr}
 600              	.LCFI9:
 601              		.cfi_def_cfa_offset 8
 602              		.cfi_offset 3, -8
 603              		.cfi_offset 14, -4
 494:C:/Users/lenovo/Desktop/liteos/Project2/BearPi_LiteOS/components/security/mbedtls/mbedtls_port\dtls_interface.c ****     (void)mbedtls_platform_set_calloc_free(atiny_calloc, atiny_free);
 604              		.loc 1 494 0
 605 0002 0549     		ldr	r1, .L54
 606 0004 0548     		ldr	r0, .L54+4
 607 0006 FFF7FEFF 		bl	mbedtls_platform_set_calloc_free
 608              	.LVL75:
 495:C:/Users/lenovo/Desktop/liteos/Project2/BearPi_LiteOS/components/security/mbedtls/mbedtls_port\dtls_interface.c ****     (void)mbedtls_platform_set_snprintf(atiny_snprintf);
 609              		.loc 1 495 0
 610 000a 0548     		ldr	r0, .L54+8
 611 000c FFF7FEFF 		bl	mbedtls_platform_set_snprintf
 612              	.LVL76:
 496:C:/Users/lenovo/Desktop/liteos/Project2/BearPi_LiteOS/components/security/mbedtls/mbedtls_port\dtls_interface.c ****     (void)mbedtls_platform_set_printf(atiny_printf);
 613              		.loc 1 496 0
 614 0010 0448     		ldr	r0, .L54+12
 615 0012 FFF7FEFF 		bl	mbedtls_platform_set_printf
 616              	.LVL77:
 497:C:/Users/lenovo/Desktop/liteos/Project2/BearPi_LiteOS/components/security/mbedtls/mbedtls_port\dtls_interface.c **** }
 617              		.loc 1 497 0
 618 0016 08BD     		pop	{r3, pc}
 619              	.L55:
 620              		.align	2
 621              	.L54:
 622 0018 00000000 		.word	atiny_free
 623 001c 00000000 		.word	atiny_calloc
 624 0020 00000000 		.word	atiny_snprintf
 625 0024 00000000 		.word	atiny_printf
 626              		.cfi_endproc
ARM GAS  c:\Users\lenovo\AppData\Local\Temp\cc9y9OZN.s 			page 21


 627              	.LFE151:
 629              		.section	.text.dtls_ssl_new,"ax",%progbits
 630              		.align	1
 631              		.global	dtls_ssl_new
 632              		.syntax unified
 633              		.thumb
 634              		.thumb_func
 635              		.fpu fpv4-sp-d16
 637              	dtls_ssl_new:
 638              	.LFB145:
  87:C:/Users/lenovo/Desktop/liteos/Project2/BearPi_LiteOS/components/security/mbedtls/mbedtls_port\dtls_interface.c ****     int ret;
 639              		.loc 1 87 0
 640              		.cfi_startproc
 641              		@ args = 0, pretend = 0, frame = 8
 642              		@ frame_needed = 0, uses_anonymous_args = 0
 643              	.LVL78:
 644 0000 2DE9F04F 		push	{r4, r5, r6, r7, r8, r9, r10, fp, lr}
 645              	.LCFI10:
 646              		.cfi_def_cfa_offset 36
 647              		.cfi_offset 4, -36
 648              		.cfi_offset 5, -32
 649              		.cfi_offset 6, -28
 650              		.cfi_offset 7, -24
 651              		.cfi_offset 8, -20
 652              		.cfi_offset 9, -16
 653              		.cfi_offset 10, -12
 654              		.cfi_offset 11, -8
 655              		.cfi_offset 14, -4
 656 0004 85B0     		sub	sp, sp, #20
 657              	.LCFI11:
 658              		.cfi_def_cfa_offset 56
 659 0006 8146     		mov	r9, r0
 660 0008 8A46     		mov	r10, r1
 661              	.LVL79:
 100:C:/Users/lenovo/Desktop/liteos/Project2/BearPi_LiteOS/components/security/mbedtls/mbedtls_port\dtls_interface.c **** 
 662              		.loc 1 100 0
 663 000a FFF7FEFF 		bl	dtls_init
 664              	.LVL80:
 102:C:/Users/lenovo/Desktop/liteos/Project2/BearPi_LiteOS/components/security/mbedtls/mbedtls_port\dtls_interface.c ****     conf      = mbedtls_calloc(1, sizeof(mbedtls_ssl_config));
 665              		.loc 1 102 0
 666 000e 804F     		ldr	r7, .L86
 667 0010 3B68     		ldr	r3, [r7]
 668 0012 F821     		movs	r1, #248
 669 0014 0120     		movs	r0, #1
 670 0016 9847     		blx	r3
 671              	.LVL81:
 672 0018 0446     		mov	r4, r0
 673              	.LVL82:
 103:C:/Users/lenovo/Desktop/liteos/Project2/BearPi_LiteOS/components/security/mbedtls/mbedtls_port\dtls_interface.c ****     entropy   = mbedtls_calloc(1, sizeof(mbedtls_entropy_context));
 674              		.loc 1 103 0
 675 001a 3B68     		ldr	r3, [r7]
 676 001c 7021     		movs	r1, #112
 677 001e 0120     		movs	r0, #1
 678              	.LVL83:
 679 0020 9847     		blx	r3
 680              	.LVL84:
 681 0022 0546     		mov	r5, r0
ARM GAS  c:\Users\lenovo\AppData\Local\Temp\cc9y9OZN.s 			page 22


 682              	.LVL85:
 104:C:/Users/lenovo/Desktop/liteos/Project2/BearPi_LiteOS/components/security/mbedtls/mbedtls_port\dtls_interface.c ****     ctr_drbg  = mbedtls_calloc(1, sizeof(mbedtls_ctr_drbg_context));
 683              		.loc 1 104 0
 684 0024 3B68     		ldr	r3, [r7]
 685 0026 8421     		movs	r1, #132
 686 0028 0120     		movs	r0, #1
 687              	.LVL86:
 688 002a 9847     		blx	r3
 689              	.LVL87:
 690 002c 0646     		mov	r6, r0
 691              	.LVL88:
 105:C:/Users/lenovo/Desktop/liteos/Project2/BearPi_LiteOS/components/security/mbedtls/mbedtls_port\dtls_interface.c **** #if defined(MBEDTLS_X509_CRT_PARSE_C)
 692              		.loc 1 105 0
 693 002e 3B68     		ldr	r3, [r7]
 694 0030 4FF4A071 		mov	r1, #320
 695 0034 0120     		movs	r0, #1
 696              	.LVL89:
 697 0036 9847     		blx	r3
 698              	.LVL90:
 699 0038 0746     		mov	r7, r0
 700              	.LVL91:
 110:C:/Users/lenovo/Desktop/liteos/Project2/BearPi_LiteOS/components/security/mbedtls/mbedtls_port\dtls_interface.c ****         || NULL == conf || NULL == entropy
 701              		.loc 1 110 0
 702 003a B9F1000F 		cmp	r9, #0
 703 003e 00F0AD80 		beq	.L73
 110:C:/Users/lenovo/Desktop/liteos/Project2/BearPi_LiteOS/components/security/mbedtls/mbedtls_port\dtls_interface.c ****         || NULL == conf || NULL == entropy
 704              		.loc 1 110 0 is_stmt 0 discriminator 1
 705 0042 002C     		cmp	r4, #0
 706 0044 00F0D880 		beq	.L74
 111:C:/Users/lenovo/Desktop/liteos/Project2/BearPi_LiteOS/components/security/mbedtls/mbedtls_port\dtls_interface.c ****         || NULL == ctr_drbg
 707              		.loc 1 111 0 is_stmt 1
 708 0048 002D     		cmp	r5, #0
 709 004a 00F0D880 		beq	.L75
 111:C:/Users/lenovo/Desktop/liteos/Project2/BearPi_LiteOS/components/security/mbedtls/mbedtls_port\dtls_interface.c ****         || NULL == ctr_drbg
 710              		.loc 1 111 0 is_stmt 0 discriminator 1
 711 004e 002E     		cmp	r6, #0
 712 0050 00F0D880 		beq	.L76
 112:C:/Users/lenovo/Desktop/liteos/Project2/BearPi_LiteOS/components/security/mbedtls/mbedtls_port\dtls_interface.c **** #if defined(MBEDTLS_X509_CRT_PARSE_C)
 713              		.loc 1 112 0 is_stmt 1
 714 0054 0028     		cmp	r0, #0
 715 0056 00F0D880 		beq	.L77
 121:C:/Users/lenovo/Desktop/liteos/Project2/BearPi_LiteOS/components/security/mbedtls/mbedtls_port\dtls_interface.c ****     {
 716              		.loc 1 121 0
 717 005a D9F81030 		ldr	r3, [r9, #16]
 718 005e 012B     		cmp	r3, #1
 719 0060 24D1     		bne	.L78
 123:C:/Users/lenovo/Desktop/liteos/Project2/BearPi_LiteOS/components/security/mbedtls/mbedtls_port\dtls_interface.c ****         if (NULL == timer) goto exit_fail;
 720              		.loc 1 123 0
 721 0062 6B4B     		ldr	r3, .L86
 722 0064 1B68     		ldr	r3, [r3]
 723 0066 2821     		movs	r1, #40
 724 0068 0120     		movs	r0, #1
 725              	.LVL92:
 726 006a 9847     		blx	r3
 727              	.LVL93:
 124:C:/Users/lenovo/Desktop/liteos/Project2/BearPi_LiteOS/components/security/mbedtls/mbedtls_port\dtls_interface.c ****     }
 728              		.loc 1 124 0
ARM GAS  c:\Users\lenovo\AppData\Local\Temp\cc9y9OZN.s 			page 23


 729 006c 8046     		mov	r8, r0
 730 006e 0028     		cmp	r0, #0
 731 0070 00F09680 		beq	.L57
 732              	.LVL94:
 733              	.L58:
 127:C:/Users/lenovo/Desktop/liteos/Project2/BearPi_LiteOS/components/security/mbedtls/mbedtls_port\dtls_interface.c ****     mbedtls_ssl_config_init(conf);
 734              		.loc 1 127 0
 735 0074 2046     		mov	r0, r4
 736 0076 FFF7FEFF 		bl	mbedtls_ssl_init
 737              	.LVL95:
 128:C:/Users/lenovo/Desktop/liteos/Project2/BearPi_LiteOS/components/security/mbedtls/mbedtls_port\dtls_interface.c ****     mbedtls_ctr_drbg_init(ctr_drbg);
 738              		.loc 1 128 0
 739 007a 2846     		mov	r0, r5
 740 007c FFF7FEFF 		bl	mbedtls_ssl_config_init
 741              	.LVL96:
 129:C:/Users/lenovo/Desktop/liteos/Project2/BearPi_LiteOS/components/security/mbedtls/mbedtls_port\dtls_interface.c ****     mbedtls_entropy_init(entropy);
 742              		.loc 1 129 0
 743 0080 3846     		mov	r0, r7
 744 0082 FFF7FEFF 		bl	mbedtls_ctr_drbg_init
 745              	.LVL97:
 130:C:/Users/lenovo/Desktop/liteos/Project2/BearPi_LiteOS/components/security/mbedtls/mbedtls_port\dtls_interface.c **** 
 746              		.loc 1 130 0
 747 0086 3046     		mov	r0, r6
 748 0088 FFF7FEFF 		bl	mbedtls_entropy_init
 749              	.LVL98:
 139:C:/Users/lenovo/Desktop/liteos/Project2/BearPi_LiteOS/components/security/mbedtls/mbedtls_port\dtls_interface.c ****                                      (const unsigned char *) pers,
 750              		.loc 1 139 0
 751 008c 0A23     		movs	r3, #10
 752 008e 0093     		str	r3, [sp]
 753 0090 604B     		ldr	r3, .L86+4
 754 0092 3246     		mov	r2, r6
 755 0094 6049     		ldr	r1, .L86+8
 756 0096 3846     		mov	r0, r7
 757 0098 FFF7FEFF 		bl	mbedtls_ctr_drbg_seed
 758              	.LVL99:
 759 009c 48B1     		cbz	r0, .L59
 143:C:/Users/lenovo/Desktop/liteos/Project2/BearPi_LiteOS/components/security/mbedtls/mbedtls_port\dtls_interface.c ****         goto exit_fail;
 760              		.loc 1 143 0
 761 009e 4342     		negs	r3, r0
 762 00a0 8F22     		movs	r2, #143
 763 00a2 5E49     		ldr	r1, .L86+12
 764 00a4 5E48     		ldr	r0, .L86+16
 765              	.LVL100:
 766 00a6 FFF7FEFF 		bl	atiny_printf
 767              	.LVL101:
 144:C:/Users/lenovo/Desktop/liteos/Project2/BearPi_LiteOS/components/security/mbedtls/mbedtls_port\dtls_interface.c ****     }
 768              		.loc 1 144 0
 769 00aa 79E0     		b	.L57
 770              	.LVL102:
 771              	.L78:
  93:C:/Users/lenovo/Desktop/liteos/Project2/BearPi_LiteOS/components/security/mbedtls/mbedtls_port\dtls_interface.c **** #if defined(MBEDTLS_X509_CRT_PARSE_C)
 772              		.loc 1 93 0
 773 00ac 4FF00008 		mov	r8, #0
 774 00b0 E0E7     		b	.L58
 775              	.LVL103:
 776              	.L59:
 147:C:/Users/lenovo/Desktop/liteos/Project2/BearPi_LiteOS/components/security/mbedtls/mbedtls_port\dtls_interface.c **** 
ARM GAS  c:\Users\lenovo\AppData\Local\Temp\cc9y9OZN.s 			page 24


 777              		.loc 1 147 0
 778 00b2 9322     		movs	r2, #147
 779 00b4 5949     		ldr	r1, .L86+12
 780 00b6 5B48     		ldr	r0, .L86+20
 781              	.LVL104:
 782 00b8 FFF7FEFF 		bl	atiny_printf
 783              	.LVL105:
 149:C:/Users/lenovo/Desktop/liteos/Project2/BearPi_LiteOS/components/security/mbedtls/mbedtls_port\dtls_interface.c ****     {
 784              		.loc 1 149 0
 785 00bc D9F81030 		ldr	r3, [r9, #16]
 786 00c0 012B     		cmp	r3, #1
 787 00c2 0DD0     		beq	.L80
 158:C:/Users/lenovo/Desktop/liteos/Project2/BearPi_LiteOS/components/security/mbedtls/mbedtls_port\dtls_interface.c ****                                           plat_type,
 788              		.loc 1 158 0
 789 00c4 0023     		movs	r3, #0
 790 00c6 1A46     		mov	r2, r3
 791 00c8 5146     		mov	r1, r10
 792 00ca 2846     		mov	r0, r5
 793 00cc FFF7FEFF 		bl	mbedtls_ssl_config_defaults
 794              	.LVL106:
 795              	.L61:
 164:C:/Users/lenovo/Desktop/liteos/Project2/BearPi_LiteOS/components/security/mbedtls/mbedtls_port\dtls_interface.c ****     {
 796              		.loc 1 164 0
 797 00d0 68B1     		cbz	r0, .L62
 166:C:/Users/lenovo/Desktop/liteos/Project2/BearPi_LiteOS/components/security/mbedtls/mbedtls_port\dtls_interface.c ****         goto exit_fail;
 798              		.loc 1 166 0
 799 00d2 4342     		negs	r3, r0
 800 00d4 A622     		movs	r2, #166
 801 00d6 5149     		ldr	r1, .L86+12
 802 00d8 5348     		ldr	r0, .L86+24
 803              	.LVL107:
 804 00da FFF7FEFF 		bl	atiny_printf
 805              	.LVL108:
 167:C:/Users/lenovo/Desktop/liteos/Project2/BearPi_LiteOS/components/security/mbedtls/mbedtls_port\dtls_interface.c ****     }
 806              		.loc 1 167 0
 807 00de 5FE0     		b	.L57
 808              	.L80:
 151:C:/Users/lenovo/Desktop/liteos/Project2/BearPi_LiteOS/components/security/mbedtls/mbedtls_port\dtls_interface.c ****                                           plat_type,
 809              		.loc 1 151 0
 810 00e0 0023     		movs	r3, #0
 811 00e2 0122     		movs	r2, #1
 812 00e4 5146     		mov	r1, r10
 813 00e6 2846     		mov	r0, r5
 814 00e8 FFF7FEFF 		bl	mbedtls_ssl_config_defaults
 815              	.LVL109:
 816 00ec F0E7     		b	.L61
 817              	.L62:
 170:C:/Users/lenovo/Desktop/liteos/Project2/BearPi_LiteOS/components/security/mbedtls/mbedtls_port\dtls_interface.c ****     mbedtls_ssl_conf_rng(conf, mbedtls_ctr_drbg_random, ctr_drbg);
 818              		.loc 1 170 0
 819 00ee 0121     		movs	r1, #1
 820 00f0 2846     		mov	r0, r5
 821              	.LVL110:
 822 00f2 FFF7FEFF 		bl	mbedtls_ssl_conf_authmode
 823              	.LVL111:
 171:C:/Users/lenovo/Desktop/liteos/Project2/BearPi_LiteOS/components/security/mbedtls/mbedtls_port\dtls_interface.c **** 
 824              		.loc 1 171 0
 825 00f6 3A46     		mov	r2, r7
ARM GAS  c:\Users\lenovo\AppData\Local\Temp\cc9y9OZN.s 			page 25


 826 00f8 4C49     		ldr	r1, .L86+28
 827 00fa 2846     		mov	r0, r5
 828 00fc FFF7FEFF 		bl	mbedtls_ssl_conf_rng
 829              	.LVL112:
 173:C:/Users/lenovo/Desktop/liteos/Project2/BearPi_LiteOS/components/security/mbedtls/mbedtls_port\dtls_interface.c ****     {
 830              		.loc 1 173 0
 831 0100 D9F81030 		ldr	r3, [r9, #16]
 832 0104 ABB1     		cbz	r3, .L81
 833              	.L63:
 179:C:/Users/lenovo/Desktop/liteos/Project2/BearPi_LiteOS/components/security/mbedtls/mbedtls_port\dtls_interface.c ****     {
 834              		.loc 1 179 0
 835 0106 99F80C30 		ldrb	r3, [r9, #12]	@ zero_extendqisi2
 836 010a C3B1     		cbz	r3, .L82
 837              	.L64:
 209:C:/Users/lenovo/Desktop/liteos/Project2/BearPi_LiteOS/components/security/mbedtls/mbedtls_port\dtls_interface.c ****     {
 838              		.loc 1 209 0
 839 010c D9F81030 		ldr	r3, [r9, #16]
 840 0110 012B     		cmp	r3, #1
 841 0112 2ED0     		beq	.L83
 842              	.L65:
 214:C:/Users/lenovo/Desktop/liteos/Project2/BearPi_LiteOS/components/security/mbedtls/mbedtls_port\dtls_interface.c ****     {
 843              		.loc 1 214 0
 844 0114 2946     		mov	r1, r5
 845 0116 2046     		mov	r0, r4
 846 0118 FFF7FEFF 		bl	mbedtls_ssl_setup
 847              	.LVL113:
 848 011c 80BB     		cbnz	r0, .L84
 220:C:/Users/lenovo/Desktop/liteos/Project2/BearPi_LiteOS/components/security/mbedtls/mbedtls_port\dtls_interface.c ****     {
 849              		.loc 1 220 0
 850 011e D9F81030 		ldr	r3, [r9, #16]
 851 0122 012B     		cmp	r3, #1
 852 0124 33D0     		beq	.L85
 853              	.LVL114:
 854              	.L67:
 226:C:/Users/lenovo/Desktop/liteos/Project2/BearPi_LiteOS/components/security/mbedtls/mbedtls_port\dtls_interface.c **** 
 855              		.loc 1 226 0
 856 0126 E222     		movs	r2, #226
 857 0128 3C49     		ldr	r1, .L86+12
 858 012a 4148     		ldr	r0, .L86+32
 859 012c FFF7FEFF 		bl	atiny_printf
 860              	.LVL115:
 228:C:/Users/lenovo/Desktop/liteos/Project2/BearPi_LiteOS/components/security/mbedtls/mbedtls_port\dtls_interface.c **** 
 861              		.loc 1 228 0
 862 0130 5EE0     		b	.L56
 863              	.L81:
 175:C:/Users/lenovo/Desktop/liteos/Project2/BearPi_LiteOS/components/security/mbedtls/mbedtls_port\dtls_interface.c ****     }
 864              		.loc 1 175 0
 865 0132 4FF47A71 		mov	r1, #1000
 866 0136 2846     		mov	r0, r5
 867 0138 FFF7FEFF 		bl	mbedtls_ssl_conf_read_timeout
 868              	.LVL116:
 869 013c E3E7     		b	.L63
 870              	.L82:
 181:C:/Users/lenovo/Desktop/liteos/Project2/BearPi_LiteOS/components/security/mbedtls/mbedtls_port\dtls_interface.c ****                                         info->v.p.psk,
 871              		.loc 1 181 0
 872 013e D9F80030 		ldr	r3, [r9]
 873 0142 0393     		str	r3, [sp, #12]
ARM GAS  c:\Users\lenovo\AppData\Local\Temp\cc9y9OZN.s 			page 26


 183:C:/Users/lenovo/Desktop/liteos/Project2/BearPi_LiteOS/components/security/mbedtls/mbedtls_port\dtls_interface.c ****                                         info->v.p.psk_identity,
 874              		.loc 1 183 0
 875 0144 D9F804B0 		ldr	fp, [r9, #4]
 181:C:/Users/lenovo/Desktop/liteos/Project2/BearPi_LiteOS/components/security/mbedtls/mbedtls_port\dtls_interface.c ****                                         info->v.p.psk,
 876              		.loc 1 181 0
 877 0148 D9F808A0 		ldr	r10, [r9, #8]
 878 014c 5046     		mov	r0, r10
 879 014e FFF7FEFF 		bl	strlen
 880              	.LVL117:
 881 0152 0090     		str	r0, [sp]
 882 0154 5346     		mov	r3, r10
 883 0156 5A46     		mov	r2, fp
 884 0158 0399     		ldr	r1, [sp, #12]
 885 015a 2846     		mov	r0, r5
 886 015c FFF7FEFF 		bl	mbedtls_ssl_conf_psk
 887              	.LVL118:
 888 0160 0028     		cmp	r0, #0
 889 0162 D3D0     		beq	.L64
 187:C:/Users/lenovo/Desktop/liteos/Project2/BearPi_LiteOS/components/security/mbedtls/mbedtls_port\dtls_interface.c ****             goto exit_fail;
 890              		.loc 1 187 0
 891 0164 4342     		negs	r3, r0
 892 0166 BB22     		movs	r2, #187
 893 0168 2C49     		ldr	r1, .L86+12
 894 016a 3248     		ldr	r0, .L86+36
 895              	.LVL119:
 896 016c FFF7FEFF 		bl	atiny_printf
 897              	.LVL120:
 188:C:/Users/lenovo/Desktop/liteos/Project2/BearPi_LiteOS/components/security/mbedtls/mbedtls_port\dtls_interface.c ****         }
 898              		.loc 1 188 0
 899 0170 16E0     		b	.L57
 900              	.L83:
 211:C:/Users/lenovo/Desktop/liteos/Project2/BearPi_LiteOS/components/security/mbedtls/mbedtls_port\dtls_interface.c ****     }
 901              		.loc 1 211 0
 902 0172 0023     		movs	r3, #0
 903 0174 1A46     		mov	r2, r3
 904 0176 1946     		mov	r1, r3
 905 0178 2846     		mov	r0, r5
 906 017a FFF7FEFF 		bl	mbedtls_ssl_conf_dtls_cookies
 907              	.LVL121:
 908 017e C9E7     		b	.L65
 909              	.LVL122:
 910              	.L84:
 216:C:/Users/lenovo/Desktop/liteos/Project2/BearPi_LiteOS/components/security/mbedtls/mbedtls_port\dtls_interface.c ****         goto exit_fail;
 911              		.loc 1 216 0
 912 0180 4342     		negs	r3, r0
 913 0182 D822     		movs	r2, #216
 914 0184 2549     		ldr	r1, .L86+12
 915 0186 2C48     		ldr	r0, .L86+40
 916              	.LVL123:
 917 0188 FFF7FEFF 		bl	atiny_printf
 918              	.LVL124:
 217:C:/Users/lenovo/Desktop/liteos/Project2/BearPi_LiteOS/components/security/mbedtls/mbedtls_port\dtls_interface.c ****     }
 919              		.loc 1 217 0
 920 018c 08E0     		b	.L57
 921              	.LVL125:
 922              	.L85:
 222:C:/Users/lenovo/Desktop/liteos/Project2/BearPi_LiteOS/components/security/mbedtls/mbedtls_port\dtls_interface.c ****                                  mbedtls_timing_get_delay);
ARM GAS  c:\Users\lenovo\AppData\Local\Temp\cc9y9OZN.s 			page 27


 923              		.loc 1 222 0
 924 018e 2B4B     		ldr	r3, .L86+44
 925 0190 2B4A     		ldr	r2, .L86+48
 926 0192 4146     		mov	r1, r8
 927 0194 2046     		mov	r0, r4
 928              	.LVL126:
 929 0196 FFF7FEFF 		bl	mbedtls_ssl_set_timer_cb
 930              	.LVL127:
 931 019a C4E7     		b	.L67
 932              	.LVL128:
 933              	.L73:
  93:C:/Users/lenovo/Desktop/liteos/Project2/BearPi_LiteOS/components/security/mbedtls/mbedtls_port\dtls_interface.c **** #if defined(MBEDTLS_X509_CRT_PARSE_C)
 934              		.loc 1 93 0
 935 019c 4FF00008 		mov	r8, #0
 936              	.LVL129:
 937              	.L57:
 232:C:/Users/lenovo/Desktop/liteos/Project2/BearPi_LiteOS/components/security/mbedtls/mbedtls_port\dtls_interface.c ****     {
 938              		.loc 1 232 0
 939 01a0 35B1     		cbz	r5, .L69
 234:C:/Users/lenovo/Desktop/liteos/Project2/BearPi_LiteOS/components/security/mbedtls/mbedtls_port\dtls_interface.c ****         mbedtls_free(conf);
 940              		.loc 1 234 0
 941 01a2 2846     		mov	r0, r5
 942 01a4 FFF7FEFF 		bl	mbedtls_ssl_config_free
 943              	.LVL130:
 235:C:/Users/lenovo/Desktop/liteos/Project2/BearPi_LiteOS/components/security/mbedtls/mbedtls_port\dtls_interface.c ****     }
 944              		.loc 1 235 0
 945 01a8 264B     		ldr	r3, .L86+52
 946 01aa 1B68     		ldr	r3, [r3]
 947 01ac 2846     		mov	r0, r5
 948 01ae 9847     		blx	r3
 949              	.LVL131:
 950              	.L69:
 238:C:/Users/lenovo/Desktop/liteos/Project2/BearPi_LiteOS/components/security/mbedtls/mbedtls_port\dtls_interface.c ****     {
 951              		.loc 1 238 0
 952 01b0 37B1     		cbz	r7, .L70
 240:C:/Users/lenovo/Desktop/liteos/Project2/BearPi_LiteOS/components/security/mbedtls/mbedtls_port\dtls_interface.c ****         mbedtls_free(ctr_drbg);
 953              		.loc 1 240 0
 954 01b2 3846     		mov	r0, r7
 955 01b4 FFF7FEFF 		bl	mbedtls_ctr_drbg_free
 956              	.LVL132:
 241:C:/Users/lenovo/Desktop/liteos/Project2/BearPi_LiteOS/components/security/mbedtls/mbedtls_port\dtls_interface.c ****     }
 957              		.loc 1 241 0
 958 01b8 224B     		ldr	r3, .L86+52
 959 01ba 1B68     		ldr	r3, [r3]
 960 01bc 3846     		mov	r0, r7
 961 01be 9847     		blx	r3
 962              	.LVL133:
 963              	.L70:
 244:C:/Users/lenovo/Desktop/liteos/Project2/BearPi_LiteOS/components/security/mbedtls/mbedtls_port\dtls_interface.c ****     {
 964              		.loc 1 244 0
 965 01c0 36B1     		cbz	r6, .L71
 246:C:/Users/lenovo/Desktop/liteos/Project2/BearPi_LiteOS/components/security/mbedtls/mbedtls_port\dtls_interface.c ****         mbedtls_free(entropy);
 966              		.loc 1 246 0
 967 01c2 3046     		mov	r0, r6
 968 01c4 FFF7FEFF 		bl	mbedtls_entropy_free
 969              	.LVL134:
 247:C:/Users/lenovo/Desktop/liteos/Project2/BearPi_LiteOS/components/security/mbedtls/mbedtls_port\dtls_interface.c ****     }
ARM GAS  c:\Users\lenovo\AppData\Local\Temp\cc9y9OZN.s 			page 28


 970              		.loc 1 247 0
 971 01c8 1E4B     		ldr	r3, .L86+52
 972 01ca 1B68     		ldr	r3, [r3]
 973 01cc 3046     		mov	r0, r6
 974 01ce 9847     		blx	r3
 975              	.LVL135:
 976              	.L71:
 250:C:/Users/lenovo/Desktop/liteos/Project2/BearPi_LiteOS/components/security/mbedtls/mbedtls_port\dtls_interface.c ****     {
 977              		.loc 1 250 0
 978 01d0 B8F1000F 		cmp	r8, #0
 979 01d4 03D0     		beq	.L72
 252:C:/Users/lenovo/Desktop/liteos/Project2/BearPi_LiteOS/components/security/mbedtls/mbedtls_port\dtls_interface.c ****     }
 980              		.loc 1 252 0
 981 01d6 1B4B     		ldr	r3, .L86+52
 982 01d8 1B68     		ldr	r3, [r3]
 983 01da 4046     		mov	r0, r8
 984 01dc 9847     		blx	r3
 985              	.LVL136:
 986              	.L72:
 263:C:/Users/lenovo/Desktop/liteos/Project2/BearPi_LiteOS/components/security/mbedtls/mbedtls_port\dtls_interface.c ****     {
 987              		.loc 1 263 0
 988 01de 3CB1     		cbz	r4, .L56
 265:C:/Users/lenovo/Desktop/liteos/Project2/BearPi_LiteOS/components/security/mbedtls/mbedtls_port\dtls_interface.c ****         mbedtls_free(ssl);
 989              		.loc 1 265 0
 990 01e0 2046     		mov	r0, r4
 991 01e2 FFF7FEFF 		bl	mbedtls_ssl_free
 992              	.LVL137:
 266:C:/Users/lenovo/Desktop/liteos/Project2/BearPi_LiteOS/components/security/mbedtls/mbedtls_port\dtls_interface.c ****     }
 993              		.loc 1 266 0
 994 01e6 174B     		ldr	r3, .L86+52
 995 01e8 1B68     		ldr	r3, [r3]
 996 01ea 2046     		mov	r0, r4
 997 01ec 9847     		blx	r3
 998              	.LVL138:
 268:C:/Users/lenovo/Desktop/liteos/Project2/BearPi_LiteOS/components/security/mbedtls/mbedtls_port\dtls_interface.c **** }
 999              		.loc 1 268 0
 1000 01ee 0024     		movs	r4, #0
 1001              	.LVL139:
 1002              	.L56:
 269:C:/Users/lenovo/Desktop/liteos/Project2/BearPi_LiteOS/components/security/mbedtls/mbedtls_port\dtls_interface.c **** 
 1003              		.loc 1 269 0
 1004 01f0 2046     		mov	r0, r4
 1005 01f2 05B0     		add	sp, sp, #20
 1006              	.LCFI12:
 1007              		.cfi_remember_state
 1008              		.cfi_def_cfa_offset 36
 1009              		@ sp needed
 1010 01f4 BDE8F08F 		pop	{r4, r5, r6, r7, r8, r9, r10, fp, pc}
 1011              	.LVL140:
 1012              	.L74:
 1013              	.LCFI13:
 1014              		.cfi_restore_state
  93:C:/Users/lenovo/Desktop/liteos/Project2/BearPi_LiteOS/components/security/mbedtls/mbedtls_port\dtls_interface.c **** #if defined(MBEDTLS_X509_CRT_PARSE_C)
 1015              		.loc 1 93 0
 1016 01f8 4FF00008 		mov	r8, #0
 1017 01fc D0E7     		b	.L57
 1018              	.L75:
ARM GAS  c:\Users\lenovo\AppData\Local\Temp\cc9y9OZN.s 			page 29


 1019 01fe 4FF00008 		mov	r8, #0
 1020 0202 CDE7     		b	.L57
 1021              	.L76:
 1022 0204 4FF00008 		mov	r8, #0
 1023 0208 CAE7     		b	.L57
 1024              	.L77:
 1025 020a 4FF00008 		mov	r8, #0
 1026 020e C7E7     		b	.L57
 1027              	.L87:
 1028              		.align	2
 1029              	.L86:
 1030 0210 00000000 		.word	mbedtls_calloc
 1031 0214 00000000 		.word	.LC5
 1032 0218 00000000 		.word	mbedtls_entropy_func
 1033 021c 00000000 		.word	.LANCHOR1
 1034 0220 0C000000 		.word	.LC6
 1035 0224 44000000 		.word	.LC7
 1036 0228 74000000 		.word	.LC8
 1037 022c 00000000 		.word	mbedtls_ctr_drbg_random
 1038 0230 20010000 		.word	.LC11
 1039 0234 B4000000 		.word	.LC9
 1040 0238 EC000000 		.word	.LC10
 1041 023c 00000000 		.word	mbedtls_timing_get_delay
 1042 0240 00000000 		.word	mbedtls_timing_set_delay
 1043 0244 00000000 		.word	mbedtls_free
 1044              		.cfi_endproc
 1045              	.LFE145:
 1047              		.section	.text.dtls_accept,"ax",%progbits
 1048              		.align	1
 1049              		.global	dtls_accept
 1050              		.syntax unified
 1051              		.thumb
 1052              		.thumb_func
 1053              		.fpu fpv4-sp-d16
 1055              	dtls_accept:
 1056              	.LFB152:
 498:C:/Users/lenovo/Desktop/liteos/Project2/BearPi_LiteOS/components/security/mbedtls/mbedtls_port\dtls_interface.c **** 
 499:C:/Users/lenovo/Desktop/liteos/Project2/BearPi_LiteOS/components/security/mbedtls/mbedtls_port\dtls_interface.c **** int dtls_accept( mbedtls_net_context *bind_ctx,
 500:C:/Users/lenovo/Desktop/liteos/Project2/BearPi_LiteOS/components/security/mbedtls/mbedtls_port\dtls_interface.c ****                             mbedtls_net_context *client_ctx,
 501:C:/Users/lenovo/Desktop/liteos/Project2/BearPi_LiteOS/components/security/mbedtls/mbedtls_port\dtls_interface.c ****                             void *client_ip, size_t buf_size, size_t *ip_len )
 502:C:/Users/lenovo/Desktop/liteos/Project2/BearPi_LiteOS/components/security/mbedtls/mbedtls_port\dtls_interface.c **** {
 1057              		.loc 1 502 0
 1058              		.cfi_startproc
 1059              		@ args = 4, pretend = 0, frame = 0
 1060              		@ frame_needed = 0, uses_anonymous_args = 0
 1061              	.LVL141:
 1062 0000 10B5     		push	{r4, lr}
 1063              	.LCFI14:
 1064              		.cfi_def_cfa_offset 8
 1065              		.cfi_offset 4, -8
 1066              		.cfi_offset 14, -4
 1067 0002 82B0     		sub	sp, sp, #8
 1068              	.LCFI15:
 1069              		.cfi_def_cfa_offset 16
 503:C:/Users/lenovo/Desktop/liteos/Project2/BearPi_LiteOS/components/security/mbedtls/mbedtls_port\dtls_interface.c ****     return mbedtls_net_accept(bind_ctx, client_ctx, client_ip, buf_size, ip_len);
 1070              		.loc 1 503 0
 1071 0004 049C     		ldr	r4, [sp, #16]
ARM GAS  c:\Users\lenovo\AppData\Local\Temp\cc9y9OZN.s 			page 30


 1072 0006 0094     		str	r4, [sp]
 1073 0008 FFF7FEFF 		bl	mbedtls_net_accept
 1074              	.LVL142:
 504:C:/Users/lenovo/Desktop/liteos/Project2/BearPi_LiteOS/components/security/mbedtls/mbedtls_port\dtls_interface.c **** }
 1075              		.loc 1 504 0
 1076 000c 02B0     		add	sp, sp, #8
 1077              	.LCFI16:
 1078              		.cfi_def_cfa_offset 8
 1079              		@ sp needed
 1080 000e 10BD     		pop	{r4, pc}
 1081              		.cfi_endproc
 1082              	.LFE152:
 1084              		.section	.rodata.__FUNCTION__.12168,"a",%progbits
 1085              		.align	2
 1086              		.set	.LANCHOR1,. + 0
 1089              	__FUNCTION__.12168:
 1090 0000 64746C73 		.ascii	"dtls_ssl_new\000"
 1090      5F73736C 
 1090      5F6E6577 
 1090      00
 1091              		.section	.rodata.__FUNCTION__.12179,"a",%progbits
 1092              		.align	2
 1093              		.set	.LANCHOR0,. + 0
 1096              	__FUNCTION__.12179:
 1097 0000 64746C73 		.ascii	"dtls_shakehand\000"
 1097      5F736861 
 1097      6B656861 
 1097      6E6400
 1098              		.section	.rodata.dtls_shakehand.str1.4,"aMS",%progbits,1
 1099              		.align	2
 1100              	.LC0:
 1101 0000 5B4D4245 		.ascii	"[MBEDTLS][%s:%d] connecting to server\015\012\000"
 1101      44544C53 
 1101      5D5B2573 
 1101      3A25645D 
 1101      20636F6E 
 1102              	.LC1:
 1103 0028 5B4D4245 		.ascii	"[MBEDTLS][%s:%d] connect failed! mode %d\015\012\000"
 1103      44544C53 
 1103      5D5B2573 
 1103      3A25645D 
 1103      20636F6E 
 1104 0053 00       		.space	1
 1105              	.LC2:
 1106 0054 5B4D4245 		.ascii	"[MBEDTLS][%s:%d] performing the SSL/TLS handshake\015"
 1106      44544C53 
 1106      5D5B2573 
 1106      3A25645D 
 1106      20706572 
 1107 0086 0A00     		.ascii	"\012\000"
 1108              	.LC3:
 1109 0088 5B4D4245 		.ascii	"[MBEDTLS][%s:%d] mbedtls_ssl_handshake failed: -0x%"
 1109      44544C53 
 1109      5D5B2573 
 1109      3A25645D 
 1109      206D6265 
 1110 00bb 780D0A00 		.ascii	"x\015\012\000"
ARM GAS  c:\Users\lenovo\AppData\Local\Temp\cc9y9OZN.s 			page 31


 1111 00bf 00       		.space	1
 1112              	.LC4:
 1113 00c0 5B4D4245 		.ascii	"[MBEDTLS][%s:%d] handshake succeed\015\012\000"
 1113      44544C53 
 1113      5D5B2573 
 1113      3A25645D 
 1113      2068616E 
 1114              		.section	.rodata.dtls_ssl_new.str1.4,"aMS",%progbits,1
 1115              		.align	2
 1116              	.LC5:
 1117 0000 73736C5F 		.ascii	"ssl_client\000"
 1117      636C6965 
 1117      6E7400
 1118 000b 00       		.space	1
 1119              	.LC6:
 1120 000c 5B4D4245 		.ascii	"[MBEDTLS][%s:%d] mbedtls_ctr_drbg_seed failed: -0x%"
 1120      44544C53 
 1120      5D5B2573 
 1120      3A25645D 
 1120      206D6265 
 1121 003f 780D0A00 		.ascii	"x\015\012\000"
 1122 0043 00       		.space	1
 1123              	.LC7:
 1124 0044 5B4D4245 		.ascii	"[MBEDTLS][%s:%d] setting up the SSL structure\015\012"
 1124      44544C53 
 1124      5D5B2573 
 1124      3A25645D 
 1124      20736574 
 1125 0073 00       		.ascii	"\000"
 1126              	.LC8:
 1127 0074 5B4D4245 		.ascii	"[MBEDTLS][%s:%d] mbedtls_ssl_config_defaults failed"
 1127      44544C53 
 1127      5D5B2573 
 1127      3A25645D 
 1127      206D6265 
 1128 00a7 3A202D30 		.ascii	": -0x%x\015\012\000"
 1128      7825780D 
 1128      0A00
 1129 00b1 000000   		.space	3
 1130              	.LC9:
 1131 00b4 5B4D4245 		.ascii	"[MBEDTLS][%s:%d] mbedtls_ssl_conf_psk failed: -0x%x"
 1131      44544C53 
 1131      5D5B2573 
 1131      3A25645D 
 1131      206D6265 
 1132 00e7 0D0A00   		.ascii	"\015\012\000"
 1133 00ea 0000     		.space	2
 1134              	.LC10:
 1135 00ec 5B4D4245 		.ascii	"[MBEDTLS][%s:%d] mbedtls_ssl_setup failed: -0x%x\015"
 1135      44544C53 
 1135      5D5B2573 
 1135      3A25645D 
 1135      206D6265 
 1136 011d 0A00     		.ascii	"\012\000"
 1137 011f 00       		.space	1
 1138              	.LC11:
 1139 0120 5B4D4245 		.ascii	"[MBEDTLS][%s:%d] set SSL structure succeed\015\012\000"
ARM GAS  c:\Users\lenovo\AppData\Local\Temp\cc9y9OZN.s 			page 32


 1139      44544C53 
 1139      5D5B2573 
 1139      3A25645D 
 1139      20736574 
 1140              		.text
 1141              	.Letext0:
 1142              		.file 2 "c:\\program files (x86)\\liteos studio\\resources\\arm-none-eabi\\arm-none-eabi\\include\
 1143              		.file 3 "c:\\program files (x86)\\liteos studio\\resources\\arm-none-eabi\\lib\\gcc\\arm-none-eabi
 1144              		.file 4 "c:\\program files (x86)\\liteos studio\\resources\\arm-none-eabi\\arm-none-eabi\\include\
 1145              		.file 5 "c:\\program files (x86)\\liteos studio\\resources\\arm-none-eabi\\arm-none-eabi\\include\
 1146              		.file 6 "c:\\program files (x86)\\liteos studio\\resources\\arm-none-eabi\\arm-none-eabi\\include\
 1147              		.file 7 "c:\\program files (x86)\\liteos studio\\resources\\arm-none-eabi\\arm-none-eabi\\include\
 1148              		.file 8 "c:\\program files (x86)\\liteos studio\\resources\\arm-none-eabi\\arm-none-eabi\\include\
 1149              		.file 9 "c:\\program files (x86)\\liteos studio\\resources\\arm-none-eabi\\arm-none-eabi\\include\
 1150              		.file 10 "C:/Users/lenovo/Desktop/liteos/Project2/BearPi_LiteOS/components/security/mbedtls/mbedtl
 1151              		.file 11 "C:/Users/lenovo/Desktop/liteos/Project2/BearPi_LiteOS/components/security/mbedtls/mbedtl
 1152              		.file 12 "C:/Users/lenovo/Desktop/liteos/Project2/BearPi_LiteOS/components/security/mbedtls/mbedtl
 1153              		.file 13 "C:/Users/lenovo/Desktop/liteos/Project2/BearPi_LiteOS/components/security/mbedtls/mbedtl
 1154              		.file 14 "C:/Users/lenovo/Desktop/liteos/Project2/BearPi_LiteOS/components/security/mbedtls/mbedtl
 1155              		.file 15 "C:/Users/lenovo/Desktop/liteos/Project2/BearPi_LiteOS/components/security/mbedtls/mbedtl
 1156              		.file 16 "C:/Users/lenovo/Desktop/liteos/Project2/BearPi_LiteOS/components/security/mbedtls/mbedtl
 1157              		.file 17 "C:/Users/lenovo/Desktop/liteos/Project2/BearPi_LiteOS/components/security/mbedtls/mbedtl
 1158              		.file 18 "C:/Users/lenovo/Desktop/liteos/Project2/BearPi_LiteOS/components/security/mbedtls/mbedtl
 1159              		.file 19 "C:/Users/lenovo/Desktop/liteos/Project2/BearPi_LiteOS/kernel/include/los_typedef.h"
 1160              		.file 20 "C:/Users/lenovo/Desktop/liteos/Project2/BearPi_LiteOS/arch/arm/common/cmsis/core_cm4.h"
 1161              		.file 21 "C:/Users/lenovo/Desktop/liteos/Project2/BearPi_LiteOS/targets/STM32L431_BearPi/Inc/syste
 1162              		.file 22 "C:/Users/lenovo/Desktop/liteos/Project2/BearPi_LiteOS/kernel/include/los_list.h"
 1163              		.file 23 "C:/Users/lenovo/Desktop/liteos/Project2/BearPi_LiteOS/kernel/include/los_err.h"
 1164              		.file 24 "C:/Users/lenovo/Desktop/liteos/Project2/BearPi_LiteOS/arch/arm/arm-m/include/los_hwi.h"
 1165              		.file 25 "C:/Users/lenovo/Desktop/liteos/Project2/BearPi_LiteOS/kernel/include/los_tick.h"
 1166              		.file 26 "C:/Users/lenovo/Desktop/liteos/Project2/BearPi_LiteOS/kernel/include/los_event.h"
 1167              		.file 27 "C:/Users/lenovo/Desktop/liteos/Project2/BearPi_LiteOS/kernel/include/los_task.h"
 1168              		.file 28 "C:/Users/lenovo/Desktop/liteos/Project2/BearPi_LiteOS/kernel/base/include/los_task.ph"
 1169              		.file 29 "C:/Users/lenovo/Desktop/liteos/Project2/BearPi_LiteOS/targets/STM32L431_BearPi/Inc/main.
 1170              		.file 30 "C:/Users/lenovo/Desktop/liteos/Project2/BearPi_LiteOS/targets/STM32L431_BearPi/OS_CONFIG
 1171              		.file 31 "C:/Users/lenovo/Desktop/liteos/Project2/BearPi_LiteOS/kernel/include/los_config.h"
 1172              		.file 32 "C:/Users/lenovo/Desktop/liteos/Project2/BearPi_LiteOS/include/osdepends/atiny_osdep.h"
 1173              		.file 33 "C:/Users/lenovo/Desktop/liteos/Project2/BearPi_LiteOS/include/sal/atiny_socket.h"
 1174              		.file 34 "c:\\program files (x86)\\liteos studio\\resources\\arm-none-eabi\\arm-none-eabi\\include
 1175              		.file 35 "<built-in>"
ARM GAS  c:\Users\lenovo\AppData\Local\Temp\cc9y9OZN.s 			page 33

