ARM GAS  c:\Users\lenovo\AppData\Local\Temp\ccdvFasW.s 			page 1


   1              		.cpu cortex-m4
   2              		.eabi_attribute 27, 1
   3              		.eabi_attribute 28, 1
   4              		.eabi_attribute 20, 1
   5              		.eabi_attribute 21, 1
   6              		.eabi_attribute 23, 3
   7              		.eabi_attribute 24, 1
   8              		.eabi_attribute 25, 1
   9              		.eabi_attribute 26, 1
  10              		.eabi_attribute 30, 1
  11              		.eabi_attribute 34, 1
  12              		.eabi_attribute 18, 4
  13              		.file	"entropy.c"
  14              		.text
  15              	.Ltext0:
  16              		.cfi_sections	.debug_frame
  17              		.section	.text.mbedtls_zeroize,"ax",%progbits
  18              		.align	1
  19              		.syntax unified
  20              		.thumb
  21              		.thumb_func
  22              		.fpu fpv4-sp-d16
  24              	mbedtls_zeroize:
  25              	.LFB0:
  26              		.file 1 "C:/Users/lenovo/Desktop/liteos/Project2/BearPi_LiteOS/components/security/mbedtls/mbedtls
   1:C:/Users/lenovo/Desktop/liteos/Project2/BearPi_LiteOS/components/security/mbedtls/mbedtls-2.6.0/library\entropy.c **** /*
   2:C:/Users/lenovo/Desktop/liteos/Project2/BearPi_LiteOS/components/security/mbedtls/mbedtls-2.6.0/library\entropy.c ****  *  Entropy accumulator implementation
   3:C:/Users/lenovo/Desktop/liteos/Project2/BearPi_LiteOS/components/security/mbedtls/mbedtls-2.6.0/library\entropy.c ****  *
   4:C:/Users/lenovo/Desktop/liteos/Project2/BearPi_LiteOS/components/security/mbedtls/mbedtls-2.6.0/library\entropy.c ****  *  Copyright (C) 2006-2016, ARM Limited, All Rights Reserved
   5:C:/Users/lenovo/Desktop/liteos/Project2/BearPi_LiteOS/components/security/mbedtls/mbedtls-2.6.0/library\entropy.c ****  *  SPDX-License-Identifier: Apache-2.0
   6:C:/Users/lenovo/Desktop/liteos/Project2/BearPi_LiteOS/components/security/mbedtls/mbedtls-2.6.0/library\entropy.c ****  *
   7:C:/Users/lenovo/Desktop/liteos/Project2/BearPi_LiteOS/components/security/mbedtls/mbedtls-2.6.0/library\entropy.c ****  *  Licensed under the Apache License, Version 2.0 (the "License"); you may
   8:C:/Users/lenovo/Desktop/liteos/Project2/BearPi_LiteOS/components/security/mbedtls/mbedtls-2.6.0/library\entropy.c ****  *  not use this file except in compliance with the License.
   9:C:/Users/lenovo/Desktop/liteos/Project2/BearPi_LiteOS/components/security/mbedtls/mbedtls-2.6.0/library\entropy.c ****  *  You may obtain a copy of the License at
  10:C:/Users/lenovo/Desktop/liteos/Project2/BearPi_LiteOS/components/security/mbedtls/mbedtls-2.6.0/library\entropy.c ****  *
  11:C:/Users/lenovo/Desktop/liteos/Project2/BearPi_LiteOS/components/security/mbedtls/mbedtls-2.6.0/library\entropy.c ****  *  http://www.apache.org/licenses/LICENSE-2.0
  12:C:/Users/lenovo/Desktop/liteos/Project2/BearPi_LiteOS/components/security/mbedtls/mbedtls-2.6.0/library\entropy.c ****  *
  13:C:/Users/lenovo/Desktop/liteos/Project2/BearPi_LiteOS/components/security/mbedtls/mbedtls-2.6.0/library\entropy.c ****  *  Unless required by applicable law or agreed to in writing, software
  14:C:/Users/lenovo/Desktop/liteos/Project2/BearPi_LiteOS/components/security/mbedtls/mbedtls-2.6.0/library\entropy.c ****  *  distributed under the License is distributed on an "AS IS" BASIS, WITHOUT
  15:C:/Users/lenovo/Desktop/liteos/Project2/BearPi_LiteOS/components/security/mbedtls/mbedtls-2.6.0/library\entropy.c ****  *  WARRANTIES OR CONDITIONS OF ANY KIND, either express or implied.
  16:C:/Users/lenovo/Desktop/liteos/Project2/BearPi_LiteOS/components/security/mbedtls/mbedtls-2.6.0/library\entropy.c ****  *  See the License for the specific language governing permissions and
  17:C:/Users/lenovo/Desktop/liteos/Project2/BearPi_LiteOS/components/security/mbedtls/mbedtls-2.6.0/library\entropy.c ****  *  limitations under the License.
  18:C:/Users/lenovo/Desktop/liteos/Project2/BearPi_LiteOS/components/security/mbedtls/mbedtls-2.6.0/library\entropy.c ****  *
  19:C:/Users/lenovo/Desktop/liteos/Project2/BearPi_LiteOS/components/security/mbedtls/mbedtls-2.6.0/library\entropy.c ****  *  This file is part of mbed TLS (https://tls.mbed.org)
  20:C:/Users/lenovo/Desktop/liteos/Project2/BearPi_LiteOS/components/security/mbedtls/mbedtls-2.6.0/library\entropy.c ****  */
  21:C:/Users/lenovo/Desktop/liteos/Project2/BearPi_LiteOS/components/security/mbedtls/mbedtls-2.6.0/library\entropy.c **** 
  22:C:/Users/lenovo/Desktop/liteos/Project2/BearPi_LiteOS/components/security/mbedtls/mbedtls-2.6.0/library\entropy.c **** #if !defined(MBEDTLS_CONFIG_FILE)
  23:C:/Users/lenovo/Desktop/liteos/Project2/BearPi_LiteOS/components/security/mbedtls/mbedtls-2.6.0/library\entropy.c **** #include "mbedtls/config.h"
  24:C:/Users/lenovo/Desktop/liteos/Project2/BearPi_LiteOS/components/security/mbedtls/mbedtls-2.6.0/library\entropy.c **** #else
  25:C:/Users/lenovo/Desktop/liteos/Project2/BearPi_LiteOS/components/security/mbedtls/mbedtls-2.6.0/library\entropy.c **** #include MBEDTLS_CONFIG_FILE
  26:C:/Users/lenovo/Desktop/liteos/Project2/BearPi_LiteOS/components/security/mbedtls/mbedtls-2.6.0/library\entropy.c **** #endif
  27:C:/Users/lenovo/Desktop/liteos/Project2/BearPi_LiteOS/components/security/mbedtls/mbedtls-2.6.0/library\entropy.c **** 
  28:C:/Users/lenovo/Desktop/liteos/Project2/BearPi_LiteOS/components/security/mbedtls/mbedtls-2.6.0/library\entropy.c **** #if defined(MBEDTLS_ENTROPY_C)
  29:C:/Users/lenovo/Desktop/liteos/Project2/BearPi_LiteOS/components/security/mbedtls/mbedtls-2.6.0/library\entropy.c **** 
  30:C:/Users/lenovo/Desktop/liteos/Project2/BearPi_LiteOS/components/security/mbedtls/mbedtls-2.6.0/library\entropy.c **** #if defined(MBEDTLS_TEST_NULL_ENTROPY)
  31:C:/Users/lenovo/Desktop/liteos/Project2/BearPi_LiteOS/components/security/mbedtls/mbedtls-2.6.0/library\entropy.c **** #warning "**** WARNING!  MBEDTLS_TEST_NULL_ENTROPY defined! "
  32:C:/Users/lenovo/Desktop/liteos/Project2/BearPi_LiteOS/components/security/mbedtls/mbedtls-2.6.0/library\entropy.c **** #warning "**** THIS BUILD HAS NO DEFINED ENTROPY SOURCES "
ARM GAS  c:\Users\lenovo\AppData\Local\Temp\ccdvFasW.s 			page 2


  33:C:/Users/lenovo/Desktop/liteos/Project2/BearPi_LiteOS/components/security/mbedtls/mbedtls-2.6.0/library\entropy.c **** #warning "**** THIS BUILD IS *NOT* SUITABLE FOR PRODUCTION USE "
  34:C:/Users/lenovo/Desktop/liteos/Project2/BearPi_LiteOS/components/security/mbedtls/mbedtls-2.6.0/library\entropy.c **** #endif
  35:C:/Users/lenovo/Desktop/liteos/Project2/BearPi_LiteOS/components/security/mbedtls/mbedtls-2.6.0/library\entropy.c **** 
  36:C:/Users/lenovo/Desktop/liteos/Project2/BearPi_LiteOS/components/security/mbedtls/mbedtls-2.6.0/library\entropy.c **** #include "mbedtls/entropy.h"
  37:C:/Users/lenovo/Desktop/liteos/Project2/BearPi_LiteOS/components/security/mbedtls/mbedtls-2.6.0/library\entropy.c **** #include "mbedtls/entropy_poll.h"
  38:C:/Users/lenovo/Desktop/liteos/Project2/BearPi_LiteOS/components/security/mbedtls/mbedtls-2.6.0/library\entropy.c **** 
  39:C:/Users/lenovo/Desktop/liteos/Project2/BearPi_LiteOS/components/security/mbedtls/mbedtls-2.6.0/library\entropy.c **** #include <string.h>
  40:C:/Users/lenovo/Desktop/liteos/Project2/BearPi_LiteOS/components/security/mbedtls/mbedtls-2.6.0/library\entropy.c **** 
  41:C:/Users/lenovo/Desktop/liteos/Project2/BearPi_LiteOS/components/security/mbedtls/mbedtls-2.6.0/library\entropy.c **** #if defined(MBEDTLS_FS_IO)
  42:C:/Users/lenovo/Desktop/liteos/Project2/BearPi_LiteOS/components/security/mbedtls/mbedtls-2.6.0/library\entropy.c **** #include <stdio.h>
  43:C:/Users/lenovo/Desktop/liteos/Project2/BearPi_LiteOS/components/security/mbedtls/mbedtls-2.6.0/library\entropy.c **** #endif
  44:C:/Users/lenovo/Desktop/liteos/Project2/BearPi_LiteOS/components/security/mbedtls/mbedtls-2.6.0/library\entropy.c **** 
  45:C:/Users/lenovo/Desktop/liteos/Project2/BearPi_LiteOS/components/security/mbedtls/mbedtls-2.6.0/library\entropy.c **** #if defined(MBEDTLS_ENTROPY_NV_SEED)
  46:C:/Users/lenovo/Desktop/liteos/Project2/BearPi_LiteOS/components/security/mbedtls/mbedtls-2.6.0/library\entropy.c **** #include "mbedtls/platform.h"
  47:C:/Users/lenovo/Desktop/liteos/Project2/BearPi_LiteOS/components/security/mbedtls/mbedtls-2.6.0/library\entropy.c **** #endif
  48:C:/Users/lenovo/Desktop/liteos/Project2/BearPi_LiteOS/components/security/mbedtls/mbedtls-2.6.0/library\entropy.c **** 
  49:C:/Users/lenovo/Desktop/liteos/Project2/BearPi_LiteOS/components/security/mbedtls/mbedtls-2.6.0/library\entropy.c **** #if defined(MBEDTLS_SELF_TEST)
  50:C:/Users/lenovo/Desktop/liteos/Project2/BearPi_LiteOS/components/security/mbedtls/mbedtls-2.6.0/library\entropy.c **** #if defined(MBEDTLS_PLATFORM_C)
  51:C:/Users/lenovo/Desktop/liteos/Project2/BearPi_LiteOS/components/security/mbedtls/mbedtls-2.6.0/library\entropy.c **** #include "mbedtls/platform.h"
  52:C:/Users/lenovo/Desktop/liteos/Project2/BearPi_LiteOS/components/security/mbedtls/mbedtls-2.6.0/library\entropy.c **** #else
  53:C:/Users/lenovo/Desktop/liteos/Project2/BearPi_LiteOS/components/security/mbedtls/mbedtls-2.6.0/library\entropy.c **** #include <stdio.h>
  54:C:/Users/lenovo/Desktop/liteos/Project2/BearPi_LiteOS/components/security/mbedtls/mbedtls-2.6.0/library\entropy.c **** #define mbedtls_printf     printf
  55:C:/Users/lenovo/Desktop/liteos/Project2/BearPi_LiteOS/components/security/mbedtls/mbedtls-2.6.0/library\entropy.c **** #endif /* MBEDTLS_PLATFORM_C */
  56:C:/Users/lenovo/Desktop/liteos/Project2/BearPi_LiteOS/components/security/mbedtls/mbedtls-2.6.0/library\entropy.c **** #endif /* MBEDTLS_SELF_TEST */
  57:C:/Users/lenovo/Desktop/liteos/Project2/BearPi_LiteOS/components/security/mbedtls/mbedtls-2.6.0/library\entropy.c **** 
  58:C:/Users/lenovo/Desktop/liteos/Project2/BearPi_LiteOS/components/security/mbedtls/mbedtls-2.6.0/library\entropy.c **** #if defined(MBEDTLS_HAVEGE_C)
  59:C:/Users/lenovo/Desktop/liteos/Project2/BearPi_LiteOS/components/security/mbedtls/mbedtls-2.6.0/library\entropy.c **** #include "mbedtls/havege.h"
  60:C:/Users/lenovo/Desktop/liteos/Project2/BearPi_LiteOS/components/security/mbedtls/mbedtls-2.6.0/library\entropy.c **** #endif
  61:C:/Users/lenovo/Desktop/liteos/Project2/BearPi_LiteOS/components/security/mbedtls/mbedtls-2.6.0/library\entropy.c **** 
  62:C:/Users/lenovo/Desktop/liteos/Project2/BearPi_LiteOS/components/security/mbedtls/mbedtls-2.6.0/library\entropy.c **** /* Implementation that should never be optimized out by the compiler */
  63:C:/Users/lenovo/Desktop/liteos/Project2/BearPi_LiteOS/components/security/mbedtls/mbedtls-2.6.0/library\entropy.c **** static void mbedtls_zeroize( void *v, size_t n ) {
  27              		.loc 1 63 0
  28              		.cfi_startproc
  29              		@ args = 0, pretend = 0, frame = 0
  30              		@ frame_needed = 0, uses_anonymous_args = 0
  31              		@ link register save eliminated.
  32              	.LVL0:
  64:C:/Users/lenovo/Desktop/liteos/Project2/BearPi_LiteOS/components/security/mbedtls/mbedtls-2.6.0/library\entropy.c ****     volatile unsigned char *p = v; while( n-- ) *p++ = 0;
  33              		.loc 1 64 0
  34 0000 03E0     		b	.L2
  35              	.LVL1:
  36              	.L3:
  37              		.loc 1 64 0 is_stmt 0 discriminator 3
  38 0002 0022     		movs	r2, #0
  39 0004 0270     		strb	r2, [r0]
  40 0006 0130     		adds	r0, r0, #1
  41              	.LVL2:
  42 0008 1946     		mov	r1, r3
  43              	.LVL3:
  44              	.L2:
  45              		.loc 1 64 0 discriminator 1
  46 000a 4B1E     		subs	r3, r1, #1
  47              	.LVL4:
  48 000c 0029     		cmp	r1, #0
  49 000e F8D1     		bne	.L3
  65:C:/Users/lenovo/Desktop/liteos/Project2/BearPi_LiteOS/components/security/mbedtls/mbedtls-2.6.0/library\entropy.c **** }
  50              		.loc 1 65 0 is_stmt 1
ARM GAS  c:\Users\lenovo\AppData\Local\Temp\ccdvFasW.s 			page 3


  51 0010 7047     		bx	lr
  52              		.cfi_endproc
  53              	.LFE0:
  55              		.section	.text.entropy_update,"ax",%progbits
  56              		.align	1
  57              		.syntax unified
  58              		.thumb
  59              		.thumb_func
  60              		.fpu fpv4-sp-d16
  62              	entropy_update:
  63              	.LFB4:
  66:C:/Users/lenovo/Desktop/liteos/Project2/BearPi_LiteOS/components/security/mbedtls/mbedtls-2.6.0/library\entropy.c **** 
  67:C:/Users/lenovo/Desktop/liteos/Project2/BearPi_LiteOS/components/security/mbedtls/mbedtls-2.6.0/library\entropy.c **** #define ENTROPY_MAX_LOOP    256     /**< Maximum amount to loop before error */
  68:C:/Users/lenovo/Desktop/liteos/Project2/BearPi_LiteOS/components/security/mbedtls/mbedtls-2.6.0/library\entropy.c **** 
  69:C:/Users/lenovo/Desktop/liteos/Project2/BearPi_LiteOS/components/security/mbedtls/mbedtls-2.6.0/library\entropy.c **** void mbedtls_entropy_init( mbedtls_entropy_context *ctx )
  70:C:/Users/lenovo/Desktop/liteos/Project2/BearPi_LiteOS/components/security/mbedtls/mbedtls-2.6.0/library\entropy.c **** {
  71:C:/Users/lenovo/Desktop/liteos/Project2/BearPi_LiteOS/components/security/mbedtls/mbedtls-2.6.0/library\entropy.c ****     memset( ctx, 0, sizeof(mbedtls_entropy_context) );
  72:C:/Users/lenovo/Desktop/liteos/Project2/BearPi_LiteOS/components/security/mbedtls/mbedtls-2.6.0/library\entropy.c **** 
  73:C:/Users/lenovo/Desktop/liteos/Project2/BearPi_LiteOS/components/security/mbedtls/mbedtls-2.6.0/library\entropy.c **** #if defined(MBEDTLS_THREADING_C)
  74:C:/Users/lenovo/Desktop/liteos/Project2/BearPi_LiteOS/components/security/mbedtls/mbedtls-2.6.0/library\entropy.c ****     mbedtls_mutex_init( &ctx->mutex );
  75:C:/Users/lenovo/Desktop/liteos/Project2/BearPi_LiteOS/components/security/mbedtls/mbedtls-2.6.0/library\entropy.c **** #endif
  76:C:/Users/lenovo/Desktop/liteos/Project2/BearPi_LiteOS/components/security/mbedtls/mbedtls-2.6.0/library\entropy.c **** 
  77:C:/Users/lenovo/Desktop/liteos/Project2/BearPi_LiteOS/components/security/mbedtls/mbedtls-2.6.0/library\entropy.c **** #if defined(MBEDTLS_ENTROPY_SHA512_ACCUMULATOR)
  78:C:/Users/lenovo/Desktop/liteos/Project2/BearPi_LiteOS/components/security/mbedtls/mbedtls-2.6.0/library\entropy.c ****     mbedtls_sha512_starts( &ctx->accumulator, 0 );
  79:C:/Users/lenovo/Desktop/liteos/Project2/BearPi_LiteOS/components/security/mbedtls/mbedtls-2.6.0/library\entropy.c **** #else
  80:C:/Users/lenovo/Desktop/liteos/Project2/BearPi_LiteOS/components/security/mbedtls/mbedtls-2.6.0/library\entropy.c ****     mbedtls_sha256_starts( &ctx->accumulator, 0 );
  81:C:/Users/lenovo/Desktop/liteos/Project2/BearPi_LiteOS/components/security/mbedtls/mbedtls-2.6.0/library\entropy.c **** #endif
  82:C:/Users/lenovo/Desktop/liteos/Project2/BearPi_LiteOS/components/security/mbedtls/mbedtls-2.6.0/library\entropy.c **** #if defined(MBEDTLS_HAVEGE_C)
  83:C:/Users/lenovo/Desktop/liteos/Project2/BearPi_LiteOS/components/security/mbedtls/mbedtls-2.6.0/library\entropy.c ****     mbedtls_havege_init( &ctx->havege_data );
  84:C:/Users/lenovo/Desktop/liteos/Project2/BearPi_LiteOS/components/security/mbedtls/mbedtls-2.6.0/library\entropy.c **** #endif
  85:C:/Users/lenovo/Desktop/liteos/Project2/BearPi_LiteOS/components/security/mbedtls/mbedtls-2.6.0/library\entropy.c **** 
  86:C:/Users/lenovo/Desktop/liteos/Project2/BearPi_LiteOS/components/security/mbedtls/mbedtls-2.6.0/library\entropy.c **** #if defined(MBEDTLS_TEST_NULL_ENTROPY)
  87:C:/Users/lenovo/Desktop/liteos/Project2/BearPi_LiteOS/components/security/mbedtls/mbedtls-2.6.0/library\entropy.c ****     mbedtls_entropy_add_source( ctx, mbedtls_null_entropy_poll, NULL,
  88:C:/Users/lenovo/Desktop/liteos/Project2/BearPi_LiteOS/components/security/mbedtls/mbedtls-2.6.0/library\entropy.c ****                                 1, MBEDTLS_ENTROPY_SOURCE_STRONG );
  89:C:/Users/lenovo/Desktop/liteos/Project2/BearPi_LiteOS/components/security/mbedtls/mbedtls-2.6.0/library\entropy.c **** #endif
  90:C:/Users/lenovo/Desktop/liteos/Project2/BearPi_LiteOS/components/security/mbedtls/mbedtls-2.6.0/library\entropy.c **** 
  91:C:/Users/lenovo/Desktop/liteos/Project2/BearPi_LiteOS/components/security/mbedtls/mbedtls-2.6.0/library\entropy.c **** #if !defined(MBEDTLS_NO_DEFAULT_ENTROPY_SOURCES)
  92:C:/Users/lenovo/Desktop/liteos/Project2/BearPi_LiteOS/components/security/mbedtls/mbedtls-2.6.0/library\entropy.c **** #if !defined(MBEDTLS_NO_PLATFORM_ENTROPY)
  93:C:/Users/lenovo/Desktop/liteos/Project2/BearPi_LiteOS/components/security/mbedtls/mbedtls-2.6.0/library\entropy.c ****     mbedtls_entropy_add_source( ctx, mbedtls_platform_entropy_poll, NULL,
  94:C:/Users/lenovo/Desktop/liteos/Project2/BearPi_LiteOS/components/security/mbedtls/mbedtls-2.6.0/library\entropy.c ****                                 MBEDTLS_ENTROPY_MIN_PLATFORM,
  95:C:/Users/lenovo/Desktop/liteos/Project2/BearPi_LiteOS/components/security/mbedtls/mbedtls-2.6.0/library\entropy.c ****                                 MBEDTLS_ENTROPY_SOURCE_STRONG );
  96:C:/Users/lenovo/Desktop/liteos/Project2/BearPi_LiteOS/components/security/mbedtls/mbedtls-2.6.0/library\entropy.c **** #endif
  97:C:/Users/lenovo/Desktop/liteos/Project2/BearPi_LiteOS/components/security/mbedtls/mbedtls-2.6.0/library\entropy.c **** #if defined(MBEDTLS_TIMING_C)
  98:C:/Users/lenovo/Desktop/liteos/Project2/BearPi_LiteOS/components/security/mbedtls/mbedtls-2.6.0/library\entropy.c ****     mbedtls_entropy_add_source( ctx, mbedtls_hardclock_poll, NULL,
  99:C:/Users/lenovo/Desktop/liteos/Project2/BearPi_LiteOS/components/security/mbedtls/mbedtls-2.6.0/library\entropy.c ****                                 MBEDTLS_ENTROPY_MIN_HARDCLOCK,
 100:C:/Users/lenovo/Desktop/liteos/Project2/BearPi_LiteOS/components/security/mbedtls/mbedtls-2.6.0/library\entropy.c ****                                 MBEDTLS_ENTROPY_SOURCE_WEAK );
 101:C:/Users/lenovo/Desktop/liteos/Project2/BearPi_LiteOS/components/security/mbedtls/mbedtls-2.6.0/library\entropy.c **** #endif
 102:C:/Users/lenovo/Desktop/liteos/Project2/BearPi_LiteOS/components/security/mbedtls/mbedtls-2.6.0/library\entropy.c **** #if defined(MBEDTLS_HAVEGE_C)
 103:C:/Users/lenovo/Desktop/liteos/Project2/BearPi_LiteOS/components/security/mbedtls/mbedtls-2.6.0/library\entropy.c ****     mbedtls_entropy_add_source( ctx, mbedtls_havege_poll, &ctx->havege_data,
 104:C:/Users/lenovo/Desktop/liteos/Project2/BearPi_LiteOS/components/security/mbedtls/mbedtls-2.6.0/library\entropy.c ****                                 MBEDTLS_ENTROPY_MIN_HAVEGE,
 105:C:/Users/lenovo/Desktop/liteos/Project2/BearPi_LiteOS/components/security/mbedtls/mbedtls-2.6.0/library\entropy.c ****                                 MBEDTLS_ENTROPY_SOURCE_STRONG );
 106:C:/Users/lenovo/Desktop/liteos/Project2/BearPi_LiteOS/components/security/mbedtls/mbedtls-2.6.0/library\entropy.c **** #endif
 107:C:/Users/lenovo/Desktop/liteos/Project2/BearPi_LiteOS/components/security/mbedtls/mbedtls-2.6.0/library\entropy.c **** #if defined(MBEDTLS_ENTROPY_HARDWARE_ALT)
 108:C:/Users/lenovo/Desktop/liteos/Project2/BearPi_LiteOS/components/security/mbedtls/mbedtls-2.6.0/library\entropy.c ****     mbedtls_entropy_add_source( ctx, mbedtls_hardware_poll, NULL,
 109:C:/Users/lenovo/Desktop/liteos/Project2/BearPi_LiteOS/components/security/mbedtls/mbedtls-2.6.0/library\entropy.c ****                                 MBEDTLS_ENTROPY_MIN_HARDWARE,
 110:C:/Users/lenovo/Desktop/liteos/Project2/BearPi_LiteOS/components/security/mbedtls/mbedtls-2.6.0/library\entropy.c ****                                 MBEDTLS_ENTROPY_SOURCE_STRONG );
 111:C:/Users/lenovo/Desktop/liteos/Project2/BearPi_LiteOS/components/security/mbedtls/mbedtls-2.6.0/library\entropy.c **** #endif
ARM GAS  c:\Users\lenovo\AppData\Local\Temp\ccdvFasW.s 			page 4


 112:C:/Users/lenovo/Desktop/liteos/Project2/BearPi_LiteOS/components/security/mbedtls/mbedtls-2.6.0/library\entropy.c **** #if defined(MBEDTLS_ENTROPY_NV_SEED)
 113:C:/Users/lenovo/Desktop/liteos/Project2/BearPi_LiteOS/components/security/mbedtls/mbedtls-2.6.0/library\entropy.c ****     mbedtls_entropy_add_source( ctx, mbedtls_nv_seed_poll, NULL,
 114:C:/Users/lenovo/Desktop/liteos/Project2/BearPi_LiteOS/components/security/mbedtls/mbedtls-2.6.0/library\entropy.c ****                                 MBEDTLS_ENTROPY_BLOCK_SIZE,
 115:C:/Users/lenovo/Desktop/liteos/Project2/BearPi_LiteOS/components/security/mbedtls/mbedtls-2.6.0/library\entropy.c ****                                 MBEDTLS_ENTROPY_SOURCE_STRONG );
 116:C:/Users/lenovo/Desktop/liteos/Project2/BearPi_LiteOS/components/security/mbedtls/mbedtls-2.6.0/library\entropy.c **** #endif
 117:C:/Users/lenovo/Desktop/liteos/Project2/BearPi_LiteOS/components/security/mbedtls/mbedtls-2.6.0/library\entropy.c **** #endif /* MBEDTLS_NO_DEFAULT_ENTROPY_SOURCES */
 118:C:/Users/lenovo/Desktop/liteos/Project2/BearPi_LiteOS/components/security/mbedtls/mbedtls-2.6.0/library\entropy.c **** }
 119:C:/Users/lenovo/Desktop/liteos/Project2/BearPi_LiteOS/components/security/mbedtls/mbedtls-2.6.0/library\entropy.c **** 
 120:C:/Users/lenovo/Desktop/liteos/Project2/BearPi_LiteOS/components/security/mbedtls/mbedtls-2.6.0/library\entropy.c **** void mbedtls_entropy_free( mbedtls_entropy_context *ctx )
 121:C:/Users/lenovo/Desktop/liteos/Project2/BearPi_LiteOS/components/security/mbedtls/mbedtls-2.6.0/library\entropy.c **** {
 122:C:/Users/lenovo/Desktop/liteos/Project2/BearPi_LiteOS/components/security/mbedtls/mbedtls-2.6.0/library\entropy.c **** #if defined(MBEDTLS_HAVEGE_C)
 123:C:/Users/lenovo/Desktop/liteos/Project2/BearPi_LiteOS/components/security/mbedtls/mbedtls-2.6.0/library\entropy.c ****     mbedtls_havege_free( &ctx->havege_data );
 124:C:/Users/lenovo/Desktop/liteos/Project2/BearPi_LiteOS/components/security/mbedtls/mbedtls-2.6.0/library\entropy.c **** #endif
 125:C:/Users/lenovo/Desktop/liteos/Project2/BearPi_LiteOS/components/security/mbedtls/mbedtls-2.6.0/library\entropy.c **** #if defined(MBEDTLS_THREADING_C)
 126:C:/Users/lenovo/Desktop/liteos/Project2/BearPi_LiteOS/components/security/mbedtls/mbedtls-2.6.0/library\entropy.c ****     mbedtls_mutex_free( &ctx->mutex );
 127:C:/Users/lenovo/Desktop/liteos/Project2/BearPi_LiteOS/components/security/mbedtls/mbedtls-2.6.0/library\entropy.c **** #endif
 128:C:/Users/lenovo/Desktop/liteos/Project2/BearPi_LiteOS/components/security/mbedtls/mbedtls-2.6.0/library\entropy.c ****     mbedtls_zeroize( ctx, sizeof( mbedtls_entropy_context ) );
 129:C:/Users/lenovo/Desktop/liteos/Project2/BearPi_LiteOS/components/security/mbedtls/mbedtls-2.6.0/library\entropy.c **** }
 130:C:/Users/lenovo/Desktop/liteos/Project2/BearPi_LiteOS/components/security/mbedtls/mbedtls-2.6.0/library\entropy.c **** 
 131:C:/Users/lenovo/Desktop/liteos/Project2/BearPi_LiteOS/components/security/mbedtls/mbedtls-2.6.0/library\entropy.c **** int mbedtls_entropy_add_source( mbedtls_entropy_context *ctx,
 132:C:/Users/lenovo/Desktop/liteos/Project2/BearPi_LiteOS/components/security/mbedtls/mbedtls-2.6.0/library\entropy.c ****                         mbedtls_entropy_f_source_ptr f_source, void *p_source,
 133:C:/Users/lenovo/Desktop/liteos/Project2/BearPi_LiteOS/components/security/mbedtls/mbedtls-2.6.0/library\entropy.c ****                         size_t threshold, int strong )
 134:C:/Users/lenovo/Desktop/liteos/Project2/BearPi_LiteOS/components/security/mbedtls/mbedtls-2.6.0/library\entropy.c **** {
 135:C:/Users/lenovo/Desktop/liteos/Project2/BearPi_LiteOS/components/security/mbedtls/mbedtls-2.6.0/library\entropy.c ****     int idx, ret = 0;
 136:C:/Users/lenovo/Desktop/liteos/Project2/BearPi_LiteOS/components/security/mbedtls/mbedtls-2.6.0/library\entropy.c **** 
 137:C:/Users/lenovo/Desktop/liteos/Project2/BearPi_LiteOS/components/security/mbedtls/mbedtls-2.6.0/library\entropy.c **** #if defined(MBEDTLS_THREADING_C)
 138:C:/Users/lenovo/Desktop/liteos/Project2/BearPi_LiteOS/components/security/mbedtls/mbedtls-2.6.0/library\entropy.c ****     if( ( ret = mbedtls_mutex_lock( &ctx->mutex ) ) != 0 )
 139:C:/Users/lenovo/Desktop/liteos/Project2/BearPi_LiteOS/components/security/mbedtls/mbedtls-2.6.0/library\entropy.c ****         return( ret );
 140:C:/Users/lenovo/Desktop/liteos/Project2/BearPi_LiteOS/components/security/mbedtls/mbedtls-2.6.0/library\entropy.c **** #endif
 141:C:/Users/lenovo/Desktop/liteos/Project2/BearPi_LiteOS/components/security/mbedtls/mbedtls-2.6.0/library\entropy.c **** 
 142:C:/Users/lenovo/Desktop/liteos/Project2/BearPi_LiteOS/components/security/mbedtls/mbedtls-2.6.0/library\entropy.c ****     idx = ctx->source_count;
 143:C:/Users/lenovo/Desktop/liteos/Project2/BearPi_LiteOS/components/security/mbedtls/mbedtls-2.6.0/library\entropy.c ****     if( idx >= MBEDTLS_ENTROPY_MAX_SOURCES )
 144:C:/Users/lenovo/Desktop/liteos/Project2/BearPi_LiteOS/components/security/mbedtls/mbedtls-2.6.0/library\entropy.c ****     {
 145:C:/Users/lenovo/Desktop/liteos/Project2/BearPi_LiteOS/components/security/mbedtls/mbedtls-2.6.0/library\entropy.c ****         ret = MBEDTLS_ERR_ENTROPY_MAX_SOURCES;
 146:C:/Users/lenovo/Desktop/liteos/Project2/BearPi_LiteOS/components/security/mbedtls/mbedtls-2.6.0/library\entropy.c ****         goto exit;
 147:C:/Users/lenovo/Desktop/liteos/Project2/BearPi_LiteOS/components/security/mbedtls/mbedtls-2.6.0/library\entropy.c ****     }
 148:C:/Users/lenovo/Desktop/liteos/Project2/BearPi_LiteOS/components/security/mbedtls/mbedtls-2.6.0/library\entropy.c **** 
 149:C:/Users/lenovo/Desktop/liteos/Project2/BearPi_LiteOS/components/security/mbedtls/mbedtls-2.6.0/library\entropy.c ****     ctx->source[idx].f_source  = f_source;
 150:C:/Users/lenovo/Desktop/liteos/Project2/BearPi_LiteOS/components/security/mbedtls/mbedtls-2.6.0/library\entropy.c ****     ctx->source[idx].p_source  = p_source;
 151:C:/Users/lenovo/Desktop/liteos/Project2/BearPi_LiteOS/components/security/mbedtls/mbedtls-2.6.0/library\entropy.c ****     ctx->source[idx].threshold = threshold;
 152:C:/Users/lenovo/Desktop/liteos/Project2/BearPi_LiteOS/components/security/mbedtls/mbedtls-2.6.0/library\entropy.c ****     ctx->source[idx].strong    = strong;
 153:C:/Users/lenovo/Desktop/liteos/Project2/BearPi_LiteOS/components/security/mbedtls/mbedtls-2.6.0/library\entropy.c **** 
 154:C:/Users/lenovo/Desktop/liteos/Project2/BearPi_LiteOS/components/security/mbedtls/mbedtls-2.6.0/library\entropy.c ****     ctx->source_count++;
 155:C:/Users/lenovo/Desktop/liteos/Project2/BearPi_LiteOS/components/security/mbedtls/mbedtls-2.6.0/library\entropy.c **** 
 156:C:/Users/lenovo/Desktop/liteos/Project2/BearPi_LiteOS/components/security/mbedtls/mbedtls-2.6.0/library\entropy.c **** exit:
 157:C:/Users/lenovo/Desktop/liteos/Project2/BearPi_LiteOS/components/security/mbedtls/mbedtls-2.6.0/library\entropy.c **** #if defined(MBEDTLS_THREADING_C)
 158:C:/Users/lenovo/Desktop/liteos/Project2/BearPi_LiteOS/components/security/mbedtls/mbedtls-2.6.0/library\entropy.c ****     if( mbedtls_mutex_unlock( &ctx->mutex ) != 0 )
 159:C:/Users/lenovo/Desktop/liteos/Project2/BearPi_LiteOS/components/security/mbedtls/mbedtls-2.6.0/library\entropy.c ****         return( MBEDTLS_ERR_THREADING_MUTEX_ERROR );
 160:C:/Users/lenovo/Desktop/liteos/Project2/BearPi_LiteOS/components/security/mbedtls/mbedtls-2.6.0/library\entropy.c **** #endif
 161:C:/Users/lenovo/Desktop/liteos/Project2/BearPi_LiteOS/components/security/mbedtls/mbedtls-2.6.0/library\entropy.c **** 
 162:C:/Users/lenovo/Desktop/liteos/Project2/BearPi_LiteOS/components/security/mbedtls/mbedtls-2.6.0/library\entropy.c ****     return( ret );
 163:C:/Users/lenovo/Desktop/liteos/Project2/BearPi_LiteOS/components/security/mbedtls/mbedtls-2.6.0/library\entropy.c **** }
 164:C:/Users/lenovo/Desktop/liteos/Project2/BearPi_LiteOS/components/security/mbedtls/mbedtls-2.6.0/library\entropy.c **** 
 165:C:/Users/lenovo/Desktop/liteos/Project2/BearPi_LiteOS/components/security/mbedtls/mbedtls-2.6.0/library\entropy.c **** /*
 166:C:/Users/lenovo/Desktop/liteos/Project2/BearPi_LiteOS/components/security/mbedtls/mbedtls-2.6.0/library\entropy.c ****  * Entropy accumulator update
 167:C:/Users/lenovo/Desktop/liteos/Project2/BearPi_LiteOS/components/security/mbedtls/mbedtls-2.6.0/library\entropy.c ****  */
 168:C:/Users/lenovo/Desktop/liteos/Project2/BearPi_LiteOS/components/security/mbedtls/mbedtls-2.6.0/library\entropy.c **** static int entropy_update( mbedtls_entropy_context *ctx, unsigned char source_id,
ARM GAS  c:\Users\lenovo\AppData\Local\Temp\ccdvFasW.s 			page 5


 169:C:/Users/lenovo/Desktop/liteos/Project2/BearPi_LiteOS/components/security/mbedtls/mbedtls-2.6.0/library\entropy.c ****                            const unsigned char *data, size_t len )
 170:C:/Users/lenovo/Desktop/liteos/Project2/BearPi_LiteOS/components/security/mbedtls/mbedtls-2.6.0/library\entropy.c **** {
  64              		.loc 1 170 0
  65              		.cfi_startproc
  66              		@ args = 0, pretend = 0, frame = 40
  67              		@ frame_needed = 0, uses_anonymous_args = 0
  68              	.LVL5:
  69 0000 F0B5     		push	{r4, r5, r6, r7, lr}
  70              	.LCFI0:
  71              		.cfi_def_cfa_offset 20
  72              		.cfi_offset 4, -20
  73              		.cfi_offset 5, -16
  74              		.cfi_offset 6, -12
  75              		.cfi_offset 7, -8
  76              		.cfi_offset 14, -4
  77 0002 8BB0     		sub	sp, sp, #44
  78              	.LCFI1:
  79              		.cfi_def_cfa_offset 64
  80 0004 0546     		mov	r5, r0
  81 0006 0F46     		mov	r7, r1
  82 0008 1646     		mov	r6, r2
  83 000a 1C46     		mov	r4, r3
  84              	.LVL6:
 171:C:/Users/lenovo/Desktop/liteos/Project2/BearPi_LiteOS/components/security/mbedtls/mbedtls-2.6.0/library\entropy.c ****     unsigned char header[2];
 172:C:/Users/lenovo/Desktop/liteos/Project2/BearPi_LiteOS/components/security/mbedtls/mbedtls-2.6.0/library\entropy.c ****     unsigned char tmp[MBEDTLS_ENTROPY_BLOCK_SIZE];
 173:C:/Users/lenovo/Desktop/liteos/Project2/BearPi_LiteOS/components/security/mbedtls/mbedtls-2.6.0/library\entropy.c ****     size_t use_len = len;
 174:C:/Users/lenovo/Desktop/liteos/Project2/BearPi_LiteOS/components/security/mbedtls/mbedtls-2.6.0/library\entropy.c ****     const unsigned char *p = data;
 175:C:/Users/lenovo/Desktop/liteos/Project2/BearPi_LiteOS/components/security/mbedtls/mbedtls-2.6.0/library\entropy.c **** 
 176:C:/Users/lenovo/Desktop/liteos/Project2/BearPi_LiteOS/components/security/mbedtls/mbedtls-2.6.0/library\entropy.c ****     if( use_len > MBEDTLS_ENTROPY_BLOCK_SIZE )
  85              		.loc 1 176 0
  86 000c 202B     		cmp	r3, #32
  87 000e 10D8     		bhi	.L7
  88              	.LVL7:
  89              	.L5:
 177:C:/Users/lenovo/Desktop/liteos/Project2/BearPi_LiteOS/components/security/mbedtls/mbedtls-2.6.0/library\entropy.c ****     {
 178:C:/Users/lenovo/Desktop/liteos/Project2/BearPi_LiteOS/components/security/mbedtls/mbedtls-2.6.0/library\entropy.c **** #if defined(MBEDTLS_ENTROPY_SHA512_ACCUMULATOR)
 179:C:/Users/lenovo/Desktop/liteos/Project2/BearPi_LiteOS/components/security/mbedtls/mbedtls-2.6.0/library\entropy.c ****         mbedtls_sha512( data, len, tmp, 0 );
 180:C:/Users/lenovo/Desktop/liteos/Project2/BearPi_LiteOS/components/security/mbedtls/mbedtls-2.6.0/library\entropy.c **** #else
 181:C:/Users/lenovo/Desktop/liteos/Project2/BearPi_LiteOS/components/security/mbedtls/mbedtls-2.6.0/library\entropy.c ****         mbedtls_sha256( data, len, tmp, 0 );
 182:C:/Users/lenovo/Desktop/liteos/Project2/BearPi_LiteOS/components/security/mbedtls/mbedtls-2.6.0/library\entropy.c **** #endif
 183:C:/Users/lenovo/Desktop/liteos/Project2/BearPi_LiteOS/components/security/mbedtls/mbedtls-2.6.0/library\entropy.c ****         p = tmp;
 184:C:/Users/lenovo/Desktop/liteos/Project2/BearPi_LiteOS/components/security/mbedtls/mbedtls-2.6.0/library\entropy.c ****         use_len = MBEDTLS_ENTROPY_BLOCK_SIZE;
 185:C:/Users/lenovo/Desktop/liteos/Project2/BearPi_LiteOS/components/security/mbedtls/mbedtls-2.6.0/library\entropy.c ****     }
 186:C:/Users/lenovo/Desktop/liteos/Project2/BearPi_LiteOS/components/security/mbedtls/mbedtls-2.6.0/library\entropy.c **** 
 187:C:/Users/lenovo/Desktop/liteos/Project2/BearPi_LiteOS/components/security/mbedtls/mbedtls-2.6.0/library\entropy.c ****     header[0] = source_id;
  90              		.loc 1 187 0
  91 0010 8DF82470 		strb	r7, [sp, #36]
 188:C:/Users/lenovo/Desktop/liteos/Project2/BearPi_LiteOS/components/security/mbedtls/mbedtls-2.6.0/library\entropy.c ****     header[1] = use_len & 0xFF;
  92              		.loc 1 188 0
  93 0014 8DF82540 		strb	r4, [sp, #37]
 189:C:/Users/lenovo/Desktop/liteos/Project2/BearPi_LiteOS/components/security/mbedtls/mbedtls-2.6.0/library\entropy.c **** 
 190:C:/Users/lenovo/Desktop/liteos/Project2/BearPi_LiteOS/components/security/mbedtls/mbedtls-2.6.0/library\entropy.c **** #if defined(MBEDTLS_ENTROPY_SHA512_ACCUMULATOR)
 191:C:/Users/lenovo/Desktop/liteos/Project2/BearPi_LiteOS/components/security/mbedtls/mbedtls-2.6.0/library\entropy.c ****     mbedtls_sha512_update( &ctx->accumulator, header, 2 );
 192:C:/Users/lenovo/Desktop/liteos/Project2/BearPi_LiteOS/components/security/mbedtls/mbedtls-2.6.0/library\entropy.c ****     mbedtls_sha512_update( &ctx->accumulator, p, use_len );
 193:C:/Users/lenovo/Desktop/liteos/Project2/BearPi_LiteOS/components/security/mbedtls/mbedtls-2.6.0/library\entropy.c **** #else
 194:C:/Users/lenovo/Desktop/liteos/Project2/BearPi_LiteOS/components/security/mbedtls/mbedtls-2.6.0/library\entropy.c ****     mbedtls_sha256_update( &ctx->accumulator, header, 2 );
  94              		.loc 1 194 0
ARM GAS  c:\Users\lenovo\AppData\Local\Temp\ccdvFasW.s 			page 6


  95 0018 0222     		movs	r2, #2
  96 001a 09A9     		add	r1, sp, #36
  97 001c 2846     		mov	r0, r5
  98 001e FFF7FEFF 		bl	mbedtls_sha256_update
  99              	.LVL8:
 195:C:/Users/lenovo/Desktop/liteos/Project2/BearPi_LiteOS/components/security/mbedtls/mbedtls-2.6.0/library\entropy.c ****     mbedtls_sha256_update( &ctx->accumulator, p, use_len );
 100              		.loc 1 195 0
 101 0022 2246     		mov	r2, r4
 102 0024 3146     		mov	r1, r6
 103 0026 2846     		mov	r0, r5
 104 0028 FFF7FEFF 		bl	mbedtls_sha256_update
 105              	.LVL9:
 196:C:/Users/lenovo/Desktop/liteos/Project2/BearPi_LiteOS/components/security/mbedtls/mbedtls-2.6.0/library\entropy.c **** #endif
 197:C:/Users/lenovo/Desktop/liteos/Project2/BearPi_LiteOS/components/security/mbedtls/mbedtls-2.6.0/library\entropy.c **** 
 198:C:/Users/lenovo/Desktop/liteos/Project2/BearPi_LiteOS/components/security/mbedtls/mbedtls-2.6.0/library\entropy.c ****     return( 0 );
 199:C:/Users/lenovo/Desktop/liteos/Project2/BearPi_LiteOS/components/security/mbedtls/mbedtls-2.6.0/library\entropy.c **** }
 106              		.loc 1 199 0
 107 002c 0020     		movs	r0, #0
 108 002e 0BB0     		add	sp, sp, #44
 109              	.LCFI2:
 110              		.cfi_remember_state
 111              		.cfi_def_cfa_offset 20
 112              		@ sp needed
 113 0030 F0BD     		pop	{r4, r5, r6, r7, pc}
 114              	.LVL10:
 115              	.L7:
 116              	.LCFI3:
 117              		.cfi_restore_state
 181:C:/Users/lenovo/Desktop/liteos/Project2/BearPi_LiteOS/components/security/mbedtls/mbedtls-2.6.0/library\entropy.c **** #endif
 118              		.loc 1 181 0
 119 0032 0023     		movs	r3, #0
 120              	.LVL11:
 121 0034 01AA     		add	r2, sp, #4
 122              	.LVL12:
 123 0036 2146     		mov	r1, r4
 124              	.LVL13:
 125 0038 3046     		mov	r0, r6
 126              	.LVL14:
 127 003a FFF7FEFF 		bl	mbedtls_sha256
 128              	.LVL15:
 183:C:/Users/lenovo/Desktop/liteos/Project2/BearPi_LiteOS/components/security/mbedtls/mbedtls-2.6.0/library\entropy.c ****         use_len = MBEDTLS_ENTROPY_BLOCK_SIZE;
 129              		.loc 1 183 0
 130 003e 01AE     		add	r6, sp, #4
 131              	.LVL16:
 184:C:/Users/lenovo/Desktop/liteos/Project2/BearPi_LiteOS/components/security/mbedtls/mbedtls-2.6.0/library\entropy.c ****     }
 132              		.loc 1 184 0
 133 0040 2024     		movs	r4, #32
 134              	.LVL17:
 135 0042 E5E7     		b	.L5
 136              		.cfi_endproc
 137              	.LFE4:
 139              		.section	.text.entropy_gather_internal,"ax",%progbits
 140              		.align	1
 141              		.syntax unified
 142              		.thumb
 143              		.thumb_func
 144              		.fpu fpv4-sp-d16
ARM GAS  c:\Users\lenovo\AppData\Local\Temp\ccdvFasW.s 			page 7


 146              	entropy_gather_internal:
 147              	.LFB6:
 200:C:/Users/lenovo/Desktop/liteos/Project2/BearPi_LiteOS/components/security/mbedtls/mbedtls-2.6.0/library\entropy.c **** 
 201:C:/Users/lenovo/Desktop/liteos/Project2/BearPi_LiteOS/components/security/mbedtls/mbedtls-2.6.0/library\entropy.c **** int mbedtls_entropy_update_manual( mbedtls_entropy_context *ctx,
 202:C:/Users/lenovo/Desktop/liteos/Project2/BearPi_LiteOS/components/security/mbedtls/mbedtls-2.6.0/library\entropy.c ****                            const unsigned char *data, size_t len )
 203:C:/Users/lenovo/Desktop/liteos/Project2/BearPi_LiteOS/components/security/mbedtls/mbedtls-2.6.0/library\entropy.c **** {
 204:C:/Users/lenovo/Desktop/liteos/Project2/BearPi_LiteOS/components/security/mbedtls/mbedtls-2.6.0/library\entropy.c ****     int ret;
 205:C:/Users/lenovo/Desktop/liteos/Project2/BearPi_LiteOS/components/security/mbedtls/mbedtls-2.6.0/library\entropy.c **** 
 206:C:/Users/lenovo/Desktop/liteos/Project2/BearPi_LiteOS/components/security/mbedtls/mbedtls-2.6.0/library\entropy.c **** #if defined(MBEDTLS_THREADING_C)
 207:C:/Users/lenovo/Desktop/liteos/Project2/BearPi_LiteOS/components/security/mbedtls/mbedtls-2.6.0/library\entropy.c ****     if( ( ret = mbedtls_mutex_lock( &ctx->mutex ) ) != 0 )
 208:C:/Users/lenovo/Desktop/liteos/Project2/BearPi_LiteOS/components/security/mbedtls/mbedtls-2.6.0/library\entropy.c ****         return( ret );
 209:C:/Users/lenovo/Desktop/liteos/Project2/BearPi_LiteOS/components/security/mbedtls/mbedtls-2.6.0/library\entropy.c **** #endif
 210:C:/Users/lenovo/Desktop/liteos/Project2/BearPi_LiteOS/components/security/mbedtls/mbedtls-2.6.0/library\entropy.c **** 
 211:C:/Users/lenovo/Desktop/liteos/Project2/BearPi_LiteOS/components/security/mbedtls/mbedtls-2.6.0/library\entropy.c ****     ret = entropy_update( ctx, MBEDTLS_ENTROPY_SOURCE_MANUAL, data, len );
 212:C:/Users/lenovo/Desktop/liteos/Project2/BearPi_LiteOS/components/security/mbedtls/mbedtls-2.6.0/library\entropy.c **** 
 213:C:/Users/lenovo/Desktop/liteos/Project2/BearPi_LiteOS/components/security/mbedtls/mbedtls-2.6.0/library\entropy.c **** #if defined(MBEDTLS_THREADING_C)
 214:C:/Users/lenovo/Desktop/liteos/Project2/BearPi_LiteOS/components/security/mbedtls/mbedtls-2.6.0/library\entropy.c ****     if( mbedtls_mutex_unlock( &ctx->mutex ) != 0 )
 215:C:/Users/lenovo/Desktop/liteos/Project2/BearPi_LiteOS/components/security/mbedtls/mbedtls-2.6.0/library\entropy.c ****         return( MBEDTLS_ERR_THREADING_MUTEX_ERROR );
 216:C:/Users/lenovo/Desktop/liteos/Project2/BearPi_LiteOS/components/security/mbedtls/mbedtls-2.6.0/library\entropy.c **** #endif
 217:C:/Users/lenovo/Desktop/liteos/Project2/BearPi_LiteOS/components/security/mbedtls/mbedtls-2.6.0/library\entropy.c **** 
 218:C:/Users/lenovo/Desktop/liteos/Project2/BearPi_LiteOS/components/security/mbedtls/mbedtls-2.6.0/library\entropy.c ****     return( ret );
 219:C:/Users/lenovo/Desktop/liteos/Project2/BearPi_LiteOS/components/security/mbedtls/mbedtls-2.6.0/library\entropy.c **** }
 220:C:/Users/lenovo/Desktop/liteos/Project2/BearPi_LiteOS/components/security/mbedtls/mbedtls-2.6.0/library\entropy.c **** 
 221:C:/Users/lenovo/Desktop/liteos/Project2/BearPi_LiteOS/components/security/mbedtls/mbedtls-2.6.0/library\entropy.c **** /*
 222:C:/Users/lenovo/Desktop/liteos/Project2/BearPi_LiteOS/components/security/mbedtls/mbedtls-2.6.0/library\entropy.c ****  * Run through the different sources to add entropy to our accumulator
 223:C:/Users/lenovo/Desktop/liteos/Project2/BearPi_LiteOS/components/security/mbedtls/mbedtls-2.6.0/library\entropy.c ****  */
 224:C:/Users/lenovo/Desktop/liteos/Project2/BearPi_LiteOS/components/security/mbedtls/mbedtls-2.6.0/library\entropy.c **** static int entropy_gather_internal( mbedtls_entropy_context *ctx )
 225:C:/Users/lenovo/Desktop/liteos/Project2/BearPi_LiteOS/components/security/mbedtls/mbedtls-2.6.0/library\entropy.c **** {
 148              		.loc 1 225 0
 149              		.cfi_startproc
 150              		@ args = 0, pretend = 0, frame = 136
 151              		@ frame_needed = 0, uses_anonymous_args = 0
 152              	.LVL18:
 226:C:/Users/lenovo/Desktop/liteos/Project2/BearPi_LiteOS/components/security/mbedtls/mbedtls-2.6.0/library\entropy.c ****     int ret, i, have_one_strong = 0;
 227:C:/Users/lenovo/Desktop/liteos/Project2/BearPi_LiteOS/components/security/mbedtls/mbedtls-2.6.0/library\entropy.c ****     unsigned char buf[MBEDTLS_ENTROPY_MAX_GATHER];
 228:C:/Users/lenovo/Desktop/liteos/Project2/BearPi_LiteOS/components/security/mbedtls/mbedtls-2.6.0/library\entropy.c ****     size_t olen;
 229:C:/Users/lenovo/Desktop/liteos/Project2/BearPi_LiteOS/components/security/mbedtls/mbedtls-2.6.0/library\entropy.c **** 
 230:C:/Users/lenovo/Desktop/liteos/Project2/BearPi_LiteOS/components/security/mbedtls/mbedtls-2.6.0/library\entropy.c ****     if( ctx->source_count == 0 )
 153              		.loc 1 230 0
 154 0000 C36E     		ldr	r3, [r0, #108]
 155 0002 002B     		cmp	r3, #0
 156 0004 3CD0     		beq	.L14
 225:C:/Users/lenovo/Desktop/liteos/Project2/BearPi_LiteOS/components/security/mbedtls/mbedtls-2.6.0/library\entropy.c ****     int ret, i, have_one_strong = 0;
 157              		.loc 1 225 0
 158 0006 2DE9F041 		push	{r4, r5, r6, r7, r8, lr}
 159              	.LCFI4:
 160              		.cfi_def_cfa_offset 24
 161              		.cfi_offset 4, -24
 162              		.cfi_offset 5, -20
 163              		.cfi_offset 6, -16
 164              		.cfi_offset 7, -12
 165              		.cfi_offset 8, -8
 166              		.cfi_offset 14, -4
 167 000a A2B0     		sub	sp, sp, #136
 168              	.LCFI5:
 169              		.cfi_def_cfa_offset 160
 170 000c 0646     		mov	r6, r0
ARM GAS  c:\Users\lenovo\AppData\Local\Temp\ccdvFasW.s 			page 8


 226:C:/Users/lenovo/Desktop/liteos/Project2/BearPi_LiteOS/components/security/mbedtls/mbedtls-2.6.0/library\entropy.c ****     int ret, i, have_one_strong = 0;
 171              		.loc 1 226 0
 172 000e 4FF00008 		mov	r8, #0
 231:C:/Users/lenovo/Desktop/liteos/Project2/BearPi_LiteOS/components/security/mbedtls/mbedtls-2.6.0/library\entropy.c ****         return( MBEDTLS_ERR_ENTROPY_NO_SOURCES_DEFINED );
 232:C:/Users/lenovo/Desktop/liteos/Project2/BearPi_LiteOS/components/security/mbedtls/mbedtls-2.6.0/library\entropy.c **** 
 233:C:/Users/lenovo/Desktop/liteos/Project2/BearPi_LiteOS/components/security/mbedtls/mbedtls-2.6.0/library\entropy.c ****     /*
 234:C:/Users/lenovo/Desktop/liteos/Project2/BearPi_LiteOS/components/security/mbedtls/mbedtls-2.6.0/library\entropy.c ****      * Run through our entropy sources
 235:C:/Users/lenovo/Desktop/liteos/Project2/BearPi_LiteOS/components/security/mbedtls/mbedtls-2.6.0/library\entropy.c ****      */
 236:C:/Users/lenovo/Desktop/liteos/Project2/BearPi_LiteOS/components/security/mbedtls/mbedtls-2.6.0/library\entropy.c ****     for( i = 0; i < ctx->source_count; i++ )
 173              		.loc 1 236 0
 174 0012 4446     		mov	r4, r8
 175 0014 0BE0     		b	.L10
 176              	.LVL19:
 177              	.L22:
 237:C:/Users/lenovo/Desktop/liteos/Project2/BearPi_LiteOS/components/security/mbedtls/mbedtls-2.6.0/library\entropy.c ****     {
 238:C:/Users/lenovo/Desktop/liteos/Project2/BearPi_LiteOS/components/security/mbedtls/mbedtls-2.6.0/library\entropy.c ****         if( ctx->source[i].strong == MBEDTLS_ENTROPY_SOURCE_STRONG )
 239:C:/Users/lenovo/Desktop/liteos/Project2/BearPi_LiteOS/components/security/mbedtls/mbedtls-2.6.0/library\entropy.c ****             have_one_strong = 1;
 178              		.loc 1 239 0
 179 0016 9846     		mov	r8, r3
 180              	.LVL20:
 181 0018 14E0     		b	.L11
 182              	.LVL21:
 183              	.L23:
 240:C:/Users/lenovo/Desktop/liteos/Project2/BearPi_LiteOS/components/security/mbedtls/mbedtls-2.6.0/library\entropy.c **** 
 241:C:/Users/lenovo/Desktop/liteos/Project2/BearPi_LiteOS/components/security/mbedtls/mbedtls-2.6.0/library\entropy.c ****         olen = 0;
 242:C:/Users/lenovo/Desktop/liteos/Project2/BearPi_LiteOS/components/security/mbedtls/mbedtls-2.6.0/library\entropy.c ****         if( ( ret = ctx->source[i].f_source( ctx->source[i].p_source,
 243:C:/Users/lenovo/Desktop/liteos/Project2/BearPi_LiteOS/components/security/mbedtls/mbedtls-2.6.0/library\entropy.c ****                         buf, MBEDTLS_ENTROPY_MAX_GATHER, &olen ) ) != 0 )
 244:C:/Users/lenovo/Desktop/liteos/Project2/BearPi_LiteOS/components/security/mbedtls/mbedtls-2.6.0/library\entropy.c ****         {
 245:C:/Users/lenovo/Desktop/liteos/Project2/BearPi_LiteOS/components/security/mbedtls/mbedtls-2.6.0/library\entropy.c ****             return( ret );
 246:C:/Users/lenovo/Desktop/liteos/Project2/BearPi_LiteOS/components/security/mbedtls/mbedtls-2.6.0/library\entropy.c ****         }
 247:C:/Users/lenovo/Desktop/liteos/Project2/BearPi_LiteOS/components/security/mbedtls/mbedtls-2.6.0/library\entropy.c **** 
 248:C:/Users/lenovo/Desktop/liteos/Project2/BearPi_LiteOS/components/security/mbedtls/mbedtls-2.6.0/library\entropy.c ****         /*
 249:C:/Users/lenovo/Desktop/liteos/Project2/BearPi_LiteOS/components/security/mbedtls/mbedtls-2.6.0/library\entropy.c ****          * Add if we actually gathered something
 250:C:/Users/lenovo/Desktop/liteos/Project2/BearPi_LiteOS/components/security/mbedtls/mbedtls-2.6.0/library\entropy.c ****          */
 251:C:/Users/lenovo/Desktop/liteos/Project2/BearPi_LiteOS/components/security/mbedtls/mbedtls-2.6.0/library\entropy.c ****         if( olen > 0 )
 252:C:/Users/lenovo/Desktop/liteos/Project2/BearPi_LiteOS/components/security/mbedtls/mbedtls-2.6.0/library\entropy.c ****         {
 253:C:/Users/lenovo/Desktop/liteos/Project2/BearPi_LiteOS/components/security/mbedtls/mbedtls-2.6.0/library\entropy.c ****             entropy_update( ctx, (unsigned char) i, buf, olen );
 184              		.loc 1 253 0
 185 001a 02AA     		add	r2, sp, #8
 186 001c E1B2     		uxtb	r1, r4
 187 001e 3046     		mov	r0, r6
 188              	.LVL22:
 189 0020 FFF7FEFF 		bl	entropy_update
 190              	.LVL23:
 254:C:/Users/lenovo/Desktop/liteos/Project2/BearPi_LiteOS/components/security/mbedtls/mbedtls-2.6.0/library\entropy.c ****             ctx->source[i].size += olen;
 191              		.loc 1 254 0
 192 0024 AA6F     		ldr	r2, [r5, #120]
 193 0026 0199     		ldr	r1, [sp, #4]
 194 0028 0A44     		add	r2, r2, r1
 195 002a AA67     		str	r2, [r5, #120]
 196              	.L12:
 236:C:/Users/lenovo/Desktop/liteos/Project2/BearPi_LiteOS/components/security/mbedtls/mbedtls-2.6.0/library\entropy.c ****     {
 197              		.loc 1 236 0 discriminator 2
 198 002c 0134     		adds	r4, r4, #1
 199              	.LVL24:
 200              	.L10:
 236:C:/Users/lenovo/Desktop/liteos/Project2/BearPi_LiteOS/components/security/mbedtls/mbedtls-2.6.0/library\entropy.c ****     {
ARM GAS  c:\Users\lenovo\AppData\Local\Temp\ccdvFasW.s 			page 9


 201              		.loc 1 236 0 is_stmt 0 discriminator 1
 202 002e F36E     		ldr	r3, [r6, #108]
 203 0030 A342     		cmp	r3, r4
 204 0032 1ADD     		ble	.L21
 238:C:/Users/lenovo/Desktop/liteos/Project2/BearPi_LiteOS/components/security/mbedtls/mbedtls-2.6.0/library\entropy.c ****             have_one_strong = 1;
 205              		.loc 1 238 0 is_stmt 1
 206 0034 04EB8402 		add	r2, r4, r4, lsl #2
 207 0038 9300     		lsls	r3, r2, #2
 208 003a 3344     		add	r3, r3, r6
 209 003c D3F88030 		ldr	r3, [r3, #128]
 210 0040 012B     		cmp	r3, #1
 211 0042 E8D0     		beq	.L22
 212              	.LVL25:
 213              	.L11:
 241:C:/Users/lenovo/Desktop/liteos/Project2/BearPi_LiteOS/components/security/mbedtls/mbedtls-2.6.0/library\entropy.c ****         if( ( ret = ctx->source[i].f_source( ctx->source[i].p_source,
 214              		.loc 1 241 0
 215 0044 22AB     		add	r3, sp, #136
 216 0046 0022     		movs	r2, #0
 217 0048 43F8842D 		str	r2, [r3, #-132]!
 242:C:/Users/lenovo/Desktop/liteos/Project2/BearPi_LiteOS/components/security/mbedtls/mbedtls-2.6.0/library\entropy.c ****                         buf, MBEDTLS_ENTROPY_MAX_GATHER, &olen ) ) != 0 )
 218              		.loc 1 242 0
 219 004c A200     		lsls	r2, r4, #2
 220 004e 2244     		add	r2, r2, r4
 221 0050 9500     		lsls	r5, r2, #2
 222 0052 3544     		add	r5, r5, r6
 223 0054 2F6F     		ldr	r7, [r5, #112]
 224 0056 8022     		movs	r2, #128
 225 0058 02A9     		add	r1, sp, #8
 226 005a 686F     		ldr	r0, [r5, #116]
 227 005c B847     		blx	r7
 228              	.LVL26:
 229 005e 0346     		mov	r3, r0
 230 0060 38B9     		cbnz	r0, .L8
 251:C:/Users/lenovo/Desktop/liteos/Project2/BearPi_LiteOS/components/security/mbedtls/mbedtls-2.6.0/library\entropy.c ****         {
 231              		.loc 1 251 0
 232 0062 019B     		ldr	r3, [sp, #4]
 233 0064 002B     		cmp	r3, #0
 234 0066 E1D0     		beq	.L12
 235 0068 D7E7     		b	.L23
 236              	.LVL27:
 237              	.L21:
 255:C:/Users/lenovo/Desktop/liteos/Project2/BearPi_LiteOS/components/security/mbedtls/mbedtls-2.6.0/library\entropy.c ****         }
 256:C:/Users/lenovo/Desktop/liteos/Project2/BearPi_LiteOS/components/security/mbedtls/mbedtls-2.6.0/library\entropy.c ****     }
 257:C:/Users/lenovo/Desktop/liteos/Project2/BearPi_LiteOS/components/security/mbedtls/mbedtls-2.6.0/library\entropy.c **** 
 258:C:/Users/lenovo/Desktop/liteos/Project2/BearPi_LiteOS/components/security/mbedtls/mbedtls-2.6.0/library\entropy.c ****     if( have_one_strong == 0 )
 238              		.loc 1 258 0
 239 006a B8F1000F 		cmp	r8, #0
 240 006e 04D0     		beq	.L24
 259:C:/Users/lenovo/Desktop/liteos/Project2/BearPi_LiteOS/components/security/mbedtls/mbedtls-2.6.0/library\entropy.c ****         return( MBEDTLS_ERR_ENTROPY_NO_STRONG_SOURCE );
 260:C:/Users/lenovo/Desktop/liteos/Project2/BearPi_LiteOS/components/security/mbedtls/mbedtls-2.6.0/library\entropy.c **** 
 261:C:/Users/lenovo/Desktop/liteos/Project2/BearPi_LiteOS/components/security/mbedtls/mbedtls-2.6.0/library\entropy.c ****     return( 0 );
 241              		.loc 1 261 0
 242 0070 0023     		movs	r3, #0
 243              	.L8:
 262:C:/Users/lenovo/Desktop/liteos/Project2/BearPi_LiteOS/components/security/mbedtls/mbedtls-2.6.0/library\entropy.c **** }
 244              		.loc 1 262 0
 245 0072 1846     		mov	r0, r3
ARM GAS  c:\Users\lenovo\AppData\Local\Temp\ccdvFasW.s 			page 10


 246 0074 22B0     		add	sp, sp, #136
 247              	.LCFI6:
 248              		.cfi_remember_state
 249              		.cfi_def_cfa_offset 24
 250              		@ sp needed
 251 0076 BDE8F081 		pop	{r4, r5, r6, r7, r8, pc}
 252              	.LVL28:
 253              	.L24:
 254              	.LCFI7:
 255              		.cfi_restore_state
 259:C:/Users/lenovo/Desktop/liteos/Project2/BearPi_LiteOS/components/security/mbedtls/mbedtls-2.6.0/library\entropy.c ****         return( MBEDTLS_ERR_ENTROPY_NO_STRONG_SOURCE );
 256              		.loc 1 259 0
 257 007a 6FF03C03 		mvn	r3, #60
 258 007e F8E7     		b	.L8
 259              	.LVL29:
 260              	.L14:
 261              	.LCFI8:
 262              		.cfi_def_cfa_offset 0
 263              		.cfi_restore 4
 264              		.cfi_restore 5
 265              		.cfi_restore 6
 266              		.cfi_restore 7
 267              		.cfi_restore 8
 268              		.cfi_restore 14
 231:C:/Users/lenovo/Desktop/liteos/Project2/BearPi_LiteOS/components/security/mbedtls/mbedtls-2.6.0/library\entropy.c **** 
 269              		.loc 1 231 0
 270 0080 6FF03F03 		mvn	r3, #63
 271              		.loc 1 262 0
 272 0084 1846     		mov	r0, r3
 273              	.LVL30:
 274 0086 7047     		bx	lr
 275              		.cfi_endproc
 276              	.LFE6:
 278              		.section	.text.mbedtls_entropy_free,"ax",%progbits
 279              		.align	1
 280              		.global	mbedtls_entropy_free
 281              		.syntax unified
 282              		.thumb
 283              		.thumb_func
 284              		.fpu fpv4-sp-d16
 286              	mbedtls_entropy_free:
 287              	.LFB2:
 121:C:/Users/lenovo/Desktop/liteos/Project2/BearPi_LiteOS/components/security/mbedtls/mbedtls-2.6.0/library\entropy.c **** #if defined(MBEDTLS_HAVEGE_C)
 288              		.loc 1 121 0
 289              		.cfi_startproc
 290              		@ args = 0, pretend = 0, frame = 0
 291              		@ frame_needed = 0, uses_anonymous_args = 0
 292              	.LVL31:
 293 0000 08B5     		push	{r3, lr}
 294              	.LCFI9:
 295              		.cfi_def_cfa_offset 8
 296              		.cfi_offset 3, -8
 297              		.cfi_offset 14, -4
 128:C:/Users/lenovo/Desktop/liteos/Project2/BearPi_LiteOS/components/security/mbedtls/mbedtls-2.6.0/library\entropy.c **** }
 298              		.loc 1 128 0
 299 0002 8421     		movs	r1, #132
 300 0004 FFF7FEFF 		bl	mbedtls_zeroize
ARM GAS  c:\Users\lenovo\AppData\Local\Temp\ccdvFasW.s 			page 11


 301              	.LVL32:
 129:C:/Users/lenovo/Desktop/liteos/Project2/BearPi_LiteOS/components/security/mbedtls/mbedtls-2.6.0/library\entropy.c **** 
 302              		.loc 1 129 0
 303 0008 08BD     		pop	{r3, pc}
 304              		.cfi_endproc
 305              	.LFE2:
 307              		.section	.text.mbedtls_entropy_add_source,"ax",%progbits
 308              		.align	1
 309              		.global	mbedtls_entropy_add_source
 310              		.syntax unified
 311              		.thumb
 312              		.thumb_func
 313              		.fpu fpv4-sp-d16
 315              	mbedtls_entropy_add_source:
 316              	.LFB3:
 134:C:/Users/lenovo/Desktop/liteos/Project2/BearPi_LiteOS/components/security/mbedtls/mbedtls-2.6.0/library\entropy.c ****     int idx, ret = 0;
 317              		.loc 1 134 0
 318              		.cfi_startproc
 319              		@ args = 4, pretend = 0, frame = 0
 320              		@ frame_needed = 0, uses_anonymous_args = 0
 321              		@ link register save eliminated.
 322              	.LVL33:
 323 0000 70B4     		push	{r4, r5, r6}
 324              	.LCFI10:
 325              		.cfi_def_cfa_offset 12
 326              		.cfi_offset 4, -12
 327              		.cfi_offset 5, -8
 328              		.cfi_offset 6, -4
 329              	.LVL34:
 142:C:/Users/lenovo/Desktop/liteos/Project2/BearPi_LiteOS/components/security/mbedtls/mbedtls-2.6.0/library\entropy.c ****     if( idx >= MBEDTLS_ENTROPY_MAX_SOURCES )
 330              		.loc 1 142 0
 331 0002 C56E     		ldr	r5, [r0, #108]
 332              	.LVL35:
 143:C:/Users/lenovo/Desktop/liteos/Project2/BearPi_LiteOS/components/security/mbedtls/mbedtls-2.6.0/library\entropy.c ****     {
 333              		.loc 1 143 0
 334 0004 002D     		cmp	r5, #0
 335 0006 0EDC     		bgt	.L29
 149:C:/Users/lenovo/Desktop/liteos/Project2/BearPi_LiteOS/components/security/mbedtls/mbedtls-2.6.0/library\entropy.c ****     ctx->source[idx].p_source  = p_source;
 336              		.loc 1 149 0
 337 0008 AE00     		lsls	r6, r5, #2
 338 000a 2E44     		add	r6, r6, r5
 339 000c B400     		lsls	r4, r6, #2
 340 000e 0444     		add	r4, r4, r0
 341 0010 2167     		str	r1, [r4, #112]
 150:C:/Users/lenovo/Desktop/liteos/Project2/BearPi_LiteOS/components/security/mbedtls/mbedtls-2.6.0/library\entropy.c ****     ctx->source[idx].threshold = threshold;
 342              		.loc 1 150 0
 343 0012 6267     		str	r2, [r4, #116]
 151:C:/Users/lenovo/Desktop/liteos/Project2/BearPi_LiteOS/components/security/mbedtls/mbedtls-2.6.0/library\entropy.c ****     ctx->source[idx].strong    = strong;
 344              		.loc 1 151 0
 345 0014 E367     		str	r3, [r4, #124]
 152:C:/Users/lenovo/Desktop/liteos/Project2/BearPi_LiteOS/components/security/mbedtls/mbedtls-2.6.0/library\entropy.c **** 
 346              		.loc 1 152 0
 347 0016 039B     		ldr	r3, [sp, #12]
 348              	.LVL36:
 349 0018 C4F88030 		str	r3, [r4, #128]
 154:C:/Users/lenovo/Desktop/liteos/Project2/BearPi_LiteOS/components/security/mbedtls/mbedtls-2.6.0/library\entropy.c **** 
 350              		.loc 1 154 0
ARM GAS  c:\Users\lenovo\AppData\Local\Temp\ccdvFasW.s 			page 12


 351 001c 0135     		adds	r5, r5, #1
 352              	.LVL37:
 353 001e C566     		str	r5, [r0, #108]
 354              	.LVL38:
 135:C:/Users/lenovo/Desktop/liteos/Project2/BearPi_LiteOS/components/security/mbedtls/mbedtls-2.6.0/library\entropy.c **** 
 355              		.loc 1 135 0
 356 0020 0020     		movs	r0, #0
 357              	.LVL39:
 358              	.L27:
 163:C:/Users/lenovo/Desktop/liteos/Project2/BearPi_LiteOS/components/security/mbedtls/mbedtls-2.6.0/library\entropy.c **** 
 359              		.loc 1 163 0
 360 0022 70BC     		pop	{r4, r5, r6}
 361              	.LCFI11:
 362              		.cfi_remember_state
 363              		.cfi_restore 6
 364              		.cfi_restore 5
 365              		.cfi_restore 4
 366              		.cfi_def_cfa_offset 0
 367              	.LVL40:
 368 0024 7047     		bx	lr
 369              	.LVL41:
 370              	.L29:
 371              	.LCFI12:
 372              		.cfi_restore_state
 145:C:/Users/lenovo/Desktop/liteos/Project2/BearPi_LiteOS/components/security/mbedtls/mbedtls-2.6.0/library\entropy.c ****         goto exit;
 373              		.loc 1 145 0
 374 0026 6FF03D00 		mvn	r0, #61
 375              	.LVL42:
 376              	.L28:
 162:C:/Users/lenovo/Desktop/liteos/Project2/BearPi_LiteOS/components/security/mbedtls/mbedtls-2.6.0/library\entropy.c **** }
 377              		.loc 1 162 0
 378 002a FAE7     		b	.L27
 379              		.cfi_endproc
 380              	.LFE3:
 382              		.section	.text.mbedtls_entropy_init,"ax",%progbits
 383              		.align	1
 384              		.global	mbedtls_entropy_init
 385              		.syntax unified
 386              		.thumb
 387              		.thumb_func
 388              		.fpu fpv4-sp-d16
 390              	mbedtls_entropy_init:
 391              	.LFB1:
  70:C:/Users/lenovo/Desktop/liteos/Project2/BearPi_LiteOS/components/security/mbedtls/mbedtls-2.6.0/library\entropy.c ****     memset( ctx, 0, sizeof(mbedtls_entropy_context) );
 392              		.loc 1 70 0
 393              		.cfi_startproc
 394              		@ args = 0, pretend = 0, frame = 0
 395              		@ frame_needed = 0, uses_anonymous_args = 0
 396              	.LVL43:
 397 0000 10B5     		push	{r4, lr}
 398              	.LCFI13:
 399              		.cfi_def_cfa_offset 8
 400              		.cfi_offset 4, -8
 401              		.cfi_offset 14, -4
 402 0002 82B0     		sub	sp, sp, #8
 403              	.LCFI14:
 404              		.cfi_def_cfa_offset 16
ARM GAS  c:\Users\lenovo\AppData\Local\Temp\ccdvFasW.s 			page 13


 405 0004 0446     		mov	r4, r0
  71:C:/Users/lenovo/Desktop/liteos/Project2/BearPi_LiteOS/components/security/mbedtls/mbedtls-2.6.0/library\entropy.c **** 
 406              		.loc 1 71 0
 407 0006 8422     		movs	r2, #132
 408 0008 0021     		movs	r1, #0
 409 000a FFF7FEFF 		bl	memset
 410              	.LVL44:
  80:C:/Users/lenovo/Desktop/liteos/Project2/BearPi_LiteOS/components/security/mbedtls/mbedtls-2.6.0/library\entropy.c **** #endif
 411              		.loc 1 80 0
 412 000e 0021     		movs	r1, #0
 413 0010 2046     		mov	r0, r4
 414 0012 FFF7FEFF 		bl	mbedtls_sha256_starts
 415              	.LVL45:
 108:C:/Users/lenovo/Desktop/liteos/Project2/BearPi_LiteOS/components/security/mbedtls/mbedtls-2.6.0/library\entropy.c ****                                 MBEDTLS_ENTROPY_MIN_HARDWARE,
 416              		.loc 1 108 0
 417 0016 0123     		movs	r3, #1
 418 0018 0093     		str	r3, [sp]
 419 001a 2023     		movs	r3, #32
 420 001c 0022     		movs	r2, #0
 421 001e 0349     		ldr	r1, .L33
 422 0020 2046     		mov	r0, r4
 423 0022 FFF7FEFF 		bl	mbedtls_entropy_add_source
 424              	.LVL46:
 118:C:/Users/lenovo/Desktop/liteos/Project2/BearPi_LiteOS/components/security/mbedtls/mbedtls-2.6.0/library\entropy.c **** 
 425              		.loc 1 118 0
 426 0026 02B0     		add	sp, sp, #8
 427              	.LCFI15:
 428              		.cfi_def_cfa_offset 8
 429              		@ sp needed
 430 0028 10BD     		pop	{r4, pc}
 431              	.LVL47:
 432              	.L34:
 433 002a 00BF     		.align	2
 434              	.L33:
 435 002c 00000000 		.word	mbedtls_hardware_poll
 436              		.cfi_endproc
 437              	.LFE1:
 439              		.section	.text.mbedtls_entropy_update_manual,"ax",%progbits
 440              		.align	1
 441              		.global	mbedtls_entropy_update_manual
 442              		.syntax unified
 443              		.thumb
 444              		.thumb_func
 445              		.fpu fpv4-sp-d16
 447              	mbedtls_entropy_update_manual:
 448              	.LFB5:
 203:C:/Users/lenovo/Desktop/liteos/Project2/BearPi_LiteOS/components/security/mbedtls/mbedtls-2.6.0/library\entropy.c ****     int ret;
 449              		.loc 1 203 0
 450              		.cfi_startproc
 451              		@ args = 0, pretend = 0, frame = 0
 452              		@ frame_needed = 0, uses_anonymous_args = 0
 453              	.LVL48:
 454 0000 08B5     		push	{r3, lr}
 455              	.LCFI16:
 456              		.cfi_def_cfa_offset 8
 457              		.cfi_offset 3, -8
 458              		.cfi_offset 14, -4
ARM GAS  c:\Users\lenovo\AppData\Local\Temp\ccdvFasW.s 			page 14


 211:C:/Users/lenovo/Desktop/liteos/Project2/BearPi_LiteOS/components/security/mbedtls/mbedtls-2.6.0/library\entropy.c **** 
 459              		.loc 1 211 0
 460 0002 1346     		mov	r3, r2
 461 0004 0A46     		mov	r2, r1
 462              	.LVL49:
 463 0006 0121     		movs	r1, #1
 464              	.LVL50:
 465 0008 FFF7FEFF 		bl	entropy_update
 466              	.LVL51:
 219:C:/Users/lenovo/Desktop/liteos/Project2/BearPi_LiteOS/components/security/mbedtls/mbedtls-2.6.0/library\entropy.c **** 
 467              		.loc 1 219 0
 468 000c 08BD     		pop	{r3, pc}
 469              		.cfi_endproc
 470              	.LFE5:
 472              		.section	.text.mbedtls_entropy_gather,"ax",%progbits
 473              		.align	1
 474              		.global	mbedtls_entropy_gather
 475              		.syntax unified
 476              		.thumb
 477              		.thumb_func
 478              		.fpu fpv4-sp-d16
 480              	mbedtls_entropy_gather:
 481              	.LFB7:
 263:C:/Users/lenovo/Desktop/liteos/Project2/BearPi_LiteOS/components/security/mbedtls/mbedtls-2.6.0/library\entropy.c **** 
 264:C:/Users/lenovo/Desktop/liteos/Project2/BearPi_LiteOS/components/security/mbedtls/mbedtls-2.6.0/library\entropy.c **** /*
 265:C:/Users/lenovo/Desktop/liteos/Project2/BearPi_LiteOS/components/security/mbedtls/mbedtls-2.6.0/library\entropy.c ****  * Thread-safe wrapper for entropy_gather_internal()
 266:C:/Users/lenovo/Desktop/liteos/Project2/BearPi_LiteOS/components/security/mbedtls/mbedtls-2.6.0/library\entropy.c ****  */
 267:C:/Users/lenovo/Desktop/liteos/Project2/BearPi_LiteOS/components/security/mbedtls/mbedtls-2.6.0/library\entropy.c **** int mbedtls_entropy_gather( mbedtls_entropy_context *ctx )
 268:C:/Users/lenovo/Desktop/liteos/Project2/BearPi_LiteOS/components/security/mbedtls/mbedtls-2.6.0/library\entropy.c **** {
 482              		.loc 1 268 0
 483              		.cfi_startproc
 484              		@ args = 0, pretend = 0, frame = 0
 485              		@ frame_needed = 0, uses_anonymous_args = 0
 486              	.LVL52:
 487 0000 08B5     		push	{r3, lr}
 488              	.LCFI17:
 489              		.cfi_def_cfa_offset 8
 490              		.cfi_offset 3, -8
 491              		.cfi_offset 14, -4
 269:C:/Users/lenovo/Desktop/liteos/Project2/BearPi_LiteOS/components/security/mbedtls/mbedtls-2.6.0/library\entropy.c ****     int ret;
 270:C:/Users/lenovo/Desktop/liteos/Project2/BearPi_LiteOS/components/security/mbedtls/mbedtls-2.6.0/library\entropy.c **** 
 271:C:/Users/lenovo/Desktop/liteos/Project2/BearPi_LiteOS/components/security/mbedtls/mbedtls-2.6.0/library\entropy.c **** #if defined(MBEDTLS_THREADING_C)
 272:C:/Users/lenovo/Desktop/liteos/Project2/BearPi_LiteOS/components/security/mbedtls/mbedtls-2.6.0/library\entropy.c ****     if( ( ret = mbedtls_mutex_lock( &ctx->mutex ) ) != 0 )
 273:C:/Users/lenovo/Desktop/liteos/Project2/BearPi_LiteOS/components/security/mbedtls/mbedtls-2.6.0/library\entropy.c ****         return( ret );
 274:C:/Users/lenovo/Desktop/liteos/Project2/BearPi_LiteOS/components/security/mbedtls/mbedtls-2.6.0/library\entropy.c **** #endif
 275:C:/Users/lenovo/Desktop/liteos/Project2/BearPi_LiteOS/components/security/mbedtls/mbedtls-2.6.0/library\entropy.c **** 
 276:C:/Users/lenovo/Desktop/liteos/Project2/BearPi_LiteOS/components/security/mbedtls/mbedtls-2.6.0/library\entropy.c ****     ret = entropy_gather_internal( ctx );
 492              		.loc 1 276 0
 493 0002 FFF7FEFF 		bl	entropy_gather_internal
 494              	.LVL53:
 277:C:/Users/lenovo/Desktop/liteos/Project2/BearPi_LiteOS/components/security/mbedtls/mbedtls-2.6.0/library\entropy.c **** 
 278:C:/Users/lenovo/Desktop/liteos/Project2/BearPi_LiteOS/components/security/mbedtls/mbedtls-2.6.0/library\entropy.c **** #if defined(MBEDTLS_THREADING_C)
 279:C:/Users/lenovo/Desktop/liteos/Project2/BearPi_LiteOS/components/security/mbedtls/mbedtls-2.6.0/library\entropy.c ****     if( mbedtls_mutex_unlock( &ctx->mutex ) != 0 )
 280:C:/Users/lenovo/Desktop/liteos/Project2/BearPi_LiteOS/components/security/mbedtls/mbedtls-2.6.0/library\entropy.c ****         return( MBEDTLS_ERR_THREADING_MUTEX_ERROR );
 281:C:/Users/lenovo/Desktop/liteos/Project2/BearPi_LiteOS/components/security/mbedtls/mbedtls-2.6.0/library\entropy.c **** #endif
 282:C:/Users/lenovo/Desktop/liteos/Project2/BearPi_LiteOS/components/security/mbedtls/mbedtls-2.6.0/library\entropy.c **** 
 283:C:/Users/lenovo/Desktop/liteos/Project2/BearPi_LiteOS/components/security/mbedtls/mbedtls-2.6.0/library\entropy.c ****     return( ret );
ARM GAS  c:\Users\lenovo\AppData\Local\Temp\ccdvFasW.s 			page 15


 284:C:/Users/lenovo/Desktop/liteos/Project2/BearPi_LiteOS/components/security/mbedtls/mbedtls-2.6.0/library\entropy.c **** }
 495              		.loc 1 284 0
 496 0006 08BD     		pop	{r3, pc}
 497              		.cfi_endproc
 498              	.LFE7:
 500              		.section	.text.mbedtls_entropy_func,"ax",%progbits
 501              		.align	1
 502              		.global	mbedtls_entropy_func
 503              		.syntax unified
 504              		.thumb
 505              		.thumb_func
 506              		.fpu fpv4-sp-d16
 508              	mbedtls_entropy_func:
 509              	.LFB8:
 285:C:/Users/lenovo/Desktop/liteos/Project2/BearPi_LiteOS/components/security/mbedtls/mbedtls-2.6.0/library\entropy.c **** 
 286:C:/Users/lenovo/Desktop/liteos/Project2/BearPi_LiteOS/components/security/mbedtls/mbedtls-2.6.0/library\entropy.c **** int mbedtls_entropy_func( void *data, unsigned char *output, size_t len )
 287:C:/Users/lenovo/Desktop/liteos/Project2/BearPi_LiteOS/components/security/mbedtls/mbedtls-2.6.0/library\entropy.c **** {
 510              		.loc 1 287 0
 511              		.cfi_startproc
 512              		@ args = 0, pretend = 0, frame = 32
 513              		@ frame_needed = 0, uses_anonymous_args = 0
 514              	.LVL54:
 515 0000 2DE9F043 		push	{r4, r5, r6, r7, r8, r9, lr}
 516              	.LCFI18:
 517              		.cfi_def_cfa_offset 28
 518              		.cfi_offset 4, -28
 519              		.cfi_offset 5, -24
 520              		.cfi_offset 6, -20
 521              		.cfi_offset 7, -16
 522              		.cfi_offset 8, -12
 523              		.cfi_offset 9, -8
 524              		.cfi_offset 14, -4
 525 0004 89B0     		sub	sp, sp, #36
 526              	.LCFI19:
 527              		.cfi_def_cfa_offset 64
 528              	.LVL55:
 288:C:/Users/lenovo/Desktop/liteos/Project2/BearPi_LiteOS/components/security/mbedtls/mbedtls-2.6.0/library\entropy.c ****     int ret, count = 0, i, done;
 289:C:/Users/lenovo/Desktop/liteos/Project2/BearPi_LiteOS/components/security/mbedtls/mbedtls-2.6.0/library\entropy.c ****     mbedtls_entropy_context *ctx = (mbedtls_entropy_context *) data;
 290:C:/Users/lenovo/Desktop/liteos/Project2/BearPi_LiteOS/components/security/mbedtls/mbedtls-2.6.0/library\entropy.c ****     unsigned char buf[MBEDTLS_ENTROPY_BLOCK_SIZE];
 291:C:/Users/lenovo/Desktop/liteos/Project2/BearPi_LiteOS/components/security/mbedtls/mbedtls-2.6.0/library\entropy.c **** 
 292:C:/Users/lenovo/Desktop/liteos/Project2/BearPi_LiteOS/components/security/mbedtls/mbedtls-2.6.0/library\entropy.c ****     if( len > MBEDTLS_ENTROPY_BLOCK_SIZE )
 529              		.loc 1 292 0
 530 0006 202A     		cmp	r2, #32
 531 0008 58D8     		bhi	.L47
 532 000a 1646     		mov	r6, r2
 533 000c 0F46     		mov	r7, r1
 534 000e 0546     		mov	r5, r0
 288:C:/Users/lenovo/Desktop/liteos/Project2/BearPi_LiteOS/components/security/mbedtls/mbedtls-2.6.0/library\entropy.c ****     int ret, count = 0, i, done;
 535              		.loc 1 288 0
 536 0010 0023     		movs	r3, #0
 537              	.LVL56:
 538              	.L44:
 293:C:/Users/lenovo/Desktop/liteos/Project2/BearPi_LiteOS/components/security/mbedtls/mbedtls-2.6.0/library\entropy.c ****         return( MBEDTLS_ERR_ENTROPY_SOURCE_FAILED );
 294:C:/Users/lenovo/Desktop/liteos/Project2/BearPi_LiteOS/components/security/mbedtls/mbedtls-2.6.0/library\entropy.c **** 
 295:C:/Users/lenovo/Desktop/liteos/Project2/BearPi_LiteOS/components/security/mbedtls/mbedtls-2.6.0/library\entropy.c **** #if defined(MBEDTLS_ENTROPY_NV_SEED)
 296:C:/Users/lenovo/Desktop/liteos/Project2/BearPi_LiteOS/components/security/mbedtls/mbedtls-2.6.0/library\entropy.c ****     /* Update the NV entropy seed before generating any entropy for outside
 297:C:/Users/lenovo/Desktop/liteos/Project2/BearPi_LiteOS/components/security/mbedtls/mbedtls-2.6.0/library\entropy.c ****      * use.
ARM GAS  c:\Users\lenovo\AppData\Local\Temp\ccdvFasW.s 			page 16


 298:C:/Users/lenovo/Desktop/liteos/Project2/BearPi_LiteOS/components/security/mbedtls/mbedtls-2.6.0/library\entropy.c ****      */
 299:C:/Users/lenovo/Desktop/liteos/Project2/BearPi_LiteOS/components/security/mbedtls/mbedtls-2.6.0/library\entropy.c ****     if( ctx->initial_entropy_run == 0 )
 300:C:/Users/lenovo/Desktop/liteos/Project2/BearPi_LiteOS/components/security/mbedtls/mbedtls-2.6.0/library\entropy.c ****     {
 301:C:/Users/lenovo/Desktop/liteos/Project2/BearPi_LiteOS/components/security/mbedtls/mbedtls-2.6.0/library\entropy.c ****         ctx->initial_entropy_run = 1;
 302:C:/Users/lenovo/Desktop/liteos/Project2/BearPi_LiteOS/components/security/mbedtls/mbedtls-2.6.0/library\entropy.c ****         if( ( ret = mbedtls_entropy_update_nv_seed( ctx ) ) != 0 )
 303:C:/Users/lenovo/Desktop/liteos/Project2/BearPi_LiteOS/components/security/mbedtls/mbedtls-2.6.0/library\entropy.c ****             return( ret );
 304:C:/Users/lenovo/Desktop/liteos/Project2/BearPi_LiteOS/components/security/mbedtls/mbedtls-2.6.0/library\entropy.c ****     }
 305:C:/Users/lenovo/Desktop/liteos/Project2/BearPi_LiteOS/components/security/mbedtls/mbedtls-2.6.0/library\entropy.c **** #endif
 306:C:/Users/lenovo/Desktop/liteos/Project2/BearPi_LiteOS/components/security/mbedtls/mbedtls-2.6.0/library\entropy.c **** 
 307:C:/Users/lenovo/Desktop/liteos/Project2/BearPi_LiteOS/components/security/mbedtls/mbedtls-2.6.0/library\entropy.c **** #if defined(MBEDTLS_THREADING_C)
 308:C:/Users/lenovo/Desktop/liteos/Project2/BearPi_LiteOS/components/security/mbedtls/mbedtls-2.6.0/library\entropy.c ****     if( ( ret = mbedtls_mutex_lock( &ctx->mutex ) ) != 0 )
 309:C:/Users/lenovo/Desktop/liteos/Project2/BearPi_LiteOS/components/security/mbedtls/mbedtls-2.6.0/library\entropy.c ****         return( ret );
 310:C:/Users/lenovo/Desktop/liteos/Project2/BearPi_LiteOS/components/security/mbedtls/mbedtls-2.6.0/library\entropy.c **** #endif
 311:C:/Users/lenovo/Desktop/liteos/Project2/BearPi_LiteOS/components/security/mbedtls/mbedtls-2.6.0/library\entropy.c **** 
 312:C:/Users/lenovo/Desktop/liteos/Project2/BearPi_LiteOS/components/security/mbedtls/mbedtls-2.6.0/library\entropy.c ****     /*
 313:C:/Users/lenovo/Desktop/liteos/Project2/BearPi_LiteOS/components/security/mbedtls/mbedtls-2.6.0/library\entropy.c ****      * Always gather extra entropy before a call
 314:C:/Users/lenovo/Desktop/liteos/Project2/BearPi_LiteOS/components/security/mbedtls/mbedtls-2.6.0/library\entropy.c ****      */
 315:C:/Users/lenovo/Desktop/liteos/Project2/BearPi_LiteOS/components/security/mbedtls/mbedtls-2.6.0/library\entropy.c ****     do
 316:C:/Users/lenovo/Desktop/liteos/Project2/BearPi_LiteOS/components/security/mbedtls/mbedtls-2.6.0/library\entropy.c ****     {
 317:C:/Users/lenovo/Desktop/liteos/Project2/BearPi_LiteOS/components/security/mbedtls/mbedtls-2.6.0/library\entropy.c ****         if( count++ > ENTROPY_MAX_LOOP )
 539              		.loc 1 317 0
 540 0012 03F10109 		add	r9, r3, #1
 541              	.LVL57:
 542 0016 B3F5807F 		cmp	r3, #256
 543 001a 05DD     		ble	.L51
 318:C:/Users/lenovo/Desktop/liteos/Project2/BearPi_LiteOS/components/security/mbedtls/mbedtls-2.6.0/library\entropy.c ****         {
 319:C:/Users/lenovo/Desktop/liteos/Project2/BearPi_LiteOS/components/security/mbedtls/mbedtls-2.6.0/library\entropy.c ****             ret = MBEDTLS_ERR_ENTROPY_SOURCE_FAILED;
 544              		.loc 1 319 0
 545 001c 6FF03B08 		mvn	r8, #59
 546              	.LVL58:
 547              	.L39:
 320:C:/Users/lenovo/Desktop/liteos/Project2/BearPi_LiteOS/components/security/mbedtls/mbedtls-2.6.0/library\entropy.c ****             goto exit;
 321:C:/Users/lenovo/Desktop/liteos/Project2/BearPi_LiteOS/components/security/mbedtls/mbedtls-2.6.0/library\entropy.c ****         }
 322:C:/Users/lenovo/Desktop/liteos/Project2/BearPi_LiteOS/components/security/mbedtls/mbedtls-2.6.0/library\entropy.c **** 
 323:C:/Users/lenovo/Desktop/liteos/Project2/BearPi_LiteOS/components/security/mbedtls/mbedtls-2.6.0/library\entropy.c ****         if( ( ret = entropy_gather_internal( ctx ) ) != 0 )
 324:C:/Users/lenovo/Desktop/liteos/Project2/BearPi_LiteOS/components/security/mbedtls/mbedtls-2.6.0/library\entropy.c ****             goto exit;
 325:C:/Users/lenovo/Desktop/liteos/Project2/BearPi_LiteOS/components/security/mbedtls/mbedtls-2.6.0/library\entropy.c **** 
 326:C:/Users/lenovo/Desktop/liteos/Project2/BearPi_LiteOS/components/security/mbedtls/mbedtls-2.6.0/library\entropy.c ****         done = 1;
 327:C:/Users/lenovo/Desktop/liteos/Project2/BearPi_LiteOS/components/security/mbedtls/mbedtls-2.6.0/library\entropy.c ****         for( i = 0; i < ctx->source_count; i++ )
 328:C:/Users/lenovo/Desktop/liteos/Project2/BearPi_LiteOS/components/security/mbedtls/mbedtls-2.6.0/library\entropy.c ****             if( ctx->source[i].size < ctx->source[i].threshold )
 329:C:/Users/lenovo/Desktop/liteos/Project2/BearPi_LiteOS/components/security/mbedtls/mbedtls-2.6.0/library\entropy.c ****                 done = 0;
 330:C:/Users/lenovo/Desktop/liteos/Project2/BearPi_LiteOS/components/security/mbedtls/mbedtls-2.6.0/library\entropy.c ****     }
 331:C:/Users/lenovo/Desktop/liteos/Project2/BearPi_LiteOS/components/security/mbedtls/mbedtls-2.6.0/library\entropy.c ****     while( ! done );
 332:C:/Users/lenovo/Desktop/liteos/Project2/BearPi_LiteOS/components/security/mbedtls/mbedtls-2.6.0/library\entropy.c **** 
 333:C:/Users/lenovo/Desktop/liteos/Project2/BearPi_LiteOS/components/security/mbedtls/mbedtls-2.6.0/library\entropy.c ****     memset( buf, 0, MBEDTLS_ENTROPY_BLOCK_SIZE );
 334:C:/Users/lenovo/Desktop/liteos/Project2/BearPi_LiteOS/components/security/mbedtls/mbedtls-2.6.0/library\entropy.c **** 
 335:C:/Users/lenovo/Desktop/liteos/Project2/BearPi_LiteOS/components/security/mbedtls/mbedtls-2.6.0/library\entropy.c **** #if defined(MBEDTLS_ENTROPY_SHA512_ACCUMULATOR)
 336:C:/Users/lenovo/Desktop/liteos/Project2/BearPi_LiteOS/components/security/mbedtls/mbedtls-2.6.0/library\entropy.c ****     mbedtls_sha512_finish( &ctx->accumulator, buf );
 337:C:/Users/lenovo/Desktop/liteos/Project2/BearPi_LiteOS/components/security/mbedtls/mbedtls-2.6.0/library\entropy.c **** 
 338:C:/Users/lenovo/Desktop/liteos/Project2/BearPi_LiteOS/components/security/mbedtls/mbedtls-2.6.0/library\entropy.c ****     /*
 339:C:/Users/lenovo/Desktop/liteos/Project2/BearPi_LiteOS/components/security/mbedtls/mbedtls-2.6.0/library\entropy.c ****      * Reset accumulator and counters and recycle existing entropy
 340:C:/Users/lenovo/Desktop/liteos/Project2/BearPi_LiteOS/components/security/mbedtls/mbedtls-2.6.0/library\entropy.c ****      */
 341:C:/Users/lenovo/Desktop/liteos/Project2/BearPi_LiteOS/components/security/mbedtls/mbedtls-2.6.0/library\entropy.c ****     memset( &ctx->accumulator, 0, sizeof( mbedtls_sha512_context ) );
 342:C:/Users/lenovo/Desktop/liteos/Project2/BearPi_LiteOS/components/security/mbedtls/mbedtls-2.6.0/library\entropy.c ****     mbedtls_sha512_starts( &ctx->accumulator, 0 );
 343:C:/Users/lenovo/Desktop/liteos/Project2/BearPi_LiteOS/components/security/mbedtls/mbedtls-2.6.0/library\entropy.c ****     mbedtls_sha512_update( &ctx->accumulator, buf, MBEDTLS_ENTROPY_BLOCK_SIZE );
 344:C:/Users/lenovo/Desktop/liteos/Project2/BearPi_LiteOS/components/security/mbedtls/mbedtls-2.6.0/library\entropy.c **** 
 345:C:/Users/lenovo/Desktop/liteos/Project2/BearPi_LiteOS/components/security/mbedtls/mbedtls-2.6.0/library\entropy.c ****     /*
ARM GAS  c:\Users\lenovo\AppData\Local\Temp\ccdvFasW.s 			page 17


 346:C:/Users/lenovo/Desktop/liteos/Project2/BearPi_LiteOS/components/security/mbedtls/mbedtls-2.6.0/library\entropy.c ****      * Perform second SHA-512 on entropy
 347:C:/Users/lenovo/Desktop/liteos/Project2/BearPi_LiteOS/components/security/mbedtls/mbedtls-2.6.0/library\entropy.c ****      */
 348:C:/Users/lenovo/Desktop/liteos/Project2/BearPi_LiteOS/components/security/mbedtls/mbedtls-2.6.0/library\entropy.c ****     mbedtls_sha512( buf, MBEDTLS_ENTROPY_BLOCK_SIZE, buf, 0 );
 349:C:/Users/lenovo/Desktop/liteos/Project2/BearPi_LiteOS/components/security/mbedtls/mbedtls-2.6.0/library\entropy.c **** #else /* MBEDTLS_ENTROPY_SHA512_ACCUMULATOR */
 350:C:/Users/lenovo/Desktop/liteos/Project2/BearPi_LiteOS/components/security/mbedtls/mbedtls-2.6.0/library\entropy.c ****     mbedtls_sha256_finish( &ctx->accumulator, buf );
 351:C:/Users/lenovo/Desktop/liteos/Project2/BearPi_LiteOS/components/security/mbedtls/mbedtls-2.6.0/library\entropy.c **** 
 352:C:/Users/lenovo/Desktop/liteos/Project2/BearPi_LiteOS/components/security/mbedtls/mbedtls-2.6.0/library\entropy.c ****     /*
 353:C:/Users/lenovo/Desktop/liteos/Project2/BearPi_LiteOS/components/security/mbedtls/mbedtls-2.6.0/library\entropy.c ****      * Reset accumulator and counters and recycle existing entropy
 354:C:/Users/lenovo/Desktop/liteos/Project2/BearPi_LiteOS/components/security/mbedtls/mbedtls-2.6.0/library\entropy.c ****      */
 355:C:/Users/lenovo/Desktop/liteos/Project2/BearPi_LiteOS/components/security/mbedtls/mbedtls-2.6.0/library\entropy.c ****     memset( &ctx->accumulator, 0, sizeof( mbedtls_sha256_context ) );
 356:C:/Users/lenovo/Desktop/liteos/Project2/BearPi_LiteOS/components/security/mbedtls/mbedtls-2.6.0/library\entropy.c ****     mbedtls_sha256_starts( &ctx->accumulator, 0 );
 357:C:/Users/lenovo/Desktop/liteos/Project2/BearPi_LiteOS/components/security/mbedtls/mbedtls-2.6.0/library\entropy.c ****     mbedtls_sha256_update( &ctx->accumulator, buf, MBEDTLS_ENTROPY_BLOCK_SIZE );
 358:C:/Users/lenovo/Desktop/liteos/Project2/BearPi_LiteOS/components/security/mbedtls/mbedtls-2.6.0/library\entropy.c **** 
 359:C:/Users/lenovo/Desktop/liteos/Project2/BearPi_LiteOS/components/security/mbedtls/mbedtls-2.6.0/library\entropy.c ****     /*
 360:C:/Users/lenovo/Desktop/liteos/Project2/BearPi_LiteOS/components/security/mbedtls/mbedtls-2.6.0/library\entropy.c ****      * Perform second SHA-256 on entropy
 361:C:/Users/lenovo/Desktop/liteos/Project2/BearPi_LiteOS/components/security/mbedtls/mbedtls-2.6.0/library\entropy.c ****      */
 362:C:/Users/lenovo/Desktop/liteos/Project2/BearPi_LiteOS/components/security/mbedtls/mbedtls-2.6.0/library\entropy.c ****     mbedtls_sha256( buf, MBEDTLS_ENTROPY_BLOCK_SIZE, buf, 0 );
 363:C:/Users/lenovo/Desktop/liteos/Project2/BearPi_LiteOS/components/security/mbedtls/mbedtls-2.6.0/library\entropy.c **** #endif /* MBEDTLS_ENTROPY_SHA512_ACCUMULATOR */
 364:C:/Users/lenovo/Desktop/liteos/Project2/BearPi_LiteOS/components/security/mbedtls/mbedtls-2.6.0/library\entropy.c **** 
 365:C:/Users/lenovo/Desktop/liteos/Project2/BearPi_LiteOS/components/security/mbedtls/mbedtls-2.6.0/library\entropy.c ****     for( i = 0; i < ctx->source_count; i++ )
 366:C:/Users/lenovo/Desktop/liteos/Project2/BearPi_LiteOS/components/security/mbedtls/mbedtls-2.6.0/library\entropy.c ****         ctx->source[i].size = 0;
 367:C:/Users/lenovo/Desktop/liteos/Project2/BearPi_LiteOS/components/security/mbedtls/mbedtls-2.6.0/library\entropy.c **** 
 368:C:/Users/lenovo/Desktop/liteos/Project2/BearPi_LiteOS/components/security/mbedtls/mbedtls-2.6.0/library\entropy.c ****     memcpy( output, buf, len );
 369:C:/Users/lenovo/Desktop/liteos/Project2/BearPi_LiteOS/components/security/mbedtls/mbedtls-2.6.0/library\entropy.c **** 
 370:C:/Users/lenovo/Desktop/liteos/Project2/BearPi_LiteOS/components/security/mbedtls/mbedtls-2.6.0/library\entropy.c ****     ret = 0;
 371:C:/Users/lenovo/Desktop/liteos/Project2/BearPi_LiteOS/components/security/mbedtls/mbedtls-2.6.0/library\entropy.c **** 
 372:C:/Users/lenovo/Desktop/liteos/Project2/BearPi_LiteOS/components/security/mbedtls/mbedtls-2.6.0/library\entropy.c **** exit:
 373:C:/Users/lenovo/Desktop/liteos/Project2/BearPi_LiteOS/components/security/mbedtls/mbedtls-2.6.0/library\entropy.c **** #if defined(MBEDTLS_THREADING_C)
 374:C:/Users/lenovo/Desktop/liteos/Project2/BearPi_LiteOS/components/security/mbedtls/mbedtls-2.6.0/library\entropy.c ****     if( mbedtls_mutex_unlock( &ctx->mutex ) != 0 )
 375:C:/Users/lenovo/Desktop/liteos/Project2/BearPi_LiteOS/components/security/mbedtls/mbedtls-2.6.0/library\entropy.c ****         return( MBEDTLS_ERR_THREADING_MUTEX_ERROR );
 376:C:/Users/lenovo/Desktop/liteos/Project2/BearPi_LiteOS/components/security/mbedtls/mbedtls-2.6.0/library\entropy.c **** #endif
 377:C:/Users/lenovo/Desktop/liteos/Project2/BearPi_LiteOS/components/security/mbedtls/mbedtls-2.6.0/library\entropy.c **** 
 378:C:/Users/lenovo/Desktop/liteos/Project2/BearPi_LiteOS/components/security/mbedtls/mbedtls-2.6.0/library\entropy.c ****     return( ret );
 379:C:/Users/lenovo/Desktop/liteos/Project2/BearPi_LiteOS/components/security/mbedtls/mbedtls-2.6.0/library\entropy.c **** }
 548              		.loc 1 379 0
 549 0020 4046     		mov	r0, r8
 550 0022 09B0     		add	sp, sp, #36
 551              	.LCFI20:
 552              		.cfi_remember_state
 553              		.cfi_def_cfa_offset 28
 554              		@ sp needed
 555 0024 BDE8F083 		pop	{r4, r5, r6, r7, r8, r9, pc}
 556              	.LVL59:
 557              	.L51:
 558              	.LCFI21:
 559              		.cfi_restore_state
 323:C:/Users/lenovo/Desktop/liteos/Project2/BearPi_LiteOS/components/security/mbedtls/mbedtls-2.6.0/library\entropy.c ****             goto exit;
 560              		.loc 1 323 0
 561 0028 2846     		mov	r0, r5
 562 002a FFF7FEFF 		bl	entropy_gather_internal
 563              	.LVL60:
 564 002e 8046     		mov	r8, r0
 565 0030 0028     		cmp	r0, #0
 566 0032 F5D1     		bne	.L39
 327:C:/Users/lenovo/Desktop/liteos/Project2/BearPi_LiteOS/components/security/mbedtls/mbedtls-2.6.0/library\entropy.c ****             if( ctx->source[i].size < ctx->source[i].threshold )
 567              		.loc 1 327 0
 568 0034 0446     		mov	r4, r0
ARM GAS  c:\Users\lenovo\AppData\Local\Temp\ccdvFasW.s 			page 18


 326:C:/Users/lenovo/Desktop/liteos/Project2/BearPi_LiteOS/components/security/mbedtls/mbedtls-2.6.0/library\entropy.c ****         for( i = 0; i < ctx->source_count; i++ )
 569              		.loc 1 326 0
 570 0036 0121     		movs	r1, #1
 571 0038 00E0     		b	.L41
 572              	.LVL61:
 573              	.L42:
 327:C:/Users/lenovo/Desktop/liteos/Project2/BearPi_LiteOS/components/security/mbedtls/mbedtls-2.6.0/library\entropy.c ****             if( ctx->source[i].size < ctx->source[i].threshold )
 574              		.loc 1 327 0 discriminator 2
 575 003a 0134     		adds	r4, r4, #1
 576              	.LVL62:
 577              	.L41:
 327:C:/Users/lenovo/Desktop/liteos/Project2/BearPi_LiteOS/components/security/mbedtls/mbedtls-2.6.0/library\entropy.c ****             if( ctx->source[i].size < ctx->source[i].threshold )
 578              		.loc 1 327 0 is_stmt 0 discriminator 1
 579 003c EB6E     		ldr	r3, [r5, #108]
 580 003e A342     		cmp	r3, r4
 581 0040 09DD     		ble	.L52
 328:C:/Users/lenovo/Desktop/liteos/Project2/BearPi_LiteOS/components/security/mbedtls/mbedtls-2.6.0/library\entropy.c ****                 done = 0;
 582              		.loc 1 328 0 is_stmt 1
 583 0042 A200     		lsls	r2, r4, #2
 584 0044 2244     		add	r2, r2, r4
 585 0046 9300     		lsls	r3, r2, #2
 586 0048 2B44     		add	r3, r3, r5
 587 004a 9A6F     		ldr	r2, [r3, #120]
 588 004c DB6F     		ldr	r3, [r3, #124]
 589 004e 9A42     		cmp	r2, r3
 590 0050 F3D2     		bcs	.L42
 329:C:/Users/lenovo/Desktop/liteos/Project2/BearPi_LiteOS/components/security/mbedtls/mbedtls-2.6.0/library\entropy.c ****     }
 591              		.loc 1 329 0
 592 0052 4146     		mov	r1, r8
 593              	.LVL63:
 594 0054 F1E7     		b	.L42
 595              	.LVL64:
 596              	.L52:
 317:C:/Users/lenovo/Desktop/liteos/Project2/BearPi_LiteOS/components/security/mbedtls/mbedtls-2.6.0/library\entropy.c ****         {
 597              		.loc 1 317 0
 598 0056 4B46     		mov	r3, r9
 331:C:/Users/lenovo/Desktop/liteos/Project2/BearPi_LiteOS/components/security/mbedtls/mbedtls-2.6.0/library\entropy.c **** 
 599              		.loc 1 331 0
 600 0058 0029     		cmp	r1, #0
 601 005a DAD0     		beq	.L44
 602              	.LVL65:
 333:C:/Users/lenovo/Desktop/liteos/Project2/BearPi_LiteOS/components/security/mbedtls/mbedtls-2.6.0/library\entropy.c **** 
 603              		.loc 1 333 0
 604 005c 2024     		movs	r4, #32
 605              	.LVL66:
 606 005e 2246     		mov	r2, r4
 607 0060 0021     		movs	r1, #0
 608              	.LVL67:
 609 0062 6846     		mov	r0, sp
 610              	.LVL68:
 611 0064 FFF7FEFF 		bl	memset
 612              	.LVL69:
 350:C:/Users/lenovo/Desktop/liteos/Project2/BearPi_LiteOS/components/security/mbedtls/mbedtls-2.6.0/library\entropy.c **** 
 613              		.loc 1 350 0
 614 0068 6946     		mov	r1, sp
 615 006a 2846     		mov	r0, r5
 616 006c FFF7FEFF 		bl	mbedtls_sha256_finish
ARM GAS  c:\Users\lenovo\AppData\Local\Temp\ccdvFasW.s 			page 19


 617              	.LVL70:
 355:C:/Users/lenovo/Desktop/liteos/Project2/BearPi_LiteOS/components/security/mbedtls/mbedtls-2.6.0/library\entropy.c ****     mbedtls_sha256_starts( &ctx->accumulator, 0 );
 618              		.loc 1 355 0
 619 0070 6C22     		movs	r2, #108
 620 0072 0021     		movs	r1, #0
 621 0074 2846     		mov	r0, r5
 622 0076 FFF7FEFF 		bl	memset
 623              	.LVL71:
 356:C:/Users/lenovo/Desktop/liteos/Project2/BearPi_LiteOS/components/security/mbedtls/mbedtls-2.6.0/library\entropy.c ****     mbedtls_sha256_update( &ctx->accumulator, buf, MBEDTLS_ENTROPY_BLOCK_SIZE );
 624              		.loc 1 356 0
 625 007a 0021     		movs	r1, #0
 626 007c 2846     		mov	r0, r5
 627 007e FFF7FEFF 		bl	mbedtls_sha256_starts
 628              	.LVL72:
 357:C:/Users/lenovo/Desktop/liteos/Project2/BearPi_LiteOS/components/security/mbedtls/mbedtls-2.6.0/library\entropy.c **** 
 629              		.loc 1 357 0
 630 0082 2246     		mov	r2, r4
 631 0084 6946     		mov	r1, sp
 632 0086 2846     		mov	r0, r5
 633 0088 FFF7FEFF 		bl	mbedtls_sha256_update
 634              	.LVL73:
 362:C:/Users/lenovo/Desktop/liteos/Project2/BearPi_LiteOS/components/security/mbedtls/mbedtls-2.6.0/library\entropy.c **** #endif /* MBEDTLS_ENTROPY_SHA512_ACCUMULATOR */
 635              		.loc 1 362 0
 636 008c 0023     		movs	r3, #0
 637 008e 6A46     		mov	r2, sp
 638 0090 2146     		mov	r1, r4
 639 0092 6846     		mov	r0, sp
 640 0094 FFF7FEFF 		bl	mbedtls_sha256
 641              	.LVL74:
 365:C:/Users/lenovo/Desktop/liteos/Project2/BearPi_LiteOS/components/security/mbedtls/mbedtls-2.6.0/library\entropy.c ****         ctx->source[i].size = 0;
 642              		.loc 1 365 0
 643 0098 4346     		mov	r3, r8
 644 009a 06E0     		b	.L45
 645              	.LVL75:
 646              	.L46:
 366:C:/Users/lenovo/Desktop/liteos/Project2/BearPi_LiteOS/components/security/mbedtls/mbedtls-2.6.0/library\entropy.c **** 
 647              		.loc 1 366 0 discriminator 3
 648 009c 03EB8301 		add	r1, r3, r3, lsl #2
 649 00a0 8A00     		lsls	r2, r1, #2
 650 00a2 2A44     		add	r2, r2, r5
 651 00a4 0021     		movs	r1, #0
 652 00a6 9167     		str	r1, [r2, #120]
 365:C:/Users/lenovo/Desktop/liteos/Project2/BearPi_LiteOS/components/security/mbedtls/mbedtls-2.6.0/library\entropy.c ****         ctx->source[i].size = 0;
 653              		.loc 1 365 0 discriminator 3
 654 00a8 0133     		adds	r3, r3, #1
 655              	.LVL76:
 656              	.L45:
 365:C:/Users/lenovo/Desktop/liteos/Project2/BearPi_LiteOS/components/security/mbedtls/mbedtls-2.6.0/library\entropy.c ****         ctx->source[i].size = 0;
 657              		.loc 1 365 0 is_stmt 0 discriminator 1
 658 00aa EA6E     		ldr	r2, [r5, #108]
 659 00ac 9A42     		cmp	r2, r3
 660 00ae F5DC     		bgt	.L46
 368:C:/Users/lenovo/Desktop/liteos/Project2/BearPi_LiteOS/components/security/mbedtls/mbedtls-2.6.0/library\entropy.c **** 
 661              		.loc 1 368 0 is_stmt 1
 662 00b0 3246     		mov	r2, r6
 663 00b2 6946     		mov	r1, sp
 664 00b4 3846     		mov	r0, r7
ARM GAS  c:\Users\lenovo\AppData\Local\Temp\ccdvFasW.s 			page 20


 665 00b6 FFF7FEFF 		bl	memcpy
 666              	.LVL77:
 667 00ba B1E7     		b	.L39
 668              	.LVL78:
 669              	.L47:
 293:C:/Users/lenovo/Desktop/liteos/Project2/BearPi_LiteOS/components/security/mbedtls/mbedtls-2.6.0/library\entropy.c **** 
 670              		.loc 1 293 0
 671 00bc 6FF03B08 		mvn	r8, #59
 672 00c0 AEE7     		b	.L39
 673              		.cfi_endproc
 674              	.LFE8:
 676              		.text
 677              	.Letext0:
 678              		.file 2 "c:\\program files (x86)\\liteos studio\\resources\\arm-none-eabi\\arm-none-eabi\\include\
 679              		.file 3 "c:\\program files (x86)\\liteos studio\\resources\\arm-none-eabi\\lib\\gcc\\arm-none-eabi
 680              		.file 4 "c:\\program files (x86)\\liteos studio\\resources\\arm-none-eabi\\arm-none-eabi\\include\
 681              		.file 5 "C:/Users/lenovo/Desktop/liteos/Project2/BearPi_LiteOS/components/security/mbedtls/mbedtls
 682              		.file 6 "C:/Users/lenovo/Desktop/liteos/Project2/BearPi_LiteOS/components/security/mbedtls/mbedtls
 683              		.file 7 "c:\\program files (x86)\\liteos studio\\resources\\arm-none-eabi\\arm-none-eabi\\include\
 684              		.file 8 "c:\\program files (x86)\\liteos studio\\resources\\arm-none-eabi\\arm-none-eabi\\include\
 685              		.file 9 "c:\\program files (x86)\\liteos studio\\resources\\arm-none-eabi\\arm-none-eabi\\include\
 686              		.file 10 "<built-in>"
ARM GAS  c:\Users\lenovo\AppData\Local\Temp\ccdvFasW.s 			page 21

