ARM GAS  c:\Users\lenovo\AppData\Local\Temp\ccZzE1K8.s 			page 1


   1              		.cpu cortex-m4
   2              		.eabi_attribute 27, 1
   3              		.eabi_attribute 28, 1
   4              		.eabi_attribute 20, 1
   5              		.eabi_attribute 21, 1
   6              		.eabi_attribute 23, 3
   7              		.eabi_attribute 24, 1
   8              		.eabi_attribute 25, 1
   9              		.eabi_attribute 26, 1
  10              		.eabi_attribute 30, 1
  11              		.eabi_attribute 34, 1
  12              		.eabi_attribute 18, 4
  13              		.file	"esp8266.c"
  14              		.text
  15              	.Ltext0:
  16              		.cfi_sections	.debug_frame
  17              		.section	.text.esp8266_recv_cb,"ax",%progbits
  18              		.align	1
  19              		.global	esp8266_recv_cb
  20              		.syntax unified
  21              		.thumb
  22              		.thumb_func
  23              		.fpu fpv4-sp-d16
  25              	esp8266_recv_cb:
  26              	.LFB148:
  27              		.file 1 "C:/Users/lenovo/Desktop/liteos/Project2/BearPi_LiteOS/components/net/at_device/wifi_esp82
   1:C:/Users/lenovo/Desktop/liteos/Project2/BearPi_LiteOS/components/net/at_device/wifi_esp8266\esp8266.c **** /*----------------------------------------------------------------------------
   2:C:/Users/lenovo/Desktop/liteos/Project2/BearPi_LiteOS/components/net/at_device/wifi_esp8266\esp8266.c ****  * Copyright (c) <2016-2018>, <Huawei Technologies Co., Ltd>
   3:C:/Users/lenovo/Desktop/liteos/Project2/BearPi_LiteOS/components/net/at_device/wifi_esp8266\esp8266.c ****  * All rights reserved.
   4:C:/Users/lenovo/Desktop/liteos/Project2/BearPi_LiteOS/components/net/at_device/wifi_esp8266\esp8266.c ****  * Redistribution and use in source and binary forms, with or without modification,
   5:C:/Users/lenovo/Desktop/liteos/Project2/BearPi_LiteOS/components/net/at_device/wifi_esp8266\esp8266.c ****  * are permitted provided that the following conditions are met:
   6:C:/Users/lenovo/Desktop/liteos/Project2/BearPi_LiteOS/components/net/at_device/wifi_esp8266\esp8266.c ****  * 1. Redistributions of source code must retain the above copyright notice, this list of
   7:C:/Users/lenovo/Desktop/liteos/Project2/BearPi_LiteOS/components/net/at_device/wifi_esp8266\esp8266.c ****  * conditions and the following disclaimer.
   8:C:/Users/lenovo/Desktop/liteos/Project2/BearPi_LiteOS/components/net/at_device/wifi_esp8266\esp8266.c ****  * 2. Redistributions in binary form must reproduce the above copyright notice, this list
   9:C:/Users/lenovo/Desktop/liteos/Project2/BearPi_LiteOS/components/net/at_device/wifi_esp8266\esp8266.c ****  * of conditions and the following disclaimer in the documentation and/or other materials
  10:C:/Users/lenovo/Desktop/liteos/Project2/BearPi_LiteOS/components/net/at_device/wifi_esp8266\esp8266.c ****  * provided with the distribution.
  11:C:/Users/lenovo/Desktop/liteos/Project2/BearPi_LiteOS/components/net/at_device/wifi_esp8266\esp8266.c ****  * 3. Neither the name of the copyright holder nor the names of its contributors may be used
  12:C:/Users/lenovo/Desktop/liteos/Project2/BearPi_LiteOS/components/net/at_device/wifi_esp8266\esp8266.c ****  * to endorse or promote products derived from this software without specific prior written
  13:C:/Users/lenovo/Desktop/liteos/Project2/BearPi_LiteOS/components/net/at_device/wifi_esp8266\esp8266.c ****  * permission.
  14:C:/Users/lenovo/Desktop/liteos/Project2/BearPi_LiteOS/components/net/at_device/wifi_esp8266\esp8266.c ****  * THIS SOFTWARE IS PROVIDED BY THE COPYRIGHT HOLDERS AND CONTRIBUTORS
  15:C:/Users/lenovo/Desktop/liteos/Project2/BearPi_LiteOS/components/net/at_device/wifi_esp8266\esp8266.c ****  * "AS IS" AND ANY EXPRESS OR IMPLIED WARRANTIES, INCLUDING, BUT NOT LIMITED TO,
  16:C:/Users/lenovo/Desktop/liteos/Project2/BearPi_LiteOS/components/net/at_device/wifi_esp8266\esp8266.c ****  * THE IMPLIED WARRANTIES OF MERCHANTABILITY AND FITNESS FOR A PARTICULAR
  17:C:/Users/lenovo/Desktop/liteos/Project2/BearPi_LiteOS/components/net/at_device/wifi_esp8266\esp8266.c ****  * PURPOSE ARE DISCLAIMED. IN NO EVENT SHALL THE COPYRIGHT HOLDER OR
  18:C:/Users/lenovo/Desktop/liteos/Project2/BearPi_LiteOS/components/net/at_device/wifi_esp8266\esp8266.c ****  * CONTRIBUTORS BE LIABLE FOR ANY DIRECT, INDIRECT, INCIDENTAL, SPECIAL,
  19:C:/Users/lenovo/Desktop/liteos/Project2/BearPi_LiteOS/components/net/at_device/wifi_esp8266\esp8266.c ****  * EXEMPLARY, OR CONSEQUENTIAL DAMAGES (INCLUDING, BUT NOT LIMITED TO,
  20:C:/Users/lenovo/Desktop/liteos/Project2/BearPi_LiteOS/components/net/at_device/wifi_esp8266\esp8266.c ****  * PROCUREMENT OF SUBSTITUTE GOODS OR SERVICES; LOSS OF USE, DATA, OR PROFITS;
  21:C:/Users/lenovo/Desktop/liteos/Project2/BearPi_LiteOS/components/net/at_device/wifi_esp8266\esp8266.c ****  * OR BUSINESS INTERRUPTION) HOWEVER CAUSED AND ON ANY THEORY OF LIABILITY,
  22:C:/Users/lenovo/Desktop/liteos/Project2/BearPi_LiteOS/components/net/at_device/wifi_esp8266\esp8266.c ****  * WHETHER IN CONTRACT, STRICT LIABILITY, OR TORT (INCLUDING NEGLIGENCE OR
  23:C:/Users/lenovo/Desktop/liteos/Project2/BearPi_LiteOS/components/net/at_device/wifi_esp8266\esp8266.c ****  * OTHERWISE) ARISING IN ANY WAY OUT OF THE USE OF THIS SOFTWARE, EVEN IF
  24:C:/Users/lenovo/Desktop/liteos/Project2/BearPi_LiteOS/components/net/at_device/wifi_esp8266\esp8266.c ****  * ADVISED OF THE POSSIBILITY OF SUCH DAMAGE.
  25:C:/Users/lenovo/Desktop/liteos/Project2/BearPi_LiteOS/components/net/at_device/wifi_esp8266\esp8266.c ****  *---------------------------------------------------------------------------*/
  26:C:/Users/lenovo/Desktop/liteos/Project2/BearPi_LiteOS/components/net/at_device/wifi_esp8266\esp8266.c **** /*----------------------------------------------------------------------------
  27:C:/Users/lenovo/Desktop/liteos/Project2/BearPi_LiteOS/components/net/at_device/wifi_esp8266\esp8266.c ****  * Notice of Export Control Law
  28:C:/Users/lenovo/Desktop/liteos/Project2/BearPi_LiteOS/components/net/at_device/wifi_esp8266\esp8266.c ****  * ===============================================
  29:C:/Users/lenovo/Desktop/liteos/Project2/BearPi_LiteOS/components/net/at_device/wifi_esp8266\esp8266.c ****  * Huawei LiteOS may be subject to applicable export control laws and regulations, which might
  30:C:/Users/lenovo/Desktop/liteos/Project2/BearPi_LiteOS/components/net/at_device/wifi_esp8266\esp8266.c ****  * include those applicable to Huawei LiteOS of U.S. and the country in which you are located.
  31:C:/Users/lenovo/Desktop/liteos/Project2/BearPi_LiteOS/components/net/at_device/wifi_esp8266\esp8266.c ****  * Import, export and usage of Huawei LiteOS in any manner by you shall be in compliance with such
ARM GAS  c:\Users\lenovo\AppData\Local\Temp\ccZzE1K8.s 			page 2


  32:C:/Users/lenovo/Desktop/liteos/Project2/BearPi_LiteOS/components/net/at_device/wifi_esp8266\esp8266.c ****  * applicable export control laws and regulations.
  33:C:/Users/lenovo/Desktop/liteos/Project2/BearPi_LiteOS/components/net/at_device/wifi_esp8266\esp8266.c ****  *---------------------------------------------------------------------------*/
  34:C:/Users/lenovo/Desktop/liteos/Project2/BearPi_LiteOS/components/net/at_device/wifi_esp8266\esp8266.c **** 
  35:C:/Users/lenovo/Desktop/liteos/Project2/BearPi_LiteOS/components/net/at_device/wifi_esp8266\esp8266.c **** #if defined(WITH_AT_FRAMEWORK)
  36:C:/Users/lenovo/Desktop/liteos/Project2/BearPi_LiteOS/components/net/at_device/wifi_esp8266\esp8266.c **** #include "esp8266.h"
  37:C:/Users/lenovo/Desktop/liteos/Project2/BearPi_LiteOS/components/net/at_device/wifi_esp8266\esp8266.c **** 
  38:C:/Users/lenovo/Desktop/liteos/Project2/BearPi_LiteOS/components/net/at_device/wifi_esp8266\esp8266.c **** extern at_task at;
  39:C:/Users/lenovo/Desktop/liteos/Project2/BearPi_LiteOS/components/net/at_device/wifi_esp8266\esp8266.c **** 
  40:C:/Users/lenovo/Desktop/liteos/Project2/BearPi_LiteOS/components/net/at_device/wifi_esp8266\esp8266.c **** 
  41:C:/Users/lenovo/Desktop/liteos/Project2/BearPi_LiteOS/components/net/at_device/wifi_esp8266\esp8266.c **** int esp8266_cmd(int8_t *cmd, int32_t len, const char *suffix, char *resp_buf, int* resp_len)
  42:C:/Users/lenovo/Desktop/liteos/Project2/BearPi_LiteOS/components/net/at_device/wifi_esp8266\esp8266.c **** {
  43:C:/Users/lenovo/Desktop/liteos/Project2/BearPi_LiteOS/components/net/at_device/wifi_esp8266\esp8266.c **** 	return at.cmd(cmd, len, suffix, resp_buf, resp_len);
  44:C:/Users/lenovo/Desktop/liteos/Project2/BearPi_LiteOS/components/net/at_device/wifi_esp8266\esp8266.c **** }
  45:C:/Users/lenovo/Desktop/liteos/Project2/BearPi_LiteOS/components/net/at_device/wifi_esp8266\esp8266.c **** 
  46:C:/Users/lenovo/Desktop/liteos/Project2/BearPi_LiteOS/components/net/at_device/wifi_esp8266\esp8266.c **** int32_t esp8266_echo_off(void)
  47:C:/Users/lenovo/Desktop/liteos/Project2/BearPi_LiteOS/components/net/at_device/wifi_esp8266\esp8266.c **** {
  48:C:/Users/lenovo/Desktop/liteos/Project2/BearPi_LiteOS/components/net/at_device/wifi_esp8266\esp8266.c ****     return esp8266_cmd((int8_t *)AT_CMD_ECHO_OFF, strlen(AT_CMD_ECHO_OFF), "OK\r\n", NULL, NULL);
  49:C:/Users/lenovo/Desktop/liteos/Project2/BearPi_LiteOS/components/net/at_device/wifi_esp8266\esp8266.c **** }
  50:C:/Users/lenovo/Desktop/liteos/Project2/BearPi_LiteOS/components/net/at_device/wifi_esp8266\esp8266.c **** 
  51:C:/Users/lenovo/Desktop/liteos/Project2/BearPi_LiteOS/components/net/at_device/wifi_esp8266\esp8266.c **** int32_t esp8266_reset(void)
  52:C:/Users/lenovo/Desktop/liteos/Project2/BearPi_LiteOS/components/net/at_device/wifi_esp8266\esp8266.c **** {
  53:C:/Users/lenovo/Desktop/liteos/Project2/BearPi_LiteOS/components/net/at_device/wifi_esp8266\esp8266.c ****     return esp8266_cmd((int8_t *)AT_CMD_RST, strlen(AT_CMD_RST), "ready\r\n", NULL, NULL);
  54:C:/Users/lenovo/Desktop/liteos/Project2/BearPi_LiteOS/components/net/at_device/wifi_esp8266\esp8266.c **** }
  55:C:/Users/lenovo/Desktop/liteos/Project2/BearPi_LiteOS/components/net/at_device/wifi_esp8266\esp8266.c **** 
  56:C:/Users/lenovo/Desktop/liteos/Project2/BearPi_LiteOS/components/net/at_device/wifi_esp8266\esp8266.c **** int32_t esp8266_choose_net_mode(enum_net_mode m)
  57:C:/Users/lenovo/Desktop/liteos/Project2/BearPi_LiteOS/components/net/at_device/wifi_esp8266\esp8266.c **** {
  58:C:/Users/lenovo/Desktop/liteos/Project2/BearPi_LiteOS/components/net/at_device/wifi_esp8266\esp8266.c ****     char cmd[64] = {0};
  59:C:/Users/lenovo/Desktop/liteos/Project2/BearPi_LiteOS/components/net/at_device/wifi_esp8266\esp8266.c ****     snprintf(cmd, 64, "%s=%d", AT_CMD_CWMODE, (int)m);
  60:C:/Users/lenovo/Desktop/liteos/Project2/BearPi_LiteOS/components/net/at_device/wifi_esp8266\esp8266.c ****     return esp8266_cmd((int8_t *)cmd, strlen(cmd), "OK\r\n", NULL, NULL);
  61:C:/Users/lenovo/Desktop/liteos/Project2/BearPi_LiteOS/components/net/at_device/wifi_esp8266\esp8266.c **** }
  62:C:/Users/lenovo/Desktop/liteos/Project2/BearPi_LiteOS/components/net/at_device/wifi_esp8266\esp8266.c **** 
  63:C:/Users/lenovo/Desktop/liteos/Project2/BearPi_LiteOS/components/net/at_device/wifi_esp8266\esp8266.c **** int32_t esp8266_set_mux_mode(int32_t m)
  64:C:/Users/lenovo/Desktop/liteos/Project2/BearPi_LiteOS/components/net/at_device/wifi_esp8266\esp8266.c **** {
  65:C:/Users/lenovo/Desktop/liteos/Project2/BearPi_LiteOS/components/net/at_device/wifi_esp8266\esp8266.c ****     char cmd[64] = {0};
  66:C:/Users/lenovo/Desktop/liteos/Project2/BearPi_LiteOS/components/net/at_device/wifi_esp8266\esp8266.c ****     snprintf(cmd, 64, "%s=%d", AT_CMD_MUX, (int)m);
  67:C:/Users/lenovo/Desktop/liteos/Project2/BearPi_LiteOS/components/net/at_device/wifi_esp8266\esp8266.c ****     return esp8266_cmd((int8_t *)cmd, strlen(cmd), "OK\r\n", NULL, NULL);
  68:C:/Users/lenovo/Desktop/liteos/Project2/BearPi_LiteOS/components/net/at_device/wifi_esp8266\esp8266.c **** }
  69:C:/Users/lenovo/Desktop/liteos/Project2/BearPi_LiteOS/components/net/at_device/wifi_esp8266\esp8266.c **** int32_t esp8266_joinap(char *pssid, char *ppasswd)
  70:C:/Users/lenovo/Desktop/liteos/Project2/BearPi_LiteOS/components/net/at_device/wifi_esp8266\esp8266.c **** {
  71:C:/Users/lenovo/Desktop/liteos/Project2/BearPi_LiteOS/components/net/at_device/wifi_esp8266\esp8266.c ****     char cmd[64] = {0};
  72:C:/Users/lenovo/Desktop/liteos/Project2/BearPi_LiteOS/components/net/at_device/wifi_esp8266\esp8266.c ****     snprintf(cmd, 64, "%s=\"%s\",\"%s\"", AT_CMD_JOINAP, pssid, ppasswd);
  73:C:/Users/lenovo/Desktop/liteos/Project2/BearPi_LiteOS/components/net/at_device/wifi_esp8266\esp8266.c ****     return esp8266_cmd((int8_t *)cmd, strlen(cmd), "OK\r\n", NULL, NULL);
  74:C:/Users/lenovo/Desktop/liteos/Project2/BearPi_LiteOS/components/net/at_device/wifi_esp8266\esp8266.c **** }
  75:C:/Users/lenovo/Desktop/liteos/Project2/BearPi_LiteOS/components/net/at_device/wifi_esp8266\esp8266.c **** 
  76:C:/Users/lenovo/Desktop/liteos/Project2/BearPi_LiteOS/components/net/at_device/wifi_esp8266\esp8266.c **** int32_t esp8266_connect(const int8_t *host, const int8_t *port, int32_t proto)
  77:C:/Users/lenovo/Desktop/liteos/Project2/BearPi_LiteOS/components/net/at_device/wifi_esp8266\esp8266.c **** {
  78:C:/Users/lenovo/Desktop/liteos/Project2/BearPi_LiteOS/components/net/at_device/wifi_esp8266\esp8266.c ****     int32_t ret = AT_FAILED;
  79:C:/Users/lenovo/Desktop/liteos/Project2/BearPi_LiteOS/components/net/at_device/wifi_esp8266\esp8266.c ****     int32_t id = 0;
  80:C:/Users/lenovo/Desktop/liteos/Project2/BearPi_LiteOS/components/net/at_device/wifi_esp8266\esp8266.c ****     char cmd[64] = {0};
  81:C:/Users/lenovo/Desktop/liteos/Project2/BearPi_LiteOS/components/net/at_device/wifi_esp8266\esp8266.c **** 
  82:C:/Users/lenovo/Desktop/liteos/Project2/BearPi_LiteOS/components/net/at_device/wifi_esp8266\esp8266.c ****     AT_LOG("host:%s, port:%s", host, port);
  83:C:/Users/lenovo/Desktop/liteos/Project2/BearPi_LiteOS/components/net/at_device/wifi_esp8266\esp8266.c **** 
  84:C:/Users/lenovo/Desktop/liteos/Project2/BearPi_LiteOS/components/net/at_device/wifi_esp8266\esp8266.c ****     if (AT_MUXMODE_SINGLE == at.mux_mode)
  85:C:/Users/lenovo/Desktop/liteos/Project2/BearPi_LiteOS/components/net/at_device/wifi_esp8266\esp8266.c ****     {
  86:C:/Users/lenovo/Desktop/liteos/Project2/BearPi_LiteOS/components/net/at_device/wifi_esp8266\esp8266.c ****         snprintf(cmd, 64, "%s=\"%s\",\"%s\",%s", AT_CMD_CONN, proto == ATINY_PROTO_UDP ? "UDP" : "T
  87:C:/Users/lenovo/Desktop/liteos/Project2/BearPi_LiteOS/components/net/at_device/wifi_esp8266\esp8266.c ****     }
  88:C:/Users/lenovo/Desktop/liteos/Project2/BearPi_LiteOS/components/net/at_device/wifi_esp8266\esp8266.c ****     else
ARM GAS  c:\Users\lenovo\AppData\Local\Temp\ccZzE1K8.s 			page 3


  89:C:/Users/lenovo/Desktop/liteos/Project2/BearPi_LiteOS/components/net/at_device/wifi_esp8266\esp8266.c ****     {
  90:C:/Users/lenovo/Desktop/liteos/Project2/BearPi_LiteOS/components/net/at_device/wifi_esp8266\esp8266.c ****         id = at.get_id();
  91:C:/Users/lenovo/Desktop/liteos/Project2/BearPi_LiteOS/components/net/at_device/wifi_esp8266\esp8266.c ****         if (id < 0 || id >= AT_MAX_LINK_NUM)
  92:C:/Users/lenovo/Desktop/liteos/Project2/BearPi_LiteOS/components/net/at_device/wifi_esp8266\esp8266.c ****         {
  93:C:/Users/lenovo/Desktop/liteos/Project2/BearPi_LiteOS/components/net/at_device/wifi_esp8266\esp8266.c ****             AT_LOG("no vailed linkid for use(id = %ld)", id);
  94:C:/Users/lenovo/Desktop/liteos/Project2/BearPi_LiteOS/components/net/at_device/wifi_esp8266\esp8266.c ****             return AT_FAILED;
  95:C:/Users/lenovo/Desktop/liteos/Project2/BearPi_LiteOS/components/net/at_device/wifi_esp8266\esp8266.c ****         }
  96:C:/Users/lenovo/Desktop/liteos/Project2/BearPi_LiteOS/components/net/at_device/wifi_esp8266\esp8266.c ****         snprintf(cmd, 64, "%s=%ld,\"%s\",\"%s\",%s", AT_CMD_CONN, id, proto == ATINY_PROTO_UDP ? "U
  97:C:/Users/lenovo/Desktop/liteos/Project2/BearPi_LiteOS/components/net/at_device/wifi_esp8266\esp8266.c ****     }
  98:C:/Users/lenovo/Desktop/liteos/Project2/BearPi_LiteOS/components/net/at_device/wifi_esp8266\esp8266.c **** 
  99:C:/Users/lenovo/Desktop/liteos/Project2/BearPi_LiteOS/components/net/at_device/wifi_esp8266\esp8266.c ****     //init at_link
 100:C:/Users/lenovo/Desktop/liteos/Project2/BearPi_LiteOS/components/net/at_device/wifi_esp8266\esp8266.c ****     memcpy(at.linkid[id].remote_ip, host, sizeof(at.linkid[id].remote_ip));
 101:C:/Users/lenovo/Desktop/liteos/Project2/BearPi_LiteOS/components/net/at_device/wifi_esp8266\esp8266.c ****     (void)sscanf((char*)port, "%d", &at.linkid[id].remote_port);
 102:C:/Users/lenovo/Desktop/liteos/Project2/BearPi_LiteOS/components/net/at_device/wifi_esp8266\esp8266.c **** 
 103:C:/Users/lenovo/Desktop/liteos/Project2/BearPi_LiteOS/components/net/at_device/wifi_esp8266\esp8266.c ****     ret = LOS_QueueCreate("dataQueue", 16, &at.linkid[id].qid, 0, sizeof(QUEUE_BUFF));
 104:C:/Users/lenovo/Desktop/liteos/Project2/BearPi_LiteOS/components/net/at_device/wifi_esp8266\esp8266.c ****     if (ret != LOS_OK)
 105:C:/Users/lenovo/Desktop/liteos/Project2/BearPi_LiteOS/components/net/at_device/wifi_esp8266\esp8266.c ****     {
 106:C:/Users/lenovo/Desktop/liteos/Project2/BearPi_LiteOS/components/net/at_device/wifi_esp8266\esp8266.c ****         AT_LOG("init dataQueue failed!");
 107:C:/Users/lenovo/Desktop/liteos/Project2/BearPi_LiteOS/components/net/at_device/wifi_esp8266\esp8266.c ****         at.linkid[id].usable = AT_LINK_UNUSE;
 108:C:/Users/lenovo/Desktop/liteos/Project2/BearPi_LiteOS/components/net/at_device/wifi_esp8266\esp8266.c ****         return AT_FAILED;
 109:C:/Users/lenovo/Desktop/liteos/Project2/BearPi_LiteOS/components/net/at_device/wifi_esp8266\esp8266.c ****     }
 110:C:/Users/lenovo/Desktop/liteos/Project2/BearPi_LiteOS/components/net/at_device/wifi_esp8266\esp8266.c ****     ret = esp8266_cmd((int8_t *)cmd, strlen(cmd), "OK\r\n", NULL, NULL);
 111:C:/Users/lenovo/Desktop/liteos/Project2/BearPi_LiteOS/components/net/at_device/wifi_esp8266\esp8266.c ****     if (AT_FAILED == ret)
 112:C:/Users/lenovo/Desktop/liteos/Project2/BearPi_LiteOS/components/net/at_device/wifi_esp8266\esp8266.c ****     {
 113:C:/Users/lenovo/Desktop/liteos/Project2/BearPi_LiteOS/components/net/at_device/wifi_esp8266\esp8266.c ****         AT_LOG("at.cmd return failed!");
 114:C:/Users/lenovo/Desktop/liteos/Project2/BearPi_LiteOS/components/net/at_device/wifi_esp8266\esp8266.c ****        (void)LOS_QueueDelete(at.linkid[id].qid);
 115:C:/Users/lenovo/Desktop/liteos/Project2/BearPi_LiteOS/components/net/at_device/wifi_esp8266\esp8266.c ****         at.linkid[id].usable = AT_LINK_UNUSE;
 116:C:/Users/lenovo/Desktop/liteos/Project2/BearPi_LiteOS/components/net/at_device/wifi_esp8266\esp8266.c ****         return AT_FAILED;
 117:C:/Users/lenovo/Desktop/liteos/Project2/BearPi_LiteOS/components/net/at_device/wifi_esp8266\esp8266.c ****     }
 118:C:/Users/lenovo/Desktop/liteos/Project2/BearPi_LiteOS/components/net/at_device/wifi_esp8266\esp8266.c ****     return id;
 119:C:/Users/lenovo/Desktop/liteos/Project2/BearPi_LiteOS/components/net/at_device/wifi_esp8266\esp8266.c **** }
 120:C:/Users/lenovo/Desktop/liteos/Project2/BearPi_LiteOS/components/net/at_device/wifi_esp8266\esp8266.c **** 
 121:C:/Users/lenovo/Desktop/liteos/Project2/BearPi_LiteOS/components/net/at_device/wifi_esp8266\esp8266.c **** int32_t esp8266_send(int32_t id , const uint8_t  *buf, uint32_t len)
 122:C:/Users/lenovo/Desktop/liteos/Project2/BearPi_LiteOS/components/net/at_device/wifi_esp8266\esp8266.c **** {
 123:C:/Users/lenovo/Desktop/liteos/Project2/BearPi_LiteOS/components/net/at_device/wifi_esp8266\esp8266.c ****     int32_t ret = AT_FAILED;
 124:C:/Users/lenovo/Desktop/liteos/Project2/BearPi_LiteOS/components/net/at_device/wifi_esp8266\esp8266.c ****     char cmd[64] = {0};
 125:C:/Users/lenovo/Desktop/liteos/Project2/BearPi_LiteOS/components/net/at_device/wifi_esp8266\esp8266.c ****     if (AT_MUXMODE_SINGLE == at.mux_mode)
 126:C:/Users/lenovo/Desktop/liteos/Project2/BearPi_LiteOS/components/net/at_device/wifi_esp8266\esp8266.c ****     {
 127:C:/Users/lenovo/Desktop/liteos/Project2/BearPi_LiteOS/components/net/at_device/wifi_esp8266\esp8266.c ****         snprintf(cmd, 64, "%s=%lu,\"%s\",%d", AT_CMD_SEND, len,at.linkid[0].remote_ip, at.linkid[0]
 128:C:/Users/lenovo/Desktop/liteos/Project2/BearPi_LiteOS/components/net/at_device/wifi_esp8266\esp8266.c ****     }
 129:C:/Users/lenovo/Desktop/liteos/Project2/BearPi_LiteOS/components/net/at_device/wifi_esp8266\esp8266.c ****     else
 130:C:/Users/lenovo/Desktop/liteos/Project2/BearPi_LiteOS/components/net/at_device/wifi_esp8266\esp8266.c ****     {
 131:C:/Users/lenovo/Desktop/liteos/Project2/BearPi_LiteOS/components/net/at_device/wifi_esp8266\esp8266.c ****         snprintf(cmd, 64, "%s=%ld,%lu,\"%s\",%d", AT_CMD_SEND, id, len,at.linkid[id].remote_ip, at.
 132:C:/Users/lenovo/Desktop/liteos/Project2/BearPi_LiteOS/components/net/at_device/wifi_esp8266\esp8266.c ****     }
 133:C:/Users/lenovo/Desktop/liteos/Project2/BearPi_LiteOS/components/net/at_device/wifi_esp8266\esp8266.c **** 
 134:C:/Users/lenovo/Desktop/liteos/Project2/BearPi_LiteOS/components/net/at_device/wifi_esp8266\esp8266.c ****     //   at.cmd(cmd, strlen(cmd), ">", NULL);
 135:C:/Users/lenovo/Desktop/liteos/Project2/BearPi_LiteOS/components/net/at_device/wifi_esp8266\esp8266.c ****     ret = at.write((int8_t *)cmd, (int8_t *)"SEND OK\r\n", (int8_t *)buf, len);
 136:C:/Users/lenovo/Desktop/liteos/Project2/BearPi_LiteOS/components/net/at_device/wifi_esp8266\esp8266.c **** 
 137:C:/Users/lenovo/Desktop/liteos/Project2/BearPi_LiteOS/components/net/at_device/wifi_esp8266\esp8266.c ****     return ret;
 138:C:/Users/lenovo/Desktop/liteos/Project2/BearPi_LiteOS/components/net/at_device/wifi_esp8266\esp8266.c **** }
 139:C:/Users/lenovo/Desktop/liteos/Project2/BearPi_LiteOS/components/net/at_device/wifi_esp8266\esp8266.c **** 
 140:C:/Users/lenovo/Desktop/liteos/Project2/BearPi_LiteOS/components/net/at_device/wifi_esp8266\esp8266.c **** int32_t esp8266_recv_timeout(int32_t id, uint8_t *buf, uint32_t len, char * host, int * port, int32
 141:C:/Users/lenovo/Desktop/liteos/Project2/BearPi_LiteOS/components/net/at_device/wifi_esp8266\esp8266.c **** {
 142:C:/Users/lenovo/Desktop/liteos/Project2/BearPi_LiteOS/components/net/at_device/wifi_esp8266\esp8266.c ****     uint32_t qlen = sizeof(QUEUE_BUFF);
 143:C:/Users/lenovo/Desktop/liteos/Project2/BearPi_LiteOS/components/net/at_device/wifi_esp8266\esp8266.c ****     uint32_t rxlen = 0;
 144:C:/Users/lenovo/Desktop/liteos/Project2/BearPi_LiteOS/components/net/at_device/wifi_esp8266\esp8266.c **** 
 145:C:/Users/lenovo/Desktop/liteos/Project2/BearPi_LiteOS/components/net/at_device/wifi_esp8266\esp8266.c ****     QUEUE_BUFF  qbuf = {0, NULL};
ARM GAS  c:\Users\lenovo\AppData\Local\Temp\ccZzE1K8.s 			page 4


 146:C:/Users/lenovo/Desktop/liteos/Project2/BearPi_LiteOS/components/net/at_device/wifi_esp8266\esp8266.c ****     int ret = LOS_QueueReadCopy(at.linkid[id].qid, (void *)&qbuf, (UINT32 *)&qlen, timeout);
 147:C:/Users/lenovo/Desktop/liteos/Project2/BearPi_LiteOS/components/net/at_device/wifi_esp8266\esp8266.c **** //    AT_LOG("ret = %x, len = %ld, id = %ld, timeout = %d", ret, qbuf.len, id, timeout);
 148:C:/Users/lenovo/Desktop/liteos/Project2/BearPi_LiteOS/components/net/at_device/wifi_esp8266\esp8266.c ****     if (ret != LOS_OK)
 149:C:/Users/lenovo/Desktop/liteos/Project2/BearPi_LiteOS/components/net/at_device/wifi_esp8266\esp8266.c ****     {
 150:C:/Users/lenovo/Desktop/liteos/Project2/BearPi_LiteOS/components/net/at_device/wifi_esp8266\esp8266.c ****         return AT_FAILED;
 151:C:/Users/lenovo/Desktop/liteos/Project2/BearPi_LiteOS/components/net/at_device/wifi_esp8266\esp8266.c ****     }
 152:C:/Users/lenovo/Desktop/liteos/Project2/BearPi_LiteOS/components/net/at_device/wifi_esp8266\esp8266.c **** 
 153:C:/Users/lenovo/Desktop/liteos/Project2/BearPi_LiteOS/components/net/at_device/wifi_esp8266\esp8266.c ****     if (qbuf.len)
 154:C:/Users/lenovo/Desktop/liteos/Project2/BearPi_LiteOS/components/net/at_device/wifi_esp8266\esp8266.c ****     {
 155:C:/Users/lenovo/Desktop/liteos/Project2/BearPi_LiteOS/components/net/at_device/wifi_esp8266\esp8266.c ****         rxlen = (len < qbuf.len) ? len : qbuf.len;
 156:C:/Users/lenovo/Desktop/liteos/Project2/BearPi_LiteOS/components/net/at_device/wifi_esp8266\esp8266.c ****         memcpy(buf, qbuf.addr, rxlen);
 157:C:/Users/lenovo/Desktop/liteos/Project2/BearPi_LiteOS/components/net/at_device/wifi_esp8266\esp8266.c ****         at_free(qbuf.addr);
 158:C:/Users/lenovo/Desktop/liteos/Project2/BearPi_LiteOS/components/net/at_device/wifi_esp8266\esp8266.c ****     }
 159:C:/Users/lenovo/Desktop/liteos/Project2/BearPi_LiteOS/components/net/at_device/wifi_esp8266\esp8266.c ****     return rxlen;
 160:C:/Users/lenovo/Desktop/liteos/Project2/BearPi_LiteOS/components/net/at_device/wifi_esp8266\esp8266.c **** }
 161:C:/Users/lenovo/Desktop/liteos/Project2/BearPi_LiteOS/components/net/at_device/wifi_esp8266\esp8266.c **** 
 162:C:/Users/lenovo/Desktop/liteos/Project2/BearPi_LiteOS/components/net/at_device/wifi_esp8266\esp8266.c **** int32_t esp8266_recv(int32_t id, uint8_t *buf, uint32_t len)
 163:C:/Users/lenovo/Desktop/liteos/Project2/BearPi_LiteOS/components/net/at_device/wifi_esp8266\esp8266.c **** {
 164:C:/Users/lenovo/Desktop/liteos/Project2/BearPi_LiteOS/components/net/at_device/wifi_esp8266\esp8266.c ****     return esp8266_recv_timeout(id, buf, len, NULL, NULL, LOS_WAIT_FOREVER);
 165:C:/Users/lenovo/Desktop/liteos/Project2/BearPi_LiteOS/components/net/at_device/wifi_esp8266\esp8266.c **** }
 166:C:/Users/lenovo/Desktop/liteos/Project2/BearPi_LiteOS/components/net/at_device/wifi_esp8266\esp8266.c **** 
 167:C:/Users/lenovo/Desktop/liteos/Project2/BearPi_LiteOS/components/net/at_device/wifi_esp8266\esp8266.c **** int32_t esp8266_close(int32_t id)
 168:C:/Users/lenovo/Desktop/liteos/Project2/BearPi_LiteOS/components/net/at_device/wifi_esp8266\esp8266.c **** {
 169:C:/Users/lenovo/Desktop/liteos/Project2/BearPi_LiteOS/components/net/at_device/wifi_esp8266\esp8266.c ****     char cmd[64] = {0};
 170:C:/Users/lenovo/Desktop/liteos/Project2/BearPi_LiteOS/components/net/at_device/wifi_esp8266\esp8266.c **** 
 171:C:/Users/lenovo/Desktop/liteos/Project2/BearPi_LiteOS/components/net/at_device/wifi_esp8266\esp8266.c ****     if(at.linkid[id].usable == AT_LINK_UNUSE)
 172:C:/Users/lenovo/Desktop/liteos/Project2/BearPi_LiteOS/components/net/at_device/wifi_esp8266\esp8266.c ****         return 0;
 173:C:/Users/lenovo/Desktop/liteos/Project2/BearPi_LiteOS/components/net/at_device/wifi_esp8266\esp8266.c **** 
 174:C:/Users/lenovo/Desktop/liteos/Project2/BearPi_LiteOS/components/net/at_device/wifi_esp8266\esp8266.c ****     if (AT_MUXMODE_SINGLE == at.mux_mode)
 175:C:/Users/lenovo/Desktop/liteos/Project2/BearPi_LiteOS/components/net/at_device/wifi_esp8266\esp8266.c ****     {
 176:C:/Users/lenovo/Desktop/liteos/Project2/BearPi_LiteOS/components/net/at_device/wifi_esp8266\esp8266.c ****         snprintf(cmd, 64, "%s", AT_CMD_CLOSE);
 177:C:/Users/lenovo/Desktop/liteos/Project2/BearPi_LiteOS/components/net/at_device/wifi_esp8266\esp8266.c ****     }
 178:C:/Users/lenovo/Desktop/liteos/Project2/BearPi_LiteOS/components/net/at_device/wifi_esp8266\esp8266.c ****     else
 179:C:/Users/lenovo/Desktop/liteos/Project2/BearPi_LiteOS/components/net/at_device/wifi_esp8266\esp8266.c ****     {
 180:C:/Users/lenovo/Desktop/liteos/Project2/BearPi_LiteOS/components/net/at_device/wifi_esp8266\esp8266.c ****         uint32_t qlen = sizeof(QUEUE_BUFF);
 181:C:/Users/lenovo/Desktop/liteos/Project2/BearPi_LiteOS/components/net/at_device/wifi_esp8266\esp8266.c ****         QUEUE_BUFF  qbuf = {0, NULL};
 182:C:/Users/lenovo/Desktop/liteos/Project2/BearPi_LiteOS/components/net/at_device/wifi_esp8266\esp8266.c ****         while(LOS_OK == LOS_QueueReadCopy(at.linkid[id].qid, (void *)&qbuf, (UINT32 *)&qlen, 10))
 183:C:/Users/lenovo/Desktop/liteos/Project2/BearPi_LiteOS/components/net/at_device/wifi_esp8266\esp8266.c ****         {
 184:C:/Users/lenovo/Desktop/liteos/Project2/BearPi_LiteOS/components/net/at_device/wifi_esp8266\esp8266.c ****             if (qbuf.len)
 185:C:/Users/lenovo/Desktop/liteos/Project2/BearPi_LiteOS/components/net/at_device/wifi_esp8266\esp8266.c ****             {
 186:C:/Users/lenovo/Desktop/liteos/Project2/BearPi_LiteOS/components/net/at_device/wifi_esp8266\esp8266.c ****                 at_free(qbuf.addr);
 187:C:/Users/lenovo/Desktop/liteos/Project2/BearPi_LiteOS/components/net/at_device/wifi_esp8266\esp8266.c ****                 memset(&qbuf, 0, sizeof(QUEUE_BUFF)); // don't use qlen
 188:C:/Users/lenovo/Desktop/liteos/Project2/BearPi_LiteOS/components/net/at_device/wifi_esp8266\esp8266.c ****             }
 189:C:/Users/lenovo/Desktop/liteos/Project2/BearPi_LiteOS/components/net/at_device/wifi_esp8266\esp8266.c ****         }
 190:C:/Users/lenovo/Desktop/liteos/Project2/BearPi_LiteOS/components/net/at_device/wifi_esp8266\esp8266.c ****         (void)LOS_QueueDelete(at.linkid[id].qid);
 191:C:/Users/lenovo/Desktop/liteos/Project2/BearPi_LiteOS/components/net/at_device/wifi_esp8266\esp8266.c ****         memset(&at.linkid[id], 0, sizeof(at_link));
 192:C:/Users/lenovo/Desktop/liteos/Project2/BearPi_LiteOS/components/net/at_device/wifi_esp8266\esp8266.c ****         snprintf(cmd, 64, "%s=%ld", AT_CMD_CLOSE, id);
 193:C:/Users/lenovo/Desktop/liteos/Project2/BearPi_LiteOS/components/net/at_device/wifi_esp8266\esp8266.c ****     }
 194:C:/Users/lenovo/Desktop/liteos/Project2/BearPi_LiteOS/components/net/at_device/wifi_esp8266\esp8266.c ****     return esp8266_cmd((int8_t *)cmd, strlen(cmd), "OK\r\n", NULL, NULL);
 195:C:/Users/lenovo/Desktop/liteos/Project2/BearPi_LiteOS/components/net/at_device/wifi_esp8266\esp8266.c **** }
 196:C:/Users/lenovo/Desktop/liteos/Project2/BearPi_LiteOS/components/net/at_device/wifi_esp8266\esp8266.c **** 
 197:C:/Users/lenovo/Desktop/liteos/Project2/BearPi_LiteOS/components/net/at_device/wifi_esp8266\esp8266.c **** int32_t esp8266_data_handler(void *arg, int8_t *buf, int32_t len)
 198:C:/Users/lenovo/Desktop/liteos/Project2/BearPi_LiteOS/components/net/at_device/wifi_esp8266\esp8266.c **** {
 199:C:/Users/lenovo/Desktop/liteos/Project2/BearPi_LiteOS/components/net/at_device/wifi_esp8266\esp8266.c ****     if (NULL == buf || len <= 0)
 200:C:/Users/lenovo/Desktop/liteos/Project2/BearPi_LiteOS/components/net/at_device/wifi_esp8266\esp8266.c ****     {
 201:C:/Users/lenovo/Desktop/liteos/Project2/BearPi_LiteOS/components/net/at_device/wifi_esp8266\esp8266.c ****         AT_LOG("param invailed!");
 202:C:/Users/lenovo/Desktop/liteos/Project2/BearPi_LiteOS/components/net/at_device/wifi_esp8266\esp8266.c ****         return AT_FAILED;
ARM GAS  c:\Users\lenovo\AppData\Local\Temp\ccZzE1K8.s 			page 5


 203:C:/Users/lenovo/Desktop/liteos/Project2/BearPi_LiteOS/components/net/at_device/wifi_esp8266\esp8266.c ****     }
 204:C:/Users/lenovo/Desktop/liteos/Project2/BearPi_LiteOS/components/net/at_device/wifi_esp8266\esp8266.c ****     AT_LOG("entry!");
 205:C:/Users/lenovo/Desktop/liteos/Project2/BearPi_LiteOS/components/net/at_device/wifi_esp8266\esp8266.c **** 
 206:C:/Users/lenovo/Desktop/liteos/Project2/BearPi_LiteOS/components/net/at_device/wifi_esp8266\esp8266.c ****     //process data frame ,like +IPD,linkid,len:data
 207:C:/Users/lenovo/Desktop/liteos/Project2/BearPi_LiteOS/components/net/at_device/wifi_esp8266\esp8266.c ****     int32_t ret = -1;
 208:C:/Users/lenovo/Desktop/liteos/Project2/BearPi_LiteOS/components/net/at_device/wifi_esp8266\esp8266.c ****     int32_t linkid = 0, data_len = 0;
 209:C:/Users/lenovo/Desktop/liteos/Project2/BearPi_LiteOS/components/net/at_device/wifi_esp8266\esp8266.c ****     int32_t remote_port = 0;
 210:C:/Users/lenovo/Desktop/liteos/Project2/BearPi_LiteOS/components/net/at_device/wifi_esp8266\esp8266.c ****     char * remote_ip;
 211:C:/Users/lenovo/Desktop/liteos/Project2/BearPi_LiteOS/components/net/at_device/wifi_esp8266\esp8266.c ****     char *p1, *p2;
 212:C:/Users/lenovo/Desktop/liteos/Project2/BearPi_LiteOS/components/net/at_device/wifi_esp8266\esp8266.c ****     QUEUE_BUFF qbuf;
 213:C:/Users/lenovo/Desktop/liteos/Project2/BearPi_LiteOS/components/net/at_device/wifi_esp8266\esp8266.c ****     p1 = (char *)buf;
 214:C:/Users/lenovo/Desktop/liteos/Project2/BearPi_LiteOS/components/net/at_device/wifi_esp8266\esp8266.c **** 
 215:C:/Users/lenovo/Desktop/liteos/Project2/BearPi_LiteOS/components/net/at_device/wifi_esp8266\esp8266.c **** LOOP:
 216:C:/Users/lenovo/Desktop/liteos/Project2/BearPi_LiteOS/components/net/at_device/wifi_esp8266\esp8266.c ****     if (0 == memcmp(p1, AT_DATAF_PREFIX, strlen(AT_DATAF_PREFIX)))
 217:C:/Users/lenovo/Desktop/liteos/Project2/BearPi_LiteOS/components/net/at_device/wifi_esp8266\esp8266.c ****     {
 218:C:/Users/lenovo/Desktop/liteos/Project2/BearPi_LiteOS/components/net/at_device/wifi_esp8266\esp8266.c ****         p2 = strstr(p1, ",");
 219:C:/Users/lenovo/Desktop/liteos/Project2/BearPi_LiteOS/components/net/at_device/wifi_esp8266\esp8266.c ****         if (NULL == p2)
 220:C:/Users/lenovo/Desktop/liteos/Project2/BearPi_LiteOS/components/net/at_device/wifi_esp8266\esp8266.c ****         {
 221:C:/Users/lenovo/Desktop/liteos/Project2/BearPi_LiteOS/components/net/at_device/wifi_esp8266\esp8266.c ****             AT_LOG("got data prefix invailed!");
 222:C:/Users/lenovo/Desktop/liteos/Project2/BearPi_LiteOS/components/net/at_device/wifi_esp8266\esp8266.c ****             goto END;
 223:C:/Users/lenovo/Desktop/liteos/Project2/BearPi_LiteOS/components/net/at_device/wifi_esp8266\esp8266.c ****         }
 224:C:/Users/lenovo/Desktop/liteos/Project2/BearPi_LiteOS/components/net/at_device/wifi_esp8266\esp8266.c **** 
 225:C:/Users/lenovo/Desktop/liteos/Project2/BearPi_LiteOS/components/net/at_device/wifi_esp8266\esp8266.c ****         if (AT_MUXMODE_MULTI == at.mux_mode)
 226:C:/Users/lenovo/Desktop/liteos/Project2/BearPi_LiteOS/components/net/at_device/wifi_esp8266\esp8266.c ****         {
 227:C:/Users/lenovo/Desktop/liteos/Project2/BearPi_LiteOS/components/net/at_device/wifi_esp8266\esp8266.c ****             linkid = 0;
 228:C:/Users/lenovo/Desktop/liteos/Project2/BearPi_LiteOS/components/net/at_device/wifi_esp8266\esp8266.c ****             for (p2++; *p2 <= '9' && *p2 >= '0'; p2++)
 229:C:/Users/lenovo/Desktop/liteos/Project2/BearPi_LiteOS/components/net/at_device/wifi_esp8266\esp8266.c ****             {
 230:C:/Users/lenovo/Desktop/liteos/Project2/BearPi_LiteOS/components/net/at_device/wifi_esp8266\esp8266.c ****                 linkid = linkid * 10 + (*p2 - '0');
 231:C:/Users/lenovo/Desktop/liteos/Project2/BearPi_LiteOS/components/net/at_device/wifi_esp8266\esp8266.c ****             }
 232:C:/Users/lenovo/Desktop/liteos/Project2/BearPi_LiteOS/components/net/at_device/wifi_esp8266\esp8266.c ****         }
 233:C:/Users/lenovo/Desktop/liteos/Project2/BearPi_LiteOS/components/net/at_device/wifi_esp8266\esp8266.c **** 
 234:C:/Users/lenovo/Desktop/liteos/Project2/BearPi_LiteOS/components/net/at_device/wifi_esp8266\esp8266.c ****         data_len = 0;
 235:C:/Users/lenovo/Desktop/liteos/Project2/BearPi_LiteOS/components/net/at_device/wifi_esp8266\esp8266.c ****         for (p2++; *p2 <= '9' && *p2 >= '0' ; p2++)
 236:C:/Users/lenovo/Desktop/liteos/Project2/BearPi_LiteOS/components/net/at_device/wifi_esp8266\esp8266.c ****         {
 237:C:/Users/lenovo/Desktop/liteos/Project2/BearPi_LiteOS/components/net/at_device/wifi_esp8266\esp8266.c ****             data_len = (data_len * 10 + (*p2 - '0'));
 238:C:/Users/lenovo/Desktop/liteos/Project2/BearPi_LiteOS/components/net/at_device/wifi_esp8266\esp8266.c ****         }
 239:C:/Users/lenovo/Desktop/liteos/Project2/BearPi_LiteOS/components/net/at_device/wifi_esp8266\esp8266.c **** 
 240:C:/Users/lenovo/Desktop/liteos/Project2/BearPi_LiteOS/components/net/at_device/wifi_esp8266\esp8266.c ****         //remote ip:str
 241:C:/Users/lenovo/Desktop/liteos/Project2/BearPi_LiteOS/components/net/at_device/wifi_esp8266\esp8266.c ****         remote_ip = (char *)at.linkid[linkid].remote_ip;
 242:C:/Users/lenovo/Desktop/liteos/Project2/BearPi_LiteOS/components/net/at_device/wifi_esp8266\esp8266.c ****         for (p2++; *p2 != ',' ; p2++)
 243:C:/Users/lenovo/Desktop/liteos/Project2/BearPi_LiteOS/components/net/at_device/wifi_esp8266\esp8266.c ****         {
 244:C:/Users/lenovo/Desktop/liteos/Project2/BearPi_LiteOS/components/net/at_device/wifi_esp8266\esp8266.c ****             *(remote_ip++) = *p2;
 245:C:/Users/lenovo/Desktop/liteos/Project2/BearPi_LiteOS/components/net/at_device/wifi_esp8266\esp8266.c ****         }
 246:C:/Users/lenovo/Desktop/liteos/Project2/BearPi_LiteOS/components/net/at_device/wifi_esp8266\esp8266.c **** 
 247:C:/Users/lenovo/Desktop/liteos/Project2/BearPi_LiteOS/components/net/at_device/wifi_esp8266\esp8266.c ****         //remote port
 248:C:/Users/lenovo/Desktop/liteos/Project2/BearPi_LiteOS/components/net/at_device/wifi_esp8266\esp8266.c ****         remote_port = 0;
 249:C:/Users/lenovo/Desktop/liteos/Project2/BearPi_LiteOS/components/net/at_device/wifi_esp8266\esp8266.c ****         for (p2++; *p2 <= '9' && *p2 >= '0' ; p2++)
 250:C:/Users/lenovo/Desktop/liteos/Project2/BearPi_LiteOS/components/net/at_device/wifi_esp8266\esp8266.c ****         {
 251:C:/Users/lenovo/Desktop/liteos/Project2/BearPi_LiteOS/components/net/at_device/wifi_esp8266\esp8266.c ****             remote_port = (remote_port * 10 + (*p2 - '0'));
 252:C:/Users/lenovo/Desktop/liteos/Project2/BearPi_LiteOS/components/net/at_device/wifi_esp8266\esp8266.c ****         }
 253:C:/Users/lenovo/Desktop/liteos/Project2/BearPi_LiteOS/components/net/at_device/wifi_esp8266\esp8266.c ****         at.linkid[linkid].remote_port = remote_port;
 254:C:/Users/lenovo/Desktop/liteos/Project2/BearPi_LiteOS/components/net/at_device/wifi_esp8266\esp8266.c **** 
 255:C:/Users/lenovo/Desktop/liteos/Project2/BearPi_LiteOS/components/net/at_device/wifi_esp8266\esp8266.c ****         p2++; //over ':'
 256:C:/Users/lenovo/Desktop/liteos/Project2/BearPi_LiteOS/components/net/at_device/wifi_esp8266\esp8266.c **** 
 257:C:/Users/lenovo/Desktop/liteos/Project2/BearPi_LiteOS/components/net/at_device/wifi_esp8266\esp8266.c ****         qbuf.addr = at_malloc(data_len);
 258:C:/Users/lenovo/Desktop/liteos/Project2/BearPi_LiteOS/components/net/at_device/wifi_esp8266\esp8266.c ****         if (NULL == qbuf.addr)
 259:C:/Users/lenovo/Desktop/liteos/Project2/BearPi_LiteOS/components/net/at_device/wifi_esp8266\esp8266.c ****         {
ARM GAS  c:\Users\lenovo\AppData\Local\Temp\ccZzE1K8.s 			page 6


 260:C:/Users/lenovo/Desktop/liteos/Project2/BearPi_LiteOS/components/net/at_device/wifi_esp8266\esp8266.c ****             AT_LOG("malloc for qbuf failed!");
 261:C:/Users/lenovo/Desktop/liteos/Project2/BearPi_LiteOS/components/net/at_device/wifi_esp8266\esp8266.c ****             goto END;
 262:C:/Users/lenovo/Desktop/liteos/Project2/BearPi_LiteOS/components/net/at_device/wifi_esp8266\esp8266.c ****         }
 263:C:/Users/lenovo/Desktop/liteos/Project2/BearPi_LiteOS/components/net/at_device/wifi_esp8266\esp8266.c **** 
 264:C:/Users/lenovo/Desktop/liteos/Project2/BearPi_LiteOS/components/net/at_device/wifi_esp8266\esp8266.c ****         qbuf.len = data_len;
 265:C:/Users/lenovo/Desktop/liteos/Project2/BearPi_LiteOS/components/net/at_device/wifi_esp8266\esp8266.c ****         memcpy(qbuf.addr, p2, data_len);
 266:C:/Users/lenovo/Desktop/liteos/Project2/BearPi_LiteOS/components/net/at_device/wifi_esp8266\esp8266.c **** 
 267:C:/Users/lenovo/Desktop/liteos/Project2/BearPi_LiteOS/components/net/at_device/wifi_esp8266\esp8266.c ****         if (LOS_OK != (ret = LOS_QueueWriteCopy(at.linkid[linkid].qid, &qbuf, sizeof(QUEUE_BUFF), 0
 268:C:/Users/lenovo/Desktop/liteos/Project2/BearPi_LiteOS/components/net/at_device/wifi_esp8266\esp8266.c ****         {
 269:C:/Users/lenovo/Desktop/liteos/Project2/BearPi_LiteOS/components/net/at_device/wifi_esp8266\esp8266.c ****             AT_LOG("LOS_QueueWriteCopy  failed! ret = %lx", ret);
 270:C:/Users/lenovo/Desktop/liteos/Project2/BearPi_LiteOS/components/net/at_device/wifi_esp8266\esp8266.c ****             at_free(qbuf.addr);
 271:C:/Users/lenovo/Desktop/liteos/Project2/BearPi_LiteOS/components/net/at_device/wifi_esp8266\esp8266.c ****             goto END;
 272:C:/Users/lenovo/Desktop/liteos/Project2/BearPi_LiteOS/components/net/at_device/wifi_esp8266\esp8266.c ****         }
 273:C:/Users/lenovo/Desktop/liteos/Project2/BearPi_LiteOS/components/net/at_device/wifi_esp8266\esp8266.c ****         p1  = (p2 + data_len);
 274:C:/Users/lenovo/Desktop/liteos/Project2/BearPi_LiteOS/components/net/at_device/wifi_esp8266\esp8266.c **** 
 275:C:/Users/lenovo/Desktop/liteos/Project2/BearPi_LiteOS/components/net/at_device/wifi_esp8266\esp8266.c ****         if ((p1 - (char*)buf) < len)
 276:C:/Users/lenovo/Desktop/liteos/Project2/BearPi_LiteOS/components/net/at_device/wifi_esp8266\esp8266.c ****             goto LOOP;
 277:C:/Users/lenovo/Desktop/liteos/Project2/BearPi_LiteOS/components/net/at_device/wifi_esp8266\esp8266.c ****     }
 278:C:/Users/lenovo/Desktop/liteos/Project2/BearPi_LiteOS/components/net/at_device/wifi_esp8266\esp8266.c **** END:
 279:C:/Users/lenovo/Desktop/liteos/Project2/BearPi_LiteOS/components/net/at_device/wifi_esp8266\esp8266.c ****     return 0;
 280:C:/Users/lenovo/Desktop/liteos/Project2/BearPi_LiteOS/components/net/at_device/wifi_esp8266\esp8266.c **** }
 281:C:/Users/lenovo/Desktop/liteos/Project2/BearPi_LiteOS/components/net/at_device/wifi_esp8266\esp8266.c **** 
 282:C:/Users/lenovo/Desktop/liteos/Project2/BearPi_LiteOS/components/net/at_device/wifi_esp8266\esp8266.c **** int8_t esp8266_get_localip(int8_t *ip, int8_t *gw, int8_t *mask)   /*get local IP*/
 283:C:/Users/lenovo/Desktop/liteos/Project2/BearPi_LiteOS/components/net/at_device/wifi_esp8266\esp8266.c **** {
 284:C:/Users/lenovo/Desktop/liteos/Project2/BearPi_LiteOS/components/net/at_device/wifi_esp8266\esp8266.c ****     char resp[512] = {0};
 285:C:/Users/lenovo/Desktop/liteos/Project2/BearPi_LiteOS/components/net/at_device/wifi_esp8266\esp8266.c ****     int len = 512;
 286:C:/Users/lenovo/Desktop/liteos/Project2/BearPi_LiteOS/components/net/at_device/wifi_esp8266\esp8266.c ****     esp8266_cmd((int8_t *)AT_CMD_CHECK_IP, strlen((char *)AT_CMD_CHECK_IP), "OK", resp, &len);
 287:C:/Users/lenovo/Desktop/liteos/Project2/BearPi_LiteOS/components/net/at_device/wifi_esp8266\esp8266.c **** 
 288:C:/Users/lenovo/Desktop/liteos/Project2/BearPi_LiteOS/components/net/at_device/wifi_esp8266\esp8266.c ****     AT_LOG("resp:%s", resp);
 289:C:/Users/lenovo/Desktop/liteos/Project2/BearPi_LiteOS/components/net/at_device/wifi_esp8266\esp8266.c ****     char *p1, *p2;
 290:C:/Users/lenovo/Desktop/liteos/Project2/BearPi_LiteOS/components/net/at_device/wifi_esp8266\esp8266.c ****     p1 = strstr(resp, "ip");
 291:C:/Users/lenovo/Desktop/liteos/Project2/BearPi_LiteOS/components/net/at_device/wifi_esp8266\esp8266.c ****     if (ip && p1)
 292:C:/Users/lenovo/Desktop/liteos/Project2/BearPi_LiteOS/components/net/at_device/wifi_esp8266\esp8266.c ****     {
 293:C:/Users/lenovo/Desktop/liteos/Project2/BearPi_LiteOS/components/net/at_device/wifi_esp8266\esp8266.c ****         p1 = strstr(p1, "\"");
 294:C:/Users/lenovo/Desktop/liteos/Project2/BearPi_LiteOS/components/net/at_device/wifi_esp8266\esp8266.c ****         p2 = strstr(p1 + 1, "\"");
 295:C:/Users/lenovo/Desktop/liteos/Project2/BearPi_LiteOS/components/net/at_device/wifi_esp8266\esp8266.c ****         memcpy(ip, p1 + 1, p2 - p1 - 1);
 296:C:/Users/lenovo/Desktop/liteos/Project2/BearPi_LiteOS/components/net/at_device/wifi_esp8266\esp8266.c ****     }
 297:C:/Users/lenovo/Desktop/liteos/Project2/BearPi_LiteOS/components/net/at_device/wifi_esp8266\esp8266.c **** 
 298:C:/Users/lenovo/Desktop/liteos/Project2/BearPi_LiteOS/components/net/at_device/wifi_esp8266\esp8266.c ****     p1 = strstr(resp, "gateway");
 299:C:/Users/lenovo/Desktop/liteos/Project2/BearPi_LiteOS/components/net/at_device/wifi_esp8266\esp8266.c ****     if (gw && p1)
 300:C:/Users/lenovo/Desktop/liteos/Project2/BearPi_LiteOS/components/net/at_device/wifi_esp8266\esp8266.c ****     {
 301:C:/Users/lenovo/Desktop/liteos/Project2/BearPi_LiteOS/components/net/at_device/wifi_esp8266\esp8266.c ****         p1 = strstr(p1, "\"");
 302:C:/Users/lenovo/Desktop/liteos/Project2/BearPi_LiteOS/components/net/at_device/wifi_esp8266\esp8266.c ****         p2 = strstr(p1 + 1, "\"");
 303:C:/Users/lenovo/Desktop/liteos/Project2/BearPi_LiteOS/components/net/at_device/wifi_esp8266\esp8266.c ****         memcpy(gw, p1 + 1, p2 - p1 - 1);
 304:C:/Users/lenovo/Desktop/liteos/Project2/BearPi_LiteOS/components/net/at_device/wifi_esp8266\esp8266.c ****     }
 305:C:/Users/lenovo/Desktop/liteos/Project2/BearPi_LiteOS/components/net/at_device/wifi_esp8266\esp8266.c **** 
 306:C:/Users/lenovo/Desktop/liteos/Project2/BearPi_LiteOS/components/net/at_device/wifi_esp8266\esp8266.c ****     p1 = strstr(resp, "netmask");
 307:C:/Users/lenovo/Desktop/liteos/Project2/BearPi_LiteOS/components/net/at_device/wifi_esp8266\esp8266.c ****     if (mask && p1)
 308:C:/Users/lenovo/Desktop/liteos/Project2/BearPi_LiteOS/components/net/at_device/wifi_esp8266\esp8266.c ****     {
 309:C:/Users/lenovo/Desktop/liteos/Project2/BearPi_LiteOS/components/net/at_device/wifi_esp8266\esp8266.c ****         p1 = strstr(p1, "\"");
 310:C:/Users/lenovo/Desktop/liteos/Project2/BearPi_LiteOS/components/net/at_device/wifi_esp8266\esp8266.c ****         p2 = strstr(p1 + 1, "\"");
 311:C:/Users/lenovo/Desktop/liteos/Project2/BearPi_LiteOS/components/net/at_device/wifi_esp8266\esp8266.c ****         memcpy(mask, p1 + 1, p2 - p1 - 1);
 312:C:/Users/lenovo/Desktop/liteos/Project2/BearPi_LiteOS/components/net/at_device/wifi_esp8266\esp8266.c ****     }
 313:C:/Users/lenovo/Desktop/liteos/Project2/BearPi_LiteOS/components/net/at_device/wifi_esp8266\esp8266.c **** 
 314:C:/Users/lenovo/Desktop/liteos/Project2/BearPi_LiteOS/components/net/at_device/wifi_esp8266\esp8266.c ****     //    printf("get ip :%s", resp);
 315:C:/Users/lenovo/Desktop/liteos/Project2/BearPi_LiteOS/components/net/at_device/wifi_esp8266\esp8266.c ****     return AT_OK;
 316:C:/Users/lenovo/Desktop/liteos/Project2/BearPi_LiteOS/components/net/at_device/wifi_esp8266\esp8266.c **** }
ARM GAS  c:\Users\lenovo\AppData\Local\Temp\ccZzE1K8.s 			page 7


 317:C:/Users/lenovo/Desktop/liteos/Project2/BearPi_LiteOS/components/net/at_device/wifi_esp8266\esp8266.c **** 
 318:C:/Users/lenovo/Desktop/liteos/Project2/BearPi_LiteOS/components/net/at_device/wifi_esp8266\esp8266.c **** int8_t esp8266_get_localmac(int8_t *mac) /*get local mac*/
 319:C:/Users/lenovo/Desktop/liteos/Project2/BearPi_LiteOS/components/net/at_device/wifi_esp8266\esp8266.c **** {
 320:C:/Users/lenovo/Desktop/liteos/Project2/BearPi_LiteOS/components/net/at_device/wifi_esp8266\esp8266.c ****     char resp[512] = {0};
 321:C:/Users/lenovo/Desktop/liteos/Project2/BearPi_LiteOS/components/net/at_device/wifi_esp8266\esp8266.c ****     char *p1, *p2;
 322:C:/Users/lenovo/Desktop/liteos/Project2/BearPi_LiteOS/components/net/at_device/wifi_esp8266\esp8266.c ****     int len = 512;
 323:C:/Users/lenovo/Desktop/liteos/Project2/BearPi_LiteOS/components/net/at_device/wifi_esp8266\esp8266.c **** 
 324:C:/Users/lenovo/Desktop/liteos/Project2/BearPi_LiteOS/components/net/at_device/wifi_esp8266\esp8266.c ****     esp8266_cmd((int8_t *)AT_CMD_CHECK_MAC, strlen((char *)AT_CMD_CHECK_MAC), "OK", resp, &len);
 325:C:/Users/lenovo/Desktop/liteos/Project2/BearPi_LiteOS/components/net/at_device/wifi_esp8266\esp8266.c ****     AT_LOG("resp:%s", resp);
 326:C:/Users/lenovo/Desktop/liteos/Project2/BearPi_LiteOS/components/net/at_device/wifi_esp8266\esp8266.c **** 
 327:C:/Users/lenovo/Desktop/liteos/Project2/BearPi_LiteOS/components/net/at_device/wifi_esp8266\esp8266.c ****     p1 = strstr(resp, ":");
 328:C:/Users/lenovo/Desktop/liteos/Project2/BearPi_LiteOS/components/net/at_device/wifi_esp8266\esp8266.c ****     if (mac && p1)
 329:C:/Users/lenovo/Desktop/liteos/Project2/BearPi_LiteOS/components/net/at_device/wifi_esp8266\esp8266.c ****     {
 330:C:/Users/lenovo/Desktop/liteos/Project2/BearPi_LiteOS/components/net/at_device/wifi_esp8266\esp8266.c ****         p1 = strstr(p1, "\"");
 331:C:/Users/lenovo/Desktop/liteos/Project2/BearPi_LiteOS/components/net/at_device/wifi_esp8266\esp8266.c ****         p2 = strstr(p1 + 1, "\"");
 332:C:/Users/lenovo/Desktop/liteos/Project2/BearPi_LiteOS/components/net/at_device/wifi_esp8266\esp8266.c ****         memcpy(mac, p1 + 1, p2 - p1 - 1);
 333:C:/Users/lenovo/Desktop/liteos/Project2/BearPi_LiteOS/components/net/at_device/wifi_esp8266\esp8266.c ****     }
 334:C:/Users/lenovo/Desktop/liteos/Project2/BearPi_LiteOS/components/net/at_device/wifi_esp8266\esp8266.c **** 
 335:C:/Users/lenovo/Desktop/liteos/Project2/BearPi_LiteOS/components/net/at_device/wifi_esp8266\esp8266.c **** 
 336:C:/Users/lenovo/Desktop/liteos/Project2/BearPi_LiteOS/components/net/at_device/wifi_esp8266\esp8266.c ****     //    printf("get ip :%s", resp);
 337:C:/Users/lenovo/Desktop/liteos/Project2/BearPi_LiteOS/components/net/at_device/wifi_esp8266\esp8266.c ****     return AT_OK;
 338:C:/Users/lenovo/Desktop/liteos/Project2/BearPi_LiteOS/components/net/at_device/wifi_esp8266\esp8266.c **** }
 339:C:/Users/lenovo/Desktop/liteos/Project2/BearPi_LiteOS/components/net/at_device/wifi_esp8266\esp8266.c **** 
 340:C:/Users/lenovo/Desktop/liteos/Project2/BearPi_LiteOS/components/net/at_device/wifi_esp8266\esp8266.c **** int32_t esp8266_bind(const int8_t *host, const int8_t *port, int32_t proto)
 341:C:/Users/lenovo/Desktop/liteos/Project2/BearPi_LiteOS/components/net/at_device/wifi_esp8266\esp8266.c **** {
 342:C:/Users/lenovo/Desktop/liteos/Project2/BearPi_LiteOS/components/net/at_device/wifi_esp8266\esp8266.c **** 	int ret = AT_FAILED;
 343:C:/Users/lenovo/Desktop/liteos/Project2/BearPi_LiteOS/components/net/at_device/wifi_esp8266\esp8266.c **** 	int port_i = 0;
 344:C:/Users/lenovo/Desktop/liteos/Project2/BearPi_LiteOS/components/net/at_device/wifi_esp8266\esp8266.c **** 	char cmd[64] = {0};
 345:C:/Users/lenovo/Desktop/liteos/Project2/BearPi_LiteOS/components/net/at_device/wifi_esp8266\esp8266.c **** 
 346:C:/Users/lenovo/Desktop/liteos/Project2/BearPi_LiteOS/components/net/at_device/wifi_esp8266\esp8266.c **** 	(void)sscanf((char *)port, "%d", &port_i);
 347:C:/Users/lenovo/Desktop/liteos/Project2/BearPi_LiteOS/components/net/at_device/wifi_esp8266\esp8266.c **** 	AT_LOG("get port = %d\r\n", port_i);
 348:C:/Users/lenovo/Desktop/liteos/Project2/BearPi_LiteOS/components/net/at_device/wifi_esp8266\esp8266.c **** 
 349:C:/Users/lenovo/Desktop/liteos/Project2/BearPi_LiteOS/components/net/at_device/wifi_esp8266\esp8266.c **** 	if (at.mux_mode != AT_MUXMODE_MULTI)
 350:C:/Users/lenovo/Desktop/liteos/Project2/BearPi_LiteOS/components/net/at_device/wifi_esp8266\esp8266.c **** 	{
 351:C:/Users/lenovo/Desktop/liteos/Project2/BearPi_LiteOS/components/net/at_device/wifi_esp8266\esp8266.c **** 		AT_LOG("Only support in multi mode!\r\n");
 352:C:/Users/lenovo/Desktop/liteos/Project2/BearPi_LiteOS/components/net/at_device/wifi_esp8266\esp8266.c **** 		return -1;
 353:C:/Users/lenovo/Desktop/liteos/Project2/BearPi_LiteOS/components/net/at_device/wifi_esp8266\esp8266.c **** 	}
 354:C:/Users/lenovo/Desktop/liteos/Project2/BearPi_LiteOS/components/net/at_device/wifi_esp8266\esp8266.c **** 
 355:C:/Users/lenovo/Desktop/liteos/Project2/BearPi_LiteOS/components/net/at_device/wifi_esp8266\esp8266.c **** 	int id = at.get_id();
 356:C:/Users/lenovo/Desktop/liteos/Project2/BearPi_LiteOS/components/net/at_device/wifi_esp8266\esp8266.c ****     ret = LOS_QueueCreate("dataQueue", 16, &at.linkid[id].qid, 0, sizeof(QUEUE_BUFF));
 357:C:/Users/lenovo/Desktop/liteos/Project2/BearPi_LiteOS/components/net/at_device/wifi_esp8266\esp8266.c ****     if (ret != LOS_OK)
 358:C:/Users/lenovo/Desktop/liteos/Project2/BearPi_LiteOS/components/net/at_device/wifi_esp8266\esp8266.c ****     {
 359:C:/Users/lenovo/Desktop/liteos/Project2/BearPi_LiteOS/components/net/at_device/wifi_esp8266\esp8266.c ****         AT_LOG("init dataQueue failed!");
 360:C:/Users/lenovo/Desktop/liteos/Project2/BearPi_LiteOS/components/net/at_device/wifi_esp8266\esp8266.c ****         at.linkid[id].usable = AT_LINK_UNUSE;
 361:C:/Users/lenovo/Desktop/liteos/Project2/BearPi_LiteOS/components/net/at_device/wifi_esp8266\esp8266.c ****         return AT_FAILED;
 362:C:/Users/lenovo/Desktop/liteos/Project2/BearPi_LiteOS/components/net/at_device/wifi_esp8266\esp8266.c ****     }
 363:C:/Users/lenovo/Desktop/liteos/Project2/BearPi_LiteOS/components/net/at_device/wifi_esp8266\esp8266.c **** 
 364:C:/Users/lenovo/Desktop/liteos/Project2/BearPi_LiteOS/components/net/at_device/wifi_esp8266\esp8266.c **** 	snprintf(cmd, 64, "%s=%d,\"%s\",\"0.0.0.0\",0,%d,0", AT_CMD_CONN, id, proto == ATINY_PROTO_UDP ? "
 365:C:/Users/lenovo/Desktop/liteos/Project2/BearPi_LiteOS/components/net/at_device/wifi_esp8266\esp8266.c **** 
 366:C:/Users/lenovo/Desktop/liteos/Project2/BearPi_LiteOS/components/net/at_device/wifi_esp8266\esp8266.c **** 	esp8266_cmd((int8_t *)cmd, strlen(cmd), "OK\r\n", NULL, NULL);
 367:C:/Users/lenovo/Desktop/liteos/Project2/BearPi_LiteOS/components/net/at_device/wifi_esp8266\esp8266.c **** 	return id;
 368:C:/Users/lenovo/Desktop/liteos/Project2/BearPi_LiteOS/components/net/at_device/wifi_esp8266\esp8266.c **** }
 369:C:/Users/lenovo/Desktop/liteos/Project2/BearPi_LiteOS/components/net/at_device/wifi_esp8266\esp8266.c **** int32_t esp8266_recv_cb(int32_t id)
 370:C:/Users/lenovo/Desktop/liteos/Project2/BearPi_LiteOS/components/net/at_device/wifi_esp8266\esp8266.c **** {
  28              		.loc 1 370 0
  29              		.cfi_startproc
  30              		@ args = 0, pretend = 0, frame = 0
ARM GAS  c:\Users\lenovo\AppData\Local\Temp\ccZzE1K8.s 			page 8


  31              		@ frame_needed = 0, uses_anonymous_args = 0
  32              		@ link register save eliminated.
  33              	.LVL0:
 371:C:/Users/lenovo/Desktop/liteos/Project2/BearPi_LiteOS/components/net/at_device/wifi_esp8266\esp8266.c ****     return AT_FAILED;
 372:C:/Users/lenovo/Desktop/liteos/Project2/BearPi_LiteOS/components/net/at_device/wifi_esp8266\esp8266.c **** }
  34              		.loc 1 372 0
  35 0000 4FF0FF30 		mov	r0, #-1
  36              	.LVL1:
  37 0004 7047     		bx	lr
  38              		.cfi_endproc
  39              	.LFE148:
  41              		.section	.text.esp8266_send,"ax",%progbits
  42              		.align	1
  43              		.global	esp8266_send
  44              		.syntax unified
  45              		.thumb
  46              		.thumb_func
  47              		.fpu fpv4-sp-d16
  49              	esp8266_send:
  50              	.LFB140:
 122:C:/Users/lenovo/Desktop/liteos/Project2/BearPi_LiteOS/components/net/at_device/wifi_esp8266\esp8266.c ****     int32_t ret = AT_FAILED;
  51              		.loc 1 122 0
  52              		.cfi_startproc
  53              		@ args = 0, pretend = 0, frame = 64
  54              		@ frame_needed = 0, uses_anonymous_args = 0
  55              	.LVL2:
  56 0000 70B5     		push	{r4, r5, r6, lr}
  57              	.LCFI0:
  58              		.cfi_def_cfa_offset 16
  59              		.cfi_offset 4, -16
  60              		.cfi_offset 5, -12
  61              		.cfi_offset 6, -8
  62              		.cfi_offset 14, -4
  63 0002 94B0     		sub	sp, sp, #80
  64              	.LCFI1:
  65              		.cfi_def_cfa_offset 96
  66 0004 0546     		mov	r5, r0
  67 0006 0E46     		mov	r6, r1
  68 0008 1446     		mov	r4, r2
  69              	.LVL3:
 124:C:/Users/lenovo/Desktop/liteos/Project2/BearPi_LiteOS/components/net/at_device/wifi_esp8266\esp8266.c ****     if (AT_MUXMODE_SINGLE == at.mux_mode)
  70              		.loc 1 124 0
  71 000a 4022     		movs	r2, #64
  72              	.LVL4:
  73 000c 0021     		movs	r1, #0
  74              	.LVL5:
  75 000e 04A8     		add	r0, sp, #16
  76              	.LVL6:
  77 0010 FFF7FEFF 		bl	memset
  78              	.LVL7:
 125:C:/Users/lenovo/Desktop/liteos/Project2/BearPi_LiteOS/components/net/at_device/wifi_esp8266\esp8266.c ****     {
  79              		.loc 1 125 0
  80 0014 154B     		ldr	r3, .L7
  81 0016 1B6B     		ldr	r3, [r3, #48]
  82 0018 CBB1     		cbz	r3, .L6
 131:C:/Users/lenovo/Desktop/liteos/Project2/BearPi_LiteOS/components/net/at_device/wifi_esp8266\esp8266.c ****     }
  83              		.loc 1 131 0
ARM GAS  c:\Users\lenovo\AppData\Local\Temp\ccZzE1K8.s 			page 9


  84 001a 144B     		ldr	r3, .L7
  85 001c 5B6B     		ldr	r3, [r3, #52]
  86 001e 03EB4513 		add	r3, r3, r5, lsl #5
  87 0022 03F10C02 		add	r2, r3, #12
  88 0026 DB69     		ldr	r3, [r3, #28]
  89 0028 0393     		str	r3, [sp, #12]
  90 002a 0292     		str	r2, [sp, #8]
  91 002c 0194     		str	r4, [sp, #4]
  92 002e 0095     		str	r5, [sp]
  93 0030 0F4B     		ldr	r3, .L7+4
  94 0032 104A     		ldr	r2, .L7+8
  95 0034 4021     		movs	r1, #64
  96 0036 04A8     		add	r0, sp, #16
  97 0038 FFF7FEFF 		bl	snprintf
  98              	.LVL8:
  99              	.L4:
 135:C:/Users/lenovo/Desktop/liteos/Project2/BearPi_LiteOS/components/net/at_device/wifi_esp8266\esp8266.c **** 
 100              		.loc 1 135 0
 101 003c 0B4B     		ldr	r3, .L7
 102 003e DD6C     		ldr	r5, [r3, #76]
 103              	.LVL9:
 104 0040 2346     		mov	r3, r4
 105 0042 3246     		mov	r2, r6
 106 0044 0C49     		ldr	r1, .L7+12
 107 0046 04A8     		add	r0, sp, #16
 108 0048 A847     		blx	r5
 109              	.LVL10:
 138:C:/Users/lenovo/Desktop/liteos/Project2/BearPi_LiteOS/components/net/at_device/wifi_esp8266\esp8266.c **** 
 110              		.loc 1 138 0
 111 004a 14B0     		add	sp, sp, #80
 112              	.LCFI2:
 113              		.cfi_remember_state
 114              		.cfi_def_cfa_offset 16
 115              		@ sp needed
 116 004c 70BD     		pop	{r4, r5, r6, pc}
 117              	.LVL11:
 118              	.L6:
 119              	.LCFI3:
 120              		.cfi_restore_state
 127:C:/Users/lenovo/Desktop/liteos/Project2/BearPi_LiteOS/components/net/at_device/wifi_esp8266\esp8266.c ****     }
 121              		.loc 1 127 0
 122 004e 074B     		ldr	r3, .L7
 123 0050 5B6B     		ldr	r3, [r3, #52]
 124 0052 03F10C02 		add	r2, r3, #12
 125 0056 DB69     		ldr	r3, [r3, #28]
 126 0058 0293     		str	r3, [sp, #8]
 127 005a 0192     		str	r2, [sp, #4]
 128 005c 0094     		str	r4, [sp]
 129 005e 044B     		ldr	r3, .L7+4
 130 0060 064A     		ldr	r2, .L7+16
 131 0062 4021     		movs	r1, #64
 132 0064 04A8     		add	r0, sp, #16
 133 0066 FFF7FEFF 		bl	snprintf
 134              	.LVL12:
 135 006a E7E7     		b	.L4
 136              	.L8:
 137              		.align	2
ARM GAS  c:\Users\lenovo\AppData\Local\Temp\ccZzE1K8.s 			page 10


 138              	.L7:
 139 006c 00000000 		.word	at
 140 0070 00000000 		.word	.LC3
 141 0074 1C000000 		.word	.LC5
 142 0078 30000000 		.word	.LC6
 143 007c 0C000000 		.word	.LC4
 144              		.cfi_endproc
 145              	.LFE140:
 147              		.section	.text.esp8266_recv_timeout,"ax",%progbits
 148              		.align	1
 149              		.global	esp8266_recv_timeout
 150              		.syntax unified
 151              		.thumb
 152              		.thumb_func
 153              		.fpu fpv4-sp-d16
 155              	esp8266_recv_timeout:
 156              	.LFB141:
 141:C:/Users/lenovo/Desktop/liteos/Project2/BearPi_LiteOS/components/net/at_device/wifi_esp8266\esp8266.c ****     uint32_t qlen = sizeof(QUEUE_BUFF);
 157              		.loc 1 141 0
 158              		.cfi_startproc
 159              		@ args = 8, pretend = 0, frame = 56
 160              		@ frame_needed = 0, uses_anonymous_args = 0
 161              	.LVL13:
 162 0000 70B5     		push	{r4, r5, r6, lr}
 163              	.LCFI4:
 164              		.cfi_def_cfa_offset 16
 165              		.cfi_offset 4, -16
 166              		.cfi_offset 5, -12
 167              		.cfi_offset 6, -8
 168              		.cfi_offset 14, -4
 169 0002 8EB0     		sub	sp, sp, #56
 170              	.LCFI5:
 171              		.cfi_def_cfa_offset 72
 172 0004 0446     		mov	r4, r0
 173 0006 0D46     		mov	r5, r1
 174 0008 1646     		mov	r6, r2
 142:C:/Users/lenovo/Desktop/liteos/Project2/BearPi_LiteOS/components/net/at_device/wifi_esp8266\esp8266.c ****     uint32_t rxlen = 0;
 175              		.loc 1 142 0
 176 000a 3422     		movs	r2, #52
 177              	.LVL14:
 178 000c 0D92     		str	r2, [sp, #52]
 179              	.LVL15:
 145:C:/Users/lenovo/Desktop/liteos/Project2/BearPi_LiteOS/components/net/at_device/wifi_esp8266\esp8266.c ****     int ret = LOS_QueueReadCopy(at.linkid[id].qid, (void *)&qbuf, (UINT32 *)&qlen, timeout);
 180              		.loc 1 145 0
 181 000e 0021     		movs	r1, #0
 182              	.LVL16:
 183 0010 6846     		mov	r0, sp
 184              	.LVL17:
 185 0012 FFF7FEFF 		bl	memset
 186              	.LVL18:
 146:C:/Users/lenovo/Desktop/liteos/Project2/BearPi_LiteOS/components/net/at_device/wifi_esp8266\esp8266.c **** //    AT_LOG("ret = %x, len = %ld, id = %ld, timeout = %d", ret, qbuf.len, id, timeout);
 187              		.loc 1 146 0
 188 0016 0F4B     		ldr	r3, .L15
 189 0018 586B     		ldr	r0, [r3, #52]
 190 001a 00EB4410 		add	r0, r0, r4, lsl #5
 191 001e 139B     		ldr	r3, [sp, #76]
 192 0020 0DAA     		add	r2, sp, #52
ARM GAS  c:\Users\lenovo\AppData\Local\Temp\ccZzE1K8.s 			page 11


 193 0022 6946     		mov	r1, sp
 194 0024 4068     		ldr	r0, [r0, #4]
 195 0026 FFF7FEFF 		bl	LOS_QueueReadCopy
 196              	.LVL19:
 148:C:/Users/lenovo/Desktop/liteos/Project2/BearPi_LiteOS/components/net/at_device/wifi_esp8266\esp8266.c ****     {
 197              		.loc 1 148 0
 198 002a 80B9     		cbnz	r0, .L12
 153:C:/Users/lenovo/Desktop/liteos/Project2/BearPi_LiteOS/components/net/at_device/wifi_esp8266\esp8266.c ****     {
 199              		.loc 1 153 0
 200 002c 009C     		ldr	r4, [sp]
 201              	.LVL20:
 202 002e 14B9     		cbnz	r4, .L14
 203              	.LVL21:
 204              	.L11:
 159:C:/Users/lenovo/Desktop/liteos/Project2/BearPi_LiteOS/components/net/at_device/wifi_esp8266\esp8266.c **** }
 205              		.loc 1 159 0
 206 0030 2046     		mov	r0, r4
 207              	.LVL22:
 208              	.L9:
 160:C:/Users/lenovo/Desktop/liteos/Project2/BearPi_LiteOS/components/net/at_device/wifi_esp8266\esp8266.c **** 
 209              		.loc 1 160 0
 210 0032 0EB0     		add	sp, sp, #56
 211              	.LCFI6:
 212              		.cfi_remember_state
 213              		.cfi_def_cfa_offset 16
 214              		@ sp needed
 215 0034 70BD     		pop	{r4, r5, r6, pc}
 216              	.LVL23:
 217              	.L14:
 218              	.LCFI7:
 219              		.cfi_restore_state
 155:C:/Users/lenovo/Desktop/liteos/Project2/BearPi_LiteOS/components/net/at_device/wifi_esp8266\esp8266.c ****         memcpy(buf, qbuf.addr, rxlen);
 220              		.loc 1 155 0
 221 0036 B442     		cmp	r4, r6
 222 0038 28BF     		it	cs
 223 003a 3446     		movcs	r4, r6
 224              	.LVL24:
 156:C:/Users/lenovo/Desktop/liteos/Project2/BearPi_LiteOS/components/net/at_device/wifi_esp8266\esp8266.c ****         at_free(qbuf.addr);
 225              		.loc 1 156 0
 226 003c 2246     		mov	r2, r4
 227 003e 0199     		ldr	r1, [sp, #4]
 228 0040 2846     		mov	r0, r5
 229              	.LVL25:
 230 0042 FFF7FEFF 		bl	memcpy
 231              	.LVL26:
 157:C:/Users/lenovo/Desktop/liteos/Project2/BearPi_LiteOS/components/net/at_device/wifi_esp8266\esp8266.c ****     }
 232              		.loc 1 157 0
 233 0046 0198     		ldr	r0, [sp, #4]
 234 0048 FFF7FEFF 		bl	at_free
 235              	.LVL27:
 236 004c F0E7     		b	.L11
 237              	.LVL28:
 238              	.L12:
 150:C:/Users/lenovo/Desktop/liteos/Project2/BearPi_LiteOS/components/net/at_device/wifi_esp8266\esp8266.c ****     }
 239              		.loc 1 150 0
 240 004e 4FF0FF30 		mov	r0, #-1
 241              	.LVL29:
ARM GAS  c:\Users\lenovo\AppData\Local\Temp\ccZzE1K8.s 			page 12


 242 0052 EEE7     		b	.L9
 243              	.L16:
 244              		.align	2
 245              	.L15:
 246 0054 00000000 		.word	at
 247              		.cfi_endproc
 248              	.LFE141:
 250              		.section	.text.esp8266_recv,"ax",%progbits
 251              		.align	1
 252              		.global	esp8266_recv
 253              		.syntax unified
 254              		.thumb
 255              		.thumb_func
 256              		.fpu fpv4-sp-d16
 258              	esp8266_recv:
 259              	.LFB142:
 163:C:/Users/lenovo/Desktop/liteos/Project2/BearPi_LiteOS/components/net/at_device/wifi_esp8266\esp8266.c ****     return esp8266_recv_timeout(id, buf, len, NULL, NULL, LOS_WAIT_FOREVER);
 260              		.loc 1 163 0
 261              		.cfi_startproc
 262              		@ args = 0, pretend = 0, frame = 0
 263              		@ frame_needed = 0, uses_anonymous_args = 0
 264              	.LVL30:
 265 0000 00B5     		push	{lr}
 266              	.LCFI8:
 267              		.cfi_def_cfa_offset 4
 268              		.cfi_offset 14, -4
 269 0002 83B0     		sub	sp, sp, #12
 270              	.LCFI9:
 271              		.cfi_def_cfa_offset 16
 164:C:/Users/lenovo/Desktop/liteos/Project2/BearPi_LiteOS/components/net/at_device/wifi_esp8266\esp8266.c **** }
 272              		.loc 1 164 0
 273 0004 4FF0FF33 		mov	r3, #-1
 274 0008 0193     		str	r3, [sp, #4]
 275 000a 0023     		movs	r3, #0
 276 000c 0093     		str	r3, [sp]
 277 000e FFF7FEFF 		bl	esp8266_recv_timeout
 278              	.LVL31:
 165:C:/Users/lenovo/Desktop/liteos/Project2/BearPi_LiteOS/components/net/at_device/wifi_esp8266\esp8266.c **** 
 279              		.loc 1 165 0
 280 0012 03B0     		add	sp, sp, #12
 281              	.LCFI10:
 282              		.cfi_def_cfa_offset 4
 283              		@ sp needed
 284 0014 5DF804FB 		ldr	pc, [sp], #4
 285              		.cfi_endproc
 286              	.LFE142:
 288              		.section	.text.esp8266_cmd_match,"ax",%progbits
 289              		.align	1
 290              		.global	esp8266_cmd_match
 291              		.syntax unified
 292              		.thumb
 293              		.thumb_func
 294              		.fpu fpv4-sp-d16
 296              	esp8266_cmd_match:
 297              	.LFB151:
 373:C:/Users/lenovo/Desktop/liteos/Project2/BearPi_LiteOS/components/net/at_device/wifi_esp8266\esp8266.c **** 
 374:C:/Users/lenovo/Desktop/liteos/Project2/BearPi_LiteOS/components/net/at_device/wifi_esp8266\esp8266.c **** int32_t esp8266_deinit(void)
ARM GAS  c:\Users\lenovo\AppData\Local\Temp\ccZzE1K8.s 			page 13


 375:C:/Users/lenovo/Desktop/liteos/Project2/BearPi_LiteOS/components/net/at_device/wifi_esp8266\esp8266.c **** {
 376:C:/Users/lenovo/Desktop/liteos/Project2/BearPi_LiteOS/components/net/at_device/wifi_esp8266\esp8266.c ****     int id = 0;
 377:C:/Users/lenovo/Desktop/liteos/Project2/BearPi_LiteOS/components/net/at_device/wifi_esp8266\esp8266.c **** 
 378:C:/Users/lenovo/Desktop/liteos/Project2/BearPi_LiteOS/components/net/at_device/wifi_esp8266\esp8266.c ****     if(NULL != at.linkid)
 379:C:/Users/lenovo/Desktop/liteos/Project2/BearPi_LiteOS/components/net/at_device/wifi_esp8266\esp8266.c ****     {
 380:C:/Users/lenovo/Desktop/liteos/Project2/BearPi_LiteOS/components/net/at_device/wifi_esp8266\esp8266.c ****         for(id = 0; id < AT_MAX_LINK_NUM; id++)
 381:C:/Users/lenovo/Desktop/liteos/Project2/BearPi_LiteOS/components/net/at_device/wifi_esp8266\esp8266.c ****         {
 382:C:/Users/lenovo/Desktop/liteos/Project2/BearPi_LiteOS/components/net/at_device/wifi_esp8266\esp8266.c ****             if(AT_LINK_INUSE == at.linkid[id].usable)
 383:C:/Users/lenovo/Desktop/liteos/Project2/BearPi_LiteOS/components/net/at_device/wifi_esp8266\esp8266.c ****             {
 384:C:/Users/lenovo/Desktop/liteos/Project2/BearPi_LiteOS/components/net/at_device/wifi_esp8266\esp8266.c ****                 if(AT_OK != esp8266_close(id))
 385:C:/Users/lenovo/Desktop/liteos/Project2/BearPi_LiteOS/components/net/at_device/wifi_esp8266\esp8266.c ****                 {
 386:C:/Users/lenovo/Desktop/liteos/Project2/BearPi_LiteOS/components/net/at_device/wifi_esp8266\esp8266.c ****                     AT_LOG("esp8266_close(%d) failed", id);
 387:C:/Users/lenovo/Desktop/liteos/Project2/BearPi_LiteOS/components/net/at_device/wifi_esp8266\esp8266.c ****                 }
 388:C:/Users/lenovo/Desktop/liteos/Project2/BearPi_LiteOS/components/net/at_device/wifi_esp8266\esp8266.c ****             }
 389:C:/Users/lenovo/Desktop/liteos/Project2/BearPi_LiteOS/components/net/at_device/wifi_esp8266\esp8266.c ****         }
 390:C:/Users/lenovo/Desktop/liteos/Project2/BearPi_LiteOS/components/net/at_device/wifi_esp8266\esp8266.c ****     }
 391:C:/Users/lenovo/Desktop/liteos/Project2/BearPi_LiteOS/components/net/at_device/wifi_esp8266\esp8266.c **** 
 392:C:/Users/lenovo/Desktop/liteos/Project2/BearPi_LiteOS/components/net/at_device/wifi_esp8266\esp8266.c ****     at.deinit();
 393:C:/Users/lenovo/Desktop/liteos/Project2/BearPi_LiteOS/components/net/at_device/wifi_esp8266\esp8266.c ****     return AT_OK;
 394:C:/Users/lenovo/Desktop/liteos/Project2/BearPi_LiteOS/components/net/at_device/wifi_esp8266\esp8266.c **** }
 395:C:/Users/lenovo/Desktop/liteos/Project2/BearPi_LiteOS/components/net/at_device/wifi_esp8266\esp8266.c **** 
 396:C:/Users/lenovo/Desktop/liteos/Project2/BearPi_LiteOS/components/net/at_device/wifi_esp8266\esp8266.c **** int32_t esp8266_show_dinfo(int32_t s)
 397:C:/Users/lenovo/Desktop/liteos/Project2/BearPi_LiteOS/components/net/at_device/wifi_esp8266\esp8266.c **** {
 398:C:/Users/lenovo/Desktop/liteos/Project2/BearPi_LiteOS/components/net/at_device/wifi_esp8266\esp8266.c ****     char cmd[64] = {0};
 399:C:/Users/lenovo/Desktop/liteos/Project2/BearPi_LiteOS/components/net/at_device/wifi_esp8266\esp8266.c ****     snprintf(cmd, 64, "%s=%ld", AT_CMD_SHOW_DINFO, s);
 400:C:/Users/lenovo/Desktop/liteos/Project2/BearPi_LiteOS/components/net/at_device/wifi_esp8266\esp8266.c ****     return esp8266_cmd((int8_t *)cmd, strlen(cmd), "OK\r\n", NULL, NULL);
 401:C:/Users/lenovo/Desktop/liteos/Project2/BearPi_LiteOS/components/net/at_device/wifi_esp8266\esp8266.c **** }
 402:C:/Users/lenovo/Desktop/liteos/Project2/BearPi_LiteOS/components/net/at_device/wifi_esp8266\esp8266.c **** 
 403:C:/Users/lenovo/Desktop/liteos/Project2/BearPi_LiteOS/components/net/at_device/wifi_esp8266\esp8266.c **** int32_t esp8266_cmd_match(const char *buf, char* featurestr,int len)
 404:C:/Users/lenovo/Desktop/liteos/Project2/BearPi_LiteOS/components/net/at_device/wifi_esp8266\esp8266.c **** {
 298              		.loc 1 404 0
 299              		.cfi_startproc
 300              		@ args = 0, pretend = 0, frame = 0
 301              		@ frame_needed = 0, uses_anonymous_args = 0
 302              	.LVL32:
 303 0000 08B5     		push	{r3, lr}
 304              	.LCFI11:
 305              		.cfi_def_cfa_offset 8
 306              		.cfi_offset 3, -8
 307              		.cfi_offset 14, -4
 405:C:/Users/lenovo/Desktop/liteos/Project2/BearPi_LiteOS/components/net/at_device/wifi_esp8266\esp8266.c ****     return memcmp(buf,featurestr,len);
 308              		.loc 1 405 0
 309 0002 FFF7FEFF 		bl	memcmp
 310              	.LVL33:
 406:C:/Users/lenovo/Desktop/liteos/Project2/BearPi_LiteOS/components/net/at_device/wifi_esp8266\esp8266.c **** }
 311              		.loc 1 406 0
 312 0006 08BD     		pop	{r3, pc}
 313              		.cfi_endproc
 314              	.LFE151:
 316              		.section	.text.esp8266_data_handler,"ax",%progbits
 317              		.align	1
 318              		.global	esp8266_data_handler
 319              		.syntax unified
 320              		.thumb
 321              		.thumb_func
 322              		.fpu fpv4-sp-d16
 324              	esp8266_data_handler:
ARM GAS  c:\Users\lenovo\AppData\Local\Temp\ccZzE1K8.s 			page 14


 325              	.LFB144:
 198:C:/Users/lenovo/Desktop/liteos/Project2/BearPi_LiteOS/components/net/at_device/wifi_esp8266\esp8266.c ****     if (NULL == buf || len <= 0)
 326              		.loc 1 198 0
 327              		.cfi_startproc
 328              		@ args = 0, pretend = 0, frame = 56
 329              		@ frame_needed = 0, uses_anonymous_args = 0
 330              	.LVL34:
 331 0000 2DE9F04F 		push	{r4, r5, r6, r7, r8, r9, r10, fp, lr}
 332              	.LCFI12:
 333              		.cfi_def_cfa_offset 36
 334              		.cfi_offset 4, -36
 335              		.cfi_offset 5, -32
 336              		.cfi_offset 6, -28
 337              		.cfi_offset 7, -24
 338              		.cfi_offset 8, -20
 339              		.cfi_offset 9, -16
 340              		.cfi_offset 10, -12
 341              		.cfi_offset 11, -8
 342              		.cfi_offset 14, -4
 343 0004 91B0     		sub	sp, sp, #68
 344              	.LCFI13:
 345              		.cfi_def_cfa_offset 104
 199:C:/Users/lenovo/Desktop/liteos/Project2/BearPi_LiteOS/components/net/at_device/wifi_esp8266\esp8266.c ****     {
 346              		.loc 1 199 0
 347 0006 71B1     		cbz	r1, .L22
 348 0008 1746     		mov	r7, r2
 349 000a 8846     		mov	r8, r1
 199:C:/Users/lenovo/Desktop/liteos/Project2/BearPi_LiteOS/components/net/at_device/wifi_esp8266\esp8266.c ****     {
 350              		.loc 1 199 0 is_stmt 0 discriminator 1
 351 000c 002A     		cmp	r2, #0
 352 000e 0ADD     		ble	.L22
 204:C:/Users/lenovo/Desktop/liteos/Project2/BearPi_LiteOS/components/net/at_device/wifi_esp8266\esp8266.c **** 
 353              		.loc 1 204 0 is_stmt 1
 354 0010 FFF7FEFF 		bl	at_get_time
 355              	.LVL35:
 356 0014 CC23     		movs	r3, #204
 357 0016 564A     		ldr	r2, .L44
 358 0018 0146     		mov	r1, r0
 359 001a 5648     		ldr	r0, .L44+4
 360 001c FFF7FEFF 		bl	printf
 361              	.LVL36:
 213:C:/Users/lenovo/Desktop/liteos/Project2/BearPi_LiteOS/components/net/at_device/wifi_esp8266\esp8266.c **** 
 362              		.loc 1 213 0
 363 0020 C146     		mov	r9, r8
 208:C:/Users/lenovo/Desktop/liteos/Project2/BearPi_LiteOS/components/net/at_device/wifi_esp8266\esp8266.c ****     int32_t remote_port = 0;
 364              		.loc 1 208 0
 365 0022 0025     		movs	r5, #0
 366 0024 70E0     		b	.L25
 367              	.LVL37:
 368              	.L22:
 201:C:/Users/lenovo/Desktop/liteos/Project2/BearPi_LiteOS/components/net/at_device/wifi_esp8266\esp8266.c ****         return AT_FAILED;
 369              		.loc 1 201 0
 370 0026 FFF7FEFF 		bl	at_get_time
 371              	.LVL38:
 372 002a C923     		movs	r3, #201
 373 002c 504A     		ldr	r2, .L44
 374 002e 0146     		mov	r1, r0
ARM GAS  c:\Users\lenovo\AppData\Local\Temp\ccZzE1K8.s 			page 15


 375 0030 5148     		ldr	r0, .L44+8
 376 0032 FFF7FEFF 		bl	printf
 377              	.LVL39:
 202:C:/Users/lenovo/Desktop/liteos/Project2/BearPi_LiteOS/components/net/at_device/wifi_esp8266\esp8266.c ****     }
 378              		.loc 1 202 0
 379 0036 4FF0FF36 		mov	r6, #-1
 380 003a 94E0     		b	.L21
 381              	.LVL40:
 382              	.L42:
 221:C:/Users/lenovo/Desktop/liteos/Project2/BearPi_LiteOS/components/net/at_device/wifi_esp8266\esp8266.c ****             goto END;
 383              		.loc 1 221 0
 384 003c FFF7FEFF 		bl	at_get_time
 385              	.LVL41:
 386 0040 DD23     		movs	r3, #221
 387 0042 4B4A     		ldr	r2, .L44
 388 0044 0146     		mov	r1, r0
 389 0046 4D48     		ldr	r0, .L44+12
 390 0048 FFF7FEFF 		bl	printf
 391              	.LVL42:
 279:C:/Users/lenovo/Desktop/liteos/Project2/BearPi_LiteOS/components/net/at_device/wifi_esp8266\esp8266.c **** }
 392              		.loc 1 279 0
 393 004c 0026     		movs	r6, #0
 222:C:/Users/lenovo/Desktop/liteos/Project2/BearPi_LiteOS/components/net/at_device/wifi_esp8266\esp8266.c ****         }
 394              		.loc 1 222 0
 395 004e 8AE0     		b	.L21
 396              	.LVL43:
 397              	.L43:
 228:C:/Users/lenovo/Desktop/liteos/Project2/BearPi_LiteOS/components/net/at_device/wifi_esp8266\esp8266.c ****             {
 398              		.loc 1 228 0
 399 0050 0131     		adds	r1, r1, #1
 400              	.LVL44:
 227:C:/Users/lenovo/Desktop/liteos/Project2/BearPi_LiteOS/components/net/at_device/wifi_esp8266\esp8266.c ****             for (p2++; *p2 <= '9' && *p2 >= '0'; p2++)
 401              		.loc 1 227 0
 402 0052 0025     		movs	r5, #0
 228:C:/Users/lenovo/Desktop/liteos/Project2/BearPi_LiteOS/components/net/at_device/wifi_esp8266\esp8266.c ****             {
 403              		.loc 1 228 0
 404 0054 05E0     		b	.L28
 405              	.LVL45:
 406              	.L29:
 230:C:/Users/lenovo/Desktop/liteos/Project2/BearPi_LiteOS/components/net/at_device/wifi_esp8266\esp8266.c ****             }
 407              		.loc 1 230 0 discriminator 3
 408 0056 05EB8505 		add	r5, r5, r5, lsl #2
 409              	.LVL46:
 410 005a 6A00     		lsls	r2, r5, #1
 411 005c 303B     		subs	r3, r3, #48
 412 005e D518     		adds	r5, r2, r3
 413              	.LVL47:
 228:C:/Users/lenovo/Desktop/liteos/Project2/BearPi_LiteOS/components/net/at_device/wifi_esp8266\esp8266.c ****             {
 414              		.loc 1 228 0 discriminator 3
 415 0060 0131     		adds	r1, r1, #1
 416              	.LVL48:
 417              	.L28:
 228:C:/Users/lenovo/Desktop/liteos/Project2/BearPi_LiteOS/components/net/at_device/wifi_esp8266\esp8266.c ****             {
 418              		.loc 1 228 0 is_stmt 0 discriminator 1
 419 0062 0B78     		ldrb	r3, [r1]	@ zero_extendqisi2
 420 0064 A3F13002 		sub	r2, r3, #48
 421 0068 D2B2     		uxtb	r2, r2
ARM GAS  c:\Users\lenovo\AppData\Local\Temp\ccZzE1K8.s 			page 16


 422 006a 092A     		cmp	r2, #9
 423 006c F3D9     		bls	.L29
 424 006e 5CE0     		b	.L27
 425              	.LVL49:
 426              	.L31:
 237:C:/Users/lenovo/Desktop/liteos/Project2/BearPi_LiteOS/components/net/at_device/wifi_esp8266\esp8266.c ****         }
 427              		.loc 1 237 0 is_stmt 1 discriminator 3
 428 0070 04EB8404 		add	r4, r4, r4, lsl #2
 429              	.LVL50:
 430 0074 6200     		lsls	r2, r4, #1
 431 0076 303B     		subs	r3, r3, #48
 432 0078 D418     		adds	r4, r2, r3
 433              	.LVL51:
 235:C:/Users/lenovo/Desktop/liteos/Project2/BearPi_LiteOS/components/net/at_device/wifi_esp8266\esp8266.c ****         {
 434              		.loc 1 235 0 discriminator 3
 435 007a 0131     		adds	r1, r1, #1
 436              	.LVL52:
 437              	.L30:
 235:C:/Users/lenovo/Desktop/liteos/Project2/BearPi_LiteOS/components/net/at_device/wifi_esp8266\esp8266.c ****         {
 438              		.loc 1 235 0 is_stmt 0 discriminator 1
 439 007c 0B78     		ldrb	r3, [r1]	@ zero_extendqisi2
 440 007e A3F13002 		sub	r2, r3, #48
 441 0082 D2B2     		uxtb	r2, r2
 442 0084 092A     		cmp	r2, #9
 443 0086 F3D9     		bls	.L31
 241:C:/Users/lenovo/Desktop/liteos/Project2/BearPi_LiteOS/components/net/at_device/wifi_esp8266\esp8266.c ****         for (p2++; *p2 != ',' ; p2++)
 444              		.loc 1 241 0 is_stmt 1
 445 0088 3D4B     		ldr	r3, .L44+16
 446 008a 5B6B     		ldr	r3, [r3, #52]
 447 008c 6E01     		lsls	r6, r5, #5
 448 008e 3344     		add	r3, r3, r6
 449 0090 0C33     		adds	r3, r3, #12
 450              	.LVL53:
 242:C:/Users/lenovo/Desktop/liteos/Project2/BearPi_LiteOS/components/net/at_device/wifi_esp8266\esp8266.c ****         {
 451              		.loc 1 242 0
 452 0092 0131     		adds	r1, r1, #1
 453              	.LVL54:
 454 0094 02E0     		b	.L32
 455              	.L33:
 456              	.LVL55:
 244:C:/Users/lenovo/Desktop/liteos/Project2/BearPi_LiteOS/components/net/at_device/wifi_esp8266\esp8266.c ****         }
 457              		.loc 1 244 0 discriminator 3
 458 0096 1A70     		strb	r2, [r3]
 242:C:/Users/lenovo/Desktop/liteos/Project2/BearPi_LiteOS/components/net/at_device/wifi_esp8266\esp8266.c ****         {
 459              		.loc 1 242 0 discriminator 3
 460 0098 0131     		adds	r1, r1, #1
 461              	.LVL56:
 244:C:/Users/lenovo/Desktop/liteos/Project2/BearPi_LiteOS/components/net/at_device/wifi_esp8266\esp8266.c ****         }
 462              		.loc 1 244 0 discriminator 3
 463 009a 0133     		adds	r3, r3, #1
 464              	.LVL57:
 465              	.L32:
 242:C:/Users/lenovo/Desktop/liteos/Project2/BearPi_LiteOS/components/net/at_device/wifi_esp8266\esp8266.c ****         {
 466              		.loc 1 242 0 discriminator 1
 467 009c 0A78     		ldrb	r2, [r1]	@ zero_extendqisi2
 468 009e 2C2A     		cmp	r2, #44
 469 00a0 F9D1     		bne	.L33
ARM GAS  c:\Users\lenovo\AppData\Local\Temp\ccZzE1K8.s 			page 17


 470              	.LVL58:
 249:C:/Users/lenovo/Desktop/liteos/Project2/BearPi_LiteOS/components/net/at_device/wifi_esp8266\esp8266.c ****         {
 471              		.loc 1 249 0
 472 00a2 0131     		adds	r1, r1, #1
 473              	.LVL59:
 248:C:/Users/lenovo/Desktop/liteos/Project2/BearPi_LiteOS/components/net/at_device/wifi_esp8266\esp8266.c ****         for (p2++; *p2 <= '9' && *p2 >= '0' ; p2++)
 474              		.loc 1 248 0
 475 00a4 0023     		movs	r3, #0
 476              	.LVL60:
 249:C:/Users/lenovo/Desktop/liteos/Project2/BearPi_LiteOS/components/net/at_device/wifi_esp8266\esp8266.c ****         {
 477              		.loc 1 249 0
 478 00a6 06E0     		b	.L34
 479              	.LVL61:
 480              	.L35:
 251:C:/Users/lenovo/Desktop/liteos/Project2/BearPi_LiteOS/components/net/at_device/wifi_esp8266\esp8266.c ****         }
 481              		.loc 1 251 0 discriminator 3
 482 00a8 03EB8303 		add	r3, r3, r3, lsl #2
 483              	.LVL62:
 484 00ac 5800     		lsls	r0, r3, #1
 485 00ae A2F13003 		sub	r3, r2, #48
 486 00b2 0344     		add	r3, r3, r0
 487              	.LVL63:
 249:C:/Users/lenovo/Desktop/liteos/Project2/BearPi_LiteOS/components/net/at_device/wifi_esp8266\esp8266.c ****         {
 488              		.loc 1 249 0 discriminator 3
 489 00b4 0131     		adds	r1, r1, #1
 490              	.LVL64:
 491              	.L34:
 249:C:/Users/lenovo/Desktop/liteos/Project2/BearPi_LiteOS/components/net/at_device/wifi_esp8266\esp8266.c ****         {
 492              		.loc 1 249 0 is_stmt 0 discriminator 1
 493 00b6 0A78     		ldrb	r2, [r1]	@ zero_extendqisi2
 494 00b8 A2F13000 		sub	r0, r2, #48
 495 00bc C0B2     		uxtb	r0, r0
 496 00be 0928     		cmp	r0, #9
 497 00c0 F2D9     		bls	.L35
 253:C:/Users/lenovo/Desktop/liteos/Project2/BearPi_LiteOS/components/net/at_device/wifi_esp8266\esp8266.c **** 
 498              		.loc 1 253 0 is_stmt 1
 499 00c2 2F4A     		ldr	r2, .L44+16
 500 00c4 526B     		ldr	r2, [r2, #52]
 501 00c6 3244     		add	r2, r2, r6
 502 00c8 D361     		str	r3, [r2, #28]
 255:C:/Users/lenovo/Desktop/liteos/Project2/BearPi_LiteOS/components/net/at_device/wifi_esp8266\esp8266.c **** 
 503              		.loc 1 255 0
 504 00ca 01F10109 		add	r9, r1, #1
 505              	.LVL65:
 257:C:/Users/lenovo/Desktop/liteos/Project2/BearPi_LiteOS/components/net/at_device/wifi_esp8266\esp8266.c ****         if (NULL == qbuf.addr)
 506              		.loc 1 257 0
 507 00ce 2046     		mov	r0, r4
 508 00d0 FFF7FEFF 		bl	at_malloc
 509              	.LVL66:
 510 00d4 0490     		str	r0, [sp, #16]
 258:C:/Users/lenovo/Desktop/liteos/Project2/BearPi_LiteOS/components/net/at_device/wifi_esp8266\esp8266.c ****         {
 511              		.loc 1 258 0
 512 00d6 58B3     		cbz	r0, .L40
 264:C:/Users/lenovo/Desktop/liteos/Project2/BearPi_LiteOS/components/net/at_device/wifi_esp8266\esp8266.c ****         memcpy(qbuf.addr, p2, data_len);
 513              		.loc 1 264 0
 514 00d8 0DF1400A 		add	r10, sp, #64
 515 00dc 4AF8344D 		str	r4, [r10, #-52]!
ARM GAS  c:\Users\lenovo\AppData\Local\Temp\ccZzE1K8.s 			page 18


 265:C:/Users/lenovo/Desktop/liteos/Project2/BearPi_LiteOS/components/net/at_device/wifi_esp8266\esp8266.c **** 
 516              		.loc 1 265 0
 517 00e0 2246     		mov	r2, r4
 518 00e2 4946     		mov	r1, r9
 519 00e4 FFF7FEFF 		bl	memcpy
 520              	.LVL67:
 267:C:/Users/lenovo/Desktop/liteos/Project2/BearPi_LiteOS/components/net/at_device/wifi_esp8266\esp8266.c ****         {
 521              		.loc 1 267 0
 522 00e8 254B     		ldr	r3, .L44+16
 523 00ea 5B6B     		ldr	r3, [r3, #52]
 524 00ec 1E44     		add	r6, r6, r3
 525 00ee 0023     		movs	r3, #0
 526 00f0 3422     		movs	r2, #52
 527 00f2 5146     		mov	r1, r10
 528 00f4 7068     		ldr	r0, [r6, #4]
 529 00f6 FFF7FEFF 		bl	LOS_QueueWriteCopy
 530              	.LVL68:
 531 00fa 0646     		mov	r6, r0
 532 00fc 18BB     		cbnz	r0, .L41
 273:C:/Users/lenovo/Desktop/liteos/Project2/BearPi_LiteOS/components/net/at_device/wifi_esp8266\esp8266.c **** 
 533              		.loc 1 273 0
 534 00fe A144     		add	r9, r9, r4
 535              	.LVL69:
 275:C:/Users/lenovo/Desktop/liteos/Project2/BearPi_LiteOS/components/net/at_device/wifi_esp8266\esp8266.c ****             goto LOOP;
 536              		.loc 1 275 0
 537 0100 A9EB0803 		sub	r3, r9, r8
 538 0104 BB42     		cmp	r3, r7
 539 0106 2EDA     		bge	.L21
 540              	.LVL70:
 541              	.L25:
 216:C:/Users/lenovo/Desktop/liteos/Project2/BearPi_LiteOS/components/net/at_device/wifi_esp8266\esp8266.c ****     {
 542              		.loc 1 216 0
 543 0108 0622     		movs	r2, #6
 544 010a 1E49     		ldr	r1, .L44+20
 545 010c 4846     		mov	r0, r9
 546 010e FFF7FEFF 		bl	memcmp
 547              	.LVL71:
 548 0112 38BB     		cbnz	r0, .L38
 218:C:/Users/lenovo/Desktop/liteos/Project2/BearPi_LiteOS/components/net/at_device/wifi_esp8266\esp8266.c ****         if (NULL == p2)
 549              		.loc 1 218 0
 550 0114 2C21     		movs	r1, #44
 551 0116 4846     		mov	r0, r9
 552 0118 FFF7FEFF 		bl	strchr
 553              	.LVL72:
 219:C:/Users/lenovo/Desktop/liteos/Project2/BearPi_LiteOS/components/net/at_device/wifi_esp8266\esp8266.c ****         {
 554              		.loc 1 219 0
 555 011c 0146     		mov	r1, r0
 556 011e 0028     		cmp	r0, #0
 557 0120 8CD0     		beq	.L42
 225:C:/Users/lenovo/Desktop/liteos/Project2/BearPi_LiteOS/components/net/at_device/wifi_esp8266\esp8266.c ****         {
 558              		.loc 1 225 0
 559 0122 174B     		ldr	r3, .L44+16
 560 0124 1B6B     		ldr	r3, [r3, #48]
 561 0126 012B     		cmp	r3, #1
 562 0128 92D0     		beq	.L43
 563              	.LVL73:
 564              	.L27:
ARM GAS  c:\Users\lenovo\AppData\Local\Temp\ccZzE1K8.s 			page 19


 235:C:/Users/lenovo/Desktop/liteos/Project2/BearPi_LiteOS/components/net/at_device/wifi_esp8266\esp8266.c ****         {
 565              		.loc 1 235 0
 566 012a 0131     		adds	r1, r1, #1
 567              	.LVL74:
 234:C:/Users/lenovo/Desktop/liteos/Project2/BearPi_LiteOS/components/net/at_device/wifi_esp8266\esp8266.c ****         for (p2++; *p2 <= '9' && *p2 >= '0' ; p2++)
 568              		.loc 1 234 0
 569 012c 0024     		movs	r4, #0
 235:C:/Users/lenovo/Desktop/liteos/Project2/BearPi_LiteOS/components/net/at_device/wifi_esp8266\esp8266.c ****         {
 570              		.loc 1 235 0
 571 012e A5E7     		b	.L30
 572              	.LVL75:
 573              	.L40:
 260:C:/Users/lenovo/Desktop/liteos/Project2/BearPi_LiteOS/components/net/at_device/wifi_esp8266\esp8266.c ****             goto END;
 574              		.loc 1 260 0
 575 0130 FFF7FEFF 		bl	at_get_time
 576              	.LVL76:
 577 0134 4FF48273 		mov	r3, #260
 578 0138 0D4A     		ldr	r2, .L44
 579 013a 0146     		mov	r1, r0
 580 013c 1248     		ldr	r0, .L44+24
 581 013e FFF7FEFF 		bl	printf
 582              	.LVL77:
 279:C:/Users/lenovo/Desktop/liteos/Project2/BearPi_LiteOS/components/net/at_device/wifi_esp8266\esp8266.c **** }
 583              		.loc 1 279 0
 584 0142 0026     		movs	r6, #0
 261:C:/Users/lenovo/Desktop/liteos/Project2/BearPi_LiteOS/components/net/at_device/wifi_esp8266\esp8266.c ****         }
 585              		.loc 1 261 0
 586 0144 0FE0     		b	.L21
 587              	.LVL78:
 588              	.L41:
 269:C:/Users/lenovo/Desktop/liteos/Project2/BearPi_LiteOS/components/net/at_device/wifi_esp8266\esp8266.c ****             at_free(qbuf.addr);
 589              		.loc 1 269 0
 590 0146 FFF7FEFF 		bl	at_get_time
 591              	.LVL79:
 592 014a 0096     		str	r6, [sp]
 593 014c 40F20D13 		movw	r3, #269
 594 0150 074A     		ldr	r2, .L44
 595 0152 0146     		mov	r1, r0
 596 0154 0D48     		ldr	r0, .L44+28
 597 0156 FFF7FEFF 		bl	printf
 598              	.LVL80:
 270:C:/Users/lenovo/Desktop/liteos/Project2/BearPi_LiteOS/components/net/at_device/wifi_esp8266\esp8266.c ****             goto END;
 599              		.loc 1 270 0
 600 015a 0498     		ldr	r0, [sp, #16]
 601 015c FFF7FEFF 		bl	at_free
 602              	.LVL81:
 279:C:/Users/lenovo/Desktop/liteos/Project2/BearPi_LiteOS/components/net/at_device/wifi_esp8266\esp8266.c **** }
 603              		.loc 1 279 0
 604 0160 0026     		movs	r6, #0
 605              	.LVL82:
 271:C:/Users/lenovo/Desktop/liteos/Project2/BearPi_LiteOS/components/net/at_device/wifi_esp8266\esp8266.c ****         }
 606              		.loc 1 271 0
 607 0162 00E0     		b	.L21
 608              	.LVL83:
 609              	.L38:
 279:C:/Users/lenovo/Desktop/liteos/Project2/BearPi_LiteOS/components/net/at_device/wifi_esp8266\esp8266.c **** }
 610              		.loc 1 279 0
ARM GAS  c:\Users\lenovo\AppData\Local\Temp\ccZzE1K8.s 			page 20


 611 0164 0026     		movs	r6, #0
 612              	.LVL84:
 613              	.L21:
 280:C:/Users/lenovo/Desktop/liteos/Project2/BearPi_LiteOS/components/net/at_device/wifi_esp8266\esp8266.c **** 
 614              		.loc 1 280 0
 615 0166 3046     		mov	r0, r6
 616 0168 11B0     		add	sp, sp, #68
 617              	.LCFI14:
 618              		.cfi_def_cfa_offset 36
 619              		@ sp needed
 620 016a BDE8F08F 		pop	{r4, r5, r6, r7, r8, r9, r10, fp, pc}
 621              	.L45:
 622 016e 00BF     		.align	2
 623              	.L44:
 624 0170 00000000 		.word	.LANCHOR0
 625 0174 20000000 		.word	.LC8
 626 0178 00000000 		.word	.LC7
 627 017c 40000000 		.word	.LC10
 628 0180 00000000 		.word	at
 629 0184 38000000 		.word	.LC9
 630 0188 6C000000 		.word	.LC11
 631 018c 94000000 		.word	.LC12
 632              		.cfi_endproc
 633              	.LFE144:
 635              		.section	.text.esp8266_cmd,"ax",%progbits
 636              		.align	1
 637              		.global	esp8266_cmd
 638              		.syntax unified
 639              		.thumb
 640              		.thumb_func
 641              		.fpu fpv4-sp-d16
 643              	esp8266_cmd:
 644              	.LFB133:
  42:C:/Users/lenovo/Desktop/liteos/Project2/BearPi_LiteOS/components/net/at_device/wifi_esp8266\esp8266.c **** 	return at.cmd(cmd, len, suffix, resp_buf, resp_len);
 645              		.loc 1 42 0
 646              		.cfi_startproc
 647              		@ args = 4, pretend = 0, frame = 0
 648              		@ frame_needed = 0, uses_anonymous_args = 0
 649              	.LVL85:
 650 0000 30B5     		push	{r4, r5, lr}
 651              	.LCFI15:
 652              		.cfi_def_cfa_offset 12
 653              		.cfi_offset 4, -12
 654              		.cfi_offset 5, -8
 655              		.cfi_offset 14, -4
 656 0002 83B0     		sub	sp, sp, #12
 657              	.LCFI16:
 658              		.cfi_def_cfa_offset 24
  43:C:/Users/lenovo/Desktop/liteos/Project2/BearPi_LiteOS/components/net/at_device/wifi_esp8266\esp8266.c **** }
 659              		.loc 1 43 0
 660 0004 034C     		ldr	r4, .L48
 661 0006 A46C     		ldr	r4, [r4, #72]
 662 0008 069D     		ldr	r5, [sp, #24]
 663 000a 0095     		str	r5, [sp]
 664 000c A047     		blx	r4
 665              	.LVL86:
  44:C:/Users/lenovo/Desktop/liteos/Project2/BearPi_LiteOS/components/net/at_device/wifi_esp8266\esp8266.c **** 
ARM GAS  c:\Users\lenovo\AppData\Local\Temp\ccZzE1K8.s 			page 21


 666              		.loc 1 44 0
 667 000e 03B0     		add	sp, sp, #12
 668              	.LCFI17:
 669              		.cfi_def_cfa_offset 12
 670              		@ sp needed
 671 0010 30BD     		pop	{r4, r5, pc}
 672              	.LVL87:
 673              	.L49:
 674 0012 00BF     		.align	2
 675              	.L48:
 676 0014 00000000 		.word	at
 677              		.cfi_endproc
 678              	.LFE133:
 680              		.section	.text.esp8266_connect,"ax",%progbits
 681              		.align	1
 682              		.global	esp8266_connect
 683              		.syntax unified
 684              		.thumb
 685              		.thumb_func
 686              		.fpu fpv4-sp-d16
 688              	esp8266_connect:
 689              	.LFB139:
  77:C:/Users/lenovo/Desktop/liteos/Project2/BearPi_LiteOS/components/net/at_device/wifi_esp8266\esp8266.c ****     int32_t ret = AT_FAILED;
 690              		.loc 1 77 0
 691              		.cfi_startproc
 692              		@ args = 0, pretend = 0, frame = 64
 693              		@ frame_needed = 0, uses_anonymous_args = 0
 694              	.LVL88:
 695 0000 2DE9F041 		push	{r4, r5, r6, r7, r8, lr}
 696              	.LCFI18:
 697              		.cfi_def_cfa_offset 24
 698              		.cfi_offset 4, -24
 699              		.cfi_offset 5, -20
 700              		.cfi_offset 6, -16
 701              		.cfi_offset 7, -12
 702              		.cfi_offset 8, -8
 703              		.cfi_offset 14, -4
 704 0004 94B0     		sub	sp, sp, #80
 705              	.LCFI19:
 706              		.cfi_def_cfa_offset 104
 707 0006 0446     		mov	r4, r0
 708 0008 0F46     		mov	r7, r1
 709 000a 1646     		mov	r6, r2
 710              	.LVL89:
  80:C:/Users/lenovo/Desktop/liteos/Project2/BearPi_LiteOS/components/net/at_device/wifi_esp8266\esp8266.c **** 
 711              		.loc 1 80 0
 712 000c 4022     		movs	r2, #64
 713              	.LVL90:
 714 000e 0021     		movs	r1, #0
 715              	.LVL91:
 716 0010 04A8     		add	r0, sp, #16
 717              	.LVL92:
 718 0012 FFF7FEFF 		bl	memset
 719              	.LVL93:
  82:C:/Users/lenovo/Desktop/liteos/Project2/BearPi_LiteOS/components/net/at_device/wifi_esp8266\esp8266.c **** 
 720              		.loc 1 82 0
 721 0016 FFF7FEFF 		bl	at_get_time
ARM GAS  c:\Users\lenovo\AppData\Local\Temp\ccZzE1K8.s 			page 22


 722              	.LVL94:
 723 001a 0197     		str	r7, [sp, #4]
 724 001c 0094     		str	r4, [sp]
 725 001e 5223     		movs	r3, #82
 726 0020 4B4A     		ldr	r2, .L67
 727 0022 0146     		mov	r1, r0
 728 0024 4B48     		ldr	r0, .L67+4
 729 0026 FFF7FEFF 		bl	printf
 730              	.LVL95:
  84:C:/Users/lenovo/Desktop/liteos/Project2/BearPi_LiteOS/components/net/at_device/wifi_esp8266\esp8266.c ****     {
 731              		.loc 1 84 0
 732 002a 4B4B     		ldr	r3, .L67+8
 733 002c 1B6B     		ldr	r3, [r3, #48]
 734 002e 002B     		cmp	r3, #0
 735 0030 4BD0     		beq	.L61
  90:C:/Users/lenovo/Desktop/liteos/Project2/BearPi_LiteOS/components/net/at_device/wifi_esp8266\esp8266.c ****         if (id < 0 || id >= AT_MAX_LINK_NUM)
 736              		.loc 1 90 0
 737 0032 494B     		ldr	r3, .L67+8
 738 0034 1B6D     		ldr	r3, [r3, #80]
 739 0036 9847     		blx	r3
 740              	.LVL96:
 741 0038 0546     		mov	r5, r0
 742              	.LVL97:
  91:C:/Users/lenovo/Desktop/liteos/Project2/BearPi_LiteOS/components/net/at_device/wifi_esp8266\esp8266.c ****         {
 743              		.loc 1 91 0
 744 003a 0328     		cmp	r0, #3
 745 003c 55D8     		bhi	.L62
  96:C:/Users/lenovo/Desktop/liteos/Project2/BearPi_LiteOS/components/net/at_device/wifi_esp8266\esp8266.c ****     }
 746              		.loc 1 96 0
 747 003e 012E     		cmp	r6, #1
 748 0040 5FD0     		beq	.L63
 749 0042 464B     		ldr	r3, .L67+12
 750              	.L56:
  96:C:/Users/lenovo/Desktop/liteos/Project2/BearPi_LiteOS/components/net/at_device/wifi_esp8266\esp8266.c ****     }
 751              		.loc 1 96 0 is_stmt 0 discriminator 4
 752 0044 0397     		str	r7, [sp, #12]
 753 0046 0294     		str	r4, [sp, #8]
 754 0048 0193     		str	r3, [sp, #4]
 755 004a 0095     		str	r5, [sp]
 756 004c 444B     		ldr	r3, .L67+16
 757 004e 454A     		ldr	r2, .L67+20
 758 0050 4021     		movs	r1, #64
 759 0052 04A8     		add	r0, sp, #16
 760              	.LVL98:
 761 0054 FFF7FEFF 		bl	snprintf
 762              	.LVL99:
 763              	.L53:
 100:C:/Users/lenovo/Desktop/liteos/Project2/BearPi_LiteOS/components/net/at_device/wifi_esp8266\esp8266.c ****     (void)sscanf((char*)port, "%d", &at.linkid[id].remote_port);
 764              		.loc 1 100 0 is_stmt 1
 765 0058 DFF8FC80 		ldr	r8, .L67+8
 766 005c D8F83430 		ldr	r3, [r8, #52]
 767 0060 6E01     		lsls	r6, r5, #5
 768              	.LVL100:
 769 0062 3344     		add	r3, r3, r6
 770 0064 D4F800E0 		ldr	lr, [r4]	@ unaligned
 771 0068 D4F804C0 		ldr	ip, [r4, #4]	@ unaligned
 772 006c A068     		ldr	r0, [r4, #8]	@ unaligned
ARM GAS  c:\Users\lenovo\AppData\Local\Temp\ccZzE1K8.s 			page 23


 773 006e E168     		ldr	r1, [r4, #12]	@ unaligned
 774 0070 C3F80CE0 		str	lr, [r3, #12]	@ unaligned
 775 0074 C3F810C0 		str	ip, [r3, #16]	@ unaligned
 776 0078 5861     		str	r0, [r3, #20]	@ unaligned
 777 007a 9961     		str	r1, [r3, #24]	@ unaligned
 101:C:/Users/lenovo/Desktop/liteos/Project2/BearPi_LiteOS/components/net/at_device/wifi_esp8266\esp8266.c **** 
 778              		.loc 1 101 0
 779 007c D8F83420 		ldr	r2, [r8, #52]
 780 0080 3244     		add	r2, r2, r6
 781 0082 1C32     		adds	r2, r2, #28
 782 0084 3849     		ldr	r1, .L67+24
 783 0086 3846     		mov	r0, r7
 784 0088 FFF7FEFF 		bl	sscanf
 785              	.LVL101:
 103:C:/Users/lenovo/Desktop/liteos/Project2/BearPi_LiteOS/components/net/at_device/wifi_esp8266\esp8266.c ****     if (ret != LOS_OK)
 786              		.loc 1 103 0
 787 008c D8F83420 		ldr	r2, [r8, #52]
 788 0090 3244     		add	r2, r2, r6
 789 0092 3423     		movs	r3, #52
 790 0094 0093     		str	r3, [sp]
 791 0096 0023     		movs	r3, #0
 792 0098 0432     		adds	r2, r2, #4
 793 009a 1021     		movs	r1, #16
 794 009c 3348     		ldr	r0, .L67+28
 795 009e FFF7FEFF 		bl	LOS_QueueCreate
 796              	.LVL102:
 104:C:/Users/lenovo/Desktop/liteos/Project2/BearPi_LiteOS/components/net/at_device/wifi_esp8266\esp8266.c ****     {
 797              		.loc 1 104 0
 798 00a2 0028     		cmp	r0, #0
 799 00a4 2FD1     		bne	.L64
 110:C:/Users/lenovo/Desktop/liteos/Project2/BearPi_LiteOS/components/net/at_device/wifi_esp8266\esp8266.c ****     if (AT_FAILED == ret)
 800              		.loc 1 110 0
 801 00a6 04A8     		add	r0, sp, #16
 802              	.LVL103:
 803 00a8 FFF7FEFF 		bl	strlen
 804              	.LVL104:
 805 00ac 0023     		movs	r3, #0
 806 00ae 0093     		str	r3, [sp]
 807 00b0 2F4A     		ldr	r2, .L67+32
 808 00b2 0146     		mov	r1, r0
 809 00b4 04A8     		add	r0, sp, #16
 810 00b6 FFF7FEFF 		bl	esp8266_cmd
 811              	.LVL105:
 812 00ba 0446     		mov	r4, r0
 813              	.LVL106:
 111:C:/Users/lenovo/Desktop/liteos/Project2/BearPi_LiteOS/components/net/at_device/wifi_esp8266\esp8266.c ****     {
 814              		.loc 1 111 0
 815 00bc B0F1FF3F 		cmp	r0, #-1
 816 00c0 31D0     		beq	.L65
 817              	.LVL107:
 818              	.L50:
 119:C:/Users/lenovo/Desktop/liteos/Project2/BearPi_LiteOS/components/net/at_device/wifi_esp8266\esp8266.c **** 
 819              		.loc 1 119 0
 820 00c2 2846     		mov	r0, r5
 821 00c4 14B0     		add	sp, sp, #80
 822              	.LCFI20:
 823              		.cfi_remember_state
ARM GAS  c:\Users\lenovo\AppData\Local\Temp\ccZzE1K8.s 			page 24


 824              		.cfi_def_cfa_offset 24
 825              		@ sp needed
 826 00c6 BDE8F081 		pop	{r4, r5, r6, r7, r8, pc}
 827              	.LVL108:
 828              	.L61:
 829              	.LCFI21:
 830              		.cfi_restore_state
  86:C:/Users/lenovo/Desktop/liteos/Project2/BearPi_LiteOS/components/net/at_device/wifi_esp8266\esp8266.c ****     }
 831              		.loc 1 86 0
 832 00ca 012E     		cmp	r6, #1
 833 00cc 0BD0     		beq	.L66
 834 00ce 234B     		ldr	r3, .L67+12
 835              	.L52:
  86:C:/Users/lenovo/Desktop/liteos/Project2/BearPi_LiteOS/components/net/at_device/wifi_esp8266\esp8266.c ****     }
 836              		.loc 1 86 0 is_stmt 0 discriminator 4
 837 00d0 0297     		str	r7, [sp, #8]
 838 00d2 0194     		str	r4, [sp, #4]
 839 00d4 0093     		str	r3, [sp]
 840 00d6 224B     		ldr	r3, .L67+16
 841 00d8 264A     		ldr	r2, .L67+36
 842 00da 4021     		movs	r1, #64
 843 00dc 04A8     		add	r0, sp, #16
 844 00de FFF7FEFF 		bl	snprintf
 845              	.LVL109:
  79:C:/Users/lenovo/Desktop/liteos/Project2/BearPi_LiteOS/components/net/at_device/wifi_esp8266\esp8266.c ****     char cmd[64] = {0};
 846              		.loc 1 79 0 is_stmt 1 discriminator 4
 847 00e2 0025     		movs	r5, #0
 848 00e4 B8E7     		b	.L53
 849              	.L66:
  86:C:/Users/lenovo/Desktop/liteos/Project2/BearPi_LiteOS/components/net/at_device/wifi_esp8266\esp8266.c ****     }
 850              		.loc 1 86 0
 851 00e6 244B     		ldr	r3, .L67+40
 852 00e8 F2E7     		b	.L52
 853              	.LVL110:
 854              	.L62:
  93:C:/Users/lenovo/Desktop/liteos/Project2/BearPi_LiteOS/components/net/at_device/wifi_esp8266\esp8266.c ****             return AT_FAILED;
 855              		.loc 1 93 0
 856 00ea FFF7FEFF 		bl	at_get_time
 857              	.LVL111:
 858 00ee 0095     		str	r5, [sp]
 859 00f0 5D23     		movs	r3, #93
 860 00f2 174A     		ldr	r2, .L67
 861 00f4 0146     		mov	r1, r0
 862 00f6 2148     		ldr	r0, .L67+44
 863 00f8 FFF7FEFF 		bl	printf
 864              	.LVL112:
  94:C:/Users/lenovo/Desktop/liteos/Project2/BearPi_LiteOS/components/net/at_device/wifi_esp8266\esp8266.c ****         }
 865              		.loc 1 94 0
 866 00fc 4FF0FF35 		mov	r5, #-1
 867              	.LVL113:
 868 0100 DFE7     		b	.L50
 869              	.LVL114:
 870              	.L63:
  96:C:/Users/lenovo/Desktop/liteos/Project2/BearPi_LiteOS/components/net/at_device/wifi_esp8266\esp8266.c ****     }
 871              		.loc 1 96 0
 872 0102 1D4B     		ldr	r3, .L67+40
 873 0104 9EE7     		b	.L56
ARM GAS  c:\Users\lenovo\AppData\Local\Temp\ccZzE1K8.s 			page 25


 874              	.LVL115:
 875              	.L64:
 106:C:/Users/lenovo/Desktop/liteos/Project2/BearPi_LiteOS/components/net/at_device/wifi_esp8266\esp8266.c ****         at.linkid[id].usable = AT_LINK_UNUSE;
 876              		.loc 1 106 0
 877 0106 FFF7FEFF 		bl	at_get_time
 878              	.LVL116:
 879 010a 6A23     		movs	r3, #106
 880 010c 104A     		ldr	r2, .L67
 881 010e 0146     		mov	r1, r0
 882 0110 1B48     		ldr	r0, .L67+48
 883 0112 FFF7FEFF 		bl	printf
 884              	.LVL117:
 107:C:/Users/lenovo/Desktop/liteos/Project2/BearPi_LiteOS/components/net/at_device/wifi_esp8266\esp8266.c ****         return AT_FAILED;
 885              		.loc 1 107 0
 886 0116 D8F83430 		ldr	r3, [r8, #52]
 887 011a 1E44     		add	r6, r6, r3
 888 011c 0023     		movs	r3, #0
 889 011e B360     		str	r3, [r6, #8]
 108:C:/Users/lenovo/Desktop/liteos/Project2/BearPi_LiteOS/components/net/at_device/wifi_esp8266\esp8266.c ****     }
 890              		.loc 1 108 0
 891 0120 4FF0FF35 		mov	r5, #-1
 892              	.LVL118:
 893 0124 CDE7     		b	.L50
 894              	.LVL119:
 895              	.L65:
 113:C:/Users/lenovo/Desktop/liteos/Project2/BearPi_LiteOS/components/net/at_device/wifi_esp8266\esp8266.c ****        (void)LOS_QueueDelete(at.linkid[id].qid);
 896              		.loc 1 113 0
 897 0126 FFF7FEFF 		bl	at_get_time
 898              	.LVL120:
 899 012a 7123     		movs	r3, #113
 900 012c 084A     		ldr	r2, .L67
 901 012e 0146     		mov	r1, r0
 902 0130 1448     		ldr	r0, .L67+52
 903 0132 FFF7FEFF 		bl	printf
 904              	.LVL121:
 114:C:/Users/lenovo/Desktop/liteos/Project2/BearPi_LiteOS/components/net/at_device/wifi_esp8266\esp8266.c ****         at.linkid[id].usable = AT_LINK_UNUSE;
 905              		.loc 1 114 0
 906 0136 084D     		ldr	r5, .L67+8
 907              	.LVL122:
 908 0138 6B6B     		ldr	r3, [r5, #52]
 909 013a 3344     		add	r3, r3, r6
 910 013c 5868     		ldr	r0, [r3, #4]
 911 013e FFF7FEFF 		bl	LOS_QueueDelete
 912              	.LVL123:
 115:C:/Users/lenovo/Desktop/liteos/Project2/BearPi_LiteOS/components/net/at_device/wifi_esp8266\esp8266.c ****         return AT_FAILED;
 913              		.loc 1 115 0
 914 0142 6B6B     		ldr	r3, [r5, #52]
 915 0144 1E44     		add	r6, r6, r3
 916 0146 0023     		movs	r3, #0
 917 0148 B360     		str	r3, [r6, #8]
 116:C:/Users/lenovo/Desktop/liteos/Project2/BearPi_LiteOS/components/net/at_device/wifi_esp8266\esp8266.c ****     }
 918              		.loc 1 116 0
 919 014a 2546     		mov	r5, r4
 920 014c B9E7     		b	.L50
 921              	.L68:
 922 014e 00BF     		.align	2
 923              	.L67:
ARM GAS  c:\Users\lenovo\AppData\Local\Temp\ccZzE1K8.s 			page 26


 924 0150 00000000 		.word	.LANCHOR1
 925 0154 08000000 		.word	.LC15
 926 0158 00000000 		.word	at
 927 015c 04000000 		.word	.LC14
 928 0160 2C000000 		.word	.LC16
 929 0164 7C000000 		.word	.LC19
 930 0168 90000000 		.word	.LC20
 931 016c 94000000 		.word	.LC21
 932 0170 C8000000 		.word	.LC23
 933 0174 38000000 		.word	.LC17
 934 0178 00000000 		.word	.LC13
 935 017c 48000000 		.word	.LC18
 936 0180 A0000000 		.word	.LC22
 937 0184 D0000000 		.word	.LC24
 938              		.cfi_endproc
 939              	.LFE139:
 941              		.section	.text.esp8266_close,"ax",%progbits
 942              		.align	1
 943              		.global	esp8266_close
 944              		.syntax unified
 945              		.thumb
 946              		.thumb_func
 947              		.fpu fpv4-sp-d16
 949              	esp8266_close:
 950              	.LFB143:
 168:C:/Users/lenovo/Desktop/liteos/Project2/BearPi_LiteOS/components/net/at_device/wifi_esp8266\esp8266.c ****     char cmd[64] = {0};
 951              		.loc 1 168 0
 952              		.cfi_startproc
 953              		@ args = 0, pretend = 0, frame = 120
 954              		@ frame_needed = 0, uses_anonymous_args = 0
 955              	.LVL124:
 956 0000 70B5     		push	{r4, r5, r6, lr}
 957              	.LCFI22:
 958              		.cfi_def_cfa_offset 16
 959              		.cfi_offset 4, -16
 960              		.cfi_offset 5, -12
 961              		.cfi_offset 6, -8
 962              		.cfi_offset 14, -4
 963 0002 A0B0     		sub	sp, sp, #128
 964              	.LCFI23:
 965              		.cfi_def_cfa_offset 144
 966 0004 0546     		mov	r5, r0
 169:C:/Users/lenovo/Desktop/liteos/Project2/BearPi_LiteOS/components/net/at_device/wifi_esp8266\esp8266.c **** 
 967              		.loc 1 169 0
 968 0006 4022     		movs	r2, #64
 969 0008 0021     		movs	r1, #0
 970 000a 0DEB0200 		add	r0, sp, r2
 971              	.LVL125:
 972 000e FFF7FEFF 		bl	memset
 973              	.LVL126:
 171:C:/Users/lenovo/Desktop/liteos/Project2/BearPi_LiteOS/components/net/at_device/wifi_esp8266\esp8266.c ****         return 0;
 974              		.loc 1 171 0
 975 0012 274B     		ldr	r3, .L80
 976 0014 5B6B     		ldr	r3, [r3, #52]
 977 0016 6C01     		lsls	r4, r5, #5
 978 0018 2344     		add	r3, r3, r4
 979 001a 9B68     		ldr	r3, [r3, #8]
ARM GAS  c:\Users\lenovo\AppData\Local\Temp\ccZzE1K8.s 			page 27


 980 001c 002B     		cmp	r3, #0
 981 001e 44D0     		beq	.L76
 174:C:/Users/lenovo/Desktop/liteos/Project2/BearPi_LiteOS/components/net/at_device/wifi_esp8266\esp8266.c ****     {
 982              		.loc 1 174 0
 983 0020 234B     		ldr	r3, .L80
 984 0022 1B6B     		ldr	r3, [r3, #48]
 985 0024 DBB1     		cbz	r3, .L78
 986              	.LBB2:
 180:C:/Users/lenovo/Desktop/liteos/Project2/BearPi_LiteOS/components/net/at_device/wifi_esp8266\esp8266.c ****         QUEUE_BUFF  qbuf = {0, NULL};
 987              		.loc 1 180 0
 988 0026 3422     		movs	r2, #52
 989 0028 0292     		str	r2, [sp, #8]
 181:C:/Users/lenovo/Desktop/liteos/Project2/BearPi_LiteOS/components/net/at_device/wifi_esp8266\esp8266.c ****         while(LOS_OK == LOS_QueueReadCopy(at.linkid[id].qid, (void *)&qbuf, (UINT32 *)&qlen, 10))
 990              		.loc 1 181 0
 991 002a 0021     		movs	r1, #0
 992 002c 03A8     		add	r0, sp, #12
 993 002e FFF7FEFF 		bl	memset
 994              	.LVL127:
 995              	.L74:
 182:C:/Users/lenovo/Desktop/liteos/Project2/BearPi_LiteOS/components/net/at_device/wifi_esp8266\esp8266.c ****         {
 996              		.loc 1 182 0
 997 0032 1F4B     		ldr	r3, .L80
 998 0034 586B     		ldr	r0, [r3, #52]
 999 0036 2044     		add	r0, r0, r4
 1000 0038 0A23     		movs	r3, #10
 1001 003a 02AA     		add	r2, sp, #8
 1002 003c 03A9     		add	r1, sp, #12
 1003 003e 4068     		ldr	r0, [r0, #4]
 1004 0040 FFF7FEFF 		bl	LOS_QueueReadCopy
 1005              	.LVL128:
 1006 0044 88B9     		cbnz	r0, .L79
 184:C:/Users/lenovo/Desktop/liteos/Project2/BearPi_LiteOS/components/net/at_device/wifi_esp8266\esp8266.c ****             {
 1007              		.loc 1 184 0
 1008 0046 039B     		ldr	r3, [sp, #12]
 1009 0048 002B     		cmp	r3, #0
 1010 004a F2D0     		beq	.L74
 186:C:/Users/lenovo/Desktop/liteos/Project2/BearPi_LiteOS/components/net/at_device/wifi_esp8266\esp8266.c ****                 memset(&qbuf, 0, sizeof(QUEUE_BUFF)); // don't use qlen
 1011              		.loc 1 186 0
 1012 004c 0498     		ldr	r0, [sp, #16]
 1013 004e FFF7FEFF 		bl	at_free
 1014              	.LVL129:
 187:C:/Users/lenovo/Desktop/liteos/Project2/BearPi_LiteOS/components/net/at_device/wifi_esp8266\esp8266.c ****             }
 1015              		.loc 1 187 0
 1016 0052 3422     		movs	r2, #52
 1017 0054 0021     		movs	r1, #0
 1018 0056 03A8     		add	r0, sp, #12
 1019 0058 FFF7FEFF 		bl	memset
 1020              	.LVL130:
 1021 005c E9E7     		b	.L74
 1022              	.L78:
 1023              	.LBE2:
 176:C:/Users/lenovo/Desktop/liteos/Project2/BearPi_LiteOS/components/net/at_device/wifi_esp8266\esp8266.c ****     }
 1024              		.loc 1 176 0
 1025 005e 10AB     		add	r3, sp, #64
 1026 0060 144A     		ldr	r2, .L80+4
 1027 0062 07CA     		ldm	r2, {r0, r1, r2}
 1028 0064 83E80700 		stm	r3, {r0, r1, r2}
ARM GAS  c:\Users\lenovo\AppData\Local\Temp\ccZzE1K8.s 			page 28


 1029 0068 13E0     		b	.L72
 1030              	.L79:
 1031              	.LBB3:
 190:C:/Users/lenovo/Desktop/liteos/Project2/BearPi_LiteOS/components/net/at_device/wifi_esp8266\esp8266.c ****         memset(&at.linkid[id], 0, sizeof(at_link));
 1032              		.loc 1 190 0
 1033 006a 114E     		ldr	r6, .L80
 1034 006c 736B     		ldr	r3, [r6, #52]
 1035 006e 2344     		add	r3, r3, r4
 1036 0070 5868     		ldr	r0, [r3, #4]
 1037 0072 FFF7FEFF 		bl	LOS_QueueDelete
 1038              	.LVL131:
 191:C:/Users/lenovo/Desktop/liteos/Project2/BearPi_LiteOS/components/net/at_device/wifi_esp8266\esp8266.c ****         snprintf(cmd, 64, "%s=%ld", AT_CMD_CLOSE, id);
 1039              		.loc 1 191 0
 1040 0076 706B     		ldr	r0, [r6, #52]
 1041 0078 2022     		movs	r2, #32
 1042 007a 0021     		movs	r1, #0
 1043 007c 2044     		add	r0, r0, r4
 1044 007e FFF7FEFF 		bl	memset
 1045              	.LVL132:
 192:C:/Users/lenovo/Desktop/liteos/Project2/BearPi_LiteOS/components/net/at_device/wifi_esp8266\esp8266.c ****     }
 1046              		.loc 1 192 0
 1047 0082 0095     		str	r5, [sp]
 1048 0084 0B4B     		ldr	r3, .L80+4
 1049 0086 0C4A     		ldr	r2, .L80+8
 1050 0088 4021     		movs	r1, #64
 1051 008a 0DEB0100 		add	r0, sp, r1
 1052 008e FFF7FEFF 		bl	snprintf
 1053              	.LVL133:
 1054              	.L72:
 1055              	.LBE3:
 194:C:/Users/lenovo/Desktop/liteos/Project2/BearPi_LiteOS/components/net/at_device/wifi_esp8266\esp8266.c **** }
 1056              		.loc 1 194 0
 1057 0092 10A8     		add	r0, sp, #64
 1058 0094 FFF7FEFF 		bl	strlen
 1059              	.LVL134:
 1060 0098 0023     		movs	r3, #0
 1061 009a 0093     		str	r3, [sp]
 1062 009c 074A     		ldr	r2, .L80+12
 1063 009e 0146     		mov	r1, r0
 1064 00a0 10A8     		add	r0, sp, #64
 1065 00a2 FFF7FEFF 		bl	esp8266_cmd
 1066              	.LVL135:
 1067              	.L69:
 195:C:/Users/lenovo/Desktop/liteos/Project2/BearPi_LiteOS/components/net/at_device/wifi_esp8266\esp8266.c **** 
 1068              		.loc 1 195 0
 1069 00a6 20B0     		add	sp, sp, #128
 1070              	.LCFI24:
 1071              		.cfi_remember_state
 1072              		.cfi_def_cfa_offset 16
 1073              		@ sp needed
 1074 00a8 70BD     		pop	{r4, r5, r6, pc}
 1075              	.LVL136:
 1076              	.L76:
 1077              	.LCFI25:
 1078              		.cfi_restore_state
 172:C:/Users/lenovo/Desktop/liteos/Project2/BearPi_LiteOS/components/net/at_device/wifi_esp8266\esp8266.c **** 
 1079              		.loc 1 172 0
ARM GAS  c:\Users\lenovo\AppData\Local\Temp\ccZzE1K8.s 			page 29


 1080 00aa 0020     		movs	r0, #0
 1081 00ac FBE7     		b	.L69
 1082              	.L81:
 1083 00ae 00BF     		.align	2
 1084              	.L80:
 1085 00b0 00000000 		.word	at
 1086 00b4 00000000 		.word	.LC25
 1087 00b8 0C000000 		.word	.LC26
 1088 00bc C8000000 		.word	.LC23
 1089              		.cfi_endproc
 1090              	.LFE143:
 1092              		.section	.text.esp8266_deinit,"ax",%progbits
 1093              		.align	1
 1094              		.global	esp8266_deinit
 1095              		.syntax unified
 1096              		.thumb
 1097              		.thumb_func
 1098              		.fpu fpv4-sp-d16
 1100              	esp8266_deinit:
 1101              	.LFB149:
 375:C:/Users/lenovo/Desktop/liteos/Project2/BearPi_LiteOS/components/net/at_device/wifi_esp8266\esp8266.c ****     int id = 0;
 1102              		.loc 1 375 0
 1103              		.cfi_startproc
 1104              		@ args = 0, pretend = 0, frame = 0
 1105              		@ frame_needed = 0, uses_anonymous_args = 0
 1106 0000 10B5     		push	{r4, lr}
 1107              	.LCFI26:
 1108              		.cfi_def_cfa_offset 8
 1109              		.cfi_offset 4, -8
 1110              		.cfi_offset 14, -4
 1111 0002 82B0     		sub	sp, sp, #8
 1112              	.LCFI27:
 1113              		.cfi_def_cfa_offset 16
 1114              	.LVL137:
 378:C:/Users/lenovo/Desktop/liteos/Project2/BearPi_LiteOS/components/net/at_device/wifi_esp8266\esp8266.c ****     {
 1115              		.loc 1 378 0
 1116 0004 124B     		ldr	r3, .L89
 1117 0006 5B6B     		ldr	r3, [r3, #52]
 1118 0008 DBB1     		cbz	r3, .L84
 380:C:/Users/lenovo/Desktop/liteos/Project2/BearPi_LiteOS/components/net/at_device/wifi_esp8266\esp8266.c ****         {
 1119              		.loc 1 380 0
 1120 000a 0024     		movs	r4, #0
 1121 000c 00E0     		b	.L83
 1122              	.LVL138:
 1123              	.L85:
 380:C:/Users/lenovo/Desktop/liteos/Project2/BearPi_LiteOS/components/net/at_device/wifi_esp8266\esp8266.c ****         {
 1124              		.loc 1 380 0 is_stmt 0 discriminator 2
 1125 000e 0134     		adds	r4, r4, #1
 1126              	.LVL139:
 1127              	.L83:
 380:C:/Users/lenovo/Desktop/liteos/Project2/BearPi_LiteOS/components/net/at_device/wifi_esp8266\esp8266.c ****         {
 1128              		.loc 1 380 0 discriminator 1
 1129 0010 032C     		cmp	r4, #3
 1130 0012 16DC     		bgt	.L84
 382:C:/Users/lenovo/Desktop/liteos/Project2/BearPi_LiteOS/components/net/at_device/wifi_esp8266\esp8266.c ****             {
 1131              		.loc 1 382 0 is_stmt 1
 1132 0014 0E4B     		ldr	r3, .L89
ARM GAS  c:\Users\lenovo\AppData\Local\Temp\ccZzE1K8.s 			page 30


 1133 0016 5B6B     		ldr	r3, [r3, #52]
 1134 0018 03EB4413 		add	r3, r3, r4, lsl #5
 1135 001c 9B68     		ldr	r3, [r3, #8]
 1136 001e 012B     		cmp	r3, #1
 1137 0020 F5D1     		bne	.L85
 384:C:/Users/lenovo/Desktop/liteos/Project2/BearPi_LiteOS/components/net/at_device/wifi_esp8266\esp8266.c ****                 {
 1138              		.loc 1 384 0
 1139 0022 2046     		mov	r0, r4
 1140 0024 FFF7FEFF 		bl	esp8266_close
 1141              	.LVL140:
 1142 0028 0028     		cmp	r0, #0
 1143 002a F0D0     		beq	.L85
 386:C:/Users/lenovo/Desktop/liteos/Project2/BearPi_LiteOS/components/net/at_device/wifi_esp8266\esp8266.c ****                 }
 1144              		.loc 1 386 0
 1145 002c FFF7FEFF 		bl	at_get_time
 1146              	.LVL141:
 1147 0030 0094     		str	r4, [sp]
 1148 0032 4FF4C173 		mov	r3, #386
 1149 0036 074A     		ldr	r2, .L89+4
 1150 0038 0146     		mov	r1, r0
 1151 003a 0748     		ldr	r0, .L89+8
 1152 003c FFF7FEFF 		bl	printf
 1153              	.LVL142:
 1154 0040 E5E7     		b	.L85
 1155              	.LVL143:
 1156              	.L84:
 392:C:/Users/lenovo/Desktop/liteos/Project2/BearPi_LiteOS/components/net/at_device/wifi_esp8266\esp8266.c ****     return AT_OK;
 1157              		.loc 1 392 0
 1158 0042 034B     		ldr	r3, .L89
 1159 0044 9B6D     		ldr	r3, [r3, #88]
 1160 0046 9847     		blx	r3
 1161              	.LVL144:
 394:C:/Users/lenovo/Desktop/liteos/Project2/BearPi_LiteOS/components/net/at_device/wifi_esp8266\esp8266.c **** 
 1162              		.loc 1 394 0
 1163 0048 0020     		movs	r0, #0
 1164 004a 02B0     		add	sp, sp, #8
 1165              	.LCFI28:
 1166              		.cfi_def_cfa_offset 8
 1167              		@ sp needed
 1168 004c 10BD     		pop	{r4, pc}
 1169              	.L90:
 1170 004e 00BF     		.align	2
 1171              	.L89:
 1172 0050 00000000 		.word	at
 1173 0054 00000000 		.word	.LANCHOR2
 1174 0058 00000000 		.word	.LC27
 1175              		.cfi_endproc
 1176              	.LFE149:
 1178              		.section	.text.esp8266_get_localip,"ax",%progbits
 1179              		.align	1
 1180              		.global	esp8266_get_localip
 1181              		.syntax unified
 1182              		.thumb
 1183              		.thumb_func
 1184              		.fpu fpv4-sp-d16
 1186              	esp8266_get_localip:
 1187              	.LFB145:
ARM GAS  c:\Users\lenovo\AppData\Local\Temp\ccZzE1K8.s 			page 31


 283:C:/Users/lenovo/Desktop/liteos/Project2/BearPi_LiteOS/components/net/at_device/wifi_esp8266\esp8266.c ****     char resp[512] = {0};
 1188              		.loc 1 283 0
 1189              		.cfi_startproc
 1190              		@ args = 0, pretend = 0, frame = 520
 1191              		@ frame_needed = 0, uses_anonymous_args = 0
 1192              	.LVL145:
 1193 0000 2DE9F041 		push	{r4, r5, r6, r7, r8, lr}
 1194              	.LCFI29:
 1195              		.cfi_def_cfa_offset 24
 1196              		.cfi_offset 4, -24
 1197              		.cfi_offset 5, -20
 1198              		.cfi_offset 6, -16
 1199              		.cfi_offset 7, -12
 1200              		.cfi_offset 8, -8
 1201              		.cfi_offset 14, -4
 1202 0004 ADF5047D 		sub	sp, sp, #528
 1203              	.LCFI30:
 1204              		.cfi_def_cfa_offset 552
 1205 0008 8046     		mov	r8, r0
 1206 000a 0F46     		mov	r7, r1
 1207 000c 1646     		mov	r6, r2
 284:C:/Users/lenovo/Desktop/liteos/Project2/BearPi_LiteOS/components/net/at_device/wifi_esp8266\esp8266.c ****     int len = 512;
 1208              		.loc 1 284 0
 1209 000e 04AC     		add	r4, sp, #16
 1210 0010 4FF40075 		mov	r5, #512
 1211 0014 2A46     		mov	r2, r5
 1212              	.LVL146:
 1213 0016 0021     		movs	r1, #0
 1214              	.LVL147:
 1215 0018 2046     		mov	r0, r4
 1216              	.LVL148:
 1217 001a FFF7FEFF 		bl	memset
 1218              	.LVL149:
 285:C:/Users/lenovo/Desktop/liteos/Project2/BearPi_LiteOS/components/net/at_device/wifi_esp8266\esp8266.c ****     esp8266_cmd((int8_t *)AT_CMD_CHECK_IP, strlen((char *)AT_CMD_CHECK_IP), "OK", resp, &len);
 1219              		.loc 1 285 0
 1220 001e 03AB     		add	r3, sp, #12
 1221 0020 0395     		str	r5, [sp, #12]
 286:C:/Users/lenovo/Desktop/liteos/Project2/BearPi_LiteOS/components/net/at_device/wifi_esp8266\esp8266.c **** 
 1222              		.loc 1 286 0
 1223 0022 0093     		str	r3, [sp]
 1224 0024 2346     		mov	r3, r4
 1225 0026 2A4A     		ldr	r2, .L96
 1226 0028 0E21     		movs	r1, #14
 1227 002a 2A48     		ldr	r0, .L96+4
 1228 002c FFF7FEFF 		bl	esp8266_cmd
 1229              	.LVL150:
 288:C:/Users/lenovo/Desktop/liteos/Project2/BearPi_LiteOS/components/net/at_device/wifi_esp8266\esp8266.c ****     char *p1, *p2;
 1230              		.loc 1 288 0
 1231 0030 FFF7FEFF 		bl	at_get_time
 1232              	.LVL151:
 1233 0034 0094     		str	r4, [sp]
 1234 0036 4FF49073 		mov	r3, #288
 1235 003a 274A     		ldr	r2, .L96+8
 1236 003c 0146     		mov	r1, r0
 1237 003e 2748     		ldr	r0, .L96+12
 1238 0040 FFF7FEFF 		bl	printf
 1239              	.LVL152:
ARM GAS  c:\Users\lenovo\AppData\Local\Temp\ccZzE1K8.s 			page 32


 290:C:/Users/lenovo/Desktop/liteos/Project2/BearPi_LiteOS/components/net/at_device/wifi_esp8266\esp8266.c ****     if (ip && p1)
 1240              		.loc 1 290 0
 1241 0044 2649     		ldr	r1, .L96+16
 1242 0046 2046     		mov	r0, r4
 1243 0048 FFF7FEFF 		bl	strstr
 1244              	.LVL153:
 291:C:/Users/lenovo/Desktop/liteos/Project2/BearPi_LiteOS/components/net/at_device/wifi_esp8266\esp8266.c ****     {
 1245              		.loc 1 291 0
 1246 004c B8F1000F 		cmp	r8, #0
 1247 0050 0FD0     		beq	.L92
 291:C:/Users/lenovo/Desktop/liteos/Project2/BearPi_LiteOS/components/net/at_device/wifi_esp8266\esp8266.c ****     {
 1248              		.loc 1 291 0 is_stmt 0 discriminator 1
 1249 0052 70B1     		cbz	r0, .L92
 293:C:/Users/lenovo/Desktop/liteos/Project2/BearPi_LiteOS/components/net/at_device/wifi_esp8266\esp8266.c ****         p2 = strstr(p1 + 1, "\"");
 1250              		.loc 1 293 0 is_stmt 1
 1251 0054 2221     		movs	r1, #34
 1252 0056 FFF7FEFF 		bl	strchr
 1253              	.LVL154:
 1254 005a 0446     		mov	r4, r0
 1255              	.LVL155:
 294:C:/Users/lenovo/Desktop/liteos/Project2/BearPi_LiteOS/components/net/at_device/wifi_esp8266\esp8266.c ****         memcpy(ip, p1 + 1, p2 - p1 - 1);
 1256              		.loc 1 294 0
 1257 005c 451C     		adds	r5, r0, #1
 1258 005e 2221     		movs	r1, #34
 1259 0060 2846     		mov	r0, r5
 1260              	.LVL156:
 1261 0062 FFF7FEFF 		bl	strchr
 1262              	.LVL157:
 295:C:/Users/lenovo/Desktop/liteos/Project2/BearPi_LiteOS/components/net/at_device/wifi_esp8266\esp8266.c ****     }
 1263              		.loc 1 295 0
 1264 0066 021B     		subs	r2, r0, r4
 1265 0068 013A     		subs	r2, r2, #1
 1266 006a 2946     		mov	r1, r5
 1267 006c 4046     		mov	r0, r8
 1268              	.LVL158:
 1269 006e FFF7FEFF 		bl	memcpy
 1270              	.LVL159:
 1271              	.L92:
 298:C:/Users/lenovo/Desktop/liteos/Project2/BearPi_LiteOS/components/net/at_device/wifi_esp8266\esp8266.c ****     if (gw && p1)
 1272              		.loc 1 298 0
 1273 0072 1C49     		ldr	r1, .L96+20
 1274 0074 04A8     		add	r0, sp, #16
 1275 0076 FFF7FEFF 		bl	strstr
 1276              	.LVL160:
 299:C:/Users/lenovo/Desktop/liteos/Project2/BearPi_LiteOS/components/net/at_device/wifi_esp8266\esp8266.c ****     {
 1277              		.loc 1 299 0
 1278 007a 7FB1     		cbz	r7, .L93
 299:C:/Users/lenovo/Desktop/liteos/Project2/BearPi_LiteOS/components/net/at_device/wifi_esp8266\esp8266.c ****     {
 1279              		.loc 1 299 0 is_stmt 0 discriminator 1
 1280 007c 70B1     		cbz	r0, .L93
 301:C:/Users/lenovo/Desktop/liteos/Project2/BearPi_LiteOS/components/net/at_device/wifi_esp8266\esp8266.c ****         p2 = strstr(p1 + 1, "\"");
 1281              		.loc 1 301 0 is_stmt 1
 1282 007e 2221     		movs	r1, #34
 1283 0080 FFF7FEFF 		bl	strchr
 1284              	.LVL161:
 1285 0084 0446     		mov	r4, r0
 1286              	.LVL162:
ARM GAS  c:\Users\lenovo\AppData\Local\Temp\ccZzE1K8.s 			page 33


 302:C:/Users/lenovo/Desktop/liteos/Project2/BearPi_LiteOS/components/net/at_device/wifi_esp8266\esp8266.c ****         memcpy(gw, p1 + 1, p2 - p1 - 1);
 1287              		.loc 1 302 0
 1288 0086 451C     		adds	r5, r0, #1
 1289 0088 2221     		movs	r1, #34
 1290 008a 2846     		mov	r0, r5
 1291              	.LVL163:
 1292 008c FFF7FEFF 		bl	strchr
 1293              	.LVL164:
 303:C:/Users/lenovo/Desktop/liteos/Project2/BearPi_LiteOS/components/net/at_device/wifi_esp8266\esp8266.c ****     }
 1294              		.loc 1 303 0
 1295 0090 021B     		subs	r2, r0, r4
 1296 0092 013A     		subs	r2, r2, #1
 1297 0094 2946     		mov	r1, r5
 1298 0096 3846     		mov	r0, r7
 1299              	.LVL165:
 1300 0098 FFF7FEFF 		bl	memcpy
 1301              	.LVL166:
 1302              	.L93:
 306:C:/Users/lenovo/Desktop/liteos/Project2/BearPi_LiteOS/components/net/at_device/wifi_esp8266\esp8266.c ****     if (mask && p1)
 1303              		.loc 1 306 0
 1304 009c 1249     		ldr	r1, .L96+24
 1305 009e 04A8     		add	r0, sp, #16
 1306 00a0 FFF7FEFF 		bl	strstr
 1307              	.LVL167:
 307:C:/Users/lenovo/Desktop/liteos/Project2/BearPi_LiteOS/components/net/at_device/wifi_esp8266\esp8266.c ****     {
 1308              		.loc 1 307 0
 1309 00a4 7EB1     		cbz	r6, .L94
 307:C:/Users/lenovo/Desktop/liteos/Project2/BearPi_LiteOS/components/net/at_device/wifi_esp8266\esp8266.c ****     {
 1310              		.loc 1 307 0 is_stmt 0 discriminator 1
 1311 00a6 70B1     		cbz	r0, .L94
 309:C:/Users/lenovo/Desktop/liteos/Project2/BearPi_LiteOS/components/net/at_device/wifi_esp8266\esp8266.c ****         p2 = strstr(p1 + 1, "\"");
 1312              		.loc 1 309 0 is_stmt 1
 1313 00a8 2221     		movs	r1, #34
 1314 00aa FFF7FEFF 		bl	strchr
 1315              	.LVL168:
 1316 00ae 0446     		mov	r4, r0
 1317              	.LVL169:
 310:C:/Users/lenovo/Desktop/liteos/Project2/BearPi_LiteOS/components/net/at_device/wifi_esp8266\esp8266.c ****         memcpy(mask, p1 + 1, p2 - p1 - 1);
 1318              		.loc 1 310 0
 1319 00b0 451C     		adds	r5, r0, #1
 1320 00b2 2221     		movs	r1, #34
 1321 00b4 2846     		mov	r0, r5
 1322              	.LVL170:
 1323 00b6 FFF7FEFF 		bl	strchr
 1324              	.LVL171:
 311:C:/Users/lenovo/Desktop/liteos/Project2/BearPi_LiteOS/components/net/at_device/wifi_esp8266\esp8266.c ****     }
 1325              		.loc 1 311 0
 1326 00ba 021B     		subs	r2, r0, r4
 1327 00bc 013A     		subs	r2, r2, #1
 1328 00be 2946     		mov	r1, r5
 1329 00c0 3046     		mov	r0, r6
 1330              	.LVL172:
 1331 00c2 FFF7FEFF 		bl	memcpy
 1332              	.LVL173:
 1333              	.L94:
 316:C:/Users/lenovo/Desktop/liteos/Project2/BearPi_LiteOS/components/net/at_device/wifi_esp8266\esp8266.c **** 
 1334              		.loc 1 316 0
ARM GAS  c:\Users\lenovo\AppData\Local\Temp\ccZzE1K8.s 			page 34


 1335 00c6 0020     		movs	r0, #0
 1336 00c8 0DF5047D 		add	sp, sp, #528
 1337              	.LCFI31:
 1338              		.cfi_def_cfa_offset 24
 1339              		@ sp needed
 1340 00cc BDE8F081 		pop	{r4, r5, r6, r7, r8, pc}
 1341              	.LVL174:
 1342              	.L97:
 1343              		.align	2
 1344              	.L96:
 1345 00d0 00000000 		.word	.LC28
 1346 00d4 04000000 		.word	.LC29
 1347 00d8 00000000 		.word	.LANCHOR3
 1348 00dc 14000000 		.word	.LC30
 1349 00e0 2C000000 		.word	.LC31
 1350 00e4 30000000 		.word	.LC32
 1351 00e8 38000000 		.word	.LC33
 1352              		.cfi_endproc
 1353              	.LFE145:
 1355              		.section	.text.esp8266_get_localmac,"ax",%progbits
 1356              		.align	1
 1357              		.global	esp8266_get_localmac
 1358              		.syntax unified
 1359              		.thumb
 1360              		.thumb_func
 1361              		.fpu fpv4-sp-d16
 1363              	esp8266_get_localmac:
 1364              	.LFB146:
 319:C:/Users/lenovo/Desktop/liteos/Project2/BearPi_LiteOS/components/net/at_device/wifi_esp8266\esp8266.c ****     char resp[512] = {0};
 1365              		.loc 1 319 0
 1366              		.cfi_startproc
 1367              		@ args = 0, pretend = 0, frame = 520
 1368              		@ frame_needed = 0, uses_anonymous_args = 0
 1369              	.LVL175:
 1370 0000 70B5     		push	{r4, r5, r6, lr}
 1371              	.LCFI32:
 1372              		.cfi_def_cfa_offset 16
 1373              		.cfi_offset 4, -16
 1374              		.cfi_offset 5, -12
 1375              		.cfi_offset 6, -8
 1376              		.cfi_offset 14, -4
 1377 0002 ADF5047D 		sub	sp, sp, #528
 1378              	.LCFI33:
 1379              		.cfi_def_cfa_offset 544
 1380 0006 0646     		mov	r6, r0
 320:C:/Users/lenovo/Desktop/liteos/Project2/BearPi_LiteOS/components/net/at_device/wifi_esp8266\esp8266.c ****     char *p1, *p2;
 1381              		.loc 1 320 0
 1382 0008 04AC     		add	r4, sp, #16
 1383 000a 4FF40075 		mov	r5, #512
 1384 000e 2A46     		mov	r2, r5
 1385 0010 0021     		movs	r1, #0
 1386 0012 2046     		mov	r0, r4
 1387              	.LVL176:
 1388 0014 FFF7FEFF 		bl	memset
 1389              	.LVL177:
 322:C:/Users/lenovo/Desktop/liteos/Project2/BearPi_LiteOS/components/net/at_device/wifi_esp8266\esp8266.c **** 
 1390              		.loc 1 322 0
ARM GAS  c:\Users\lenovo\AppData\Local\Temp\ccZzE1K8.s 			page 35


 1391 0018 03AB     		add	r3, sp, #12
 1392 001a 0395     		str	r5, [sp, #12]
 324:C:/Users/lenovo/Desktop/liteos/Project2/BearPi_LiteOS/components/net/at_device/wifi_esp8266\esp8266.c ****     AT_LOG("resp:%s", resp);
 1393              		.loc 1 324 0
 1394 001c 0093     		str	r3, [sp]
 1395 001e 2346     		mov	r3, r4
 1396 0020 134A     		ldr	r2, .L101
 1397 0022 1121     		movs	r1, #17
 1398 0024 1348     		ldr	r0, .L101+4
 1399 0026 FFF7FEFF 		bl	esp8266_cmd
 1400              	.LVL178:
 325:C:/Users/lenovo/Desktop/liteos/Project2/BearPi_LiteOS/components/net/at_device/wifi_esp8266\esp8266.c **** 
 1401              		.loc 1 325 0
 1402 002a FFF7FEFF 		bl	at_get_time
 1403              	.LVL179:
 1404 002e 0094     		str	r4, [sp]
 1405 0030 40F24513 		movw	r3, #325
 1406 0034 104A     		ldr	r2, .L101+8
 1407 0036 0146     		mov	r1, r0
 1408 0038 1048     		ldr	r0, .L101+12
 1409 003a FFF7FEFF 		bl	printf
 1410              	.LVL180:
 327:C:/Users/lenovo/Desktop/liteos/Project2/BearPi_LiteOS/components/net/at_device/wifi_esp8266\esp8266.c ****     if (mac && p1)
 1411              		.loc 1 327 0
 1412 003e 3A21     		movs	r1, #58
 1413 0040 2046     		mov	r0, r4
 1414 0042 FFF7FEFF 		bl	strchr
 1415              	.LVL181:
 328:C:/Users/lenovo/Desktop/liteos/Project2/BearPi_LiteOS/components/net/at_device/wifi_esp8266\esp8266.c ****     {
 1416              		.loc 1 328 0
 1417 0046 7EB1     		cbz	r6, .L99
 328:C:/Users/lenovo/Desktop/liteos/Project2/BearPi_LiteOS/components/net/at_device/wifi_esp8266\esp8266.c ****     {
 1418              		.loc 1 328 0 is_stmt 0 discriminator 1
 1419 0048 70B1     		cbz	r0, .L99
 330:C:/Users/lenovo/Desktop/liteos/Project2/BearPi_LiteOS/components/net/at_device/wifi_esp8266\esp8266.c ****         p2 = strstr(p1 + 1, "\"");
 1420              		.loc 1 330 0 is_stmt 1
 1421 004a 2221     		movs	r1, #34
 1422 004c FFF7FEFF 		bl	strchr
 1423              	.LVL182:
 1424 0050 0446     		mov	r4, r0
 1425              	.LVL183:
 331:C:/Users/lenovo/Desktop/liteos/Project2/BearPi_LiteOS/components/net/at_device/wifi_esp8266\esp8266.c ****         memcpy(mac, p1 + 1, p2 - p1 - 1);
 1426              		.loc 1 331 0
 1427 0052 451C     		adds	r5, r0, #1
 1428 0054 2221     		movs	r1, #34
 1429 0056 2846     		mov	r0, r5
 1430              	.LVL184:
 1431 0058 FFF7FEFF 		bl	strchr
 1432              	.LVL185:
 332:C:/Users/lenovo/Desktop/liteos/Project2/BearPi_LiteOS/components/net/at_device/wifi_esp8266\esp8266.c ****     }
 1433              		.loc 1 332 0
 1434 005c 021B     		subs	r2, r0, r4
 1435 005e 013A     		subs	r2, r2, #1
 1436 0060 2946     		mov	r1, r5
 1437 0062 3046     		mov	r0, r6
 1438              	.LVL186:
 1439 0064 FFF7FEFF 		bl	memcpy
ARM GAS  c:\Users\lenovo\AppData\Local\Temp\ccZzE1K8.s 			page 36


 1440              	.LVL187:
 1441              	.L99:
 338:C:/Users/lenovo/Desktop/liteos/Project2/BearPi_LiteOS/components/net/at_device/wifi_esp8266\esp8266.c **** 
 1442              		.loc 1 338 0
 1443 0068 0020     		movs	r0, #0
 1444 006a 0DF5047D 		add	sp, sp, #528
 1445              	.LCFI34:
 1446              		.cfi_def_cfa_offset 16
 1447              		@ sp needed
 1448 006e 70BD     		pop	{r4, r5, r6, pc}
 1449              	.LVL188:
 1450              	.L102:
 1451              		.align	2
 1452              	.L101:
 1453 0070 00000000 		.word	.LC28
 1454 0074 00000000 		.word	.LC34
 1455 0078 00000000 		.word	.LANCHOR4
 1456 007c 14000000 		.word	.LC30
 1457              		.cfi_endproc
 1458              	.LFE146:
 1460              		.section	.text.esp8266_bind,"ax",%progbits
 1461              		.align	1
 1462              		.global	esp8266_bind
 1463              		.syntax unified
 1464              		.thumb
 1465              		.thumb_func
 1466              		.fpu fpv4-sp-d16
 1468              	esp8266_bind:
 1469              	.LFB147:
 341:C:/Users/lenovo/Desktop/liteos/Project2/BearPi_LiteOS/components/net/at_device/wifi_esp8266\esp8266.c **** 	int ret = AT_FAILED;
 1470              		.loc 1 341 0
 1471              		.cfi_startproc
 1472              		@ args = 0, pretend = 0, frame = 72
 1473              		@ frame_needed = 0, uses_anonymous_args = 0
 1474              	.LVL189:
 1475 0000 70B5     		push	{r4, r5, r6, lr}
 1476              	.LCFI35:
 1477              		.cfi_def_cfa_offset 16
 1478              		.cfi_offset 4, -16
 1479              		.cfi_offset 5, -12
 1480              		.cfi_offset 6, -8
 1481              		.cfi_offset 14, -4
 1482 0002 96B0     		sub	sp, sp, #88
 1483              	.LCFI36:
 1484              		.cfi_def_cfa_offset 104
 1485 0004 0C46     		mov	r4, r1
 1486 0006 1646     		mov	r6, r2
 1487              	.LVL190:
 343:C:/Users/lenovo/Desktop/liteos/Project2/BearPi_LiteOS/components/net/at_device/wifi_esp8266\esp8266.c **** 	char cmd[64] = {0};
 1488              		.loc 1 343 0
 1489 0008 0021     		movs	r1, #0
 1490              	.LVL191:
 1491 000a 1591     		str	r1, [sp, #84]
 344:C:/Users/lenovo/Desktop/liteos/Project2/BearPi_LiteOS/components/net/at_device/wifi_esp8266\esp8266.c **** 
 1492              		.loc 1 344 0
 1493 000c 4022     		movs	r2, #64
 1494              	.LVL192:
ARM GAS  c:\Users\lenovo\AppData\Local\Temp\ccZzE1K8.s 			page 37


 1495 000e 05A8     		add	r0, sp, #20
 1496              	.LVL193:
 1497 0010 FFF7FEFF 		bl	memset
 1498              	.LVL194:
 346:C:/Users/lenovo/Desktop/liteos/Project2/BearPi_LiteOS/components/net/at_device/wifi_esp8266\esp8266.c **** 	AT_LOG("get port = %d\r\n", port_i);
 1499              		.loc 1 346 0
 1500 0014 15AA     		add	r2, sp, #84
 1501 0016 2E49     		ldr	r1, .L113
 1502 0018 2046     		mov	r0, r4
 1503 001a FFF7FEFF 		bl	sscanf
 1504              	.LVL195:
 347:C:/Users/lenovo/Desktop/liteos/Project2/BearPi_LiteOS/components/net/at_device/wifi_esp8266\esp8266.c **** 
 1505              		.loc 1 347 0
 1506 001e FFF7FEFF 		bl	at_get_time
 1507              	.LVL196:
 1508 0022 159B     		ldr	r3, [sp, #84]
 1509 0024 0093     		str	r3, [sp]
 1510 0026 40F25B13 		movw	r3, #347
 1511 002a 2A4A     		ldr	r2, .L113+4
 1512 002c 0146     		mov	r1, r0
 1513 002e 2A48     		ldr	r0, .L113+8
 1514 0030 FFF7FEFF 		bl	printf
 1515              	.LVL197:
 349:C:/Users/lenovo/Desktop/liteos/Project2/BearPi_LiteOS/components/net/at_device/wifi_esp8266\esp8266.c **** 	{
 1516              		.loc 1 349 0
 1517 0034 294B     		ldr	r3, .L113+12
 1518 0036 1B6B     		ldr	r3, [r3, #48]
 1519 0038 012B     		cmp	r3, #1
 1520 003a 29D1     		bne	.L110
 355:C:/Users/lenovo/Desktop/liteos/Project2/BearPi_LiteOS/components/net/at_device/wifi_esp8266\esp8266.c ****     ret = LOS_QueueCreate("dataQueue", 16, &at.linkid[id].qid, 0, sizeof(QUEUE_BUFF));
 1521              		.loc 1 355 0
 1522 003c 274D     		ldr	r5, .L113+12
 1523 003e 2B6D     		ldr	r3, [r5, #80]
 1524 0040 9847     		blx	r3
 1525              	.LVL198:
 1526 0042 0446     		mov	r4, r0
 1527              	.LVL199:
 356:C:/Users/lenovo/Desktop/liteos/Project2/BearPi_LiteOS/components/net/at_device/wifi_esp8266\esp8266.c ****     if (ret != LOS_OK)
 1528              		.loc 1 356 0
 1529 0044 6A6B     		ldr	r2, [r5, #52]
 1530 0046 4501     		lsls	r5, r0, #5
 1531 0048 2A44     		add	r2, r2, r5
 1532 004a 3423     		movs	r3, #52
 1533 004c 0093     		str	r3, [sp]
 1534 004e 0023     		movs	r3, #0
 1535 0050 0432     		adds	r2, r2, #4
 1536 0052 1021     		movs	r1, #16
 1537 0054 2248     		ldr	r0, .L113+16
 1538              	.LVL200:
 1539 0056 FFF7FEFF 		bl	LOS_QueueCreate
 1540              	.LVL201:
 357:C:/Users/lenovo/Desktop/liteos/Project2/BearPi_LiteOS/components/net/at_device/wifi_esp8266\esp8266.c ****     {
 1541              		.loc 1 357 0
 1542 005a 28BB     		cbnz	r0, .L111
 364:C:/Users/lenovo/Desktop/liteos/Project2/BearPi_LiteOS/components/net/at_device/wifi_esp8266\esp8266.c **** 
 1543              		.loc 1 364 0
 1544 005c 012E     		cmp	r6, #1
ARM GAS  c:\Users\lenovo\AppData\Local\Temp\ccZzE1K8.s 			page 38


 1545 005e 34D0     		beq	.L112
 1546 0060 204B     		ldr	r3, .L113+20
 1547              	.L107:
 364:C:/Users/lenovo/Desktop/liteos/Project2/BearPi_LiteOS/components/net/at_device/wifi_esp8266\esp8266.c **** 
 1548              		.loc 1 364 0 is_stmt 0 discriminator 4
 1549 0062 159A     		ldr	r2, [sp, #84]
 1550 0064 0292     		str	r2, [sp, #8]
 1551 0066 0193     		str	r3, [sp, #4]
 1552 0068 0094     		str	r4, [sp]
 1553 006a 1F4B     		ldr	r3, .L113+24
 1554 006c 1F4A     		ldr	r2, .L113+28
 1555 006e 4021     		movs	r1, #64
 1556 0070 05A8     		add	r0, sp, #20
 1557              	.LVL202:
 1558 0072 FFF7FEFF 		bl	snprintf
 1559              	.LVL203:
 366:C:/Users/lenovo/Desktop/liteos/Project2/BearPi_LiteOS/components/net/at_device/wifi_esp8266\esp8266.c **** 	return id;
 1560              		.loc 1 366 0 is_stmt 1 discriminator 4
 1561 0076 05A8     		add	r0, sp, #20
 1562 0078 FFF7FEFF 		bl	strlen
 1563              	.LVL204:
 1564 007c 0023     		movs	r3, #0
 1565 007e 0093     		str	r3, [sp]
 1566 0080 1B4A     		ldr	r2, .L113+32
 1567 0082 0146     		mov	r1, r0
 1568 0084 05A8     		add	r0, sp, #20
 1569 0086 FFF7FEFF 		bl	esp8266_cmd
 1570              	.LVL205:
 1571              	.L103:
 368:C:/Users/lenovo/Desktop/liteos/Project2/BearPi_LiteOS/components/net/at_device/wifi_esp8266\esp8266.c **** int32_t esp8266_recv_cb(int32_t id)
 1572              		.loc 1 368 0
 1573 008a 2046     		mov	r0, r4
 1574 008c 16B0     		add	sp, sp, #88
 1575              	.LCFI37:
 1576              		.cfi_remember_state
 1577              		.cfi_def_cfa_offset 16
 1578              		@ sp needed
 1579 008e 70BD     		pop	{r4, r5, r6, pc}
 1580              	.LVL206:
 1581              	.L110:
 1582              	.LCFI38:
 1583              		.cfi_restore_state
 351:C:/Users/lenovo/Desktop/liteos/Project2/BearPi_LiteOS/components/net/at_device/wifi_esp8266\esp8266.c **** 		return -1;
 1584              		.loc 1 351 0
 1585 0090 FFF7FEFF 		bl	at_get_time
 1586              	.LVL207:
 1587 0094 40F25F13 		movw	r3, #351
 1588 0098 0E4A     		ldr	r2, .L113+4
 1589 009a 0146     		mov	r1, r0
 1590 009c 1548     		ldr	r0, .L113+36
 1591 009e FFF7FEFF 		bl	printf
 1592              	.LVL208:
 352:C:/Users/lenovo/Desktop/liteos/Project2/BearPi_LiteOS/components/net/at_device/wifi_esp8266\esp8266.c **** 	}
 1593              		.loc 1 352 0
 1594 00a2 4FF0FF34 		mov	r4, #-1
 1595              	.LVL209:
 1596 00a6 F0E7     		b	.L103
ARM GAS  c:\Users\lenovo\AppData\Local\Temp\ccZzE1K8.s 			page 39


 1597              	.LVL210:
 1598              	.L111:
 359:C:/Users/lenovo/Desktop/liteos/Project2/BearPi_LiteOS/components/net/at_device/wifi_esp8266\esp8266.c ****         at.linkid[id].usable = AT_LINK_UNUSE;
 1599              		.loc 1 359 0
 1600 00a8 FFF7FEFF 		bl	at_get_time
 1601              	.LVL211:
 1602 00ac 40F26713 		movw	r3, #359
 1603 00b0 084A     		ldr	r2, .L113+4
 1604 00b2 0146     		mov	r1, r0
 1605 00b4 1048     		ldr	r0, .L113+40
 1606 00b6 FFF7FEFF 		bl	printf
 1607              	.LVL212:
 360:C:/Users/lenovo/Desktop/liteos/Project2/BearPi_LiteOS/components/net/at_device/wifi_esp8266\esp8266.c ****         return AT_FAILED;
 1608              		.loc 1 360 0
 1609 00ba 084B     		ldr	r3, .L113+12
 1610 00bc 5B6B     		ldr	r3, [r3, #52]
 1611 00be 1D44     		add	r5, r5, r3
 1612 00c0 0023     		movs	r3, #0
 1613 00c2 AB60     		str	r3, [r5, #8]
 361:C:/Users/lenovo/Desktop/liteos/Project2/BearPi_LiteOS/components/net/at_device/wifi_esp8266\esp8266.c ****     }
 1614              		.loc 1 361 0
 1615 00c4 4FF0FF34 		mov	r4, #-1
 1616              	.LVL213:
 1617 00c8 DFE7     		b	.L103
 1618              	.LVL214:
 1619              	.L112:
 364:C:/Users/lenovo/Desktop/liteos/Project2/BearPi_LiteOS/components/net/at_device/wifi_esp8266\esp8266.c **** 
 1620              		.loc 1 364 0
 1621 00ca 0C4B     		ldr	r3, .L113+44
 1622 00cc C9E7     		b	.L107
 1623              	.L114:
 1624 00ce 00BF     		.align	2
 1625              	.L113:
 1626 00d0 90000000 		.word	.LC20
 1627 00d4 00000000 		.word	.LANCHOR5
 1628 00d8 00000000 		.word	.LC35
 1629 00dc 00000000 		.word	at
 1630 00e0 94000000 		.word	.LC21
 1631 00e4 04000000 		.word	.LC14
 1632 00e8 2C000000 		.word	.LC16
 1633 00ec 50000000 		.word	.LC37
 1634 00f0 C8000000 		.word	.LC23
 1635 00f4 20000000 		.word	.LC36
 1636 00f8 A0000000 		.word	.LC22
 1637 00fc 00000000 		.word	.LC13
 1638              		.cfi_endproc
 1639              	.LFE147:
 1641              		.section	.text.esp8266_echo_off,"ax",%progbits
 1642              		.align	1
 1643              		.global	esp8266_echo_off
 1644              		.syntax unified
 1645              		.thumb
 1646              		.thumb_func
 1647              		.fpu fpv4-sp-d16
 1649              	esp8266_echo_off:
 1650              	.LFB134:
  47:C:/Users/lenovo/Desktop/liteos/Project2/BearPi_LiteOS/components/net/at_device/wifi_esp8266\esp8266.c ****     return esp8266_cmd((int8_t *)AT_CMD_ECHO_OFF, strlen(AT_CMD_ECHO_OFF), "OK\r\n", NULL, NULL);
ARM GAS  c:\Users\lenovo\AppData\Local\Temp\ccZzE1K8.s 			page 40


 1651              		.loc 1 47 0
 1652              		.cfi_startproc
 1653              		@ args = 0, pretend = 0, frame = 0
 1654              		@ frame_needed = 0, uses_anonymous_args = 0
 1655 0000 00B5     		push	{lr}
 1656              	.LCFI39:
 1657              		.cfi_def_cfa_offset 4
 1658              		.cfi_offset 14, -4
 1659 0002 83B0     		sub	sp, sp, #12
 1660              	.LCFI40:
 1661              		.cfi_def_cfa_offset 16
  48:C:/Users/lenovo/Desktop/liteos/Project2/BearPi_LiteOS/components/net/at_device/wifi_esp8266\esp8266.c **** }
 1662              		.loc 1 48 0
 1663 0004 0023     		movs	r3, #0
 1664 0006 0093     		str	r3, [sp]
 1665 0008 034A     		ldr	r2, .L117
 1666 000a 0421     		movs	r1, #4
 1667 000c 0348     		ldr	r0, .L117+4
 1668 000e FFF7FEFF 		bl	esp8266_cmd
 1669              	.LVL215:
  49:C:/Users/lenovo/Desktop/liteos/Project2/BearPi_LiteOS/components/net/at_device/wifi_esp8266\esp8266.c **** 
 1670              		.loc 1 49 0
 1671 0012 03B0     		add	sp, sp, #12
 1672              	.LCFI41:
 1673              		.cfi_def_cfa_offset 4
 1674              		@ sp needed
 1675 0014 5DF804FB 		ldr	pc, [sp], #4
 1676              	.L118:
 1677              		.align	2
 1678              	.L117:
 1679 0018 C8000000 		.word	.LC23
 1680 001c 00000000 		.word	.LC38
 1681              		.cfi_endproc
 1682              	.LFE134:
 1684              		.section	.text.esp8266_reset,"ax",%progbits
 1685              		.align	1
 1686              		.global	esp8266_reset
 1687              		.syntax unified
 1688              		.thumb
 1689              		.thumb_func
 1690              		.fpu fpv4-sp-d16
 1692              	esp8266_reset:
 1693              	.LFB135:
  52:C:/Users/lenovo/Desktop/liteos/Project2/BearPi_LiteOS/components/net/at_device/wifi_esp8266\esp8266.c ****     return esp8266_cmd((int8_t *)AT_CMD_RST, strlen(AT_CMD_RST), "ready\r\n", NULL, NULL);
 1694              		.loc 1 52 0
 1695              		.cfi_startproc
 1696              		@ args = 0, pretend = 0, frame = 0
 1697              		@ frame_needed = 0, uses_anonymous_args = 0
 1698 0000 00B5     		push	{lr}
 1699              	.LCFI42:
 1700              		.cfi_def_cfa_offset 4
 1701              		.cfi_offset 14, -4
 1702 0002 83B0     		sub	sp, sp, #12
 1703              	.LCFI43:
 1704              		.cfi_def_cfa_offset 16
  53:C:/Users/lenovo/Desktop/liteos/Project2/BearPi_LiteOS/components/net/at_device/wifi_esp8266\esp8266.c **** }
 1705              		.loc 1 53 0
ARM GAS  c:\Users\lenovo\AppData\Local\Temp\ccZzE1K8.s 			page 41


 1706 0004 0023     		movs	r3, #0
 1707 0006 0093     		str	r3, [sp]
 1708 0008 034A     		ldr	r2, .L121
 1709 000a 0621     		movs	r1, #6
 1710 000c 0348     		ldr	r0, .L121+4
 1711 000e FFF7FEFF 		bl	esp8266_cmd
 1712              	.LVL216:
  54:C:/Users/lenovo/Desktop/liteos/Project2/BearPi_LiteOS/components/net/at_device/wifi_esp8266\esp8266.c **** 
 1713              		.loc 1 54 0
 1714 0012 03B0     		add	sp, sp, #12
 1715              	.LCFI44:
 1716              		.cfi_def_cfa_offset 4
 1717              		@ sp needed
 1718 0014 5DF804FB 		ldr	pc, [sp], #4
 1719              	.L122:
 1720              		.align	2
 1721              	.L121:
 1722 0018 00000000 		.word	.LC39
 1723 001c 08000000 		.word	.LC40
 1724              		.cfi_endproc
 1725              	.LFE135:
 1727              		.section	.text.esp8266_choose_net_mode,"ax",%progbits
 1728              		.align	1
 1729              		.global	esp8266_choose_net_mode
 1730              		.syntax unified
 1731              		.thumb
 1732              		.thumb_func
 1733              		.fpu fpv4-sp-d16
 1735              	esp8266_choose_net_mode:
 1736              	.LFB136:
  57:C:/Users/lenovo/Desktop/liteos/Project2/BearPi_LiteOS/components/net/at_device/wifi_esp8266\esp8266.c ****     char cmd[64] = {0};
 1737              		.loc 1 57 0
 1738              		.cfi_startproc
 1739              		@ args = 0, pretend = 0, frame = 64
 1740              		@ frame_needed = 0, uses_anonymous_args = 0
 1741              	.LVL217:
 1742 0000 30B5     		push	{r4, r5, lr}
 1743              	.LCFI45:
 1744              		.cfi_def_cfa_offset 12
 1745              		.cfi_offset 4, -12
 1746              		.cfi_offset 5, -8
 1747              		.cfi_offset 14, -4
 1748 0002 93B0     		sub	sp, sp, #76
 1749              	.LCFI46:
 1750              		.cfi_def_cfa_offset 88
 1751 0004 0546     		mov	r5, r0
  58:C:/Users/lenovo/Desktop/liteos/Project2/BearPi_LiteOS/components/net/at_device/wifi_esp8266\esp8266.c ****     snprintf(cmd, 64, "%s=%d", AT_CMD_CWMODE, (int)m);
 1752              		.loc 1 58 0
 1753 0006 4024     		movs	r4, #64
 1754 0008 2246     		mov	r2, r4
 1755 000a 0021     		movs	r1, #0
 1756 000c 02A8     		add	r0, sp, #8
 1757              	.LVL218:
 1758 000e FFF7FEFF 		bl	memset
 1759              	.LVL219:
  59:C:/Users/lenovo/Desktop/liteos/Project2/BearPi_LiteOS/components/net/at_device/wifi_esp8266\esp8266.c ****     return esp8266_cmd((int8_t *)cmd, strlen(cmd), "OK\r\n", NULL, NULL);
 1760              		.loc 1 59 0
ARM GAS  c:\Users\lenovo\AppData\Local\Temp\ccZzE1K8.s 			page 42


 1761 0012 0095     		str	r5, [sp]
 1762 0014 084B     		ldr	r3, .L125
 1763 0016 094A     		ldr	r2, .L125+4
 1764 0018 2146     		mov	r1, r4
 1765 001a 02A8     		add	r0, sp, #8
 1766 001c FFF7FEFF 		bl	snprintf
 1767              	.LVL220:
  60:C:/Users/lenovo/Desktop/liteos/Project2/BearPi_LiteOS/components/net/at_device/wifi_esp8266\esp8266.c **** }
 1768              		.loc 1 60 0
 1769 0020 02A8     		add	r0, sp, #8
 1770 0022 FFF7FEFF 		bl	strlen
 1771              	.LVL221:
 1772 0026 0023     		movs	r3, #0
 1773 0028 0093     		str	r3, [sp]
 1774 002a 054A     		ldr	r2, .L125+8
 1775 002c 0146     		mov	r1, r0
 1776 002e 02A8     		add	r0, sp, #8
 1777 0030 FFF7FEFF 		bl	esp8266_cmd
 1778              	.LVL222:
  61:C:/Users/lenovo/Desktop/liteos/Project2/BearPi_LiteOS/components/net/at_device/wifi_esp8266\esp8266.c **** 
 1779              		.loc 1 61 0
 1780 0034 13B0     		add	sp, sp, #76
 1781              	.LCFI47:
 1782              		.cfi_def_cfa_offset 12
 1783              		@ sp needed
 1784 0036 30BD     		pop	{r4, r5, pc}
 1785              	.L126:
 1786              		.align	2
 1787              	.L125:
 1788 0038 00000000 		.word	.LC41
 1789 003c 10000000 		.word	.LC42
 1790 0040 C8000000 		.word	.LC23
 1791              		.cfi_endproc
 1792              	.LFE136:
 1794              		.section	.text.esp8266_set_mux_mode,"ax",%progbits
 1795              		.align	1
 1796              		.global	esp8266_set_mux_mode
 1797              		.syntax unified
 1798              		.thumb
 1799              		.thumb_func
 1800              		.fpu fpv4-sp-d16
 1802              	esp8266_set_mux_mode:
 1803              	.LFB137:
  64:C:/Users/lenovo/Desktop/liteos/Project2/BearPi_LiteOS/components/net/at_device/wifi_esp8266\esp8266.c ****     char cmd[64] = {0};
 1804              		.loc 1 64 0
 1805              		.cfi_startproc
 1806              		@ args = 0, pretend = 0, frame = 64
 1807              		@ frame_needed = 0, uses_anonymous_args = 0
 1808              	.LVL223:
 1809 0000 30B5     		push	{r4, r5, lr}
 1810              	.LCFI48:
 1811              		.cfi_def_cfa_offset 12
 1812              		.cfi_offset 4, -12
 1813              		.cfi_offset 5, -8
 1814              		.cfi_offset 14, -4
 1815 0002 93B0     		sub	sp, sp, #76
 1816              	.LCFI49:
ARM GAS  c:\Users\lenovo\AppData\Local\Temp\ccZzE1K8.s 			page 43


 1817              		.cfi_def_cfa_offset 88
 1818 0004 0546     		mov	r5, r0
  65:C:/Users/lenovo/Desktop/liteos/Project2/BearPi_LiteOS/components/net/at_device/wifi_esp8266\esp8266.c ****     snprintf(cmd, 64, "%s=%d", AT_CMD_MUX, (int)m);
 1819              		.loc 1 65 0
 1820 0006 4024     		movs	r4, #64
 1821 0008 2246     		mov	r2, r4
 1822 000a 0021     		movs	r1, #0
 1823 000c 02A8     		add	r0, sp, #8
 1824              	.LVL224:
 1825 000e FFF7FEFF 		bl	memset
 1826              	.LVL225:
  66:C:/Users/lenovo/Desktop/liteos/Project2/BearPi_LiteOS/components/net/at_device/wifi_esp8266\esp8266.c ****     return esp8266_cmd((int8_t *)cmd, strlen(cmd), "OK\r\n", NULL, NULL);
 1827              		.loc 1 66 0
 1828 0012 0095     		str	r5, [sp]
 1829 0014 084B     		ldr	r3, .L129
 1830 0016 094A     		ldr	r2, .L129+4
 1831 0018 2146     		mov	r1, r4
 1832 001a 02A8     		add	r0, sp, #8
 1833 001c FFF7FEFF 		bl	snprintf
 1834              	.LVL226:
  67:C:/Users/lenovo/Desktop/liteos/Project2/BearPi_LiteOS/components/net/at_device/wifi_esp8266\esp8266.c **** }
 1835              		.loc 1 67 0
 1836 0020 02A8     		add	r0, sp, #8
 1837 0022 FFF7FEFF 		bl	strlen
 1838              	.LVL227:
 1839 0026 0023     		movs	r3, #0
 1840 0028 0093     		str	r3, [sp]
 1841 002a 054A     		ldr	r2, .L129+8
 1842 002c 0146     		mov	r1, r0
 1843 002e 02A8     		add	r0, sp, #8
 1844 0030 FFF7FEFF 		bl	esp8266_cmd
 1845              	.LVL228:
  68:C:/Users/lenovo/Desktop/liteos/Project2/BearPi_LiteOS/components/net/at_device/wifi_esp8266\esp8266.c **** int32_t esp8266_joinap(char *pssid, char *ppasswd)
 1846              		.loc 1 68 0
 1847 0034 13B0     		add	sp, sp, #76
 1848              	.LCFI50:
 1849              		.cfi_def_cfa_offset 12
 1850              		@ sp needed
 1851 0036 30BD     		pop	{r4, r5, pc}
 1852              	.LVL229:
 1853              	.L130:
 1854              		.align	2
 1855              	.L129:
 1856 0038 00000000 		.word	.LC43
 1857 003c 10000000 		.word	.LC42
 1858 0040 C8000000 		.word	.LC23
 1859              		.cfi_endproc
 1860              	.LFE137:
 1862              		.section	.text.esp8266_joinap,"ax",%progbits
 1863              		.align	1
 1864              		.global	esp8266_joinap
 1865              		.syntax unified
 1866              		.thumb
 1867              		.thumb_func
 1868              		.fpu fpv4-sp-d16
 1870              	esp8266_joinap:
 1871              	.LFB138:
ARM GAS  c:\Users\lenovo\AppData\Local\Temp\ccZzE1K8.s 			page 44


  70:C:/Users/lenovo/Desktop/liteos/Project2/BearPi_LiteOS/components/net/at_device/wifi_esp8266\esp8266.c ****     char cmd[64] = {0};
 1872              		.loc 1 70 0
 1873              		.cfi_startproc
 1874              		@ args = 0, pretend = 0, frame = 64
 1875              		@ frame_needed = 0, uses_anonymous_args = 0
 1876              	.LVL230:
 1877 0000 70B5     		push	{r4, r5, r6, lr}
 1878              	.LCFI51:
 1879              		.cfi_def_cfa_offset 16
 1880              		.cfi_offset 4, -16
 1881              		.cfi_offset 5, -12
 1882              		.cfi_offset 6, -8
 1883              		.cfi_offset 14, -4
 1884 0002 92B0     		sub	sp, sp, #72
 1885              	.LCFI52:
 1886              		.cfi_def_cfa_offset 88
 1887 0004 0546     		mov	r5, r0
 1888 0006 0E46     		mov	r6, r1
  71:C:/Users/lenovo/Desktop/liteos/Project2/BearPi_LiteOS/components/net/at_device/wifi_esp8266\esp8266.c ****     snprintf(cmd, 64, "%s=\"%s\",\"%s\"", AT_CMD_JOINAP, pssid, ppasswd);
 1889              		.loc 1 71 0
 1890 0008 4024     		movs	r4, #64
 1891 000a 2246     		mov	r2, r4
 1892 000c 0021     		movs	r1, #0
 1893              	.LVL231:
 1894 000e 02A8     		add	r0, sp, #8
 1895              	.LVL232:
 1896 0010 FFF7FEFF 		bl	memset
 1897              	.LVL233:
  72:C:/Users/lenovo/Desktop/liteos/Project2/BearPi_LiteOS/components/net/at_device/wifi_esp8266\esp8266.c ****     return esp8266_cmd((int8_t *)cmd, strlen(cmd), "OK\r\n", NULL, NULL);
 1898              		.loc 1 72 0
 1899 0014 0196     		str	r6, [sp, #4]
 1900 0016 0095     		str	r5, [sp]
 1901 0018 084B     		ldr	r3, .L133
 1902 001a 094A     		ldr	r2, .L133+4
 1903 001c 2146     		mov	r1, r4
 1904 001e 02A8     		add	r0, sp, #8
 1905 0020 FFF7FEFF 		bl	snprintf
 1906              	.LVL234:
  73:C:/Users/lenovo/Desktop/liteos/Project2/BearPi_LiteOS/components/net/at_device/wifi_esp8266\esp8266.c **** }
 1907              		.loc 1 73 0
 1908 0024 02A8     		add	r0, sp, #8
 1909 0026 FFF7FEFF 		bl	strlen
 1910              	.LVL235:
 1911 002a 0023     		movs	r3, #0
 1912 002c 0093     		str	r3, [sp]
 1913 002e 054A     		ldr	r2, .L133+8
 1914 0030 0146     		mov	r1, r0
 1915 0032 02A8     		add	r0, sp, #8
 1916 0034 FFF7FEFF 		bl	esp8266_cmd
 1917              	.LVL236:
  74:C:/Users/lenovo/Desktop/liteos/Project2/BearPi_LiteOS/components/net/at_device/wifi_esp8266\esp8266.c **** 
 1918              		.loc 1 74 0
 1919 0038 12B0     		add	sp, sp, #72
 1920              	.LCFI53:
 1921              		.cfi_def_cfa_offset 16
 1922              		@ sp needed
 1923 003a 70BD     		pop	{r4, r5, r6, pc}
ARM GAS  c:\Users\lenovo\AppData\Local\Temp\ccZzE1K8.s 			page 45


 1924              	.LVL237:
 1925              	.L134:
 1926              		.align	2
 1927              	.L133:
 1928 003c 00000000 		.word	.LC44
 1929 0040 10000000 		.word	.LC45
 1930 0044 C8000000 		.word	.LC23
 1931              		.cfi_endproc
 1932              	.LFE138:
 1934              		.section	.text.esp8266_show_dinfo,"ax",%progbits
 1935              		.align	1
 1936              		.global	esp8266_show_dinfo
 1937              		.syntax unified
 1938              		.thumb
 1939              		.thumb_func
 1940              		.fpu fpv4-sp-d16
 1942              	esp8266_show_dinfo:
 1943              	.LFB150:
 397:C:/Users/lenovo/Desktop/liteos/Project2/BearPi_LiteOS/components/net/at_device/wifi_esp8266\esp8266.c ****     char cmd[64] = {0};
 1944              		.loc 1 397 0
 1945              		.cfi_startproc
 1946              		@ args = 0, pretend = 0, frame = 64
 1947              		@ frame_needed = 0, uses_anonymous_args = 0
 1948              	.LVL238:
 1949 0000 30B5     		push	{r4, r5, lr}
 1950              	.LCFI54:
 1951              		.cfi_def_cfa_offset 12
 1952              		.cfi_offset 4, -12
 1953              		.cfi_offset 5, -8
 1954              		.cfi_offset 14, -4
 1955 0002 93B0     		sub	sp, sp, #76
 1956              	.LCFI55:
 1957              		.cfi_def_cfa_offset 88
 1958 0004 0546     		mov	r5, r0
 398:C:/Users/lenovo/Desktop/liteos/Project2/BearPi_LiteOS/components/net/at_device/wifi_esp8266\esp8266.c ****     snprintf(cmd, 64, "%s=%ld", AT_CMD_SHOW_DINFO, s);
 1959              		.loc 1 398 0
 1960 0006 4024     		movs	r4, #64
 1961 0008 2246     		mov	r2, r4
 1962 000a 0021     		movs	r1, #0
 1963 000c 02A8     		add	r0, sp, #8
 1964              	.LVL239:
 1965 000e FFF7FEFF 		bl	memset
 1966              	.LVL240:
 399:C:/Users/lenovo/Desktop/liteos/Project2/BearPi_LiteOS/components/net/at_device/wifi_esp8266\esp8266.c ****     return esp8266_cmd((int8_t *)cmd, strlen(cmd), "OK\r\n", NULL, NULL);
 1967              		.loc 1 399 0
 1968 0012 0095     		str	r5, [sp]
 1969 0014 084B     		ldr	r3, .L137
 1970 0016 094A     		ldr	r2, .L137+4
 1971 0018 2146     		mov	r1, r4
 1972 001a 02A8     		add	r0, sp, #8
 1973 001c FFF7FEFF 		bl	snprintf
 1974              	.LVL241:
 400:C:/Users/lenovo/Desktop/liteos/Project2/BearPi_LiteOS/components/net/at_device/wifi_esp8266\esp8266.c **** }
 1975              		.loc 1 400 0
 1976 0020 02A8     		add	r0, sp, #8
 1977 0022 FFF7FEFF 		bl	strlen
 1978              	.LVL242:
ARM GAS  c:\Users\lenovo\AppData\Local\Temp\ccZzE1K8.s 			page 46


 1979 0026 0023     		movs	r3, #0
 1980 0028 0093     		str	r3, [sp]
 1981 002a 054A     		ldr	r2, .L137+8
 1982 002c 0146     		mov	r1, r0
 1983 002e 02A8     		add	r0, sp, #8
 1984 0030 FFF7FEFF 		bl	esp8266_cmd
 1985              	.LVL243:
 401:C:/Users/lenovo/Desktop/liteos/Project2/BearPi_LiteOS/components/net/at_device/wifi_esp8266\esp8266.c **** 
 1986              		.loc 1 401 0
 1987 0034 13B0     		add	sp, sp, #76
 1988              	.LCFI56:
 1989              		.cfi_def_cfa_offset 12
 1990              		@ sp needed
 1991 0036 30BD     		pop	{r4, r5, pc}
 1992              	.LVL244:
 1993              	.L138:
 1994              		.align	2
 1995              	.L137:
 1996 0038 00000000 		.word	.LC46
 1997 003c 0C000000 		.word	.LC26
 1998 0040 C8000000 		.word	.LC23
 1999              		.cfi_endproc
 2000              	.LFE150:
 2002              		.section	.text.esp8266_init,"ax",%progbits
 2003              		.align	1
 2004              		.global	esp8266_init
 2005              		.syntax unified
 2006              		.thumb
 2007              		.thumb_func
 2008              		.fpu fpv4-sp-d16
 2010              	esp8266_init:
 2011              	.LFB152:
 407:C:/Users/lenovo/Desktop/liteos/Project2/BearPi_LiteOS/components/net/at_device/wifi_esp8266\esp8266.c **** 
 408:C:/Users/lenovo/Desktop/liteos/Project2/BearPi_LiteOS/components/net/at_device/wifi_esp8266\esp8266.c **** int32_t esp8266_init()
 409:C:/Users/lenovo/Desktop/liteos/Project2/BearPi_LiteOS/components/net/at_device/wifi_esp8266\esp8266.c **** {
 2012              		.loc 1 409 0
 2013              		.cfi_startproc
 2014              		@ args = 0, pretend = 0, frame = 40
 2015              		@ frame_needed = 0, uses_anonymous_args = 0
 2016 0000 70B5     		push	{r4, r5, r6, lr}
 2017              	.LCFI57:
 2018              		.cfi_def_cfa_offset 16
 2019              		.cfi_offset 4, -16
 2020              		.cfi_offset 5, -12
 2021              		.cfi_offset 6, -8
 2022              		.cfi_offset 14, -4
 2023 0002 8EB0     		sub	sp, sp, #56
 2024              	.LCFI58:
 2025              		.cfi_def_cfa_offset 72
 410:C:/Users/lenovo/Desktop/liteos/Project2/BearPi_LiteOS/components/net/at_device/wifi_esp8266\esp8266.c ****     at_config at_user_conf =
 2026              		.loc 1 410 0
 2027 0004 05AC     		add	r4, sp, #20
 2028 0006 254D     		ldr	r5, .L143
 2029 0008 0FCD     		ldmia	r5!, {r0, r1, r2, r3}
 2030 000a 0FC4     		stmia	r4!, {r0, r1, r2, r3}
 2031 000c 0FCD     		ldmia	r5!, {r0, r1, r2, r3}
 2032 000e 0FC4     		stmia	r4!, {r0, r1, r2, r3}
ARM GAS  c:\Users\lenovo\AppData\Local\Temp\ccZzE1K8.s 			page 47


 2033 0010 2B68     		ldr	r3, [r5]
 2034 0012 2360     		str	r3, [r4]
 411:C:/Users/lenovo/Desktop/liteos/Project2/BearPi_LiteOS/components/net/at_device/wifi_esp8266\esp8266.c ****     {
 412:C:/Users/lenovo/Desktop/liteos/Project2/BearPi_LiteOS/components/net/at_device/wifi_esp8266\esp8266.c ****         .name = AT_MODU_NAME,
 413:C:/Users/lenovo/Desktop/liteos/Project2/BearPi_LiteOS/components/net/at_device/wifi_esp8266\esp8266.c ****         .usart_port = AT_USART_PORT,
 414:C:/Users/lenovo/Desktop/liteos/Project2/BearPi_LiteOS/components/net/at_device/wifi_esp8266\esp8266.c ****         .buardrate = AT_BUARDRATE,
 415:C:/Users/lenovo/Desktop/liteos/Project2/BearPi_LiteOS/components/net/at_device/wifi_esp8266\esp8266.c ****         .linkid_num = AT_MAX_LINK_NUM,
 416:C:/Users/lenovo/Desktop/liteos/Project2/BearPi_LiteOS/components/net/at_device/wifi_esp8266\esp8266.c ****         .user_buf_len = MAX_AT_USERDATA_LEN,
 417:C:/Users/lenovo/Desktop/liteos/Project2/BearPi_LiteOS/components/net/at_device/wifi_esp8266\esp8266.c ****         .cmd_begin = AT_CMD_BEGIN,
 418:C:/Users/lenovo/Desktop/liteos/Project2/BearPi_LiteOS/components/net/at_device/wifi_esp8266\esp8266.c ****         .line_end = AT_LINE_END,
 419:C:/Users/lenovo/Desktop/liteos/Project2/BearPi_LiteOS/components/net/at_device/wifi_esp8266\esp8266.c ****         .mux_mode = 1, //support multi connection mode
 420:C:/Users/lenovo/Desktop/liteos/Project2/BearPi_LiteOS/components/net/at_device/wifi_esp8266\esp8266.c ****         .timeout = AT_CMD_TIMEOUT,   //  ms
 421:C:/Users/lenovo/Desktop/liteos/Project2/BearPi_LiteOS/components/net/at_device/wifi_esp8266\esp8266.c **** 
 422:C:/Users/lenovo/Desktop/liteos/Project2/BearPi_LiteOS/components/net/at_device/wifi_esp8266\esp8266.c ****     };
 423:C:/Users/lenovo/Desktop/liteos/Project2/BearPi_LiteOS/components/net/at_device/wifi_esp8266\esp8266.c ****     at.init(&at_user_conf);
 2035              		.loc 1 423 0
 2036 0014 224C     		ldr	r4, .L143+4
 2037 0016 636C     		ldr	r3, [r4, #68]
 2038 0018 05A8     		add	r0, sp, #20
 2039 001a 9847     		blx	r3
 2040              	.LVL245:
 424:C:/Users/lenovo/Desktop/liteos/Project2/BearPi_LiteOS/components/net/at_device/wifi_esp8266\esp8266.c ****     //at.add_listener((int8_t*)AT_DATAF_PREFIX, NULL, esp8266_data_handler);
 425:C:/Users/lenovo/Desktop/liteos/Project2/BearPi_LiteOS/components/net/at_device/wifi_esp8266\esp8266.c ****     at.oob_register(AT_DATAF_PREFIX, strlen(AT_DATAF_PREFIX), esp8266_data_handler, esp8266_cmd_mat
 2041              		.loc 1 425 0
 2042 001c 646D     		ldr	r4, [r4, #84]
 2043 001e 214B     		ldr	r3, .L143+8
 2044 0020 214A     		ldr	r2, .L143+12
 2045 0022 0621     		movs	r1, #6
 2046 0024 2148     		ldr	r0, .L143+16
 2047 0026 A047     		blx	r4
 2048              	.LVL246:
 426:C:/Users/lenovo/Desktop/liteos/Project2/BearPi_LiteOS/components/net/at_device/wifi_esp8266\esp8266.c **** 
 427:C:/Users/lenovo/Desktop/liteos/Project2/BearPi_LiteOS/components/net/at_device/wifi_esp8266\esp8266.c ****     esp8266_reset();
 2049              		.loc 1 427 0
 2050 0028 FFF7FEFF 		bl	esp8266_reset
 2051              	.LVL247:
 428:C:/Users/lenovo/Desktop/liteos/Project2/BearPi_LiteOS/components/net/at_device/wifi_esp8266\esp8266.c ****     esp8266_echo_off();
 2052              		.loc 1 428 0
 2053 002c FFF7FEFF 		bl	esp8266_echo_off
 2054              	.LVL248:
 429:C:/Users/lenovo/Desktop/liteos/Project2/BearPi_LiteOS/components/net/at_device/wifi_esp8266\esp8266.c ****     esp8266_show_dinfo(1);
 2055              		.loc 1 429 0
 2056 0030 0120     		movs	r0, #1
 2057 0032 FFF7FEFF 		bl	esp8266_show_dinfo
 2058              	.LVL249:
 430:C:/Users/lenovo/Desktop/liteos/Project2/BearPi_LiteOS/components/net/at_device/wifi_esp8266\esp8266.c **** 
 431:C:/Users/lenovo/Desktop/liteos/Project2/BearPi_LiteOS/components/net/at_device/wifi_esp8266\esp8266.c ****     esp8266_choose_net_mode(STA);
 2059              		.loc 1 431 0
 2060 0036 0120     		movs	r0, #1
 2061 0038 FFF7FEFF 		bl	esp8266_choose_net_mode
 2062              	.LVL250:
 432:C:/Users/lenovo/Desktop/liteos/Project2/BearPi_LiteOS/components/net/at_device/wifi_esp8266\esp8266.c ****     while(AT_FAILED == esp8266_joinap(WIFI_SSID, WIFI_PASSWD))
 2063              		.loc 1 432 0
 2064 003c 08E0     		b	.L140
 2065              	.L141:
 433:C:/Users/lenovo/Desktop/liteos/Project2/BearPi_LiteOS/components/net/at_device/wifi_esp8266\esp8266.c ****     {
 434:C:/Users/lenovo/Desktop/liteos/Project2/BearPi_LiteOS/components/net/at_device/wifi_esp8266\esp8266.c ****         AT_LOG("connect ap failed, repeat...");
ARM GAS  c:\Users\lenovo\AppData\Local\Temp\ccZzE1K8.s 			page 48


 2066              		.loc 1 434 0
 2067 003e FFF7FEFF 		bl	at_get_time
 2068              	.LVL251:
 2069 0042 4FF4D973 		mov	r3, #434
 2070 0046 1A4A     		ldr	r2, .L143+20
 2071 0048 0146     		mov	r1, r0
 2072 004a 1A48     		ldr	r0, .L143+24
 2073 004c FFF7FEFF 		bl	printf
 2074              	.LVL252:
 2075              	.L140:
 432:C:/Users/lenovo/Desktop/liteos/Project2/BearPi_LiteOS/components/net/at_device/wifi_esp8266\esp8266.c ****     while(AT_FAILED == esp8266_joinap(WIFI_SSID, WIFI_PASSWD))
 2076              		.loc 1 432 0
 2077 0050 1949     		ldr	r1, .L143+28
 2078 0052 1A48     		ldr	r0, .L143+32
 2079 0054 FFF7FEFF 		bl	esp8266_joinap
 2080              	.LVL253:
 2081 0058 B0F1FF3F 		cmp	r0, #-1
 2082 005c EFD0     		beq	.L141
 435:C:/Users/lenovo/Desktop/liteos/Project2/BearPi_LiteOS/components/net/at_device/wifi_esp8266\esp8266.c ****     };
 436:C:/Users/lenovo/Desktop/liteos/Project2/BearPi_LiteOS/components/net/at_device/wifi_esp8266\esp8266.c ****     esp8266_set_mux_mode(at.mux_mode);
 2083              		.loc 1 436 0
 2084 005e 104B     		ldr	r3, .L143+4
 2085 0060 186B     		ldr	r0, [r3, #48]
 2086 0062 FFF7FEFF 		bl	esp8266_set_mux_mode
 2087              	.LVL254:
 437:C:/Users/lenovo/Desktop/liteos/Project2/BearPi_LiteOS/components/net/at_device/wifi_esp8266\esp8266.c **** 
 438:C:/Users/lenovo/Desktop/liteos/Project2/BearPi_LiteOS/components/net/at_device/wifi_esp8266\esp8266.c ****     static int8_t ip[32];
 439:C:/Users/lenovo/Desktop/liteos/Project2/BearPi_LiteOS/components/net/at_device/wifi_esp8266\esp8266.c ****     static int8_t gw[32];
 440:C:/Users/lenovo/Desktop/liteos/Project2/BearPi_LiteOS/components/net/at_device/wifi_esp8266\esp8266.c ****     static int8_t mac[32];
 441:C:/Users/lenovo/Desktop/liteos/Project2/BearPi_LiteOS/components/net/at_device/wifi_esp8266\esp8266.c ****     esp8266_get_localip(ip, gw, NULL);
 2088              		.loc 1 441 0
 2089 0066 164D     		ldr	r5, .L143+36
 2090 0068 164C     		ldr	r4, .L143+40
 2091 006a 0022     		movs	r2, #0
 2092 006c 2946     		mov	r1, r5
 2093 006e 2046     		mov	r0, r4
 2094 0070 FFF7FEFF 		bl	esp8266_get_localip
 2095              	.LVL255:
 442:C:/Users/lenovo/Desktop/liteos/Project2/BearPi_LiteOS/components/net/at_device/wifi_esp8266\esp8266.c ****     esp8266_get_localmac(mac);
 2096              		.loc 1 442 0
 2097 0074 144E     		ldr	r6, .L143+44
 2098 0076 3046     		mov	r0, r6
 2099 0078 FFF7FEFF 		bl	esp8266_get_localmac
 2100              	.LVL256:
 443:C:/Users/lenovo/Desktop/liteos/Project2/BearPi_LiteOS/components/net/at_device/wifi_esp8266\esp8266.c ****     AT_LOG_DEBUG("get ip:%s, gw:%s mac:%s", ip, gw, mac);
 2101              		.loc 1 443 0
 2102 007c FFF7FEFF 		bl	at_get_time
 2103              	.LVL257:
 2104 0080 0296     		str	r6, [sp, #8]
 2105 0082 0195     		str	r5, [sp, #4]
 2106 0084 0094     		str	r4, [sp]
 2107 0086 40F2BB13 		movw	r3, #443
 2108 008a 094A     		ldr	r2, .L143+20
 2109 008c 0146     		mov	r1, r0
 2110 008e 0F48     		ldr	r0, .L143+48
 2111 0090 FFF7FEFF 		bl	printf
 2112              	.LVL258:
ARM GAS  c:\Users\lenovo\AppData\Local\Temp\ccZzE1K8.s 			page 49


 444:C:/Users/lenovo/Desktop/liteos/Project2/BearPi_LiteOS/components/net/at_device/wifi_esp8266\esp8266.c ****     return AT_OK;
 445:C:/Users/lenovo/Desktop/liteos/Project2/BearPi_LiteOS/components/net/at_device/wifi_esp8266\esp8266.c **** }
 2113              		.loc 1 445 0
 2114 0094 0020     		movs	r0, #0
 2115 0096 0EB0     		add	sp, sp, #56
 2116              	.LCFI59:
 2117              		.cfi_def_cfa_offset 16
 2118              		@ sp needed
 2119 0098 70BD     		pop	{r4, r5, r6, pc}
 2120              	.L144:
 2121 009a 00BF     		.align	2
 2122              	.L143:
 2123 009c 00000000 		.word	.LANCHOR6
 2124 00a0 00000000 		.word	at
 2125 00a4 00000000 		.word	esp8266_cmd_match
 2126 00a8 00000000 		.word	esp8266_data_handler
 2127 00ac 38000000 		.word	.LC9
 2128 00b0 00000000 		.word	.LANCHOR7
 2129 00b4 00000000 		.word	.LC48
 2130 00b8 30000000 		.word	.LC49
 2131 00bc 3C000000 		.word	.LC50
 2132 00c0 00000000 		.word	.LANCHOR8
 2133 00c4 00000000 		.word	.LANCHOR9
 2134 00c8 00000000 		.word	.LANCHOR10
 2135 00cc 44000000 		.word	.LC51
 2136              		.cfi_endproc
 2137              	.LFE152:
 2139              		.global	esp8266_interface
 2140              		.section	.rodata
 2141              		.align	2
 2142              		.set	.LANCHOR6,. + 0
 2143              	.LC47:
 2144 0000 00000000 		.word	.LC0
 2145 0004 04000000 		.word	4
 2146 0008 00C20100 		.word	115200
 2147 000c 04000000 		.word	4
 2148 0010 00080000 		.word	2048
 2149 0014 08000000 		.word	.LC1
 2150 0018 08000000 		.word	.LC1
 2151 001c 01000000 		.word	1
 2152 0020 10270000 		.word	10000
 2153              		.section	.bss.gw.10311,"aw",%nobits
 2154              		.align	2
 2155              		.set	.LANCHOR8,. + 0
 2158              	gw.10311:
 2159 0000 00000000 		.space	32
 2159      00000000 
 2159      00000000 
 2159      00000000 
 2159      00000000 
 2160              		.section	.bss.ip.10310,"aw",%nobits
 2161              		.align	2
 2162              		.set	.LANCHOR9,. + 0
 2165              	ip.10310:
 2166 0000 00000000 		.space	32
 2166      00000000 
 2166      00000000 
ARM GAS  c:\Users\lenovo\AppData\Local\Temp\ccZzE1K8.s 			page 50


 2166      00000000 
 2166      00000000 
 2167              		.section	.bss.mac.10312,"aw",%nobits
 2168              		.align	2
 2169              		.set	.LANCHOR10,. + 0
 2172              	mac.10312:
 2173 0000 00000000 		.space	32
 2173      00000000 
 2173      00000000 
 2173      00000000 
 2173      00000000 
 2174              		.section	.data.esp8266_interface,"aw",%progbits
 2175              		.align	2
 2178              	esp8266_interface:
 2179 0000 00000000 		.word	esp8266_init
 2180 0004 00000000 		.word	esp8266_get_localmac
 2181 0008 00000000 		.word	esp8266_get_localip
 2182 000c 00000000 		.word	esp8266_bind
 2183 0010 00000000 		.word	esp8266_connect
 2184 0014 00000000 		.word	esp8266_send
 2185 0018 00000000 		.space	4
 2186 001c 00000000 		.word	esp8266_recv_timeout
 2187 0020 00000000 		.word	esp8266_recv
 2188 0024 00000000 		.space	4
 2189 0028 00000000 		.word	esp8266_close
 2190 002c 00000000 		.word	esp8266_recv_cb
 2191 0030 00000000 		.word	esp8266_deinit
 2192              		.section	.rodata.__func__.10193,"a",%progbits
 2193              		.align	2
 2194              		.set	.LANCHOR1,. + 0
 2197              	__func__.10193:
 2198 0000 65737038 		.ascii	"esp8266_connect\000"
 2198      3236365F 
 2198      636F6E6E 
 2198      65637400 
 2199              		.section	.rodata.__func__.10232,"a",%progbits
 2200              		.align	2
 2201              		.set	.LANCHOR0,. + 0
 2204              	__func__.10232:
 2205 0000 65737038 		.ascii	"esp8266_data_handler\000"
 2205      3236365F 
 2205      64617461 
 2205      5F68616E 
 2205      646C6572 
 2206              		.section	.rodata.__func__.10262,"a",%progbits
 2207              		.align	2
 2208              		.set	.LANCHOR3,. + 0
 2211              	__func__.10262:
 2212 0000 65737038 		.ascii	"esp8266_get_localip\000"
 2212      3236365F 
 2212      6765745F 
 2212      6C6F6361 
 2212      6C697000 
 2213              		.section	.rodata.__func__.10272,"a",%progbits
 2214              		.align	2
 2215              		.set	.LANCHOR4,. + 0
 2218              	__func__.10272:
ARM GAS  c:\Users\lenovo\AppData\Local\Temp\ccZzE1K8.s 			page 51


 2219 0000 65737038 		.ascii	"esp8266_get_localmac\000"
 2219      3236365F 
 2219      6765745F 
 2219      6C6F6361 
 2219      6C6D6163 
 2220              		.section	.rodata.__func__.10281,"a",%progbits
 2221              		.align	2
 2222              		.set	.LANCHOR5,. + 0
 2225              	__func__.10281:
 2226 0000 65737038 		.ascii	"esp8266_bind\000"
 2226      3236365F 
 2226      62696E64 
 2226      00
 2227              		.section	.rodata.__func__.10290,"a",%progbits
 2228              		.align	2
 2229              		.set	.LANCHOR2,. + 0
 2232              	__func__.10290:
 2233 0000 65737038 		.ascii	"esp8266_deinit\000"
 2233      3236365F 
 2233      6465696E 
 2233      697400
 2234              		.section	.rodata.__func__.10306,"a",%progbits
 2235              		.align	2
 2236              		.set	.LANCHOR7,. + 0
 2239              	__func__.10306:
 2240 0000 65737038 		.ascii	"esp8266_init\000"
 2240      3236365F 
 2240      696E6974 
 2240      00
 2241              		.section	.rodata.esp8266_bind.str1.4,"aMS",%progbits,1
 2242              		.align	2
 2243              	.LC35:
 2244 0000 5B256C75 		.ascii	"[%lu][%s:%d][I]get port = %d\015\012\012\000"
 2244      5D5B2573 
 2244      3A25645D 
 2244      5B495D67 
 2244      65742070 
 2245              	.LC36:
 2246 0020 5B256C75 		.ascii	"[%lu][%s:%d][I]Only support in multi mode!\015\012\012"
 2246      5D5B2573 
 2246      3A25645D 
 2246      5B495D4F 
 2246      6E6C7920 
 2247 004d 00       		.ascii	"\000"
 2248 004e 0000     		.space	2
 2249              	.LC37:
 2250 0050 25733D25 		.ascii	"%s=%d,\"%s\",\"0.0.0.0\",0,%d,0\000"
 2250      642C2225 
 2250      73222C22 
 2250      302E302E 
 2250      302E3022 
 2251              		.section	.rodata.esp8266_choose_net_mode.str1.4,"aMS",%progbits,1
 2252              		.align	2
 2253              	.LC41:
 2254 0000 41542B43 		.ascii	"AT+CWMODE_CUR\000"
 2254      574D4F44 
 2254      455F4355 
ARM GAS  c:\Users\lenovo\AppData\Local\Temp\ccZzE1K8.s 			page 52


 2254      5200
 2255 000e 0000     		.space	2
 2256              	.LC42:
 2257 0010 25733D25 		.ascii	"%s=%d\000"
 2257      6400
 2258              		.section	.rodata.esp8266_close.str1.4,"aMS",%progbits,1
 2259              		.align	2
 2260              	.LC25:
 2261 0000 41542B43 		.ascii	"AT+CIPCLOSE\000"
 2261      4950434C 
 2261      4F534500 
 2262              	.LC26:
 2263 000c 25733D25 		.ascii	"%s=%ld\000"
 2263      6C6400
 2264              		.section	.rodata.esp8266_connect.str1.4,"aMS",%progbits,1
 2265              		.align	2
 2266              	.LC13:
 2267 0000 55445000 		.ascii	"UDP\000"
 2268              	.LC14:
 2269 0004 54435000 		.ascii	"TCP\000"
 2270              	.LC15:
 2271 0008 5B256C75 		.ascii	"[%lu][%s:%d][I]host:%s, port:%s\012\000"
 2271      5D5B2573 
 2271      3A25645D 
 2271      5B495D68 
 2271      6F73743A 
 2272 0029 000000   		.space	3
 2273              	.LC16:
 2274 002c 41542B43 		.ascii	"AT+CIPSTART\000"
 2274      49505354 
 2274      41525400 
 2275              	.LC17:
 2276 0038 25733D22 		.ascii	"%s=\"%s\",\"%s\",%s\000"
 2276      2573222C 
 2276      22257322 
 2276      2C257300 
 2277              	.LC18:
 2278 0048 5B256C75 		.ascii	"[%lu][%s:%d][I]no vailed linkid for use(id = %ld)\012"
 2278      5D5B2573 
 2278      3A25645D 
 2278      5B495D6E 
 2278      6F207661 
 2279 007a 00       		.ascii	"\000"
 2280 007b 00       		.space	1
 2281              	.LC19:
 2282 007c 25733D25 		.ascii	"%s=%ld,\"%s\",\"%s\",%s\000"
 2282      6C642C22 
 2282      2573222C 
 2282      22257322 
 2282      2C257300 
 2283              	.LC20:
 2284 0090 256400   		.ascii	"%d\000"
 2285 0093 00       		.space	1
 2286              	.LC21:
 2287 0094 64617461 		.ascii	"dataQueue\000"
 2287      51756575 
 2287      6500
ARM GAS  c:\Users\lenovo\AppData\Local\Temp\ccZzE1K8.s 			page 53


 2288 009e 0000     		.space	2
 2289              	.LC22:
 2290 00a0 5B256C75 		.ascii	"[%lu][%s:%d][I]init dataQueue failed!\012\000"
 2290      5D5B2573 
 2290      3A25645D 
 2290      5B495D69 
 2290      6E697420 
 2291 00c7 00       		.space	1
 2292              	.LC23:
 2293 00c8 4F4B0D0A 		.ascii	"OK\015\012\000"
 2293      00
 2294 00cd 000000   		.space	3
 2295              	.LC24:
 2296 00d0 5B256C75 		.ascii	"[%lu][%s:%d][I]at.cmd return failed!\012\000"
 2296      5D5B2573 
 2296      3A25645D 
 2296      5B495D61 
 2296      742E636D 
 2297              		.section	.rodata.esp8266_data_handler.str1.4,"aMS",%progbits,1
 2298              		.align	2
 2299              	.LC7:
 2300 0000 5B256C75 		.ascii	"[%lu][%s:%d][I]param invailed!\012\000"
 2300      5D5B2573 
 2300      3A25645D 
 2300      5B495D70 
 2300      6172616D 
 2301              	.LC8:
 2302 0020 5B256C75 		.ascii	"[%lu][%s:%d][I]entry!\012\000"
 2302      5D5B2573 
 2302      3A25645D 
 2302      5B495D65 
 2302      6E747279 
 2303 0037 00       		.space	1
 2304              	.LC9:
 2305 0038 0D0A2B49 		.ascii	"\015\012+IPD\000"
 2305      504400
 2306 003f 00       		.space	1
 2307              	.LC10:
 2308 0040 5B256C75 		.ascii	"[%lu][%s:%d][I]got data prefix invailed!\012\000"
 2308      5D5B2573 
 2308      3A25645D 
 2308      5B495D67 
 2308      6F742064 
 2309 006a 0000     		.space	2
 2310              	.LC11:
 2311 006c 5B256C75 		.ascii	"[%lu][%s:%d][I]malloc for qbuf failed!\012\000"
 2311      5D5B2573 
 2311      3A25645D 
 2311      5B495D6D 
 2311      616C6C6F 
 2312              	.LC12:
 2313 0094 5B256C75 		.ascii	"[%lu][%s:%d][I]LOS_QueueWriteCopy  failed! ret = %l"
 2313      5D5B2573 
 2313      3A25645D 
 2313      5B495D4C 
 2313      4F535F51 
 2314 00c7 780A00   		.ascii	"x\012\000"
ARM GAS  c:\Users\lenovo\AppData\Local\Temp\ccZzE1K8.s 			page 54


 2315              		.section	.rodata.esp8266_deinit.str1.4,"aMS",%progbits,1
 2316              		.align	2
 2317              	.LC27:
 2318 0000 5B256C75 		.ascii	"[%lu][%s:%d][I]esp8266_close(%d) failed\012\000"
 2318      5D5B2573 
 2318      3A25645D 
 2318      5B495D65 
 2318      73703832 
 2319              		.section	.rodata.esp8266_echo_off.str1.4,"aMS",%progbits,1
 2320              		.align	2
 2321              	.LC38:
 2322 0000 41544530 		.ascii	"ATE0\000"
 2322      00
 2323              		.section	.rodata.esp8266_get_localip.str1.4,"aMS",%progbits,1
 2324              		.align	2
 2325              	.LC28:
 2326 0000 4F4B00   		.ascii	"OK\000"
 2327 0003 00       		.space	1
 2328              	.LC29:
 2329 0004 41542B43 		.ascii	"AT+CIPSTA_CUR?\000"
 2329      49505354 
 2329      415F4355 
 2329      523F00
 2330 0013 00       		.space	1
 2331              	.LC30:
 2332 0014 5B256C75 		.ascii	"[%lu][%s:%d][I]resp:%s\012\000"
 2332      5D5B2573 
 2332      3A25645D 
 2332      5B495D72 
 2332      6573703A 
 2333              	.LC31:
 2334 002c 697000   		.ascii	"ip\000"
 2335 002f 00       		.space	1
 2336              	.LC32:
 2337 0030 67617465 		.ascii	"gateway\000"
 2337      77617900 
 2338              	.LC33:
 2339 0038 6E65746D 		.ascii	"netmask\000"
 2339      61736B00 
 2340              		.section	.rodata.esp8266_get_localmac.str1.4,"aMS",%progbits,1
 2341              		.align	2
 2342              	.LC34:
 2343 0000 41542B43 		.ascii	"AT+CIPSTAMAC_CUR?\000"
 2343      49505354 
 2343      414D4143 
 2343      5F435552 
 2343      3F00
 2344              		.section	.rodata.esp8266_init.str1.4,"aMS",%progbits,1
 2345              		.align	2
 2346              	.LC48:
 2347 0000 5B256C75 		.ascii	"[%lu][%s:%d][I]connect ap failed, repeat...\012\000"
 2347      5D5B2573 
 2347      3A25645D 
 2347      5B495D63 
 2347      6F6E6E65 
 2348 002d 000000   		.space	3
 2349              	.LC49:
ARM GAS  c:\Users\lenovo\AppData\Local\Temp\ccZzE1K8.s 			page 55


 2350 0030 30393837 		.ascii	"0987654321\000"
 2350      36353433 
 2350      323100
 2351 003b 00       		.space	1
 2352              	.LC50:
 2353 003c 486F6C64 		.ascii	"Hold\000"
 2353      00
 2354 0041 000000   		.space	3
 2355              	.LC51:
 2356 0044 5B256C75 		.ascii	"[%lu][%s:%d][D]get ip:%s, gw:%s mac:%s\012\000"
 2356      5D5B2573 
 2356      3A25645D 
 2356      5B445D67 
 2356      65742069 
 2357              		.section	.rodata.esp8266_joinap.str1.4,"aMS",%progbits,1
 2358              		.align	2
 2359              	.LC44:
 2360 0000 41542B43 		.ascii	"AT+CWJAP_CUR\000"
 2360      574A4150 
 2360      5F435552 
 2360      00
 2361 000d 000000   		.space	3
 2362              	.LC45:
 2363 0010 25733D22 		.ascii	"%s=\"%s\",\"%s\"\000"
 2363      2573222C 
 2363      22257322 
 2363      00
 2364              		.section	.rodata.esp8266_reset.str1.4,"aMS",%progbits,1
 2365              		.align	2
 2366              	.LC39:
 2367 0000 72656164 		.ascii	"ready\015\012\000"
 2367      790D0A00 
 2368              	.LC40:
 2369 0008 41542B52 		.ascii	"AT+RST\000"
 2369      535400
 2370              		.section	.rodata.esp8266_send.str1.4,"aMS",%progbits,1
 2371              		.align	2
 2372              	.LC3:
 2373 0000 41542B43 		.ascii	"AT+CIPSEND\000"
 2373      49505345 
 2373      4E4400
 2374 000b 00       		.space	1
 2375              	.LC4:
 2376 000c 25733D25 		.ascii	"%s=%lu,\"%s\",%d\000"
 2376      6C752C22 
 2376      2573222C 
 2376      256400
 2377 001b 00       		.space	1
 2378              	.LC5:
 2379 001c 25733D25 		.ascii	"%s=%ld,%lu,\"%s\",%d\000"
 2379      6C642C25 
 2379      6C752C22 
 2379      2573222C 
 2379      256400
 2380 002f 00       		.space	1
 2381              	.LC6:
 2382 0030 53454E44 		.ascii	"SEND OK\015\012\000"
ARM GAS  c:\Users\lenovo\AppData\Local\Temp\ccZzE1K8.s 			page 56


 2382      204F4B0D 
 2382      0A00
 2383              		.section	.rodata.esp8266_set_mux_mode.str1.4,"aMS",%progbits,1
 2384              		.align	2
 2385              	.LC43:
 2386 0000 41542B43 		.ascii	"AT+CIPMUX\000"
 2386      49504D55 
 2386      5800
 2387              		.section	.rodata.esp8266_show_dinfo.str1.4,"aMS",%progbits,1
 2388              		.align	2
 2389              	.LC46:
 2390 0000 41542B43 		.ascii	"AT+CIPDINFO\000"
 2390      49504449 
 2390      4E464F00 
 2391              		.section	.rodata.str1.4,"aMS",%progbits,1
 2392              		.align	2
 2393              	.LC0:
 2394 0000 45535038 		.ascii	"ESP8266\000"
 2394      32363600 
 2395              	.LC1:
 2396 0008 0D0A00   		.ascii	"\015\012\000"
 2397              		.text
 2398              	.Letext0:
 2399              		.file 2 "c:\\program files (x86)\\liteos studio\\resources\\arm-none-eabi\\arm-none-eabi\\include\
 2400              		.file 3 "c:\\program files (x86)\\liteos studio\\resources\\arm-none-eabi\\arm-none-eabi\\include\
 2401              		.file 4 "c:\\program files (x86)\\liteos studio\\resources\\arm-none-eabi\\arm-none-eabi\\include\
 2402              		.file 5 "c:\\program files (x86)\\liteos studio\\resources\\arm-none-eabi\\lib\\gcc\\arm-none-eabi
 2403              		.file 6 "c:\\program files (x86)\\liteos studio\\resources\\arm-none-eabi\\arm-none-eabi\\include\
 2404              		.file 7 "C:/Users/lenovo/Desktop/liteos/Project2/BearPi_LiteOS/kernel/include/los_typedef.h"
 2405              		.file 8 "c:\\program files (x86)\\liteos studio\\resources\\arm-none-eabi\\arm-none-eabi\\include\
 2406              		.file 9 "C:/Users/lenovo/Desktop/liteos/Project2/BearPi_LiteOS/arch/arm/common/cmsis/core_cm4.h"
 2407              		.file 10 "C:/Users/lenovo/Desktop/liteos/Project2/BearPi_LiteOS/targets/STM32L431_BearPi/Inc/syste
 2408              		.file 11 "C:/Users/lenovo/Desktop/liteos/Project2/BearPi_LiteOS/arch/arm/arm-m/include/los_hwi.h"
 2409              		.file 12 "C:/Users/lenovo/Desktop/liteos/Project2/BearPi_LiteOS/kernel/include/los_list.h"
 2410              		.file 13 "C:/Users/lenovo/Desktop/liteos/Project2/BearPi_LiteOS/kernel/include/los_err.h"
 2411              		.file 14 "C:/Users/lenovo/Desktop/liteos/Project2/BearPi_LiteOS/kernel/include/los_tick.h"
 2412              		.file 15 "C:/Users/lenovo/Desktop/liteos/Project2/BearPi_LiteOS/kernel/include/los_event.h"
 2413              		.file 16 "C:/Users/lenovo/Desktop/liteos/Project2/BearPi_LiteOS/kernel/include/los_task.h"
 2414              		.file 17 "C:/Users/lenovo/Desktop/liteos/Project2/BearPi_LiteOS/kernel/base/include/los_task.ph"
 2415              		.file 18 "C:/Users/lenovo/Desktop/liteos/Project2/BearPi_LiteOS/targets/STM32L431_BearPi/Inc/main.
 2416              		.file 19 "C:/Users/lenovo/Desktop/liteos/Project2/BearPi_LiteOS/targets/STM32L431_BearPi/OS_CONFIG
 2417              		.file 20 "C:/Users/lenovo/Desktop/liteos/Project2/BearPi_LiteOS/kernel/include/los_config.h"
 2418              		.file 21 "C:/Users/lenovo/Desktop/liteos/Project2/BearPi_LiteOS/include/at_frame/at_api.h"
 2419              		.file 22 "C:/Users/lenovo/Desktop/liteos/Project2/BearPi_LiteOS/include/at_frame/at_main.h"
 2420              		.file 23 "C:/Users/lenovo/Desktop/liteos/Project2/BearPi_LiteOS/components/net/at_device/wifi_esp8
 2421              		.file 24 "c:\\program files (x86)\\liteos studio\\resources\\arm-none-eabi\\arm-none-eabi\\include
 2422              		.file 25 "c:\\program files (x86)\\liteos studio\\resources\\arm-none-eabi\\arm-none-eabi\\include
 2423              		.file 26 "C:/Users/lenovo/Desktop/liteos/Project2/BearPi_LiteOS/kernel/include/los_queue.h"
 2424              		.file 27 "<built-in>"
ARM GAS  c:\Users\lenovo\AppData\Local\Temp\ccZzE1K8.s 			page 57

