ARM GAS  c:\Users\lenovo\AppData\Local\Temp\cc6khQ0g.s 			page 1


   1              		.cpu cortex-m4
   2              		.eabi_attribute 27, 1
   3              		.eabi_attribute 28, 1
   4              		.eabi_attribute 20, 1
   5              		.eabi_attribute 21, 1
   6              		.eabi_attribute 23, 3
   7              		.eabi_attribute 24, 1
   8              		.eabi_attribute 25, 1
   9              		.eabi_attribute 26, 1
  10              		.eabi_attribute 30, 1
  11              		.eabi_attribute 34, 1
  12              		.eabi_attribute 18, 4
  13              		.file	"gpio.c"
  14              		.text
  15              	.Ltext0:
  16              		.cfi_sections	.debug_frame
  17              		.section	.text.MX_GPIO_Init,"ax",%progbits
  18              		.align	1
  19              		.global	MX_GPIO_Init
  20              		.syntax unified
  21              		.thumb
  22              		.thumb_func
  23              		.fpu fpv4-sp-d16
  25              	MX_GPIO_Init:
  26              	.LFB133:
  27              		.file 1 "C:/Users/lenovo/Desktop/liteos/Project2/BearPi_LiteOS/targets/STM32L431_BearPi/Src/gpio.c
   1:C:/Users/lenovo/Desktop/liteos/Project2/BearPi_LiteOS/targets/STM32L431_BearPi/Src\gpio.c **** /**
   2:C:/Users/lenovo/Desktop/liteos/Project2/BearPi_LiteOS/targets/STM32L431_BearPi/Src\gpio.c ****   ******************************************************************************
   3:C:/Users/lenovo/Desktop/liteos/Project2/BearPi_LiteOS/targets/STM32L431_BearPi/Src\gpio.c ****   * File Name          : gpio.c
   4:C:/Users/lenovo/Desktop/liteos/Project2/BearPi_LiteOS/targets/STM32L431_BearPi/Src\gpio.c ****   * Description        : This file provides code for the configuration
   5:C:/Users/lenovo/Desktop/liteos/Project2/BearPi_LiteOS/targets/STM32L431_BearPi/Src\gpio.c ****   *                      of all used GPIO pins.
   6:C:/Users/lenovo/Desktop/liteos/Project2/BearPi_LiteOS/targets/STM32L431_BearPi/Src\gpio.c ****   ******************************************************************************
   7:C:/Users/lenovo/Desktop/liteos/Project2/BearPi_LiteOS/targets/STM32L431_BearPi/Src\gpio.c ****   ** This notice applies to any and all portions of this file
   8:C:/Users/lenovo/Desktop/liteos/Project2/BearPi_LiteOS/targets/STM32L431_BearPi/Src\gpio.c ****   * that are not between comment pairs USER CODE BEGIN and
   9:C:/Users/lenovo/Desktop/liteos/Project2/BearPi_LiteOS/targets/STM32L431_BearPi/Src\gpio.c ****   * USER CODE END. Other portions of this file, whether 
  10:C:/Users/lenovo/Desktop/liteos/Project2/BearPi_LiteOS/targets/STM32L431_BearPi/Src\gpio.c ****   * inserted by the user or by software development tools
  11:C:/Users/lenovo/Desktop/liteos/Project2/BearPi_LiteOS/targets/STM32L431_BearPi/Src\gpio.c ****   * are owned by their respective copyright owners.
  12:C:/Users/lenovo/Desktop/liteos/Project2/BearPi_LiteOS/targets/STM32L431_BearPi/Src\gpio.c ****   *
  13:C:/Users/lenovo/Desktop/liteos/Project2/BearPi_LiteOS/targets/STM32L431_BearPi/Src\gpio.c ****   * COPYRIGHT(c) 2018 STMicroelectronics
  14:C:/Users/lenovo/Desktop/liteos/Project2/BearPi_LiteOS/targets/STM32L431_BearPi/Src\gpio.c ****   *
  15:C:/Users/lenovo/Desktop/liteos/Project2/BearPi_LiteOS/targets/STM32L431_BearPi/Src\gpio.c ****   * Redistribution and use in source and binary forms, with or without modification,
  16:C:/Users/lenovo/Desktop/liteos/Project2/BearPi_LiteOS/targets/STM32L431_BearPi/Src\gpio.c ****   * are permitted provided that the following conditions are met:
  17:C:/Users/lenovo/Desktop/liteos/Project2/BearPi_LiteOS/targets/STM32L431_BearPi/Src\gpio.c ****   *   1. Redistributions of source code must retain the above copyright notice,
  18:C:/Users/lenovo/Desktop/liteos/Project2/BearPi_LiteOS/targets/STM32L431_BearPi/Src\gpio.c ****   *      this list of conditions and the following disclaimer.
  19:C:/Users/lenovo/Desktop/liteos/Project2/BearPi_LiteOS/targets/STM32L431_BearPi/Src\gpio.c ****   *   2. Redistributions in binary form must reproduce the above copyright notice,
  20:C:/Users/lenovo/Desktop/liteos/Project2/BearPi_LiteOS/targets/STM32L431_BearPi/Src\gpio.c ****   *      this list of conditions and the following disclaimer in the documentation
  21:C:/Users/lenovo/Desktop/liteos/Project2/BearPi_LiteOS/targets/STM32L431_BearPi/Src\gpio.c ****   *      and/or other materials provided with the distribution.
  22:C:/Users/lenovo/Desktop/liteos/Project2/BearPi_LiteOS/targets/STM32L431_BearPi/Src\gpio.c ****   *   3. Neither the name of STMicroelectronics nor the names of its contributors
  23:C:/Users/lenovo/Desktop/liteos/Project2/BearPi_LiteOS/targets/STM32L431_BearPi/Src\gpio.c ****   *      may be used to endorse or promote products derived from this software
  24:C:/Users/lenovo/Desktop/liteos/Project2/BearPi_LiteOS/targets/STM32L431_BearPi/Src\gpio.c ****   *      without specific prior written permission.
  25:C:/Users/lenovo/Desktop/liteos/Project2/BearPi_LiteOS/targets/STM32L431_BearPi/Src\gpio.c ****   *
  26:C:/Users/lenovo/Desktop/liteos/Project2/BearPi_LiteOS/targets/STM32L431_BearPi/Src\gpio.c ****   * THIS SOFTWARE IS PROVIDED BY THE COPYRIGHT HOLDERS AND CONTRIBUTORS "AS IS"
  27:C:/Users/lenovo/Desktop/liteos/Project2/BearPi_LiteOS/targets/STM32L431_BearPi/Src\gpio.c ****   * AND ANY EXPRESS OR IMPLIED WARRANTIES, INCLUDING, BUT NOT LIMITED TO, THE
  28:C:/Users/lenovo/Desktop/liteos/Project2/BearPi_LiteOS/targets/STM32L431_BearPi/Src\gpio.c ****   * IMPLIED WARRANTIES OF MERCHANTABILITY AND FITNESS FOR A PARTICULAR PURPOSE ARE
  29:C:/Users/lenovo/Desktop/liteos/Project2/BearPi_LiteOS/targets/STM32L431_BearPi/Src\gpio.c ****   * DISCLAIMED. IN NO EVENT SHALL THE COPYRIGHT HOLDER OR CONTRIBUTORS BE LIABLE
  30:C:/Users/lenovo/Desktop/liteos/Project2/BearPi_LiteOS/targets/STM32L431_BearPi/Src\gpio.c ****   * FOR ANY DIRECT, INDIRECT, INCIDENTAL, SPECIAL, EXEMPLARY, OR CONSEQUENTIAL
  31:C:/Users/lenovo/Desktop/liteos/Project2/BearPi_LiteOS/targets/STM32L431_BearPi/Src\gpio.c ****   * DAMAGES (INCLUDING, BUT NOT LIMITED TO, PROCUREMENT OF SUBSTITUTE GOODS OR
ARM GAS  c:\Users\lenovo\AppData\Local\Temp\cc6khQ0g.s 			page 2


  32:C:/Users/lenovo/Desktop/liteos/Project2/BearPi_LiteOS/targets/STM32L431_BearPi/Src\gpio.c ****   * SERVICES; LOSS OF USE, DATA, OR PROFITS; OR BUSINESS INTERRUPTION) HOWEVER
  33:C:/Users/lenovo/Desktop/liteos/Project2/BearPi_LiteOS/targets/STM32L431_BearPi/Src\gpio.c ****   * CAUSED AND ON ANY THEORY OF LIABILITY, WHETHER IN CONTRACT, STRICT LIABILITY,
  34:C:/Users/lenovo/Desktop/liteos/Project2/BearPi_LiteOS/targets/STM32L431_BearPi/Src\gpio.c ****   * OR TORT (INCLUDING NEGLIGENCE OR OTHERWISE) ARISING IN ANY WAY OUT OF THE USE
  35:C:/Users/lenovo/Desktop/liteos/Project2/BearPi_LiteOS/targets/STM32L431_BearPi/Src\gpio.c ****   * OF THIS SOFTWARE, EVEN IF ADVISED OF THE POSSIBILITY OF SUCH DAMAGE.
  36:C:/Users/lenovo/Desktop/liteos/Project2/BearPi_LiteOS/targets/STM32L431_BearPi/Src\gpio.c ****   *
  37:C:/Users/lenovo/Desktop/liteos/Project2/BearPi_LiteOS/targets/STM32L431_BearPi/Src\gpio.c ****   ******************************************************************************
  38:C:/Users/lenovo/Desktop/liteos/Project2/BearPi_LiteOS/targets/STM32L431_BearPi/Src\gpio.c ****   */
  39:C:/Users/lenovo/Desktop/liteos/Project2/BearPi_LiteOS/targets/STM32L431_BearPi/Src\gpio.c **** 
  40:C:/Users/lenovo/Desktop/liteos/Project2/BearPi_LiteOS/targets/STM32L431_BearPi/Src\gpio.c **** /* Includes ------------------------------------------------------------------*/
  41:C:/Users/lenovo/Desktop/liteos/Project2/BearPi_LiteOS/targets/STM32L431_BearPi/Src\gpio.c **** #include "gpio.h"
  42:C:/Users/lenovo/Desktop/liteos/Project2/BearPi_LiteOS/targets/STM32L431_BearPi/Src\gpio.c **** /* USER CODE BEGIN 0 */
  43:C:/Users/lenovo/Desktop/liteos/Project2/BearPi_LiteOS/targets/STM32L431_BearPi/Src\gpio.c **** 
  44:C:/Users/lenovo/Desktop/liteos/Project2/BearPi_LiteOS/targets/STM32L431_BearPi/Src\gpio.c **** /* USER CODE END 0 */
  45:C:/Users/lenovo/Desktop/liteos/Project2/BearPi_LiteOS/targets/STM32L431_BearPi/Src\gpio.c **** 
  46:C:/Users/lenovo/Desktop/liteos/Project2/BearPi_LiteOS/targets/STM32L431_BearPi/Src\gpio.c **** /*----------------------------------------------------------------------------*/
  47:C:/Users/lenovo/Desktop/liteos/Project2/BearPi_LiteOS/targets/STM32L431_BearPi/Src\gpio.c **** /* Configure GPIO                                                             */
  48:C:/Users/lenovo/Desktop/liteos/Project2/BearPi_LiteOS/targets/STM32L431_BearPi/Src\gpio.c **** /*----------------------------------------------------------------------------*/
  49:C:/Users/lenovo/Desktop/liteos/Project2/BearPi_LiteOS/targets/STM32L431_BearPi/Src\gpio.c **** /* USER CODE BEGIN 1 */
  50:C:/Users/lenovo/Desktop/liteos/Project2/BearPi_LiteOS/targets/STM32L431_BearPi/Src\gpio.c **** 
  51:C:/Users/lenovo/Desktop/liteos/Project2/BearPi_LiteOS/targets/STM32L431_BearPi/Src\gpio.c **** /* USER CODE END 1 */
  52:C:/Users/lenovo/Desktop/liteos/Project2/BearPi_LiteOS/targets/STM32L431_BearPi/Src\gpio.c **** 
  53:C:/Users/lenovo/Desktop/liteos/Project2/BearPi_LiteOS/targets/STM32L431_BearPi/Src\gpio.c **** /** Configure pins as 
  54:C:/Users/lenovo/Desktop/liteos/Project2/BearPi_LiteOS/targets/STM32L431_BearPi/Src\gpio.c ****         * Analog 
  55:C:/Users/lenovo/Desktop/liteos/Project2/BearPi_LiteOS/targets/STM32L431_BearPi/Src\gpio.c ****         * Input 
  56:C:/Users/lenovo/Desktop/liteos/Project2/BearPi_LiteOS/targets/STM32L431_BearPi/Src\gpio.c ****         * Output
  57:C:/Users/lenovo/Desktop/liteos/Project2/BearPi_LiteOS/targets/STM32L431_BearPi/Src\gpio.c ****         * EVENT_OUT
  58:C:/Users/lenovo/Desktop/liteos/Project2/BearPi_LiteOS/targets/STM32L431_BearPi/Src\gpio.c ****         * EXTI
  59:C:/Users/lenovo/Desktop/liteos/Project2/BearPi_LiteOS/targets/STM32L431_BearPi/Src\gpio.c **** */
  60:C:/Users/lenovo/Desktop/liteos/Project2/BearPi_LiteOS/targets/STM32L431_BearPi/Src\gpio.c **** void MX_GPIO_Init(void)
  61:C:/Users/lenovo/Desktop/liteos/Project2/BearPi_LiteOS/targets/STM32L431_BearPi/Src\gpio.c **** {
  28              		.loc 1 61 0
  29              		.cfi_startproc
  30              		@ args = 0, pretend = 0, frame = 40
  31              		@ frame_needed = 0, uses_anonymous_args = 0
  32 0000 10B5     		push	{r4, lr}
  33              	.LCFI0:
  34              		.cfi_def_cfa_offset 8
  35              		.cfi_offset 4, -8
  36              		.cfi_offset 14, -4
  37 0002 8AB0     		sub	sp, sp, #40
  38              	.LCFI1:
  39              		.cfi_def_cfa_offset 48
  40              	.LBB2:
  62:C:/Users/lenovo/Desktop/liteos/Project2/BearPi_LiteOS/targets/STM32L431_BearPi/Src\gpio.c **** 
  63:C:/Users/lenovo/Desktop/liteos/Project2/BearPi_LiteOS/targets/STM32L431_BearPi/Src\gpio.c ****   GPIO_InitTypeDef GPIO_InitStruct;
  64:C:/Users/lenovo/Desktop/liteos/Project2/BearPi_LiteOS/targets/STM32L431_BearPi/Src\gpio.c **** 
  65:C:/Users/lenovo/Desktop/liteos/Project2/BearPi_LiteOS/targets/STM32L431_BearPi/Src\gpio.c ****   /* GPIO Ports Clock Enable */
  66:C:/Users/lenovo/Desktop/liteos/Project2/BearPi_LiteOS/targets/STM32L431_BearPi/Src\gpio.c ****   __HAL_RCC_GPIOC_CLK_ENABLE();
  41              		.loc 1 66 0
  42 0004 1C4B     		ldr	r3, .L3
  43 0006 DA6C     		ldr	r2, [r3, #76]
  44 0008 42F00402 		orr	r2, r2, #4
  45 000c DA64     		str	r2, [r3, #76]
  46 000e DA6C     		ldr	r2, [r3, #76]
  47 0010 02F00402 		and	r2, r2, #4
  48 0014 0192     		str	r2, [sp, #4]
  49 0016 019A     		ldr	r2, [sp, #4]
ARM GAS  c:\Users\lenovo\AppData\Local\Temp\cc6khQ0g.s 			page 3


  50              	.LBE2:
  51              	.LBB3:
  67:C:/Users/lenovo/Desktop/liteos/Project2/BearPi_LiteOS/targets/STM32L431_BearPi/Src\gpio.c ****   __HAL_RCC_GPIOH_CLK_ENABLE();
  52              		.loc 1 67 0
  53 0018 DA6C     		ldr	r2, [r3, #76]
  54 001a 42F08002 		orr	r2, r2, #128
  55 001e DA64     		str	r2, [r3, #76]
  56 0020 DA6C     		ldr	r2, [r3, #76]
  57 0022 02F08002 		and	r2, r2, #128
  58 0026 0292     		str	r2, [sp, #8]
  59 0028 029A     		ldr	r2, [sp, #8]
  60              	.LBE3:
  61              	.LBB4:
  68:C:/Users/lenovo/Desktop/liteos/Project2/BearPi_LiteOS/targets/STM32L431_BearPi/Src\gpio.c ****   __HAL_RCC_GPIOA_CLK_ENABLE();
  62              		.loc 1 68 0
  63 002a DA6C     		ldr	r2, [r3, #76]
  64 002c 42F00102 		orr	r2, r2, #1
  65 0030 DA64     		str	r2, [r3, #76]
  66 0032 DA6C     		ldr	r2, [r3, #76]
  67 0034 02F00102 		and	r2, r2, #1
  68 0038 0392     		str	r2, [sp, #12]
  69 003a 039A     		ldr	r2, [sp, #12]
  70              	.LBE4:
  71              	.LBB5:
  69:C:/Users/lenovo/Desktop/liteos/Project2/BearPi_LiteOS/targets/STM32L431_BearPi/Src\gpio.c ****   __HAL_RCC_GPIOB_CLK_ENABLE();
  72              		.loc 1 69 0
  73 003c DA6C     		ldr	r2, [r3, #76]
  74 003e 42F00202 		orr	r2, r2, #2
  75 0042 DA64     		str	r2, [r3, #76]
  76 0044 DB6C     		ldr	r3, [r3, #76]
  77 0046 03F00203 		and	r3, r3, #2
  78 004a 0493     		str	r3, [sp, #16]
  79 004c 049B     		ldr	r3, [sp, #16]
  80              	.LBE5:
  70:C:/Users/lenovo/Desktop/liteos/Project2/BearPi_LiteOS/targets/STM32L431_BearPi/Src\gpio.c **** 
  71:C:/Users/lenovo/Desktop/liteos/Project2/BearPi_LiteOS/targets/STM32L431_BearPi/Src\gpio.c **** 	 /*Configure GPIO pin Output Level */
  72:C:/Users/lenovo/Desktop/liteos/Project2/BearPi_LiteOS/targets/STM32L431_BearPi/Src\gpio.c ****   HAL_GPIO_WritePin(Light_GPIO_Port, Light_Pin, GPIO_PIN_RESET);
  81              		.loc 1 72 0
  82 004e 0B4C     		ldr	r4, .L3+4
  83 0050 0022     		movs	r2, #0
  84 0052 4FF40071 		mov	r1, #512
  85 0056 2046     		mov	r0, r4
  86 0058 FFF7FEFF 		bl	HAL_GPIO_WritePin
  87              	.LVL0:
  73:C:/Users/lenovo/Desktop/liteos/Project2/BearPi_LiteOS/targets/STM32L431_BearPi/Src\gpio.c **** 
  74:C:/Users/lenovo/Desktop/liteos/Project2/BearPi_LiteOS/targets/STM32L431_BearPi/Src\gpio.c **** 
  75:C:/Users/lenovo/Desktop/liteos/Project2/BearPi_LiteOS/targets/STM32L431_BearPi/Src\gpio.c **** 	
  76:C:/Users/lenovo/Desktop/liteos/Project2/BearPi_LiteOS/targets/STM32L431_BearPi/Src\gpio.c **** 	 /*Configure GPIO pin : PtPin */
  77:C:/Users/lenovo/Desktop/liteos/Project2/BearPi_LiteOS/targets/STM32L431_BearPi/Src\gpio.c ****   GPIO_InitStruct.Pin = Light_Pin;
  88              		.loc 1 77 0
  89 005c 4FF40073 		mov	r3, #512
  90 0060 0593     		str	r3, [sp, #20]
  78:C:/Users/lenovo/Desktop/liteos/Project2/BearPi_LiteOS/targets/STM32L431_BearPi/Src\gpio.c ****   GPIO_InitStruct.Mode = GPIO_MODE_OUTPUT_PP;
  91              		.loc 1 78 0
  92 0062 0123     		movs	r3, #1
  93 0064 0693     		str	r3, [sp, #24]
  79:C:/Users/lenovo/Desktop/liteos/Project2/BearPi_LiteOS/targets/STM32L431_BearPi/Src\gpio.c ****   GPIO_InitStruct.Pull = GPIO_NOPULL;
ARM GAS  c:\Users\lenovo\AppData\Local\Temp\cc6khQ0g.s 			page 4


  94              		.loc 1 79 0
  95 0066 0023     		movs	r3, #0
  96 0068 0793     		str	r3, [sp, #28]
  80:C:/Users/lenovo/Desktop/liteos/Project2/BearPi_LiteOS/targets/STM32L431_BearPi/Src\gpio.c ****   GPIO_InitStruct.Speed = GPIO_SPEED_FREQ_LOW;
  97              		.loc 1 80 0
  98 006a 0893     		str	r3, [sp, #32]
  81:C:/Users/lenovo/Desktop/liteos/Project2/BearPi_LiteOS/targets/STM32L431_BearPi/Src\gpio.c ****   HAL_GPIO_Init(Light_GPIO_Port, &GPIO_InitStruct);
  99              		.loc 1 81 0
 100 006c 05A9     		add	r1, sp, #20
 101 006e 2046     		mov	r0, r4
 102 0070 FFF7FEFF 		bl	HAL_GPIO_Init
 103              	.LVL1:
  82:C:/Users/lenovo/Desktop/liteos/Project2/BearPi_LiteOS/targets/STM32L431_BearPi/Src\gpio.c **** 
  83:C:/Users/lenovo/Desktop/liteos/Project2/BearPi_LiteOS/targets/STM32L431_BearPi/Src\gpio.c **** 
  84:C:/Users/lenovo/Desktop/liteos/Project2/BearPi_LiteOS/targets/STM32L431_BearPi/Src\gpio.c **** }
 104              		.loc 1 84 0
 105 0074 0AB0     		add	sp, sp, #40
 106              	.LCFI2:
 107              		.cfi_def_cfa_offset 8
 108              		@ sp needed
 109 0076 10BD     		pop	{r4, pc}
 110              	.L4:
 111              		.align	2
 112              	.L3:
 113 0078 00100240 		.word	1073876992
 114 007c 00040048 		.word	1207960576
 115              		.cfi_endproc
 116              	.LFE133:
 118              		.text
 119              	.Letext0:
 120              		.file 2 "c:\\program files (x86)\\liteos studio\\resources\\arm-none-eabi\\arm-none-eabi\\include\
 121              		.file 3 "c:\\program files (x86)\\liteos studio\\resources\\arm-none-eabi\\arm-none-eabi\\include\
 122              		.file 4 "c:\\program files (x86)\\liteos studio\\resources\\arm-none-eabi\\arm-none-eabi\\include\
 123              		.file 5 "c:\\program files (x86)\\liteos studio\\resources\\arm-none-eabi\\lib\\gcc\\arm-none-eabi
 124              		.file 6 "c:\\program files (x86)\\liteos studio\\resources\\arm-none-eabi\\arm-none-eabi\\include\
 125              		.file 7 "C:/Users/lenovo/Desktop/liteos/Project2/BearPi_LiteOS/kernel/include/los_typedef.h"
 126              		.file 8 "c:\\program files (x86)\\liteos studio\\resources\\arm-none-eabi\\arm-none-eabi\\include\
 127              		.file 9 "C:/Users/lenovo/Desktop/liteos/Project2/BearPi_LiteOS/arch/arm/common/cmsis/core_cm4.h"
 128              		.file 10 "C:/Users/lenovo/Desktop/liteos/Project2/BearPi_LiteOS/targets/STM32L431_BearPi/Inc/syste
 129              		.file 11 "C:/Users/lenovo/Desktop/liteos/Project2/BearPi_LiteOS/targets/STM32L431_BearPi/Inc/stm32
 130              		.file 12 "C:/Users/lenovo/Desktop/liteos/Project2/BearPi_LiteOS/targets/STM32L431_BearPi/OS_CONFIG
 131              		.file 13 "C:/Users/lenovo/Desktop/liteos/Project2/BearPi_LiteOS/kernel/include/los_config.h"
 132              		.file 14 "C:/Users/lenovo/Desktop/liteos/Project2/BearPi_LiteOS/kernel/include/los_list.h"
 133              		.file 15 "C:/Users/lenovo/Desktop/liteos/Project2/BearPi_LiteOS/kernel/include/los_err.h"
 134              		.file 16 "C:/Users/lenovo/Desktop/liteos/Project2/BearPi_LiteOS/arch/arm/arm-m/include/los_hwi.h"
 135              		.file 17 "C:/Users/lenovo/Desktop/liteos/Project2/BearPi_LiteOS/kernel/include/los_tick.h"
 136              		.file 18 "C:/Users/lenovo/Desktop/liteos/Project2/BearPi_LiteOS/kernel/include/los_event.h"
 137              		.file 19 "C:/Users/lenovo/Desktop/liteos/Project2/BearPi_LiteOS/kernel/include/los_task.h"
 138              		.file 20 "C:/Users/lenovo/Desktop/liteos/Project2/BearPi_LiteOS/kernel/base/include/los_task.ph"
 139              		.file 21 "C:/Users/lenovo/Desktop/liteos/Project2/BearPi_LiteOS/targets/STM32L431_BearPi/Inc/main.
 140              		.file 22 "C:/Users/lenovo/Desktop/liteos/Project2/BearPi_LiteOS/targets/STM32L431_BearPi/Drivers/S
ARM GAS  c:\Users\lenovo\AppData\Local\Temp\cc6khQ0g.s 			page 5

