ARM GAS  c:\Users\lenovo\AppData\Local\Temp\ccCXS8Lz.s 			page 1


   1              		.cpu cortex-m4
   2              		.eabi_attribute 27, 1
   3              		.eabi_attribute 28, 1
   4              		.eabi_attribute 20, 1
   5              		.eabi_attribute 21, 1
   6              		.eabi_attribute 23, 3
   7              		.eabi_attribute 24, 1
   8              		.eabi_attribute 25, 1
   9              		.eabi_attribute 26, 1
  10              		.eabi_attribute 30, 1
  11              		.eabi_attribute 34, 1
  12              		.eabi_attribute 18, 4
  13              		.file	"hal_rng.c"
  14              		.text
  15              	.Ltext0:
  16              		.cfi_sections	.debug_frame
  17              		.section	.text.hal_rng_config,"ax",%progbits
  18              		.align	1
  19              		.global	hal_rng_config
  20              		.syntax unified
  21              		.thumb
  22              		.thumb_func
  23              		.fpu fpv4-sp-d16
  25              	hal_rng_config:
  26              	.LFB133:
  27              		.file 1 "C:/Users/lenovo/Desktop/liteos/Project2/BearPi_LiteOS/targets/STM32L431_BearPi/Hardware/S
   1:C:/Users/lenovo/Desktop/liteos/Project2/BearPi_LiteOS/targets/STM32L431_BearPi/Hardware/Src\hal_rng.c **** /*----------------------------------------------------------------------------
   2:C:/Users/lenovo/Desktop/liteos/Project2/BearPi_LiteOS/targets/STM32L431_BearPi/Hardware/Src\hal_rng.c ****  * Copyright (c) <2016-2018>, <Huawei Technologies Co., Ltd>
   3:C:/Users/lenovo/Desktop/liteos/Project2/BearPi_LiteOS/targets/STM32L431_BearPi/Hardware/Src\hal_rng.c ****  * All rights reserved.
   4:C:/Users/lenovo/Desktop/liteos/Project2/BearPi_LiteOS/targets/STM32L431_BearPi/Hardware/Src\hal_rng.c ****  * Redistribution and use in source and binary forms, with or without modification,
   5:C:/Users/lenovo/Desktop/liteos/Project2/BearPi_LiteOS/targets/STM32L431_BearPi/Hardware/Src\hal_rng.c ****  * are permitted provided that the following conditions are met:
   6:C:/Users/lenovo/Desktop/liteos/Project2/BearPi_LiteOS/targets/STM32L431_BearPi/Hardware/Src\hal_rng.c ****  * 1. Redistributions of source code must retain the above copyright notice, this list of
   7:C:/Users/lenovo/Desktop/liteos/Project2/BearPi_LiteOS/targets/STM32L431_BearPi/Hardware/Src\hal_rng.c ****  * conditions and the following disclaimer.
   8:C:/Users/lenovo/Desktop/liteos/Project2/BearPi_LiteOS/targets/STM32L431_BearPi/Hardware/Src\hal_rng.c ****  * 2. Redistributions in binary form must reproduce the above copyright notice, this list
   9:C:/Users/lenovo/Desktop/liteos/Project2/BearPi_LiteOS/targets/STM32L431_BearPi/Hardware/Src\hal_rng.c ****  * of conditions and the following disclaimer in the documentation and/or other materials
  10:C:/Users/lenovo/Desktop/liteos/Project2/BearPi_LiteOS/targets/STM32L431_BearPi/Hardware/Src\hal_rng.c ****  * provided with the distribution.
  11:C:/Users/lenovo/Desktop/liteos/Project2/BearPi_LiteOS/targets/STM32L431_BearPi/Hardware/Src\hal_rng.c ****  * 3. Neither the name of the copyright holder nor the names of its contributors may be used
  12:C:/Users/lenovo/Desktop/liteos/Project2/BearPi_LiteOS/targets/STM32L431_BearPi/Hardware/Src\hal_rng.c ****  * to endorse or promote products derived from this software without specific prior written
  13:C:/Users/lenovo/Desktop/liteos/Project2/BearPi_LiteOS/targets/STM32L431_BearPi/Hardware/Src\hal_rng.c ****  * permission.
  14:C:/Users/lenovo/Desktop/liteos/Project2/BearPi_LiteOS/targets/STM32L431_BearPi/Hardware/Src\hal_rng.c ****  * THIS SOFTWARE IS PROVIDED BY THE COPYRIGHT HOLDERS AND CONTRIBUTORS
  15:C:/Users/lenovo/Desktop/liteos/Project2/BearPi_LiteOS/targets/STM32L431_BearPi/Hardware/Src\hal_rng.c ****  * "AS IS" AND ANY EXPRESS OR IMPLIED WARRANTIES, INCLUDING, BUT NOT LIMITED TO,
  16:C:/Users/lenovo/Desktop/liteos/Project2/BearPi_LiteOS/targets/STM32L431_BearPi/Hardware/Src\hal_rng.c ****  * THE IMPLIED WARRANTIES OF MERCHANTABILITY AND FITNESS FOR A PARTICULAR
  17:C:/Users/lenovo/Desktop/liteos/Project2/BearPi_LiteOS/targets/STM32L431_BearPi/Hardware/Src\hal_rng.c ****  * PURPOSE ARE DISCLAIMED. IN NO EVENT SHALL THE COPYRIGHT HOLDER OR
  18:C:/Users/lenovo/Desktop/liteos/Project2/BearPi_LiteOS/targets/STM32L431_BearPi/Hardware/Src\hal_rng.c ****  * CONTRIBUTORS BE LIABLE FOR ANY DIRECT, INDIRECT, INCIDENTAL, SPECIAL,
  19:C:/Users/lenovo/Desktop/liteos/Project2/BearPi_LiteOS/targets/STM32L431_BearPi/Hardware/Src\hal_rng.c ****  * EXEMPLARY, OR CONSEQUENTIAL DAMAGES (INCLUDING, BUT NOT LIMITED TO,
  20:C:/Users/lenovo/Desktop/liteos/Project2/BearPi_LiteOS/targets/STM32L431_BearPi/Hardware/Src\hal_rng.c ****  * PROCUREMENT OF SUBSTITUTE GOODS OR SERVICES; LOSS OF USE, DATA, OR PROFITS;
  21:C:/Users/lenovo/Desktop/liteos/Project2/BearPi_LiteOS/targets/STM32L431_BearPi/Hardware/Src\hal_rng.c ****  * OR BUSINESS INTERRUPTION) HOWEVER CAUSED AND ON ANY THEORY OF LIABILITY,
  22:C:/Users/lenovo/Desktop/liteos/Project2/BearPi_LiteOS/targets/STM32L431_BearPi/Hardware/Src\hal_rng.c ****  * WHETHER IN CONTRACT, STRICT LIABILITY, OR TORT (INCLUDING NEGLIGENCE OR
  23:C:/Users/lenovo/Desktop/liteos/Project2/BearPi_LiteOS/targets/STM32L431_BearPi/Hardware/Src\hal_rng.c ****  * OTHERWISE) ARISING IN ANY WAY OUT OF THE USE OF THIS SOFTWARE, EVEN IF
  24:C:/Users/lenovo/Desktop/liteos/Project2/BearPi_LiteOS/targets/STM32L431_BearPi/Hardware/Src\hal_rng.c ****  * ADVISED OF THE POSSIBILITY OF SUCH DAMAGE.
  25:C:/Users/lenovo/Desktop/liteos/Project2/BearPi_LiteOS/targets/STM32L431_BearPi/Hardware/Src\hal_rng.c ****  *---------------------------------------------------------------------------*/
  26:C:/Users/lenovo/Desktop/liteos/Project2/BearPi_LiteOS/targets/STM32L431_BearPi/Hardware/Src\hal_rng.c **** /*----------------------------------------------------------------------------
  27:C:/Users/lenovo/Desktop/liteos/Project2/BearPi_LiteOS/targets/STM32L431_BearPi/Hardware/Src\hal_rng.c ****  * Notice of Export Control Law
  28:C:/Users/lenovo/Desktop/liteos/Project2/BearPi_LiteOS/targets/STM32L431_BearPi/Hardware/Src\hal_rng.c ****  * ===============================================
  29:C:/Users/lenovo/Desktop/liteos/Project2/BearPi_LiteOS/targets/STM32L431_BearPi/Hardware/Src\hal_rng.c ****  * Huawei LiteOS may be subject to applicable export control laws and regulations, which might
  30:C:/Users/lenovo/Desktop/liteos/Project2/BearPi_LiteOS/targets/STM32L431_BearPi/Hardware/Src\hal_rng.c ****  * include those applicable to Huawei LiteOS of U.S. and the country in which you are located.
  31:C:/Users/lenovo/Desktop/liteos/Project2/BearPi_LiteOS/targets/STM32L431_BearPi/Hardware/Src\hal_rng.c ****  * Import, export and usage of Huawei LiteOS in any manner by you shall be in compliance with such
ARM GAS  c:\Users\lenovo\AppData\Local\Temp\ccCXS8Lz.s 			page 2


  32:C:/Users/lenovo/Desktop/liteos/Project2/BearPi_LiteOS/targets/STM32L431_BearPi/Hardware/Src\hal_rng.c ****  * applicable export control laws and regulations.
  33:C:/Users/lenovo/Desktop/liteos/Project2/BearPi_LiteOS/targets/STM32L431_BearPi/Hardware/Src\hal_rng.c ****  *---------------------------------------------------------------------------*/
  34:C:/Users/lenovo/Desktop/liteos/Project2/BearPi_LiteOS/targets/STM32L431_BearPi/Hardware/Src\hal_rng.c **** 
  35:C:/Users/lenovo/Desktop/liteos/Project2/BearPi_LiteOS/targets/STM32L431_BearPi/Hardware/Src\hal_rng.c **** #include <string.h>
  36:C:/Users/lenovo/Desktop/liteos/Project2/BearPi_LiteOS/targets/STM32L431_BearPi/Hardware/Src\hal_rng.c **** #include "hal_rng.h"
  37:C:/Users/lenovo/Desktop/liteos/Project2/BearPi_LiteOS/targets/STM32L431_BearPi/Hardware/Src\hal_rng.c **** #include "stm32l4xx.h"
  38:C:/Users/lenovo/Desktop/liteos/Project2/BearPi_LiteOS/targets/STM32L431_BearPi/Hardware/Src\hal_rng.c **** #include "stm32l4xx_hal_rng.h"
  39:C:/Users/lenovo/Desktop/liteos/Project2/BearPi_LiteOS/targets/STM32L431_BearPi/Hardware/Src\hal_rng.c **** 
  40:C:/Users/lenovo/Desktop/liteos/Project2/BearPi_LiteOS/targets/STM32L431_BearPi/Hardware/Src\hal_rng.c **** #ifdef HAL_RNG_MODULE_ENABLED
  41:C:/Users/lenovo/Desktop/liteos/Project2/BearPi_LiteOS/targets/STM32L431_BearPi/Hardware/Src\hal_rng.c **** 
  42:C:/Users/lenovo/Desktop/liteos/Project2/BearPi_LiteOS/targets/STM32L431_BearPi/Hardware/Src\hal_rng.c **** RNG_HandleTypeDef g_rng_handle;
  43:C:/Users/lenovo/Desktop/liteos/Project2/BearPi_LiteOS/targets/STM32L431_BearPi/Hardware/Src\hal_rng.c **** 
  44:C:/Users/lenovo/Desktop/liteos/Project2/BearPi_LiteOS/targets/STM32L431_BearPi/Hardware/Src\hal_rng.c **** void hal_rng_config(void)
  45:C:/Users/lenovo/Desktop/liteos/Project2/BearPi_LiteOS/targets/STM32L431_BearPi/Hardware/Src\hal_rng.c **** {
  28              		.loc 1 45 0
  29              		.cfi_startproc
  30              		@ args = 0, pretend = 0, frame = 8
  31              		@ frame_needed = 0, uses_anonymous_args = 0
  32 0000 00B5     		push	{lr}
  33              	.LCFI0:
  34              		.cfi_def_cfa_offset 4
  35              		.cfi_offset 14, -4
  36 0002 83B0     		sub	sp, sp, #12
  37              	.LCFI1:
  38              		.cfi_def_cfa_offset 16
  39              	.LBB2:
  46:C:/Users/lenovo/Desktop/liteos/Project2/BearPi_LiteOS/targets/STM32L431_BearPi/Hardware/Src\hal_rng.c ****     __HAL_RCC_RNG_CLK_ENABLE();
  40              		.loc 1 46 0
  41 0004 084B     		ldr	r3, .L3
  42 0006 DA6C     		ldr	r2, [r3, #76]
  43 0008 42F48022 		orr	r2, r2, #262144
  44 000c DA64     		str	r2, [r3, #76]
  45 000e DB6C     		ldr	r3, [r3, #76]
  46 0010 03F48023 		and	r3, r3, #262144
  47 0014 0193     		str	r3, [sp, #4]
  48 0016 019B     		ldr	r3, [sp, #4]
  49              	.LBE2:
  47:C:/Users/lenovo/Desktop/liteos/Project2/BearPi_LiteOS/targets/STM32L431_BearPi/Hardware/Src\hal_rng.c ****     g_rng_handle.Instance = RNG;
  50              		.loc 1 47 0
  51 0018 0448     		ldr	r0, .L3+4
  52 001a 054B     		ldr	r3, .L3+8
  53 001c 0360     		str	r3, [r0]
  48:C:/Users/lenovo/Desktop/liteos/Project2/BearPi_LiteOS/targets/STM32L431_BearPi/Hardware/Src\hal_rng.c ****     (void)HAL_RNG_Init(&g_rng_handle);
  54              		.loc 1 48 0
  55 001e FFF7FEFF 		bl	HAL_RNG_Init
  56              	.LVL0:
  49:C:/Users/lenovo/Desktop/liteos/Project2/BearPi_LiteOS/targets/STM32L431_BearPi/Hardware/Src\hal_rng.c **** }
  57              		.loc 1 49 0
  58 0022 03B0     		add	sp, sp, #12
  59              	.LCFI2:
  60              		.cfi_def_cfa_offset 4
  61              		@ sp needed
  62 0024 5DF804FB 		ldr	pc, [sp], #4
  63              	.L4:
  64              		.align	2
  65              	.L3:
  66 0028 00100240 		.word	1073876992
ARM GAS  c:\Users\lenovo\AppData\Local\Temp\ccCXS8Lz.s 			page 3


  67 002c 00000000 		.word	g_rng_handle
  68 0030 00080650 		.word	1342572544
  69              		.cfi_endproc
  70              	.LFE133:
  72              		.section	.text.hal_rng_generate_number,"ax",%progbits
  73              		.align	1
  74              		.global	hal_rng_generate_number
  75              		.syntax unified
  76              		.thumb
  77              		.thumb_func
  78              		.fpu fpv4-sp-d16
  80              	hal_rng_generate_number:
  81              	.LFB134:
  50:C:/Users/lenovo/Desktop/liteos/Project2/BearPi_LiteOS/targets/STM32L431_BearPi/Hardware/Src\hal_rng.c **** 
  51:C:/Users/lenovo/Desktop/liteos/Project2/BearPi_LiteOS/targets/STM32L431_BearPi/Hardware/Src\hal_rng.c **** int hal_rng_generate_number()
  52:C:/Users/lenovo/Desktop/liteos/Project2/BearPi_LiteOS/targets/STM32L431_BearPi/Hardware/Src\hal_rng.c **** {
  82              		.loc 1 52 0
  83              		.cfi_startproc
  84              		@ args = 0, pretend = 0, frame = 8
  85              		@ frame_needed = 0, uses_anonymous_args = 0
  86 0000 00B5     		push	{lr}
  87              	.LCFI3:
  88              		.cfi_def_cfa_offset 4
  89              		.cfi_offset 14, -4
  90 0002 83B0     		sub	sp, sp, #12
  91              	.LCFI4:
  92              		.cfi_def_cfa_offset 16
  53:C:/Users/lenovo/Desktop/liteos/Project2/BearPi_LiteOS/targets/STM32L431_BearPi/Hardware/Src\hal_rng.c ****     uint32_t random_number;
  54:C:/Users/lenovo/Desktop/liteos/Project2/BearPi_LiteOS/targets/STM32L431_BearPi/Hardware/Src\hal_rng.c **** 
  55:C:/Users/lenovo/Desktop/liteos/Project2/BearPi_LiteOS/targets/STM32L431_BearPi/Hardware/Src\hal_rng.c ****     if (HAL_RNG_GenerateRandomNumber(&g_rng_handle, &random_number) != HAL_OK)
  93              		.loc 1 55 0
  94 0004 01A9     		add	r1, sp, #4
  95 0006 0548     		ldr	r0, .L9
  96 0008 FFF7FEFF 		bl	HAL_RNG_GenerateRandomNumber
  97              	.LVL1:
  98 000c 18B9     		cbnz	r0, .L7
  56:C:/Users/lenovo/Desktop/liteos/Project2/BearPi_LiteOS/targets/STM32L431_BearPi/Hardware/Src\hal_rng.c ****     {
  57:C:/Users/lenovo/Desktop/liteos/Project2/BearPi_LiteOS/targets/STM32L431_BearPi/Hardware/Src\hal_rng.c ****         return 0U;
  58:C:/Users/lenovo/Desktop/liteos/Project2/BearPi_LiteOS/targets/STM32L431_BearPi/Hardware/Src\hal_rng.c ****     }
  59:C:/Users/lenovo/Desktop/liteos/Project2/BearPi_LiteOS/targets/STM32L431_BearPi/Hardware/Src\hal_rng.c **** 
  60:C:/Users/lenovo/Desktop/liteos/Project2/BearPi_LiteOS/targets/STM32L431_BearPi/Hardware/Src\hal_rng.c ****     return (int)random_number;
  99              		.loc 1 60 0
 100 000e 0198     		ldr	r0, [sp, #4]
 101              	.L5:
  61:C:/Users/lenovo/Desktop/liteos/Project2/BearPi_LiteOS/targets/STM32L431_BearPi/Hardware/Src\hal_rng.c **** }
 102              		.loc 1 61 0
 103 0010 03B0     		add	sp, sp, #12
 104              	.LCFI5:
 105              		.cfi_remember_state
 106              		.cfi_def_cfa_offset 4
 107              		@ sp needed
 108 0012 5DF804FB 		ldr	pc, [sp], #4
 109              	.L7:
 110              	.LCFI6:
 111              		.cfi_restore_state
  57:C:/Users/lenovo/Desktop/liteos/Project2/BearPi_LiteOS/targets/STM32L431_BearPi/Hardware/Src\hal_rng.c ****     }
 112              		.loc 1 57 0
ARM GAS  c:\Users\lenovo\AppData\Local\Temp\ccCXS8Lz.s 			page 4


 113 0016 0020     		movs	r0, #0
 114 0018 FAE7     		b	.L5
 115              	.L10:
 116 001a 00BF     		.align	2
 117              	.L9:
 118 001c 00000000 		.word	g_rng_handle
 119              		.cfi_endproc
 120              	.LFE134:
 122              		.section	.text.hal_rng_generate_buffer,"ax",%progbits
 123              		.align	1
 124              		.global	hal_rng_generate_buffer
 125              		.syntax unified
 126              		.thumb
 127              		.thumb_func
 128              		.fpu fpv4-sp-d16
 130              	hal_rng_generate_buffer:
 131              	.LFB135:
  62:C:/Users/lenovo/Desktop/liteos/Project2/BearPi_LiteOS/targets/STM32L431_BearPi/Hardware/Src\hal_rng.c **** 
  63:C:/Users/lenovo/Desktop/liteos/Project2/BearPi_LiteOS/targets/STM32L431_BearPi/Hardware/Src\hal_rng.c **** int hal_rng_generate_buffer(void* buf, size_t len)
  64:C:/Users/lenovo/Desktop/liteos/Project2/BearPi_LiteOS/targets/STM32L431_BearPi/Hardware/Src\hal_rng.c **** {
 132              		.loc 1 64 0
 133              		.cfi_startproc
 134              		@ args = 0, pretend = 0, frame = 8
 135              		@ frame_needed = 0, uses_anonymous_args = 0
 136              	.LVL2:
  65:C:/Users/lenovo/Desktop/liteos/Project2/BearPi_LiteOS/targets/STM32L431_BearPi/Hardware/Src\hal_rng.c ****     size_t i;
  66:C:/Users/lenovo/Desktop/liteos/Project2/BearPi_LiteOS/targets/STM32L431_BearPi/Hardware/Src\hal_rng.c ****     uint32_t random_number;
  67:C:/Users/lenovo/Desktop/liteos/Project2/BearPi_LiteOS/targets/STM32L431_BearPi/Hardware/Src\hal_rng.c ****     uint8_t* pbuf;
  68:C:/Users/lenovo/Desktop/liteos/Project2/BearPi_LiteOS/targets/STM32L431_BearPi/Hardware/Src\hal_rng.c **** 
  69:C:/Users/lenovo/Desktop/liteos/Project2/BearPi_LiteOS/targets/STM32L431_BearPi/Hardware/Src\hal_rng.c ****     if (NULL == buf)
 137              		.loc 1 69 0
 138 0000 C0B1     		cbz	r0, .L15
  64:C:/Users/lenovo/Desktop/liteos/Project2/BearPi_LiteOS/targets/STM32L431_BearPi/Hardware/Src\hal_rng.c ****     size_t i;
 139              		.loc 1 64 0
 140 0002 70B5     		push	{r4, r5, r6, lr}
 141              	.LCFI7:
 142              		.cfi_def_cfa_offset 16
 143              		.cfi_offset 4, -16
 144              		.cfi_offset 5, -12
 145              		.cfi_offset 6, -8
 146              		.cfi_offset 14, -4
 147 0004 82B0     		sub	sp, sp, #8
 148              	.LCFI8:
 149              		.cfi_def_cfa_offset 24
 150 0006 0646     		mov	r6, r0
 151 0008 0D46     		mov	r5, r1
  70:C:/Users/lenovo/Desktop/liteos/Project2/BearPi_LiteOS/targets/STM32L431_BearPi/Hardware/Src\hal_rng.c ****     {
  71:C:/Users/lenovo/Desktop/liteos/Project2/BearPi_LiteOS/targets/STM32L431_BearPi/Hardware/Src\hal_rng.c ****         return -1;
  72:C:/Users/lenovo/Desktop/liteos/Project2/BearPi_LiteOS/targets/STM32L431_BearPi/Hardware/Src\hal_rng.c ****     }
  73:C:/Users/lenovo/Desktop/liteos/Project2/BearPi_LiteOS/targets/STM32L431_BearPi/Hardware/Src\hal_rng.c **** 
  74:C:/Users/lenovo/Desktop/liteos/Project2/BearPi_LiteOS/targets/STM32L431_BearPi/Hardware/Src\hal_rng.c ****     pbuf = (uint8_t*)buf;
  75:C:/Users/lenovo/Desktop/liteos/Project2/BearPi_LiteOS/targets/STM32L431_BearPi/Hardware/Src\hal_rng.c **** 
  76:C:/Users/lenovo/Desktop/liteos/Project2/BearPi_LiteOS/targets/STM32L431_BearPi/Hardware/Src\hal_rng.c ****     for (i = 0; i < len; i += sizeof(uint32_t))
 152              		.loc 1 76 0
 153 000a 0024     		movs	r4, #0
 154              	.LVL3:
 155              	.L13:
ARM GAS  c:\Users\lenovo\AppData\Local\Temp\ccCXS8Lz.s 			page 5


 156              		.loc 1 76 0 is_stmt 0 discriminator 1
 157 000c AC42     		cmp	r4, r5
 158 000e 0ED2     		bcs	.L21
  77:C:/Users/lenovo/Desktop/liteos/Project2/BearPi_LiteOS/targets/STM32L431_BearPi/Hardware/Src\hal_rng.c ****     {
  78:C:/Users/lenovo/Desktop/liteos/Project2/BearPi_LiteOS/targets/STM32L431_BearPi/Hardware/Src\hal_rng.c ****         if (HAL_RNG_GenerateRandomNumber(&g_rng_handle, &random_number) != HAL_OK)
 159              		.loc 1 78 0 is_stmt 1
 160 0010 01A9     		add	r1, sp, #4
 161 0012 0B48     		ldr	r0, .L22
 162 0014 FFF7FEFF 		bl	HAL_RNG_GenerateRandomNumber
 163              	.LVL4:
 164 0018 78B9     		cbnz	r0, .L16
  79:C:/Users/lenovo/Desktop/liteos/Project2/BearPi_LiteOS/targets/STM32L431_BearPi/Hardware/Src\hal_rng.c ****         {
  80:C:/Users/lenovo/Desktop/liteos/Project2/BearPi_LiteOS/targets/STM32L431_BearPi/Hardware/Src\hal_rng.c ****             return -1;
  81:C:/Users/lenovo/Desktop/liteos/Project2/BearPi_LiteOS/targets/STM32L431_BearPi/Hardware/Src\hal_rng.c ****         }
  82:C:/Users/lenovo/Desktop/liteos/Project2/BearPi_LiteOS/targets/STM32L431_BearPi/Hardware/Src\hal_rng.c ****         memcpy(pbuf + i, &random_number,
  83:C:/Users/lenovo/Desktop/liteos/Project2/BearPi_LiteOS/targets/STM32L431_BearPi/Hardware/Src\hal_rng.c ****                sizeof(uint32_t) > len - i ? len - i : sizeof(uint32_t));
 165              		.loc 1 83 0 discriminator 2
 166 001a 2A1B     		subs	r2, r5, r4
  82:C:/Users/lenovo/Desktop/liteos/Project2/BearPi_LiteOS/targets/STM32L431_BearPi/Hardware/Src\hal_rng.c ****                sizeof(uint32_t) > len - i ? len - i : sizeof(uint32_t));
 167              		.loc 1 82 0 discriminator 2
 168 001c 042A     		cmp	r2, #4
 169 001e 28BF     		it	cs
 170 0020 0422     		movcs	r2, #4
 171 0022 01A9     		add	r1, sp, #4
 172 0024 3019     		adds	r0, r6, r4
 173 0026 FFF7FEFF 		bl	memcpy
 174              	.LVL5:
  76:C:/Users/lenovo/Desktop/liteos/Project2/BearPi_LiteOS/targets/STM32L431_BearPi/Hardware/Src\hal_rng.c ****     {
 175              		.loc 1 76 0 discriminator 2
 176 002a 0434     		adds	r4, r4, #4
 177              	.LVL6:
 178 002c EEE7     		b	.L13
 179              	.L21:
  84:C:/Users/lenovo/Desktop/liteos/Project2/BearPi_LiteOS/targets/STM32L431_BearPi/Hardware/Src\hal_rng.c ****     }
  85:C:/Users/lenovo/Desktop/liteos/Project2/BearPi_LiteOS/targets/STM32L431_BearPi/Hardware/Src\hal_rng.c **** 
  86:C:/Users/lenovo/Desktop/liteos/Project2/BearPi_LiteOS/targets/STM32L431_BearPi/Hardware/Src\hal_rng.c ****     return 0;
 180              		.loc 1 86 0
 181 002e 0020     		movs	r0, #0
 182              	.L11:
  87:C:/Users/lenovo/Desktop/liteos/Project2/BearPi_LiteOS/targets/STM32L431_BearPi/Hardware/Src\hal_rng.c **** }
 183              		.loc 1 87 0
 184 0030 02B0     		add	sp, sp, #8
 185              	.LCFI9:
 186              		.cfi_def_cfa_offset 16
 187              		@ sp needed
 188 0032 70BD     		pop	{r4, r5, r6, pc}
 189              	.LVL7:
 190              	.L15:
 191              	.LCFI10:
 192              		.cfi_def_cfa_offset 0
 193              		.cfi_restore 4
 194              		.cfi_restore 5
 195              		.cfi_restore 6
 196              		.cfi_restore 14
  71:C:/Users/lenovo/Desktop/liteos/Project2/BearPi_LiteOS/targets/STM32L431_BearPi/Hardware/Src\hal_rng.c ****     }
 197              		.loc 1 71 0
 198 0034 4FF0FF30 		mov	r0, #-1
ARM GAS  c:\Users\lenovo\AppData\Local\Temp\ccCXS8Lz.s 			page 6


 199              	.LVL8:
 200              		.loc 1 87 0
 201 0038 7047     		bx	lr
 202              	.LVL9:
 203              	.L16:
 204              	.LCFI11:
 205              		.cfi_def_cfa_offset 24
 206              		.cfi_offset 4, -16
 207              		.cfi_offset 5, -12
 208              		.cfi_offset 6, -8
 209              		.cfi_offset 14, -4
  80:C:/Users/lenovo/Desktop/liteos/Project2/BearPi_LiteOS/targets/STM32L431_BearPi/Hardware/Src\hal_rng.c ****         }
 210              		.loc 1 80 0
 211 003a 4FF0FF30 		mov	r0, #-1
 212 003e F7E7     		b	.L11
 213              	.L23:
 214              		.align	2
 215              	.L22:
 216 0040 00000000 		.word	g_rng_handle
 217              		.cfi_endproc
 218              	.LFE135:
 220              		.comm	g_rng_handle,16,4
 221              		.text
 222              	.Letext0:
 223              		.file 2 "c:\\program files (x86)\\liteos studio\\resources\\arm-none-eabi\\lib\\gcc\\arm-none-eabi
 224              		.file 3 "c:\\program files (x86)\\liteos studio\\resources\\arm-none-eabi\\arm-none-eabi\\include\
 225              		.file 4 "c:\\program files (x86)\\liteos studio\\resources\\arm-none-eabi\\arm-none-eabi\\include\
 226              		.file 5 "c:\\program files (x86)\\liteos studio\\resources\\arm-none-eabi\\arm-none-eabi\\include\
 227              		.file 6 "c:\\program files (x86)\\liteos studio\\resources\\arm-none-eabi\\arm-none-eabi\\include\
 228              		.file 7 "c:\\program files (x86)\\liteos studio\\resources\\arm-none-eabi\\arm-none-eabi\\include\
 229              		.file 8 "C:/Users/lenovo/Desktop/liteos/Project2/BearPi_LiteOS/arch/arm/common/cmsis/core_cm4.h"
 230              		.file 9 "C:/Users/lenovo/Desktop/liteos/Project2/BearPi_LiteOS/targets/STM32L431_BearPi/Inc/system
 231              		.file 10 "C:/Users/lenovo/Desktop/liteos/Project2/BearPi_LiteOS/targets/STM32L431_BearPi/Inc/stm32
 232              		.file 11 "C:/Users/lenovo/Desktop/liteos/Project2/BearPi_LiteOS/kernel/include/los_typedef.h"
 233              		.file 12 "C:/Users/lenovo/Desktop/liteos/Project2/BearPi_LiteOS/targets/STM32L431_BearPi/OS_CONFIG
 234              		.file 13 "C:/Users/lenovo/Desktop/liteos/Project2/BearPi_LiteOS/kernel/include/los_config.h"
 235              		.file 14 "C:/Users/lenovo/Desktop/liteos/Project2/BearPi_LiteOS/kernel/include/los_list.h"
 236              		.file 15 "C:/Users/lenovo/Desktop/liteos/Project2/BearPi_LiteOS/kernel/include/los_err.h"
 237              		.file 16 "C:/Users/lenovo/Desktop/liteos/Project2/BearPi_LiteOS/arch/arm/arm-m/include/los_hwi.h"
 238              		.file 17 "C:/Users/lenovo/Desktop/liteos/Project2/BearPi_LiteOS/kernel/include/los_tick.h"
 239              		.file 18 "C:/Users/lenovo/Desktop/liteos/Project2/BearPi_LiteOS/kernel/include/los_event.h"
 240              		.file 19 "C:/Users/lenovo/Desktop/liteos/Project2/BearPi_LiteOS/kernel/include/los_task.h"
 241              		.file 20 "C:/Users/lenovo/Desktop/liteos/Project2/BearPi_LiteOS/kernel/base/include/los_task.ph"
 242              		.file 21 "C:/Users/lenovo/Desktop/liteos/Project2/BearPi_LiteOS/targets/STM32L431_BearPi/Inc/main.
 243              		.file 22 "C:/Users/lenovo/Desktop/liteos/Project2/BearPi_LiteOS/targets/STM32L431_BearPi/Drivers/S
 244              		.file 23 "C:/Users/lenovo/Desktop/liteos/Project2/BearPi_LiteOS/targets/STM32L431_BearPi/Drivers/S
 245              		.file 24 "<built-in>"
ARM GAS  c:\Users\lenovo\AppData\Local\Temp\ccCXS8Lz.s 			page 7

