ARM GAS  c:\Users\lenovo\AppData\Local\Temp\cc7gPbIA.s 			page 1


   1              		.cpu cortex-m4
   2              		.eabi_attribute 27, 1
   3              		.eabi_attribute 28, 1
   4              		.eabi_attribute 20, 1
   5              		.eabi_attribute 21, 1
   6              		.eabi_attribute 23, 3
   7              		.eabi_attribute 24, 1
   8              		.eabi_attribute 25, 1
   9              		.eabi_attribute 26, 1
  10              		.eabi_attribute 30, 1
  11              		.eabi_attribute 34, 1
  12              		.eabi_attribute 18, 4
  13              		.file	"lcd.c"
  14              		.text
  15              	.Ltext0:
  16              		.cfi_sections	.debug_frame
  17              		.section	.text.LCD_Pow,"ax",%progbits
  18              		.align	1
  19              		.syntax unified
  20              		.thumb
  21              		.thumb_func
  22              		.fpu fpv4-sp-d16
  24              	LCD_Pow:
  25              	.LFB149:
  26              		.file 1 "C:/Users/lenovo/Desktop/liteos/Project2/BearPi_LiteOS/targets/STM32L431_BearPi/Hardware/L
   1:C:/Users/lenovo/Desktop/liteos/Project2/BearPi_LiteOS/targets/STM32L431_BearPi/Hardware/LCD\lcd.c **** /********************************************************************************
   2:C:/Users/lenovo/Desktop/liteos/Project2/BearPi_LiteOS/targets/STM32L431_BearPi/Hardware/LCD\lcd.c ****     * 文件名称 ：lcd.c
   3:C:/Users/lenovo/Desktop/liteos/Project2/BearPi_LiteOS/targets/STM32L431_BearPi/Hardware/LCD\lcd.c ****     * 作     者：物联网俱乐部
   4:C:/Users/lenovo/Desktop/liteos/Project2/BearPi_LiteOS/targets/STM32L431_BearPi/Hardware/LCD\lcd.c ****     * 版     本：V1.0
   5:C:/Users/lenovo/Desktop/liteos/Project2/BearPi_LiteOS/targets/STM32L431_BearPi/Hardware/LCD\lcd.c ****     * 编写日期 ：2018-4-1
   6:C:/Users/lenovo/Desktop/liteos/Project2/BearPi_LiteOS/targets/STM32L431_BearPi/Hardware/LCD\lcd.c ****     * 功     能：LCD屏幕驱动
   7:C:/Users/lenovo/Desktop/liteos/Project2/BearPi_LiteOS/targets/STM32L431_BearPi/Hardware/LCD\lcd.c **** *********************************************************************************
   8:C:/Users/lenovo/Desktop/liteos/Project2/BearPi_LiteOS/targets/STM32L431_BearPi/Hardware/LCD\lcd.c ****     * 说    明 ：本例程配套物联网俱乐部BearPi开发板使用
   9:C:/Users/lenovo/Desktop/liteos/Project2/BearPi_LiteOS/targets/STM32L431_BearPi/Hardware/LCD\lcd.c ****     *
  10:C:/Users/lenovo/Desktop/liteos/Project2/BearPi_LiteOS/targets/STM32L431_BearPi/Hardware/LCD\lcd.c ****     * 淘     宝：https://shop128001708.taobao.com/
  11:C:/Users/lenovo/Desktop/liteos/Project2/BearPi_LiteOS/targets/STM32L431_BearPi/Hardware/LCD\lcd.c ****     * 论     坛：bbs.iot-club.cn
  12:C:/Users/lenovo/Desktop/liteos/Project2/BearPi_LiteOS/targets/STM32L431_BearPi/Hardware/LCD\lcd.c **** *********************************************************************************/
  13:C:/Users/lenovo/Desktop/liteos/Project2/BearPi_LiteOS/targets/STM32L431_BearPi/Hardware/LCD\lcd.c **** #include "lcd.h"
  14:C:/Users/lenovo/Desktop/liteos/Project2/BearPi_LiteOS/targets/STM32L431_BearPi/Hardware/LCD\lcd.c **** #include "font.h"
  15:C:/Users/lenovo/Desktop/liteos/Project2/BearPi_LiteOS/targets/STM32L431_BearPi/Hardware/LCD\lcd.c **** #include "spi.h"
  16:C:/Users/lenovo/Desktop/liteos/Project2/BearPi_LiteOS/targets/STM32L431_BearPi/Hardware/LCD\lcd.c **** #include "gpio.h"
  17:C:/Users/lenovo/Desktop/liteos/Project2/BearPi_LiteOS/targets/STM32L431_BearPi/Hardware/LCD\lcd.c **** #include "dwt.h"
  18:C:/Users/lenovo/Desktop/liteos/Project2/BearPi_LiteOS/targets/STM32L431_BearPi/Hardware/LCD\lcd.c **** 
  19:C:/Users/lenovo/Desktop/liteos/Project2/BearPi_LiteOS/targets/STM32L431_BearPi/Hardware/LCD\lcd.c **** #include "stm32l4xx_hal.h"
  20:C:/Users/lenovo/Desktop/liteos/Project2/BearPi_LiteOS/targets/STM32L431_BearPi/Hardware/LCD\lcd.c **** #define LCD_TOTAL_BUF_SIZE	(240*240*2)
  21:C:/Users/lenovo/Desktop/liteos/Project2/BearPi_LiteOS/targets/STM32L431_BearPi/Hardware/LCD\lcd.c **** #define LCD_Buf_Size 1152
  22:C:/Users/lenovo/Desktop/liteos/Project2/BearPi_LiteOS/targets/STM32L431_BearPi/Hardware/LCD\lcd.c **** static uint8_t lcd_buf[LCD_Buf_Size];
  23:C:/Users/lenovo/Desktop/liteos/Project2/BearPi_LiteOS/targets/STM32L431_BearPi/Hardware/LCD\lcd.c **** 
  24:C:/Users/lenovo/Desktop/liteos/Project2/BearPi_LiteOS/targets/STM32L431_BearPi/Hardware/LCD\lcd.c **** uint16_t	POINT_COLOR = BLACK;	//画笔颜色	默认为黑色
  25:C:/Users/lenovo/Desktop/liteos/Project2/BearPi_LiteOS/targets/STM32L431_BearPi/Hardware/LCD\lcd.c **** uint16_t	BACK_COLOR 	= WHITE;	//背景颜色	默认为白色
  26:C:/Users/lenovo/Desktop/liteos/Project2/BearPi_LiteOS/targets/STM32L431_BearPi/Hardware/LCD\lcd.c **** 
  27:C:/Users/lenovo/Desktop/liteos/Project2/BearPi_LiteOS/targets/STM32L431_BearPi/Hardware/LCD\lcd.c **** 
  28:C:/Users/lenovo/Desktop/liteos/Project2/BearPi_LiteOS/targets/STM32L431_BearPi/Hardware/LCD\lcd.c **** /**
  29:C:/Users/lenovo/Desktop/liteos/Project2/BearPi_LiteOS/targets/STM32L431_BearPi/Hardware/LCD\lcd.c ****  * @brief	LCD控制接口初始化
  30:C:/Users/lenovo/Desktop/liteos/Project2/BearPi_LiteOS/targets/STM32L431_BearPi/Hardware/LCD\lcd.c ****  *
  31:C:/Users/lenovo/Desktop/liteos/Project2/BearPi_LiteOS/targets/STM32L431_BearPi/Hardware/LCD\lcd.c ****  * @param   void
  32:C:/Users/lenovo/Desktop/liteos/Project2/BearPi_LiteOS/targets/STM32L431_BearPi/Hardware/LCD\lcd.c ****  *
ARM GAS  c:\Users\lenovo\AppData\Local\Temp\cc7gPbIA.s 			page 2


  33:C:/Users/lenovo/Desktop/liteos/Project2/BearPi_LiteOS/targets/STM32L431_BearPi/Hardware/LCD\lcd.c ****  * @return  void
  34:C:/Users/lenovo/Desktop/liteos/Project2/BearPi_LiteOS/targets/STM32L431_BearPi/Hardware/LCD\lcd.c ****  */
  35:C:/Users/lenovo/Desktop/liteos/Project2/BearPi_LiteOS/targets/STM32L431_BearPi/Hardware/LCD\lcd.c **** static void LCD_Gpio_Init(void)
  36:C:/Users/lenovo/Desktop/liteos/Project2/BearPi_LiteOS/targets/STM32L431_BearPi/Hardware/LCD\lcd.c **** {
  37:C:/Users/lenovo/Desktop/liteos/Project2/BearPi_LiteOS/targets/STM32L431_BearPi/Hardware/LCD\lcd.c ****     GPIO_InitTypeDef GPIO_InitStruct;
  38:C:/Users/lenovo/Desktop/liteos/Project2/BearPi_LiteOS/targets/STM32L431_BearPi/Hardware/LCD\lcd.c **** 
  39:C:/Users/lenovo/Desktop/liteos/Project2/BearPi_LiteOS/targets/STM32L431_BearPi/Hardware/LCD\lcd.c ****     __HAL_RCC_GPIOB_CLK_ENABLE();
  40:C:/Users/lenovo/Desktop/liteos/Project2/BearPi_LiteOS/targets/STM32L431_BearPi/Hardware/LCD\lcd.c ****     __HAL_RCC_GPIOC_CLK_ENABLE();
  41:C:/Users/lenovo/Desktop/liteos/Project2/BearPi_LiteOS/targets/STM32L431_BearPi/Hardware/LCD\lcd.c **** 
  42:C:/Users/lenovo/Desktop/liteos/Project2/BearPi_LiteOS/targets/STM32L431_BearPi/Hardware/LCD\lcd.c ****     /*
  43:C:/Users/lenovo/Desktop/liteos/Project2/BearPi_LiteOS/targets/STM32L431_BearPi/Hardware/LCD\lcd.c **** 	LCD_PWR:	PB15
  44:C:/Users/lenovo/Desktop/liteos/Project2/BearPi_LiteOS/targets/STM32L431_BearPi/Hardware/LCD\lcd.c **** 	LCD_RST:	PC7
  45:C:/Users/lenovo/Desktop/liteos/Project2/BearPi_LiteOS/targets/STM32L431_BearPi/Hardware/LCD\lcd.c **** 	LCD_DC:		PC6	
  46:C:/Users/lenovo/Desktop/liteos/Project2/BearPi_LiteOS/targets/STM32L431_BearPi/Hardware/LCD\lcd.c ****     */
  47:C:/Users/lenovo/Desktop/liteos/Project2/BearPi_LiteOS/targets/STM32L431_BearPi/Hardware/LCD\lcd.c ****     GPIO_InitStruct.Pin = GPIO_PIN_15;
  48:C:/Users/lenovo/Desktop/liteos/Project2/BearPi_LiteOS/targets/STM32L431_BearPi/Hardware/LCD\lcd.c ****     GPIO_InitStruct.Mode = GPIO_MODE_OUTPUT_PP;
  49:C:/Users/lenovo/Desktop/liteos/Project2/BearPi_LiteOS/targets/STM32L431_BearPi/Hardware/LCD\lcd.c ****     GPIO_InitStruct.Pull = GPIO_PULLUP;
  50:C:/Users/lenovo/Desktop/liteos/Project2/BearPi_LiteOS/targets/STM32L431_BearPi/Hardware/LCD\lcd.c ****     GPIO_InitStruct.Speed = GPIO_SPEED_FREQ_HIGH;
  51:C:/Users/lenovo/Desktop/liteos/Project2/BearPi_LiteOS/targets/STM32L431_BearPi/Hardware/LCD\lcd.c ****     HAL_GPIO_Init(GPIOB, &GPIO_InitStruct);
  52:C:/Users/lenovo/Desktop/liteos/Project2/BearPi_LiteOS/targets/STM32L431_BearPi/Hardware/LCD\lcd.c ****     HAL_GPIO_WritePin(GPIOB, GPIO_PIN_15, GPIO_PIN_RESET);
  53:C:/Users/lenovo/Desktop/liteos/Project2/BearPi_LiteOS/targets/STM32L431_BearPi/Hardware/LCD\lcd.c **** 	
  54:C:/Users/lenovo/Desktop/liteos/Project2/BearPi_LiteOS/targets/STM32L431_BearPi/Hardware/LCD\lcd.c **** 	GPIO_InitStruct.Pin = GPIO_PIN_6 | GPIO_PIN_7;
  55:C:/Users/lenovo/Desktop/liteos/Project2/BearPi_LiteOS/targets/STM32L431_BearPi/Hardware/LCD\lcd.c ****     GPIO_InitStruct.Mode = GPIO_MODE_OUTPUT_PP;
  56:C:/Users/lenovo/Desktop/liteos/Project2/BearPi_LiteOS/targets/STM32L431_BearPi/Hardware/LCD\lcd.c ****     GPIO_InitStruct.Pull = GPIO_PULLUP;
  57:C:/Users/lenovo/Desktop/liteos/Project2/BearPi_LiteOS/targets/STM32L431_BearPi/Hardware/LCD\lcd.c ****     GPIO_InitStruct.Speed = GPIO_SPEED_FREQ_HIGH;
  58:C:/Users/lenovo/Desktop/liteos/Project2/BearPi_LiteOS/targets/STM32L431_BearPi/Hardware/LCD\lcd.c ****     HAL_GPIO_Init(GPIOC, &GPIO_InitStruct);
  59:C:/Users/lenovo/Desktop/liteos/Project2/BearPi_LiteOS/targets/STM32L431_BearPi/Hardware/LCD\lcd.c ****     HAL_GPIO_WritePin(GPIOC ,GPIO_PIN_6 | GPIO_PIN_7, GPIO_PIN_RESET);
  60:C:/Users/lenovo/Desktop/liteos/Project2/BearPi_LiteOS/targets/STM32L431_BearPi/Hardware/LCD\lcd.c **** 
  61:C:/Users/lenovo/Desktop/liteos/Project2/BearPi_LiteOS/targets/STM32L431_BearPi/Hardware/LCD\lcd.c **** 
  62:C:/Users/lenovo/Desktop/liteos/Project2/BearPi_LiteOS/targets/STM32L431_BearPi/Hardware/LCD\lcd.c ****     LCD_PWR(0);
  63:C:/Users/lenovo/Desktop/liteos/Project2/BearPi_LiteOS/targets/STM32L431_BearPi/Hardware/LCD\lcd.c **** 
  64:C:/Users/lenovo/Desktop/liteos/Project2/BearPi_LiteOS/targets/STM32L431_BearPi/Hardware/LCD\lcd.c ****     LCD_RST(0);
  65:C:/Users/lenovo/Desktop/liteos/Project2/BearPi_LiteOS/targets/STM32L431_BearPi/Hardware/LCD\lcd.c ****     delay10ms(12);
  66:C:/Users/lenovo/Desktop/liteos/Project2/BearPi_LiteOS/targets/STM32L431_BearPi/Hardware/LCD\lcd.c ****     LCD_RST(1);
  67:C:/Users/lenovo/Desktop/liteos/Project2/BearPi_LiteOS/targets/STM32L431_BearPi/Hardware/LCD\lcd.c **** 
  68:C:/Users/lenovo/Desktop/liteos/Project2/BearPi_LiteOS/targets/STM32L431_BearPi/Hardware/LCD\lcd.c ****     //MX_SPI2_Init();	//初始化SPI2接口
  69:C:/Users/lenovo/Desktop/liteos/Project2/BearPi_LiteOS/targets/STM32L431_BearPi/Hardware/LCD\lcd.c **** }
  70:C:/Users/lenovo/Desktop/liteos/Project2/BearPi_LiteOS/targets/STM32L431_BearPi/Hardware/LCD\lcd.c **** 
  71:C:/Users/lenovo/Desktop/liteos/Project2/BearPi_LiteOS/targets/STM32L431_BearPi/Hardware/LCD\lcd.c **** 
  72:C:/Users/lenovo/Desktop/liteos/Project2/BearPi_LiteOS/targets/STM32L431_BearPi/Hardware/LCD\lcd.c **** /**
  73:C:/Users/lenovo/Desktop/liteos/Project2/BearPi_LiteOS/targets/STM32L431_BearPi/Hardware/LCD\lcd.c ****  * @brief	LCD底层SPI发送数据函数
  74:C:/Users/lenovo/Desktop/liteos/Project2/BearPi_LiteOS/targets/STM32L431_BearPi/Hardware/LCD\lcd.c ****  *
  75:C:/Users/lenovo/Desktop/liteos/Project2/BearPi_LiteOS/targets/STM32L431_BearPi/Hardware/LCD\lcd.c ****  * @param   data	数据的起始地址
  76:C:/Users/lenovo/Desktop/liteos/Project2/BearPi_LiteOS/targets/STM32L431_BearPi/Hardware/LCD\lcd.c ****  * @param   size	发送数据大小
  77:C:/Users/lenovo/Desktop/liteos/Project2/BearPi_LiteOS/targets/STM32L431_BearPi/Hardware/LCD\lcd.c ****  *
  78:C:/Users/lenovo/Desktop/liteos/Project2/BearPi_LiteOS/targets/STM32L431_BearPi/Hardware/LCD\lcd.c ****  * @return  void
  79:C:/Users/lenovo/Desktop/liteos/Project2/BearPi_LiteOS/targets/STM32L431_BearPi/Hardware/LCD\lcd.c ****  */
  80:C:/Users/lenovo/Desktop/liteos/Project2/BearPi_LiteOS/targets/STM32L431_BearPi/Hardware/LCD\lcd.c **** static void LCD_SPI_Send(uint8_t *data, uint16_t size)
  81:C:/Users/lenovo/Desktop/liteos/Project2/BearPi_LiteOS/targets/STM32L431_BearPi/Hardware/LCD\lcd.c **** {
  82:C:/Users/lenovo/Desktop/liteos/Project2/BearPi_LiteOS/targets/STM32L431_BearPi/Hardware/LCD\lcd.c ****     SPI2_WriteByte(data, size);
  83:C:/Users/lenovo/Desktop/liteos/Project2/BearPi_LiteOS/targets/STM32L431_BearPi/Hardware/LCD\lcd.c **** }
  84:C:/Users/lenovo/Desktop/liteos/Project2/BearPi_LiteOS/targets/STM32L431_BearPi/Hardware/LCD\lcd.c **** 
  85:C:/Users/lenovo/Desktop/liteos/Project2/BearPi_LiteOS/targets/STM32L431_BearPi/Hardware/LCD\lcd.c **** 
  86:C:/Users/lenovo/Desktop/liteos/Project2/BearPi_LiteOS/targets/STM32L431_BearPi/Hardware/LCD\lcd.c **** /**
  87:C:/Users/lenovo/Desktop/liteos/Project2/BearPi_LiteOS/targets/STM32L431_BearPi/Hardware/LCD\lcd.c ****  * @brief	写命令到LCD
  88:C:/Users/lenovo/Desktop/liteos/Project2/BearPi_LiteOS/targets/STM32L431_BearPi/Hardware/LCD\lcd.c ****  *
  89:C:/Users/lenovo/Desktop/liteos/Project2/BearPi_LiteOS/targets/STM32L431_BearPi/Hardware/LCD\lcd.c ****  * @param   cmd		需要发送的命令
ARM GAS  c:\Users\lenovo\AppData\Local\Temp\cc7gPbIA.s 			page 3


  90:C:/Users/lenovo/Desktop/liteos/Project2/BearPi_LiteOS/targets/STM32L431_BearPi/Hardware/LCD\lcd.c ****  *
  91:C:/Users/lenovo/Desktop/liteos/Project2/BearPi_LiteOS/targets/STM32L431_BearPi/Hardware/LCD\lcd.c ****  * @return  void
  92:C:/Users/lenovo/Desktop/liteos/Project2/BearPi_LiteOS/targets/STM32L431_BearPi/Hardware/LCD\lcd.c ****  */
  93:C:/Users/lenovo/Desktop/liteos/Project2/BearPi_LiteOS/targets/STM32L431_BearPi/Hardware/LCD\lcd.c **** static void LCD_Write_Cmd(uint8_t cmd)
  94:C:/Users/lenovo/Desktop/liteos/Project2/BearPi_LiteOS/targets/STM32L431_BearPi/Hardware/LCD\lcd.c **** {
  95:C:/Users/lenovo/Desktop/liteos/Project2/BearPi_LiteOS/targets/STM32L431_BearPi/Hardware/LCD\lcd.c ****     LCD_DC(0);
  96:C:/Users/lenovo/Desktop/liteos/Project2/BearPi_LiteOS/targets/STM32L431_BearPi/Hardware/LCD\lcd.c **** 
  97:C:/Users/lenovo/Desktop/liteos/Project2/BearPi_LiteOS/targets/STM32L431_BearPi/Hardware/LCD\lcd.c ****     LCD_SPI_Send(&cmd, 1);
  98:C:/Users/lenovo/Desktop/liteos/Project2/BearPi_LiteOS/targets/STM32L431_BearPi/Hardware/LCD\lcd.c **** }
  99:C:/Users/lenovo/Desktop/liteos/Project2/BearPi_LiteOS/targets/STM32L431_BearPi/Hardware/LCD\lcd.c **** 
 100:C:/Users/lenovo/Desktop/liteos/Project2/BearPi_LiteOS/targets/STM32L431_BearPi/Hardware/LCD\lcd.c **** /**
 101:C:/Users/lenovo/Desktop/liteos/Project2/BearPi_LiteOS/targets/STM32L431_BearPi/Hardware/LCD\lcd.c ****  * @brief	写数据到LCD
 102:C:/Users/lenovo/Desktop/liteos/Project2/BearPi_LiteOS/targets/STM32L431_BearPi/Hardware/LCD\lcd.c ****  *
 103:C:/Users/lenovo/Desktop/liteos/Project2/BearPi_LiteOS/targets/STM32L431_BearPi/Hardware/LCD\lcd.c ****  * @param   cmd		需要发送的数据
 104:C:/Users/lenovo/Desktop/liteos/Project2/BearPi_LiteOS/targets/STM32L431_BearPi/Hardware/LCD\lcd.c ****  *
 105:C:/Users/lenovo/Desktop/liteos/Project2/BearPi_LiteOS/targets/STM32L431_BearPi/Hardware/LCD\lcd.c ****  * @return  void
 106:C:/Users/lenovo/Desktop/liteos/Project2/BearPi_LiteOS/targets/STM32L431_BearPi/Hardware/LCD\lcd.c ****  */
 107:C:/Users/lenovo/Desktop/liteos/Project2/BearPi_LiteOS/targets/STM32L431_BearPi/Hardware/LCD\lcd.c **** static void LCD_Write_Data(uint8_t data)
 108:C:/Users/lenovo/Desktop/liteos/Project2/BearPi_LiteOS/targets/STM32L431_BearPi/Hardware/LCD\lcd.c **** {
 109:C:/Users/lenovo/Desktop/liteos/Project2/BearPi_LiteOS/targets/STM32L431_BearPi/Hardware/LCD\lcd.c ****     LCD_DC(1);
 110:C:/Users/lenovo/Desktop/liteos/Project2/BearPi_LiteOS/targets/STM32L431_BearPi/Hardware/LCD\lcd.c **** 
 111:C:/Users/lenovo/Desktop/liteos/Project2/BearPi_LiteOS/targets/STM32L431_BearPi/Hardware/LCD\lcd.c ****     LCD_SPI_Send(&data, 1);
 112:C:/Users/lenovo/Desktop/liteos/Project2/BearPi_LiteOS/targets/STM32L431_BearPi/Hardware/LCD\lcd.c **** }
 113:C:/Users/lenovo/Desktop/liteos/Project2/BearPi_LiteOS/targets/STM32L431_BearPi/Hardware/LCD\lcd.c **** 
 114:C:/Users/lenovo/Desktop/liteos/Project2/BearPi_LiteOS/targets/STM32L431_BearPi/Hardware/LCD\lcd.c **** /**
 115:C:/Users/lenovo/Desktop/liteos/Project2/BearPi_LiteOS/targets/STM32L431_BearPi/Hardware/LCD\lcd.c ****  * @brief	写半个字的数据到LCD
 116:C:/Users/lenovo/Desktop/liteos/Project2/BearPi_LiteOS/targets/STM32L431_BearPi/Hardware/LCD\lcd.c ****  *
 117:C:/Users/lenovo/Desktop/liteos/Project2/BearPi_LiteOS/targets/STM32L431_BearPi/Hardware/LCD\lcd.c ****  * @param   cmd		需要发送的数据
 118:C:/Users/lenovo/Desktop/liteos/Project2/BearPi_LiteOS/targets/STM32L431_BearPi/Hardware/LCD\lcd.c ****  *
 119:C:/Users/lenovo/Desktop/liteos/Project2/BearPi_LiteOS/targets/STM32L431_BearPi/Hardware/LCD\lcd.c ****  * @return  void
 120:C:/Users/lenovo/Desktop/liteos/Project2/BearPi_LiteOS/targets/STM32L431_BearPi/Hardware/LCD\lcd.c ****  */
 121:C:/Users/lenovo/Desktop/liteos/Project2/BearPi_LiteOS/targets/STM32L431_BearPi/Hardware/LCD\lcd.c **** void LCD_Write_HalfWord(const uint16_t da)
 122:C:/Users/lenovo/Desktop/liteos/Project2/BearPi_LiteOS/targets/STM32L431_BearPi/Hardware/LCD\lcd.c **** {
 123:C:/Users/lenovo/Desktop/liteos/Project2/BearPi_LiteOS/targets/STM32L431_BearPi/Hardware/LCD\lcd.c ****     uint8_t data[2] = {0};
 124:C:/Users/lenovo/Desktop/liteos/Project2/BearPi_LiteOS/targets/STM32L431_BearPi/Hardware/LCD\lcd.c **** 
 125:C:/Users/lenovo/Desktop/liteos/Project2/BearPi_LiteOS/targets/STM32L431_BearPi/Hardware/LCD\lcd.c ****     data[0] = da >> 8;
 126:C:/Users/lenovo/Desktop/liteos/Project2/BearPi_LiteOS/targets/STM32L431_BearPi/Hardware/LCD\lcd.c ****     data[1] = da;
 127:C:/Users/lenovo/Desktop/liteos/Project2/BearPi_LiteOS/targets/STM32L431_BearPi/Hardware/LCD\lcd.c **** 
 128:C:/Users/lenovo/Desktop/liteos/Project2/BearPi_LiteOS/targets/STM32L431_BearPi/Hardware/LCD\lcd.c ****     LCD_DC(1);
 129:C:/Users/lenovo/Desktop/liteos/Project2/BearPi_LiteOS/targets/STM32L431_BearPi/Hardware/LCD\lcd.c ****     LCD_SPI_Send(data, 2);
 130:C:/Users/lenovo/Desktop/liteos/Project2/BearPi_LiteOS/targets/STM32L431_BearPi/Hardware/LCD\lcd.c **** }
 131:C:/Users/lenovo/Desktop/liteos/Project2/BearPi_LiteOS/targets/STM32L431_BearPi/Hardware/LCD\lcd.c **** 
 132:C:/Users/lenovo/Desktop/liteos/Project2/BearPi_LiteOS/targets/STM32L431_BearPi/Hardware/LCD\lcd.c **** 
 133:C:/Users/lenovo/Desktop/liteos/Project2/BearPi_LiteOS/targets/STM32L431_BearPi/Hardware/LCD\lcd.c **** /**
 134:C:/Users/lenovo/Desktop/liteos/Project2/BearPi_LiteOS/targets/STM32L431_BearPi/Hardware/LCD\lcd.c ****  * 设置数据写入LCD缓存区域
 135:C:/Users/lenovo/Desktop/liteos/Project2/BearPi_LiteOS/targets/STM32L431_BearPi/Hardware/LCD\lcd.c ****  *
 136:C:/Users/lenovo/Desktop/liteos/Project2/BearPi_LiteOS/targets/STM32L431_BearPi/Hardware/LCD\lcd.c ****  * @param   x1,y1	起点坐标
 137:C:/Users/lenovo/Desktop/liteos/Project2/BearPi_LiteOS/targets/STM32L431_BearPi/Hardware/LCD\lcd.c ****  * @param   x2,y2	终点坐标
 138:C:/Users/lenovo/Desktop/liteos/Project2/BearPi_LiteOS/targets/STM32L431_BearPi/Hardware/LCD\lcd.c ****  *
 139:C:/Users/lenovo/Desktop/liteos/Project2/BearPi_LiteOS/targets/STM32L431_BearPi/Hardware/LCD\lcd.c ****  * @return  void
 140:C:/Users/lenovo/Desktop/liteos/Project2/BearPi_LiteOS/targets/STM32L431_BearPi/Hardware/LCD\lcd.c ****  */
 141:C:/Users/lenovo/Desktop/liteos/Project2/BearPi_LiteOS/targets/STM32L431_BearPi/Hardware/LCD\lcd.c **** void LCD_Address_Set(uint16_t x1, uint16_t y1, uint16_t x2, uint16_t y2)
 142:C:/Users/lenovo/Desktop/liteos/Project2/BearPi_LiteOS/targets/STM32L431_BearPi/Hardware/LCD\lcd.c **** {
 143:C:/Users/lenovo/Desktop/liteos/Project2/BearPi_LiteOS/targets/STM32L431_BearPi/Hardware/LCD\lcd.c ****     LCD_Write_Cmd(0x2a);
 144:C:/Users/lenovo/Desktop/liteos/Project2/BearPi_LiteOS/targets/STM32L431_BearPi/Hardware/LCD\lcd.c ****     LCD_Write_Data(x1 >> 8);
 145:C:/Users/lenovo/Desktop/liteos/Project2/BearPi_LiteOS/targets/STM32L431_BearPi/Hardware/LCD\lcd.c ****     LCD_Write_Data(x1);
 146:C:/Users/lenovo/Desktop/liteos/Project2/BearPi_LiteOS/targets/STM32L431_BearPi/Hardware/LCD\lcd.c ****     LCD_Write_Data(x2 >> 8);
ARM GAS  c:\Users\lenovo\AppData\Local\Temp\cc7gPbIA.s 			page 4


 147:C:/Users/lenovo/Desktop/liteos/Project2/BearPi_LiteOS/targets/STM32L431_BearPi/Hardware/LCD\lcd.c ****     LCD_Write_Data(x2);
 148:C:/Users/lenovo/Desktop/liteos/Project2/BearPi_LiteOS/targets/STM32L431_BearPi/Hardware/LCD\lcd.c **** 
 149:C:/Users/lenovo/Desktop/liteos/Project2/BearPi_LiteOS/targets/STM32L431_BearPi/Hardware/LCD\lcd.c ****     LCD_Write_Cmd(0x2b);
 150:C:/Users/lenovo/Desktop/liteos/Project2/BearPi_LiteOS/targets/STM32L431_BearPi/Hardware/LCD\lcd.c ****     LCD_Write_Data(y1 >> 8);
 151:C:/Users/lenovo/Desktop/liteos/Project2/BearPi_LiteOS/targets/STM32L431_BearPi/Hardware/LCD\lcd.c ****     LCD_Write_Data(y1);
 152:C:/Users/lenovo/Desktop/liteos/Project2/BearPi_LiteOS/targets/STM32L431_BearPi/Hardware/LCD\lcd.c ****     LCD_Write_Data(y2 >> 8);
 153:C:/Users/lenovo/Desktop/liteos/Project2/BearPi_LiteOS/targets/STM32L431_BearPi/Hardware/LCD\lcd.c ****     LCD_Write_Data(y2);
 154:C:/Users/lenovo/Desktop/liteos/Project2/BearPi_LiteOS/targets/STM32L431_BearPi/Hardware/LCD\lcd.c **** 
 155:C:/Users/lenovo/Desktop/liteos/Project2/BearPi_LiteOS/targets/STM32L431_BearPi/Hardware/LCD\lcd.c ****     LCD_Write_Cmd(0x2C);
 156:C:/Users/lenovo/Desktop/liteos/Project2/BearPi_LiteOS/targets/STM32L431_BearPi/Hardware/LCD\lcd.c **** }
 157:C:/Users/lenovo/Desktop/liteos/Project2/BearPi_LiteOS/targets/STM32L431_BearPi/Hardware/LCD\lcd.c **** 
 158:C:/Users/lenovo/Desktop/liteos/Project2/BearPi_LiteOS/targets/STM32L431_BearPi/Hardware/LCD\lcd.c **** /**
 159:C:/Users/lenovo/Desktop/liteos/Project2/BearPi_LiteOS/targets/STM32L431_BearPi/Hardware/LCD\lcd.c ****  * 打开LCD显示
 160:C:/Users/lenovo/Desktop/liteos/Project2/BearPi_LiteOS/targets/STM32L431_BearPi/Hardware/LCD\lcd.c ****  *
 161:C:/Users/lenovo/Desktop/liteos/Project2/BearPi_LiteOS/targets/STM32L431_BearPi/Hardware/LCD\lcd.c ****  * @param   void
 162:C:/Users/lenovo/Desktop/liteos/Project2/BearPi_LiteOS/targets/STM32L431_BearPi/Hardware/LCD\lcd.c ****  *
 163:C:/Users/lenovo/Desktop/liteos/Project2/BearPi_LiteOS/targets/STM32L431_BearPi/Hardware/LCD\lcd.c ****  * @return  void
 164:C:/Users/lenovo/Desktop/liteos/Project2/BearPi_LiteOS/targets/STM32L431_BearPi/Hardware/LCD\lcd.c ****  */
 165:C:/Users/lenovo/Desktop/liteos/Project2/BearPi_LiteOS/targets/STM32L431_BearPi/Hardware/LCD\lcd.c **** void LCD_DisplayOn(void)
 166:C:/Users/lenovo/Desktop/liteos/Project2/BearPi_LiteOS/targets/STM32L431_BearPi/Hardware/LCD\lcd.c **** {
 167:C:/Users/lenovo/Desktop/liteos/Project2/BearPi_LiteOS/targets/STM32L431_BearPi/Hardware/LCD\lcd.c ****     LCD_PWR(1);
 168:C:/Users/lenovo/Desktop/liteos/Project2/BearPi_LiteOS/targets/STM32L431_BearPi/Hardware/LCD\lcd.c **** }
 169:C:/Users/lenovo/Desktop/liteos/Project2/BearPi_LiteOS/targets/STM32L431_BearPi/Hardware/LCD\lcd.c **** /**
 170:C:/Users/lenovo/Desktop/liteos/Project2/BearPi_LiteOS/targets/STM32L431_BearPi/Hardware/LCD\lcd.c ****  * 关闭LCD显示
 171:C:/Users/lenovo/Desktop/liteos/Project2/BearPi_LiteOS/targets/STM32L431_BearPi/Hardware/LCD\lcd.c ****  *
 172:C:/Users/lenovo/Desktop/liteos/Project2/BearPi_LiteOS/targets/STM32L431_BearPi/Hardware/LCD\lcd.c ****  * @param   void
 173:C:/Users/lenovo/Desktop/liteos/Project2/BearPi_LiteOS/targets/STM32L431_BearPi/Hardware/LCD\lcd.c ****  *
 174:C:/Users/lenovo/Desktop/liteos/Project2/BearPi_LiteOS/targets/STM32L431_BearPi/Hardware/LCD\lcd.c ****  * @return  void
 175:C:/Users/lenovo/Desktop/liteos/Project2/BearPi_LiteOS/targets/STM32L431_BearPi/Hardware/LCD\lcd.c ****  */
 176:C:/Users/lenovo/Desktop/liteos/Project2/BearPi_LiteOS/targets/STM32L431_BearPi/Hardware/LCD\lcd.c **** void LCD_DisplayOff(void)
 177:C:/Users/lenovo/Desktop/liteos/Project2/BearPi_LiteOS/targets/STM32L431_BearPi/Hardware/LCD\lcd.c **** {
 178:C:/Users/lenovo/Desktop/liteos/Project2/BearPi_LiteOS/targets/STM32L431_BearPi/Hardware/LCD\lcd.c ****     LCD_PWR(0);
 179:C:/Users/lenovo/Desktop/liteos/Project2/BearPi_LiteOS/targets/STM32L431_BearPi/Hardware/LCD\lcd.c **** }
 180:C:/Users/lenovo/Desktop/liteos/Project2/BearPi_LiteOS/targets/STM32L431_BearPi/Hardware/LCD\lcd.c **** 
 181:C:/Users/lenovo/Desktop/liteos/Project2/BearPi_LiteOS/targets/STM32L431_BearPi/Hardware/LCD\lcd.c **** /**
 182:C:/Users/lenovo/Desktop/liteos/Project2/BearPi_LiteOS/targets/STM32L431_BearPi/Hardware/LCD\lcd.c ****  * 以一种颜色清空LCD屏
 183:C:/Users/lenovo/Desktop/liteos/Project2/BearPi_LiteOS/targets/STM32L431_BearPi/Hardware/LCD\lcd.c ****  *
 184:C:/Users/lenovo/Desktop/liteos/Project2/BearPi_LiteOS/targets/STM32L431_BearPi/Hardware/LCD\lcd.c ****  * @param   color	清屏颜色
 185:C:/Users/lenovo/Desktop/liteos/Project2/BearPi_LiteOS/targets/STM32L431_BearPi/Hardware/LCD\lcd.c ****  *
 186:C:/Users/lenovo/Desktop/liteos/Project2/BearPi_LiteOS/targets/STM32L431_BearPi/Hardware/LCD\lcd.c ****  * @return  void
 187:C:/Users/lenovo/Desktop/liteos/Project2/BearPi_LiteOS/targets/STM32L431_BearPi/Hardware/LCD\lcd.c ****  */
 188:C:/Users/lenovo/Desktop/liteos/Project2/BearPi_LiteOS/targets/STM32L431_BearPi/Hardware/LCD\lcd.c **** void LCD_Clear(uint16_t color)
 189:C:/Users/lenovo/Desktop/liteos/Project2/BearPi_LiteOS/targets/STM32L431_BearPi/Hardware/LCD\lcd.c **** {
 190:C:/Users/lenovo/Desktop/liteos/Project2/BearPi_LiteOS/targets/STM32L431_BearPi/Hardware/LCD\lcd.c ****     uint16_t i, j;
 191:C:/Users/lenovo/Desktop/liteos/Project2/BearPi_LiteOS/targets/STM32L431_BearPi/Hardware/LCD\lcd.c ****     uint8_t data[2] = {0};
 192:C:/Users/lenovo/Desktop/liteos/Project2/BearPi_LiteOS/targets/STM32L431_BearPi/Hardware/LCD\lcd.c **** 
 193:C:/Users/lenovo/Desktop/liteos/Project2/BearPi_LiteOS/targets/STM32L431_BearPi/Hardware/LCD\lcd.c ****     data[0] = color >> 8;
 194:C:/Users/lenovo/Desktop/liteos/Project2/BearPi_LiteOS/targets/STM32L431_BearPi/Hardware/LCD\lcd.c ****     data[1] = color;
 195:C:/Users/lenovo/Desktop/liteos/Project2/BearPi_LiteOS/targets/STM32L431_BearPi/Hardware/LCD\lcd.c **** 
 196:C:/Users/lenovo/Desktop/liteos/Project2/BearPi_LiteOS/targets/STM32L431_BearPi/Hardware/LCD\lcd.c ****     LCD_Address_Set(0, 0, LCD_Width - 1, LCD_Height - 1);
 197:C:/Users/lenovo/Desktop/liteos/Project2/BearPi_LiteOS/targets/STM32L431_BearPi/Hardware/LCD\lcd.c **** 
 198:C:/Users/lenovo/Desktop/liteos/Project2/BearPi_LiteOS/targets/STM32L431_BearPi/Hardware/LCD\lcd.c ****     for(j = 0; j < LCD_Buf_Size / 2; j++)
 199:C:/Users/lenovo/Desktop/liteos/Project2/BearPi_LiteOS/targets/STM32L431_BearPi/Hardware/LCD\lcd.c ****     {
 200:C:/Users/lenovo/Desktop/liteos/Project2/BearPi_LiteOS/targets/STM32L431_BearPi/Hardware/LCD\lcd.c ****         lcd_buf[j * 2] =  data[0];
 201:C:/Users/lenovo/Desktop/liteos/Project2/BearPi_LiteOS/targets/STM32L431_BearPi/Hardware/LCD\lcd.c ****         lcd_buf[j * 2 + 1] =  data[1];
 202:C:/Users/lenovo/Desktop/liteos/Project2/BearPi_LiteOS/targets/STM32L431_BearPi/Hardware/LCD\lcd.c ****     }
 203:C:/Users/lenovo/Desktop/liteos/Project2/BearPi_LiteOS/targets/STM32L431_BearPi/Hardware/LCD\lcd.c **** 
ARM GAS  c:\Users\lenovo\AppData\Local\Temp\cc7gPbIA.s 			page 5


 204:C:/Users/lenovo/Desktop/liteos/Project2/BearPi_LiteOS/targets/STM32L431_BearPi/Hardware/LCD\lcd.c ****     LCD_DC(1);
 205:C:/Users/lenovo/Desktop/liteos/Project2/BearPi_LiteOS/targets/STM32L431_BearPi/Hardware/LCD\lcd.c **** 
 206:C:/Users/lenovo/Desktop/liteos/Project2/BearPi_LiteOS/targets/STM32L431_BearPi/Hardware/LCD\lcd.c ****     for(i = 0; i < (LCD_TOTAL_BUF_SIZE / LCD_Buf_Size); i++)
 207:C:/Users/lenovo/Desktop/liteos/Project2/BearPi_LiteOS/targets/STM32L431_BearPi/Hardware/LCD\lcd.c ****     {
 208:C:/Users/lenovo/Desktop/liteos/Project2/BearPi_LiteOS/targets/STM32L431_BearPi/Hardware/LCD\lcd.c ****         LCD_SPI_Send(lcd_buf, LCD_Buf_Size);
 209:C:/Users/lenovo/Desktop/liteos/Project2/BearPi_LiteOS/targets/STM32L431_BearPi/Hardware/LCD\lcd.c ****     }
 210:C:/Users/lenovo/Desktop/liteos/Project2/BearPi_LiteOS/targets/STM32L431_BearPi/Hardware/LCD\lcd.c **** }
 211:C:/Users/lenovo/Desktop/liteos/Project2/BearPi_LiteOS/targets/STM32L431_BearPi/Hardware/LCD\lcd.c **** 
 212:C:/Users/lenovo/Desktop/liteos/Project2/BearPi_LiteOS/targets/STM32L431_BearPi/Hardware/LCD\lcd.c **** /**
 213:C:/Users/lenovo/Desktop/liteos/Project2/BearPi_LiteOS/targets/STM32L431_BearPi/Hardware/LCD\lcd.c ****  * 用一个颜色填充整个区域
 214:C:/Users/lenovo/Desktop/liteos/Project2/BearPi_LiteOS/targets/STM32L431_BearPi/Hardware/LCD\lcd.c ****  *
 215:C:/Users/lenovo/Desktop/liteos/Project2/BearPi_LiteOS/targets/STM32L431_BearPi/Hardware/LCD\lcd.c ****  * @param   x_start,y_start     起点坐标
 216:C:/Users/lenovo/Desktop/liteos/Project2/BearPi_LiteOS/targets/STM32L431_BearPi/Hardware/LCD\lcd.c ****  * @param   x_end,y_end			终点坐标
 217:C:/Users/lenovo/Desktop/liteos/Project2/BearPi_LiteOS/targets/STM32L431_BearPi/Hardware/LCD\lcd.c ****  * @param   color       		填充颜色
 218:C:/Users/lenovo/Desktop/liteos/Project2/BearPi_LiteOS/targets/STM32L431_BearPi/Hardware/LCD\lcd.c ****  *
 219:C:/Users/lenovo/Desktop/liteos/Project2/BearPi_LiteOS/targets/STM32L431_BearPi/Hardware/LCD\lcd.c ****  * @return  void
 220:C:/Users/lenovo/Desktop/liteos/Project2/BearPi_LiteOS/targets/STM32L431_BearPi/Hardware/LCD\lcd.c ****  */
 221:C:/Users/lenovo/Desktop/liteos/Project2/BearPi_LiteOS/targets/STM32L431_BearPi/Hardware/LCD\lcd.c **** void LCD_Fill(uint16_t x_start, uint16_t y_start, uint16_t x_end, uint16_t y_end, uint16_t color)
 222:C:/Users/lenovo/Desktop/liteos/Project2/BearPi_LiteOS/targets/STM32L431_BearPi/Hardware/LCD\lcd.c **** {
 223:C:/Users/lenovo/Desktop/liteos/Project2/BearPi_LiteOS/targets/STM32L431_BearPi/Hardware/LCD\lcd.c ****     uint16_t i = 0;
 224:C:/Users/lenovo/Desktop/liteos/Project2/BearPi_LiteOS/targets/STM32L431_BearPi/Hardware/LCD\lcd.c ****     uint32_t size = 0, size_remain = 0;
 225:C:/Users/lenovo/Desktop/liteos/Project2/BearPi_LiteOS/targets/STM32L431_BearPi/Hardware/LCD\lcd.c **** 
 226:C:/Users/lenovo/Desktop/liteos/Project2/BearPi_LiteOS/targets/STM32L431_BearPi/Hardware/LCD\lcd.c ****     size = (x_end - x_start + 1) * (y_end - y_start + 1) * 2;
 227:C:/Users/lenovo/Desktop/liteos/Project2/BearPi_LiteOS/targets/STM32L431_BearPi/Hardware/LCD\lcd.c **** 
 228:C:/Users/lenovo/Desktop/liteos/Project2/BearPi_LiteOS/targets/STM32L431_BearPi/Hardware/LCD\lcd.c ****     if(size > LCD_Buf_Size)
 229:C:/Users/lenovo/Desktop/liteos/Project2/BearPi_LiteOS/targets/STM32L431_BearPi/Hardware/LCD\lcd.c ****     {
 230:C:/Users/lenovo/Desktop/liteos/Project2/BearPi_LiteOS/targets/STM32L431_BearPi/Hardware/LCD\lcd.c ****         size_remain = size - LCD_Buf_Size;
 231:C:/Users/lenovo/Desktop/liteos/Project2/BearPi_LiteOS/targets/STM32L431_BearPi/Hardware/LCD\lcd.c ****         size = LCD_Buf_Size;
 232:C:/Users/lenovo/Desktop/liteos/Project2/BearPi_LiteOS/targets/STM32L431_BearPi/Hardware/LCD\lcd.c ****     }
 233:C:/Users/lenovo/Desktop/liteos/Project2/BearPi_LiteOS/targets/STM32L431_BearPi/Hardware/LCD\lcd.c **** 
 234:C:/Users/lenovo/Desktop/liteos/Project2/BearPi_LiteOS/targets/STM32L431_BearPi/Hardware/LCD\lcd.c ****     LCD_Address_Set(x_start, y_start, x_end, y_end);
 235:C:/Users/lenovo/Desktop/liteos/Project2/BearPi_LiteOS/targets/STM32L431_BearPi/Hardware/LCD\lcd.c **** 
 236:C:/Users/lenovo/Desktop/liteos/Project2/BearPi_LiteOS/targets/STM32L431_BearPi/Hardware/LCD\lcd.c ****     while(1)
 237:C:/Users/lenovo/Desktop/liteos/Project2/BearPi_LiteOS/targets/STM32L431_BearPi/Hardware/LCD\lcd.c ****     {
 238:C:/Users/lenovo/Desktop/liteos/Project2/BearPi_LiteOS/targets/STM32L431_BearPi/Hardware/LCD\lcd.c ****         for(i = 0; i < size / 2; i++)
 239:C:/Users/lenovo/Desktop/liteos/Project2/BearPi_LiteOS/targets/STM32L431_BearPi/Hardware/LCD\lcd.c ****         {
 240:C:/Users/lenovo/Desktop/liteos/Project2/BearPi_LiteOS/targets/STM32L431_BearPi/Hardware/LCD\lcd.c ****             lcd_buf[2 * i] = color >> 8;
 241:C:/Users/lenovo/Desktop/liteos/Project2/BearPi_LiteOS/targets/STM32L431_BearPi/Hardware/LCD\lcd.c ****             lcd_buf[2 * i + 1] = color;
 242:C:/Users/lenovo/Desktop/liteos/Project2/BearPi_LiteOS/targets/STM32L431_BearPi/Hardware/LCD\lcd.c ****         }
 243:C:/Users/lenovo/Desktop/liteos/Project2/BearPi_LiteOS/targets/STM32L431_BearPi/Hardware/LCD\lcd.c **** 
 244:C:/Users/lenovo/Desktop/liteos/Project2/BearPi_LiteOS/targets/STM32L431_BearPi/Hardware/LCD\lcd.c ****         LCD_DC(1);
 245:C:/Users/lenovo/Desktop/liteos/Project2/BearPi_LiteOS/targets/STM32L431_BearPi/Hardware/LCD\lcd.c ****         LCD_SPI_Send(lcd_buf, size);
 246:C:/Users/lenovo/Desktop/liteos/Project2/BearPi_LiteOS/targets/STM32L431_BearPi/Hardware/LCD\lcd.c **** 
 247:C:/Users/lenovo/Desktop/liteos/Project2/BearPi_LiteOS/targets/STM32L431_BearPi/Hardware/LCD\lcd.c ****         if(size_remain == 0)
 248:C:/Users/lenovo/Desktop/liteos/Project2/BearPi_LiteOS/targets/STM32L431_BearPi/Hardware/LCD\lcd.c ****             break;
 249:C:/Users/lenovo/Desktop/liteos/Project2/BearPi_LiteOS/targets/STM32L431_BearPi/Hardware/LCD\lcd.c **** 
 250:C:/Users/lenovo/Desktop/liteos/Project2/BearPi_LiteOS/targets/STM32L431_BearPi/Hardware/LCD\lcd.c ****         if(size_remain > LCD_Buf_Size)
 251:C:/Users/lenovo/Desktop/liteos/Project2/BearPi_LiteOS/targets/STM32L431_BearPi/Hardware/LCD\lcd.c ****         {
 252:C:/Users/lenovo/Desktop/liteos/Project2/BearPi_LiteOS/targets/STM32L431_BearPi/Hardware/LCD\lcd.c ****             size_remain = size_remain - LCD_Buf_Size;
 253:C:/Users/lenovo/Desktop/liteos/Project2/BearPi_LiteOS/targets/STM32L431_BearPi/Hardware/LCD\lcd.c ****         }
 254:C:/Users/lenovo/Desktop/liteos/Project2/BearPi_LiteOS/targets/STM32L431_BearPi/Hardware/LCD\lcd.c **** 
 255:C:/Users/lenovo/Desktop/liteos/Project2/BearPi_LiteOS/targets/STM32L431_BearPi/Hardware/LCD\lcd.c ****         else
 256:C:/Users/lenovo/Desktop/liteos/Project2/BearPi_LiteOS/targets/STM32L431_BearPi/Hardware/LCD\lcd.c ****         {
 257:C:/Users/lenovo/Desktop/liteos/Project2/BearPi_LiteOS/targets/STM32L431_BearPi/Hardware/LCD\lcd.c ****             size = size_remain;
 258:C:/Users/lenovo/Desktop/liteos/Project2/BearPi_LiteOS/targets/STM32L431_BearPi/Hardware/LCD\lcd.c ****             size_remain = 0;
 259:C:/Users/lenovo/Desktop/liteos/Project2/BearPi_LiteOS/targets/STM32L431_BearPi/Hardware/LCD\lcd.c ****         }
 260:C:/Users/lenovo/Desktop/liteos/Project2/BearPi_LiteOS/targets/STM32L431_BearPi/Hardware/LCD\lcd.c ****     }
ARM GAS  c:\Users\lenovo\AppData\Local\Temp\cc7gPbIA.s 			page 6


 261:C:/Users/lenovo/Desktop/liteos/Project2/BearPi_LiteOS/targets/STM32L431_BearPi/Hardware/LCD\lcd.c **** }
 262:C:/Users/lenovo/Desktop/liteos/Project2/BearPi_LiteOS/targets/STM32L431_BearPi/Hardware/LCD\lcd.c **** 
 263:C:/Users/lenovo/Desktop/liteos/Project2/BearPi_LiteOS/targets/STM32L431_BearPi/Hardware/LCD\lcd.c **** /**
 264:C:/Users/lenovo/Desktop/liteos/Project2/BearPi_LiteOS/targets/STM32L431_BearPi/Hardware/LCD\lcd.c ****  * 画点函数
 265:C:/Users/lenovo/Desktop/liteos/Project2/BearPi_LiteOS/targets/STM32L431_BearPi/Hardware/LCD\lcd.c ****  *
 266:C:/Users/lenovo/Desktop/liteos/Project2/BearPi_LiteOS/targets/STM32L431_BearPi/Hardware/LCD\lcd.c ****  * @param   x,y		画点坐标
 267:C:/Users/lenovo/Desktop/liteos/Project2/BearPi_LiteOS/targets/STM32L431_BearPi/Hardware/LCD\lcd.c ****  *
 268:C:/Users/lenovo/Desktop/liteos/Project2/BearPi_LiteOS/targets/STM32L431_BearPi/Hardware/LCD\lcd.c ****  * @return  void
 269:C:/Users/lenovo/Desktop/liteos/Project2/BearPi_LiteOS/targets/STM32L431_BearPi/Hardware/LCD\lcd.c ****  */
 270:C:/Users/lenovo/Desktop/liteos/Project2/BearPi_LiteOS/targets/STM32L431_BearPi/Hardware/LCD\lcd.c **** void LCD_Draw_Point(uint16_t x, uint16_t y)
 271:C:/Users/lenovo/Desktop/liteos/Project2/BearPi_LiteOS/targets/STM32L431_BearPi/Hardware/LCD\lcd.c **** {
 272:C:/Users/lenovo/Desktop/liteos/Project2/BearPi_LiteOS/targets/STM32L431_BearPi/Hardware/LCD\lcd.c ****     LCD_Address_Set(x, y, x, y);
 273:C:/Users/lenovo/Desktop/liteos/Project2/BearPi_LiteOS/targets/STM32L431_BearPi/Hardware/LCD\lcd.c ****     LCD_Write_HalfWord(POINT_COLOR);
 274:C:/Users/lenovo/Desktop/liteos/Project2/BearPi_LiteOS/targets/STM32L431_BearPi/Hardware/LCD\lcd.c **** }
 275:C:/Users/lenovo/Desktop/liteos/Project2/BearPi_LiteOS/targets/STM32L431_BearPi/Hardware/LCD\lcd.c **** 
 276:C:/Users/lenovo/Desktop/liteos/Project2/BearPi_LiteOS/targets/STM32L431_BearPi/Hardware/LCD\lcd.c **** /**
 277:C:/Users/lenovo/Desktop/liteos/Project2/BearPi_LiteOS/targets/STM32L431_BearPi/Hardware/LCD\lcd.c ****  * 画点带颜色函数
 278:C:/Users/lenovo/Desktop/liteos/Project2/BearPi_LiteOS/targets/STM32L431_BearPi/Hardware/LCD\lcd.c ****  *
 279:C:/Users/lenovo/Desktop/liteos/Project2/BearPi_LiteOS/targets/STM32L431_BearPi/Hardware/LCD\lcd.c ****  * @param   x,y		画点坐标
 280:C:/Users/lenovo/Desktop/liteos/Project2/BearPi_LiteOS/targets/STM32L431_BearPi/Hardware/LCD\lcd.c ****  *
 281:C:/Users/lenovo/Desktop/liteos/Project2/BearPi_LiteOS/targets/STM32L431_BearPi/Hardware/LCD\lcd.c ****  * @return  void
 282:C:/Users/lenovo/Desktop/liteos/Project2/BearPi_LiteOS/targets/STM32L431_BearPi/Hardware/LCD\lcd.c ****  */
 283:C:/Users/lenovo/Desktop/liteos/Project2/BearPi_LiteOS/targets/STM32L431_BearPi/Hardware/LCD\lcd.c **** void LCD_Draw_ColorPoint(uint16_t x, uint16_t y,uint16_t color)
 284:C:/Users/lenovo/Desktop/liteos/Project2/BearPi_LiteOS/targets/STM32L431_BearPi/Hardware/LCD\lcd.c **** {
 285:C:/Users/lenovo/Desktop/liteos/Project2/BearPi_LiteOS/targets/STM32L431_BearPi/Hardware/LCD\lcd.c ****     LCD_Address_Set(x, y, x, y);
 286:C:/Users/lenovo/Desktop/liteos/Project2/BearPi_LiteOS/targets/STM32L431_BearPi/Hardware/LCD\lcd.c ****     LCD_Write_HalfWord(color);
 287:C:/Users/lenovo/Desktop/liteos/Project2/BearPi_LiteOS/targets/STM32L431_BearPi/Hardware/LCD\lcd.c **** }
 288:C:/Users/lenovo/Desktop/liteos/Project2/BearPi_LiteOS/targets/STM32L431_BearPi/Hardware/LCD\lcd.c **** 
 289:C:/Users/lenovo/Desktop/liteos/Project2/BearPi_LiteOS/targets/STM32L431_BearPi/Hardware/LCD\lcd.c **** 
 290:C:/Users/lenovo/Desktop/liteos/Project2/BearPi_LiteOS/targets/STM32L431_BearPi/Hardware/LCD\lcd.c **** 
 291:C:/Users/lenovo/Desktop/liteos/Project2/BearPi_LiteOS/targets/STM32L431_BearPi/Hardware/LCD\lcd.c **** /**
 292:C:/Users/lenovo/Desktop/liteos/Project2/BearPi_LiteOS/targets/STM32L431_BearPi/Hardware/LCD\lcd.c ****  * @brief	画线函数(直线、斜线)
 293:C:/Users/lenovo/Desktop/liteos/Project2/BearPi_LiteOS/targets/STM32L431_BearPi/Hardware/LCD\lcd.c ****  *
 294:C:/Users/lenovo/Desktop/liteos/Project2/BearPi_LiteOS/targets/STM32L431_BearPi/Hardware/LCD\lcd.c ****  * @param   x1,y1	起点坐标
 295:C:/Users/lenovo/Desktop/liteos/Project2/BearPi_LiteOS/targets/STM32L431_BearPi/Hardware/LCD\lcd.c ****  * @param   x2,y2	终点坐标
 296:C:/Users/lenovo/Desktop/liteos/Project2/BearPi_LiteOS/targets/STM32L431_BearPi/Hardware/LCD\lcd.c ****  *
 297:C:/Users/lenovo/Desktop/liteos/Project2/BearPi_LiteOS/targets/STM32L431_BearPi/Hardware/LCD\lcd.c ****  * @return  void
 298:C:/Users/lenovo/Desktop/liteos/Project2/BearPi_LiteOS/targets/STM32L431_BearPi/Hardware/LCD\lcd.c ****  */
 299:C:/Users/lenovo/Desktop/liteos/Project2/BearPi_LiteOS/targets/STM32L431_BearPi/Hardware/LCD\lcd.c **** void LCD_DrawLine(uint16_t x1, uint16_t y1, uint16_t x2, uint16_t y2)
 300:C:/Users/lenovo/Desktop/liteos/Project2/BearPi_LiteOS/targets/STM32L431_BearPi/Hardware/LCD\lcd.c **** {
 301:C:/Users/lenovo/Desktop/liteos/Project2/BearPi_LiteOS/targets/STM32L431_BearPi/Hardware/LCD\lcd.c ****     uint16_t t;
 302:C:/Users/lenovo/Desktop/liteos/Project2/BearPi_LiteOS/targets/STM32L431_BearPi/Hardware/LCD\lcd.c ****     int xerr = 0, yerr = 0, delta_x, delta_y, distance;
 303:C:/Users/lenovo/Desktop/liteos/Project2/BearPi_LiteOS/targets/STM32L431_BearPi/Hardware/LCD\lcd.c ****     int incx, incy, row, col;
 304:C:/Users/lenovo/Desktop/liteos/Project2/BearPi_LiteOS/targets/STM32L431_BearPi/Hardware/LCD\lcd.c ****     uint32_t i = 0;
 305:C:/Users/lenovo/Desktop/liteos/Project2/BearPi_LiteOS/targets/STM32L431_BearPi/Hardware/LCD\lcd.c **** 
 306:C:/Users/lenovo/Desktop/liteos/Project2/BearPi_LiteOS/targets/STM32L431_BearPi/Hardware/LCD\lcd.c ****     if(y1 == y2)
 307:C:/Users/lenovo/Desktop/liteos/Project2/BearPi_LiteOS/targets/STM32L431_BearPi/Hardware/LCD\lcd.c ****     {
 308:C:/Users/lenovo/Desktop/liteos/Project2/BearPi_LiteOS/targets/STM32L431_BearPi/Hardware/LCD\lcd.c ****         /*快速画水平线*/
 309:C:/Users/lenovo/Desktop/liteos/Project2/BearPi_LiteOS/targets/STM32L431_BearPi/Hardware/LCD\lcd.c ****         LCD_Address_Set(x1, y1, x2, y2);
 310:C:/Users/lenovo/Desktop/liteos/Project2/BearPi_LiteOS/targets/STM32L431_BearPi/Hardware/LCD\lcd.c **** 
 311:C:/Users/lenovo/Desktop/liteos/Project2/BearPi_LiteOS/targets/STM32L431_BearPi/Hardware/LCD\lcd.c ****         for(i = 0; i < x2 - x1; i++)
 312:C:/Users/lenovo/Desktop/liteos/Project2/BearPi_LiteOS/targets/STM32L431_BearPi/Hardware/LCD\lcd.c ****         {
 313:C:/Users/lenovo/Desktop/liteos/Project2/BearPi_LiteOS/targets/STM32L431_BearPi/Hardware/LCD\lcd.c ****             lcd_buf[2 * i] = POINT_COLOR >> 8;
 314:C:/Users/lenovo/Desktop/liteos/Project2/BearPi_LiteOS/targets/STM32L431_BearPi/Hardware/LCD\lcd.c ****             lcd_buf[2 * i + 1] = POINT_COLOR;
 315:C:/Users/lenovo/Desktop/liteos/Project2/BearPi_LiteOS/targets/STM32L431_BearPi/Hardware/LCD\lcd.c ****         }
 316:C:/Users/lenovo/Desktop/liteos/Project2/BearPi_LiteOS/targets/STM32L431_BearPi/Hardware/LCD\lcd.c **** 
 317:C:/Users/lenovo/Desktop/liteos/Project2/BearPi_LiteOS/targets/STM32L431_BearPi/Hardware/LCD\lcd.c ****         LCD_DC(1);
ARM GAS  c:\Users\lenovo\AppData\Local\Temp\cc7gPbIA.s 			page 7


 318:C:/Users/lenovo/Desktop/liteos/Project2/BearPi_LiteOS/targets/STM32L431_BearPi/Hardware/LCD\lcd.c ****         LCD_SPI_Send(lcd_buf, (x2 - x1) * 2);
 319:C:/Users/lenovo/Desktop/liteos/Project2/BearPi_LiteOS/targets/STM32L431_BearPi/Hardware/LCD\lcd.c ****         return;
 320:C:/Users/lenovo/Desktop/liteos/Project2/BearPi_LiteOS/targets/STM32L431_BearPi/Hardware/LCD\lcd.c ****     }
 321:C:/Users/lenovo/Desktop/liteos/Project2/BearPi_LiteOS/targets/STM32L431_BearPi/Hardware/LCD\lcd.c **** 
 322:C:/Users/lenovo/Desktop/liteos/Project2/BearPi_LiteOS/targets/STM32L431_BearPi/Hardware/LCD\lcd.c ****     delta_x = x2 - x1;
 323:C:/Users/lenovo/Desktop/liteos/Project2/BearPi_LiteOS/targets/STM32L431_BearPi/Hardware/LCD\lcd.c ****     delta_y = y2 - y1;
 324:C:/Users/lenovo/Desktop/liteos/Project2/BearPi_LiteOS/targets/STM32L431_BearPi/Hardware/LCD\lcd.c ****     row = x1;
 325:C:/Users/lenovo/Desktop/liteos/Project2/BearPi_LiteOS/targets/STM32L431_BearPi/Hardware/LCD\lcd.c ****     col = y1;
 326:C:/Users/lenovo/Desktop/liteos/Project2/BearPi_LiteOS/targets/STM32L431_BearPi/Hardware/LCD\lcd.c **** 
 327:C:/Users/lenovo/Desktop/liteos/Project2/BearPi_LiteOS/targets/STM32L431_BearPi/Hardware/LCD\lcd.c ****     if(delta_x > 0)incx = 1;
 328:C:/Users/lenovo/Desktop/liteos/Project2/BearPi_LiteOS/targets/STM32L431_BearPi/Hardware/LCD\lcd.c **** 
 329:C:/Users/lenovo/Desktop/liteos/Project2/BearPi_LiteOS/targets/STM32L431_BearPi/Hardware/LCD\lcd.c ****     else if(delta_x == 0)incx = 0;
 330:C:/Users/lenovo/Desktop/liteos/Project2/BearPi_LiteOS/targets/STM32L431_BearPi/Hardware/LCD\lcd.c **** 
 331:C:/Users/lenovo/Desktop/liteos/Project2/BearPi_LiteOS/targets/STM32L431_BearPi/Hardware/LCD\lcd.c ****     else
 332:C:/Users/lenovo/Desktop/liteos/Project2/BearPi_LiteOS/targets/STM32L431_BearPi/Hardware/LCD\lcd.c ****     {
 333:C:/Users/lenovo/Desktop/liteos/Project2/BearPi_LiteOS/targets/STM32L431_BearPi/Hardware/LCD\lcd.c ****         incx = -1;
 334:C:/Users/lenovo/Desktop/liteos/Project2/BearPi_LiteOS/targets/STM32L431_BearPi/Hardware/LCD\lcd.c ****         delta_x = -delta_x;
 335:C:/Users/lenovo/Desktop/liteos/Project2/BearPi_LiteOS/targets/STM32L431_BearPi/Hardware/LCD\lcd.c ****     }
 336:C:/Users/lenovo/Desktop/liteos/Project2/BearPi_LiteOS/targets/STM32L431_BearPi/Hardware/LCD\lcd.c **** 
 337:C:/Users/lenovo/Desktop/liteos/Project2/BearPi_LiteOS/targets/STM32L431_BearPi/Hardware/LCD\lcd.c ****     if(delta_y > 0)incy = 1;
 338:C:/Users/lenovo/Desktop/liteos/Project2/BearPi_LiteOS/targets/STM32L431_BearPi/Hardware/LCD\lcd.c **** 
 339:C:/Users/lenovo/Desktop/liteos/Project2/BearPi_LiteOS/targets/STM32L431_BearPi/Hardware/LCD\lcd.c ****     else if(delta_y == 0)incy = 0;
 340:C:/Users/lenovo/Desktop/liteos/Project2/BearPi_LiteOS/targets/STM32L431_BearPi/Hardware/LCD\lcd.c **** 
 341:C:/Users/lenovo/Desktop/liteos/Project2/BearPi_LiteOS/targets/STM32L431_BearPi/Hardware/LCD\lcd.c ****     else
 342:C:/Users/lenovo/Desktop/liteos/Project2/BearPi_LiteOS/targets/STM32L431_BearPi/Hardware/LCD\lcd.c ****     {
 343:C:/Users/lenovo/Desktop/liteos/Project2/BearPi_LiteOS/targets/STM32L431_BearPi/Hardware/LCD\lcd.c ****         incy = -1;
 344:C:/Users/lenovo/Desktop/liteos/Project2/BearPi_LiteOS/targets/STM32L431_BearPi/Hardware/LCD\lcd.c ****         delta_y = -delta_y;
 345:C:/Users/lenovo/Desktop/liteos/Project2/BearPi_LiteOS/targets/STM32L431_BearPi/Hardware/LCD\lcd.c ****     }
 346:C:/Users/lenovo/Desktop/liteos/Project2/BearPi_LiteOS/targets/STM32L431_BearPi/Hardware/LCD\lcd.c **** 
 347:C:/Users/lenovo/Desktop/liteos/Project2/BearPi_LiteOS/targets/STM32L431_BearPi/Hardware/LCD\lcd.c ****     if(delta_x > delta_y)distance = delta_x;
 348:C:/Users/lenovo/Desktop/liteos/Project2/BearPi_LiteOS/targets/STM32L431_BearPi/Hardware/LCD\lcd.c **** 
 349:C:/Users/lenovo/Desktop/liteos/Project2/BearPi_LiteOS/targets/STM32L431_BearPi/Hardware/LCD\lcd.c ****     else distance = delta_y;
 350:C:/Users/lenovo/Desktop/liteos/Project2/BearPi_LiteOS/targets/STM32L431_BearPi/Hardware/LCD\lcd.c **** 
 351:C:/Users/lenovo/Desktop/liteos/Project2/BearPi_LiteOS/targets/STM32L431_BearPi/Hardware/LCD\lcd.c ****     for(t = 0; t <= distance + 1; t++)
 352:C:/Users/lenovo/Desktop/liteos/Project2/BearPi_LiteOS/targets/STM32L431_BearPi/Hardware/LCD\lcd.c ****     {
 353:C:/Users/lenovo/Desktop/liteos/Project2/BearPi_LiteOS/targets/STM32L431_BearPi/Hardware/LCD\lcd.c ****         LCD_Draw_Point(row, col);
 354:C:/Users/lenovo/Desktop/liteos/Project2/BearPi_LiteOS/targets/STM32L431_BearPi/Hardware/LCD\lcd.c ****         xerr += delta_x ;
 355:C:/Users/lenovo/Desktop/liteos/Project2/BearPi_LiteOS/targets/STM32L431_BearPi/Hardware/LCD\lcd.c ****         yerr += delta_y ;
 356:C:/Users/lenovo/Desktop/liteos/Project2/BearPi_LiteOS/targets/STM32L431_BearPi/Hardware/LCD\lcd.c **** 
 357:C:/Users/lenovo/Desktop/liteos/Project2/BearPi_LiteOS/targets/STM32L431_BearPi/Hardware/LCD\lcd.c ****         if(xerr > distance)
 358:C:/Users/lenovo/Desktop/liteos/Project2/BearPi_LiteOS/targets/STM32L431_BearPi/Hardware/LCD\lcd.c ****         {
 359:C:/Users/lenovo/Desktop/liteos/Project2/BearPi_LiteOS/targets/STM32L431_BearPi/Hardware/LCD\lcd.c ****             xerr -= distance;
 360:C:/Users/lenovo/Desktop/liteos/Project2/BearPi_LiteOS/targets/STM32L431_BearPi/Hardware/LCD\lcd.c ****             row += incx;
 361:C:/Users/lenovo/Desktop/liteos/Project2/BearPi_LiteOS/targets/STM32L431_BearPi/Hardware/LCD\lcd.c ****         }
 362:C:/Users/lenovo/Desktop/liteos/Project2/BearPi_LiteOS/targets/STM32L431_BearPi/Hardware/LCD\lcd.c **** 
 363:C:/Users/lenovo/Desktop/liteos/Project2/BearPi_LiteOS/targets/STM32L431_BearPi/Hardware/LCD\lcd.c ****         if(yerr > distance)
 364:C:/Users/lenovo/Desktop/liteos/Project2/BearPi_LiteOS/targets/STM32L431_BearPi/Hardware/LCD\lcd.c ****         {
 365:C:/Users/lenovo/Desktop/liteos/Project2/BearPi_LiteOS/targets/STM32L431_BearPi/Hardware/LCD\lcd.c ****             yerr -= distance;
 366:C:/Users/lenovo/Desktop/liteos/Project2/BearPi_LiteOS/targets/STM32L431_BearPi/Hardware/LCD\lcd.c ****             col += incy;
 367:C:/Users/lenovo/Desktop/liteos/Project2/BearPi_LiteOS/targets/STM32L431_BearPi/Hardware/LCD\lcd.c ****         }
 368:C:/Users/lenovo/Desktop/liteos/Project2/BearPi_LiteOS/targets/STM32L431_BearPi/Hardware/LCD\lcd.c ****     }
 369:C:/Users/lenovo/Desktop/liteos/Project2/BearPi_LiteOS/targets/STM32L431_BearPi/Hardware/LCD\lcd.c **** }
 370:C:/Users/lenovo/Desktop/liteos/Project2/BearPi_LiteOS/targets/STM32L431_BearPi/Hardware/LCD\lcd.c **** 
 371:C:/Users/lenovo/Desktop/liteos/Project2/BearPi_LiteOS/targets/STM32L431_BearPi/Hardware/LCD\lcd.c **** /**
 372:C:/Users/lenovo/Desktop/liteos/Project2/BearPi_LiteOS/targets/STM32L431_BearPi/Hardware/LCD\lcd.c ****  * @brief	画一个矩形
 373:C:/Users/lenovo/Desktop/liteos/Project2/BearPi_LiteOS/targets/STM32L431_BearPi/Hardware/LCD\lcd.c ****  *
 374:C:/Users/lenovo/Desktop/liteos/Project2/BearPi_LiteOS/targets/STM32L431_BearPi/Hardware/LCD\lcd.c ****  * @param   x1,y1	起点坐标
ARM GAS  c:\Users\lenovo\AppData\Local\Temp\cc7gPbIA.s 			page 8


 375:C:/Users/lenovo/Desktop/liteos/Project2/BearPi_LiteOS/targets/STM32L431_BearPi/Hardware/LCD\lcd.c ****  * @param   x2,y2	终点坐标
 376:C:/Users/lenovo/Desktop/liteos/Project2/BearPi_LiteOS/targets/STM32L431_BearPi/Hardware/LCD\lcd.c ****  *
 377:C:/Users/lenovo/Desktop/liteos/Project2/BearPi_LiteOS/targets/STM32L431_BearPi/Hardware/LCD\lcd.c ****  * @return  void
 378:C:/Users/lenovo/Desktop/liteos/Project2/BearPi_LiteOS/targets/STM32L431_BearPi/Hardware/LCD\lcd.c ****  */
 379:C:/Users/lenovo/Desktop/liteos/Project2/BearPi_LiteOS/targets/STM32L431_BearPi/Hardware/LCD\lcd.c **** void LCD_DrawRectangle(uint16_t x1, uint16_t y1, uint16_t x2, uint16_t y2)
 380:C:/Users/lenovo/Desktop/liteos/Project2/BearPi_LiteOS/targets/STM32L431_BearPi/Hardware/LCD\lcd.c **** {
 381:C:/Users/lenovo/Desktop/liteos/Project2/BearPi_LiteOS/targets/STM32L431_BearPi/Hardware/LCD\lcd.c ****     LCD_DrawLine(x1, y1, x2, y1);
 382:C:/Users/lenovo/Desktop/liteos/Project2/BearPi_LiteOS/targets/STM32L431_BearPi/Hardware/LCD\lcd.c ****     LCD_DrawLine(x1, y1, x1, y2);
 383:C:/Users/lenovo/Desktop/liteos/Project2/BearPi_LiteOS/targets/STM32L431_BearPi/Hardware/LCD\lcd.c ****     LCD_DrawLine(x1, y2, x2, y2);
 384:C:/Users/lenovo/Desktop/liteos/Project2/BearPi_LiteOS/targets/STM32L431_BearPi/Hardware/LCD\lcd.c ****     LCD_DrawLine(x2, y1, x2, y2);
 385:C:/Users/lenovo/Desktop/liteos/Project2/BearPi_LiteOS/targets/STM32L431_BearPi/Hardware/LCD\lcd.c **** }
 386:C:/Users/lenovo/Desktop/liteos/Project2/BearPi_LiteOS/targets/STM32L431_BearPi/Hardware/LCD\lcd.c **** 
 387:C:/Users/lenovo/Desktop/liteos/Project2/BearPi_LiteOS/targets/STM32L431_BearPi/Hardware/LCD\lcd.c **** /**
 388:C:/Users/lenovo/Desktop/liteos/Project2/BearPi_LiteOS/targets/STM32L431_BearPi/Hardware/LCD\lcd.c ****  * @brief	画一个圆
 389:C:/Users/lenovo/Desktop/liteos/Project2/BearPi_LiteOS/targets/STM32L431_BearPi/Hardware/LCD\lcd.c ****  *
 390:C:/Users/lenovo/Desktop/liteos/Project2/BearPi_LiteOS/targets/STM32L431_BearPi/Hardware/LCD\lcd.c ****  * @param   x0,y0	圆心坐标
 391:C:/Users/lenovo/Desktop/liteos/Project2/BearPi_LiteOS/targets/STM32L431_BearPi/Hardware/LCD\lcd.c ****  * @param   r       圆半径
 392:C:/Users/lenovo/Desktop/liteos/Project2/BearPi_LiteOS/targets/STM32L431_BearPi/Hardware/LCD\lcd.c ****  *
 393:C:/Users/lenovo/Desktop/liteos/Project2/BearPi_LiteOS/targets/STM32L431_BearPi/Hardware/LCD\lcd.c ****  * @return  void
 394:C:/Users/lenovo/Desktop/liteos/Project2/BearPi_LiteOS/targets/STM32L431_BearPi/Hardware/LCD\lcd.c ****  */
 395:C:/Users/lenovo/Desktop/liteos/Project2/BearPi_LiteOS/targets/STM32L431_BearPi/Hardware/LCD\lcd.c **** void LCD_Draw_Circle(uint16_t x0, uint16_t y0, uint8_t r)
 396:C:/Users/lenovo/Desktop/liteos/Project2/BearPi_LiteOS/targets/STM32L431_BearPi/Hardware/LCD\lcd.c **** {
 397:C:/Users/lenovo/Desktop/liteos/Project2/BearPi_LiteOS/targets/STM32L431_BearPi/Hardware/LCD\lcd.c ****     int a, b;
 398:C:/Users/lenovo/Desktop/liteos/Project2/BearPi_LiteOS/targets/STM32L431_BearPi/Hardware/LCD\lcd.c ****     int di;
 399:C:/Users/lenovo/Desktop/liteos/Project2/BearPi_LiteOS/targets/STM32L431_BearPi/Hardware/LCD\lcd.c ****     a = 0;
 400:C:/Users/lenovo/Desktop/liteos/Project2/BearPi_LiteOS/targets/STM32L431_BearPi/Hardware/LCD\lcd.c ****     b = r;
 401:C:/Users/lenovo/Desktop/liteos/Project2/BearPi_LiteOS/targets/STM32L431_BearPi/Hardware/LCD\lcd.c ****     di = 3 - (r << 1);
 402:C:/Users/lenovo/Desktop/liteos/Project2/BearPi_LiteOS/targets/STM32L431_BearPi/Hardware/LCD\lcd.c **** 
 403:C:/Users/lenovo/Desktop/liteos/Project2/BearPi_LiteOS/targets/STM32L431_BearPi/Hardware/LCD\lcd.c ****     while(a <= b)
 404:C:/Users/lenovo/Desktop/liteos/Project2/BearPi_LiteOS/targets/STM32L431_BearPi/Hardware/LCD\lcd.c ****     {
 405:C:/Users/lenovo/Desktop/liteos/Project2/BearPi_LiteOS/targets/STM32L431_BearPi/Hardware/LCD\lcd.c ****         LCD_Draw_Point(x0 - b, y0 - a);
 406:C:/Users/lenovo/Desktop/liteos/Project2/BearPi_LiteOS/targets/STM32L431_BearPi/Hardware/LCD\lcd.c ****         LCD_Draw_Point(x0 + b, y0 - a);
 407:C:/Users/lenovo/Desktop/liteos/Project2/BearPi_LiteOS/targets/STM32L431_BearPi/Hardware/LCD\lcd.c ****         LCD_Draw_Point(x0 - a, y0 + b);
 408:C:/Users/lenovo/Desktop/liteos/Project2/BearPi_LiteOS/targets/STM32L431_BearPi/Hardware/LCD\lcd.c ****         LCD_Draw_Point(x0 - b, y0 - a);
 409:C:/Users/lenovo/Desktop/liteos/Project2/BearPi_LiteOS/targets/STM32L431_BearPi/Hardware/LCD\lcd.c ****         LCD_Draw_Point(x0 - a, y0 - b);
 410:C:/Users/lenovo/Desktop/liteos/Project2/BearPi_LiteOS/targets/STM32L431_BearPi/Hardware/LCD\lcd.c ****         LCD_Draw_Point(x0 + b, y0 + a);
 411:C:/Users/lenovo/Desktop/liteos/Project2/BearPi_LiteOS/targets/STM32L431_BearPi/Hardware/LCD\lcd.c ****         LCD_Draw_Point(x0 + a, y0 - b);
 412:C:/Users/lenovo/Desktop/liteos/Project2/BearPi_LiteOS/targets/STM32L431_BearPi/Hardware/LCD\lcd.c ****         LCD_Draw_Point(x0 + a, y0 + b);
 413:C:/Users/lenovo/Desktop/liteos/Project2/BearPi_LiteOS/targets/STM32L431_BearPi/Hardware/LCD\lcd.c ****         LCD_Draw_Point(x0 - b, y0 + a);
 414:C:/Users/lenovo/Desktop/liteos/Project2/BearPi_LiteOS/targets/STM32L431_BearPi/Hardware/LCD\lcd.c ****         a++;
 415:C:/Users/lenovo/Desktop/liteos/Project2/BearPi_LiteOS/targets/STM32L431_BearPi/Hardware/LCD\lcd.c **** 
 416:C:/Users/lenovo/Desktop/liteos/Project2/BearPi_LiteOS/targets/STM32L431_BearPi/Hardware/LCD\lcd.c ****         //Bresenham
 417:C:/Users/lenovo/Desktop/liteos/Project2/BearPi_LiteOS/targets/STM32L431_BearPi/Hardware/LCD\lcd.c ****         if(di < 0)di += 4 * a + 6;
 418:C:/Users/lenovo/Desktop/liteos/Project2/BearPi_LiteOS/targets/STM32L431_BearPi/Hardware/LCD\lcd.c **** 
 419:C:/Users/lenovo/Desktop/liteos/Project2/BearPi_LiteOS/targets/STM32L431_BearPi/Hardware/LCD\lcd.c ****         else
 420:C:/Users/lenovo/Desktop/liteos/Project2/BearPi_LiteOS/targets/STM32L431_BearPi/Hardware/LCD\lcd.c ****         {
 421:C:/Users/lenovo/Desktop/liteos/Project2/BearPi_LiteOS/targets/STM32L431_BearPi/Hardware/LCD\lcd.c ****             di += 10 + 4 * (a - b);
 422:C:/Users/lenovo/Desktop/liteos/Project2/BearPi_LiteOS/targets/STM32L431_BearPi/Hardware/LCD\lcd.c ****             b--;
 423:C:/Users/lenovo/Desktop/liteos/Project2/BearPi_LiteOS/targets/STM32L431_BearPi/Hardware/LCD\lcd.c ****         }
 424:C:/Users/lenovo/Desktop/liteos/Project2/BearPi_LiteOS/targets/STM32L431_BearPi/Hardware/LCD\lcd.c **** 
 425:C:/Users/lenovo/Desktop/liteos/Project2/BearPi_LiteOS/targets/STM32L431_BearPi/Hardware/LCD\lcd.c ****         LCD_Draw_Point(x0 + a, y0 + b);
 426:C:/Users/lenovo/Desktop/liteos/Project2/BearPi_LiteOS/targets/STM32L431_BearPi/Hardware/LCD\lcd.c ****     }
 427:C:/Users/lenovo/Desktop/liteos/Project2/BearPi_LiteOS/targets/STM32L431_BearPi/Hardware/LCD\lcd.c **** }
 428:C:/Users/lenovo/Desktop/liteos/Project2/BearPi_LiteOS/targets/STM32L431_BearPi/Hardware/LCD\lcd.c **** 
 429:C:/Users/lenovo/Desktop/liteos/Project2/BearPi_LiteOS/targets/STM32L431_BearPi/Hardware/LCD\lcd.c **** /**
 430:C:/Users/lenovo/Desktop/liteos/Project2/BearPi_LiteOS/targets/STM32L431_BearPi/Hardware/LCD\lcd.c ****  * @brief	显示一个ASCII码字符
 431:C:/Users/lenovo/Desktop/liteos/Project2/BearPi_LiteOS/targets/STM32L431_BearPi/Hardware/LCD\lcd.c ****  *
ARM GAS  c:\Users\lenovo\AppData\Local\Temp\cc7gPbIA.s 			page 9


 432:C:/Users/lenovo/Desktop/liteos/Project2/BearPi_LiteOS/targets/STM32L431_BearPi/Hardware/LCD\lcd.c ****  * @param   x,y		显示起始坐标
 433:C:/Users/lenovo/Desktop/liteos/Project2/BearPi_LiteOS/targets/STM32L431_BearPi/Hardware/LCD\lcd.c ****  * @param   chr		需要显示的字符
 434:C:/Users/lenovo/Desktop/liteos/Project2/BearPi_LiteOS/targets/STM32L431_BearPi/Hardware/LCD\lcd.c ****  * @param   size	字体大小(支持16/24/32号字体)
 435:C:/Users/lenovo/Desktop/liteos/Project2/BearPi_LiteOS/targets/STM32L431_BearPi/Hardware/LCD\lcd.c ****  *
 436:C:/Users/lenovo/Desktop/liteos/Project2/BearPi_LiteOS/targets/STM32L431_BearPi/Hardware/LCD\lcd.c ****  * @return  void
 437:C:/Users/lenovo/Desktop/liteos/Project2/BearPi_LiteOS/targets/STM32L431_BearPi/Hardware/LCD\lcd.c ****  */
 438:C:/Users/lenovo/Desktop/liteos/Project2/BearPi_LiteOS/targets/STM32L431_BearPi/Hardware/LCD\lcd.c **** void LCD_ShowChar(uint16_t x, uint16_t y, char chr, uint8_t size)
 439:C:/Users/lenovo/Desktop/liteos/Project2/BearPi_LiteOS/targets/STM32L431_BearPi/Hardware/LCD\lcd.c **** {
 440:C:/Users/lenovo/Desktop/liteos/Project2/BearPi_LiteOS/targets/STM32L431_BearPi/Hardware/LCD\lcd.c ****     uint8_t temp, t1, t;
 441:C:/Users/lenovo/Desktop/liteos/Project2/BearPi_LiteOS/targets/STM32L431_BearPi/Hardware/LCD\lcd.c ****     uint8_t csize;		//得到字体一个字符对应点阵集所占的字节数
 442:C:/Users/lenovo/Desktop/liteos/Project2/BearPi_LiteOS/targets/STM32L431_BearPi/Hardware/LCD\lcd.c ****     uint16_t colortemp;
 443:C:/Users/lenovo/Desktop/liteos/Project2/BearPi_LiteOS/targets/STM32L431_BearPi/Hardware/LCD\lcd.c ****     uint8_t sta;
 444:C:/Users/lenovo/Desktop/liteos/Project2/BearPi_LiteOS/targets/STM32L431_BearPi/Hardware/LCD\lcd.c **** 
 445:C:/Users/lenovo/Desktop/liteos/Project2/BearPi_LiteOS/targets/STM32L431_BearPi/Hardware/LCD\lcd.c ****     chr = chr - ' '; //得到偏移后的值（ASCII字库是从空格开始取模，所以-' '就
 446:C:/Users/lenovo/Desktop/liteos/Project2/BearPi_LiteOS/targets/STM32L431_BearPi/Hardware/LCD\lcd.c **** 
 447:C:/Users/lenovo/Desktop/liteos/Project2/BearPi_LiteOS/targets/STM32L431_BearPi/Hardware/LCD\lcd.c ****     if((x > (LCD_Width - size / 2)) || (y > (LCD_Height - size)))	return;
 448:C:/Users/lenovo/Desktop/liteos/Project2/BearPi_LiteOS/targets/STM32L431_BearPi/Hardware/LCD\lcd.c **** 
 449:C:/Users/lenovo/Desktop/liteos/Project2/BearPi_LiteOS/targets/STM32L431_BearPi/Hardware/LCD\lcd.c ****     LCD_Address_Set(x, y, x + size / 2 - 1, y + size - 1);//(x,y,x+8-1,y+16-1)
 450:C:/Users/lenovo/Desktop/liteos/Project2/BearPi_LiteOS/targets/STM32L431_BearPi/Hardware/LCD\lcd.c **** 
 451:C:/Users/lenovo/Desktop/liteos/Project2/BearPi_LiteOS/targets/STM32L431_BearPi/Hardware/LCD\lcd.c ****     if((size == 16) || (size == 32) )	//16和32号字体
 452:C:/Users/lenovo/Desktop/liteos/Project2/BearPi_LiteOS/targets/STM32L431_BearPi/Hardware/LCD\lcd.c ****     {
 453:C:/Users/lenovo/Desktop/liteos/Project2/BearPi_LiteOS/targets/STM32L431_BearPi/Hardware/LCD\lcd.c ****         csize = (size / 8 + ((size % 8) ? 1 : 0)) * (size / 2);
 454:C:/Users/lenovo/Desktop/liteos/Project2/BearPi_LiteOS/targets/STM32L431_BearPi/Hardware/LCD\lcd.c **** 
 455:C:/Users/lenovo/Desktop/liteos/Project2/BearPi_LiteOS/targets/STM32L431_BearPi/Hardware/LCD\lcd.c ****         for(t = 0; t < csize; t++)
 456:C:/Users/lenovo/Desktop/liteos/Project2/BearPi_LiteOS/targets/STM32L431_BearPi/Hardware/LCD\lcd.c ****         {
 457:C:/Users/lenovo/Desktop/liteos/Project2/BearPi_LiteOS/targets/STM32L431_BearPi/Hardware/LCD\lcd.c ****             if(size == 16)temp = asc2_1608[chr][t];	//调用1608字体
 458:C:/Users/lenovo/Desktop/liteos/Project2/BearPi_LiteOS/targets/STM32L431_BearPi/Hardware/LCD\lcd.c **** 
 459:C:/Users/lenovo/Desktop/liteos/Project2/BearPi_LiteOS/targets/STM32L431_BearPi/Hardware/LCD\lcd.c ****             else if(size == 32)temp = asc2_3216[chr][t];	//调用3216字体
 460:C:/Users/lenovo/Desktop/liteos/Project2/BearPi_LiteOS/targets/STM32L431_BearPi/Hardware/LCD\lcd.c **** 
 461:C:/Users/lenovo/Desktop/liteos/Project2/BearPi_LiteOS/targets/STM32L431_BearPi/Hardware/LCD\lcd.c ****             else return;			//没有的字库
 462:C:/Users/lenovo/Desktop/liteos/Project2/BearPi_LiteOS/targets/STM32L431_BearPi/Hardware/LCD\lcd.c **** 
 463:C:/Users/lenovo/Desktop/liteos/Project2/BearPi_LiteOS/targets/STM32L431_BearPi/Hardware/LCD\lcd.c ****             for(t1 = 0; t1 < 8; t1++)
 464:C:/Users/lenovo/Desktop/liteos/Project2/BearPi_LiteOS/targets/STM32L431_BearPi/Hardware/LCD\lcd.c ****             {
 465:C:/Users/lenovo/Desktop/liteos/Project2/BearPi_LiteOS/targets/STM32L431_BearPi/Hardware/LCD\lcd.c ****                 if(temp & 0x80) colortemp = POINT_COLOR;
 466:C:/Users/lenovo/Desktop/liteos/Project2/BearPi_LiteOS/targets/STM32L431_BearPi/Hardware/LCD\lcd.c **** 
 467:C:/Users/lenovo/Desktop/liteos/Project2/BearPi_LiteOS/targets/STM32L431_BearPi/Hardware/LCD\lcd.c ****                 else colortemp = BACK_COLOR;
 468:C:/Users/lenovo/Desktop/liteos/Project2/BearPi_LiteOS/targets/STM32L431_BearPi/Hardware/LCD\lcd.c **** 
 469:C:/Users/lenovo/Desktop/liteos/Project2/BearPi_LiteOS/targets/STM32L431_BearPi/Hardware/LCD\lcd.c ****                 LCD_Write_HalfWord(colortemp);
 470:C:/Users/lenovo/Desktop/liteos/Project2/BearPi_LiteOS/targets/STM32L431_BearPi/Hardware/LCD\lcd.c ****                 temp <<= 1;
 471:C:/Users/lenovo/Desktop/liteos/Project2/BearPi_LiteOS/targets/STM32L431_BearPi/Hardware/LCD\lcd.c ****             }
 472:C:/Users/lenovo/Desktop/liteos/Project2/BearPi_LiteOS/targets/STM32L431_BearPi/Hardware/LCD\lcd.c ****         }
 473:C:/Users/lenovo/Desktop/liteos/Project2/BearPi_LiteOS/targets/STM32L431_BearPi/Hardware/LCD\lcd.c ****     }
 474:C:/Users/lenovo/Desktop/liteos/Project2/BearPi_LiteOS/targets/STM32L431_BearPi/Hardware/LCD\lcd.c **** 
 475:C:/Users/lenovo/Desktop/liteos/Project2/BearPi_LiteOS/targets/STM32L431_BearPi/Hardware/LCD\lcd.c **** 	else if  (size == 12)	//12号字体
 476:C:/Users/lenovo/Desktop/liteos/Project2/BearPi_LiteOS/targets/STM32L431_BearPi/Hardware/LCD\lcd.c **** 	{
 477:C:/Users/lenovo/Desktop/liteos/Project2/BearPi_LiteOS/targets/STM32L431_BearPi/Hardware/LCD\lcd.c ****         csize = (size / 8 + ((size % 8) ? 1 : 0)) * (size / 2);
 478:C:/Users/lenovo/Desktop/liteos/Project2/BearPi_LiteOS/targets/STM32L431_BearPi/Hardware/LCD\lcd.c **** 
 479:C:/Users/lenovo/Desktop/liteos/Project2/BearPi_LiteOS/targets/STM32L431_BearPi/Hardware/LCD\lcd.c ****         for(t = 0; t < csize; t++)
 480:C:/Users/lenovo/Desktop/liteos/Project2/BearPi_LiteOS/targets/STM32L431_BearPi/Hardware/LCD\lcd.c ****         {
 481:C:/Users/lenovo/Desktop/liteos/Project2/BearPi_LiteOS/targets/STM32L431_BearPi/Hardware/LCD\lcd.c ****             temp = asc2_1206[chr][t];
 482:C:/Users/lenovo/Desktop/liteos/Project2/BearPi_LiteOS/targets/STM32L431_BearPi/Hardware/LCD\lcd.c **** 
 483:C:/Users/lenovo/Desktop/liteos/Project2/BearPi_LiteOS/targets/STM32L431_BearPi/Hardware/LCD\lcd.c ****             for(t1 = 0; t1 < 6; t1++)
 484:C:/Users/lenovo/Desktop/liteos/Project2/BearPi_LiteOS/targets/STM32L431_BearPi/Hardware/LCD\lcd.c ****             {
 485:C:/Users/lenovo/Desktop/liteos/Project2/BearPi_LiteOS/targets/STM32L431_BearPi/Hardware/LCD\lcd.c ****                 if(temp & 0x80) colortemp = POINT_COLOR;
 486:C:/Users/lenovo/Desktop/liteos/Project2/BearPi_LiteOS/targets/STM32L431_BearPi/Hardware/LCD\lcd.c **** 
 487:C:/Users/lenovo/Desktop/liteos/Project2/BearPi_LiteOS/targets/STM32L431_BearPi/Hardware/LCD\lcd.c ****                 else colortemp = BACK_COLOR;
 488:C:/Users/lenovo/Desktop/liteos/Project2/BearPi_LiteOS/targets/STM32L431_BearPi/Hardware/LCD\lcd.c **** 
ARM GAS  c:\Users\lenovo\AppData\Local\Temp\cc7gPbIA.s 			page 10


 489:C:/Users/lenovo/Desktop/liteos/Project2/BearPi_LiteOS/targets/STM32L431_BearPi/Hardware/LCD\lcd.c ****                 LCD_Write_HalfWord(colortemp);
 490:C:/Users/lenovo/Desktop/liteos/Project2/BearPi_LiteOS/targets/STM32L431_BearPi/Hardware/LCD\lcd.c ****                 temp <<= 1;
 491:C:/Users/lenovo/Desktop/liteos/Project2/BearPi_LiteOS/targets/STM32L431_BearPi/Hardware/LCD\lcd.c ****             }
 492:C:/Users/lenovo/Desktop/liteos/Project2/BearPi_LiteOS/targets/STM32L431_BearPi/Hardware/LCD\lcd.c ****         }
 493:C:/Users/lenovo/Desktop/liteos/Project2/BearPi_LiteOS/targets/STM32L431_BearPi/Hardware/LCD\lcd.c ****     }
 494:C:/Users/lenovo/Desktop/liteos/Project2/BearPi_LiteOS/targets/STM32L431_BearPi/Hardware/LCD\lcd.c **** 	
 495:C:/Users/lenovo/Desktop/liteos/Project2/BearPi_LiteOS/targets/STM32L431_BearPi/Hardware/LCD\lcd.c ****     else if(size == 24)		//24号字体
 496:C:/Users/lenovo/Desktop/liteos/Project2/BearPi_LiteOS/targets/STM32L431_BearPi/Hardware/LCD\lcd.c ****     {
 497:C:/Users/lenovo/Desktop/liteos/Project2/BearPi_LiteOS/targets/STM32L431_BearPi/Hardware/LCD\lcd.c ****         csize = (size * 16) / 8;
 498:C:/Users/lenovo/Desktop/liteos/Project2/BearPi_LiteOS/targets/STM32L431_BearPi/Hardware/LCD\lcd.c **** 
 499:C:/Users/lenovo/Desktop/liteos/Project2/BearPi_LiteOS/targets/STM32L431_BearPi/Hardware/LCD\lcd.c ****         for(t = 0; t < csize; t++)
 500:C:/Users/lenovo/Desktop/liteos/Project2/BearPi_LiteOS/targets/STM32L431_BearPi/Hardware/LCD\lcd.c ****         {
 501:C:/Users/lenovo/Desktop/liteos/Project2/BearPi_LiteOS/targets/STM32L431_BearPi/Hardware/LCD\lcd.c ****             temp = asc2_2412[chr][t];
 502:C:/Users/lenovo/Desktop/liteos/Project2/BearPi_LiteOS/targets/STM32L431_BearPi/Hardware/LCD\lcd.c **** 
 503:C:/Users/lenovo/Desktop/liteos/Project2/BearPi_LiteOS/targets/STM32L431_BearPi/Hardware/LCD\lcd.c ****             if(t % 2 == 0)sta = 8;
 504:C:/Users/lenovo/Desktop/liteos/Project2/BearPi_LiteOS/targets/STM32L431_BearPi/Hardware/LCD\lcd.c **** 
 505:C:/Users/lenovo/Desktop/liteos/Project2/BearPi_LiteOS/targets/STM32L431_BearPi/Hardware/LCD\lcd.c ****             else sta = 4;
 506:C:/Users/lenovo/Desktop/liteos/Project2/BearPi_LiteOS/targets/STM32L431_BearPi/Hardware/LCD\lcd.c **** 
 507:C:/Users/lenovo/Desktop/liteos/Project2/BearPi_LiteOS/targets/STM32L431_BearPi/Hardware/LCD\lcd.c ****             for(t1 = 0; t1 < sta; t1++)
 508:C:/Users/lenovo/Desktop/liteos/Project2/BearPi_LiteOS/targets/STM32L431_BearPi/Hardware/LCD\lcd.c ****             {
 509:C:/Users/lenovo/Desktop/liteos/Project2/BearPi_LiteOS/targets/STM32L431_BearPi/Hardware/LCD\lcd.c ****                 if(temp & 0x80) colortemp = POINT_COLOR;
 510:C:/Users/lenovo/Desktop/liteos/Project2/BearPi_LiteOS/targets/STM32L431_BearPi/Hardware/LCD\lcd.c **** 
 511:C:/Users/lenovo/Desktop/liteos/Project2/BearPi_LiteOS/targets/STM32L431_BearPi/Hardware/LCD\lcd.c ****                 else colortemp = BACK_COLOR;
 512:C:/Users/lenovo/Desktop/liteos/Project2/BearPi_LiteOS/targets/STM32L431_BearPi/Hardware/LCD\lcd.c **** 
 513:C:/Users/lenovo/Desktop/liteos/Project2/BearPi_LiteOS/targets/STM32L431_BearPi/Hardware/LCD\lcd.c ****                 LCD_Write_HalfWord(colortemp);
 514:C:/Users/lenovo/Desktop/liteos/Project2/BearPi_LiteOS/targets/STM32L431_BearPi/Hardware/LCD\lcd.c ****                 temp <<= 1;
 515:C:/Users/lenovo/Desktop/liteos/Project2/BearPi_LiteOS/targets/STM32L431_BearPi/Hardware/LCD\lcd.c ****             }
 516:C:/Users/lenovo/Desktop/liteos/Project2/BearPi_LiteOS/targets/STM32L431_BearPi/Hardware/LCD\lcd.c ****         }
 517:C:/Users/lenovo/Desktop/liteos/Project2/BearPi_LiteOS/targets/STM32L431_BearPi/Hardware/LCD\lcd.c ****     }
 518:C:/Users/lenovo/Desktop/liteos/Project2/BearPi_LiteOS/targets/STM32L431_BearPi/Hardware/LCD\lcd.c **** }
 519:C:/Users/lenovo/Desktop/liteos/Project2/BearPi_LiteOS/targets/STM32L431_BearPi/Hardware/LCD\lcd.c **** 
 520:C:/Users/lenovo/Desktop/liteos/Project2/BearPi_LiteOS/targets/STM32L431_BearPi/Hardware/LCD\lcd.c **** /**
 521:C:/Users/lenovo/Desktop/liteos/Project2/BearPi_LiteOS/targets/STM32L431_BearPi/Hardware/LCD\lcd.c ****  * @brief	m^n函数
 522:C:/Users/lenovo/Desktop/liteos/Project2/BearPi_LiteOS/targets/STM32L431_BearPi/Hardware/LCD\lcd.c ****  *
 523:C:/Users/lenovo/Desktop/liteos/Project2/BearPi_LiteOS/targets/STM32L431_BearPi/Hardware/LCD\lcd.c ****  * @param   m,n		输入参数
 524:C:/Users/lenovo/Desktop/liteos/Project2/BearPi_LiteOS/targets/STM32L431_BearPi/Hardware/LCD\lcd.c ****  *
 525:C:/Users/lenovo/Desktop/liteos/Project2/BearPi_LiteOS/targets/STM32L431_BearPi/Hardware/LCD\lcd.c ****  * @return  m^n次方
 526:C:/Users/lenovo/Desktop/liteos/Project2/BearPi_LiteOS/targets/STM32L431_BearPi/Hardware/LCD\lcd.c ****  */
 527:C:/Users/lenovo/Desktop/liteos/Project2/BearPi_LiteOS/targets/STM32L431_BearPi/Hardware/LCD\lcd.c **** static uint32_t LCD_Pow(uint8_t m, uint8_t n)
 528:C:/Users/lenovo/Desktop/liteos/Project2/BearPi_LiteOS/targets/STM32L431_BearPi/Hardware/LCD\lcd.c **** {
  27              		.loc 1 528 0
  28              		.cfi_startproc
  29              		@ args = 0, pretend = 0, frame = 0
  30              		@ frame_needed = 0, uses_anonymous_args = 0
  31              		@ link register save eliminated.
  32              	.LVL0:
 529:C:/Users/lenovo/Desktop/liteos/Project2/BearPi_LiteOS/targets/STM32L431_BearPi/Hardware/LCD\lcd.c ****     uint32_t result = 1;
  33              		.loc 1 529 0
  34 0000 0122     		movs	r2, #1
 530:C:/Users/lenovo/Desktop/liteos/Project2/BearPi_LiteOS/targets/STM32L431_BearPi/Hardware/LCD\lcd.c **** 
 531:C:/Users/lenovo/Desktop/liteos/Project2/BearPi_LiteOS/targets/STM32L431_BearPi/Hardware/LCD\lcd.c ****     while(n--)result *= m;
  35              		.loc 1 531 0
  36 0002 02E0     		b	.L2
  37              	.LVL1:
  38              	.L3:
  39              		.loc 1 531 0 is_stmt 0 discriminator 2
  40 0004 00FB02F2 		mul	r2, r0, r2
ARM GAS  c:\Users\lenovo\AppData\Local\Temp\cc7gPbIA.s 			page 11


  41              	.LVL2:
  42 0008 1946     		mov	r1, r3
  43              	.LVL3:
  44              	.L2:
  45              		.loc 1 531 0 discriminator 1
  46 000a 4B1E     		subs	r3, r1, #1
  47 000c DBB2     		uxtb	r3, r3
  48              	.LVL4:
  49 000e 0029     		cmp	r1, #0
  50 0010 F8D1     		bne	.L3
 532:C:/Users/lenovo/Desktop/liteos/Project2/BearPi_LiteOS/targets/STM32L431_BearPi/Hardware/LCD\lcd.c **** 
 533:C:/Users/lenovo/Desktop/liteos/Project2/BearPi_LiteOS/targets/STM32L431_BearPi/Hardware/LCD\lcd.c ****     return result;
 534:C:/Users/lenovo/Desktop/liteos/Project2/BearPi_LiteOS/targets/STM32L431_BearPi/Hardware/LCD\lcd.c **** }
  51              		.loc 1 534 0 is_stmt 1
  52 0012 1046     		mov	r0, r2
  53              	.LVL5:
  54 0014 7047     		bx	lr
  55              		.cfi_endproc
  56              	.LFE149:
  58              		.section	.text.LCD_SPI_Send,"ax",%progbits
  59              		.align	1
  60              		.syntax unified
  61              		.thumb
  62              		.thumb_func
  63              		.fpu fpv4-sp-d16
  65              	LCD_SPI_Send:
  66              	.LFB134:
  81:C:/Users/lenovo/Desktop/liteos/Project2/BearPi_LiteOS/targets/STM32L431_BearPi/Hardware/LCD\lcd.c ****     SPI2_WriteByte(data, size);
  67              		.loc 1 81 0
  68              		.cfi_startproc
  69              		@ args = 0, pretend = 0, frame = 0
  70              		@ frame_needed = 0, uses_anonymous_args = 0
  71              	.LVL6:
  72 0000 08B5     		push	{r3, lr}
  73              	.LCFI0:
  74              		.cfi_def_cfa_offset 8
  75              		.cfi_offset 3, -8
  76              		.cfi_offset 14, -4
  82:C:/Users/lenovo/Desktop/liteos/Project2/BearPi_LiteOS/targets/STM32L431_BearPi/Hardware/LCD\lcd.c **** }
  77              		.loc 1 82 0
  78 0002 FFF7FEFF 		bl	SPI2_WriteByte
  79              	.LVL7:
  83:C:/Users/lenovo/Desktop/liteos/Project2/BearPi_LiteOS/targets/STM32L431_BearPi/Hardware/LCD\lcd.c **** 
  80              		.loc 1 83 0
  81 0006 08BD     		pop	{r3, pc}
  82              		.cfi_endproc
  83              	.LFE134:
  85              		.section	.text.LCD_Write_Data,"ax",%progbits
  86              		.align	1
  87              		.syntax unified
  88              		.thumb
  89              		.thumb_func
  90              		.fpu fpv4-sp-d16
  92              	LCD_Write_Data:
  93              	.LFB136:
 108:C:/Users/lenovo/Desktop/liteos/Project2/BearPi_LiteOS/targets/STM32L431_BearPi/Hardware/LCD\lcd.c ****     LCD_DC(1);
  94              		.loc 1 108 0
ARM GAS  c:\Users\lenovo\AppData\Local\Temp\cc7gPbIA.s 			page 12


  95              		.cfi_startproc
  96              		@ args = 0, pretend = 0, frame = 8
  97              		@ frame_needed = 0, uses_anonymous_args = 0
  98              	.LVL8:
  99 0000 10B5     		push	{r4, lr}
 100              	.LCFI1:
 101              		.cfi_def_cfa_offset 8
 102              		.cfi_offset 4, -8
 103              		.cfi_offset 14, -4
 104 0002 82B0     		sub	sp, sp, #8
 105              	.LCFI2:
 106              		.cfi_def_cfa_offset 16
 107 0004 02AC     		add	r4, sp, #8
 108 0006 04F8010D 		strb	r0, [r4, #-1]!
 109:C:/Users/lenovo/Desktop/liteos/Project2/BearPi_LiteOS/targets/STM32L431_BearPi/Hardware/LCD\lcd.c **** 
 109              		.loc 1 109 0
 110 000a 0122     		movs	r2, #1
 111 000c 4021     		movs	r1, #64
 112 000e 0448     		ldr	r0, .L8
 113              	.LVL9:
 114 0010 FFF7FEFF 		bl	HAL_GPIO_WritePin
 115              	.LVL10:
 111:C:/Users/lenovo/Desktop/liteos/Project2/BearPi_LiteOS/targets/STM32L431_BearPi/Hardware/LCD\lcd.c **** }
 116              		.loc 1 111 0
 117 0014 0121     		movs	r1, #1
 118 0016 2046     		mov	r0, r4
 119 0018 FFF7FEFF 		bl	LCD_SPI_Send
 120              	.LVL11:
 112:C:/Users/lenovo/Desktop/liteos/Project2/BearPi_LiteOS/targets/STM32L431_BearPi/Hardware/LCD\lcd.c **** 
 121              		.loc 1 112 0
 122 001c 02B0     		add	sp, sp, #8
 123              	.LCFI3:
 124              		.cfi_def_cfa_offset 8
 125              		@ sp needed
 126 001e 10BD     		pop	{r4, pc}
 127              	.L9:
 128              		.align	2
 129              	.L8:
 130 0020 00080048 		.word	1207961600
 131              		.cfi_endproc
 132              	.LFE136:
 134              		.section	.text.LCD_Write_Cmd,"ax",%progbits
 135              		.align	1
 136              		.syntax unified
 137              		.thumb
 138              		.thumb_func
 139              		.fpu fpv4-sp-d16
 141              	LCD_Write_Cmd:
 142              	.LFB135:
  94:C:/Users/lenovo/Desktop/liteos/Project2/BearPi_LiteOS/targets/STM32L431_BearPi/Hardware/LCD\lcd.c ****     LCD_DC(0);
 143              		.loc 1 94 0
 144              		.cfi_startproc
 145              		@ args = 0, pretend = 0, frame = 8
 146              		@ frame_needed = 0, uses_anonymous_args = 0
 147              	.LVL12:
 148 0000 10B5     		push	{r4, lr}
 149              	.LCFI4:
ARM GAS  c:\Users\lenovo\AppData\Local\Temp\cc7gPbIA.s 			page 13


 150              		.cfi_def_cfa_offset 8
 151              		.cfi_offset 4, -8
 152              		.cfi_offset 14, -4
 153 0002 82B0     		sub	sp, sp, #8
 154              	.LCFI5:
 155              		.cfi_def_cfa_offset 16
 156 0004 02AC     		add	r4, sp, #8
 157 0006 04F8010D 		strb	r0, [r4, #-1]!
  95:C:/Users/lenovo/Desktop/liteos/Project2/BearPi_LiteOS/targets/STM32L431_BearPi/Hardware/LCD\lcd.c **** 
 158              		.loc 1 95 0
 159 000a 0022     		movs	r2, #0
 160 000c 4021     		movs	r1, #64
 161 000e 0448     		ldr	r0, .L12
 162              	.LVL13:
 163 0010 FFF7FEFF 		bl	HAL_GPIO_WritePin
 164              	.LVL14:
  97:C:/Users/lenovo/Desktop/liteos/Project2/BearPi_LiteOS/targets/STM32L431_BearPi/Hardware/LCD\lcd.c **** }
 165              		.loc 1 97 0
 166 0014 0121     		movs	r1, #1
 167 0016 2046     		mov	r0, r4
 168 0018 FFF7FEFF 		bl	LCD_SPI_Send
 169              	.LVL15:
  98:C:/Users/lenovo/Desktop/liteos/Project2/BearPi_LiteOS/targets/STM32L431_BearPi/Hardware/LCD\lcd.c **** 
 170              		.loc 1 98 0
 171 001c 02B0     		add	sp, sp, #8
 172              	.LCFI6:
 173              		.cfi_def_cfa_offset 8
 174              		@ sp needed
 175 001e 10BD     		pop	{r4, pc}
 176              	.L13:
 177              		.align	2
 178              	.L12:
 179 0020 00080048 		.word	1207961600
 180              		.cfi_endproc
 181              	.LFE135:
 183              		.section	.text.LCD_Gpio_Init,"ax",%progbits
 184              		.align	1
 185              		.syntax unified
 186              		.thumb
 187              		.thumb_func
 188              		.fpu fpv4-sp-d16
 190              	LCD_Gpio_Init:
 191              	.LFB133:
  36:C:/Users/lenovo/Desktop/liteos/Project2/BearPi_LiteOS/targets/STM32L431_BearPi/Hardware/LCD\lcd.c ****     GPIO_InitTypeDef GPIO_InitStruct;
 192              		.loc 1 36 0
 193              		.cfi_startproc
 194              		@ args = 0, pretend = 0, frame = 32
 195              		@ frame_needed = 0, uses_anonymous_args = 0
 196 0000 2DE9F041 		push	{r4, r5, r6, r7, r8, lr}
 197              	.LCFI7:
 198              		.cfi_def_cfa_offset 24
 199              		.cfi_offset 4, -24
 200              		.cfi_offset 5, -20
 201              		.cfi_offset 6, -16
 202              		.cfi_offset 7, -12
 203              		.cfi_offset 8, -8
 204              		.cfi_offset 14, -4
ARM GAS  c:\Users\lenovo\AppData\Local\Temp\cc7gPbIA.s 			page 14


 205 0004 88B0     		sub	sp, sp, #32
 206              	.LCFI8:
 207              		.cfi_def_cfa_offset 56
 208              	.LBB2:
  39:C:/Users/lenovo/Desktop/liteos/Project2/BearPi_LiteOS/targets/STM32L431_BearPi/Hardware/LCD\lcd.c ****     __HAL_RCC_GPIOC_CLK_ENABLE();
 209              		.loc 1 39 0
 210 0006 254B     		ldr	r3, .L16
 211 0008 DA6C     		ldr	r2, [r3, #76]
 212 000a 42F00202 		orr	r2, r2, #2
 213 000e DA64     		str	r2, [r3, #76]
 214 0010 DA6C     		ldr	r2, [r3, #76]
 215 0012 02F00202 		and	r2, r2, #2
 216 0016 0192     		str	r2, [sp, #4]
 217 0018 019A     		ldr	r2, [sp, #4]
 218              	.LBE2:
 219              	.LBB3:
  40:C:/Users/lenovo/Desktop/liteos/Project2/BearPi_LiteOS/targets/STM32L431_BearPi/Hardware/LCD\lcd.c **** 
 220              		.loc 1 40 0
 221 001a DA6C     		ldr	r2, [r3, #76]
 222 001c 42F00402 		orr	r2, r2, #4
 223 0020 DA64     		str	r2, [r3, #76]
 224 0022 DB6C     		ldr	r3, [r3, #76]
 225 0024 03F00403 		and	r3, r3, #4
 226 0028 0293     		str	r3, [sp, #8]
 227 002a 029B     		ldr	r3, [sp, #8]
 228              	.LBE3:
  47:C:/Users/lenovo/Desktop/liteos/Project2/BearPi_LiteOS/targets/STM32L431_BearPi/Hardware/LCD\lcd.c ****     GPIO_InitStruct.Mode = GPIO_MODE_OUTPUT_PP;
 229              		.loc 1 47 0
 230 002c 4FF40047 		mov	r7, #32768
 231 0030 0397     		str	r7, [sp, #12]
  48:C:/Users/lenovo/Desktop/liteos/Project2/BearPi_LiteOS/targets/STM32L431_BearPi/Hardware/LCD\lcd.c ****     GPIO_InitStruct.Pull = GPIO_PULLUP;
 232              		.loc 1 48 0
 233 0032 0124     		movs	r4, #1
 234 0034 0494     		str	r4, [sp, #16]
  49:C:/Users/lenovo/Desktop/liteos/Project2/BearPi_LiteOS/targets/STM32L431_BearPi/Hardware/LCD\lcd.c ****     GPIO_InitStruct.Speed = GPIO_SPEED_FREQ_HIGH;
 235              		.loc 1 49 0
 236 0036 0594     		str	r4, [sp, #20]
  50:C:/Users/lenovo/Desktop/liteos/Project2/BearPi_LiteOS/targets/STM32L431_BearPi/Hardware/LCD\lcd.c ****     HAL_GPIO_Init(GPIOB, &GPIO_InitStruct);
 237              		.loc 1 50 0
 238 0038 0225     		movs	r5, #2
 239 003a 0695     		str	r5, [sp, #24]
  51:C:/Users/lenovo/Desktop/liteos/Project2/BearPi_LiteOS/targets/STM32L431_BearPi/Hardware/LCD\lcd.c ****     HAL_GPIO_WritePin(GPIOB, GPIO_PIN_15, GPIO_PIN_RESET);
 240              		.loc 1 51 0
 241 003c 184E     		ldr	r6, .L16+4
 242 003e 03A9     		add	r1, sp, #12
 243 0040 3046     		mov	r0, r6
 244 0042 FFF7FEFF 		bl	HAL_GPIO_Init
 245              	.LVL16:
  52:C:/Users/lenovo/Desktop/liteos/Project2/BearPi_LiteOS/targets/STM32L431_BearPi/Hardware/LCD\lcd.c **** 	
 246              		.loc 1 52 0
 247 0046 0022     		movs	r2, #0
 248 0048 3946     		mov	r1, r7
 249 004a 3046     		mov	r0, r6
 250 004c FFF7FEFF 		bl	HAL_GPIO_WritePin
 251              	.LVL17:
  54:C:/Users/lenovo/Desktop/liteos/Project2/BearPi_LiteOS/targets/STM32L431_BearPi/Hardware/LCD\lcd.c ****     GPIO_InitStruct.Mode = GPIO_MODE_OUTPUT_PP;
 252              		.loc 1 54 0
ARM GAS  c:\Users\lenovo\AppData\Local\Temp\cc7gPbIA.s 			page 15


 253 0050 4FF0C008 		mov	r8, #192
 254 0054 CDF80C80 		str	r8, [sp, #12]
  55:C:/Users/lenovo/Desktop/liteos/Project2/BearPi_LiteOS/targets/STM32L431_BearPi/Hardware/LCD\lcd.c ****     GPIO_InitStruct.Pull = GPIO_PULLUP;
 255              		.loc 1 55 0
 256 0058 0494     		str	r4, [sp, #16]
  56:C:/Users/lenovo/Desktop/liteos/Project2/BearPi_LiteOS/targets/STM32L431_BearPi/Hardware/LCD\lcd.c ****     GPIO_InitStruct.Speed = GPIO_SPEED_FREQ_HIGH;
 257              		.loc 1 56 0
 258 005a 0594     		str	r4, [sp, #20]
  57:C:/Users/lenovo/Desktop/liteos/Project2/BearPi_LiteOS/targets/STM32L431_BearPi/Hardware/LCD\lcd.c ****     HAL_GPIO_Init(GPIOC, &GPIO_InitStruct);
 259              		.loc 1 57 0
 260 005c 0695     		str	r5, [sp, #24]
  58:C:/Users/lenovo/Desktop/liteos/Project2/BearPi_LiteOS/targets/STM32L431_BearPi/Hardware/LCD\lcd.c ****     HAL_GPIO_WritePin(GPIOC ,GPIO_PIN_6 | GPIO_PIN_7, GPIO_PIN_RESET);
 261              		.loc 1 58 0
 262 005e 114D     		ldr	r5, .L16+8
 263 0060 03A9     		add	r1, sp, #12
 264 0062 2846     		mov	r0, r5
 265 0064 FFF7FEFF 		bl	HAL_GPIO_Init
 266              	.LVL18:
  59:C:/Users/lenovo/Desktop/liteos/Project2/BearPi_LiteOS/targets/STM32L431_BearPi/Hardware/LCD\lcd.c **** 
 267              		.loc 1 59 0
 268 0068 0022     		movs	r2, #0
 269 006a 4146     		mov	r1, r8
 270 006c 2846     		mov	r0, r5
 271 006e FFF7FEFF 		bl	HAL_GPIO_WritePin
 272              	.LVL19:
  62:C:/Users/lenovo/Desktop/liteos/Project2/BearPi_LiteOS/targets/STM32L431_BearPi/Hardware/LCD\lcd.c **** 
 273              		.loc 1 62 0
 274 0072 0022     		movs	r2, #0
 275 0074 3946     		mov	r1, r7
 276 0076 3046     		mov	r0, r6
 277 0078 FFF7FEFF 		bl	HAL_GPIO_WritePin
 278              	.LVL20:
  64:C:/Users/lenovo/Desktop/liteos/Project2/BearPi_LiteOS/targets/STM32L431_BearPi/Hardware/LCD\lcd.c ****     delay10ms(12);
 279              		.loc 1 64 0
 280 007c 0022     		movs	r2, #0
 281 007e 8021     		movs	r1, #128
 282 0080 2846     		mov	r0, r5
 283 0082 FFF7FEFF 		bl	HAL_GPIO_WritePin
 284              	.LVL21:
  65:C:/Users/lenovo/Desktop/liteos/Project2/BearPi_LiteOS/targets/STM32L431_BearPi/Hardware/LCD\lcd.c ****     LCD_RST(1);
 285              		.loc 1 65 0
 286 0086 0C20     		movs	r0, #12
 287 0088 FFF7FEFF 		bl	delay10ms
 288              	.LVL22:
  66:C:/Users/lenovo/Desktop/liteos/Project2/BearPi_LiteOS/targets/STM32L431_BearPi/Hardware/LCD\lcd.c **** 
 289              		.loc 1 66 0
 290 008c 2246     		mov	r2, r4
 291 008e 8021     		movs	r1, #128
 292 0090 2846     		mov	r0, r5
 293 0092 FFF7FEFF 		bl	HAL_GPIO_WritePin
 294              	.LVL23:
  69:C:/Users/lenovo/Desktop/liteos/Project2/BearPi_LiteOS/targets/STM32L431_BearPi/Hardware/LCD\lcd.c **** 
 295              		.loc 1 69 0
 296 0096 08B0     		add	sp, sp, #32
 297              	.LCFI9:
 298              		.cfi_def_cfa_offset 24
 299              		@ sp needed
ARM GAS  c:\Users\lenovo\AppData\Local\Temp\cc7gPbIA.s 			page 16


 300 0098 BDE8F081 		pop	{r4, r5, r6, r7, r8, pc}
 301              	.L17:
 302              		.align	2
 303              	.L16:
 304 009c 00100240 		.word	1073876992
 305 00a0 00040048 		.word	1207960576
 306 00a4 00080048 		.word	1207961600
 307              		.cfi_endproc
 308              	.LFE133:
 310              		.section	.text.LCD_Write_HalfWord,"ax",%progbits
 311              		.align	1
 312              		.global	LCD_Write_HalfWord
 313              		.syntax unified
 314              		.thumb
 315              		.thumb_func
 316              		.fpu fpv4-sp-d16
 318              	LCD_Write_HalfWord:
 319              	.LFB137:
 122:C:/Users/lenovo/Desktop/liteos/Project2/BearPi_LiteOS/targets/STM32L431_BearPi/Hardware/LCD\lcd.c ****     uint8_t data[2] = {0};
 320              		.loc 1 122 0
 321              		.cfi_startproc
 322              		@ args = 0, pretend = 0, frame = 8
 323              		@ frame_needed = 0, uses_anonymous_args = 0
 324              	.LVL24:
 325 0000 00B5     		push	{lr}
 326              	.LCFI10:
 327              		.cfi_def_cfa_offset 4
 328              		.cfi_offset 14, -4
 329 0002 83B0     		sub	sp, sp, #12
 330              	.LCFI11:
 331              		.cfi_def_cfa_offset 16
 125:C:/Users/lenovo/Desktop/liteos/Project2/BearPi_LiteOS/targets/STM32L431_BearPi/Hardware/LCD\lcd.c ****     data[1] = da;
 332              		.loc 1 125 0
 333 0004 030A     		lsrs	r3, r0, #8
 334 0006 8DF80430 		strb	r3, [sp, #4]
 126:C:/Users/lenovo/Desktop/liteos/Project2/BearPi_LiteOS/targets/STM32L431_BearPi/Hardware/LCD\lcd.c **** 
 335              		.loc 1 126 0
 336 000a 8DF80500 		strb	r0, [sp, #5]
 128:C:/Users/lenovo/Desktop/liteos/Project2/BearPi_LiteOS/targets/STM32L431_BearPi/Hardware/LCD\lcd.c ****     LCD_SPI_Send(data, 2);
 337              		.loc 1 128 0
 338 000e 0122     		movs	r2, #1
 339 0010 4021     		movs	r1, #64
 340 0012 0548     		ldr	r0, .L20
 341              	.LVL25:
 342 0014 FFF7FEFF 		bl	HAL_GPIO_WritePin
 343              	.LVL26:
 129:C:/Users/lenovo/Desktop/liteos/Project2/BearPi_LiteOS/targets/STM32L431_BearPi/Hardware/LCD\lcd.c **** }
 344              		.loc 1 129 0
 345 0018 0221     		movs	r1, #2
 346 001a 01A8     		add	r0, sp, #4
 347 001c FFF7FEFF 		bl	LCD_SPI_Send
 348              	.LVL27:
 130:C:/Users/lenovo/Desktop/liteos/Project2/BearPi_LiteOS/targets/STM32L431_BearPi/Hardware/LCD\lcd.c **** 
 349              		.loc 1 130 0
 350 0020 03B0     		add	sp, sp, #12
 351              	.LCFI12:
 352              		.cfi_def_cfa_offset 4
ARM GAS  c:\Users\lenovo\AppData\Local\Temp\cc7gPbIA.s 			page 17


 353              		@ sp needed
 354 0022 5DF804FB 		ldr	pc, [sp], #4
 355              	.L21:
 356 0026 00BF     		.align	2
 357              	.L20:
 358 0028 00080048 		.word	1207961600
 359              		.cfi_endproc
 360              	.LFE137:
 362              		.section	.text.LCD_Address_Set,"ax",%progbits
 363              		.align	1
 364              		.global	LCD_Address_Set
 365              		.syntax unified
 366              		.thumb
 367              		.thumb_func
 368              		.fpu fpv4-sp-d16
 370              	LCD_Address_Set:
 371              	.LFB138:
 142:C:/Users/lenovo/Desktop/liteos/Project2/BearPi_LiteOS/targets/STM32L431_BearPi/Hardware/LCD\lcd.c ****     LCD_Write_Cmd(0x2a);
 372              		.loc 1 142 0
 373              		.cfi_startproc
 374              		@ args = 0, pretend = 0, frame = 0
 375              		@ frame_needed = 0, uses_anonymous_args = 0
 376              	.LVL28:
 377 0000 F8B5     		push	{r3, r4, r5, r6, r7, lr}
 378              	.LCFI13:
 379              		.cfi_def_cfa_offset 24
 380              		.cfi_offset 3, -24
 381              		.cfi_offset 4, -20
 382              		.cfi_offset 5, -16
 383              		.cfi_offset 6, -12
 384              		.cfi_offset 7, -8
 385              		.cfi_offset 14, -4
 386 0002 0746     		mov	r7, r0
 387 0004 0D46     		mov	r5, r1
 388 0006 1646     		mov	r6, r2
 389 0008 1C46     		mov	r4, r3
 143:C:/Users/lenovo/Desktop/liteos/Project2/BearPi_LiteOS/targets/STM32L431_BearPi/Hardware/LCD\lcd.c ****     LCD_Write_Data(x1 >> 8);
 390              		.loc 1 143 0
 391 000a 2A20     		movs	r0, #42
 392              	.LVL29:
 393 000c FFF7FEFF 		bl	LCD_Write_Cmd
 394              	.LVL30:
 144:C:/Users/lenovo/Desktop/liteos/Project2/BearPi_LiteOS/targets/STM32L431_BearPi/Hardware/LCD\lcd.c ****     LCD_Write_Data(x1);
 395              		.loc 1 144 0
 396 0010 380A     		lsrs	r0, r7, #8
 397 0012 FFF7FEFF 		bl	LCD_Write_Data
 398              	.LVL31:
 145:C:/Users/lenovo/Desktop/liteos/Project2/BearPi_LiteOS/targets/STM32L431_BearPi/Hardware/LCD\lcd.c ****     LCD_Write_Data(x2 >> 8);
 399              		.loc 1 145 0
 400 0016 F8B2     		uxtb	r0, r7
 401 0018 FFF7FEFF 		bl	LCD_Write_Data
 402              	.LVL32:
 146:C:/Users/lenovo/Desktop/liteos/Project2/BearPi_LiteOS/targets/STM32L431_BearPi/Hardware/LCD\lcd.c ****     LCD_Write_Data(x2);
 403              		.loc 1 146 0
 404 001c 300A     		lsrs	r0, r6, #8
 405 001e FFF7FEFF 		bl	LCD_Write_Data
 406              	.LVL33:
ARM GAS  c:\Users\lenovo\AppData\Local\Temp\cc7gPbIA.s 			page 18


 147:C:/Users/lenovo/Desktop/liteos/Project2/BearPi_LiteOS/targets/STM32L431_BearPi/Hardware/LCD\lcd.c **** 
 407              		.loc 1 147 0
 408 0022 F0B2     		uxtb	r0, r6
 409 0024 FFF7FEFF 		bl	LCD_Write_Data
 410              	.LVL34:
 149:C:/Users/lenovo/Desktop/liteos/Project2/BearPi_LiteOS/targets/STM32L431_BearPi/Hardware/LCD\lcd.c ****     LCD_Write_Data(y1 >> 8);
 411              		.loc 1 149 0
 412 0028 2B20     		movs	r0, #43
 413 002a FFF7FEFF 		bl	LCD_Write_Cmd
 414              	.LVL35:
 150:C:/Users/lenovo/Desktop/liteos/Project2/BearPi_LiteOS/targets/STM32L431_BearPi/Hardware/LCD\lcd.c ****     LCD_Write_Data(y1);
 415              		.loc 1 150 0
 416 002e 280A     		lsrs	r0, r5, #8
 417 0030 FFF7FEFF 		bl	LCD_Write_Data
 418              	.LVL36:
 151:C:/Users/lenovo/Desktop/liteos/Project2/BearPi_LiteOS/targets/STM32L431_BearPi/Hardware/LCD\lcd.c ****     LCD_Write_Data(y2 >> 8);
 419              		.loc 1 151 0
 420 0034 E8B2     		uxtb	r0, r5
 421 0036 FFF7FEFF 		bl	LCD_Write_Data
 422              	.LVL37:
 152:C:/Users/lenovo/Desktop/liteos/Project2/BearPi_LiteOS/targets/STM32L431_BearPi/Hardware/LCD\lcd.c ****     LCD_Write_Data(y2);
 423              		.loc 1 152 0
 424 003a 200A     		lsrs	r0, r4, #8
 425 003c FFF7FEFF 		bl	LCD_Write_Data
 426              	.LVL38:
 153:C:/Users/lenovo/Desktop/liteos/Project2/BearPi_LiteOS/targets/STM32L431_BearPi/Hardware/LCD\lcd.c **** 
 427              		.loc 1 153 0
 428 0040 E0B2     		uxtb	r0, r4
 429 0042 FFF7FEFF 		bl	LCD_Write_Data
 430              	.LVL39:
 155:C:/Users/lenovo/Desktop/liteos/Project2/BearPi_LiteOS/targets/STM32L431_BearPi/Hardware/LCD\lcd.c **** }
 431              		.loc 1 155 0
 432 0046 2C20     		movs	r0, #44
 433 0048 FFF7FEFF 		bl	LCD_Write_Cmd
 434              	.LVL40:
 156:C:/Users/lenovo/Desktop/liteos/Project2/BearPi_LiteOS/targets/STM32L431_BearPi/Hardware/LCD\lcd.c **** 
 435              		.loc 1 156 0
 436 004c F8BD     		pop	{r3, r4, r5, r6, r7, pc}
 437              		.cfi_endproc
 438              	.LFE138:
 440              		.section	.text.LCD_DisplayOn,"ax",%progbits
 441              		.align	1
 442              		.global	LCD_DisplayOn
 443              		.syntax unified
 444              		.thumb
 445              		.thumb_func
 446              		.fpu fpv4-sp-d16
 448              	LCD_DisplayOn:
 449              	.LFB139:
 166:C:/Users/lenovo/Desktop/liteos/Project2/BearPi_LiteOS/targets/STM32L431_BearPi/Hardware/LCD\lcd.c ****     LCD_PWR(1);
 450              		.loc 1 166 0
 451              		.cfi_startproc
 452              		@ args = 0, pretend = 0, frame = 0
 453              		@ frame_needed = 0, uses_anonymous_args = 0
 454 0000 08B5     		push	{r3, lr}
 455              	.LCFI14:
 456              		.cfi_def_cfa_offset 8
ARM GAS  c:\Users\lenovo\AppData\Local\Temp\cc7gPbIA.s 			page 19


 457              		.cfi_offset 3, -8
 458              		.cfi_offset 14, -4
 167:C:/Users/lenovo/Desktop/liteos/Project2/BearPi_LiteOS/targets/STM32L431_BearPi/Hardware/LCD\lcd.c **** }
 459              		.loc 1 167 0
 460 0002 0122     		movs	r2, #1
 461 0004 4FF40041 		mov	r1, #32768
 462 0008 0148     		ldr	r0, .L26
 463 000a FFF7FEFF 		bl	HAL_GPIO_WritePin
 464              	.LVL41:
 168:C:/Users/lenovo/Desktop/liteos/Project2/BearPi_LiteOS/targets/STM32L431_BearPi/Hardware/LCD\lcd.c **** /**
 465              		.loc 1 168 0
 466 000e 08BD     		pop	{r3, pc}
 467              	.L27:
 468              		.align	2
 469              	.L26:
 470 0010 00040048 		.word	1207960576
 471              		.cfi_endproc
 472              	.LFE139:
 474              		.section	.text.LCD_DisplayOff,"ax",%progbits
 475              		.align	1
 476              		.global	LCD_DisplayOff
 477              		.syntax unified
 478              		.thumb
 479              		.thumb_func
 480              		.fpu fpv4-sp-d16
 482              	LCD_DisplayOff:
 483              	.LFB140:
 177:C:/Users/lenovo/Desktop/liteos/Project2/BearPi_LiteOS/targets/STM32L431_BearPi/Hardware/LCD\lcd.c ****     LCD_PWR(0);
 484              		.loc 1 177 0
 485              		.cfi_startproc
 486              		@ args = 0, pretend = 0, frame = 0
 487              		@ frame_needed = 0, uses_anonymous_args = 0
 488 0000 08B5     		push	{r3, lr}
 489              	.LCFI15:
 490              		.cfi_def_cfa_offset 8
 491              		.cfi_offset 3, -8
 492              		.cfi_offset 14, -4
 178:C:/Users/lenovo/Desktop/liteos/Project2/BearPi_LiteOS/targets/STM32L431_BearPi/Hardware/LCD\lcd.c **** }
 493              		.loc 1 178 0
 494 0002 0022     		movs	r2, #0
 495 0004 4FF40041 		mov	r1, #32768
 496 0008 0148     		ldr	r0, .L30
 497 000a FFF7FEFF 		bl	HAL_GPIO_WritePin
 498              	.LVL42:
 179:C:/Users/lenovo/Desktop/liteos/Project2/BearPi_LiteOS/targets/STM32L431_BearPi/Hardware/LCD\lcd.c **** 
 499              		.loc 1 179 0
 500 000e 08BD     		pop	{r3, pc}
 501              	.L31:
 502              		.align	2
 503              	.L30:
 504 0010 00040048 		.word	1207960576
 505              		.cfi_endproc
 506              	.LFE140:
 508              		.section	.text.LCD_Clear,"ax",%progbits
 509              		.align	1
 510              		.global	LCD_Clear
 511              		.syntax unified
ARM GAS  c:\Users\lenovo\AppData\Local\Temp\cc7gPbIA.s 			page 20


 512              		.thumb
 513              		.thumb_func
 514              		.fpu fpv4-sp-d16
 516              	LCD_Clear:
 517              	.LFB141:
 189:C:/Users/lenovo/Desktop/liteos/Project2/BearPi_LiteOS/targets/STM32L431_BearPi/Hardware/LCD\lcd.c ****     uint16_t i, j;
 518              		.loc 1 189 0
 519              		.cfi_startproc
 520              		@ args = 0, pretend = 0, frame = 0
 521              		@ frame_needed = 0, uses_anonymous_args = 0
 522              	.LVL43:
 523 0000 38B5     		push	{r3, r4, r5, lr}
 524              	.LCFI16:
 525              		.cfi_def_cfa_offset 16
 526              		.cfi_offset 3, -16
 527              		.cfi_offset 4, -12
 528              		.cfi_offset 5, -8
 529              		.cfi_offset 14, -4
 193:C:/Users/lenovo/Desktop/liteos/Project2/BearPi_LiteOS/targets/STM32L431_BearPi/Hardware/LCD\lcd.c ****     data[1] = color;
 530              		.loc 1 193 0
 531 0002 050A     		lsrs	r5, r0, #8
 194:C:/Users/lenovo/Desktop/liteos/Project2/BearPi_LiteOS/targets/STM32L431_BearPi/Hardware/LCD\lcd.c **** 
 532              		.loc 1 194 0
 533 0004 C4B2     		uxtb	r4, r0
 196:C:/Users/lenovo/Desktop/liteos/Project2/BearPi_LiteOS/targets/STM32L431_BearPi/Hardware/LCD\lcd.c **** 
 534              		.loc 1 196 0
 535 0006 EF23     		movs	r3, #239
 536 0008 1A46     		mov	r2, r3
 537 000a 0021     		movs	r1, #0
 538 000c 0846     		mov	r0, r1
 539              	.LVL44:
 540 000e FFF7FEFF 		bl	LCD_Address_Set
 541              	.LVL45:
 198:C:/Users/lenovo/Desktop/liteos/Project2/BearPi_LiteOS/targets/STM32L431_BearPi/Hardware/LCD\lcd.c ****     {
 542              		.loc 1 198 0
 543 0012 0023     		movs	r3, #0
 544 0014 07E0     		b	.L33
 545              	.LVL46:
 546              	.L34:
 200:C:/Users/lenovo/Desktop/liteos/Project2/BearPi_LiteOS/targets/STM32L431_BearPi/Hardware/LCD\lcd.c ****         lcd_buf[j * 2 + 1] =  data[1];
 547              		.loc 1 200 0 discriminator 3
 548 0016 5A00     		lsls	r2, r3, #1
 549 0018 0D49     		ldr	r1, .L38
 550 001a 01F81350 		strb	r5, [r1, r3, lsl #1]
 201:C:/Users/lenovo/Desktop/liteos/Project2/BearPi_LiteOS/targets/STM32L431_BearPi/Hardware/LCD\lcd.c ****     }
 551              		.loc 1 201 0 discriminator 3
 552 001e 0132     		adds	r2, r2, #1
 553 0020 8C54     		strb	r4, [r1, r2]
 198:C:/Users/lenovo/Desktop/liteos/Project2/BearPi_LiteOS/targets/STM32L431_BearPi/Hardware/LCD\lcd.c ****     {
 554              		.loc 1 198 0 discriminator 3
 555 0022 0133     		adds	r3, r3, #1
 556              	.LVL47:
 557 0024 9BB2     		uxth	r3, r3
 558              	.LVL48:
 559              	.L33:
 198:C:/Users/lenovo/Desktop/liteos/Project2/BearPi_LiteOS/targets/STM32L431_BearPi/Hardware/LCD\lcd.c ****     {
 560              		.loc 1 198 0 is_stmt 0 discriminator 1
ARM GAS  c:\Users\lenovo\AppData\Local\Temp\cc7gPbIA.s 			page 21


 561 0026 B3F5107F 		cmp	r3, #576
 562 002a F4D3     		bcc	.L34
 204:C:/Users/lenovo/Desktop/liteos/Project2/BearPi_LiteOS/targets/STM32L431_BearPi/Hardware/LCD\lcd.c **** 
 563              		.loc 1 204 0 is_stmt 1
 564 002c 0122     		movs	r2, #1
 565 002e 4021     		movs	r1, #64
 566 0030 0848     		ldr	r0, .L38+4
 567 0032 FFF7FEFF 		bl	HAL_GPIO_WritePin
 568              	.LVL49:
 206:C:/Users/lenovo/Desktop/liteos/Project2/BearPi_LiteOS/targets/STM32L431_BearPi/Hardware/LCD\lcd.c ****     {
 569              		.loc 1 206 0
 570 0036 0024     		movs	r4, #0
 571 0038 06E0     		b	.L35
 572              	.LVL50:
 573              	.L36:
 208:C:/Users/lenovo/Desktop/liteos/Project2/BearPi_LiteOS/targets/STM32L431_BearPi/Hardware/LCD\lcd.c ****     }
 574              		.loc 1 208 0 discriminator 3
 575 003a 4FF49061 		mov	r1, #1152
 576 003e 0448     		ldr	r0, .L38
 577 0040 FFF7FEFF 		bl	LCD_SPI_Send
 578              	.LVL51:
 206:C:/Users/lenovo/Desktop/liteos/Project2/BearPi_LiteOS/targets/STM32L431_BearPi/Hardware/LCD\lcd.c ****     {
 579              		.loc 1 206 0 discriminator 3
 580 0044 0134     		adds	r4, r4, #1
 581              	.LVL52:
 582 0046 A4B2     		uxth	r4, r4
 583              	.LVL53:
 584              	.L35:
 206:C:/Users/lenovo/Desktop/liteos/Project2/BearPi_LiteOS/targets/STM32L431_BearPi/Hardware/LCD\lcd.c ****     {
 585              		.loc 1 206 0 is_stmt 0 discriminator 1
 586 0048 632C     		cmp	r4, #99
 587 004a F6D9     		bls	.L36
 210:C:/Users/lenovo/Desktop/liteos/Project2/BearPi_LiteOS/targets/STM32L431_BearPi/Hardware/LCD\lcd.c **** 
 588              		.loc 1 210 0 is_stmt 1
 589 004c 38BD     		pop	{r3, r4, r5, pc}
 590              	.LVL54:
 591              	.L39:
 592 004e 00BF     		.align	2
 593              	.L38:
 594 0050 00000000 		.word	.LANCHOR0
 595 0054 00080048 		.word	1207961600
 596              		.cfi_endproc
 597              	.LFE141:
 599              		.section	.text.LCD_Fill,"ax",%progbits
 600              		.align	1
 601              		.global	LCD_Fill
 602              		.syntax unified
 603              		.thumb
 604              		.thumb_func
 605              		.fpu fpv4-sp-d16
 607              	LCD_Fill:
 608              	.LFB142:
 222:C:/Users/lenovo/Desktop/liteos/Project2/BearPi_LiteOS/targets/STM32L431_BearPi/Hardware/LCD\lcd.c ****     uint16_t i = 0;
 609              		.loc 1 222 0
 610              		.cfi_startproc
 611              		@ args = 4, pretend = 0, frame = 0
 612              		@ frame_needed = 0, uses_anonymous_args = 0
ARM GAS  c:\Users\lenovo\AppData\Local\Temp\cc7gPbIA.s 			page 22


 613              	.LVL55:
 614 0000 70B5     		push	{r4, r5, r6, lr}
 615              	.LCFI17:
 616              		.cfi_def_cfa_offset 16
 617              		.cfi_offset 4, -16
 618              		.cfi_offset 5, -12
 619              		.cfi_offset 6, -8
 620              		.cfi_offset 14, -4
 621 0002 BDF81040 		ldrh	r4, [sp, #16]
 622              	.LVL56:
 226:C:/Users/lenovo/Desktop/liteos/Project2/BearPi_LiteOS/targets/STM32L431_BearPi/Hardware/LCD\lcd.c **** 
 623              		.loc 1 226 0
 624 0006 161A     		subs	r6, r2, r0
 625 0008 5D1A     		subs	r5, r3, r1
 626 000a 0135     		adds	r5, r5, #1
 627 000c 06FB0555 		mla	r5, r6, r5, r5
 628 0010 6D00     		lsls	r5, r5, #1
 629              	.LVL57:
 228:C:/Users/lenovo/Desktop/liteos/Project2/BearPi_LiteOS/targets/STM32L431_BearPi/Hardware/LCD\lcd.c ****     {
 630              		.loc 1 228 0
 631 0012 B5F5906F 		cmp	r5, #1152
 632 0016 06D9     		bls	.L47
 230:C:/Users/lenovo/Desktop/liteos/Project2/BearPi_LiteOS/targets/STM32L431_BearPi/Hardware/LCD\lcd.c ****         size = LCD_Buf_Size;
 633              		.loc 1 230 0
 634 0018 A5F59066 		sub	r6, r5, #1152
 635              	.LVL58:
 231:C:/Users/lenovo/Desktop/liteos/Project2/BearPi_LiteOS/targets/STM32L431_BearPi/Hardware/LCD\lcd.c ****     }
 636              		.loc 1 231 0
 637 001c 4FF49065 		mov	r5, #1152
 638              	.LVL59:
 639              	.L41:
 234:C:/Users/lenovo/Desktop/liteos/Project2/BearPi_LiteOS/targets/STM32L431_BearPi/Hardware/LCD\lcd.c **** 
 640              		.loc 1 234 0
 641 0020 FFF7FEFF 		bl	LCD_Address_Set
 642              	.LVL60:
 643 0024 03E0     		b	.L42
 644              	.LVL61:
 645              	.L47:
 224:C:/Users/lenovo/Desktop/liteos/Project2/BearPi_LiteOS/targets/STM32L431_BearPi/Hardware/LCD\lcd.c **** 
 646              		.loc 1 224 0
 647 0026 0026     		movs	r6, #0
 648 0028 FAE7     		b	.L41
 649              	.LVL62:
 650              	.L48:
 257:C:/Users/lenovo/Desktop/liteos/Project2/BearPi_LiteOS/targets/STM32L431_BearPi/Hardware/LCD\lcd.c ****             size_remain = 0;
 651              		.loc 1 257 0
 652 002a 3546     		mov	r5, r6
 653              	.LVL63:
 258:C:/Users/lenovo/Desktop/liteos/Project2/BearPi_LiteOS/targets/STM32L431_BearPi/Hardware/LCD\lcd.c ****         }
 654              		.loc 1 258 0
 655 002c 0026     		movs	r6, #0
 656              	.LVL64:
 657              	.L42:
 238:C:/Users/lenovo/Desktop/liteos/Project2/BearPi_LiteOS/targets/STM32L431_BearPi/Hardware/LCD\lcd.c ****         {
 658              		.loc 1 238 0
 659 002e 0023     		movs	r3, #0
 660 0030 08E0     		b	.L43
ARM GAS  c:\Users\lenovo\AppData\Local\Temp\cc7gPbIA.s 			page 23


 661              	.LVL65:
 662              	.L44:
 240:C:/Users/lenovo/Desktop/liteos/Project2/BearPi_LiteOS/targets/STM32L431_BearPi/Hardware/LCD\lcd.c ****             lcd_buf[2 * i + 1] = color;
 663              		.loc 1 240 0 discriminator 3
 664 0032 5A00     		lsls	r2, r3, #1
 665 0034 0D49     		ldr	r1, .L50
 666 0036 200A     		lsrs	r0, r4, #8
 667 0038 01F81300 		strb	r0, [r1, r3, lsl #1]
 241:C:/Users/lenovo/Desktop/liteos/Project2/BearPi_LiteOS/targets/STM32L431_BearPi/Hardware/LCD\lcd.c ****         }
 668              		.loc 1 241 0 discriminator 3
 669 003c 0132     		adds	r2, r2, #1
 670 003e 8C54     		strb	r4, [r1, r2]
 238:C:/Users/lenovo/Desktop/liteos/Project2/BearPi_LiteOS/targets/STM32L431_BearPi/Hardware/LCD\lcd.c ****         {
 671              		.loc 1 238 0 discriminator 3
 672 0040 0133     		adds	r3, r3, #1
 673              	.LVL66:
 674 0042 9BB2     		uxth	r3, r3
 675              	.LVL67:
 676              	.L43:
 238:C:/Users/lenovo/Desktop/liteos/Project2/BearPi_LiteOS/targets/STM32L431_BearPi/Hardware/LCD\lcd.c ****         {
 677              		.loc 1 238 0 is_stmt 0 discriminator 1
 678 0044 B3EB550F 		cmp	r3, r5, lsr #1
 679 0048 F3D3     		bcc	.L44
 244:C:/Users/lenovo/Desktop/liteos/Project2/BearPi_LiteOS/targets/STM32L431_BearPi/Hardware/LCD\lcd.c ****         LCD_SPI_Send(lcd_buf, size);
 680              		.loc 1 244 0 is_stmt 1
 681 004a 0122     		movs	r2, #1
 682 004c 4021     		movs	r1, #64
 683 004e 0848     		ldr	r0, .L50+4
 684 0050 FFF7FEFF 		bl	HAL_GPIO_WritePin
 685              	.LVL68:
 245:C:/Users/lenovo/Desktop/liteos/Project2/BearPi_LiteOS/targets/STM32L431_BearPi/Hardware/LCD\lcd.c **** 
 686              		.loc 1 245 0
 687 0054 A9B2     		uxth	r1, r5
 688 0056 0548     		ldr	r0, .L50
 689 0058 FFF7FEFF 		bl	LCD_SPI_Send
 690              	.LVL69:
 247:C:/Users/lenovo/Desktop/liteos/Project2/BearPi_LiteOS/targets/STM32L431_BearPi/Hardware/LCD\lcd.c ****             break;
 691              		.loc 1 247 0
 692 005c 2EB1     		cbz	r6, .L40
 250:C:/Users/lenovo/Desktop/liteos/Project2/BearPi_LiteOS/targets/STM32L431_BearPi/Hardware/LCD\lcd.c ****         {
 693              		.loc 1 250 0
 694 005e B6F5906F 		cmp	r6, #1152
 695 0062 E2D9     		bls	.L48
 252:C:/Users/lenovo/Desktop/liteos/Project2/BearPi_LiteOS/targets/STM32L431_BearPi/Hardware/LCD\lcd.c ****         }
 696              		.loc 1 252 0
 697 0064 A6F59066 		sub	r6, r6, #1152
 698              	.LVL70:
 699 0068 E1E7     		b	.L42
 700              	.L40:
 261:C:/Users/lenovo/Desktop/liteos/Project2/BearPi_LiteOS/targets/STM32L431_BearPi/Hardware/LCD\lcd.c **** 
 701              		.loc 1 261 0
 702 006a 70BD     		pop	{r4, r5, r6, pc}
 703              	.LVL71:
 704              	.L51:
 705              		.align	2
 706              	.L50:
 707 006c 00000000 		.word	.LANCHOR0
ARM GAS  c:\Users\lenovo\AppData\Local\Temp\cc7gPbIA.s 			page 24


 708 0070 00080048 		.word	1207961600
 709              		.cfi_endproc
 710              	.LFE142:
 712              		.section	.text.LCD_Draw_Point,"ax",%progbits
 713              		.align	1
 714              		.global	LCD_Draw_Point
 715              		.syntax unified
 716              		.thumb
 717              		.thumb_func
 718              		.fpu fpv4-sp-d16
 720              	LCD_Draw_Point:
 721              	.LFB143:
 271:C:/Users/lenovo/Desktop/liteos/Project2/BearPi_LiteOS/targets/STM32L431_BearPi/Hardware/LCD\lcd.c ****     LCD_Address_Set(x, y, x, y);
 722              		.loc 1 271 0
 723              		.cfi_startproc
 724              		@ args = 0, pretend = 0, frame = 0
 725              		@ frame_needed = 0, uses_anonymous_args = 0
 726              	.LVL72:
 727 0000 08B5     		push	{r3, lr}
 728              	.LCFI18:
 729              		.cfi_def_cfa_offset 8
 730              		.cfi_offset 3, -8
 731              		.cfi_offset 14, -4
 272:C:/Users/lenovo/Desktop/liteos/Project2/BearPi_LiteOS/targets/STM32L431_BearPi/Hardware/LCD\lcd.c ****     LCD_Write_HalfWord(POINT_COLOR);
 732              		.loc 1 272 0
 733 0002 0B46     		mov	r3, r1
 734 0004 0246     		mov	r2, r0
 735 0006 FFF7FEFF 		bl	LCD_Address_Set
 736              	.LVL73:
 273:C:/Users/lenovo/Desktop/liteos/Project2/BearPi_LiteOS/targets/STM32L431_BearPi/Hardware/LCD\lcd.c **** }
 737              		.loc 1 273 0
 738 000a 024B     		ldr	r3, .L54
 739 000c 1888     		ldrh	r0, [r3]
 740 000e FFF7FEFF 		bl	LCD_Write_HalfWord
 741              	.LVL74:
 274:C:/Users/lenovo/Desktop/liteos/Project2/BearPi_LiteOS/targets/STM32L431_BearPi/Hardware/LCD\lcd.c **** 
 742              		.loc 1 274 0
 743 0012 08BD     		pop	{r3, pc}
 744              	.L55:
 745              		.align	2
 746              	.L54:
 747 0014 00000000 		.word	.LANCHOR1
 748              		.cfi_endproc
 749              	.LFE143:
 751              		.section	.text.LCD_Draw_ColorPoint,"ax",%progbits
 752              		.align	1
 753              		.global	LCD_Draw_ColorPoint
 754              		.syntax unified
 755              		.thumb
 756              		.thumb_func
 757              		.fpu fpv4-sp-d16
 759              	LCD_Draw_ColorPoint:
 760              	.LFB144:
 284:C:/Users/lenovo/Desktop/liteos/Project2/BearPi_LiteOS/targets/STM32L431_BearPi/Hardware/LCD\lcd.c ****     LCD_Address_Set(x, y, x, y);
 761              		.loc 1 284 0
 762              		.cfi_startproc
 763              		@ args = 0, pretend = 0, frame = 0
ARM GAS  c:\Users\lenovo\AppData\Local\Temp\cc7gPbIA.s 			page 25


 764              		@ frame_needed = 0, uses_anonymous_args = 0
 765              	.LVL75:
 766 0000 10B5     		push	{r4, lr}
 767              	.LCFI19:
 768              		.cfi_def_cfa_offset 8
 769              		.cfi_offset 4, -8
 770              		.cfi_offset 14, -4
 771 0002 1446     		mov	r4, r2
 285:C:/Users/lenovo/Desktop/liteos/Project2/BearPi_LiteOS/targets/STM32L431_BearPi/Hardware/LCD\lcd.c ****     LCD_Write_HalfWord(color);
 772              		.loc 1 285 0
 773 0004 0B46     		mov	r3, r1
 774 0006 0246     		mov	r2, r0
 775              	.LVL76:
 776 0008 FFF7FEFF 		bl	LCD_Address_Set
 777              	.LVL77:
 286:C:/Users/lenovo/Desktop/liteos/Project2/BearPi_LiteOS/targets/STM32L431_BearPi/Hardware/LCD\lcd.c **** }
 778              		.loc 1 286 0
 779 000c 2046     		mov	r0, r4
 780 000e FFF7FEFF 		bl	LCD_Write_HalfWord
 781              	.LVL78:
 287:C:/Users/lenovo/Desktop/liteos/Project2/BearPi_LiteOS/targets/STM32L431_BearPi/Hardware/LCD\lcd.c **** 
 782              		.loc 1 287 0
 783 0012 10BD     		pop	{r4, pc}
 784              		.cfi_endproc
 785              	.LFE144:
 787              		.section	.text.LCD_DrawLine,"ax",%progbits
 788              		.align	1
 789              		.global	LCD_DrawLine
 790              		.syntax unified
 791              		.thumb
 792              		.thumb_func
 793              		.fpu fpv4-sp-d16
 795              	LCD_DrawLine:
 796              	.LFB145:
 300:C:/Users/lenovo/Desktop/liteos/Project2/BearPi_LiteOS/targets/STM32L431_BearPi/Hardware/LCD\lcd.c ****     uint16_t t;
 797              		.loc 1 300 0
 798              		.cfi_startproc
 799              		@ args = 0, pretend = 0, frame = 8
 800              		@ frame_needed = 0, uses_anonymous_args = 0
 801              	.LVL79:
 802 0000 2DE9F04F 		push	{r4, r5, r6, r7, r8, r9, r10, fp, lr}
 803              	.LCFI20:
 804              		.cfi_def_cfa_offset 36
 805              		.cfi_offset 4, -36
 806              		.cfi_offset 5, -32
 807              		.cfi_offset 6, -28
 808              		.cfi_offset 7, -24
 809              		.cfi_offset 8, -20
 810              		.cfi_offset 9, -16
 811              		.cfi_offset 10, -12
 812              		.cfi_offset 11, -8
 813              		.cfi_offset 14, -4
 814 0004 83B0     		sub	sp, sp, #12
 815              	.LCFI21:
 816              		.cfi_def_cfa_offset 48
 817 0006 0446     		mov	r4, r0
 818 0008 9046     		mov	r8, r2
ARM GAS  c:\Users\lenovo\AppData\Local\Temp\cc7gPbIA.s 			page 26


 819              	.LVL80:
 306:C:/Users/lenovo/Desktop/liteos/Project2/BearPi_LiteOS/targets/STM32L431_BearPi/Hardware/LCD\lcd.c ****     {
 820              		.loc 1 306 0
 821 000a 9942     		cmp	r1, r3
 822 000c 16D0     		beq	.L76
 322:C:/Users/lenovo/Desktop/liteos/Project2/BearPi_LiteOS/targets/STM32L431_BearPi/Hardware/LCD\lcd.c ****     delta_y = y2 - y1;
 823              		.loc 1 322 0
 824 000e 8246     		mov	r10, r0
 825 0010 A2EB0008 		sub	r8, r2, r0
 826              	.LVL81:
 323:C:/Users/lenovo/Desktop/liteos/Project2/BearPi_LiteOS/targets/STM32L431_BearPi/Hardware/LCD\lcd.c ****     row = x1;
 827              		.loc 1 323 0
 828 0014 8B46     		mov	fp, r1
 829 0016 A3EB0109 		sub	r9, r3, r1
 830              	.LVL82:
 327:C:/Users/lenovo/Desktop/liteos/Project2/BearPi_LiteOS/targets/STM32L431_BearPi/Hardware/LCD\lcd.c **** 
 831              		.loc 1 327 0
 832 001a B8F1000F 		cmp	r8, #0
 833 001e 2FDD     		ble	.L77
 834 0020 0123     		movs	r3, #1
 835              	.LVL83:
 836 0022 0093     		str	r3, [sp]
 837              	.L63:
 838              	.LVL84:
 337:C:/Users/lenovo/Desktop/liteos/Project2/BearPi_LiteOS/targets/STM32L431_BearPi/Hardware/LCD\lcd.c **** 
 839              		.loc 1 337 0
 840 0024 B9F1000F 		cmp	r9, #0
 841 0028 36DD     		ble	.L78
 842 002a 0123     		movs	r3, #1
 843 002c 0193     		str	r3, [sp, #4]
 844              	.L64:
 845              	.LVL85:
 347:C:/Users/lenovo/Desktop/liteos/Project2/BearPi_LiteOS/targets/STM32L431_BearPi/Hardware/LCD\lcd.c **** 
 846              		.loc 1 347 0
 847 002e C845     		cmp	r8, r9
 848 0030 3EDD     		ble	.L74
 849 0032 4646     		mov	r6, r8
 850              	.L65:
 851              	.LVL86:
 302:C:/Users/lenovo/Desktop/liteos/Project2/BearPi_LiteOS/targets/STM32L431_BearPi/Hardware/LCD\lcd.c ****     int incx, incy, row, col;
 852              		.loc 1 302 0
 853 0034 0025     		movs	r5, #0
 854 0036 2F46     		mov	r7, r5
 351:C:/Users/lenovo/Desktop/liteos/Project2/BearPi_LiteOS/targets/STM32L431_BearPi/Hardware/LCD\lcd.c ****     {
 855              		.loc 1 351 0
 856 0038 2C46     		mov	r4, r5
 857 003a 3DE0     		b	.L66
 858              	.LVL87:
 859              	.L76:
 309:C:/Users/lenovo/Desktop/liteos/Project2/BearPi_LiteOS/targets/STM32L431_BearPi/Hardware/LCD\lcd.c **** 
 860              		.loc 1 309 0
 861 003c FFF7FEFF 		bl	LCD_Address_Set
 862              	.LVL88:
 311:C:/Users/lenovo/Desktop/liteos/Project2/BearPi_LiteOS/targets/STM32L431_BearPi/Hardware/LCD\lcd.c ****         {
 863              		.loc 1 311 0
 864 0040 0023     		movs	r3, #0
 865 0042 09E0     		b	.L60
ARM GAS  c:\Users\lenovo\AppData\Local\Temp\cc7gPbIA.s 			page 27


 866              	.LVL89:
 867              	.L61:
 313:C:/Users/lenovo/Desktop/liteos/Project2/BearPi_LiteOS/targets/STM32L431_BearPi/Hardware/LCD\lcd.c ****             lcd_buf[2 * i + 1] = POINT_COLOR;
 868              		.loc 1 313 0 discriminator 3
 869 0044 274A     		ldr	r2, .L79
 870 0046 1088     		ldrh	r0, [r2]
 871 0048 5A00     		lsls	r2, r3, #1
 872 004a 2749     		ldr	r1, .L79+4
 873 004c 050A     		lsrs	r5, r0, #8
 874 004e 01F81350 		strb	r5, [r1, r3, lsl #1]
 314:C:/Users/lenovo/Desktop/liteos/Project2/BearPi_LiteOS/targets/STM32L431_BearPi/Hardware/LCD\lcd.c ****         }
 875              		.loc 1 314 0 discriminator 3
 876 0052 0132     		adds	r2, r2, #1
 877 0054 8854     		strb	r0, [r1, r2]
 311:C:/Users/lenovo/Desktop/liteos/Project2/BearPi_LiteOS/targets/STM32L431_BearPi/Hardware/LCD\lcd.c ****         {
 878              		.loc 1 311 0 discriminator 3
 879 0056 0133     		adds	r3, r3, #1
 880              	.LVL90:
 881              	.L60:
 311:C:/Users/lenovo/Desktop/liteos/Project2/BearPi_LiteOS/targets/STM32L431_BearPi/Hardware/LCD\lcd.c ****         {
 882              		.loc 1 311 0 is_stmt 0 discriminator 1
 883 0058 A8EB0402 		sub	r2, r8, r4
 884 005c 9A42     		cmp	r2, r3
 885 005e F1D8     		bhi	.L61
 317:C:/Users/lenovo/Desktop/liteos/Project2/BearPi_LiteOS/targets/STM32L431_BearPi/Hardware/LCD\lcd.c ****         LCD_SPI_Send(lcd_buf, (x2 - x1) * 2);
 886              		.loc 1 317 0 is_stmt 1
 887 0060 0122     		movs	r2, #1
 888 0062 4021     		movs	r1, #64
 889 0064 2148     		ldr	r0, .L79+8
 890 0066 FFF7FEFF 		bl	HAL_GPIO_WritePin
 891              	.LVL91:
 318:C:/Users/lenovo/Desktop/liteos/Project2/BearPi_LiteOS/targets/STM32L431_BearPi/Hardware/LCD\lcd.c ****         return;
 892              		.loc 1 318 0
 893 006a A8EB0408 		sub	r8, r8, r4
 894 006e 4FEA4801 		lsl	r1, r8, #1
 895 0072 89B2     		uxth	r1, r1
 896 0074 1C48     		ldr	r0, .L79+4
 897 0076 FFF7FEFF 		bl	LCD_SPI_Send
 898              	.LVL92:
 899              	.L58:
 369:C:/Users/lenovo/Desktop/liteos/Project2/BearPi_LiteOS/targets/STM32L431_BearPi/Hardware/LCD\lcd.c **** 
 900              		.loc 1 369 0
 901 007a 03B0     		add	sp, sp, #12
 902              	.LCFI22:
 903              		.cfi_remember_state
 904              		.cfi_def_cfa_offset 36
 905              		@ sp needed
 906 007c BDE8F08F 		pop	{r4, r5, r6, r7, r8, r9, r10, fp, pc}
 907              	.LVL93:
 908              	.L77:
 909              	.LCFI23:
 910              		.cfi_restore_state
 329:C:/Users/lenovo/Desktop/liteos/Project2/BearPi_LiteOS/targets/STM32L431_BearPi/Hardware/LCD\lcd.c **** 
 911              		.loc 1 329 0
 912 0080 B8F1000F 		cmp	r8, #0
 913 0084 05D0     		beq	.L71
 914              	.LVL94:
ARM GAS  c:\Users\lenovo\AppData\Local\Temp\cc7gPbIA.s 			page 28


 334:C:/Users/lenovo/Desktop/liteos/Project2/BearPi_LiteOS/targets/STM32L431_BearPi/Hardware/LCD\lcd.c ****     }
 915              		.loc 1 334 0
 916 0086 C8F10008 		rsb	r8, r8, #0
 917              	.LVL95:
 333:C:/Users/lenovo/Desktop/liteos/Project2/BearPi_LiteOS/targets/STM32L431_BearPi/Hardware/LCD\lcd.c ****         delta_x = -delta_x;
 918              		.loc 1 333 0
 919 008a 4FF0FF33 		mov	r3, #-1
 920              	.LVL96:
 921 008e 0093     		str	r3, [sp]
 922 0090 C8E7     		b	.L63
 923              	.LVL97:
 924              	.L71:
 329:C:/Users/lenovo/Desktop/liteos/Project2/BearPi_LiteOS/targets/STM32L431_BearPi/Hardware/LCD\lcd.c **** 
 925              		.loc 1 329 0
 926 0092 CDF80080 		str	r8, [sp]
 927 0096 C5E7     		b	.L63
 928              	.LVL98:
 929              	.L78:
 339:C:/Users/lenovo/Desktop/liteos/Project2/BearPi_LiteOS/targets/STM32L431_BearPi/Hardware/LCD\lcd.c **** 
 930              		.loc 1 339 0
 931 0098 B9F1000F 		cmp	r9, #0
 932 009c 05D0     		beq	.L73
 933              	.LVL99:
 344:C:/Users/lenovo/Desktop/liteos/Project2/BearPi_LiteOS/targets/STM32L431_BearPi/Hardware/LCD\lcd.c ****     }
 934              		.loc 1 344 0
 935 009e C9F10009 		rsb	r9, r9, #0
 936              	.LVL100:
 343:C:/Users/lenovo/Desktop/liteos/Project2/BearPi_LiteOS/targets/STM32L431_BearPi/Hardware/LCD\lcd.c ****         delta_y = -delta_y;
 937              		.loc 1 343 0
 938 00a2 4FF0FF33 		mov	r3, #-1
 939 00a6 0193     		str	r3, [sp, #4]
 940 00a8 C1E7     		b	.L64
 941              	.LVL101:
 942              	.L73:
 339:C:/Users/lenovo/Desktop/liteos/Project2/BearPi_LiteOS/targets/STM32L431_BearPi/Hardware/LCD\lcd.c **** 
 943              		.loc 1 339 0
 944 00aa CDF80490 		str	r9, [sp, #4]
 945 00ae BEE7     		b	.L64
 946              	.LVL102:
 947              	.L74:
 349:C:/Users/lenovo/Desktop/liteos/Project2/BearPi_LiteOS/targets/STM32L431_BearPi/Hardware/LCD\lcd.c **** 
 948              		.loc 1 349 0
 949 00b0 4E46     		mov	r6, r9
 950 00b2 BFE7     		b	.L65
 951              	.LVL103:
 952              	.L68:
 351:C:/Users/lenovo/Desktop/liteos/Project2/BearPi_LiteOS/targets/STM32L431_BearPi/Hardware/LCD\lcd.c ****     {
 953              		.loc 1 351 0 discriminator 2
 954 00b4 0134     		adds	r4, r4, #1
 955              	.LVL104:
 956 00b6 A4B2     		uxth	r4, r4
 957              	.LVL105:
 958              	.L66:
 351:C:/Users/lenovo/Desktop/liteos/Project2/BearPi_LiteOS/targets/STM32L431_BearPi/Hardware/LCD\lcd.c ****     {
 959              		.loc 1 351 0 is_stmt 0 discriminator 1
 960 00b8 731C     		adds	r3, r6, #1
 961 00ba 9C42     		cmp	r4, r3
ARM GAS  c:\Users\lenovo\AppData\Local\Temp\cc7gPbIA.s 			page 29


 962 00bc DDDC     		bgt	.L58
 353:C:/Users/lenovo/Desktop/liteos/Project2/BearPi_LiteOS/targets/STM32L431_BearPi/Hardware/LCD\lcd.c ****         xerr += delta_x ;
 963              		.loc 1 353 0 is_stmt 1
 964 00be 1FFA8BF1 		uxth	r1, fp
 965 00c2 1FFA8AF0 		uxth	r0, r10
 966 00c6 FFF7FEFF 		bl	LCD_Draw_Point
 967              	.LVL106:
 354:C:/Users/lenovo/Desktop/liteos/Project2/BearPi_LiteOS/targets/STM32L431_BearPi/Hardware/LCD\lcd.c ****         yerr += delta_y ;
 968              		.loc 1 354 0
 969 00ca 4744     		add	r7, r7, r8
 970              	.LVL107:
 355:C:/Users/lenovo/Desktop/liteos/Project2/BearPi_LiteOS/targets/STM32L431_BearPi/Hardware/LCD\lcd.c **** 
 971              		.loc 1 355 0
 972 00cc 4D44     		add	r5, r5, r9
 973              	.LVL108:
 357:C:/Users/lenovo/Desktop/liteos/Project2/BearPi_LiteOS/targets/STM32L431_BearPi/Hardware/LCD\lcd.c ****         {
 974              		.loc 1 357 0
 975 00ce BE42     		cmp	r6, r7
 976 00d0 02DA     		bge	.L67
 359:C:/Users/lenovo/Desktop/liteos/Project2/BearPi_LiteOS/targets/STM32L431_BearPi/Hardware/LCD\lcd.c ****             row += incx;
 977              		.loc 1 359 0
 978 00d2 BF1B     		subs	r7, r7, r6
 979              	.LVL109:
 360:C:/Users/lenovo/Desktop/liteos/Project2/BearPi_LiteOS/targets/STM32L431_BearPi/Hardware/LCD\lcd.c ****         }
 980              		.loc 1 360 0
 981 00d4 009B     		ldr	r3, [sp]
 982 00d6 9A44     		add	r10, r10, r3
 983              	.LVL110:
 984              	.L67:
 363:C:/Users/lenovo/Desktop/liteos/Project2/BearPi_LiteOS/targets/STM32L431_BearPi/Hardware/LCD\lcd.c ****         {
 985              		.loc 1 363 0
 986 00d8 AE42     		cmp	r6, r5
 987 00da EBDA     		bge	.L68
 365:C:/Users/lenovo/Desktop/liteos/Project2/BearPi_LiteOS/targets/STM32L431_BearPi/Hardware/LCD\lcd.c ****             col += incy;
 988              		.loc 1 365 0
 989 00dc AD1B     		subs	r5, r5, r6
 990              	.LVL111:
 366:C:/Users/lenovo/Desktop/liteos/Project2/BearPi_LiteOS/targets/STM32L431_BearPi/Hardware/LCD\lcd.c ****         }
 991              		.loc 1 366 0
 992 00de 019B     		ldr	r3, [sp, #4]
 993 00e0 9B44     		add	fp, fp, r3
 994              	.LVL112:
 995 00e2 E7E7     		b	.L68
 996              	.L80:
 997              		.align	2
 998              	.L79:
 999 00e4 00000000 		.word	.LANCHOR1
 1000 00e8 00000000 		.word	.LANCHOR0
 1001 00ec 00080048 		.word	1207961600
 1002              		.cfi_endproc
 1003              	.LFE145:
 1005              		.section	.text.LCD_DrawRectangle,"ax",%progbits
 1006              		.align	1
 1007              		.global	LCD_DrawRectangle
 1008              		.syntax unified
 1009              		.thumb
 1010              		.thumb_func
ARM GAS  c:\Users\lenovo\AppData\Local\Temp\cc7gPbIA.s 			page 30


 1011              		.fpu fpv4-sp-d16
 1013              	LCD_DrawRectangle:
 1014              	.LFB146:
 380:C:/Users/lenovo/Desktop/liteos/Project2/BearPi_LiteOS/targets/STM32L431_BearPi/Hardware/LCD\lcd.c ****     LCD_DrawLine(x1, y1, x2, y1);
 1015              		.loc 1 380 0
 1016              		.cfi_startproc
 1017              		@ args = 0, pretend = 0, frame = 0
 1018              		@ frame_needed = 0, uses_anonymous_args = 0
 1019              	.LVL113:
 1020 0000 F8B5     		push	{r3, r4, r5, r6, r7, lr}
 1021              	.LCFI24:
 1022              		.cfi_def_cfa_offset 24
 1023              		.cfi_offset 3, -24
 1024              		.cfi_offset 4, -20
 1025              		.cfi_offset 5, -16
 1026              		.cfi_offset 6, -12
 1027              		.cfi_offset 7, -8
 1028              		.cfi_offset 14, -4
 1029 0002 0746     		mov	r7, r0
 1030 0004 0E46     		mov	r6, r1
 1031 0006 1546     		mov	r5, r2
 1032 0008 1C46     		mov	r4, r3
 381:C:/Users/lenovo/Desktop/liteos/Project2/BearPi_LiteOS/targets/STM32L431_BearPi/Hardware/LCD\lcd.c ****     LCD_DrawLine(x1, y1, x1, y2);
 1033              		.loc 1 381 0
 1034 000a 0B46     		mov	r3, r1
 1035              	.LVL114:
 1036 000c FFF7FEFF 		bl	LCD_DrawLine
 1037              	.LVL115:
 382:C:/Users/lenovo/Desktop/liteos/Project2/BearPi_LiteOS/targets/STM32L431_BearPi/Hardware/LCD\lcd.c ****     LCD_DrawLine(x1, y2, x2, y2);
 1038              		.loc 1 382 0
 1039 0010 2346     		mov	r3, r4
 1040 0012 3A46     		mov	r2, r7
 1041 0014 3146     		mov	r1, r6
 1042 0016 3846     		mov	r0, r7
 1043 0018 FFF7FEFF 		bl	LCD_DrawLine
 1044              	.LVL116:
 383:C:/Users/lenovo/Desktop/liteos/Project2/BearPi_LiteOS/targets/STM32L431_BearPi/Hardware/LCD\lcd.c ****     LCD_DrawLine(x2, y1, x2, y2);
 1045              		.loc 1 383 0
 1046 001c 2346     		mov	r3, r4
 1047 001e 2A46     		mov	r2, r5
 1048 0020 2146     		mov	r1, r4
 1049 0022 3846     		mov	r0, r7
 1050 0024 FFF7FEFF 		bl	LCD_DrawLine
 1051              	.LVL117:
 384:C:/Users/lenovo/Desktop/liteos/Project2/BearPi_LiteOS/targets/STM32L431_BearPi/Hardware/LCD\lcd.c **** }
 1052              		.loc 1 384 0
 1053 0028 2346     		mov	r3, r4
 1054 002a 2A46     		mov	r2, r5
 1055 002c 3146     		mov	r1, r6
 1056 002e 2846     		mov	r0, r5
 1057 0030 FFF7FEFF 		bl	LCD_DrawLine
 1058              	.LVL118:
 385:C:/Users/lenovo/Desktop/liteos/Project2/BearPi_LiteOS/targets/STM32L431_BearPi/Hardware/LCD\lcd.c **** 
 1059              		.loc 1 385 0
 1060 0034 F8BD     		pop	{r3, r4, r5, r6, r7, pc}
 1061              		.cfi_endproc
 1062              	.LFE146:
ARM GAS  c:\Users\lenovo\AppData\Local\Temp\cc7gPbIA.s 			page 31


 1064              		.section	.text.LCD_Draw_Circle,"ax",%progbits
 1065              		.align	1
 1066              		.global	LCD_Draw_Circle
 1067              		.syntax unified
 1068              		.thumb
 1069              		.thumb_func
 1070              		.fpu fpv4-sp-d16
 1072              	LCD_Draw_Circle:
 1073              	.LFB147:
 396:C:/Users/lenovo/Desktop/liteos/Project2/BearPi_LiteOS/targets/STM32L431_BearPi/Hardware/LCD\lcd.c ****     int a, b;
 1074              		.loc 1 396 0
 1075              		.cfi_startproc
 1076              		@ args = 0, pretend = 0, frame = 16
 1077              		@ frame_needed = 0, uses_anonymous_args = 0
 1078              	.LVL119:
 1079 0000 2DE9F04F 		push	{r4, r5, r6, r7, r8, r9, r10, fp, lr}
 1080              	.LCFI25:
 1081              		.cfi_def_cfa_offset 36
 1082              		.cfi_offset 4, -36
 1083              		.cfi_offset 5, -32
 1084              		.cfi_offset 6, -28
 1085              		.cfi_offset 7, -24
 1086              		.cfi_offset 8, -20
 1087              		.cfi_offset 9, -16
 1088              		.cfi_offset 10, -12
 1089              		.cfi_offset 11, -8
 1090              		.cfi_offset 14, -4
 1091 0004 85B0     		sub	sp, sp, #20
 1092              	.LCFI26:
 1093              		.cfi_def_cfa_offset 56
 1094 0006 0746     		mov	r7, r0
 1095 0008 8B46     		mov	fp, r1
 1096 000a 9246     		mov	r10, r2
 1097              	.LVL120:
 401:C:/Users/lenovo/Desktop/liteos/Project2/BearPi_LiteOS/targets/STM32L431_BearPi/Hardware/LCD\lcd.c **** 
 1098              		.loc 1 401 0
 1099 000c 5300     		lsls	r3, r2, #1
 1100 000e C3F10309 		rsb	r9, r3, #3
 1101              	.LVL121:
 399:C:/Users/lenovo/Desktop/liteos/Project2/BearPi_LiteOS/targets/STM32L431_BearPi/Hardware/LCD\lcd.c ****     b = r;
 1102              		.loc 1 399 0
 1103 0012 0026     		movs	r6, #0
 403:C:/Users/lenovo/Desktop/liteos/Project2/BearPi_LiteOS/targets/STM32L431_BearPi/Hardware/LCD\lcd.c ****     {
 1104              		.loc 1 403 0
 1105 0014 09E0     		b	.L84
 1106              	.LVL122:
 1107              	.L90:
 417:C:/Users/lenovo/Desktop/liteos/Project2/BearPi_LiteOS/targets/STM32L431_BearPi/Hardware/LCD\lcd.c **** 
 1108              		.loc 1 417 0 discriminator 1
 1109 0016 B300     		lsls	r3, r6, #2
 1110 0018 0633     		adds	r3, r3, #6
 1111 001a 9944     		add	r9, r9, r3
 1112              	.LVL123:
 1113              	.L86:
 425:C:/Users/lenovo/Desktop/liteos/Project2/BearPi_LiteOS/targets/STM32L431_BearPi/Hardware/LCD\lcd.c ****     }
 1114              		.loc 1 425 0
 1115 001c 0BEB0A01 		add	r1, fp, r10
ARM GAS  c:\Users\lenovo\AppData\Local\Temp\cc7gPbIA.s 			page 32


 1116 0020 B819     		adds	r0, r7, r6
 1117 0022 89B2     		uxth	r1, r1
 1118 0024 80B2     		uxth	r0, r0
 1119 0026 FFF7FEFF 		bl	LCD_Draw_Point
 1120              	.LVL124:
 1121              	.L84:
 403:C:/Users/lenovo/Desktop/liteos/Project2/BearPi_LiteOS/targets/STM32L431_BearPi/Hardware/LCD\lcd.c ****     {
 1122              		.loc 1 403 0
 1123 002a 5645     		cmp	r6, r10
 1124 002c 4BDC     		bgt	.L89
 405:C:/Users/lenovo/Desktop/liteos/Project2/BearPi_LiteOS/targets/STM32L431_BearPi/Hardware/LCD\lcd.c ****         LCD_Draw_Point(x0 + b, y0 - a);
 1125              		.loc 1 405 0
 1126 002e 1FFA8AF5 		uxth	r5, r10
 1127 0032 7B1B     		subs	r3, r7, r5
 1128 0034 9BB2     		uxth	r3, r3
 1129 0036 B4B2     		uxth	r4, r6
 1130 0038 ABEB0408 		sub	r8, fp, r4
 1131 003c 1FFA88F8 		uxth	r8, r8
 1132 0040 4146     		mov	r1, r8
 1133 0042 0093     		str	r3, [sp]
 1134 0044 1846     		mov	r0, r3
 1135 0046 FFF7FEFF 		bl	LCD_Draw_Point
 1136              	.LVL125:
 406:C:/Users/lenovo/Desktop/liteos/Project2/BearPi_LiteOS/targets/STM32L431_BearPi/Hardware/LCD\lcd.c ****         LCD_Draw_Point(x0 - a, y0 + b);
 1137              		.loc 1 406 0
 1138 004a EB19     		adds	r3, r5, r7
 1139 004c 9AB2     		uxth	r2, r3
 1140 004e 4146     		mov	r1, r8
 1141 0050 0192     		str	r2, [sp, #4]
 1142 0052 1046     		mov	r0, r2
 1143 0054 FFF7FEFF 		bl	LCD_Draw_Point
 1144              	.LVL126:
 407:C:/Users/lenovo/Desktop/liteos/Project2/BearPi_LiteOS/targets/STM32L431_BearPi/Hardware/LCD\lcd.c ****         LCD_Draw_Point(x0 - b, y0 - a);
 1145              		.loc 1 407 0
 1146 0058 3B1B     		subs	r3, r7, r4
 1147 005a 99B2     		uxth	r1, r3
 1148 005c 0846     		mov	r0, r1
 1149 005e 05EB0B03 		add	r3, r5, fp
 1150 0062 99B2     		uxth	r1, r3
 1151 0064 0391     		str	r1, [sp, #12]
 1152 0066 0290     		str	r0, [sp, #8]
 1153 0068 FFF7FEFF 		bl	LCD_Draw_Point
 1154              	.LVL127:
 408:C:/Users/lenovo/Desktop/liteos/Project2/BearPi_LiteOS/targets/STM32L431_BearPi/Hardware/LCD\lcd.c ****         LCD_Draw_Point(x0 - a, y0 - b);
 1155              		.loc 1 408 0
 1156 006c 4146     		mov	r1, r8
 1157 006e 0098     		ldr	r0, [sp]
 1158 0070 FFF7FEFF 		bl	LCD_Draw_Point
 1159              	.LVL128:
 409:C:/Users/lenovo/Desktop/liteos/Project2/BearPi_LiteOS/targets/STM32L431_BearPi/Hardware/LCD\lcd.c ****         LCD_Draw_Point(x0 + b, y0 + a);
 1160              		.loc 1 409 0
 1161 0074 ABEB0505 		sub	r5, fp, r5
 1162 0078 ADB2     		uxth	r5, r5
 1163 007a 2946     		mov	r1, r5
 1164 007c 0298     		ldr	r0, [sp, #8]
 1165 007e FFF7FEFF 		bl	LCD_Draw_Point
 1166              	.LVL129:
ARM GAS  c:\Users\lenovo\AppData\Local\Temp\cc7gPbIA.s 			page 33


 410:C:/Users/lenovo/Desktop/liteos/Project2/BearPi_LiteOS/targets/STM32L431_BearPi/Hardware/LCD\lcd.c ****         LCD_Draw_Point(x0 + a, y0 - b);
 1167              		.loc 1 410 0
 1168 0082 04EB0B08 		add	r8, r4, fp
 1169 0086 1FFA88F8 		uxth	r8, r8
 1170 008a 4146     		mov	r1, r8
 1171 008c 0198     		ldr	r0, [sp, #4]
 1172 008e FFF7FEFF 		bl	LCD_Draw_Point
 1173              	.LVL130:
 411:C:/Users/lenovo/Desktop/liteos/Project2/BearPi_LiteOS/targets/STM32L431_BearPi/Hardware/LCD\lcd.c ****         LCD_Draw_Point(x0 + a, y0 + b);
 1174              		.loc 1 411 0
 1175 0092 3C44     		add	r4, r4, r7
 1176 0094 A4B2     		uxth	r4, r4
 1177 0096 2946     		mov	r1, r5
 1178 0098 2046     		mov	r0, r4
 1179 009a FFF7FEFF 		bl	LCD_Draw_Point
 1180              	.LVL131:
 412:C:/Users/lenovo/Desktop/liteos/Project2/BearPi_LiteOS/targets/STM32L431_BearPi/Hardware/LCD\lcd.c ****         LCD_Draw_Point(x0 - b, y0 + a);
 1181              		.loc 1 412 0
 1182 009e 0399     		ldr	r1, [sp, #12]
 1183 00a0 2046     		mov	r0, r4
 1184 00a2 FFF7FEFF 		bl	LCD_Draw_Point
 1185              	.LVL132:
 413:C:/Users/lenovo/Desktop/liteos/Project2/BearPi_LiteOS/targets/STM32L431_BearPi/Hardware/LCD\lcd.c ****         a++;
 1186              		.loc 1 413 0
 1187 00a6 4146     		mov	r1, r8
 1188 00a8 0098     		ldr	r0, [sp]
 1189 00aa FFF7FEFF 		bl	LCD_Draw_Point
 1190              	.LVL133:
 414:C:/Users/lenovo/Desktop/liteos/Project2/BearPi_LiteOS/targets/STM32L431_BearPi/Hardware/LCD\lcd.c **** 
 1191              		.loc 1 414 0
 1192 00ae 0136     		adds	r6, r6, #1
 1193              	.LVL134:
 417:C:/Users/lenovo/Desktop/liteos/Project2/BearPi_LiteOS/targets/STM32L431_BearPi/Hardware/LCD\lcd.c **** 
 1194              		.loc 1 417 0
 1195 00b0 B9F1000F 		cmp	r9, #0
 1196 00b4 AFDB     		blt	.L90
 421:C:/Users/lenovo/Desktop/liteos/Project2/BearPi_LiteOS/targets/STM32L431_BearPi/Hardware/LCD\lcd.c ****             b--;
 1197              		.loc 1 421 0
 1198 00b6 A6EB0A03 		sub	r3, r6, r10
 1199 00ba 9B00     		lsls	r3, r3, #2
 1200 00bc 0A33     		adds	r3, r3, #10
 1201 00be 9944     		add	r9, r9, r3
 1202              	.LVL135:
 422:C:/Users/lenovo/Desktop/liteos/Project2/BearPi_LiteOS/targets/STM32L431_BearPi/Hardware/LCD\lcd.c ****         }
 1203              		.loc 1 422 0
 1204 00c0 0AF1FF3A 		add	r10, r10, #-1
 1205              	.LVL136:
 1206 00c4 AAE7     		b	.L86
 1207              	.L89:
 427:C:/Users/lenovo/Desktop/liteos/Project2/BearPi_LiteOS/targets/STM32L431_BearPi/Hardware/LCD\lcd.c **** 
 1208              		.loc 1 427 0
 1209 00c6 05B0     		add	sp, sp, #20
 1210              	.LCFI27:
 1211              		.cfi_def_cfa_offset 36
 1212              		@ sp needed
 1213 00c8 BDE8F08F 		pop	{r4, r5, r6, r7, r8, r9, r10, fp, pc}
 1214              		.cfi_endproc
ARM GAS  c:\Users\lenovo\AppData\Local\Temp\cc7gPbIA.s 			page 34


 1215              	.LFE147:
 1217              		.section	.text.LCD_ShowChar,"ax",%progbits
 1218              		.align	1
 1219              		.global	LCD_ShowChar
 1220              		.syntax unified
 1221              		.thumb
 1222              		.thumb_func
 1223              		.fpu fpv4-sp-d16
 1225              	LCD_ShowChar:
 1226              	.LFB148:
 439:C:/Users/lenovo/Desktop/liteos/Project2/BearPi_LiteOS/targets/STM32L431_BearPi/Hardware/LCD\lcd.c ****     uint8_t temp, t1, t;
 1227              		.loc 1 439 0
 1228              		.cfi_startproc
 1229              		@ args = 0, pretend = 0, frame = 0
 1230              		@ frame_needed = 0, uses_anonymous_args = 0
 1231              	.LVL137:
 1232 0000 2DE9F843 		push	{r3, r4, r5, r6, r7, r8, r9, lr}
 1233              	.LCFI28:
 1234              		.cfi_def_cfa_offset 32
 1235              		.cfi_offset 3, -32
 1236              		.cfi_offset 4, -28
 1237              		.cfi_offset 5, -24
 1238              		.cfi_offset 6, -20
 1239              		.cfi_offset 7, -16
 1240              		.cfi_offset 8, -12
 1241              		.cfi_offset 9, -8
 1242              		.cfi_offset 14, -4
 445:C:/Users/lenovo/Desktop/liteos/Project2/BearPi_LiteOS/targets/STM32L431_BearPi/Hardware/LCD\lcd.c **** 
 1243              		.loc 1 445 0
 1244 0004 203A     		subs	r2, r2, #32
 1245              	.LVL138:
 1246 0006 5FFA82F8 		uxtb	r8, r2
 1247              	.LVL139:
 447:C:/Users/lenovo/Desktop/liteos/Project2/BearPi_LiteOS/targets/STM32L431_BearPi/Hardware/LCD\lcd.c **** 
 1248              		.loc 1 447 0
 1249 000a 5C08     		lsrs	r4, r3, #1
 1250 000c C4F1F002 		rsb	r2, r4, #240
 1251 0010 9042     		cmp	r0, r2
 1252 0012 03DC     		bgt	.L91
 447:C:/Users/lenovo/Desktop/liteos/Project2/BearPi_LiteOS/targets/STM32L431_BearPi/Hardware/LCD\lcd.c **** 
 1253              		.loc 1 447 0 is_stmt 0 discriminator 1
 1254 0014 C3F1F002 		rsb	r2, r3, #240
 1255 0018 9142     		cmp	r1, r2
 1256 001a 01DD     		ble	.L120
 1257              	.LVL140:
 1258              	.L91:
 518:C:/Users/lenovo/Desktop/liteos/Project2/BearPi_LiteOS/targets/STM32L431_BearPi/Hardware/LCD\lcd.c **** 
 1259              		.loc 1 518 0 is_stmt 1
 1260 001c BDE8F883 		pop	{r3, r4, r5, r6, r7, r8, r9, pc}
 1261              	.LVL141:
 1262              	.L120:
 1263 0020 1E46     		mov	r6, r3
 449:C:/Users/lenovo/Desktop/liteos/Project2/BearPi_LiteOS/targets/STM32L431_BearPi/Hardware/LCD\lcd.c **** 
 1264              		.loc 1 449 0
 1265 0022 0219     		adds	r2, r0, r4
 1266 0024 92B2     		uxth	r2, r2
 1267 0026 CB18     		adds	r3, r1, r3
ARM GAS  c:\Users\lenovo\AppData\Local\Temp\cc7gPbIA.s 			page 35


 1268              	.LVL142:
 1269 0028 9BB2     		uxth	r3, r3
 1270 002a 013B     		subs	r3, r3, #1
 1271 002c 013A     		subs	r2, r2, #1
 1272 002e 9BB2     		uxth	r3, r3
 1273 0030 92B2     		uxth	r2, r2
 1274 0032 FFF7FEFF 		bl	LCD_Address_Set
 1275              	.LVL143:
 451:C:/Users/lenovo/Desktop/liteos/Project2/BearPi_LiteOS/targets/STM32L431_BearPi/Hardware/LCD\lcd.c ****     {
 1276              		.loc 1 451 0
 1277 0036 102E     		cmp	r6, #16
 1278 0038 0BD0     		beq	.L93
 451:C:/Users/lenovo/Desktop/liteos/Project2/BearPi_LiteOS/targets/STM32L431_BearPi/Hardware/LCD\lcd.c ****     {
 1279              		.loc 1 451 0 is_stmt 0 discriminator 1
 1280 003a 202E     		cmp	r6, #32
 1281 003c 09D0     		beq	.L93
 475:C:/Users/lenovo/Desktop/liteos/Project2/BearPi_LiteOS/targets/STM32L431_BearPi/Hardware/LCD\lcd.c **** 	{
 1282              		.loc 1 475 0 is_stmt 1
 1283 003e 0C2E     		cmp	r6, #12
 1284 0040 36D0     		beq	.L121
 495:C:/Users/lenovo/Desktop/liteos/Project2/BearPi_LiteOS/targets/STM32L431_BearPi/Hardware/LCD\lcd.c ****     {
 1285              		.loc 1 495 0
 1286 0042 182E     		cmp	r6, #24
 1287 0044 EAD1     		bne	.L91
 497:C:/Users/lenovo/Desktop/liteos/Project2/BearPi_LiteOS/targets/STM32L431_BearPi/Hardware/LCD\lcd.c **** 
 1288              		.loc 1 497 0
 1289 0046 3601     		lsls	r6, r6, #4
 1290 0048 C6F3C706 		ubfx	r6, r6, #3, #8
 1291              	.LVL144:
 499:C:/Users/lenovo/Desktop/liteos/Project2/BearPi_LiteOS/targets/STM32L431_BearPi/Hardware/LCD\lcd.c ****         {
 1292              		.loc 1 499 0
 1293 004c 4FF00009 		mov	r9, #0
 1294 0050 6BE0     		b	.L111
 1295              	.LVL145:
 1296              	.L93:
 453:C:/Users/lenovo/Desktop/liteos/Project2/BearPi_LiteOS/targets/STM32L431_BearPi/Hardware/LCD\lcd.c **** 
 1297              		.loc 1 453 0
 1298 0052 16F00703 		ands	r3, r6, #7
 1299 0056 18BF     		it	ne
 1300 0058 0123     		movne	r3, #1
 1301 005a 03EBD603 		add	r3, r3, r6, lsr #3
 1302 005e 13FB04F4 		smulbb	r4, r3, r4
 1303 0062 5FFA84F9 		uxtb	r9, r4
 1304              	.LVL146:
 455:C:/Users/lenovo/Desktop/liteos/Project2/BearPi_LiteOS/targets/STM32L431_BearPi/Hardware/LCD\lcd.c ****         {
 1305              		.loc 1 455 0
 1306 0066 0027     		movs	r7, #0
 1307 0068 16E0     		b	.L95
 1308              	.LVL147:
 1309              	.L124:
 457:C:/Users/lenovo/Desktop/liteos/Project2/BearPi_LiteOS/targets/STM32L431_BearPi/Hardware/LCD\lcd.c **** 
 1310              		.loc 1 457 0 discriminator 1
 1311 006a 384B     		ldr	r3, .L129
 1312 006c 03EB0813 		add	r3, r3, r8, lsl #4
 1313 0070 DD5D     		ldrb	r5, [r3, r7]	@ zero_extendqisi2
 1314              	.LVL148:
 1315 0072 1BE0     		b	.L98
ARM GAS  c:\Users\lenovo\AppData\Local\Temp\cc7gPbIA.s 			page 36


 1316              	.LVL149:
 1317              	.L123:
 465:C:/Users/lenovo/Desktop/liteos/Project2/BearPi_LiteOS/targets/STM32L431_BearPi/Hardware/LCD\lcd.c **** 
 1318              		.loc 1 465 0 discriminator 1
 1319 0074 364B     		ldr	r3, .L129+4
 1320 0076 1888     		ldrh	r0, [r3]
 1321              	.LVL150:
 1322              	.L100:
 469:C:/Users/lenovo/Desktop/liteos/Project2/BearPi_LiteOS/targets/STM32L431_BearPi/Hardware/LCD\lcd.c ****                 temp <<= 1;
 1323              		.loc 1 469 0 discriminator 2
 1324 0078 FFF7FEFF 		bl	LCD_Write_HalfWord
 1325              	.LVL151:
 470:C:/Users/lenovo/Desktop/liteos/Project2/BearPi_LiteOS/targets/STM32L431_BearPi/Hardware/LCD\lcd.c ****             }
 1326              		.loc 1 470 0 discriminator 2
 1327 007c 6D00     		lsls	r5, r5, #1
 1328              	.LVL152:
 1329 007e EDB2     		uxtb	r5, r5
 1330              	.LVL153:
 463:C:/Users/lenovo/Desktop/liteos/Project2/BearPi_LiteOS/targets/STM32L431_BearPi/Hardware/LCD\lcd.c ****             {
 1331              		.loc 1 463 0 discriminator 2
 1332 0080 0134     		adds	r4, r4, #1
 1333              	.LVL154:
 1334 0082 E4B2     		uxtb	r4, r4
 1335              	.LVL155:
 1336              	.L97:
 463:C:/Users/lenovo/Desktop/liteos/Project2/BearPi_LiteOS/targets/STM32L431_BearPi/Hardware/LCD\lcd.c ****             {
 1337              		.loc 1 463 0 is_stmt 0 discriminator 1
 1338 0084 072C     		cmp	r4, #7
 1339 0086 05D8     		bhi	.L122
 465:C:/Users/lenovo/Desktop/liteos/Project2/BearPi_LiteOS/targets/STM32L431_BearPi/Hardware/LCD\lcd.c **** 
 1340              		.loc 1 465 0 is_stmt 1
 1341 0088 15F0800F 		tst	r5, #128
 1342 008c F2D1     		bne	.L123
 467:C:/Users/lenovo/Desktop/liteos/Project2/BearPi_LiteOS/targets/STM32L431_BearPi/Hardware/LCD\lcd.c **** 
 1343              		.loc 1 467 0
 1344 008e 314B     		ldr	r3, .L129+8
 1345 0090 1888     		ldrh	r0, [r3]
 1346              	.LVL156:
 1347 0092 F1E7     		b	.L100
 1348              	.LVL157:
 1349              	.L122:
 455:C:/Users/lenovo/Desktop/liteos/Project2/BearPi_LiteOS/targets/STM32L431_BearPi/Hardware/LCD\lcd.c ****         {
 1350              		.loc 1 455 0 discriminator 2
 1351 0094 0137     		adds	r7, r7, #1
 1352              	.LVL158:
 1353 0096 FFB2     		uxtb	r7, r7
 1354              	.LVL159:
 1355              	.L95:
 455:C:/Users/lenovo/Desktop/liteos/Project2/BearPi_LiteOS/targets/STM32L431_BearPi/Hardware/LCD\lcd.c ****         {
 1356              		.loc 1 455 0 is_stmt 0 discriminator 1
 1357 0098 4F45     		cmp	r7, r9
 1358 009a BFD2     		bcs	.L91
 457:C:/Users/lenovo/Desktop/liteos/Project2/BearPi_LiteOS/targets/STM32L431_BearPi/Hardware/LCD\lcd.c **** 
 1359              		.loc 1 457 0 is_stmt 1
 1360 009c 102E     		cmp	r6, #16
 1361 009e E4D0     		beq	.L124
 459:C:/Users/lenovo/Desktop/liteos/Project2/BearPi_LiteOS/targets/STM32L431_BearPi/Hardware/LCD\lcd.c **** 
ARM GAS  c:\Users\lenovo\AppData\Local\Temp\cc7gPbIA.s 			page 37


 1362              		.loc 1 459 0
 1363 00a0 202E     		cmp	r6, #32
 1364 00a2 BBD1     		bne	.L91
 459:C:/Users/lenovo/Desktop/liteos/Project2/BearPi_LiteOS/targets/STM32L431_BearPi/Hardware/LCD\lcd.c **** 
 1365              		.loc 1 459 0 is_stmt 0 discriminator 1
 1366 00a4 2C4B     		ldr	r3, .L129+12
 1367 00a6 03EBC813 		add	r3, r3, r8, lsl #7
 1368 00aa DD5D     		ldrb	r5, [r3, r7]	@ zero_extendqisi2
 1369              	.LVL160:
 1370              	.L98:
 439:C:/Users/lenovo/Desktop/liteos/Project2/BearPi_LiteOS/targets/STM32L431_BearPi/Hardware/LCD\lcd.c ****     uint8_t temp, t1, t;
 1371              		.loc 1 439 0 is_stmt 1 discriminator 1
 1372 00ac 0024     		movs	r4, #0
 1373 00ae E9E7     		b	.L97
 1374              	.LVL161:
 1375              	.L121:
 477:C:/Users/lenovo/Desktop/liteos/Project2/BearPi_LiteOS/targets/STM32L431_BearPi/Hardware/LCD\lcd.c **** 
 1376              		.loc 1 477 0
 1377 00b0 16F00703 		ands	r3, r6, #7
 1378 00b4 18BF     		it	ne
 1379 00b6 0123     		movne	r3, #1
 1380 00b8 03EBD603 		add	r3, r3, r6, lsr #3
 1381 00bc 13FB04F4 		smulbb	r4, r3, r4
 1382 00c0 E7B2     		uxtb	r7, r4
 1383              	.LVL162:
 479:C:/Users/lenovo/Desktop/liteos/Project2/BearPi_LiteOS/targets/STM32L431_BearPi/Hardware/LCD\lcd.c ****         {
 1384              		.loc 1 479 0
 1385 00c2 0026     		movs	r6, #0
 1386 00c4 11E0     		b	.L104
 1387              	.LVL163:
 1388              	.L126:
 485:C:/Users/lenovo/Desktop/liteos/Project2/BearPi_LiteOS/targets/STM32L431_BearPi/Hardware/LCD\lcd.c **** 
 1389              		.loc 1 485 0 discriminator 1
 1390 00c6 224B     		ldr	r3, .L129+4
 1391 00c8 1888     		ldrh	r0, [r3]
 1392              	.LVL164:
 1393              	.L107:
 489:C:/Users/lenovo/Desktop/liteos/Project2/BearPi_LiteOS/targets/STM32L431_BearPi/Hardware/LCD\lcd.c ****                 temp <<= 1;
 1394              		.loc 1 489 0 discriminator 2
 1395 00ca FFF7FEFF 		bl	LCD_Write_HalfWord
 1396              	.LVL165:
 490:C:/Users/lenovo/Desktop/liteos/Project2/BearPi_LiteOS/targets/STM32L431_BearPi/Hardware/LCD\lcd.c ****             }
 1397              		.loc 1 490 0 discriminator 2
 1398 00ce 6D00     		lsls	r5, r5, #1
 1399              	.LVL166:
 1400 00d0 EDB2     		uxtb	r5, r5
 1401              	.LVL167:
 483:C:/Users/lenovo/Desktop/liteos/Project2/BearPi_LiteOS/targets/STM32L431_BearPi/Hardware/LCD\lcd.c ****             {
 1402              		.loc 1 483 0 discriminator 2
 1403 00d2 0134     		adds	r4, r4, #1
 1404              	.LVL168:
 1405 00d4 E4B2     		uxtb	r4, r4
 1406              	.LVL169:
 1407              	.L105:
 483:C:/Users/lenovo/Desktop/liteos/Project2/BearPi_LiteOS/targets/STM32L431_BearPi/Hardware/LCD\lcd.c ****             {
 1408              		.loc 1 483 0 is_stmt 0 discriminator 1
 1409 00d6 052C     		cmp	r4, #5
ARM GAS  c:\Users\lenovo\AppData\Local\Temp\cc7gPbIA.s 			page 38


 1410 00d8 05D8     		bhi	.L125
 485:C:/Users/lenovo/Desktop/liteos/Project2/BearPi_LiteOS/targets/STM32L431_BearPi/Hardware/LCD\lcd.c **** 
 1411              		.loc 1 485 0 is_stmt 1
 1412 00da 15F0800F 		tst	r5, #128
 1413 00de F2D1     		bne	.L126
 487:C:/Users/lenovo/Desktop/liteos/Project2/BearPi_LiteOS/targets/STM32L431_BearPi/Hardware/LCD\lcd.c **** 
 1414              		.loc 1 487 0
 1415 00e0 1C4B     		ldr	r3, .L129+8
 1416 00e2 1888     		ldrh	r0, [r3]
 1417              	.LVL170:
 1418 00e4 F1E7     		b	.L107
 1419              	.LVL171:
 1420              	.L125:
 479:C:/Users/lenovo/Desktop/liteos/Project2/BearPi_LiteOS/targets/STM32L431_BearPi/Hardware/LCD\lcd.c ****         {
 1421              		.loc 1 479 0 discriminator 2
 1422 00e6 0136     		adds	r6, r6, #1
 1423              	.LVL172:
 1424 00e8 F6B2     		uxtb	r6, r6
 1425              	.LVL173:
 1426              	.L104:
 479:C:/Users/lenovo/Desktop/liteos/Project2/BearPi_LiteOS/targets/STM32L431_BearPi/Hardware/LCD\lcd.c ****         {
 1427              		.loc 1 479 0 is_stmt 0 discriminator 1
 1428 00ea BE42     		cmp	r6, r7
 1429 00ec 96D2     		bcs	.L91
 481:C:/Users/lenovo/Desktop/liteos/Project2/BearPi_LiteOS/targets/STM32L431_BearPi/Hardware/LCD\lcd.c **** 
 1430              		.loc 1 481 0 is_stmt 1
 1431 00ee 08EB4803 		add	r3, r8, r8, lsl #1
 1432 00f2 9A00     		lsls	r2, r3, #2
 1433 00f4 194B     		ldr	r3, .L129+16
 1434 00f6 1344     		add	r3, r3, r2
 1435 00f8 9D5D     		ldrb	r5, [r3, r6]	@ zero_extendqisi2
 1436              	.LVL174:
 483:C:/Users/lenovo/Desktop/liteos/Project2/BearPi_LiteOS/targets/STM32L431_BearPi/Hardware/LCD\lcd.c ****             {
 1437              		.loc 1 483 0
 1438 00fa 0024     		movs	r4, #0
 1439 00fc EBE7     		b	.L105
 1440              	.LVL175:
 1441              	.L118:
 505:C:/Users/lenovo/Desktop/liteos/Project2/BearPi_LiteOS/targets/STM32L431_BearPi/Hardware/LCD\lcd.c **** 
 1442              		.loc 1 505 0
 1443 00fe 0427     		movs	r7, #4
 1444 0100 21E0     		b	.L112
 1445              	.LVL176:
 1446              	.L128:
 509:C:/Users/lenovo/Desktop/liteos/Project2/BearPi_LiteOS/targets/STM32L431_BearPi/Hardware/LCD\lcd.c **** 
 1447              		.loc 1 509 0 discriminator 1
 1448 0102 134B     		ldr	r3, .L129+4
 1449 0104 1888     		ldrh	r0, [r3]
 1450              	.LVL177:
 1451              	.L115:
 513:C:/Users/lenovo/Desktop/liteos/Project2/BearPi_LiteOS/targets/STM32L431_BearPi/Hardware/LCD\lcd.c ****                 temp <<= 1;
 1452              		.loc 1 513 0 discriminator 2
 1453 0106 FFF7FEFF 		bl	LCD_Write_HalfWord
 1454              	.LVL178:
 514:C:/Users/lenovo/Desktop/liteos/Project2/BearPi_LiteOS/targets/STM32L431_BearPi/Hardware/LCD\lcd.c ****             }
 1455              		.loc 1 514 0 discriminator 2
 1456 010a 6D00     		lsls	r5, r5, #1
ARM GAS  c:\Users\lenovo\AppData\Local\Temp\cc7gPbIA.s 			page 39


 1457              	.LVL179:
 1458 010c EDB2     		uxtb	r5, r5
 1459              	.LVL180:
 507:C:/Users/lenovo/Desktop/liteos/Project2/BearPi_LiteOS/targets/STM32L431_BearPi/Hardware/LCD\lcd.c ****             {
 1460              		.loc 1 507 0 discriminator 2
 1461 010e 0134     		adds	r4, r4, #1
 1462              	.LVL181:
 1463 0110 E4B2     		uxtb	r4, r4
 1464              	.LVL182:
 1465              	.L113:
 507:C:/Users/lenovo/Desktop/liteos/Project2/BearPi_LiteOS/targets/STM32L431_BearPi/Hardware/LCD\lcd.c ****             {
 1466              		.loc 1 507 0 is_stmt 0 discriminator 1
 1467 0112 BC42     		cmp	r4, r7
 1468 0114 05D2     		bcs	.L127
 509:C:/Users/lenovo/Desktop/liteos/Project2/BearPi_LiteOS/targets/STM32L431_BearPi/Hardware/LCD\lcd.c **** 
 1469              		.loc 1 509 0 is_stmt 1
 1470 0116 15F0800F 		tst	r5, #128
 1471 011a F2D1     		bne	.L128
 511:C:/Users/lenovo/Desktop/liteos/Project2/BearPi_LiteOS/targets/STM32L431_BearPi/Hardware/LCD\lcd.c **** 
 1472              		.loc 1 511 0
 1473 011c 0D4B     		ldr	r3, .L129+8
 1474 011e 1888     		ldrh	r0, [r3]
 1475              	.LVL183:
 1476 0120 F1E7     		b	.L115
 1477              	.LVL184:
 1478              	.L127:
 499:C:/Users/lenovo/Desktop/liteos/Project2/BearPi_LiteOS/targets/STM32L431_BearPi/Hardware/LCD\lcd.c ****         {
 1479              		.loc 1 499 0 discriminator 2
 1480 0122 09F10109 		add	r9, r9, #1
 1481              	.LVL185:
 1482 0126 5FFA89F9 		uxtb	r9, r9
 1483              	.LVL186:
 1484              	.L111:
 499:C:/Users/lenovo/Desktop/liteos/Project2/BearPi_LiteOS/targets/STM32L431_BearPi/Hardware/LCD\lcd.c ****         {
 1485              		.loc 1 499 0 is_stmt 0 discriminator 1
 1486 012a B145     		cmp	r9, r6
 1487 012c BFF476AF 		bcs	.L91
 501:C:/Users/lenovo/Desktop/liteos/Project2/BearPi_LiteOS/targets/STM32L431_BearPi/Hardware/LCD\lcd.c **** 
 1488              		.loc 1 501 0 is_stmt 1
 1489 0130 08EB4803 		add	r3, r8, r8, lsl #1
 1490 0134 1A01     		lsls	r2, r3, #4
 1491 0136 0A4B     		ldr	r3, .L129+20
 1492 0138 1344     		add	r3, r3, r2
 1493 013a 13F80950 		ldrb	r5, [r3, r9]	@ zero_extendqisi2
 1494              	.LVL187:
 503:C:/Users/lenovo/Desktop/liteos/Project2/BearPi_LiteOS/targets/STM32L431_BearPi/Hardware/LCD\lcd.c **** 
 1495              		.loc 1 503 0
 1496 013e 19F0010F 		tst	r9, #1
 1497 0142 DCD1     		bne	.L118
 1498 0144 0827     		movs	r7, #8
 1499              	.L112:
 1500              	.LVL188:
 507:C:/Users/lenovo/Desktop/liteos/Project2/BearPi_LiteOS/targets/STM32L431_BearPi/Hardware/LCD\lcd.c ****             {
 1501              		.loc 1 507 0
 1502 0146 0024     		movs	r4, #0
 1503 0148 E3E7     		b	.L113
 1504              	.L130:
ARM GAS  c:\Users\lenovo\AppData\Local\Temp\cc7gPbIA.s 			page 40


 1505 014a 00BF     		.align	2
 1506              	.L129:
 1507 014c 00000000 		.word	.LANCHOR2
 1508 0150 00000000 		.word	.LANCHOR1
 1509 0154 00000000 		.word	.LANCHOR3
 1510 0158 00000000 		.word	asc2_3216
 1511 015c 00000000 		.word	.LANCHOR4
 1512 0160 00000000 		.word	asc2_2412
 1513              		.cfi_endproc
 1514              	.LFE148:
 1516              		.section	.text.LCD_ShowNum,"ax",%progbits
 1517              		.align	1
 1518              		.global	LCD_ShowNum
 1519              		.syntax unified
 1520              		.thumb
 1521              		.thumb_func
 1522              		.fpu fpv4-sp-d16
 1524              	LCD_ShowNum:
 1525              	.LFB150:
 535:C:/Users/lenovo/Desktop/liteos/Project2/BearPi_LiteOS/targets/STM32L431_BearPi/Hardware/LCD\lcd.c **** 
 536:C:/Users/lenovo/Desktop/liteos/Project2/BearPi_LiteOS/targets/STM32L431_BearPi/Hardware/LCD\lcd.c **** /**
 537:C:/Users/lenovo/Desktop/liteos/Project2/BearPi_LiteOS/targets/STM32L431_BearPi/Hardware/LCD\lcd.c ****  * @brief	显示数字,高位为0不显示
 538:C:/Users/lenovo/Desktop/liteos/Project2/BearPi_LiteOS/targets/STM32L431_BearPi/Hardware/LCD\lcd.c ****  *
 539:C:/Users/lenovo/Desktop/liteos/Project2/BearPi_LiteOS/targets/STM32L431_BearPi/Hardware/LCD\lcd.c ****  * @param   x,y		起点坐标
 540:C:/Users/lenovo/Desktop/liteos/Project2/BearPi_LiteOS/targets/STM32L431_BearPi/Hardware/LCD\lcd.c ****  * @param   num		需要显示的数字,数字范围(0~4294967295)
 541:C:/Users/lenovo/Desktop/liteos/Project2/BearPi_LiteOS/targets/STM32L431_BearPi/Hardware/LCD\lcd.c ****  * @param   len		需要显示的位数
 542:C:/Users/lenovo/Desktop/liteos/Project2/BearPi_LiteOS/targets/STM32L431_BearPi/Hardware/LCD\lcd.c ****  * @param   size	字体大小
 543:C:/Users/lenovo/Desktop/liteos/Project2/BearPi_LiteOS/targets/STM32L431_BearPi/Hardware/LCD\lcd.c ****  *
 544:C:/Users/lenovo/Desktop/liteos/Project2/BearPi_LiteOS/targets/STM32L431_BearPi/Hardware/LCD\lcd.c ****  * @return  void
 545:C:/Users/lenovo/Desktop/liteos/Project2/BearPi_LiteOS/targets/STM32L431_BearPi/Hardware/LCD\lcd.c ****  */
 546:C:/Users/lenovo/Desktop/liteos/Project2/BearPi_LiteOS/targets/STM32L431_BearPi/Hardware/LCD\lcd.c **** void LCD_ShowNum(uint16_t x, uint16_t y, uint32_t num, uint8_t len, uint8_t size)
 547:C:/Users/lenovo/Desktop/liteos/Project2/BearPi_LiteOS/targets/STM32L431_BearPi/Hardware/LCD\lcd.c **** {
 1526              		.loc 1 547 0
 1527              		.cfi_startproc
 1528              		@ args = 4, pretend = 0, frame = 0
 1529              		@ frame_needed = 0, uses_anonymous_args = 0
 1530              	.LVL189:
 1531 0000 2DE9F047 		push	{r4, r5, r6, r7, r8, r9, r10, lr}
 1532              	.LCFI29:
 1533              		.cfi_def_cfa_offset 32
 1534              		.cfi_offset 4, -32
 1535              		.cfi_offset 5, -28
 1536              		.cfi_offset 6, -24
 1537              		.cfi_offset 7, -20
 1538              		.cfi_offset 8, -16
 1539              		.cfi_offset 9, -12
 1540              		.cfi_offset 10, -8
 1541              		.cfi_offset 14, -4
 1542 0004 8246     		mov	r10, r0
 1543 0006 8946     		mov	r9, r1
 1544 0008 9046     		mov	r8, r2
 1545 000a 1D46     		mov	r5, r3
 1546 000c 9DF82060 		ldrb	r6, [sp, #32]	@ zero_extendqisi2
 1547              	.LVL190:
 548:C:/Users/lenovo/Desktop/liteos/Project2/BearPi_LiteOS/targets/STM32L431_BearPi/Hardware/LCD\lcd.c ****     uint8_t t, temp;
 549:C:/Users/lenovo/Desktop/liteos/Project2/BearPi_LiteOS/targets/STM32L431_BearPi/Hardware/LCD\lcd.c ****     uint8_t enshow = 0;
 1548              		.loc 1 549 0
ARM GAS  c:\Users\lenovo\AppData\Local\Temp\cc7gPbIA.s 			page 41


 1549 0010 0027     		movs	r7, #0
 550:C:/Users/lenovo/Desktop/liteos/Project2/BearPi_LiteOS/targets/STM32L431_BearPi/Hardware/LCD\lcd.c **** 
 551:C:/Users/lenovo/Desktop/liteos/Project2/BearPi_LiteOS/targets/STM32L431_BearPi/Hardware/LCD\lcd.c ****     for(t = 0; t < len; t++)
 1550              		.loc 1 551 0
 1551 0012 3C46     		mov	r4, r7
 1552 0014 15E0     		b	.L132
 1553              	.LVL191:
 1554              	.L139:
 552:C:/Users/lenovo/Desktop/liteos/Project2/BearPi_LiteOS/targets/STM32L431_BearPi/Hardware/LCD\lcd.c ****     {
 553:C:/Users/lenovo/Desktop/liteos/Project2/BearPi_LiteOS/targets/STM32L431_BearPi/Hardware/LCD\lcd.c ****         temp = (num / LCD_Pow(10, len - t - 1)) % 10;
 554:C:/Users/lenovo/Desktop/liteos/Project2/BearPi_LiteOS/targets/STM32L431_BearPi/Hardware/LCD\lcd.c **** 
 555:C:/Users/lenovo/Desktop/liteos/Project2/BearPi_LiteOS/targets/STM32L431_BearPi/Hardware/LCD\lcd.c ****         if(enshow == 0 && t < (len - 1))
 556:C:/Users/lenovo/Desktop/liteos/Project2/BearPi_LiteOS/targets/STM32L431_BearPi/Hardware/LCD\lcd.c ****         {
 557:C:/Users/lenovo/Desktop/liteos/Project2/BearPi_LiteOS/targets/STM32L431_BearPi/Hardware/LCD\lcd.c ****             if(temp == 0)
 558:C:/Users/lenovo/Desktop/liteos/Project2/BearPi_LiteOS/targets/STM32L431_BearPi/Hardware/LCD\lcd.c ****             {
 559:C:/Users/lenovo/Desktop/liteos/Project2/BearPi_LiteOS/targets/STM32L431_BearPi/Hardware/LCD\lcd.c ****                 LCD_ShowChar(x + (size / 2)*t, y, ' ', size);
 1555              		.loc 1 559 0
 1556 0016 7008     		lsrs	r0, r6, #1
 1557 0018 00FB04A0 		mla	r0, r0, r4, r10
 1558 001c 3346     		mov	r3, r6
 1559 001e 2022     		movs	r2, #32
 1560              	.LVL192:
 1561 0020 4946     		mov	r1, r9
 1562 0022 80B2     		uxth	r0, r0
 1563 0024 FFF7FEFF 		bl	LCD_ShowChar
 1564              	.LVL193:
 560:C:/Users/lenovo/Desktop/liteos/Project2/BearPi_LiteOS/targets/STM32L431_BearPi/Hardware/LCD\lcd.c ****                 continue;
 1565              		.loc 1 560 0
 1566 0028 09E0     		b	.L134
 1567              	.LVL194:
 1568              	.L133:
 561:C:/Users/lenovo/Desktop/liteos/Project2/BearPi_LiteOS/targets/STM32L431_BearPi/Hardware/LCD\lcd.c ****             }
 562:C:/Users/lenovo/Desktop/liteos/Project2/BearPi_LiteOS/targets/STM32L431_BearPi/Hardware/LCD\lcd.c **** 
 563:C:/Users/lenovo/Desktop/liteos/Project2/BearPi_LiteOS/targets/STM32L431_BearPi/Hardware/LCD\lcd.c ****             else enshow = 1;
 564:C:/Users/lenovo/Desktop/liteos/Project2/BearPi_LiteOS/targets/STM32L431_BearPi/Hardware/LCD\lcd.c ****         }
 565:C:/Users/lenovo/Desktop/liteos/Project2/BearPi_LiteOS/targets/STM32L431_BearPi/Hardware/LCD\lcd.c **** 
 566:C:/Users/lenovo/Desktop/liteos/Project2/BearPi_LiteOS/targets/STM32L431_BearPi/Hardware/LCD\lcd.c ****         LCD_ShowChar(x + (size / 2)*t, y, temp + '0', size);
 1569              		.loc 1 566 0
 1570 002a 7008     		lsrs	r0, r6, #1
 1571 002c 3032     		adds	r2, r2, #48
 1572              	.LVL195:
 1573 002e 00FB04A0 		mla	r0, r0, r4, r10
 1574 0032 3346     		mov	r3, r6
 1575 0034 D2B2     		uxtb	r2, r2
 1576              	.LVL196:
 1577 0036 4946     		mov	r1, r9
 1578 0038 80B2     		uxth	r0, r0
 1579 003a FFF7FEFF 		bl	LCD_ShowChar
 1580              	.LVL197:
 1581              	.L134:
 551:C:/Users/lenovo/Desktop/liteos/Project2/BearPi_LiteOS/targets/STM32L431_BearPi/Hardware/LCD\lcd.c ****     {
 1582              		.loc 1 551 0 discriminator 2
 1583 003e 0134     		adds	r4, r4, #1
 1584              	.LVL198:
 1585 0040 E4B2     		uxtb	r4, r4
 1586              	.LVL199:
 1587              	.L132:
ARM GAS  c:\Users\lenovo\AppData\Local\Temp\cc7gPbIA.s 			page 42


 551:C:/Users/lenovo/Desktop/liteos/Project2/BearPi_LiteOS/targets/STM32L431_BearPi/Hardware/LCD\lcd.c ****     {
 1588              		.loc 1 551 0 is_stmt 0 discriminator 1
 1589 0042 AC42     		cmp	r4, r5
 1590 0044 1AD2     		bcs	.L138
 553:C:/Users/lenovo/Desktop/liteos/Project2/BearPi_LiteOS/targets/STM32L431_BearPi/Hardware/LCD\lcd.c **** 
 1591              		.loc 1 553 0 is_stmt 1
 1592 0046 291B     		subs	r1, r5, r4
 1593 0048 C9B2     		uxtb	r1, r1
 1594 004a 0139     		subs	r1, r1, #1
 1595 004c C9B2     		uxtb	r1, r1
 1596 004e 0A20     		movs	r0, #10
 1597 0050 FFF7FEFF 		bl	LCD_Pow
 1598              	.LVL200:
 1599 0054 B8FBF0F0 		udiv	r0, r8, r0
 1600 0058 094A     		ldr	r2, .L140
 1601 005a A2FB0032 		umull	r3, r2, r2, r0
 1602 005e D208     		lsrs	r2, r2, #3
 1603 0060 02EB8202 		add	r2, r2, r2, lsl #2
 1604 0064 5300     		lsls	r3, r2, #1
 1605 0066 C21A     		subs	r2, r0, r3
 1606 0068 D2B2     		uxtb	r2, r2
 1607              	.LVL201:
 555:C:/Users/lenovo/Desktop/liteos/Project2/BearPi_LiteOS/targets/STM32L431_BearPi/Hardware/LCD\lcd.c ****         {
 1608              		.loc 1 555 0
 1609 006a 002F     		cmp	r7, #0
 1610 006c DDD1     		bne	.L133
 555:C:/Users/lenovo/Desktop/liteos/Project2/BearPi_LiteOS/targets/STM32L431_BearPi/Hardware/LCD\lcd.c ****         {
 1611              		.loc 1 555 0 is_stmt 0 discriminator 1
 1612 006e 6B1E     		subs	r3, r5, #1
 1613 0070 9C42     		cmp	r4, r3
 1614 0072 DADA     		bge	.L133
 557:C:/Users/lenovo/Desktop/liteos/Project2/BearPi_LiteOS/targets/STM32L431_BearPi/Hardware/LCD\lcd.c ****             {
 1615              		.loc 1 557 0 is_stmt 1
 1616 0074 002A     		cmp	r2, #0
 1617 0076 CED0     		beq	.L139
 563:C:/Users/lenovo/Desktop/liteos/Project2/BearPi_LiteOS/targets/STM32L431_BearPi/Hardware/LCD\lcd.c ****         }
 1618              		.loc 1 563 0
 1619 0078 0127     		movs	r7, #1
 1620              	.LVL202:
 1621 007a D6E7     		b	.L133
 1622              	.LVL203:
 1623              	.L138:
 567:C:/Users/lenovo/Desktop/liteos/Project2/BearPi_LiteOS/targets/STM32L431_BearPi/Hardware/LCD\lcd.c ****     }
 568:C:/Users/lenovo/Desktop/liteos/Project2/BearPi_LiteOS/targets/STM32L431_BearPi/Hardware/LCD\lcd.c **** }
 1624              		.loc 1 568 0
 1625 007c BDE8F087 		pop	{r4, r5, r6, r7, r8, r9, r10, pc}
 1626              	.LVL204:
 1627              	.L141:
 1628              		.align	2
 1629              	.L140:
 1630 0080 CDCCCCCC 		.word	-858993459
 1631              		.cfi_endproc
 1632              	.LFE150:
 1634              		.section	.text.LCD_ShowxNum,"ax",%progbits
 1635              		.align	1
 1636              		.global	LCD_ShowxNum
 1637              		.syntax unified
ARM GAS  c:\Users\lenovo\AppData\Local\Temp\cc7gPbIA.s 			page 43


 1638              		.thumb
 1639              		.thumb_func
 1640              		.fpu fpv4-sp-d16
 1642              	LCD_ShowxNum:
 1643              	.LFB151:
 569:C:/Users/lenovo/Desktop/liteos/Project2/BearPi_LiteOS/targets/STM32L431_BearPi/Hardware/LCD\lcd.c **** 
 570:C:/Users/lenovo/Desktop/liteos/Project2/BearPi_LiteOS/targets/STM32L431_BearPi/Hardware/LCD\lcd.c **** 
 571:C:/Users/lenovo/Desktop/liteos/Project2/BearPi_LiteOS/targets/STM32L431_BearPi/Hardware/LCD\lcd.c **** 
 572:C:/Users/lenovo/Desktop/liteos/Project2/BearPi_LiteOS/targets/STM32L431_BearPi/Hardware/LCD\lcd.c **** /**
 573:C:/Users/lenovo/Desktop/liteos/Project2/BearPi_LiteOS/targets/STM32L431_BearPi/Hardware/LCD\lcd.c ****  * @brief	显示数字,高位为0,可以控制显示为0还是不显示
 574:C:/Users/lenovo/Desktop/liteos/Project2/BearPi_LiteOS/targets/STM32L431_BearPi/Hardware/LCD\lcd.c ****  *
 575:C:/Users/lenovo/Desktop/liteos/Project2/BearPi_LiteOS/targets/STM32L431_BearPi/Hardware/LCD\lcd.c ****  * @param   x,y		起点坐标
 576:C:/Users/lenovo/Desktop/liteos/Project2/BearPi_LiteOS/targets/STM32L431_BearPi/Hardware/LCD\lcd.c ****  * @param   num		需要显示的数字,数字范围(0~999999999)
 577:C:/Users/lenovo/Desktop/liteos/Project2/BearPi_LiteOS/targets/STM32L431_BearPi/Hardware/LCD\lcd.c ****  * @param   len		需要显示的位数
 578:C:/Users/lenovo/Desktop/liteos/Project2/BearPi_LiteOS/targets/STM32L431_BearPi/Hardware/LCD\lcd.c ****  * @param   size	字体大小
 579:C:/Users/lenovo/Desktop/liteos/Project2/BearPi_LiteOS/targets/STM32L431_BearPi/Hardware/LCD\lcd.c ****  * @param   mode	1:高位显示0		0:高位不显示
 580:C:/Users/lenovo/Desktop/liteos/Project2/BearPi_LiteOS/targets/STM32L431_BearPi/Hardware/LCD\lcd.c ****  *
 581:C:/Users/lenovo/Desktop/liteos/Project2/BearPi_LiteOS/targets/STM32L431_BearPi/Hardware/LCD\lcd.c ****  * @return  void
 582:C:/Users/lenovo/Desktop/liteos/Project2/BearPi_LiteOS/targets/STM32L431_BearPi/Hardware/LCD\lcd.c ****  */
 583:C:/Users/lenovo/Desktop/liteos/Project2/BearPi_LiteOS/targets/STM32L431_BearPi/Hardware/LCD\lcd.c **** void LCD_ShowxNum(uint16_t x, uint16_t y, uint32_t num, uint8_t len, uint8_t size, uint8_t mode)
 584:C:/Users/lenovo/Desktop/liteos/Project2/BearPi_LiteOS/targets/STM32L431_BearPi/Hardware/LCD\lcd.c **** {
 1644              		.loc 1 584 0
 1645              		.cfi_startproc
 1646              		@ args = 8, pretend = 0, frame = 0
 1647              		@ frame_needed = 0, uses_anonymous_args = 0
 1648              	.LVL205:
 1649 0000 2DE9F84F 		push	{r3, r4, r5, r6, r7, r8, r9, r10, fp, lr}
 1650              	.LCFI30:
 1651              		.cfi_def_cfa_offset 40
 1652              		.cfi_offset 3, -40
 1653              		.cfi_offset 4, -36
 1654              		.cfi_offset 5, -32
 1655              		.cfi_offset 6, -28
 1656              		.cfi_offset 7, -24
 1657              		.cfi_offset 8, -20
 1658              		.cfi_offset 9, -16
 1659              		.cfi_offset 10, -12
 1660              		.cfi_offset 11, -8
 1661              		.cfi_offset 14, -4
 1662 0004 8246     		mov	r10, r0
 1663 0006 8946     		mov	r9, r1
 1664 0008 9046     		mov	r8, r2
 1665 000a 1D46     		mov	r5, r3
 1666 000c 9DF82860 		ldrb	r6, [sp, #40]	@ zero_extendqisi2
 1667 0010 9DF82CB0 		ldrb	fp, [sp, #44]	@ zero_extendqisi2
 1668              	.LVL206:
 585:C:/Users/lenovo/Desktop/liteos/Project2/BearPi_LiteOS/targets/STM32L431_BearPi/Hardware/LCD\lcd.c ****     uint8_t t, temp;
 586:C:/Users/lenovo/Desktop/liteos/Project2/BearPi_LiteOS/targets/STM32L431_BearPi/Hardware/LCD\lcd.c ****     uint8_t enshow = 0;
 1669              		.loc 1 586 0
 1670 0014 0027     		movs	r7, #0
 587:C:/Users/lenovo/Desktop/liteos/Project2/BearPi_LiteOS/targets/STM32L431_BearPi/Hardware/LCD\lcd.c **** 
 588:C:/Users/lenovo/Desktop/liteos/Project2/BearPi_LiteOS/targets/STM32L431_BearPi/Hardware/LCD\lcd.c ****     for(t = 0; t < len; t++)
 1671              		.loc 1 588 0
 1672 0016 3C46     		mov	r4, r7
 1673 0018 22E0     		b	.L143
 1674              	.LVL207:
 1675              	.L152:
ARM GAS  c:\Users\lenovo\AppData\Local\Temp\cc7gPbIA.s 			page 44


 589:C:/Users/lenovo/Desktop/liteos/Project2/BearPi_LiteOS/targets/STM32L431_BearPi/Hardware/LCD\lcd.c ****     {
 590:C:/Users/lenovo/Desktop/liteos/Project2/BearPi_LiteOS/targets/STM32L431_BearPi/Hardware/LCD\lcd.c ****         temp = (num / LCD_Pow(10, len - t - 1)) % 10;
 591:C:/Users/lenovo/Desktop/liteos/Project2/BearPi_LiteOS/targets/STM32L431_BearPi/Hardware/LCD\lcd.c **** 
 592:C:/Users/lenovo/Desktop/liteos/Project2/BearPi_LiteOS/targets/STM32L431_BearPi/Hardware/LCD\lcd.c ****         if(enshow == 0 && t < (len - 1))
 593:C:/Users/lenovo/Desktop/liteos/Project2/BearPi_LiteOS/targets/STM32L431_BearPi/Hardware/LCD\lcd.c ****         {
 594:C:/Users/lenovo/Desktop/liteos/Project2/BearPi_LiteOS/targets/STM32L431_BearPi/Hardware/LCD\lcd.c ****             if(temp == 0)
 595:C:/Users/lenovo/Desktop/liteos/Project2/BearPi_LiteOS/targets/STM32L431_BearPi/Hardware/LCD\lcd.c ****             {
 596:C:/Users/lenovo/Desktop/liteos/Project2/BearPi_LiteOS/targets/STM32L431_BearPi/Hardware/LCD\lcd.c ****                 if(mode)LCD_ShowChar(x + (size / 2)*t, y, '0', size);
 1676              		.loc 1 596 0
 1677 001a BBF1000F 		cmp	fp, #0
 1678 001e 09D0     		beq	.L145
 1679              		.loc 1 596 0 is_stmt 0 discriminator 1
 1680 0020 7008     		lsrs	r0, r6, #1
 1681 0022 00FB04A0 		mla	r0, r0, r4, r10
 1682 0026 3346     		mov	r3, r6
 1683 0028 3022     		movs	r2, #48
 1684              	.LVL208:
 1685 002a 4946     		mov	r1, r9
 1686 002c 80B2     		uxth	r0, r0
 1687 002e FFF7FEFF 		bl	LCD_ShowChar
 1688              	.LVL209:
 1689 0032 13E0     		b	.L147
 1690              	.LVL210:
 1691              	.L145:
 597:C:/Users/lenovo/Desktop/liteos/Project2/BearPi_LiteOS/targets/STM32L431_BearPi/Hardware/LCD\lcd.c **** 
 598:C:/Users/lenovo/Desktop/liteos/Project2/BearPi_LiteOS/targets/STM32L431_BearPi/Hardware/LCD\lcd.c ****                 else
 599:C:/Users/lenovo/Desktop/liteos/Project2/BearPi_LiteOS/targets/STM32L431_BearPi/Hardware/LCD\lcd.c ****                     LCD_ShowChar(x + (size / 2)*t, y, ' ', size);
 1692              		.loc 1 599 0 is_stmt 1
 1693 0034 7008     		lsrs	r0, r6, #1
 1694 0036 00FB04A0 		mla	r0, r0, r4, r10
 1695 003a 3346     		mov	r3, r6
 1696 003c 2022     		movs	r2, #32
 1697              	.LVL211:
 1698 003e 4946     		mov	r1, r9
 1699 0040 80B2     		uxth	r0, r0
 1700 0042 FFF7FEFF 		bl	LCD_ShowChar
 1701              	.LVL212:
 600:C:/Users/lenovo/Desktop/liteos/Project2/BearPi_LiteOS/targets/STM32L431_BearPi/Hardware/LCD\lcd.c **** 
 601:C:/Users/lenovo/Desktop/liteos/Project2/BearPi_LiteOS/targets/STM32L431_BearPi/Hardware/LCD\lcd.c ****                 continue;
 1702              		.loc 1 601 0
 1703 0046 09E0     		b	.L147
 1704              	.LVL213:
 1705              	.L144:
 602:C:/Users/lenovo/Desktop/liteos/Project2/BearPi_LiteOS/targets/STM32L431_BearPi/Hardware/LCD\lcd.c ****             }
 603:C:/Users/lenovo/Desktop/liteos/Project2/BearPi_LiteOS/targets/STM32L431_BearPi/Hardware/LCD\lcd.c **** 
 604:C:/Users/lenovo/Desktop/liteos/Project2/BearPi_LiteOS/targets/STM32L431_BearPi/Hardware/LCD\lcd.c ****             else enshow = 1;
 605:C:/Users/lenovo/Desktop/liteos/Project2/BearPi_LiteOS/targets/STM32L431_BearPi/Hardware/LCD\lcd.c ****         }
 606:C:/Users/lenovo/Desktop/liteos/Project2/BearPi_LiteOS/targets/STM32L431_BearPi/Hardware/LCD\lcd.c **** 
 607:C:/Users/lenovo/Desktop/liteos/Project2/BearPi_LiteOS/targets/STM32L431_BearPi/Hardware/LCD\lcd.c ****         LCD_ShowChar(x + (size / 2)*t, y, temp + '0', size);
 1706              		.loc 1 607 0
 1707 0048 7008     		lsrs	r0, r6, #1
 1708 004a 3032     		adds	r2, r2, #48
 1709              	.LVL214:
 1710 004c 00FB04A0 		mla	r0, r0, r4, r10
 1711 0050 3346     		mov	r3, r6
 1712 0052 D2B2     		uxtb	r2, r2
 1713              	.LVL215:
ARM GAS  c:\Users\lenovo\AppData\Local\Temp\cc7gPbIA.s 			page 45


 1714 0054 4946     		mov	r1, r9
 1715 0056 80B2     		uxth	r0, r0
 1716 0058 FFF7FEFF 		bl	LCD_ShowChar
 1717              	.LVL216:
 1718              	.L147:
 588:C:/Users/lenovo/Desktop/liteos/Project2/BearPi_LiteOS/targets/STM32L431_BearPi/Hardware/LCD\lcd.c ****     {
 1719              		.loc 1 588 0 discriminator 2
 1720 005c 0134     		adds	r4, r4, #1
 1721              	.LVL217:
 1722 005e E4B2     		uxtb	r4, r4
 1723              	.LVL218:
 1724              	.L143:
 588:C:/Users/lenovo/Desktop/liteos/Project2/BearPi_LiteOS/targets/STM32L431_BearPi/Hardware/LCD\lcd.c ****     {
 1725              		.loc 1 588 0 is_stmt 0 discriminator 1
 1726 0060 AC42     		cmp	r4, r5
 1727 0062 1AD2     		bcs	.L151
 590:C:/Users/lenovo/Desktop/liteos/Project2/BearPi_LiteOS/targets/STM32L431_BearPi/Hardware/LCD\lcd.c **** 
 1728              		.loc 1 590 0 is_stmt 1
 1729 0064 291B     		subs	r1, r5, r4
 1730 0066 C9B2     		uxtb	r1, r1
 1731 0068 0139     		subs	r1, r1, #1
 1732 006a C9B2     		uxtb	r1, r1
 1733 006c 0A20     		movs	r0, #10
 1734 006e FFF7FEFF 		bl	LCD_Pow
 1735              	.LVL219:
 1736 0072 B8FBF0F0 		udiv	r0, r8, r0
 1737 0076 0A4A     		ldr	r2, .L153
 1738 0078 A2FB0032 		umull	r3, r2, r2, r0
 1739 007c D208     		lsrs	r2, r2, #3
 1740 007e 02EB8202 		add	r2, r2, r2, lsl #2
 1741 0082 5300     		lsls	r3, r2, #1
 1742 0084 C21A     		subs	r2, r0, r3
 1743 0086 D2B2     		uxtb	r2, r2
 1744              	.LVL220:
 592:C:/Users/lenovo/Desktop/liteos/Project2/BearPi_LiteOS/targets/STM32L431_BearPi/Hardware/LCD\lcd.c ****         {
 1745              		.loc 1 592 0
 1746 0088 002F     		cmp	r7, #0
 1747 008a DDD1     		bne	.L144
 592:C:/Users/lenovo/Desktop/liteos/Project2/BearPi_LiteOS/targets/STM32L431_BearPi/Hardware/LCD\lcd.c ****         {
 1748              		.loc 1 592 0 is_stmt 0 discriminator 1
 1749 008c 6B1E     		subs	r3, r5, #1
 1750 008e 9C42     		cmp	r4, r3
 1751 0090 DADA     		bge	.L144
 594:C:/Users/lenovo/Desktop/liteos/Project2/BearPi_LiteOS/targets/STM32L431_BearPi/Hardware/LCD\lcd.c ****             {
 1752              		.loc 1 594 0 is_stmt 1
 1753 0092 002A     		cmp	r2, #0
 1754 0094 C1D0     		beq	.L152
 604:C:/Users/lenovo/Desktop/liteos/Project2/BearPi_LiteOS/targets/STM32L431_BearPi/Hardware/LCD\lcd.c ****         }
 1755              		.loc 1 604 0
 1756 0096 0127     		movs	r7, #1
 1757              	.LVL221:
 1758 0098 D6E7     		b	.L144
 1759              	.LVL222:
 1760              	.L151:
 608:C:/Users/lenovo/Desktop/liteos/Project2/BearPi_LiteOS/targets/STM32L431_BearPi/Hardware/LCD\lcd.c ****     }
 609:C:/Users/lenovo/Desktop/liteos/Project2/BearPi_LiteOS/targets/STM32L431_BearPi/Hardware/LCD\lcd.c **** }
 1761              		.loc 1 609 0
ARM GAS  c:\Users\lenovo\AppData\Local\Temp\cc7gPbIA.s 			page 46


 1762 009a BDE8F88F 		pop	{r3, r4, r5, r6, r7, r8, r9, r10, fp, pc}
 1763              	.LVL223:
 1764              	.L154:
 1765 009e 00BF     		.align	2
 1766              	.L153:
 1767 00a0 CDCCCCCC 		.word	-858993459
 1768              		.cfi_endproc
 1769              	.LFE151:
 1771              		.section	.text.LCD_ShowString,"ax",%progbits
 1772              		.align	1
 1773              		.global	LCD_ShowString
 1774              		.syntax unified
 1775              		.thumb
 1776              		.thumb_func
 1777              		.fpu fpv4-sp-d16
 1779              	LCD_ShowString:
 1780              	.LFB152:
 610:C:/Users/lenovo/Desktop/liteos/Project2/BearPi_LiteOS/targets/STM32L431_BearPi/Hardware/LCD\lcd.c **** 
 611:C:/Users/lenovo/Desktop/liteos/Project2/BearPi_LiteOS/targets/STM32L431_BearPi/Hardware/LCD\lcd.c **** 
 612:C:/Users/lenovo/Desktop/liteos/Project2/BearPi_LiteOS/targets/STM32L431_BearPi/Hardware/LCD\lcd.c **** /**
 613:C:/Users/lenovo/Desktop/liteos/Project2/BearPi_LiteOS/targets/STM32L431_BearPi/Hardware/LCD\lcd.c ****  * @brief	显示字符串
 614:C:/Users/lenovo/Desktop/liteos/Project2/BearPi_LiteOS/targets/STM32L431_BearPi/Hardware/LCD\lcd.c ****  *
 615:C:/Users/lenovo/Desktop/liteos/Project2/BearPi_LiteOS/targets/STM32L431_BearPi/Hardware/LCD\lcd.c ****  * @param   x,y		起点坐标
 616:C:/Users/lenovo/Desktop/liteos/Project2/BearPi_LiteOS/targets/STM32L431_BearPi/Hardware/LCD\lcd.c ****  * @param   width	字符显示区域宽度
 617:C:/Users/lenovo/Desktop/liteos/Project2/BearPi_LiteOS/targets/STM32L431_BearPi/Hardware/LCD\lcd.c ****  * @param   height	字符显示区域高度
 618:C:/Users/lenovo/Desktop/liteos/Project2/BearPi_LiteOS/targets/STM32L431_BearPi/Hardware/LCD\lcd.c ****  * @param   size	字体大小
 619:C:/Users/lenovo/Desktop/liteos/Project2/BearPi_LiteOS/targets/STM32L431_BearPi/Hardware/LCD\lcd.c ****  * @param   p		字符串起始地址
 620:C:/Users/lenovo/Desktop/liteos/Project2/BearPi_LiteOS/targets/STM32L431_BearPi/Hardware/LCD\lcd.c ****  *
 621:C:/Users/lenovo/Desktop/liteos/Project2/BearPi_LiteOS/targets/STM32L431_BearPi/Hardware/LCD\lcd.c ****  * @return  void
 622:C:/Users/lenovo/Desktop/liteos/Project2/BearPi_LiteOS/targets/STM32L431_BearPi/Hardware/LCD\lcd.c ****  */
 623:C:/Users/lenovo/Desktop/liteos/Project2/BearPi_LiteOS/targets/STM32L431_BearPi/Hardware/LCD\lcd.c **** void LCD_ShowString(uint16_t x, uint16_t y, uint16_t width, uint16_t height, uint8_t size, char *p)
 624:C:/Users/lenovo/Desktop/liteos/Project2/BearPi_LiteOS/targets/STM32L431_BearPi/Hardware/LCD\lcd.c **** {
 1781              		.loc 1 624 0
 1782              		.cfi_startproc
 1783              		@ args = 8, pretend = 0, frame = 0
 1784              		@ frame_needed = 0, uses_anonymous_args = 0
 1785              	.LVL224:
 1786 0000 2DE9F047 		push	{r4, r5, r6, r7, r8, r9, r10, lr}
 1787              	.LCFI31:
 1788              		.cfi_def_cfa_offset 32
 1789              		.cfi_offset 4, -32
 1790              		.cfi_offset 5, -28
 1791              		.cfi_offset 6, -24
 1792              		.cfi_offset 7, -20
 1793              		.cfi_offset 8, -16
 1794              		.cfi_offset 9, -12
 1795              		.cfi_offset 10, -8
 1796              		.cfi_offset 14, -4
 1797 0004 8246     		mov	r10, r0
 1798 0006 0D46     		mov	r5, r1
 1799 0008 9DF82070 		ldrb	r7, [sp, #32]	@ zero_extendqisi2
 1800 000c 099E     		ldr	r6, [sp, #36]
 1801              	.LVL225:
 625:C:/Users/lenovo/Desktop/liteos/Project2/BearPi_LiteOS/targets/STM32L431_BearPi/Hardware/LCD\lcd.c ****     uint8_t x0 = x;
 626:C:/Users/lenovo/Desktop/liteos/Project2/BearPi_LiteOS/targets/STM32L431_BearPi/Hardware/LCD\lcd.c ****     width += x;
 1802              		.loc 1 626 0
 1803 000e 0244     		add	r2, r2, r0
ARM GAS  c:\Users\lenovo\AppData\Local\Temp\cc7gPbIA.s 			page 47


 1804              	.LVL226:
 1805 0010 1FFA82F9 		uxth	r9, r2
 1806              	.LVL227:
 627:C:/Users/lenovo/Desktop/liteos/Project2/BearPi_LiteOS/targets/STM32L431_BearPi/Hardware/LCD\lcd.c ****     height += y;
 1807              		.loc 1 627 0
 1808 0014 0B44     		add	r3, r3, r1
 1809              	.LVL228:
 1810 0016 1FFA83F8 		uxth	r8, r3
 1811              	.LVL229:
 628:C:/Users/lenovo/Desktop/liteos/Project2/BearPi_LiteOS/targets/STM32L431_BearPi/Hardware/LCD\lcd.c **** 
 629:C:/Users/lenovo/Desktop/liteos/Project2/BearPi_LiteOS/targets/STM32L431_BearPi/Hardware/LCD\lcd.c ****     while((*p <= '~') && (*p >= ' ')) //判断是不是非法字符!
 1812              		.loc 1 629 0
 1813 001a 0446     		mov	r4, r0
 1814 001c 0AE0     		b	.L156
 1815              	.LVL230:
 1816              	.L157:
 630:C:/Users/lenovo/Desktop/liteos/Project2/BearPi_LiteOS/targets/STM32L431_BearPi/Hardware/LCD\lcd.c ****     {
 631:C:/Users/lenovo/Desktop/liteos/Project2/BearPi_LiteOS/targets/STM32L431_BearPi/Hardware/LCD\lcd.c ****         if(x >= width)
 632:C:/Users/lenovo/Desktop/liteos/Project2/BearPi_LiteOS/targets/STM32L431_BearPi/Hardware/LCD\lcd.c ****         {
 633:C:/Users/lenovo/Desktop/liteos/Project2/BearPi_LiteOS/targets/STM32L431_BearPi/Hardware/LCD\lcd.c ****             x = x0;
 634:C:/Users/lenovo/Desktop/liteos/Project2/BearPi_LiteOS/targets/STM32L431_BearPi/Hardware/LCD\lcd.c ****             y += size;
 635:C:/Users/lenovo/Desktop/liteos/Project2/BearPi_LiteOS/targets/STM32L431_BearPi/Hardware/LCD\lcd.c ****         }
 636:C:/Users/lenovo/Desktop/liteos/Project2/BearPi_LiteOS/targets/STM32L431_BearPi/Hardware/LCD\lcd.c **** 
 637:C:/Users/lenovo/Desktop/liteos/Project2/BearPi_LiteOS/targets/STM32L431_BearPi/Hardware/LCD\lcd.c ****         if(y >= height)break; //退出
 1817              		.loc 1 637 0
 1818 001e 4545     		cmp	r5, r8
 1819 0020 15D2     		bcs	.L155
 638:C:/Users/lenovo/Desktop/liteos/Project2/BearPi_LiteOS/targets/STM32L431_BearPi/Hardware/LCD\lcd.c **** 
 639:C:/Users/lenovo/Desktop/liteos/Project2/BearPi_LiteOS/targets/STM32L431_BearPi/Hardware/LCD\lcd.c ****         LCD_ShowChar(x, y, *p, size);
 1820              		.loc 1 639 0
 1821 0022 3B46     		mov	r3, r7
 1822 0024 2946     		mov	r1, r5
 1823 0026 2046     		mov	r0, r4
 1824 0028 FFF7FEFF 		bl	LCD_ShowChar
 1825              	.LVL231:
 640:C:/Users/lenovo/Desktop/liteos/Project2/BearPi_LiteOS/targets/STM32L431_BearPi/Hardware/LCD\lcd.c ****         x += size / 2;
 1826              		.loc 1 640 0
 1827 002c 04EB5704 		add	r4, r4, r7, lsr #1
 1828              	.LVL232:
 1829 0030 A4B2     		uxth	r4, r4
 1830              	.LVL233:
 641:C:/Users/lenovo/Desktop/liteos/Project2/BearPi_LiteOS/targets/STM32L431_BearPi/Hardware/LCD\lcd.c ****         p++;
 1831              		.loc 1 641 0
 1832 0032 0136     		adds	r6, r6, #1
 1833              	.LVL234:
 1834              	.L156:
 629:C:/Users/lenovo/Desktop/liteos/Project2/BearPi_LiteOS/targets/STM32L431_BearPi/Hardware/LCD\lcd.c ****     {
 1835              		.loc 1 629 0
 1836 0034 3278     		ldrb	r2, [r6]	@ zero_extendqisi2
 1837 0036 A2F12003 		sub	r3, r2, #32
 1838 003a DBB2     		uxtb	r3, r3
 1839 003c 5E2B     		cmp	r3, #94
 1840 003e 06D8     		bhi	.L155
 631:C:/Users/lenovo/Desktop/liteos/Project2/BearPi_LiteOS/targets/STM32L431_BearPi/Hardware/LCD\lcd.c ****         {
 1841              		.loc 1 631 0
 1842 0040 4C45     		cmp	r4, r9
 1843 0042 ECD3     		bcc	.L157
ARM GAS  c:\Users\lenovo\AppData\Local\Temp\cc7gPbIA.s 			page 48


 1844 0044 5FFA8AF4 		uxtb	r4, r10
 1845              	.LVL235:
 634:C:/Users/lenovo/Desktop/liteos/Project2/BearPi_LiteOS/targets/STM32L431_BearPi/Hardware/LCD\lcd.c ****         }
 1846              		.loc 1 634 0
 1847 0048 3D44     		add	r5, r5, r7
 1848              	.LVL236:
 1849 004a ADB2     		uxth	r5, r5
 1850              	.LVL237:
 1851 004c E7E7     		b	.L157
 1852              	.L155:
 642:C:/Users/lenovo/Desktop/liteos/Project2/BearPi_LiteOS/targets/STM32L431_BearPi/Hardware/LCD\lcd.c ****     }
 643:C:/Users/lenovo/Desktop/liteos/Project2/BearPi_LiteOS/targets/STM32L431_BearPi/Hardware/LCD\lcd.c **** }
 1853              		.loc 1 643 0
 1854 004e BDE8F087 		pop	{r4, r5, r6, r7, r8, r9, r10, pc}
 1855              		.cfi_endproc
 1856              	.LFE152:
 1858              		.section	.text.LCD_Show_Image,"ax",%progbits
 1859              		.align	1
 1860              		.global	LCD_Show_Image
 1861              		.syntax unified
 1862              		.thumb
 1863              		.thumb_func
 1864              		.fpu fpv4-sp-d16
 1866              	LCD_Show_Image:
 1867              	.LFB153:
 644:C:/Users/lenovo/Desktop/liteos/Project2/BearPi_LiteOS/targets/STM32L431_BearPi/Hardware/LCD\lcd.c **** 
 645:C:/Users/lenovo/Desktop/liteos/Project2/BearPi_LiteOS/targets/STM32L431_BearPi/Hardware/LCD\lcd.c **** 
 646:C:/Users/lenovo/Desktop/liteos/Project2/BearPi_LiteOS/targets/STM32L431_BearPi/Hardware/LCD\lcd.c **** /**
 647:C:/Users/lenovo/Desktop/liteos/Project2/BearPi_LiteOS/targets/STM32L431_BearPi/Hardware/LCD\lcd.c ****  * @brief	显示图片
 648:C:/Users/lenovo/Desktop/liteos/Project2/BearPi_LiteOS/targets/STM32L431_BearPi/Hardware/LCD\lcd.c ****  *
 649:C:/Users/lenovo/Desktop/liteos/Project2/BearPi_LiteOS/targets/STM32L431_BearPi/Hardware/LCD\lcd.c ****  * @remark	Image2Lcd取模方式：	C语言数据/水平扫描/16位真彩色(RGB565)/高位在前	
 650:C:/Users/lenovo/Desktop/liteos/Project2/BearPi_LiteOS/targets/STM32L431_BearPi/Hardware/LCD\lcd.c ****  *
 651:C:/Users/lenovo/Desktop/liteos/Project2/BearPi_LiteOS/targets/STM32L431_BearPi/Hardware/LCD\lcd.c ****  * @param   x,y		起点坐标
 652:C:/Users/lenovo/Desktop/liteos/Project2/BearPi_LiteOS/targets/STM32L431_BearPi/Hardware/LCD\lcd.c ****  * @param   width	图片宽度
 653:C:/Users/lenovo/Desktop/liteos/Project2/BearPi_LiteOS/targets/STM32L431_BearPi/Hardware/LCD\lcd.c ****  * @param   height	图片高度
 654:C:/Users/lenovo/Desktop/liteos/Project2/BearPi_LiteOS/targets/STM32L431_BearPi/Hardware/LCD\lcd.c ****  * @param   p		图片缓存数据起始地址
 655:C:/Users/lenovo/Desktop/liteos/Project2/BearPi_LiteOS/targets/STM32L431_BearPi/Hardware/LCD\lcd.c ****  *
 656:C:/Users/lenovo/Desktop/liteos/Project2/BearPi_LiteOS/targets/STM32L431_BearPi/Hardware/LCD\lcd.c ****  * @return  void
 657:C:/Users/lenovo/Desktop/liteos/Project2/BearPi_LiteOS/targets/STM32L431_BearPi/Hardware/LCD\lcd.c ****  */
 658:C:/Users/lenovo/Desktop/liteos/Project2/BearPi_LiteOS/targets/STM32L431_BearPi/Hardware/LCD\lcd.c **** void LCD_Show_Image(uint16_t x, uint16_t y, uint16_t width, uint16_t height, const uint8_t *p)
 659:C:/Users/lenovo/Desktop/liteos/Project2/BearPi_LiteOS/targets/STM32L431_BearPi/Hardware/LCD\lcd.c **** {
 1868              		.loc 1 659 0
 1869              		.cfi_startproc
 1870              		@ args = 4, pretend = 0, frame = 0
 1871              		@ frame_needed = 0, uses_anonymous_args = 0
 1872              	.LVL238:
 1873 0000 38B5     		push	{r3, r4, r5, lr}
 1874              	.LCFI32:
 1875              		.cfi_def_cfa_offset 16
 1876              		.cfi_offset 3, -16
 1877              		.cfi_offset 4, -12
 1878              		.cfi_offset 5, -8
 1879              		.cfi_offset 14, -4
 660:C:/Users/lenovo/Desktop/liteos/Project2/BearPi_LiteOS/targets/STM32L431_BearPi/Hardware/LCD\lcd.c ****     if(x + width > LCD_Width || y + height > LCD_Height)
 1880              		.loc 1 660 0
 1881 0002 8518     		adds	r5, r0, r2
 1882 0004 F02D     		cmp	r5, #240
ARM GAS  c:\Users\lenovo\AppData\Local\Temp\cc7gPbIA.s 			page 49


 1883 0006 02DC     		bgt	.L161
 1884              		.loc 1 660 0 is_stmt 0 discriminator 1
 1885 0008 CC18     		adds	r4, r1, r3
 1886 000a F02C     		cmp	r4, #240
 1887 000c 00DD     		ble	.L165
 1888              	.LVL239:
 1889              	.L161:
 661:C:/Users/lenovo/Desktop/liteos/Project2/BearPi_LiteOS/targets/STM32L431_BearPi/Hardware/LCD\lcd.c ****     {
 662:C:/Users/lenovo/Desktop/liteos/Project2/BearPi_LiteOS/targets/STM32L431_BearPi/Hardware/LCD\lcd.c ****         return;
 663:C:/Users/lenovo/Desktop/liteos/Project2/BearPi_LiteOS/targets/STM32L431_BearPi/Hardware/LCD\lcd.c ****     }
 664:C:/Users/lenovo/Desktop/liteos/Project2/BearPi_LiteOS/targets/STM32L431_BearPi/Hardware/LCD\lcd.c **** 
 665:C:/Users/lenovo/Desktop/liteos/Project2/BearPi_LiteOS/targets/STM32L431_BearPi/Hardware/LCD\lcd.c ****     LCD_Address_Set(x, y, x + width - 1, y + height - 1);
 666:C:/Users/lenovo/Desktop/liteos/Project2/BearPi_LiteOS/targets/STM32L431_BearPi/Hardware/LCD\lcd.c **** 
 667:C:/Users/lenovo/Desktop/liteos/Project2/BearPi_LiteOS/targets/STM32L431_BearPi/Hardware/LCD\lcd.c ****     LCD_DC(1);
 668:C:/Users/lenovo/Desktop/liteos/Project2/BearPi_LiteOS/targets/STM32L431_BearPi/Hardware/LCD\lcd.c **** 
 669:C:/Users/lenovo/Desktop/liteos/Project2/BearPi_LiteOS/targets/STM32L431_BearPi/Hardware/LCD\lcd.c **** 	if(width * height*2>65535)
 670:C:/Users/lenovo/Desktop/liteos/Project2/BearPi_LiteOS/targets/STM32L431_BearPi/Hardware/LCD\lcd.c **** 	{
 671:C:/Users/lenovo/Desktop/liteos/Project2/BearPi_LiteOS/targets/STM32L431_BearPi/Hardware/LCD\lcd.c **** 		LCD_SPI_Send((uint8_t *)p, 65535);
 672:C:/Users/lenovo/Desktop/liteos/Project2/BearPi_LiteOS/targets/STM32L431_BearPi/Hardware/LCD\lcd.c **** 		LCD_SPI_Send((uint8_t *)(p+65535), width*height*2-65535);
 673:C:/Users/lenovo/Desktop/liteos/Project2/BearPi_LiteOS/targets/STM32L431_BearPi/Hardware/LCD\lcd.c **** 	}
 674:C:/Users/lenovo/Desktop/liteos/Project2/BearPi_LiteOS/targets/STM32L431_BearPi/Hardware/LCD\lcd.c **** 	else
 675:C:/Users/lenovo/Desktop/liteos/Project2/BearPi_LiteOS/targets/STM32L431_BearPi/Hardware/LCD\lcd.c **** 	{
 676:C:/Users/lenovo/Desktop/liteos/Project2/BearPi_LiteOS/targets/STM32L431_BearPi/Hardware/LCD\lcd.c **** 		LCD_SPI_Send((uint8_t *)p, width * height * 2);
 677:C:/Users/lenovo/Desktop/liteos/Project2/BearPi_LiteOS/targets/STM32L431_BearPi/Hardware/LCD\lcd.c **** 	}
 678:C:/Users/lenovo/Desktop/liteos/Project2/BearPi_LiteOS/targets/STM32L431_BearPi/Hardware/LCD\lcd.c **** }
 1890              		.loc 1 678 0 is_stmt 1
 1891 000e 38BD     		pop	{r3, r4, r5, pc}
 1892              	.LVL240:
 1893              	.L165:
 1894 0010 1D46     		mov	r5, r3
 1895 0012 1446     		mov	r4, r2
 665:C:/Users/lenovo/Desktop/liteos/Project2/BearPi_LiteOS/targets/STM32L431_BearPi/Hardware/LCD\lcd.c **** 
 1896              		.loc 1 665 0
 1897 0014 8218     		adds	r2, r0, r2
 1898              	.LVL241:
 1899 0016 92B2     		uxth	r2, r2
 1900 0018 CB18     		adds	r3, r1, r3
 1901              	.LVL242:
 1902 001a 9BB2     		uxth	r3, r3
 1903 001c 013B     		subs	r3, r3, #1
 1904 001e 013A     		subs	r2, r2, #1
 1905 0020 9BB2     		uxth	r3, r3
 1906 0022 92B2     		uxth	r2, r2
 1907 0024 FFF7FEFF 		bl	LCD_Address_Set
 1908              	.LVL243:
 667:C:/Users/lenovo/Desktop/liteos/Project2/BearPi_LiteOS/targets/STM32L431_BearPi/Hardware/LCD\lcd.c **** 
 1909              		.loc 1 667 0
 1910 0028 0122     		movs	r2, #1
 1911 002a 4021     		movs	r1, #64
 1912 002c 1048     		ldr	r0, .L167
 1913 002e FFF7FEFF 		bl	HAL_GPIO_WritePin
 1914              	.LVL244:
 669:C:/Users/lenovo/Desktop/liteos/Project2/BearPi_LiteOS/targets/STM32L431_BearPi/Hardware/LCD\lcd.c **** 	{
 1915              		.loc 1 669 0
 1916 0032 05FB04F3 		mul	r3, r5, r4
 1917 0036 5B00     		lsls	r3, r3, #1
 1918 0038 B3F5803F 		cmp	r3, #65536
ARM GAS  c:\Users\lenovo\AppData\Local\Temp\cc7gPbIA.s 			page 50


 1919 003c 07DA     		bge	.L166
 676:C:/Users/lenovo/Desktop/liteos/Project2/BearPi_LiteOS/targets/STM32L431_BearPi/Hardware/LCD\lcd.c **** 	}
 1920              		.loc 1 676 0
 1921 003e 14FB05F1 		smulbb	r1, r4, r5
 1922 0042 4900     		lsls	r1, r1, #1
 1923 0044 89B2     		uxth	r1, r1
 1924 0046 0498     		ldr	r0, [sp, #16]
 1925 0048 FFF7FEFF 		bl	LCD_SPI_Send
 1926              	.LVL245:
 1927 004c DFE7     		b	.L161
 1928              	.L166:
 671:C:/Users/lenovo/Desktop/liteos/Project2/BearPi_LiteOS/targets/STM32L431_BearPi/Hardware/LCD\lcd.c **** 		LCD_SPI_Send((uint8_t *)(p+65535), width*height*2-65535);
 1929              		.loc 1 671 0
 1930 004e 4FF6FF71 		movw	r1, #65535
 1931 0052 0498     		ldr	r0, [sp, #16]
 1932 0054 FFF7FEFF 		bl	LCD_SPI_Send
 1933              	.LVL246:
 672:C:/Users/lenovo/Desktop/liteos/Project2/BearPi_LiteOS/targets/STM32L431_BearPi/Hardware/LCD\lcd.c **** 	}
 1934              		.loc 1 672 0
 1935 0058 14FB05F1 		smulbb	r1, r4, r5
 1936 005c 4900     		lsls	r1, r1, #1
 1937 005e 0131     		adds	r1, r1, #1
 1938 0060 89B2     		uxth	r1, r1
 1939 0062 049B     		ldr	r3, [sp, #16]
 1940 0064 03F57F40 		add	r0, r3, #65280
 1941 0068 FF30     		adds	r0, r0, #255
 1942 006a FFF7FEFF 		bl	LCD_SPI_Send
 1943              	.LVL247:
 1944 006e CEE7     		b	.L161
 1945              	.L168:
 1946              		.align	2
 1947              	.L167:
 1948 0070 00080048 		.word	1207961600
 1949              		.cfi_endproc
 1950              	.LFE153:
 1952              		.section	.text.LCD_Init,"ax",%progbits
 1953              		.align	1
 1954              		.global	LCD_Init
 1955              		.syntax unified
 1956              		.thumb
 1957              		.thumb_func
 1958              		.fpu fpv4-sp-d16
 1960              	LCD_Init:
 1961              	.LFB154:
 679:C:/Users/lenovo/Desktop/liteos/Project2/BearPi_LiteOS/targets/STM32L431_BearPi/Hardware/LCD\lcd.c **** 
 680:C:/Users/lenovo/Desktop/liteos/Project2/BearPi_LiteOS/targets/STM32L431_BearPi/Hardware/LCD\lcd.c **** 
 681:C:/Users/lenovo/Desktop/liteos/Project2/BearPi_LiteOS/targets/STM32L431_BearPi/Hardware/LCD\lcd.c **** /**
 682:C:/Users/lenovo/Desktop/liteos/Project2/BearPi_LiteOS/targets/STM32L431_BearPi/Hardware/LCD\lcd.c ****  * @brief	LCD初始化
 683:C:/Users/lenovo/Desktop/liteos/Project2/BearPi_LiteOS/targets/STM32L431_BearPi/Hardware/LCD\lcd.c ****  *
 684:C:/Users/lenovo/Desktop/liteos/Project2/BearPi_LiteOS/targets/STM32L431_BearPi/Hardware/LCD\lcd.c ****  * @param   void
 685:C:/Users/lenovo/Desktop/liteos/Project2/BearPi_LiteOS/targets/STM32L431_BearPi/Hardware/LCD\lcd.c ****  *
 686:C:/Users/lenovo/Desktop/liteos/Project2/BearPi_LiteOS/targets/STM32L431_BearPi/Hardware/LCD\lcd.c ****  * @return  void
 687:C:/Users/lenovo/Desktop/liteos/Project2/BearPi_LiteOS/targets/STM32L431_BearPi/Hardware/LCD\lcd.c ****  */
 688:C:/Users/lenovo/Desktop/liteos/Project2/BearPi_LiteOS/targets/STM32L431_BearPi/Hardware/LCD\lcd.c **** void LCD_Init(void)
 689:C:/Users/lenovo/Desktop/liteos/Project2/BearPi_LiteOS/targets/STM32L431_BearPi/Hardware/LCD\lcd.c **** {
 1962              		.loc 1 689 0
 1963              		.cfi_startproc
ARM GAS  c:\Users\lenovo\AppData\Local\Temp\cc7gPbIA.s 			page 51


 1964              		@ args = 0, pretend = 0, frame = 0
 1965              		@ frame_needed = 0, uses_anonymous_args = 0
 1966 0000 08B5     		push	{r3, lr}
 1967              	.LCFI33:
 1968              		.cfi_def_cfa_offset 8
 1969              		.cfi_offset 3, -8
 1970              		.cfi_offset 14, -4
 690:C:/Users/lenovo/Desktop/liteos/Project2/BearPi_LiteOS/targets/STM32L431_BearPi/Hardware/LCD\lcd.c ****     LCD_Gpio_Init();	//硬件接口初始化
 1971              		.loc 1 690 0
 1972 0002 FFF7FEFF 		bl	LCD_Gpio_Init
 1973              	.LVL248:
 691:C:/Users/lenovo/Desktop/liteos/Project2/BearPi_LiteOS/targets/STM32L431_BearPi/Hardware/LCD\lcd.c **** 
 692:C:/Users/lenovo/Desktop/liteos/Project2/BearPi_LiteOS/targets/STM32L431_BearPi/Hardware/LCD\lcd.c ****     delay10ms(12);
 1974              		.loc 1 692 0
 1975 0006 0C20     		movs	r0, #12
 1976 0008 FFF7FEFF 		bl	delay10ms
 1977              	.LVL249:
 693:C:/Users/lenovo/Desktop/liteos/Project2/BearPi_LiteOS/targets/STM32L431_BearPi/Hardware/LCD\lcd.c ****     /* Sleep Out */
 694:C:/Users/lenovo/Desktop/liteos/Project2/BearPi_LiteOS/targets/STM32L431_BearPi/Hardware/LCD\lcd.c ****     LCD_Write_Cmd(0x11);
 1978              		.loc 1 694 0
 1979 000c 1120     		movs	r0, #17
 1980 000e FFF7FEFF 		bl	LCD_Write_Cmd
 1981              	.LVL250:
 695:C:/Users/lenovo/Desktop/liteos/Project2/BearPi_LiteOS/targets/STM32L431_BearPi/Hardware/LCD\lcd.c ****     /* wait for power stability */
 696:C:/Users/lenovo/Desktop/liteos/Project2/BearPi_LiteOS/targets/STM32L431_BearPi/Hardware/LCD\lcd.c ****     delay10ms(12);
 1982              		.loc 1 696 0
 1983 0012 0C20     		movs	r0, #12
 1984 0014 FFF7FEFF 		bl	delay10ms
 1985              	.LVL251:
 697:C:/Users/lenovo/Desktop/liteos/Project2/BearPi_LiteOS/targets/STM32L431_BearPi/Hardware/LCD\lcd.c **** 
 698:C:/Users/lenovo/Desktop/liteos/Project2/BearPi_LiteOS/targets/STM32L431_BearPi/Hardware/LCD\lcd.c ****     /* Memory Data Access Control */
 699:C:/Users/lenovo/Desktop/liteos/Project2/BearPi_LiteOS/targets/STM32L431_BearPi/Hardware/LCD\lcd.c ****     LCD_Write_Cmd(0x36);
 1986              		.loc 1 699 0
 1987 0018 3620     		movs	r0, #54
 1988 001a FFF7FEFF 		bl	LCD_Write_Cmd
 1989              	.LVL252:
 700:C:/Users/lenovo/Desktop/liteos/Project2/BearPi_LiteOS/targets/STM32L431_BearPi/Hardware/LCD\lcd.c ****     LCD_Write_Data(0x00);
 1990              		.loc 1 700 0
 1991 001e 0020     		movs	r0, #0
 1992 0020 FFF7FEFF 		bl	LCD_Write_Data
 1993              	.LVL253:
 701:C:/Users/lenovo/Desktop/liteos/Project2/BearPi_LiteOS/targets/STM32L431_BearPi/Hardware/LCD\lcd.c **** 
 702:C:/Users/lenovo/Desktop/liteos/Project2/BearPi_LiteOS/targets/STM32L431_BearPi/Hardware/LCD\lcd.c ****     /* RGB 5-6-5-bit  */
 703:C:/Users/lenovo/Desktop/liteos/Project2/BearPi_LiteOS/targets/STM32L431_BearPi/Hardware/LCD\lcd.c ****     LCD_Write_Cmd(0x3A);
 1994              		.loc 1 703 0
 1995 0024 3A20     		movs	r0, #58
 1996 0026 FFF7FEFF 		bl	LCD_Write_Cmd
 1997              	.LVL254:
 704:C:/Users/lenovo/Desktop/liteos/Project2/BearPi_LiteOS/targets/STM32L431_BearPi/Hardware/LCD\lcd.c ****     LCD_Write_Data(0x65);
 1998              		.loc 1 704 0
 1999 002a 6520     		movs	r0, #101
 2000 002c FFF7FEFF 		bl	LCD_Write_Data
 2001              	.LVL255:
 705:C:/Users/lenovo/Desktop/liteos/Project2/BearPi_LiteOS/targets/STM32L431_BearPi/Hardware/LCD\lcd.c **** 
 706:C:/Users/lenovo/Desktop/liteos/Project2/BearPi_LiteOS/targets/STM32L431_BearPi/Hardware/LCD\lcd.c ****     /* Porch Setting */
 707:C:/Users/lenovo/Desktop/liteos/Project2/BearPi_LiteOS/targets/STM32L431_BearPi/Hardware/LCD\lcd.c ****     LCD_Write_Cmd(0xB2);
 2002              		.loc 1 707 0
ARM GAS  c:\Users\lenovo\AppData\Local\Temp\cc7gPbIA.s 			page 52


 2003 0030 B220     		movs	r0, #178
 2004 0032 FFF7FEFF 		bl	LCD_Write_Cmd
 2005              	.LVL256:
 708:C:/Users/lenovo/Desktop/liteos/Project2/BearPi_LiteOS/targets/STM32L431_BearPi/Hardware/LCD\lcd.c ****     LCD_Write_Data(0x0C);
 2006              		.loc 1 708 0
 2007 0036 0C20     		movs	r0, #12
 2008 0038 FFF7FEFF 		bl	LCD_Write_Data
 2009              	.LVL257:
 709:C:/Users/lenovo/Desktop/liteos/Project2/BearPi_LiteOS/targets/STM32L431_BearPi/Hardware/LCD\lcd.c ****     LCD_Write_Data(0x0C);
 2010              		.loc 1 709 0
 2011 003c 0C20     		movs	r0, #12
 2012 003e FFF7FEFF 		bl	LCD_Write_Data
 2013              	.LVL258:
 710:C:/Users/lenovo/Desktop/liteos/Project2/BearPi_LiteOS/targets/STM32L431_BearPi/Hardware/LCD\lcd.c ****     LCD_Write_Data(0x00);
 2014              		.loc 1 710 0
 2015 0042 0020     		movs	r0, #0
 2016 0044 FFF7FEFF 		bl	LCD_Write_Data
 2017              	.LVL259:
 711:C:/Users/lenovo/Desktop/liteos/Project2/BearPi_LiteOS/targets/STM32L431_BearPi/Hardware/LCD\lcd.c ****     LCD_Write_Data(0x33);
 2018              		.loc 1 711 0
 2019 0048 3320     		movs	r0, #51
 2020 004a FFF7FEFF 		bl	LCD_Write_Data
 2021              	.LVL260:
 712:C:/Users/lenovo/Desktop/liteos/Project2/BearPi_LiteOS/targets/STM32L431_BearPi/Hardware/LCD\lcd.c ****     LCD_Write_Data(0x33);
 2022              		.loc 1 712 0
 2023 004e 3320     		movs	r0, #51
 2024 0050 FFF7FEFF 		bl	LCD_Write_Data
 2025              	.LVL261:
 713:C:/Users/lenovo/Desktop/liteos/Project2/BearPi_LiteOS/targets/STM32L431_BearPi/Hardware/LCD\lcd.c **** 
 714:C:/Users/lenovo/Desktop/liteos/Project2/BearPi_LiteOS/targets/STM32L431_BearPi/Hardware/LCD\lcd.c **** 
 715:C:/Users/lenovo/Desktop/liteos/Project2/BearPi_LiteOS/targets/STM32L431_BearPi/Hardware/LCD\lcd.c ****     /*  Gate Control */
 716:C:/Users/lenovo/Desktop/liteos/Project2/BearPi_LiteOS/targets/STM32L431_BearPi/Hardware/LCD\lcd.c ****     LCD_Write_Cmd(0xB7);
 2026              		.loc 1 716 0
 2027 0054 B720     		movs	r0, #183
 2028 0056 FFF7FEFF 		bl	LCD_Write_Cmd
 2029              	.LVL262:
 717:C:/Users/lenovo/Desktop/liteos/Project2/BearPi_LiteOS/targets/STM32L431_BearPi/Hardware/LCD\lcd.c ****     LCD_Write_Data(0x72);
 2030              		.loc 1 717 0
 2031 005a 7220     		movs	r0, #114
 2032 005c FFF7FEFF 		bl	LCD_Write_Data
 2033              	.LVL263:
 718:C:/Users/lenovo/Desktop/liteos/Project2/BearPi_LiteOS/targets/STM32L431_BearPi/Hardware/LCD\lcd.c **** 
 719:C:/Users/lenovo/Desktop/liteos/Project2/BearPi_LiteOS/targets/STM32L431_BearPi/Hardware/LCD\lcd.c ****     /* VCOM Setting */
 720:C:/Users/lenovo/Desktop/liteos/Project2/BearPi_LiteOS/targets/STM32L431_BearPi/Hardware/LCD\lcd.c ****     LCD_Write_Cmd(0xBB);
 2034              		.loc 1 720 0
 2035 0060 BB20     		movs	r0, #187
 2036 0062 FFF7FEFF 		bl	LCD_Write_Cmd
 2037              	.LVL264:
 721:C:/Users/lenovo/Desktop/liteos/Project2/BearPi_LiteOS/targets/STM32L431_BearPi/Hardware/LCD\lcd.c ****     LCD_Write_Data(0x3D);   //Vcom=1.625V
 2038              		.loc 1 721 0
 2039 0066 3D20     		movs	r0, #61
 2040 0068 FFF7FEFF 		bl	LCD_Write_Data
 2041              	.LVL265:
 722:C:/Users/lenovo/Desktop/liteos/Project2/BearPi_LiteOS/targets/STM32L431_BearPi/Hardware/LCD\lcd.c **** 
 723:C:/Users/lenovo/Desktop/liteos/Project2/BearPi_LiteOS/targets/STM32L431_BearPi/Hardware/LCD\lcd.c ****     /* LCM Control */
 724:C:/Users/lenovo/Desktop/liteos/Project2/BearPi_LiteOS/targets/STM32L431_BearPi/Hardware/LCD\lcd.c ****     LCD_Write_Cmd(0xC0);
 2042              		.loc 1 724 0
ARM GAS  c:\Users\lenovo\AppData\Local\Temp\cc7gPbIA.s 			page 53


 2043 006c C020     		movs	r0, #192
 2044 006e FFF7FEFF 		bl	LCD_Write_Cmd
 2045              	.LVL266:
 725:C:/Users/lenovo/Desktop/liteos/Project2/BearPi_LiteOS/targets/STM32L431_BearPi/Hardware/LCD\lcd.c ****     LCD_Write_Data(0x2C);
 2046              		.loc 1 725 0
 2047 0072 2C20     		movs	r0, #44
 2048 0074 FFF7FEFF 		bl	LCD_Write_Data
 2049              	.LVL267:
 726:C:/Users/lenovo/Desktop/liteos/Project2/BearPi_LiteOS/targets/STM32L431_BearPi/Hardware/LCD\lcd.c **** 
 727:C:/Users/lenovo/Desktop/liteos/Project2/BearPi_LiteOS/targets/STM32L431_BearPi/Hardware/LCD\lcd.c ****     /* VDV and VRH Command Enable */
 728:C:/Users/lenovo/Desktop/liteos/Project2/BearPi_LiteOS/targets/STM32L431_BearPi/Hardware/LCD\lcd.c ****     LCD_Write_Cmd(0xC2);
 2050              		.loc 1 728 0
 2051 0078 C220     		movs	r0, #194
 2052 007a FFF7FEFF 		bl	LCD_Write_Cmd
 2053              	.LVL268:
 729:C:/Users/lenovo/Desktop/liteos/Project2/BearPi_LiteOS/targets/STM32L431_BearPi/Hardware/LCD\lcd.c ****     LCD_Write_Data(0x01);
 2054              		.loc 1 729 0
 2055 007e 0120     		movs	r0, #1
 2056 0080 FFF7FEFF 		bl	LCD_Write_Data
 2057              	.LVL269:
 730:C:/Users/lenovo/Desktop/liteos/Project2/BearPi_LiteOS/targets/STM32L431_BearPi/Hardware/LCD\lcd.c **** 
 731:C:/Users/lenovo/Desktop/liteos/Project2/BearPi_LiteOS/targets/STM32L431_BearPi/Hardware/LCD\lcd.c ****     /* VRH Set */
 732:C:/Users/lenovo/Desktop/liteos/Project2/BearPi_LiteOS/targets/STM32L431_BearPi/Hardware/LCD\lcd.c ****     LCD_Write_Cmd(0xC3);
 2058              		.loc 1 732 0
 2059 0084 C320     		movs	r0, #195
 2060 0086 FFF7FEFF 		bl	LCD_Write_Cmd
 2061              	.LVL270:
 733:C:/Users/lenovo/Desktop/liteos/Project2/BearPi_LiteOS/targets/STM32L431_BearPi/Hardware/LCD\lcd.c ****     LCD_Write_Data(0x19);
 2062              		.loc 1 733 0
 2063 008a 1920     		movs	r0, #25
 2064 008c FFF7FEFF 		bl	LCD_Write_Data
 2065              	.LVL271:
 734:C:/Users/lenovo/Desktop/liteos/Project2/BearPi_LiteOS/targets/STM32L431_BearPi/Hardware/LCD\lcd.c **** 
 735:C:/Users/lenovo/Desktop/liteos/Project2/BearPi_LiteOS/targets/STM32L431_BearPi/Hardware/LCD\lcd.c ****     /* VDV Set */
 736:C:/Users/lenovo/Desktop/liteos/Project2/BearPi_LiteOS/targets/STM32L431_BearPi/Hardware/LCD\lcd.c ****     LCD_Write_Cmd(0xC4);
 2066              		.loc 1 736 0
 2067 0090 C420     		movs	r0, #196
 2068 0092 FFF7FEFF 		bl	LCD_Write_Cmd
 2069              	.LVL272:
 737:C:/Users/lenovo/Desktop/liteos/Project2/BearPi_LiteOS/targets/STM32L431_BearPi/Hardware/LCD\lcd.c ****     LCD_Write_Data(0x20);
 2070              		.loc 1 737 0
 2071 0096 2020     		movs	r0, #32
 2072 0098 FFF7FEFF 		bl	LCD_Write_Data
 2073              	.LVL273:
 738:C:/Users/lenovo/Desktop/liteos/Project2/BearPi_LiteOS/targets/STM32L431_BearPi/Hardware/LCD\lcd.c **** 
 739:C:/Users/lenovo/Desktop/liteos/Project2/BearPi_LiteOS/targets/STM32L431_BearPi/Hardware/LCD\lcd.c ****     /* Frame Rate Control in Normal Mode */
 740:C:/Users/lenovo/Desktop/liteos/Project2/BearPi_LiteOS/targets/STM32L431_BearPi/Hardware/LCD\lcd.c ****     LCD_Write_Cmd(0xC6);
 2074              		.loc 1 740 0
 2075 009c C620     		movs	r0, #198
 2076 009e FFF7FEFF 		bl	LCD_Write_Cmd
 2077              	.LVL274:
 741:C:/Users/lenovo/Desktop/liteos/Project2/BearPi_LiteOS/targets/STM32L431_BearPi/Hardware/LCD\lcd.c ****     LCD_Write_Data(0x0F);	//60MHZ
 2078              		.loc 1 741 0
 2079 00a2 0F20     		movs	r0, #15
 2080 00a4 FFF7FEFF 		bl	LCD_Write_Data
 2081              	.LVL275:
 742:C:/Users/lenovo/Desktop/liteos/Project2/BearPi_LiteOS/targets/STM32L431_BearPi/Hardware/LCD\lcd.c **** 
ARM GAS  c:\Users\lenovo\AppData\Local\Temp\cc7gPbIA.s 			page 54


 743:C:/Users/lenovo/Desktop/liteos/Project2/BearPi_LiteOS/targets/STM32L431_BearPi/Hardware/LCD\lcd.c ****     /* Power Control 1 */
 744:C:/Users/lenovo/Desktop/liteos/Project2/BearPi_LiteOS/targets/STM32L431_BearPi/Hardware/LCD\lcd.c ****     LCD_Write_Cmd(0xD0);
 2082              		.loc 1 744 0
 2083 00a8 D020     		movs	r0, #208
 2084 00aa FFF7FEFF 		bl	LCD_Write_Cmd
 2085              	.LVL276:
 745:C:/Users/lenovo/Desktop/liteos/Project2/BearPi_LiteOS/targets/STM32L431_BearPi/Hardware/LCD\lcd.c ****     LCD_Write_Data(0xA4);
 2086              		.loc 1 745 0
 2087 00ae A420     		movs	r0, #164
 2088 00b0 FFF7FEFF 		bl	LCD_Write_Data
 2089              	.LVL277:
 746:C:/Users/lenovo/Desktop/liteos/Project2/BearPi_LiteOS/targets/STM32L431_BearPi/Hardware/LCD\lcd.c ****     LCD_Write_Data(0xA1);
 2090              		.loc 1 746 0
 2091 00b4 A120     		movs	r0, #161
 2092 00b6 FFF7FEFF 		bl	LCD_Write_Data
 2093              	.LVL278:
 747:C:/Users/lenovo/Desktop/liteos/Project2/BearPi_LiteOS/targets/STM32L431_BearPi/Hardware/LCD\lcd.c **** 
 748:C:/Users/lenovo/Desktop/liteos/Project2/BearPi_LiteOS/targets/STM32L431_BearPi/Hardware/LCD\lcd.c ****     /* Positive Voltage Gamma Control */
 749:C:/Users/lenovo/Desktop/liteos/Project2/BearPi_LiteOS/targets/STM32L431_BearPi/Hardware/LCD\lcd.c ****     LCD_Write_Cmd(0xE0);
 2094              		.loc 1 749 0
 2095 00ba E020     		movs	r0, #224
 2096 00bc FFF7FEFF 		bl	LCD_Write_Cmd
 2097              	.LVL279:
 750:C:/Users/lenovo/Desktop/liteos/Project2/BearPi_LiteOS/targets/STM32L431_BearPi/Hardware/LCD\lcd.c ****     LCD_Write_Data(0xD0);
 2098              		.loc 1 750 0
 2099 00c0 D020     		movs	r0, #208
 2100 00c2 FFF7FEFF 		bl	LCD_Write_Data
 2101              	.LVL280:
 751:C:/Users/lenovo/Desktop/liteos/Project2/BearPi_LiteOS/targets/STM32L431_BearPi/Hardware/LCD\lcd.c ****     LCD_Write_Data(0x04);
 2102              		.loc 1 751 0
 2103 00c6 0420     		movs	r0, #4
 2104 00c8 FFF7FEFF 		bl	LCD_Write_Data
 2105              	.LVL281:
 752:C:/Users/lenovo/Desktop/liteos/Project2/BearPi_LiteOS/targets/STM32L431_BearPi/Hardware/LCD\lcd.c ****     LCD_Write_Data(0x0D);
 2106              		.loc 1 752 0
 2107 00cc 0D20     		movs	r0, #13
 2108 00ce FFF7FEFF 		bl	LCD_Write_Data
 2109              	.LVL282:
 753:C:/Users/lenovo/Desktop/liteos/Project2/BearPi_LiteOS/targets/STM32L431_BearPi/Hardware/LCD\lcd.c ****     LCD_Write_Data(0x11);
 2110              		.loc 1 753 0
 2111 00d2 1120     		movs	r0, #17
 2112 00d4 FFF7FEFF 		bl	LCD_Write_Data
 2113              	.LVL283:
 754:C:/Users/lenovo/Desktop/liteos/Project2/BearPi_LiteOS/targets/STM32L431_BearPi/Hardware/LCD\lcd.c ****     LCD_Write_Data(0x13);
 2114              		.loc 1 754 0
 2115 00d8 1320     		movs	r0, #19
 2116 00da FFF7FEFF 		bl	LCD_Write_Data
 2117              	.LVL284:
 755:C:/Users/lenovo/Desktop/liteos/Project2/BearPi_LiteOS/targets/STM32L431_BearPi/Hardware/LCD\lcd.c ****     LCD_Write_Data(0x2B);
 2118              		.loc 1 755 0
 2119 00de 2B20     		movs	r0, #43
 2120 00e0 FFF7FEFF 		bl	LCD_Write_Data
 2121              	.LVL285:
 756:C:/Users/lenovo/Desktop/liteos/Project2/BearPi_LiteOS/targets/STM32L431_BearPi/Hardware/LCD\lcd.c ****     LCD_Write_Data(0x3F);
 2122              		.loc 1 756 0
 2123 00e4 3F20     		movs	r0, #63
 2124 00e6 FFF7FEFF 		bl	LCD_Write_Data
ARM GAS  c:\Users\lenovo\AppData\Local\Temp\cc7gPbIA.s 			page 55


 2125              	.LVL286:
 757:C:/Users/lenovo/Desktop/liteos/Project2/BearPi_LiteOS/targets/STM32L431_BearPi/Hardware/LCD\lcd.c ****     LCD_Write_Data(0x54);
 2126              		.loc 1 757 0
 2127 00ea 5420     		movs	r0, #84
 2128 00ec FFF7FEFF 		bl	LCD_Write_Data
 2129              	.LVL287:
 758:C:/Users/lenovo/Desktop/liteos/Project2/BearPi_LiteOS/targets/STM32L431_BearPi/Hardware/LCD\lcd.c ****     LCD_Write_Data(0x4C);
 2130              		.loc 1 758 0
 2131 00f0 4C20     		movs	r0, #76
 2132 00f2 FFF7FEFF 		bl	LCD_Write_Data
 2133              	.LVL288:
 759:C:/Users/lenovo/Desktop/liteos/Project2/BearPi_LiteOS/targets/STM32L431_BearPi/Hardware/LCD\lcd.c ****     LCD_Write_Data(0x18);
 2134              		.loc 1 759 0
 2135 00f6 1820     		movs	r0, #24
 2136 00f8 FFF7FEFF 		bl	LCD_Write_Data
 2137              	.LVL289:
 760:C:/Users/lenovo/Desktop/liteos/Project2/BearPi_LiteOS/targets/STM32L431_BearPi/Hardware/LCD\lcd.c ****     LCD_Write_Data(0x0D);
 2138              		.loc 1 760 0
 2139 00fc 0D20     		movs	r0, #13
 2140 00fe FFF7FEFF 		bl	LCD_Write_Data
 2141              	.LVL290:
 761:C:/Users/lenovo/Desktop/liteos/Project2/BearPi_LiteOS/targets/STM32L431_BearPi/Hardware/LCD\lcd.c ****     LCD_Write_Data(0x0B);
 2142              		.loc 1 761 0
 2143 0102 0B20     		movs	r0, #11
 2144 0104 FFF7FEFF 		bl	LCD_Write_Data
 2145              	.LVL291:
 762:C:/Users/lenovo/Desktop/liteos/Project2/BearPi_LiteOS/targets/STM32L431_BearPi/Hardware/LCD\lcd.c ****     LCD_Write_Data(0x1F);
 2146              		.loc 1 762 0
 2147 0108 1F20     		movs	r0, #31
 2148 010a FFF7FEFF 		bl	LCD_Write_Data
 2149              	.LVL292:
 763:C:/Users/lenovo/Desktop/liteos/Project2/BearPi_LiteOS/targets/STM32L431_BearPi/Hardware/LCD\lcd.c ****     LCD_Write_Data(0x23);
 2150              		.loc 1 763 0
 2151 010e 2320     		movs	r0, #35
 2152 0110 FFF7FEFF 		bl	LCD_Write_Data
 2153              	.LVL293:
 764:C:/Users/lenovo/Desktop/liteos/Project2/BearPi_LiteOS/targets/STM32L431_BearPi/Hardware/LCD\lcd.c **** 
 765:C:/Users/lenovo/Desktop/liteos/Project2/BearPi_LiteOS/targets/STM32L431_BearPi/Hardware/LCD\lcd.c ****     /* Negative Voltage Gamma Control */
 766:C:/Users/lenovo/Desktop/liteos/Project2/BearPi_LiteOS/targets/STM32L431_BearPi/Hardware/LCD\lcd.c ****     LCD_Write_Cmd(0xE1);
 2154              		.loc 1 766 0
 2155 0114 E120     		movs	r0, #225
 2156 0116 FFF7FEFF 		bl	LCD_Write_Cmd
 2157              	.LVL294:
 767:C:/Users/lenovo/Desktop/liteos/Project2/BearPi_LiteOS/targets/STM32L431_BearPi/Hardware/LCD\lcd.c ****     LCD_Write_Data(0xD0);
 2158              		.loc 1 767 0
 2159 011a D020     		movs	r0, #208
 2160 011c FFF7FEFF 		bl	LCD_Write_Data
 2161              	.LVL295:
 768:C:/Users/lenovo/Desktop/liteos/Project2/BearPi_LiteOS/targets/STM32L431_BearPi/Hardware/LCD\lcd.c ****     LCD_Write_Data(0x04);
 2162              		.loc 1 768 0
 2163 0120 0420     		movs	r0, #4
 2164 0122 FFF7FEFF 		bl	LCD_Write_Data
 2165              	.LVL296:
 769:C:/Users/lenovo/Desktop/liteos/Project2/BearPi_LiteOS/targets/STM32L431_BearPi/Hardware/LCD\lcd.c ****     LCD_Write_Data(0x0C);
 2166              		.loc 1 769 0
 2167 0126 0C20     		movs	r0, #12
 2168 0128 FFF7FEFF 		bl	LCD_Write_Data
ARM GAS  c:\Users\lenovo\AppData\Local\Temp\cc7gPbIA.s 			page 56


 2169              	.LVL297:
 770:C:/Users/lenovo/Desktop/liteos/Project2/BearPi_LiteOS/targets/STM32L431_BearPi/Hardware/LCD\lcd.c ****     LCD_Write_Data(0x11);
 2170              		.loc 1 770 0
 2171 012c 1120     		movs	r0, #17
 2172 012e FFF7FEFF 		bl	LCD_Write_Data
 2173              	.LVL298:
 771:C:/Users/lenovo/Desktop/liteos/Project2/BearPi_LiteOS/targets/STM32L431_BearPi/Hardware/LCD\lcd.c ****     LCD_Write_Data(0x13);
 2174              		.loc 1 771 0
 2175 0132 1320     		movs	r0, #19
 2176 0134 FFF7FEFF 		bl	LCD_Write_Data
 2177              	.LVL299:
 772:C:/Users/lenovo/Desktop/liteos/Project2/BearPi_LiteOS/targets/STM32L431_BearPi/Hardware/LCD\lcd.c ****     LCD_Write_Data(0x2C);
 2178              		.loc 1 772 0
 2179 0138 2C20     		movs	r0, #44
 2180 013a FFF7FEFF 		bl	LCD_Write_Data
 2181              	.LVL300:
 773:C:/Users/lenovo/Desktop/liteos/Project2/BearPi_LiteOS/targets/STM32L431_BearPi/Hardware/LCD\lcd.c ****     LCD_Write_Data(0x3F);
 2182              		.loc 1 773 0
 2183 013e 3F20     		movs	r0, #63
 2184 0140 FFF7FEFF 		bl	LCD_Write_Data
 2185              	.LVL301:
 774:C:/Users/lenovo/Desktop/liteos/Project2/BearPi_LiteOS/targets/STM32L431_BearPi/Hardware/LCD\lcd.c ****     LCD_Write_Data(0x44);
 2186              		.loc 1 774 0
 2187 0144 4420     		movs	r0, #68
 2188 0146 FFF7FEFF 		bl	LCD_Write_Data
 2189              	.LVL302:
 775:C:/Users/lenovo/Desktop/liteos/Project2/BearPi_LiteOS/targets/STM32L431_BearPi/Hardware/LCD\lcd.c ****     LCD_Write_Data(0x51);
 2190              		.loc 1 775 0
 2191 014a 5120     		movs	r0, #81
 2192 014c FFF7FEFF 		bl	LCD_Write_Data
 2193              	.LVL303:
 776:C:/Users/lenovo/Desktop/liteos/Project2/BearPi_LiteOS/targets/STM32L431_BearPi/Hardware/LCD\lcd.c ****     LCD_Write_Data(0x2F);
 2194              		.loc 1 776 0
 2195 0150 2F20     		movs	r0, #47
 2196 0152 FFF7FEFF 		bl	LCD_Write_Data
 2197              	.LVL304:
 777:C:/Users/lenovo/Desktop/liteos/Project2/BearPi_LiteOS/targets/STM32L431_BearPi/Hardware/LCD\lcd.c ****     LCD_Write_Data(0x1F);
 2198              		.loc 1 777 0
 2199 0156 1F20     		movs	r0, #31
 2200 0158 FFF7FEFF 		bl	LCD_Write_Data
 2201              	.LVL305:
 778:C:/Users/lenovo/Desktop/liteos/Project2/BearPi_LiteOS/targets/STM32L431_BearPi/Hardware/LCD\lcd.c ****     LCD_Write_Data(0x1F);
 2202              		.loc 1 778 0
 2203 015c 1F20     		movs	r0, #31
 2204 015e FFF7FEFF 		bl	LCD_Write_Data
 2205              	.LVL306:
 779:C:/Users/lenovo/Desktop/liteos/Project2/BearPi_LiteOS/targets/STM32L431_BearPi/Hardware/LCD\lcd.c ****     LCD_Write_Data(0x20);
 2206              		.loc 1 779 0
 2207 0162 2020     		movs	r0, #32
 2208 0164 FFF7FEFF 		bl	LCD_Write_Data
 2209              	.LVL307:
 780:C:/Users/lenovo/Desktop/liteos/Project2/BearPi_LiteOS/targets/STM32L431_BearPi/Hardware/LCD\lcd.c ****     LCD_Write_Data(0x23);
 2210              		.loc 1 780 0
 2211 0168 2320     		movs	r0, #35
 2212 016a FFF7FEFF 		bl	LCD_Write_Data
 2213              	.LVL308:
 781:C:/Users/lenovo/Desktop/liteos/Project2/BearPi_LiteOS/targets/STM32L431_BearPi/Hardware/LCD\lcd.c **** 
ARM GAS  c:\Users\lenovo\AppData\Local\Temp\cc7gPbIA.s 			page 57


 782:C:/Users/lenovo/Desktop/liteos/Project2/BearPi_LiteOS/targets/STM32L431_BearPi/Hardware/LCD\lcd.c ****     /* Display Inversion On */
 783:C:/Users/lenovo/Desktop/liteos/Project2/BearPi_LiteOS/targets/STM32L431_BearPi/Hardware/LCD\lcd.c ****     LCD_Write_Cmd(0x21);
 2214              		.loc 1 783 0
 2215 016e 2120     		movs	r0, #33
 2216 0170 FFF7FEFF 		bl	LCD_Write_Cmd
 2217              	.LVL309:
 784:C:/Users/lenovo/Desktop/liteos/Project2/BearPi_LiteOS/targets/STM32L431_BearPi/Hardware/LCD\lcd.c **** 
 785:C:/Users/lenovo/Desktop/liteos/Project2/BearPi_LiteOS/targets/STM32L431_BearPi/Hardware/LCD\lcd.c ****     LCD_Write_Cmd(0x29);
 2218              		.loc 1 785 0
 2219 0174 2920     		movs	r0, #41
 2220 0176 FFF7FEFF 		bl	LCD_Write_Cmd
 2221              	.LVL310:
 786:C:/Users/lenovo/Desktop/liteos/Project2/BearPi_LiteOS/targets/STM32L431_BearPi/Hardware/LCD\lcd.c **** 
 787:C:/Users/lenovo/Desktop/liteos/Project2/BearPi_LiteOS/targets/STM32L431_BearPi/Hardware/LCD\lcd.c ****     LCD_Address_Set(0, 0, LCD_Width - 1, LCD_Height - 1);
 2222              		.loc 1 787 0
 2223 017a EF23     		movs	r3, #239
 2224 017c 1A46     		mov	r2, r3
 2225 017e 0021     		movs	r1, #0
 2226 0180 0846     		mov	r0, r1
 2227 0182 FFF7FEFF 		bl	LCD_Address_Set
 2228              	.LVL311:
 788:C:/Users/lenovo/Desktop/liteos/Project2/BearPi_LiteOS/targets/STM32L431_BearPi/Hardware/LCD\lcd.c **** 
 789:C:/Users/lenovo/Desktop/liteos/Project2/BearPi_LiteOS/targets/STM32L431_BearPi/Hardware/LCD\lcd.c ****     LCD_Clear(WHITE);
 2229              		.loc 1 789 0
 2230 0186 4FF6FF70 		movw	r0, #65535
 2231 018a FFF7FEFF 		bl	LCD_Clear
 2232              	.LVL312:
 790:C:/Users/lenovo/Desktop/liteos/Project2/BearPi_LiteOS/targets/STM32L431_BearPi/Hardware/LCD\lcd.c **** 
 791:C:/Users/lenovo/Desktop/liteos/Project2/BearPi_LiteOS/targets/STM32L431_BearPi/Hardware/LCD\lcd.c ****     /* Display on */
 792:C:/Users/lenovo/Desktop/liteos/Project2/BearPi_LiteOS/targets/STM32L431_BearPi/Hardware/LCD\lcd.c ****     LCD_PWR(1);
 2233              		.loc 1 792 0
 2234 018e 0122     		movs	r2, #1
 2235 0190 4FF40041 		mov	r1, #32768
 2236 0194 0148     		ldr	r0, .L171
 2237 0196 FFF7FEFF 		bl	HAL_GPIO_WritePin
 2238              	.LVL313:
 793:C:/Users/lenovo/Desktop/liteos/Project2/BearPi_LiteOS/targets/STM32L431_BearPi/Hardware/LCD\lcd.c **** }
 2239              		.loc 1 793 0
 2240 019a 08BD     		pop	{r3, pc}
 2241              	.L172:
 2242              		.align	2
 2243              	.L171:
 2244 019c 00040048 		.word	1207960576
 2245              		.cfi_endproc
 2246              	.LFE154:
 2248              		.global	BACK_COLOR
 2249              		.global	POINT_COLOR
 2250              		.global	asc2_3216
 2251              		.global	asc2_2412
 2252              		.global	asc2_1608
 2253              		.global	asc2_1206
 2254              		.section	.bss.POINT_COLOR,"aw",%nobits
 2255              		.align	1
 2256              		.set	.LANCHOR1,. + 0
 2259              	POINT_COLOR:
 2260 0000 0000     		.space	2
 2261              		.section	.bss.lcd_buf,"aw",%nobits
ARM GAS  c:\Users\lenovo\AppData\Local\Temp\cc7gPbIA.s 			page 58


 2262              		.align	2
 2263              		.set	.LANCHOR0,. + 0
 2266              	lcd_buf:
 2267 0000 00000000 		.space	1152
 2267      00000000 
 2267      00000000 
 2267      00000000 
 2267      00000000 
 2268              		.section	.data.BACK_COLOR,"aw",%progbits
 2269              		.align	1
 2270              		.set	.LANCHOR3,. + 0
 2273              	BACK_COLOR:
 2274 0000 FFFF     		.short	-1
 2275              		.section	.rodata.asc2_1206,"a",%progbits
 2276              		.align	2
 2277              		.set	.LANCHOR4,. + 0
 2280              	asc2_1206:
 2281 0000 00       		.byte	0
 2282 0001 00       		.byte	0
 2283 0002 00       		.byte	0
 2284 0003 00       		.byte	0
 2285 0004 00       		.byte	0
 2286 0005 00       		.byte	0
 2287 0006 00       		.byte	0
 2288 0007 00       		.byte	0
 2289 0008 00       		.byte	0
 2290 0009 00       		.byte	0
 2291 000a 00       		.byte	0
 2292 000b 00       		.byte	0
 2293 000c 00       		.byte	0
 2294 000d 00       		.byte	0
 2295 000e 20       		.byte	32
 2296 000f 20       		.byte	32
 2297 0010 20       		.byte	32
 2298 0011 20       		.byte	32
 2299 0012 20       		.byte	32
 2300 0013 00       		.byte	0
 2301 0014 00       		.byte	0
 2302 0015 20       		.byte	32
 2303 0016 00       		.byte	0
 2304 0017 00       		.byte	0
 2305 0018 28       		.byte	40
 2306 0019 28       		.byte	40
 2307 001a 50       		.byte	80
 2308 001b 00       		.byte	0
 2309 001c 00       		.byte	0
 2310 001d 00       		.byte	0
 2311 001e 00       		.byte	0
 2312 001f 00       		.byte	0
 2313 0020 00       		.byte	0
 2314 0021 00       		.byte	0
 2315 0022 00       		.byte	0
 2316 0023 00       		.byte	0
 2317 0024 00       		.byte	0
 2318 0025 00       		.byte	0
 2319 0026 50       		.byte	80
 2320 0027 50       		.byte	80
ARM GAS  c:\Users\lenovo\AppData\Local\Temp\cc7gPbIA.s 			page 59


 2321 0028 F8       		.byte	-8
 2322 0029 50       		.byte	80
 2323 002a 50       		.byte	80
 2324 002b F8       		.byte	-8
 2325 002c 50       		.byte	80
 2326 002d 50       		.byte	80
 2327 002e 00       		.byte	0
 2328 002f 00       		.byte	0
 2329 0030 00       		.byte	0
 2330 0031 20       		.byte	32
 2331 0032 70       		.byte	112
 2332 0033 A8       		.byte	-88
 2333 0034 A0       		.byte	-96
 2334 0035 60       		.byte	96
 2335 0036 30       		.byte	48
 2336 0037 28       		.byte	40
 2337 0038 A8       		.byte	-88
 2338 0039 70       		.byte	112
 2339 003a 20       		.byte	32
 2340 003b 00       		.byte	0
 2341 003c 00       		.byte	0
 2342 003d 00       		.byte	0
 2343 003e 48       		.byte	72
 2344 003f A8       		.byte	-88
 2345 0040 B0       		.byte	-80
 2346 0041 A8       		.byte	-88
 2347 0042 74       		.byte	116
 2348 0043 34       		.byte	52
 2349 0044 54       		.byte	84
 2350 0045 48       		.byte	72
 2351 0046 00       		.byte	0
 2352 0047 00       		.byte	0
 2353 0048 00       		.byte	0
 2354 0049 00       		.byte	0
 2355 004a 20       		.byte	32
 2356 004b 50       		.byte	80
 2357 004c 50       		.byte	80
 2358 004d 6C       		.byte	108
 2359 004e A8       		.byte	-88
 2360 004f A8       		.byte	-88
 2361 0050 94       		.byte	-108
 2362 0051 68       		.byte	104
 2363 0052 00       		.byte	0
 2364 0053 00       		.byte	0
 2365 0054 40       		.byte	64
 2366 0055 40       		.byte	64
 2367 0056 80       		.byte	-128
 2368 0057 00       		.byte	0
 2369 0058 00       		.byte	0
 2370 0059 00       		.byte	0
 2371 005a 00       		.byte	0
 2372 005b 00       		.byte	0
 2373 005c 00       		.byte	0
 2374 005d 00       		.byte	0
 2375 005e 00       		.byte	0
 2376 005f 00       		.byte	0
 2377 0060 08       		.byte	8
ARM GAS  c:\Users\lenovo\AppData\Local\Temp\cc7gPbIA.s 			page 60


 2378 0061 10       		.byte	16
 2379 0062 10       		.byte	16
 2380 0063 20       		.byte	32
 2381 0064 20       		.byte	32
 2382 0065 20       		.byte	32
 2383 0066 20       		.byte	32
 2384 0067 20       		.byte	32
 2385 0068 10       		.byte	16
 2386 0069 10       		.byte	16
 2387 006a 08       		.byte	8
 2388 006b 00       		.byte	0
 2389 006c 40       		.byte	64
 2390 006d 20       		.byte	32
 2391 006e 20       		.byte	32
 2392 006f 10       		.byte	16
 2393 0070 10       		.byte	16
 2394 0071 10       		.byte	16
 2395 0072 10       		.byte	16
 2396 0073 10       		.byte	16
 2397 0074 20       		.byte	32
 2398 0075 20       		.byte	32
 2399 0076 40       		.byte	64
 2400 0077 00       		.byte	0
 2401 0078 00       		.byte	0
 2402 0079 00       		.byte	0
 2403 007a 00       		.byte	0
 2404 007b 20       		.byte	32
 2405 007c A8       		.byte	-88
 2406 007d 70       		.byte	112
 2407 007e 70       		.byte	112
 2408 007f A8       		.byte	-88
 2409 0080 20       		.byte	32
 2410 0081 00       		.byte	0
 2411 0082 00       		.byte	0
 2412 0083 00       		.byte	0
 2413 0084 00       		.byte	0
 2414 0085 00       		.byte	0
 2415 0086 00       		.byte	0
 2416 0087 10       		.byte	16
 2417 0088 10       		.byte	16
 2418 0089 7C       		.byte	124
 2419 008a 10       		.byte	16
 2420 008b 10       		.byte	16
 2421 008c 00       		.byte	0
 2422 008d 00       		.byte	0
 2423 008e 00       		.byte	0
 2424 008f 00       		.byte	0
 2425 0090 00       		.byte	0
 2426 0091 00       		.byte	0
 2427 0092 00       		.byte	0
 2428 0093 00       		.byte	0
 2429 0094 00       		.byte	0
 2430 0095 00       		.byte	0
 2431 0096 00       		.byte	0
 2432 0097 00       		.byte	0
 2433 0098 40       		.byte	64
 2434 0099 40       		.byte	64
ARM GAS  c:\Users\lenovo\AppData\Local\Temp\cc7gPbIA.s 			page 61


 2435 009a 80       		.byte	-128
 2436 009b 00       		.byte	0
 2437 009c 00       		.byte	0
 2438 009d 00       		.byte	0
 2439 009e 00       		.byte	0
 2440 009f 00       		.byte	0
 2441 00a0 00       		.byte	0
 2442 00a1 FC       		.byte	-4
 2443 00a2 00       		.byte	0
 2444 00a3 00       		.byte	0
 2445 00a4 00       		.byte	0
 2446 00a5 00       		.byte	0
 2447 00a6 00       		.byte	0
 2448 00a7 00       		.byte	0
 2449 00a8 00       		.byte	0
 2450 00a9 00       		.byte	0
 2451 00aa 00       		.byte	0
 2452 00ab 00       		.byte	0
 2453 00ac 00       		.byte	0
 2454 00ad 00       		.byte	0
 2455 00ae 00       		.byte	0
 2456 00af 00       		.byte	0
 2457 00b0 00       		.byte	0
 2458 00b1 40       		.byte	64
 2459 00b2 00       		.byte	0
 2460 00b3 00       		.byte	0
 2461 00b4 00       		.byte	0
 2462 00b5 04       		.byte	4
 2463 00b6 08       		.byte	8
 2464 00b7 08       		.byte	8
 2465 00b8 10       		.byte	16
 2466 00b9 10       		.byte	16
 2467 00ba 20       		.byte	32
 2468 00bb 20       		.byte	32
 2469 00bc 40       		.byte	64
 2470 00bd 40       		.byte	64
 2471 00be 80       		.byte	-128
 2472 00bf 00       		.byte	0
 2473 00c0 00       		.byte	0
 2474 00c1 00       		.byte	0
 2475 00c2 70       		.byte	112
 2476 00c3 88       		.byte	-120
 2477 00c4 88       		.byte	-120
 2478 00c5 88       		.byte	-120
 2479 00c6 88       		.byte	-120
 2480 00c7 88       		.byte	-120
 2481 00c8 88       		.byte	-120
 2482 00c9 70       		.byte	112
 2483 00ca 00       		.byte	0
 2484 00cb 00       		.byte	0
 2485 00cc 00       		.byte	0
 2486 00cd 00       		.byte	0
 2487 00ce 20       		.byte	32
 2488 00cf 60       		.byte	96
 2489 00d0 20       		.byte	32
 2490 00d1 20       		.byte	32
 2491 00d2 20       		.byte	32
ARM GAS  c:\Users\lenovo\AppData\Local\Temp\cc7gPbIA.s 			page 62


 2492 00d3 20       		.byte	32
 2493 00d4 20       		.byte	32
 2494 00d5 70       		.byte	112
 2495 00d6 00       		.byte	0
 2496 00d7 00       		.byte	0
 2497 00d8 00       		.byte	0
 2498 00d9 00       		.byte	0
 2499 00da 70       		.byte	112
 2500 00db 88       		.byte	-120
 2501 00dc 88       		.byte	-120
 2502 00dd 10       		.byte	16
 2503 00de 20       		.byte	32
 2504 00df 40       		.byte	64
 2505 00e0 80       		.byte	-128
 2506 00e1 F8       		.byte	-8
 2507 00e2 00       		.byte	0
 2508 00e3 00       		.byte	0
 2509 00e4 00       		.byte	0
 2510 00e5 00       		.byte	0
 2511 00e6 70       		.byte	112
 2512 00e7 88       		.byte	-120
 2513 00e8 08       		.byte	8
 2514 00e9 30       		.byte	48
 2515 00ea 08       		.byte	8
 2516 00eb 08       		.byte	8
 2517 00ec 88       		.byte	-120
 2518 00ed 70       		.byte	112
 2519 00ee 00       		.byte	0
 2520 00ef 00       		.byte	0
 2521 00f0 00       		.byte	0
 2522 00f1 00       		.byte	0
 2523 00f2 10       		.byte	16
 2524 00f3 30       		.byte	48
 2525 00f4 30       		.byte	48
 2526 00f5 50       		.byte	80
 2527 00f6 90       		.byte	-112
 2528 00f7 F8       		.byte	-8
 2529 00f8 10       		.byte	16
 2530 00f9 38       		.byte	56
 2531 00fa 00       		.byte	0
 2532 00fb 00       		.byte	0
 2533 00fc 00       		.byte	0
 2534 00fd 00       		.byte	0
 2535 00fe F8       		.byte	-8
 2536 00ff 80       		.byte	-128
 2537 0100 80       		.byte	-128
 2538 0101 F0       		.byte	-16
 2539 0102 88       		.byte	-120
 2540 0103 08       		.byte	8
 2541 0104 88       		.byte	-120
 2542 0105 70       		.byte	112
 2543 0106 00       		.byte	0
 2544 0107 00       		.byte	0
 2545 0108 00       		.byte	0
 2546 0109 00       		.byte	0
 2547 010a 30       		.byte	48
 2548 010b 48       		.byte	72
ARM GAS  c:\Users\lenovo\AppData\Local\Temp\cc7gPbIA.s 			page 63


 2549 010c 80       		.byte	-128
 2550 010d B0       		.byte	-80
 2551 010e C8       		.byte	-56
 2552 010f 88       		.byte	-120
 2553 0110 88       		.byte	-120
 2554 0111 70       		.byte	112
 2555 0112 00       		.byte	0
 2556 0113 00       		.byte	0
 2557 0114 00       		.byte	0
 2558 0115 00       		.byte	0
 2559 0116 78       		.byte	120
 2560 0117 08       		.byte	8
 2561 0118 10       		.byte	16
 2562 0119 10       		.byte	16
 2563 011a 20       		.byte	32
 2564 011b 20       		.byte	32
 2565 011c 20       		.byte	32
 2566 011d 20       		.byte	32
 2567 011e 00       		.byte	0
 2568 011f 00       		.byte	0
 2569 0120 00       		.byte	0
 2570 0121 00       		.byte	0
 2571 0122 70       		.byte	112
 2572 0123 88       		.byte	-120
 2573 0124 88       		.byte	-120
 2574 0125 70       		.byte	112
 2575 0126 88       		.byte	-120
 2576 0127 88       		.byte	-120
 2577 0128 88       		.byte	-120
 2578 0129 70       		.byte	112
 2579 012a 00       		.byte	0
 2580 012b 00       		.byte	0
 2581 012c 00       		.byte	0
 2582 012d 00       		.byte	0
 2583 012e 70       		.byte	112
 2584 012f 88       		.byte	-120
 2585 0130 88       		.byte	-120
 2586 0131 98       		.byte	-104
 2587 0132 68       		.byte	104
 2588 0133 08       		.byte	8
 2589 0134 90       		.byte	-112
 2590 0135 60       		.byte	96
 2591 0136 00       		.byte	0
 2592 0137 00       		.byte	0
 2593 0138 00       		.byte	0
 2594 0139 00       		.byte	0
 2595 013a 00       		.byte	0
 2596 013b 00       		.byte	0
 2597 013c 20       		.byte	32
 2598 013d 00       		.byte	0
 2599 013e 00       		.byte	0
 2600 013f 00       		.byte	0
 2601 0140 00       		.byte	0
 2602 0141 20       		.byte	32
 2603 0142 00       		.byte	0
 2604 0143 00       		.byte	0
 2605 0144 00       		.byte	0
ARM GAS  c:\Users\lenovo\AppData\Local\Temp\cc7gPbIA.s 			page 64


 2606 0145 00       		.byte	0
 2607 0146 00       		.byte	0
 2608 0147 00       		.byte	0
 2609 0148 00       		.byte	0
 2610 0149 20       		.byte	32
 2611 014a 00       		.byte	0
 2612 014b 00       		.byte	0
 2613 014c 00       		.byte	0
 2614 014d 20       		.byte	32
 2615 014e 20       		.byte	32
 2616 014f 00       		.byte	0
 2617 0150 00       		.byte	0
 2618 0151 00       		.byte	0
 2619 0152 08       		.byte	8
 2620 0153 10       		.byte	16
 2621 0154 20       		.byte	32
 2622 0155 40       		.byte	64
 2623 0156 40       		.byte	64
 2624 0157 20       		.byte	32
 2625 0158 10       		.byte	16
 2626 0159 08       		.byte	8
 2627 015a 00       		.byte	0
 2628 015b 00       		.byte	0
 2629 015c 00       		.byte	0
 2630 015d 00       		.byte	0
 2631 015e 00       		.byte	0
 2632 015f 00       		.byte	0
 2633 0160 FC       		.byte	-4
 2634 0161 00       		.byte	0
 2635 0162 FC       		.byte	-4
 2636 0163 00       		.byte	0
 2637 0164 00       		.byte	0
 2638 0165 00       		.byte	0
 2639 0166 00       		.byte	0
 2640 0167 00       		.byte	0
 2641 0168 00       		.byte	0
 2642 0169 00       		.byte	0
 2643 016a 40       		.byte	64
 2644 016b 20       		.byte	32
 2645 016c 10       		.byte	16
 2646 016d 08       		.byte	8
 2647 016e 08       		.byte	8
 2648 016f 10       		.byte	16
 2649 0170 20       		.byte	32
 2650 0171 40       		.byte	64
 2651 0172 00       		.byte	0
 2652 0173 00       		.byte	0
 2653 0174 00       		.byte	0
 2654 0175 00       		.byte	0
 2655 0176 70       		.byte	112
 2656 0177 88       		.byte	-120
 2657 0178 88       		.byte	-120
 2658 0179 10       		.byte	16
 2659 017a 20       		.byte	32
 2660 017b 20       		.byte	32
 2661 017c 00       		.byte	0
 2662 017d 20       		.byte	32
ARM GAS  c:\Users\lenovo\AppData\Local\Temp\cc7gPbIA.s 			page 65


 2663 017e 00       		.byte	0
 2664 017f 00       		.byte	0
 2665 0180 00       		.byte	0
 2666 0181 00       		.byte	0
 2667 0182 38       		.byte	56
 2668 0183 44       		.byte	68
 2669 0184 94       		.byte	-108
 2670 0185 B4       		.byte	-76
 2671 0186 B4       		.byte	-76
 2672 0187 B8       		.byte	-72
 2673 0188 44       		.byte	68
 2674 0189 38       		.byte	56
 2675 018a 00       		.byte	0
 2676 018b 00       		.byte	0
 2677 018c 00       		.byte	0
 2678 018d 00       		.byte	0
 2679 018e 20       		.byte	32
 2680 018f 20       		.byte	32
 2681 0190 30       		.byte	48
 2682 0191 50       		.byte	80
 2683 0192 50       		.byte	80
 2684 0193 78       		.byte	120
 2685 0194 48       		.byte	72
 2686 0195 CC       		.byte	-52
 2687 0196 00       		.byte	0
 2688 0197 00       		.byte	0
 2689 0198 00       		.byte	0
 2690 0199 00       		.byte	0
 2691 019a F0       		.byte	-16
 2692 019b 48       		.byte	72
 2693 019c 48       		.byte	72
 2694 019d 70       		.byte	112
 2695 019e 48       		.byte	72
 2696 019f 48       		.byte	72
 2697 01a0 48       		.byte	72
 2698 01a1 F0       		.byte	-16
 2699 01a2 00       		.byte	0
 2700 01a3 00       		.byte	0
 2701 01a4 00       		.byte	0
 2702 01a5 00       		.byte	0
 2703 01a6 78       		.byte	120
 2704 01a7 88       		.byte	-120
 2705 01a8 80       		.byte	-128
 2706 01a9 80       		.byte	-128
 2707 01aa 80       		.byte	-128
 2708 01ab 80       		.byte	-128
 2709 01ac 88       		.byte	-120
 2710 01ad 70       		.byte	112
 2711 01ae 00       		.byte	0
 2712 01af 00       		.byte	0
 2713 01b0 00       		.byte	0
 2714 01b1 00       		.byte	0
 2715 01b2 F0       		.byte	-16
 2716 01b3 48       		.byte	72
 2717 01b4 48       		.byte	72
 2718 01b5 48       		.byte	72
 2719 01b6 48       		.byte	72
ARM GAS  c:\Users\lenovo\AppData\Local\Temp\cc7gPbIA.s 			page 66


 2720 01b7 48       		.byte	72
 2721 01b8 48       		.byte	72
 2722 01b9 F0       		.byte	-16
 2723 01ba 00       		.byte	0
 2724 01bb 00       		.byte	0
 2725 01bc 00       		.byte	0
 2726 01bd 00       		.byte	0
 2727 01be F8       		.byte	-8
 2728 01bf 48       		.byte	72
 2729 01c0 50       		.byte	80
 2730 01c1 70       		.byte	112
 2731 01c2 50       		.byte	80
 2732 01c3 40       		.byte	64
 2733 01c4 48       		.byte	72
 2734 01c5 F8       		.byte	-8
 2735 01c6 00       		.byte	0
 2736 01c7 00       		.byte	0
 2737 01c8 00       		.byte	0
 2738 01c9 00       		.byte	0
 2739 01ca F8       		.byte	-8
 2740 01cb 48       		.byte	72
 2741 01cc 50       		.byte	80
 2742 01cd 70       		.byte	112
 2743 01ce 50       		.byte	80
 2744 01cf 40       		.byte	64
 2745 01d0 40       		.byte	64
 2746 01d1 E0       		.byte	-32
 2747 01d2 00       		.byte	0
 2748 01d3 00       		.byte	0
 2749 01d4 00       		.byte	0
 2750 01d5 00       		.byte	0
 2751 01d6 38       		.byte	56
 2752 01d7 48       		.byte	72
 2753 01d8 80       		.byte	-128
 2754 01d9 80       		.byte	-128
 2755 01da 9C       		.byte	-100
 2756 01db 88       		.byte	-120
 2757 01dc 48       		.byte	72
 2758 01dd 30       		.byte	48
 2759 01de 00       		.byte	0
 2760 01df 00       		.byte	0
 2761 01e0 00       		.byte	0
 2762 01e1 00       		.byte	0
 2763 01e2 CC       		.byte	-52
 2764 01e3 48       		.byte	72
 2765 01e4 48       		.byte	72
 2766 01e5 78       		.byte	120
 2767 01e6 48       		.byte	72
 2768 01e7 48       		.byte	72
 2769 01e8 48       		.byte	72
 2770 01e9 CC       		.byte	-52
 2771 01ea 00       		.byte	0
 2772 01eb 00       		.byte	0
 2773 01ec 00       		.byte	0
 2774 01ed 00       		.byte	0
 2775 01ee F8       		.byte	-8
 2776 01ef 20       		.byte	32
ARM GAS  c:\Users\lenovo\AppData\Local\Temp\cc7gPbIA.s 			page 67


 2777 01f0 20       		.byte	32
 2778 01f1 20       		.byte	32
 2779 01f2 20       		.byte	32
 2780 01f3 20       		.byte	32
 2781 01f4 20       		.byte	32
 2782 01f5 F8       		.byte	-8
 2783 01f6 00       		.byte	0
 2784 01f7 00       		.byte	0
 2785 01f8 00       		.byte	0
 2786 01f9 00       		.byte	0
 2787 01fa 7C       		.byte	124
 2788 01fb 10       		.byte	16
 2789 01fc 10       		.byte	16
 2790 01fd 10       		.byte	16
 2791 01fe 10       		.byte	16
 2792 01ff 10       		.byte	16
 2793 0200 10       		.byte	16
 2794 0201 10       		.byte	16
 2795 0202 90       		.byte	-112
 2796 0203 E0       		.byte	-32
 2797 0204 00       		.byte	0
 2798 0205 00       		.byte	0
 2799 0206 EC       		.byte	-20
 2800 0207 48       		.byte	72
 2801 0208 50       		.byte	80
 2802 0209 60       		.byte	96
 2803 020a 50       		.byte	80
 2804 020b 48       		.byte	72
 2805 020c 48       		.byte	72
 2806 020d EC       		.byte	-20
 2807 020e 00       		.byte	0
 2808 020f 00       		.byte	0
 2809 0210 00       		.byte	0
 2810 0211 00       		.byte	0
 2811 0212 E0       		.byte	-32
 2812 0213 40       		.byte	64
 2813 0214 40       		.byte	64
 2814 0215 40       		.byte	64
 2815 0216 40       		.byte	64
 2816 0217 40       		.byte	64
 2817 0218 44       		.byte	68
 2818 0219 FC       		.byte	-4
 2819 021a 00       		.byte	0
 2820 021b 00       		.byte	0
 2821 021c 00       		.byte	0
 2822 021d 00       		.byte	0
 2823 021e DC       		.byte	-36
 2824 021f D8       		.byte	-40
 2825 0220 D8       		.byte	-40
 2826 0221 D8       		.byte	-40
 2827 0222 A8       		.byte	-88
 2828 0223 A8       		.byte	-88
 2829 0224 A8       		.byte	-88
 2830 0225 AC       		.byte	-84
 2831 0226 00       		.byte	0
 2832 0227 00       		.byte	0
 2833 0228 00       		.byte	0
ARM GAS  c:\Users\lenovo\AppData\Local\Temp\cc7gPbIA.s 			page 68


 2834 0229 00       		.byte	0
 2835 022a DC       		.byte	-36
 2836 022b 48       		.byte	72
 2837 022c 68       		.byte	104
 2838 022d 68       		.byte	104
 2839 022e 58       		.byte	88
 2840 022f 58       		.byte	88
 2841 0230 48       		.byte	72
 2842 0231 E8       		.byte	-24
 2843 0232 00       		.byte	0
 2844 0233 00       		.byte	0
 2845 0234 00       		.byte	0
 2846 0235 00       		.byte	0
 2847 0236 70       		.byte	112
 2848 0237 88       		.byte	-120
 2849 0238 88       		.byte	-120
 2850 0239 88       		.byte	-120
 2851 023a 88       		.byte	-120
 2852 023b 88       		.byte	-120
 2853 023c 88       		.byte	-120
 2854 023d 70       		.byte	112
 2855 023e 00       		.byte	0
 2856 023f 00       		.byte	0
 2857 0240 00       		.byte	0
 2858 0241 00       		.byte	0
 2859 0242 F0       		.byte	-16
 2860 0243 48       		.byte	72
 2861 0244 48       		.byte	72
 2862 0245 70       		.byte	112
 2863 0246 40       		.byte	64
 2864 0247 40       		.byte	64
 2865 0248 40       		.byte	64
 2866 0249 E0       		.byte	-32
 2867 024a 00       		.byte	0
 2868 024b 00       		.byte	0
 2869 024c 00       		.byte	0
 2870 024d 00       		.byte	0
 2871 024e 70       		.byte	112
 2872 024f 88       		.byte	-120
 2873 0250 88       		.byte	-120
 2874 0251 88       		.byte	-120
 2875 0252 88       		.byte	-120
 2876 0253 E8       		.byte	-24
 2877 0254 98       		.byte	-104
 2878 0255 70       		.byte	112
 2879 0256 18       		.byte	24
 2880 0257 00       		.byte	0
 2881 0258 00       		.byte	0
 2882 0259 00       		.byte	0
 2883 025a F0       		.byte	-16
 2884 025b 48       		.byte	72
 2885 025c 48       		.byte	72
 2886 025d 70       		.byte	112
 2887 025e 50       		.byte	80
 2888 025f 48       		.byte	72
 2889 0260 48       		.byte	72
 2890 0261 EC       		.byte	-20
ARM GAS  c:\Users\lenovo\AppData\Local\Temp\cc7gPbIA.s 			page 69


 2891 0262 00       		.byte	0
 2892 0263 00       		.byte	0
 2893 0264 00       		.byte	0
 2894 0265 00       		.byte	0
 2895 0266 78       		.byte	120
 2896 0267 88       		.byte	-120
 2897 0268 80       		.byte	-128
 2898 0269 60       		.byte	96
 2899 026a 10       		.byte	16
 2900 026b 08       		.byte	8
 2901 026c 88       		.byte	-120
 2902 026d F0       		.byte	-16
 2903 026e 00       		.byte	0
 2904 026f 00       		.byte	0
 2905 0270 00       		.byte	0
 2906 0271 00       		.byte	0
 2907 0272 F8       		.byte	-8
 2908 0273 A8       		.byte	-88
 2909 0274 20       		.byte	32
 2910 0275 20       		.byte	32
 2911 0276 20       		.byte	32
 2912 0277 20       		.byte	32
 2913 0278 20       		.byte	32
 2914 0279 70       		.byte	112
 2915 027a 00       		.byte	0
 2916 027b 00       		.byte	0
 2917 027c 00       		.byte	0
 2918 027d 00       		.byte	0
 2919 027e CC       		.byte	-52
 2920 027f 48       		.byte	72
 2921 0280 48       		.byte	72
 2922 0281 48       		.byte	72
 2923 0282 48       		.byte	72
 2924 0283 48       		.byte	72
 2925 0284 48       		.byte	72
 2926 0285 30       		.byte	48
 2927 0286 00       		.byte	0
 2928 0287 00       		.byte	0
 2929 0288 00       		.byte	0
 2930 0289 00       		.byte	0
 2931 028a CC       		.byte	-52
 2932 028b 48       		.byte	72
 2933 028c 48       		.byte	72
 2934 028d 50       		.byte	80
 2935 028e 50       		.byte	80
 2936 028f 30       		.byte	48
 2937 0290 20       		.byte	32
 2938 0291 20       		.byte	32
 2939 0292 00       		.byte	0
 2940 0293 00       		.byte	0
 2941 0294 00       		.byte	0
 2942 0295 00       		.byte	0
 2943 0296 A8       		.byte	-88
 2944 0297 A8       		.byte	-88
 2945 0298 A8       		.byte	-88
 2946 0299 A8       		.byte	-88
 2947 029a 70       		.byte	112
ARM GAS  c:\Users\lenovo\AppData\Local\Temp\cc7gPbIA.s 			page 70


 2948 029b 50       		.byte	80
 2949 029c 50       		.byte	80
 2950 029d 50       		.byte	80
 2951 029e 00       		.byte	0
 2952 029f 00       		.byte	0
 2953 02a0 00       		.byte	0
 2954 02a1 00       		.byte	0
 2955 02a2 D8       		.byte	-40
 2956 02a3 50       		.byte	80
 2957 02a4 50       		.byte	80
 2958 02a5 20       		.byte	32
 2959 02a6 20       		.byte	32
 2960 02a7 50       		.byte	80
 2961 02a8 50       		.byte	80
 2962 02a9 D8       		.byte	-40
 2963 02aa 00       		.byte	0
 2964 02ab 00       		.byte	0
 2965 02ac 00       		.byte	0
 2966 02ad 00       		.byte	0
 2967 02ae D8       		.byte	-40
 2968 02af 50       		.byte	80
 2969 02b0 50       		.byte	80
 2970 02b1 50       		.byte	80
 2971 02b2 20       		.byte	32
 2972 02b3 20       		.byte	32
 2973 02b4 20       		.byte	32
 2974 02b5 70       		.byte	112
 2975 02b6 00       		.byte	0
 2976 02b7 00       		.byte	0
 2977 02b8 00       		.byte	0
 2978 02b9 00       		.byte	0
 2979 02ba F8       		.byte	-8
 2980 02bb 90       		.byte	-112
 2981 02bc 10       		.byte	16
 2982 02bd 20       		.byte	32
 2983 02be 20       		.byte	32
 2984 02bf 40       		.byte	64
 2985 02c0 48       		.byte	72
 2986 02c1 F8       		.byte	-8
 2987 02c2 00       		.byte	0
 2988 02c3 00       		.byte	0
 2989 02c4 38       		.byte	56
 2990 02c5 20       		.byte	32
 2991 02c6 20       		.byte	32
 2992 02c7 20       		.byte	32
 2993 02c8 20       		.byte	32
 2994 02c9 20       		.byte	32
 2995 02ca 20       		.byte	32
 2996 02cb 20       		.byte	32
 2997 02cc 20       		.byte	32
 2998 02cd 20       		.byte	32
 2999 02ce 38       		.byte	56
 3000 02cf 00       		.byte	0
 3001 02d0 00       		.byte	0
 3002 02d1 40       		.byte	64
 3003 02d2 40       		.byte	64
 3004 02d3 20       		.byte	32
ARM GAS  c:\Users\lenovo\AppData\Local\Temp\cc7gPbIA.s 			page 71


 3005 02d4 20       		.byte	32
 3006 02d5 20       		.byte	32
 3007 02d6 10       		.byte	16
 3008 02d7 10       		.byte	16
 3009 02d8 10       		.byte	16
 3010 02d9 08       		.byte	8
 3011 02da 08       		.byte	8
 3012 02db 00       		.byte	0
 3013 02dc 70       		.byte	112
 3014 02dd 10       		.byte	16
 3015 02de 10       		.byte	16
 3016 02df 10       		.byte	16
 3017 02e0 10       		.byte	16
 3018 02e1 10       		.byte	16
 3019 02e2 10       		.byte	16
 3020 02e3 10       		.byte	16
 3021 02e4 10       		.byte	16
 3022 02e5 10       		.byte	16
 3023 02e6 70       		.byte	112
 3024 02e7 00       		.byte	0
 3025 02e8 20       		.byte	32
 3026 02e9 50       		.byte	80
 3027 02ea 00       		.byte	0
 3028 02eb 00       		.byte	0
 3029 02ec 00       		.byte	0
 3030 02ed 00       		.byte	0
 3031 02ee 00       		.byte	0
 3032 02ef 00       		.byte	0
 3033 02f0 00       		.byte	0
 3034 02f1 00       		.byte	0
 3035 02f2 00       		.byte	0
 3036 02f3 00       		.byte	0
 3037 02f4 00       		.byte	0
 3038 02f5 00       		.byte	0
 3039 02f6 00       		.byte	0
 3040 02f7 00       		.byte	0
 3041 02f8 00       		.byte	0
 3042 02f9 00       		.byte	0
 3043 02fa 00       		.byte	0
 3044 02fb 00       		.byte	0
 3045 02fc 00       		.byte	0
 3046 02fd 00       		.byte	0
 3047 02fe 00       		.byte	0
 3048 02ff FC       		.byte	-4
 3049 0300 40       		.byte	64
 3050 0301 20       		.byte	32
 3051 0302 00       		.byte	0
 3052 0303 00       		.byte	0
 3053 0304 00       		.byte	0
 3054 0305 00       		.byte	0
 3055 0306 00       		.byte	0
 3056 0307 00       		.byte	0
 3057 0308 00       		.byte	0
 3058 0309 00       		.byte	0
 3059 030a 00       		.byte	0
 3060 030b 00       		.byte	0
 3061 030c 00       		.byte	0
ARM GAS  c:\Users\lenovo\AppData\Local\Temp\cc7gPbIA.s 			page 72


 3062 030d 00       		.byte	0
 3063 030e 00       		.byte	0
 3064 030f 00       		.byte	0
 3065 0310 00       		.byte	0
 3066 0311 30       		.byte	48
 3067 0312 48       		.byte	72
 3068 0313 38       		.byte	56
 3069 0314 48       		.byte	72
 3070 0315 3C       		.byte	60
 3071 0316 00       		.byte	0
 3072 0317 00       		.byte	0
 3073 0318 00       		.byte	0
 3074 0319 C0       		.byte	-64
 3075 031a 40       		.byte	64
 3076 031b 40       		.byte	64
 3077 031c 40       		.byte	64
 3078 031d 70       		.byte	112
 3079 031e 48       		.byte	72
 3080 031f 48       		.byte	72
 3081 0320 48       		.byte	72
 3082 0321 70       		.byte	112
 3083 0322 00       		.byte	0
 3084 0323 00       		.byte	0
 3085 0324 00       		.byte	0
 3086 0325 00       		.byte	0
 3087 0326 00       		.byte	0
 3088 0327 00       		.byte	0
 3089 0328 00       		.byte	0
 3090 0329 38       		.byte	56
 3091 032a 48       		.byte	72
 3092 032b 40       		.byte	64
 3093 032c 48       		.byte	72
 3094 032d 30       		.byte	48
 3095 032e 00       		.byte	0
 3096 032f 00       		.byte	0
 3097 0330 00       		.byte	0
 3098 0331 18       		.byte	24
 3099 0332 08       		.byte	8
 3100 0333 08       		.byte	8
 3101 0334 08       		.byte	8
 3102 0335 38       		.byte	56
 3103 0336 48       		.byte	72
 3104 0337 48       		.byte	72
 3105 0338 48       		.byte	72
 3106 0339 3C       		.byte	60
 3107 033a 00       		.byte	0
 3108 033b 00       		.byte	0
 3109 033c 00       		.byte	0
 3110 033d 00       		.byte	0
 3111 033e 00       		.byte	0
 3112 033f 00       		.byte	0
 3113 0340 00       		.byte	0
 3114 0341 30       		.byte	48
 3115 0342 48       		.byte	72
 3116 0343 78       		.byte	120
 3117 0344 40       		.byte	64
 3118 0345 38       		.byte	56
ARM GAS  c:\Users\lenovo\AppData\Local\Temp\cc7gPbIA.s 			page 73


 3119 0346 00       		.byte	0
 3120 0347 00       		.byte	0
 3121 0348 00       		.byte	0
 3122 0349 18       		.byte	24
 3123 034a 24       		.byte	36
 3124 034b 20       		.byte	32
 3125 034c 20       		.byte	32
 3126 034d 78       		.byte	120
 3127 034e 20       		.byte	32
 3128 034f 20       		.byte	32
 3129 0350 20       		.byte	32
 3130 0351 78       		.byte	120
 3131 0352 00       		.byte	0
 3132 0353 00       		.byte	0
 3133 0354 00       		.byte	0
 3134 0355 00       		.byte	0
 3135 0356 00       		.byte	0
 3136 0357 00       		.byte	0
 3137 0358 00       		.byte	0
 3138 0359 3C       		.byte	60
 3139 035a 48       		.byte	72
 3140 035b 30       		.byte	48
 3141 035c 40       		.byte	64
 3142 035d 38       		.byte	56
 3143 035e 44       		.byte	68
 3144 035f 38       		.byte	56
 3145 0360 00       		.byte	0
 3146 0361 C0       		.byte	-64
 3147 0362 40       		.byte	64
 3148 0363 40       		.byte	64
 3149 0364 40       		.byte	64
 3150 0365 70       		.byte	112
 3151 0366 48       		.byte	72
 3152 0367 48       		.byte	72
 3153 0368 48       		.byte	72
 3154 0369 EC       		.byte	-20
 3155 036a 00       		.byte	0
 3156 036b 00       		.byte	0
 3157 036c 00       		.byte	0
 3158 036d 20       		.byte	32
 3159 036e 20       		.byte	32
 3160 036f 00       		.byte	0
 3161 0370 00       		.byte	0
 3162 0371 60       		.byte	96
 3163 0372 20       		.byte	32
 3164 0373 20       		.byte	32
 3165 0374 20       		.byte	32
 3166 0375 70       		.byte	112
 3167 0376 00       		.byte	0
 3168 0377 00       		.byte	0
 3169 0378 00       		.byte	0
 3170 0379 10       		.byte	16
 3171 037a 10       		.byte	16
 3172 037b 00       		.byte	0
 3173 037c 00       		.byte	0
 3174 037d 30       		.byte	48
 3175 037e 10       		.byte	16
ARM GAS  c:\Users\lenovo\AppData\Local\Temp\cc7gPbIA.s 			page 74


 3176 037f 10       		.byte	16
 3177 0380 10       		.byte	16
 3178 0381 10       		.byte	16
 3179 0382 10       		.byte	16
 3180 0383 E0       		.byte	-32
 3181 0384 00       		.byte	0
 3182 0385 C0       		.byte	-64
 3183 0386 40       		.byte	64
 3184 0387 40       		.byte	64
 3185 0388 40       		.byte	64
 3186 0389 58       		.byte	88
 3187 038a 50       		.byte	80
 3188 038b 60       		.byte	96
 3189 038c 50       		.byte	80
 3190 038d C8       		.byte	-56
 3191 038e 00       		.byte	0
 3192 038f 00       		.byte	0
 3193 0390 00       		.byte	0
 3194 0391 E0       		.byte	-32
 3195 0392 20       		.byte	32
 3196 0393 20       		.byte	32
 3197 0394 20       		.byte	32
 3198 0395 20       		.byte	32
 3199 0396 20       		.byte	32
 3200 0397 20       		.byte	32
 3201 0398 20       		.byte	32
 3202 0399 F8       		.byte	-8
 3203 039a 00       		.byte	0
 3204 039b 00       		.byte	0
 3205 039c 00       		.byte	0
 3206 039d 00       		.byte	0
 3207 039e 00       		.byte	0
 3208 039f 00       		.byte	0
 3209 03a0 00       		.byte	0
 3210 03a1 F0       		.byte	-16
 3211 03a2 A8       		.byte	-88
 3212 03a3 A8       		.byte	-88
 3213 03a4 A8       		.byte	-88
 3214 03a5 A8       		.byte	-88
 3215 03a6 00       		.byte	0
 3216 03a7 00       		.byte	0
 3217 03a8 00       		.byte	0
 3218 03a9 00       		.byte	0
 3219 03aa 00       		.byte	0
 3220 03ab 00       		.byte	0
 3221 03ac 00       		.byte	0
 3222 03ad F0       		.byte	-16
 3223 03ae 48       		.byte	72
 3224 03af 48       		.byte	72
 3225 03b0 48       		.byte	72
 3226 03b1 EC       		.byte	-20
 3227 03b2 00       		.byte	0
 3228 03b3 00       		.byte	0
 3229 03b4 00       		.byte	0
 3230 03b5 00       		.byte	0
 3231 03b6 00       		.byte	0
 3232 03b7 00       		.byte	0
ARM GAS  c:\Users\lenovo\AppData\Local\Temp\cc7gPbIA.s 			page 75


 3233 03b8 00       		.byte	0
 3234 03b9 30       		.byte	48
 3235 03ba 48       		.byte	72
 3236 03bb 48       		.byte	72
 3237 03bc 48       		.byte	72
 3238 03bd 30       		.byte	48
 3239 03be 00       		.byte	0
 3240 03bf 00       		.byte	0
 3241 03c0 00       		.byte	0
 3242 03c1 00       		.byte	0
 3243 03c2 00       		.byte	0
 3244 03c3 00       		.byte	0
 3245 03c4 00       		.byte	0
 3246 03c5 F0       		.byte	-16
 3247 03c6 48       		.byte	72
 3248 03c7 48       		.byte	72
 3249 03c8 48       		.byte	72
 3250 03c9 70       		.byte	112
 3251 03ca 40       		.byte	64
 3252 03cb E0       		.byte	-32
 3253 03cc 00       		.byte	0
 3254 03cd 00       		.byte	0
 3255 03ce 00       		.byte	0
 3256 03cf 00       		.byte	0
 3257 03d0 00       		.byte	0
 3258 03d1 38       		.byte	56
 3259 03d2 48       		.byte	72
 3260 03d3 48       		.byte	72
 3261 03d4 48       		.byte	72
 3262 03d5 38       		.byte	56
 3263 03d6 08       		.byte	8
 3264 03d7 1C       		.byte	28
 3265 03d8 00       		.byte	0
 3266 03d9 00       		.byte	0
 3267 03da 00       		.byte	0
 3268 03db 00       		.byte	0
 3269 03dc 00       		.byte	0
 3270 03dd D8       		.byte	-40
 3271 03de 60       		.byte	96
 3272 03df 40       		.byte	64
 3273 03e0 40       		.byte	64
 3274 03e1 E0       		.byte	-32
 3275 03e2 00       		.byte	0
 3276 03e3 00       		.byte	0
 3277 03e4 00       		.byte	0
 3278 03e5 00       		.byte	0
 3279 03e6 00       		.byte	0
 3280 03e7 00       		.byte	0
 3281 03e8 00       		.byte	0
 3282 03e9 78       		.byte	120
 3283 03ea 40       		.byte	64
 3284 03eb 30       		.byte	48
 3285 03ec 08       		.byte	8
 3286 03ed 78       		.byte	120
 3287 03ee 00       		.byte	0
 3288 03ef 00       		.byte	0
 3289 03f0 00       		.byte	0
ARM GAS  c:\Users\lenovo\AppData\Local\Temp\cc7gPbIA.s 			page 76


 3290 03f1 00       		.byte	0
 3291 03f2 00       		.byte	0
 3292 03f3 20       		.byte	32
 3293 03f4 20       		.byte	32
 3294 03f5 78       		.byte	120
 3295 03f6 20       		.byte	32
 3296 03f7 20       		.byte	32
 3297 03f8 20       		.byte	32
 3298 03f9 38       		.byte	56
 3299 03fa 00       		.byte	0
 3300 03fb 00       		.byte	0
 3301 03fc 00       		.byte	0
 3302 03fd 00       		.byte	0
 3303 03fe 00       		.byte	0
 3304 03ff 00       		.byte	0
 3305 0400 00       		.byte	0
 3306 0401 D8       		.byte	-40
 3307 0402 48       		.byte	72
 3308 0403 48       		.byte	72
 3309 0404 48       		.byte	72
 3310 0405 3C       		.byte	60
 3311 0406 00       		.byte	0
 3312 0407 00       		.byte	0
 3313 0408 00       		.byte	0
 3314 0409 00       		.byte	0
 3315 040a 00       		.byte	0
 3316 040b 00       		.byte	0
 3317 040c 00       		.byte	0
 3318 040d D8       		.byte	-40
 3319 040e 50       		.byte	80
 3320 040f 50       		.byte	80
 3321 0410 20       		.byte	32
 3322 0411 20       		.byte	32
 3323 0412 00       		.byte	0
 3324 0413 00       		.byte	0
 3325 0414 00       		.byte	0
 3326 0415 00       		.byte	0
 3327 0416 00       		.byte	0
 3328 0417 00       		.byte	0
 3329 0418 00       		.byte	0
 3330 0419 A8       		.byte	-88
 3331 041a A8       		.byte	-88
 3332 041b 70       		.byte	112
 3333 041c 50       		.byte	80
 3334 041d 50       		.byte	80
 3335 041e 00       		.byte	0
 3336 041f 00       		.byte	0
 3337 0420 00       		.byte	0
 3338 0421 00       		.byte	0
 3339 0422 00       		.byte	0
 3340 0423 00       		.byte	0
 3341 0424 00       		.byte	0
 3342 0425 D8       		.byte	-40
 3343 0426 50       		.byte	80
 3344 0427 20       		.byte	32
 3345 0428 50       		.byte	80
 3346 0429 D8       		.byte	-40
ARM GAS  c:\Users\lenovo\AppData\Local\Temp\cc7gPbIA.s 			page 77


 3347 042a 00       		.byte	0
 3348 042b 00       		.byte	0
 3349 042c 00       		.byte	0
 3350 042d 00       		.byte	0
 3351 042e 00       		.byte	0
 3352 042f 00       		.byte	0
 3353 0430 00       		.byte	0
 3354 0431 CC       		.byte	-52
 3355 0432 48       		.byte	72
 3356 0433 48       		.byte	72
 3357 0434 30       		.byte	48
 3358 0435 10       		.byte	16
 3359 0436 20       		.byte	32
 3360 0437 C0       		.byte	-64
 3361 0438 00       		.byte	0
 3362 0439 00       		.byte	0
 3363 043a 00       		.byte	0
 3364 043b 00       		.byte	0
 3365 043c 00       		.byte	0
 3366 043d 78       		.byte	120
 3367 043e 10       		.byte	16
 3368 043f 20       		.byte	32
 3369 0440 20       		.byte	32
 3370 0441 78       		.byte	120
 3371 0442 00       		.byte	0
 3372 0443 00       		.byte	0
 3373 0444 18       		.byte	24
 3374 0445 10       		.byte	16
 3375 0446 10       		.byte	16
 3376 0447 10       		.byte	16
 3377 0448 10       		.byte	16
 3378 0449 30       		.byte	48
 3379 044a 10       		.byte	16
 3380 044b 10       		.byte	16
 3381 044c 10       		.byte	16
 3382 044d 10       		.byte	16
 3383 044e 18       		.byte	24
 3384 044f 00       		.byte	0
 3385 0450 10       		.byte	16
 3386 0451 10       		.byte	16
 3387 0452 10       		.byte	16
 3388 0453 10       		.byte	16
 3389 0454 10       		.byte	16
 3390 0455 10       		.byte	16
 3391 0456 10       		.byte	16
 3392 0457 10       		.byte	16
 3393 0458 10       		.byte	16
 3394 0459 10       		.byte	16
 3395 045a 10       		.byte	16
 3396 045b 10       		.byte	16
 3397 045c 60       		.byte	96
 3398 045d 20       		.byte	32
 3399 045e 20       		.byte	32
 3400 045f 20       		.byte	32
 3401 0460 20       		.byte	32
 3402 0461 10       		.byte	16
 3403 0462 20       		.byte	32
ARM GAS  c:\Users\lenovo\AppData\Local\Temp\cc7gPbIA.s 			page 78


 3404 0463 20       		.byte	32
 3405 0464 20       		.byte	32
 3406 0465 20       		.byte	32
 3407 0466 60       		.byte	96
 3408 0467 00       		.byte	0
 3409 0468 68       		.byte	104
 3410 0469 90       		.byte	-112
 3411 046a 00       		.byte	0
 3412 046b 00       		.byte	0
 3413 046c 00       		.byte	0
 3414 046d 00       		.byte	0
 3415 046e 00       		.byte	0
 3416 046f 00       		.byte	0
 3417 0470 00       		.byte	0
 3418 0471 00       		.byte	0
 3419 0472 00       		.byte	0
 3420 0473 00       		.byte	0
 3421              		.section	.rodata.asc2_1608,"a",%progbits
 3422              		.align	2
 3423              		.set	.LANCHOR2,. + 0
 3426              	asc2_1608:
 3427 0000 00       		.byte	0
 3428 0001 00       		.byte	0
 3429 0002 00       		.byte	0
 3430 0003 00       		.byte	0
 3431 0004 00       		.byte	0
 3432 0005 00       		.byte	0
 3433 0006 00       		.byte	0
 3434 0007 00       		.byte	0
 3435 0008 00       		.byte	0
 3436 0009 00       		.byte	0
 3437 000a 00       		.byte	0
 3438 000b 00       		.byte	0
 3439 000c 00       		.byte	0
 3440 000d 00       		.byte	0
 3441 000e 00       		.byte	0
 3442 000f 00       		.byte	0
 3443 0010 00       		.byte	0
 3444 0011 00       		.byte	0
 3445 0012 00       		.byte	0
 3446 0013 10       		.byte	16
 3447 0014 10       		.byte	16
 3448 0015 10       		.byte	16
 3449 0016 10       		.byte	16
 3450 0017 10       		.byte	16
 3451 0018 10       		.byte	16
 3452 0019 10       		.byte	16
 3453 001a 00       		.byte	0
 3454 001b 00       		.byte	0
 3455 001c 10       		.byte	16
 3456 001d 10       		.byte	16
 3457 001e 00       		.byte	0
 3458 001f 00       		.byte	0
 3459 0020 00       		.byte	0
 3460 0021 12       		.byte	18
 3461 0022 24       		.byte	36
 3462 0023 24       		.byte	36
ARM GAS  c:\Users\lenovo\AppData\Local\Temp\cc7gPbIA.s 			page 79


 3463 0024 48       		.byte	72
 3464 0025 00       		.byte	0
 3465 0026 00       		.byte	0
 3466 0027 00       		.byte	0
 3467 0028 00       		.byte	0
 3468 0029 00       		.byte	0
 3469 002a 00       		.byte	0
 3470 002b 00       		.byte	0
 3471 002c 00       		.byte	0
 3472 002d 00       		.byte	0
 3473 002e 00       		.byte	0
 3474 002f 00       		.byte	0
 3475 0030 00       		.byte	0
 3476 0031 00       		.byte	0
 3477 0032 00       		.byte	0
 3478 0033 12       		.byte	18
 3479 0034 12       		.byte	18
 3480 0035 12       		.byte	18
 3481 0036 7E       		.byte	126
 3482 0037 24       		.byte	36
 3483 0038 24       		.byte	36
 3484 0039 24       		.byte	36
 3485 003a 7E       		.byte	126
 3486 003b 24       		.byte	36
 3487 003c 24       		.byte	36
 3488 003d 24       		.byte	36
 3489 003e 00       		.byte	0
 3490 003f 00       		.byte	0
 3491 0040 00       		.byte	0
 3492 0041 00       		.byte	0
 3493 0042 08       		.byte	8
 3494 0043 3C       		.byte	60
 3495 0044 4A       		.byte	74
 3496 0045 4A       		.byte	74
 3497 0046 48       		.byte	72
 3498 0047 38       		.byte	56
 3499 0048 0C       		.byte	12
 3500 0049 0A       		.byte	10
 3501 004a 0A       		.byte	10
 3502 004b 4A       		.byte	74
 3503 004c 4A       		.byte	74
 3504 004d 3C       		.byte	60
 3505 004e 08       		.byte	8
 3506 004f 08       		.byte	8
 3507 0050 00       		.byte	0
 3508 0051 00       		.byte	0
 3509 0052 00       		.byte	0
 3510 0053 44       		.byte	68
 3511 0054 A4       		.byte	-92
 3512 0055 A8       		.byte	-88
 3513 0056 A8       		.byte	-88
 3514 0057 B0       		.byte	-80
 3515 0058 54       		.byte	84
 3516 0059 1A       		.byte	26
 3517 005a 2A       		.byte	42
 3518 005b 2A       		.byte	42
 3519 005c 4A       		.byte	74
ARM GAS  c:\Users\lenovo\AppData\Local\Temp\cc7gPbIA.s 			page 80


 3520 005d 44       		.byte	68
 3521 005e 00       		.byte	0
 3522 005f 00       		.byte	0
 3523 0060 00       		.byte	0
 3524 0061 00       		.byte	0
 3525 0062 00       		.byte	0
 3526 0063 30       		.byte	48
 3527 0064 48       		.byte	72
 3528 0065 48       		.byte	72
 3529 0066 48       		.byte	72
 3530 0067 50       		.byte	80
 3531 0068 6E       		.byte	110
 3532 0069 A4       		.byte	-92
 3533 006a 94       		.byte	-108
 3534 006b 98       		.byte	-104
 3535 006c 89       		.byte	-119
 3536 006d 76       		.byte	118
 3537 006e 00       		.byte	0
 3538 006f 00       		.byte	0
 3539 0070 00       		.byte	0
 3540 0071 60       		.byte	96
 3541 0072 20       		.byte	32
 3542 0073 20       		.byte	32
 3543 0074 40       		.byte	64
 3544 0075 00       		.byte	0
 3545 0076 00       		.byte	0
 3546 0077 00       		.byte	0
 3547 0078 00       		.byte	0
 3548 0079 00       		.byte	0
 3549 007a 00       		.byte	0
 3550 007b 00       		.byte	0
 3551 007c 00       		.byte	0
 3552 007d 00       		.byte	0
 3553 007e 00       		.byte	0
 3554 007f 00       		.byte	0
 3555 0080 00       		.byte	0
 3556 0081 02       		.byte	2
 3557 0082 04       		.byte	4
 3558 0083 08       		.byte	8
 3559 0084 08       		.byte	8
 3560 0085 10       		.byte	16
 3561 0086 10       		.byte	16
 3562 0087 10       		.byte	16
 3563 0088 10       		.byte	16
 3564 0089 10       		.byte	16
 3565 008a 10       		.byte	16
 3566 008b 08       		.byte	8
 3567 008c 08       		.byte	8
 3568 008d 04       		.byte	4
 3569 008e 02       		.byte	2
 3570 008f 00       		.byte	0
 3571 0090 00       		.byte	0
 3572 0091 40       		.byte	64
 3573 0092 20       		.byte	32
 3574 0093 10       		.byte	16
 3575 0094 10       		.byte	16
 3576 0095 08       		.byte	8
ARM GAS  c:\Users\lenovo\AppData\Local\Temp\cc7gPbIA.s 			page 81


 3577 0096 08       		.byte	8
 3578 0097 08       		.byte	8
 3579 0098 08       		.byte	8
 3580 0099 08       		.byte	8
 3581 009a 08       		.byte	8
 3582 009b 10       		.byte	16
 3583 009c 10       		.byte	16
 3584 009d 20       		.byte	32
 3585 009e 40       		.byte	64
 3586 009f 00       		.byte	0
 3587 00a0 00       		.byte	0
 3588 00a1 00       		.byte	0
 3589 00a2 00       		.byte	0
 3590 00a3 00       		.byte	0
 3591 00a4 10       		.byte	16
 3592 00a5 10       		.byte	16
 3593 00a6 D6       		.byte	-42
 3594 00a7 38       		.byte	56
 3595 00a8 38       		.byte	56
 3596 00a9 D6       		.byte	-42
 3597 00aa 10       		.byte	16
 3598 00ab 10       		.byte	16
 3599 00ac 00       		.byte	0
 3600 00ad 00       		.byte	0
 3601 00ae 00       		.byte	0
 3602 00af 00       		.byte	0
 3603 00b0 00       		.byte	0
 3604 00b1 00       		.byte	0
 3605 00b2 00       		.byte	0
 3606 00b3 00       		.byte	0
 3607 00b4 00       		.byte	0
 3608 00b5 08       		.byte	8
 3609 00b6 08       		.byte	8
 3610 00b7 08       		.byte	8
 3611 00b8 7F       		.byte	127
 3612 00b9 08       		.byte	8
 3613 00ba 08       		.byte	8
 3614 00bb 08       		.byte	8
 3615 00bc 00       		.byte	0
 3616 00bd 00       		.byte	0
 3617 00be 00       		.byte	0
 3618 00bf 00       		.byte	0
 3619 00c0 00       		.byte	0
 3620 00c1 00       		.byte	0
 3621 00c2 00       		.byte	0
 3622 00c3 00       		.byte	0
 3623 00c4 00       		.byte	0
 3624 00c5 00       		.byte	0
 3625 00c6 00       		.byte	0
 3626 00c7 00       		.byte	0
 3627 00c8 00       		.byte	0
 3628 00c9 00       		.byte	0
 3629 00ca 00       		.byte	0
 3630 00cb 00       		.byte	0
 3631 00cc 60       		.byte	96
 3632 00cd 20       		.byte	32
 3633 00ce 20       		.byte	32
ARM GAS  c:\Users\lenovo\AppData\Local\Temp\cc7gPbIA.s 			page 82


 3634 00cf 40       		.byte	64
 3635 00d0 00       		.byte	0
 3636 00d1 00       		.byte	0
 3637 00d2 00       		.byte	0
 3638 00d3 00       		.byte	0
 3639 00d4 00       		.byte	0
 3640 00d5 00       		.byte	0
 3641 00d6 00       		.byte	0
 3642 00d7 00       		.byte	0
 3643 00d8 7E       		.byte	126
 3644 00d9 00       		.byte	0
 3645 00da 00       		.byte	0
 3646 00db 00       		.byte	0
 3647 00dc 00       		.byte	0
 3648 00dd 00       		.byte	0
 3649 00de 00       		.byte	0
 3650 00df 00       		.byte	0
 3651 00e0 00       		.byte	0
 3652 00e1 00       		.byte	0
 3653 00e2 00       		.byte	0
 3654 00e3 00       		.byte	0
 3655 00e4 00       		.byte	0
 3656 00e5 00       		.byte	0
 3657 00e6 00       		.byte	0
 3658 00e7 00       		.byte	0
 3659 00e8 00       		.byte	0
 3660 00e9 00       		.byte	0
 3661 00ea 00       		.byte	0
 3662 00eb 00       		.byte	0
 3663 00ec 60       		.byte	96
 3664 00ed 60       		.byte	96
 3665 00ee 00       		.byte	0
 3666 00ef 00       		.byte	0
 3667 00f0 00       		.byte	0
 3668 00f1 00       		.byte	0
 3669 00f2 02       		.byte	2
 3670 00f3 04       		.byte	4
 3671 00f4 04       		.byte	4
 3672 00f5 04       		.byte	4
 3673 00f6 08       		.byte	8
 3674 00f7 08       		.byte	8
 3675 00f8 10       		.byte	16
 3676 00f9 10       		.byte	16
 3677 00fa 10       		.byte	16
 3678 00fb 20       		.byte	32
 3679 00fc 20       		.byte	32
 3680 00fd 40       		.byte	64
 3681 00fe 40       		.byte	64
 3682 00ff 00       		.byte	0
 3683 0100 00       		.byte	0
 3684 0101 00       		.byte	0
 3685 0102 00       		.byte	0
 3686 0103 18       		.byte	24
 3687 0104 24       		.byte	36
 3688 0105 42       		.byte	66
 3689 0106 42       		.byte	66
 3690 0107 42       		.byte	66
ARM GAS  c:\Users\lenovo\AppData\Local\Temp\cc7gPbIA.s 			page 83


 3691 0108 42       		.byte	66
 3692 0109 42       		.byte	66
 3693 010a 42       		.byte	66
 3694 010b 42       		.byte	66
 3695 010c 24       		.byte	36
 3696 010d 18       		.byte	24
 3697 010e 00       		.byte	0
 3698 010f 00       		.byte	0
 3699 0110 00       		.byte	0
 3700 0111 00       		.byte	0
 3701 0112 00       		.byte	0
 3702 0113 08       		.byte	8
 3703 0114 38       		.byte	56
 3704 0115 08       		.byte	8
 3705 0116 08       		.byte	8
 3706 0117 08       		.byte	8
 3707 0118 08       		.byte	8
 3708 0119 08       		.byte	8
 3709 011a 08       		.byte	8
 3710 011b 08       		.byte	8
 3711 011c 08       		.byte	8
 3712 011d 3E       		.byte	62
 3713 011e 00       		.byte	0
 3714 011f 00       		.byte	0
 3715 0120 00       		.byte	0
 3716 0121 00       		.byte	0
 3717 0122 00       		.byte	0
 3718 0123 3C       		.byte	60
 3719 0124 42       		.byte	66
 3720 0125 42       		.byte	66
 3721 0126 42       		.byte	66
 3722 0127 02       		.byte	2
 3723 0128 04       		.byte	4
 3724 0129 08       		.byte	8
 3725 012a 10       		.byte	16
 3726 012b 20       		.byte	32
 3727 012c 42       		.byte	66
 3728 012d 7E       		.byte	126
 3729 012e 00       		.byte	0
 3730 012f 00       		.byte	0
 3731 0130 00       		.byte	0
 3732 0131 00       		.byte	0
 3733 0132 00       		.byte	0
 3734 0133 3C       		.byte	60
 3735 0134 42       		.byte	66
 3736 0135 42       		.byte	66
 3737 0136 02       		.byte	2
 3738 0137 04       		.byte	4
 3739 0138 18       		.byte	24
 3740 0139 04       		.byte	4
 3741 013a 02       		.byte	2
 3742 013b 42       		.byte	66
 3743 013c 42       		.byte	66
 3744 013d 3C       		.byte	60
 3745 013e 00       		.byte	0
 3746 013f 00       		.byte	0
 3747 0140 00       		.byte	0
ARM GAS  c:\Users\lenovo\AppData\Local\Temp\cc7gPbIA.s 			page 84


 3748 0141 00       		.byte	0
 3749 0142 00       		.byte	0
 3750 0143 04       		.byte	4
 3751 0144 0C       		.byte	12
 3752 0145 0C       		.byte	12
 3753 0146 14       		.byte	20
 3754 0147 24       		.byte	36
 3755 0148 24       		.byte	36
 3756 0149 44       		.byte	68
 3757 014a 7F       		.byte	127
 3758 014b 04       		.byte	4
 3759 014c 04       		.byte	4
 3760 014d 1F       		.byte	31
 3761 014e 00       		.byte	0
 3762 014f 00       		.byte	0
 3763 0150 00       		.byte	0
 3764 0151 00       		.byte	0
 3765 0152 00       		.byte	0
 3766 0153 7E       		.byte	126
 3767 0154 40       		.byte	64
 3768 0155 40       		.byte	64
 3769 0156 40       		.byte	64
 3770 0157 78       		.byte	120
 3771 0158 44       		.byte	68
 3772 0159 02       		.byte	2
 3773 015a 02       		.byte	2
 3774 015b 42       		.byte	66
 3775 015c 44       		.byte	68
 3776 015d 38       		.byte	56
 3777 015e 00       		.byte	0
 3778 015f 00       		.byte	0
 3779 0160 00       		.byte	0
 3780 0161 00       		.byte	0
 3781 0162 00       		.byte	0
 3782 0163 18       		.byte	24
 3783 0164 24       		.byte	36
 3784 0165 40       		.byte	64
 3785 0166 40       		.byte	64
 3786 0167 5C       		.byte	92
 3787 0168 62       		.byte	98
 3788 0169 42       		.byte	66
 3789 016a 42       		.byte	66
 3790 016b 42       		.byte	66
 3791 016c 22       		.byte	34
 3792 016d 1C       		.byte	28
 3793 016e 00       		.byte	0
 3794 016f 00       		.byte	0
 3795 0170 00       		.byte	0
 3796 0171 00       		.byte	0
 3797 0172 00       		.byte	0
 3798 0173 7E       		.byte	126
 3799 0174 42       		.byte	66
 3800 0175 04       		.byte	4
 3801 0176 04       		.byte	4
 3802 0177 08       		.byte	8
 3803 0178 08       		.byte	8
 3804 0179 10       		.byte	16
ARM GAS  c:\Users\lenovo\AppData\Local\Temp\cc7gPbIA.s 			page 85


 3805 017a 10       		.byte	16
 3806 017b 10       		.byte	16
 3807 017c 10       		.byte	16
 3808 017d 10       		.byte	16
 3809 017e 00       		.byte	0
 3810 017f 00       		.byte	0
 3811 0180 00       		.byte	0
 3812 0181 00       		.byte	0
 3813 0182 00       		.byte	0
 3814 0183 3C       		.byte	60
 3815 0184 42       		.byte	66
 3816 0185 42       		.byte	66
 3817 0186 42       		.byte	66
 3818 0187 24       		.byte	36
 3819 0188 18       		.byte	24
 3820 0189 24       		.byte	36
 3821 018a 42       		.byte	66
 3822 018b 42       		.byte	66
 3823 018c 42       		.byte	66
 3824 018d 3C       		.byte	60
 3825 018e 00       		.byte	0
 3826 018f 00       		.byte	0
 3827 0190 00       		.byte	0
 3828 0191 00       		.byte	0
 3829 0192 00       		.byte	0
 3830 0193 38       		.byte	56
 3831 0194 44       		.byte	68
 3832 0195 42       		.byte	66
 3833 0196 42       		.byte	66
 3834 0197 42       		.byte	66
 3835 0198 46       		.byte	70
 3836 0199 3A       		.byte	58
 3837 019a 02       		.byte	2
 3838 019b 02       		.byte	2
 3839 019c 24       		.byte	36
 3840 019d 18       		.byte	24
 3841 019e 00       		.byte	0
 3842 019f 00       		.byte	0
 3843 01a0 00       		.byte	0
 3844 01a1 00       		.byte	0
 3845 01a2 00       		.byte	0
 3846 01a3 00       		.byte	0
 3847 01a4 00       		.byte	0
 3848 01a5 00       		.byte	0
 3849 01a6 18       		.byte	24
 3850 01a7 18       		.byte	24
 3851 01a8 00       		.byte	0
 3852 01a9 00       		.byte	0
 3853 01aa 00       		.byte	0
 3854 01ab 00       		.byte	0
 3855 01ac 18       		.byte	24
 3856 01ad 18       		.byte	24
 3857 01ae 00       		.byte	0
 3858 01af 00       		.byte	0
 3859 01b0 00       		.byte	0
 3860 01b1 00       		.byte	0
 3861 01b2 00       		.byte	0
ARM GAS  c:\Users\lenovo\AppData\Local\Temp\cc7gPbIA.s 			page 86


 3862 01b3 00       		.byte	0
 3863 01b4 00       		.byte	0
 3864 01b5 00       		.byte	0
 3865 01b6 00       		.byte	0
 3866 01b7 10       		.byte	16
 3867 01b8 00       		.byte	0
 3868 01b9 00       		.byte	0
 3869 01ba 00       		.byte	0
 3870 01bb 00       		.byte	0
 3871 01bc 00       		.byte	0
 3872 01bd 10       		.byte	16
 3873 01be 10       		.byte	16
 3874 01bf 10       		.byte	16
 3875 01c0 00       		.byte	0
 3876 01c1 00       		.byte	0
 3877 01c2 00       		.byte	0
 3878 01c3 02       		.byte	2
 3879 01c4 04       		.byte	4
 3880 01c5 08       		.byte	8
 3881 01c6 10       		.byte	16
 3882 01c7 20       		.byte	32
 3883 01c8 40       		.byte	64
 3884 01c9 20       		.byte	32
 3885 01ca 10       		.byte	16
 3886 01cb 08       		.byte	8
 3887 01cc 04       		.byte	4
 3888 01cd 02       		.byte	2
 3889 01ce 00       		.byte	0
 3890 01cf 00       		.byte	0
 3891 01d0 00       		.byte	0
 3892 01d1 00       		.byte	0
 3893 01d2 00       		.byte	0
 3894 01d3 00       		.byte	0
 3895 01d4 00       		.byte	0
 3896 01d5 00       		.byte	0
 3897 01d6 7E       		.byte	126
 3898 01d7 00       		.byte	0
 3899 01d8 00       		.byte	0
 3900 01d9 7E       		.byte	126
 3901 01da 00       		.byte	0
 3902 01db 00       		.byte	0
 3903 01dc 00       		.byte	0
 3904 01dd 00       		.byte	0
 3905 01de 00       		.byte	0
 3906 01df 00       		.byte	0
 3907 01e0 00       		.byte	0
 3908 01e1 00       		.byte	0
 3909 01e2 00       		.byte	0
 3910 01e3 40       		.byte	64
 3911 01e4 20       		.byte	32
 3912 01e5 10       		.byte	16
 3913 01e6 08       		.byte	8
 3914 01e7 04       		.byte	4
 3915 01e8 02       		.byte	2
 3916 01e9 04       		.byte	4
 3917 01ea 08       		.byte	8
 3918 01eb 10       		.byte	16
ARM GAS  c:\Users\lenovo\AppData\Local\Temp\cc7gPbIA.s 			page 87


 3919 01ec 20       		.byte	32
 3920 01ed 40       		.byte	64
 3921 01ee 00       		.byte	0
 3922 01ef 00       		.byte	0
 3923 01f0 00       		.byte	0
 3924 01f1 00       		.byte	0
 3925 01f2 00       		.byte	0
 3926 01f3 3C       		.byte	60
 3927 01f4 42       		.byte	66
 3928 01f5 42       		.byte	66
 3929 01f6 62       		.byte	98
 3930 01f7 04       		.byte	4
 3931 01f8 08       		.byte	8
 3932 01f9 08       		.byte	8
 3933 01fa 08       		.byte	8
 3934 01fb 00       		.byte	0
 3935 01fc 18       		.byte	24
 3936 01fd 18       		.byte	24
 3937 01fe 00       		.byte	0
 3938 01ff 00       		.byte	0
 3939 0200 00       		.byte	0
 3940 0201 00       		.byte	0
 3941 0202 00       		.byte	0
 3942 0203 38       		.byte	56
 3943 0204 44       		.byte	68
 3944 0205 5A       		.byte	90
 3945 0206 AA       		.byte	-86
 3946 0207 AA       		.byte	-86
 3947 0208 AA       		.byte	-86
 3948 0209 AA       		.byte	-86
 3949 020a AA       		.byte	-86
 3950 020b 5C       		.byte	92
 3951 020c 42       		.byte	66
 3952 020d 3C       		.byte	60
 3953 020e 00       		.byte	0
 3954 020f 00       		.byte	0
 3955 0210 00       		.byte	0
 3956 0211 00       		.byte	0
 3957 0212 00       		.byte	0
 3958 0213 10       		.byte	16
 3959 0214 10       		.byte	16
 3960 0215 18       		.byte	24
 3961 0216 28       		.byte	40
 3962 0217 28       		.byte	40
 3963 0218 24       		.byte	36
 3964 0219 3C       		.byte	60
 3965 021a 44       		.byte	68
 3966 021b 42       		.byte	66
 3967 021c 42       		.byte	66
 3968 021d E7       		.byte	-25
 3969 021e 00       		.byte	0
 3970 021f 00       		.byte	0
 3971 0220 00       		.byte	0
 3972 0221 00       		.byte	0
 3973 0222 00       		.byte	0
 3974 0223 F8       		.byte	-8
 3975 0224 44       		.byte	68
ARM GAS  c:\Users\lenovo\AppData\Local\Temp\cc7gPbIA.s 			page 88


 3976 0225 44       		.byte	68
 3977 0226 44       		.byte	68
 3978 0227 78       		.byte	120
 3979 0228 44       		.byte	68
 3980 0229 42       		.byte	66
 3981 022a 42       		.byte	66
 3982 022b 42       		.byte	66
 3983 022c 44       		.byte	68
 3984 022d F8       		.byte	-8
 3985 022e 00       		.byte	0
 3986 022f 00       		.byte	0
 3987 0230 00       		.byte	0
 3988 0231 00       		.byte	0
 3989 0232 00       		.byte	0
 3990 0233 3E       		.byte	62
 3991 0234 42       		.byte	66
 3992 0235 42       		.byte	66
 3993 0236 80       		.byte	-128
 3994 0237 80       		.byte	-128
 3995 0238 80       		.byte	-128
 3996 0239 80       		.byte	-128
 3997 023a 80       		.byte	-128
 3998 023b 42       		.byte	66
 3999 023c 44       		.byte	68
 4000 023d 38       		.byte	56
 4001 023e 00       		.byte	0
 4002 023f 00       		.byte	0
 4003 0240 00       		.byte	0
 4004 0241 00       		.byte	0
 4005 0242 00       		.byte	0
 4006 0243 F8       		.byte	-8
 4007 0244 44       		.byte	68
 4008 0245 42       		.byte	66
 4009 0246 42       		.byte	66
 4010 0247 42       		.byte	66
 4011 0248 42       		.byte	66
 4012 0249 42       		.byte	66
 4013 024a 42       		.byte	66
 4014 024b 42       		.byte	66
 4015 024c 44       		.byte	68
 4016 024d F8       		.byte	-8
 4017 024e 00       		.byte	0
 4018 024f 00       		.byte	0
 4019 0250 00       		.byte	0
 4020 0251 00       		.byte	0
 4021 0252 00       		.byte	0
 4022 0253 FC       		.byte	-4
 4023 0254 42       		.byte	66
 4024 0255 48       		.byte	72
 4025 0256 48       		.byte	72
 4026 0257 78       		.byte	120
 4027 0258 48       		.byte	72
 4028 0259 48       		.byte	72
 4029 025a 40       		.byte	64
 4030 025b 42       		.byte	66
 4031 025c 42       		.byte	66
 4032 025d FC       		.byte	-4
ARM GAS  c:\Users\lenovo\AppData\Local\Temp\cc7gPbIA.s 			page 89


 4033 025e 00       		.byte	0
 4034 025f 00       		.byte	0
 4035 0260 00       		.byte	0
 4036 0261 00       		.byte	0
 4037 0262 00       		.byte	0
 4038 0263 FC       		.byte	-4
 4039 0264 42       		.byte	66
 4040 0265 48       		.byte	72
 4041 0266 48       		.byte	72
 4042 0267 78       		.byte	120
 4043 0268 48       		.byte	72
 4044 0269 48       		.byte	72
 4045 026a 40       		.byte	64
 4046 026b 40       		.byte	64
 4047 026c 40       		.byte	64
 4048 026d E0       		.byte	-32
 4049 026e 00       		.byte	0
 4050 026f 00       		.byte	0
 4051 0270 00       		.byte	0
 4052 0271 00       		.byte	0
 4053 0272 00       		.byte	0
 4054 0273 3C       		.byte	60
 4055 0274 44       		.byte	68
 4056 0275 44       		.byte	68
 4057 0276 80       		.byte	-128
 4058 0277 80       		.byte	-128
 4059 0278 80       		.byte	-128
 4060 0279 8E       		.byte	-114
 4061 027a 84       		.byte	-124
 4062 027b 44       		.byte	68
 4063 027c 44       		.byte	68
 4064 027d 38       		.byte	56
 4065 027e 00       		.byte	0
 4066 027f 00       		.byte	0
 4067 0280 00       		.byte	0
 4068 0281 00       		.byte	0
 4069 0282 00       		.byte	0
 4070 0283 E7       		.byte	-25
 4071 0284 42       		.byte	66
 4072 0285 42       		.byte	66
 4073 0286 42       		.byte	66
 4074 0287 42       		.byte	66
 4075 0288 7E       		.byte	126
 4076 0289 42       		.byte	66
 4077 028a 42       		.byte	66
 4078 028b 42       		.byte	66
 4079 028c 42       		.byte	66
 4080 028d E7       		.byte	-25
 4081 028e 00       		.byte	0
 4082 028f 00       		.byte	0
 4083 0290 00       		.byte	0
 4084 0291 00       		.byte	0
 4085 0292 00       		.byte	0
 4086 0293 7C       		.byte	124
 4087 0294 10       		.byte	16
 4088 0295 10       		.byte	16
 4089 0296 10       		.byte	16
ARM GAS  c:\Users\lenovo\AppData\Local\Temp\cc7gPbIA.s 			page 90


 4090 0297 10       		.byte	16
 4091 0298 10       		.byte	16
 4092 0299 10       		.byte	16
 4093 029a 10       		.byte	16
 4094 029b 10       		.byte	16
 4095 029c 10       		.byte	16
 4096 029d 7C       		.byte	124
 4097 029e 00       		.byte	0
 4098 029f 00       		.byte	0
 4099 02a0 00       		.byte	0
 4100 02a1 00       		.byte	0
 4101 02a2 00       		.byte	0
 4102 02a3 3E       		.byte	62
 4103 02a4 08       		.byte	8
 4104 02a5 08       		.byte	8
 4105 02a6 08       		.byte	8
 4106 02a7 08       		.byte	8
 4107 02a8 08       		.byte	8
 4108 02a9 08       		.byte	8
 4109 02aa 08       		.byte	8
 4110 02ab 08       		.byte	8
 4111 02ac 08       		.byte	8
 4112 02ad 08       		.byte	8
 4113 02ae 88       		.byte	-120
 4114 02af F0       		.byte	-16
 4115 02b0 00       		.byte	0
 4116 02b1 00       		.byte	0
 4117 02b2 00       		.byte	0
 4118 02b3 EE       		.byte	-18
 4119 02b4 44       		.byte	68
 4120 02b5 48       		.byte	72
 4121 02b6 50       		.byte	80
 4122 02b7 70       		.byte	112
 4123 02b8 50       		.byte	80
 4124 02b9 48       		.byte	72
 4125 02ba 48       		.byte	72
 4126 02bb 44       		.byte	68
 4127 02bc 44       		.byte	68
 4128 02bd EE       		.byte	-18
 4129 02be 00       		.byte	0
 4130 02bf 00       		.byte	0
 4131 02c0 00       		.byte	0
 4132 02c1 00       		.byte	0
 4133 02c2 00       		.byte	0
 4134 02c3 E0       		.byte	-32
 4135 02c4 40       		.byte	64
 4136 02c5 40       		.byte	64
 4137 02c6 40       		.byte	64
 4138 02c7 40       		.byte	64
 4139 02c8 40       		.byte	64
 4140 02c9 40       		.byte	64
 4141 02ca 40       		.byte	64
 4142 02cb 40       		.byte	64
 4143 02cc 42       		.byte	66
 4144 02cd FE       		.byte	-2
 4145 02ce 00       		.byte	0
 4146 02cf 00       		.byte	0
ARM GAS  c:\Users\lenovo\AppData\Local\Temp\cc7gPbIA.s 			page 91


 4147 02d0 00       		.byte	0
 4148 02d1 00       		.byte	0
 4149 02d2 00       		.byte	0
 4150 02d3 EE       		.byte	-18
 4151 02d4 6C       		.byte	108
 4152 02d5 6C       		.byte	108
 4153 02d6 6C       		.byte	108
 4154 02d7 6C       		.byte	108
 4155 02d8 6C       		.byte	108
 4156 02d9 54       		.byte	84
 4157 02da 54       		.byte	84
 4158 02db 54       		.byte	84
 4159 02dc 54       		.byte	84
 4160 02dd D6       		.byte	-42
 4161 02de 00       		.byte	0
 4162 02df 00       		.byte	0
 4163 02e0 00       		.byte	0
 4164 02e1 00       		.byte	0
 4165 02e2 00       		.byte	0
 4166 02e3 C7       		.byte	-57
 4167 02e4 62       		.byte	98
 4168 02e5 62       		.byte	98
 4169 02e6 52       		.byte	82
 4170 02e7 52       		.byte	82
 4171 02e8 4A       		.byte	74
 4172 02e9 4A       		.byte	74
 4173 02ea 4A       		.byte	74
 4174 02eb 46       		.byte	70
 4175 02ec 46       		.byte	70
 4176 02ed E2       		.byte	-30
 4177 02ee 00       		.byte	0
 4178 02ef 00       		.byte	0
 4179 02f0 00       		.byte	0
 4180 02f1 00       		.byte	0
 4181 02f2 00       		.byte	0
 4182 02f3 38       		.byte	56
 4183 02f4 44       		.byte	68
 4184 02f5 82       		.byte	-126
 4185 02f6 82       		.byte	-126
 4186 02f7 82       		.byte	-126
 4187 02f8 82       		.byte	-126
 4188 02f9 82       		.byte	-126
 4189 02fa 82       		.byte	-126
 4190 02fb 82       		.byte	-126
 4191 02fc 44       		.byte	68
 4192 02fd 38       		.byte	56
 4193 02fe 00       		.byte	0
 4194 02ff 00       		.byte	0
 4195 0300 00       		.byte	0
 4196 0301 00       		.byte	0
 4197 0302 00       		.byte	0
 4198 0303 FC       		.byte	-4
 4199 0304 42       		.byte	66
 4200 0305 42       		.byte	66
 4201 0306 42       		.byte	66
 4202 0307 42       		.byte	66
 4203 0308 7C       		.byte	124
ARM GAS  c:\Users\lenovo\AppData\Local\Temp\cc7gPbIA.s 			page 92


 4204 0309 40       		.byte	64
 4205 030a 40       		.byte	64
 4206 030b 40       		.byte	64
 4207 030c 40       		.byte	64
 4208 030d E0       		.byte	-32
 4209 030e 00       		.byte	0
 4210 030f 00       		.byte	0
 4211 0310 00       		.byte	0
 4212 0311 00       		.byte	0
 4213 0312 00       		.byte	0
 4214 0313 38       		.byte	56
 4215 0314 44       		.byte	68
 4216 0315 82       		.byte	-126
 4217 0316 82       		.byte	-126
 4218 0317 82       		.byte	-126
 4219 0318 82       		.byte	-126
 4220 0319 82       		.byte	-126
 4221 031a 82       		.byte	-126
 4222 031b B2       		.byte	-78
 4223 031c 4C       		.byte	76
 4224 031d 38       		.byte	56
 4225 031e 06       		.byte	6
 4226 031f 00       		.byte	0
 4227 0320 00       		.byte	0
 4228 0321 00       		.byte	0
 4229 0322 00       		.byte	0
 4230 0323 FC       		.byte	-4
 4231 0324 42       		.byte	66
 4232 0325 42       		.byte	66
 4233 0326 42       		.byte	66
 4234 0327 7C       		.byte	124
 4235 0328 48       		.byte	72
 4236 0329 48       		.byte	72
 4237 032a 44       		.byte	68
 4238 032b 44       		.byte	68
 4239 032c 42       		.byte	66
 4240 032d E3       		.byte	-29
 4241 032e 00       		.byte	0
 4242 032f 00       		.byte	0
 4243 0330 00       		.byte	0
 4244 0331 00       		.byte	0
 4245 0332 00       		.byte	0
 4246 0333 3E       		.byte	62
 4247 0334 42       		.byte	66
 4248 0335 42       		.byte	66
 4249 0336 40       		.byte	64
 4250 0337 20       		.byte	32
 4251 0338 18       		.byte	24
 4252 0339 04       		.byte	4
 4253 033a 02       		.byte	2
 4254 033b 42       		.byte	66
 4255 033c 42       		.byte	66
 4256 033d 7C       		.byte	124
 4257 033e 00       		.byte	0
 4258 033f 00       		.byte	0
 4259 0340 00       		.byte	0
 4260 0341 00       		.byte	0
ARM GAS  c:\Users\lenovo\AppData\Local\Temp\cc7gPbIA.s 			page 93


 4261 0342 00       		.byte	0
 4262 0343 FE       		.byte	-2
 4263 0344 92       		.byte	-110
 4264 0345 10       		.byte	16
 4265 0346 10       		.byte	16
 4266 0347 10       		.byte	16
 4267 0348 10       		.byte	16
 4268 0349 10       		.byte	16
 4269 034a 10       		.byte	16
 4270 034b 10       		.byte	16
 4271 034c 10       		.byte	16
 4272 034d 38       		.byte	56
 4273 034e 00       		.byte	0
 4274 034f 00       		.byte	0
 4275 0350 00       		.byte	0
 4276 0351 00       		.byte	0
 4277 0352 00       		.byte	0
 4278 0353 E7       		.byte	-25
 4279 0354 42       		.byte	66
 4280 0355 42       		.byte	66
 4281 0356 42       		.byte	66
 4282 0357 42       		.byte	66
 4283 0358 42       		.byte	66
 4284 0359 42       		.byte	66
 4285 035a 42       		.byte	66
 4286 035b 42       		.byte	66
 4287 035c 42       		.byte	66
 4288 035d 3C       		.byte	60
 4289 035e 00       		.byte	0
 4290 035f 00       		.byte	0
 4291 0360 00       		.byte	0
 4292 0361 00       		.byte	0
 4293 0362 00       		.byte	0
 4294 0363 E7       		.byte	-25
 4295 0364 42       		.byte	66
 4296 0365 42       		.byte	66
 4297 0366 44       		.byte	68
 4298 0367 24       		.byte	36
 4299 0368 24       		.byte	36
 4300 0369 28       		.byte	40
 4301 036a 28       		.byte	40
 4302 036b 18       		.byte	24
 4303 036c 10       		.byte	16
 4304 036d 10       		.byte	16
 4305 036e 00       		.byte	0
 4306 036f 00       		.byte	0
 4307 0370 00       		.byte	0
 4308 0371 00       		.byte	0
 4309 0372 00       		.byte	0
 4310 0373 D6       		.byte	-42
 4311 0374 54       		.byte	84
 4312 0375 54       		.byte	84
 4313 0376 54       		.byte	84
 4314 0377 54       		.byte	84
 4315 0378 54       		.byte	84
 4316 0379 6C       		.byte	108
 4317 037a 28       		.byte	40
ARM GAS  c:\Users\lenovo\AppData\Local\Temp\cc7gPbIA.s 			page 94


 4318 037b 28       		.byte	40
 4319 037c 28       		.byte	40
 4320 037d 28       		.byte	40
 4321 037e 00       		.byte	0
 4322 037f 00       		.byte	0
 4323 0380 00       		.byte	0
 4324 0381 00       		.byte	0
 4325 0382 00       		.byte	0
 4326 0383 E7       		.byte	-25
 4327 0384 42       		.byte	66
 4328 0385 24       		.byte	36
 4329 0386 24       		.byte	36
 4330 0387 18       		.byte	24
 4331 0388 18       		.byte	24
 4332 0389 18       		.byte	24
 4333 038a 24       		.byte	36
 4334 038b 24       		.byte	36
 4335 038c 42       		.byte	66
 4336 038d E7       		.byte	-25
 4337 038e 00       		.byte	0
 4338 038f 00       		.byte	0
 4339 0390 00       		.byte	0
 4340 0391 00       		.byte	0
 4341 0392 00       		.byte	0
 4342 0393 EE       		.byte	-18
 4343 0394 44       		.byte	68
 4344 0395 44       		.byte	68
 4345 0396 28       		.byte	40
 4346 0397 28       		.byte	40
 4347 0398 10       		.byte	16
 4348 0399 10       		.byte	16
 4349 039a 10       		.byte	16
 4350 039b 10       		.byte	16
 4351 039c 10       		.byte	16
 4352 039d 38       		.byte	56
 4353 039e 00       		.byte	0
 4354 039f 00       		.byte	0
 4355 03a0 00       		.byte	0
 4356 03a1 00       		.byte	0
 4357 03a2 00       		.byte	0
 4358 03a3 7E       		.byte	126
 4359 03a4 84       		.byte	-124
 4360 03a5 04       		.byte	4
 4361 03a6 08       		.byte	8
 4362 03a7 08       		.byte	8
 4363 03a8 10       		.byte	16
 4364 03a9 20       		.byte	32
 4365 03aa 20       		.byte	32
 4366 03ab 42       		.byte	66
 4367 03ac 42       		.byte	66
 4368 03ad FC       		.byte	-4
 4369 03ae 00       		.byte	0
 4370 03af 00       		.byte	0
 4371 03b0 00       		.byte	0
 4372 03b1 1E       		.byte	30
 4373 03b2 10       		.byte	16
 4374 03b3 10       		.byte	16
ARM GAS  c:\Users\lenovo\AppData\Local\Temp\cc7gPbIA.s 			page 95


 4375 03b4 10       		.byte	16
 4376 03b5 10       		.byte	16
 4377 03b6 10       		.byte	16
 4378 03b7 10       		.byte	16
 4379 03b8 10       		.byte	16
 4380 03b9 10       		.byte	16
 4381 03ba 10       		.byte	16
 4382 03bb 10       		.byte	16
 4383 03bc 10       		.byte	16
 4384 03bd 10       		.byte	16
 4385 03be 1E       		.byte	30
 4386 03bf 00       		.byte	0
 4387 03c0 00       		.byte	0
 4388 03c1 00       		.byte	0
 4389 03c2 40       		.byte	64
 4390 03c3 20       		.byte	32
 4391 03c4 20       		.byte	32
 4392 03c5 20       		.byte	32
 4393 03c6 10       		.byte	16
 4394 03c7 10       		.byte	16
 4395 03c8 10       		.byte	16
 4396 03c9 08       		.byte	8
 4397 03ca 08       		.byte	8
 4398 03cb 04       		.byte	4
 4399 03cc 04       		.byte	4
 4400 03cd 04       		.byte	4
 4401 03ce 02       		.byte	2
 4402 03cf 02       		.byte	2
 4403 03d0 00       		.byte	0
 4404 03d1 78       		.byte	120
 4405 03d2 08       		.byte	8
 4406 03d3 08       		.byte	8
 4407 03d4 08       		.byte	8
 4408 03d5 08       		.byte	8
 4409 03d6 08       		.byte	8
 4410 03d7 08       		.byte	8
 4411 03d8 08       		.byte	8
 4412 03d9 08       		.byte	8
 4413 03da 08       		.byte	8
 4414 03db 08       		.byte	8
 4415 03dc 08       		.byte	8
 4416 03dd 08       		.byte	8
 4417 03de 78       		.byte	120
 4418 03df 00       		.byte	0
 4419 03e0 00       		.byte	0
 4420 03e1 18       		.byte	24
 4421 03e2 24       		.byte	36
 4422 03e3 00       		.byte	0
 4423 03e4 00       		.byte	0
 4424 03e5 00       		.byte	0
 4425 03e6 00       		.byte	0
 4426 03e7 00       		.byte	0
 4427 03e8 00       		.byte	0
 4428 03e9 00       		.byte	0
 4429 03ea 00       		.byte	0
 4430 03eb 00       		.byte	0
 4431 03ec 00       		.byte	0
ARM GAS  c:\Users\lenovo\AppData\Local\Temp\cc7gPbIA.s 			page 96


 4432 03ed 00       		.byte	0
 4433 03ee 00       		.byte	0
 4434 03ef 00       		.byte	0
 4435 03f0 00       		.byte	0
 4436 03f1 00       		.byte	0
 4437 03f2 00       		.byte	0
 4438 03f3 00       		.byte	0
 4439 03f4 00       		.byte	0
 4440 03f5 00       		.byte	0
 4441 03f6 00       		.byte	0
 4442 03f7 00       		.byte	0
 4443 03f8 00       		.byte	0
 4444 03f9 00       		.byte	0
 4445 03fa 00       		.byte	0
 4446 03fb 00       		.byte	0
 4447 03fc 00       		.byte	0
 4448 03fd 00       		.byte	0
 4449 03fe 00       		.byte	0
 4450 03ff FF       		.byte	-1
 4451 0400 00       		.byte	0
 4452 0401 60       		.byte	96
 4453 0402 10       		.byte	16
 4454 0403 00       		.byte	0
 4455 0404 00       		.byte	0
 4456 0405 00       		.byte	0
 4457 0406 00       		.byte	0
 4458 0407 00       		.byte	0
 4459 0408 00       		.byte	0
 4460 0409 00       		.byte	0
 4461 040a 00       		.byte	0
 4462 040b 00       		.byte	0
 4463 040c 00       		.byte	0
 4464 040d 00       		.byte	0
 4465 040e 00       		.byte	0
 4466 040f 00       		.byte	0
 4467 0410 00       		.byte	0
 4468 0411 00       		.byte	0
 4469 0412 00       		.byte	0
 4470 0413 00       		.byte	0
 4471 0414 00       		.byte	0
 4472 0415 00       		.byte	0
 4473 0416 00       		.byte	0
 4474 0417 38       		.byte	56
 4475 0418 44       		.byte	68
 4476 0419 0C       		.byte	12
 4477 041a 34       		.byte	52
 4478 041b 44       		.byte	68
 4479 041c 4C       		.byte	76
 4480 041d 36       		.byte	54
 4481 041e 00       		.byte	0
 4482 041f 00       		.byte	0
 4483 0420 00       		.byte	0
 4484 0421 00       		.byte	0
 4485 0422 00       		.byte	0
 4486 0423 00       		.byte	0
 4487 0424 C0       		.byte	-64
 4488 0425 40       		.byte	64
ARM GAS  c:\Users\lenovo\AppData\Local\Temp\cc7gPbIA.s 			page 97


 4489 0426 40       		.byte	64
 4490 0427 58       		.byte	88
 4491 0428 64       		.byte	100
 4492 0429 42       		.byte	66
 4493 042a 42       		.byte	66
 4494 042b 42       		.byte	66
 4495 042c 64       		.byte	100
 4496 042d 58       		.byte	88
 4497 042e 00       		.byte	0
 4498 042f 00       		.byte	0
 4499 0430 00       		.byte	0
 4500 0431 00       		.byte	0
 4501 0432 00       		.byte	0
 4502 0433 00       		.byte	0
 4503 0434 00       		.byte	0
 4504 0435 00       		.byte	0
 4505 0436 00       		.byte	0
 4506 0437 1C       		.byte	28
 4507 0438 22       		.byte	34
 4508 0439 40       		.byte	64
 4509 043a 40       		.byte	64
 4510 043b 40       		.byte	64
 4511 043c 22       		.byte	34
 4512 043d 1C       		.byte	28
 4513 043e 00       		.byte	0
 4514 043f 00       		.byte	0
 4515 0440 00       		.byte	0
 4516 0441 00       		.byte	0
 4517 0442 00       		.byte	0
 4518 0443 00       		.byte	0
 4519 0444 06       		.byte	6
 4520 0445 02       		.byte	2
 4521 0446 02       		.byte	2
 4522 0447 3E       		.byte	62
 4523 0448 42       		.byte	66
 4524 0449 42       		.byte	66
 4525 044a 42       		.byte	66
 4526 044b 42       		.byte	66
 4527 044c 46       		.byte	70
 4528 044d 3B       		.byte	59
 4529 044e 00       		.byte	0
 4530 044f 00       		.byte	0
 4531 0450 00       		.byte	0
 4532 0451 00       		.byte	0
 4533 0452 00       		.byte	0
 4534 0453 00       		.byte	0
 4535 0454 00       		.byte	0
 4536 0455 00       		.byte	0
 4537 0456 00       		.byte	0
 4538 0457 3C       		.byte	60
 4539 0458 42       		.byte	66
 4540 0459 42       		.byte	66
 4541 045a 7E       		.byte	126
 4542 045b 40       		.byte	64
 4543 045c 42       		.byte	66
 4544 045d 3C       		.byte	60
 4545 045e 00       		.byte	0
ARM GAS  c:\Users\lenovo\AppData\Local\Temp\cc7gPbIA.s 			page 98


 4546 045f 00       		.byte	0
 4547 0460 00       		.byte	0
 4548 0461 00       		.byte	0
 4549 0462 00       		.byte	0
 4550 0463 00       		.byte	0
 4551 0464 0C       		.byte	12
 4552 0465 12       		.byte	18
 4553 0466 10       		.byte	16
 4554 0467 7C       		.byte	124
 4555 0468 10       		.byte	16
 4556 0469 10       		.byte	16
 4557 046a 10       		.byte	16
 4558 046b 10       		.byte	16
 4559 046c 10       		.byte	16
 4560 046d 7C       		.byte	124
 4561 046e 00       		.byte	0
 4562 046f 00       		.byte	0
 4563 0470 00       		.byte	0
 4564 0471 00       		.byte	0
 4565 0472 00       		.byte	0
 4566 0473 00       		.byte	0
 4567 0474 00       		.byte	0
 4568 0475 00       		.byte	0
 4569 0476 00       		.byte	0
 4570 0477 3E       		.byte	62
 4571 0478 44       		.byte	68
 4572 0479 44       		.byte	68
 4573 047a 38       		.byte	56
 4574 047b 40       		.byte	64
 4575 047c 3C       		.byte	60
 4576 047d 42       		.byte	66
 4577 047e 42       		.byte	66
 4578 047f 3C       		.byte	60
 4579 0480 00       		.byte	0
 4580 0481 00       		.byte	0
 4581 0482 00       		.byte	0
 4582 0483 00       		.byte	0
 4583 0484 C0       		.byte	-64
 4584 0485 40       		.byte	64
 4585 0486 40       		.byte	64
 4586 0487 5C       		.byte	92
 4587 0488 62       		.byte	98
 4588 0489 42       		.byte	66
 4589 048a 42       		.byte	66
 4590 048b 42       		.byte	66
 4591 048c 42       		.byte	66
 4592 048d E7       		.byte	-25
 4593 048e 00       		.byte	0
 4594 048f 00       		.byte	0
 4595 0490 00       		.byte	0
 4596 0491 00       		.byte	0
 4597 0492 00       		.byte	0
 4598 0493 30       		.byte	48
 4599 0494 30       		.byte	48
 4600 0495 00       		.byte	0
 4601 0496 00       		.byte	0
 4602 0497 70       		.byte	112
ARM GAS  c:\Users\lenovo\AppData\Local\Temp\cc7gPbIA.s 			page 99


 4603 0498 10       		.byte	16
 4604 0499 10       		.byte	16
 4605 049a 10       		.byte	16
 4606 049b 10       		.byte	16
 4607 049c 10       		.byte	16
 4608 049d 7C       		.byte	124
 4609 049e 00       		.byte	0
 4610 049f 00       		.byte	0
 4611 04a0 00       		.byte	0
 4612 04a1 00       		.byte	0
 4613 04a2 00       		.byte	0
 4614 04a3 0C       		.byte	12
 4615 04a4 0C       		.byte	12
 4616 04a5 00       		.byte	0
 4617 04a6 00       		.byte	0
 4618 04a7 1C       		.byte	28
 4619 04a8 04       		.byte	4
 4620 04a9 04       		.byte	4
 4621 04aa 04       		.byte	4
 4622 04ab 04       		.byte	4
 4623 04ac 04       		.byte	4
 4624 04ad 04       		.byte	4
 4625 04ae 44       		.byte	68
 4626 04af 78       		.byte	120
 4627 04b0 00       		.byte	0
 4628 04b1 00       		.byte	0
 4629 04b2 00       		.byte	0
 4630 04b3 00       		.byte	0
 4631 04b4 C0       		.byte	-64
 4632 04b5 40       		.byte	64
 4633 04b6 40       		.byte	64
 4634 04b7 4E       		.byte	78
 4635 04b8 48       		.byte	72
 4636 04b9 50       		.byte	80
 4637 04ba 70       		.byte	112
 4638 04bb 48       		.byte	72
 4639 04bc 44       		.byte	68
 4640 04bd EE       		.byte	-18
 4641 04be 00       		.byte	0
 4642 04bf 00       		.byte	0
 4643 04c0 00       		.byte	0
 4644 04c1 00       		.byte	0
 4645 04c2 00       		.byte	0
 4646 04c3 10       		.byte	16
 4647 04c4 70       		.byte	112
 4648 04c5 10       		.byte	16
 4649 04c6 10       		.byte	16
 4650 04c7 10       		.byte	16
 4651 04c8 10       		.byte	16
 4652 04c9 10       		.byte	16
 4653 04ca 10       		.byte	16
 4654 04cb 10       		.byte	16
 4655 04cc 10       		.byte	16
 4656 04cd 7C       		.byte	124
 4657 04ce 00       		.byte	0
 4658 04cf 00       		.byte	0
 4659 04d0 00       		.byte	0
ARM GAS  c:\Users\lenovo\AppData\Local\Temp\cc7gPbIA.s 			page 100


 4660 04d1 00       		.byte	0
 4661 04d2 00       		.byte	0
 4662 04d3 00       		.byte	0
 4663 04d4 00       		.byte	0
 4664 04d5 00       		.byte	0
 4665 04d6 00       		.byte	0
 4666 04d7 FE       		.byte	-2
 4667 04d8 49       		.byte	73
 4668 04d9 49       		.byte	73
 4669 04da 49       		.byte	73
 4670 04db 49       		.byte	73
 4671 04dc 49       		.byte	73
 4672 04dd ED       		.byte	-19
 4673 04de 00       		.byte	0
 4674 04df 00       		.byte	0
 4675 04e0 00       		.byte	0
 4676 04e1 00       		.byte	0
 4677 04e2 00       		.byte	0
 4678 04e3 00       		.byte	0
 4679 04e4 00       		.byte	0
 4680 04e5 00       		.byte	0
 4681 04e6 00       		.byte	0
 4682 04e7 DC       		.byte	-36
 4683 04e8 62       		.byte	98
 4684 04e9 42       		.byte	66
 4685 04ea 42       		.byte	66
 4686 04eb 42       		.byte	66
 4687 04ec 42       		.byte	66
 4688 04ed E7       		.byte	-25
 4689 04ee 00       		.byte	0
 4690 04ef 00       		.byte	0
 4691 04f0 00       		.byte	0
 4692 04f1 00       		.byte	0
 4693 04f2 00       		.byte	0
 4694 04f3 00       		.byte	0
 4695 04f4 00       		.byte	0
 4696 04f5 00       		.byte	0
 4697 04f6 00       		.byte	0
 4698 04f7 3C       		.byte	60
 4699 04f8 42       		.byte	66
 4700 04f9 42       		.byte	66
 4701 04fa 42       		.byte	66
 4702 04fb 42       		.byte	66
 4703 04fc 42       		.byte	66
 4704 04fd 3C       		.byte	60
 4705 04fe 00       		.byte	0
 4706 04ff 00       		.byte	0
 4707 0500 00       		.byte	0
 4708 0501 00       		.byte	0
 4709 0502 00       		.byte	0
 4710 0503 00       		.byte	0
 4711 0504 00       		.byte	0
 4712 0505 00       		.byte	0
 4713 0506 00       		.byte	0
 4714 0507 D8       		.byte	-40
 4715 0508 64       		.byte	100
 4716 0509 42       		.byte	66
ARM GAS  c:\Users\lenovo\AppData\Local\Temp\cc7gPbIA.s 			page 101


 4717 050a 42       		.byte	66
 4718 050b 42       		.byte	66
 4719 050c 64       		.byte	100
 4720 050d 58       		.byte	88
 4721 050e 40       		.byte	64
 4722 050f E0       		.byte	-32
 4723 0510 00       		.byte	0
 4724 0511 00       		.byte	0
 4725 0512 00       		.byte	0
 4726 0513 00       		.byte	0
 4727 0514 00       		.byte	0
 4728 0515 00       		.byte	0
 4729 0516 00       		.byte	0
 4730 0517 1A       		.byte	26
 4731 0518 26       		.byte	38
 4732 0519 42       		.byte	66
 4733 051a 42       		.byte	66
 4734 051b 42       		.byte	66
 4735 051c 26       		.byte	38
 4736 051d 1A       		.byte	26
 4737 051e 02       		.byte	2
 4738 051f 07       		.byte	7
 4739 0520 00       		.byte	0
 4740 0521 00       		.byte	0
 4741 0522 00       		.byte	0
 4742 0523 00       		.byte	0
 4743 0524 00       		.byte	0
 4744 0525 00       		.byte	0
 4745 0526 00       		.byte	0
 4746 0527 EE       		.byte	-18
 4747 0528 32       		.byte	50
 4748 0529 20       		.byte	32
 4749 052a 20       		.byte	32
 4750 052b 20       		.byte	32
 4751 052c 20       		.byte	32
 4752 052d F8       		.byte	-8
 4753 052e 00       		.byte	0
 4754 052f 00       		.byte	0
 4755 0530 00       		.byte	0
 4756 0531 00       		.byte	0
 4757 0532 00       		.byte	0
 4758 0533 00       		.byte	0
 4759 0534 00       		.byte	0
 4760 0535 00       		.byte	0
 4761 0536 00       		.byte	0
 4762 0537 3E       		.byte	62
 4763 0538 42       		.byte	66
 4764 0539 40       		.byte	64
 4765 053a 3C       		.byte	60
 4766 053b 02       		.byte	2
 4767 053c 42       		.byte	66
 4768 053d 7C       		.byte	124
 4769 053e 00       		.byte	0
 4770 053f 00       		.byte	0
 4771 0540 00       		.byte	0
 4772 0541 00       		.byte	0
 4773 0542 00       		.byte	0
ARM GAS  c:\Users\lenovo\AppData\Local\Temp\cc7gPbIA.s 			page 102


 4774 0543 00       		.byte	0
 4775 0544 00       		.byte	0
 4776 0545 10       		.byte	16
 4777 0546 10       		.byte	16
 4778 0547 7C       		.byte	124
 4779 0548 10       		.byte	16
 4780 0549 10       		.byte	16
 4781 054a 10       		.byte	16
 4782 054b 10       		.byte	16
 4783 054c 12       		.byte	18
 4784 054d 0C       		.byte	12
 4785 054e 00       		.byte	0
 4786 054f 00       		.byte	0
 4787 0550 00       		.byte	0
 4788 0551 00       		.byte	0
 4789 0552 00       		.byte	0
 4790 0553 00       		.byte	0
 4791 0554 00       		.byte	0
 4792 0555 00       		.byte	0
 4793 0556 00       		.byte	0
 4794 0557 C6       		.byte	-58
 4795 0558 42       		.byte	66
 4796 0559 42       		.byte	66
 4797 055a 42       		.byte	66
 4798 055b 42       		.byte	66
 4799 055c 46       		.byte	70
 4800 055d 3B       		.byte	59
 4801 055e 00       		.byte	0
 4802 055f 00       		.byte	0
 4803 0560 00       		.byte	0
 4804 0561 00       		.byte	0
 4805 0562 00       		.byte	0
 4806 0563 00       		.byte	0
 4807 0564 00       		.byte	0
 4808 0565 00       		.byte	0
 4809 0566 00       		.byte	0
 4810 0567 EE       		.byte	-18
 4811 0568 44       		.byte	68
 4812 0569 44       		.byte	68
 4813 056a 28       		.byte	40
 4814 056b 28       		.byte	40
 4815 056c 10       		.byte	16
 4816 056d 10       		.byte	16
 4817 056e 00       		.byte	0
 4818 056f 00       		.byte	0
 4819 0570 00       		.byte	0
 4820 0571 00       		.byte	0
 4821 0572 00       		.byte	0
 4822 0573 00       		.byte	0
 4823 0574 00       		.byte	0
 4824 0575 00       		.byte	0
 4825 0576 00       		.byte	0
 4826 0577 DB       		.byte	-37
 4827 0578 89       		.byte	-119
 4828 0579 4A       		.byte	74
 4829 057a 5A       		.byte	90
 4830 057b 54       		.byte	84
ARM GAS  c:\Users\lenovo\AppData\Local\Temp\cc7gPbIA.s 			page 103


 4831 057c 24       		.byte	36
 4832 057d 24       		.byte	36
 4833 057e 00       		.byte	0
 4834 057f 00       		.byte	0
 4835 0580 00       		.byte	0
 4836 0581 00       		.byte	0
 4837 0582 00       		.byte	0
 4838 0583 00       		.byte	0
 4839 0584 00       		.byte	0
 4840 0585 00       		.byte	0
 4841 0586 00       		.byte	0
 4842 0587 76       		.byte	118
 4843 0588 24       		.byte	36
 4844 0589 18       		.byte	24
 4845 058a 18       		.byte	24
 4846 058b 18       		.byte	24
 4847 058c 24       		.byte	36
 4848 058d 6E       		.byte	110
 4849 058e 00       		.byte	0
 4850 058f 00       		.byte	0
 4851 0590 00       		.byte	0
 4852 0591 00       		.byte	0
 4853 0592 00       		.byte	0
 4854 0593 00       		.byte	0
 4855 0594 00       		.byte	0
 4856 0595 00       		.byte	0
 4857 0596 00       		.byte	0
 4858 0597 E7       		.byte	-25
 4859 0598 42       		.byte	66
 4860 0599 24       		.byte	36
 4861 059a 24       		.byte	36
 4862 059b 18       		.byte	24
 4863 059c 18       		.byte	24
 4864 059d 10       		.byte	16
 4865 059e 10       		.byte	16
 4866 059f 60       		.byte	96
 4867 05a0 00       		.byte	0
 4868 05a1 00       		.byte	0
 4869 05a2 00       		.byte	0
 4870 05a3 00       		.byte	0
 4871 05a4 00       		.byte	0
 4872 05a5 00       		.byte	0
 4873 05a6 00       		.byte	0
 4874 05a7 7E       		.byte	126
 4875 05a8 44       		.byte	68
 4876 05a9 08       		.byte	8
 4877 05aa 10       		.byte	16
 4878 05ab 10       		.byte	16
 4879 05ac 22       		.byte	34
 4880 05ad 7E       		.byte	126
 4881 05ae 00       		.byte	0
 4882 05af 00       		.byte	0
 4883 05b0 00       		.byte	0
 4884 05b1 03       		.byte	3
 4885 05b2 04       		.byte	4
 4886 05b3 04       		.byte	4
 4887 05b4 04       		.byte	4
ARM GAS  c:\Users\lenovo\AppData\Local\Temp\cc7gPbIA.s 			page 104


 4888 05b5 04       		.byte	4
 4889 05b6 04       		.byte	4
 4890 05b7 04       		.byte	4
 4891 05b8 08       		.byte	8
 4892 05b9 04       		.byte	4
 4893 05ba 04       		.byte	4
 4894 05bb 04       		.byte	4
 4895 05bc 04       		.byte	4
 4896 05bd 04       		.byte	4
 4897 05be 03       		.byte	3
 4898 05bf 00       		.byte	0
 4899 05c0 08       		.byte	8
 4900 05c1 08       		.byte	8
 4901 05c2 08       		.byte	8
 4902 05c3 08       		.byte	8
 4903 05c4 08       		.byte	8
 4904 05c5 08       		.byte	8
 4905 05c6 08       		.byte	8
 4906 05c7 08       		.byte	8
 4907 05c8 08       		.byte	8
 4908 05c9 08       		.byte	8
 4909 05ca 08       		.byte	8
 4910 05cb 08       		.byte	8
 4911 05cc 08       		.byte	8
 4912 05cd 08       		.byte	8
 4913 05ce 08       		.byte	8
 4914 05cf 08       		.byte	8
 4915 05d0 00       		.byte	0
 4916 05d1 C0       		.byte	-64
 4917 05d2 20       		.byte	32
 4918 05d3 20       		.byte	32
 4919 05d4 20       		.byte	32
 4920 05d5 20       		.byte	32
 4921 05d6 20       		.byte	32
 4922 05d7 20       		.byte	32
 4923 05d8 10       		.byte	16
 4924 05d9 20       		.byte	32
 4925 05da 20       		.byte	32
 4926 05db 20       		.byte	32
 4927 05dc 20       		.byte	32
 4928 05dd 20       		.byte	32
 4929 05de C0       		.byte	-64
 4930 05df 00       		.byte	0
 4931 05e0 20       		.byte	32
 4932 05e1 5A       		.byte	90
 4933 05e2 04       		.byte	4
 4934 05e3 00       		.byte	0
 4935 05e4 00       		.byte	0
 4936 05e5 00       		.byte	0
 4937 05e6 00       		.byte	0
 4938 05e7 00       		.byte	0
 4939 05e8 00       		.byte	0
 4940 05e9 00       		.byte	0
 4941 05ea 00       		.byte	0
 4942 05eb 00       		.byte	0
 4943 05ec 00       		.byte	0
 4944 05ed 00       		.byte	0
ARM GAS  c:\Users\lenovo\AppData\Local\Temp\cc7gPbIA.s 			page 105


 4945 05ee 00       		.byte	0
 4946 05ef 00       		.byte	0
 4947              		.section	.rodata.asc2_2412,"a",%progbits
 4948              		.align	2
 4951              	asc2_2412:
 4952 0000 00       		.byte	0
 4953 0001 00       		.byte	0
 4954 0002 00       		.byte	0
 4955 0003 00       		.byte	0
 4956 0004 00       		.byte	0
 4957 0005 00       		.byte	0
 4958 0006 00       		.byte	0
 4959 0007 00       		.byte	0
 4960 0008 00       		.byte	0
 4961 0009 00       		.byte	0
 4962 000a 00       		.byte	0
 4963 000b 00       		.byte	0
 4964 000c 00       		.byte	0
 4965 000d 00       		.byte	0
 4966 000e 00       		.byte	0
 4967 000f 00       		.byte	0
 4968 0010 00       		.byte	0
 4969 0011 00       		.byte	0
 4970 0012 00       		.byte	0
 4971 0013 00       		.byte	0
 4972 0014 00       		.byte	0
 4973 0015 00       		.byte	0
 4974 0016 00       		.byte	0
 4975 0017 00       		.byte	0
 4976 0018 00       		.byte	0
 4977 0019 00       		.byte	0
 4978 001a 00       		.byte	0
 4979 001b 00       		.byte	0
 4980 001c 00       		.byte	0
 4981 001d 00       		.byte	0
 4982 001e 00       		.byte	0
 4983 001f 00       		.byte	0
 4984 0020 00       		.byte	0
 4985 0021 00       		.byte	0
 4986 0022 00       		.byte	0
 4987 0023 00       		.byte	0
 4988 0024 00       		.byte	0
 4989 0025 00       		.byte	0
 4990 0026 00       		.byte	0
 4991 0027 00       		.byte	0
 4992 0028 00       		.byte	0
 4993 0029 00       		.byte	0
 4994 002a 00       		.byte	0
 4995 002b 00       		.byte	0
 4996 002c 00       		.byte	0
 4997 002d 00       		.byte	0
 4998 002e 00       		.byte	0
 4999 002f 00       		.byte	0
 5000 0030 00       		.byte	0
 5001 0031 00       		.byte	0
 5002 0032 00       		.byte	0
 5003 0033 00       		.byte	0
ARM GAS  c:\Users\lenovo\AppData\Local\Temp\cc7gPbIA.s 			page 106


 5004 0034 00       		.byte	0
 5005 0035 00       		.byte	0
 5006 0036 00       		.byte	0
 5007 0037 00       		.byte	0
 5008 0038 06       		.byte	6
 5009 0039 00       		.byte	0
 5010 003a 06       		.byte	6
 5011 003b 00       		.byte	0
 5012 003c 06       		.byte	6
 5013 003d 00       		.byte	0
 5014 003e 06       		.byte	6
 5015 003f 00       		.byte	0
 5016 0040 06       		.byte	6
 5017 0041 00       		.byte	0
 5018 0042 06       		.byte	6
 5019 0043 00       		.byte	0
 5020 0044 06       		.byte	6
 5021 0045 00       		.byte	0
 5022 0046 02       		.byte	2
 5023 0047 00       		.byte	0
 5024 0048 04       		.byte	4
 5025 0049 00       		.byte	0
 5026 004a 04       		.byte	4
 5027 004b 00       		.byte	0
 5028 004c 04       		.byte	4
 5029 004d 00       		.byte	0
 5030 004e 00       		.byte	0
 5031 004f 00       		.byte	0
 5032 0050 00       		.byte	0
 5033 0051 00       		.byte	0
 5034 0052 00       		.byte	0
 5035 0053 00       		.byte	0
 5036 0054 06       		.byte	6
 5037 0055 00       		.byte	0
 5038 0056 06       		.byte	6
 5039 0057 00       		.byte	0
 5040 0058 06       		.byte	6
 5041 0059 00       		.byte	0
 5042 005a 00       		.byte	0
 5043 005b 00       		.byte	0
 5044 005c 00       		.byte	0
 5045 005d 00       		.byte	0
 5046 005e 00       		.byte	0
 5047 005f 00       		.byte	0
 5048 0060 00       		.byte	0
 5049 0061 00       		.byte	0
 5050 0062 00       		.byte	0
 5051 0063 00       		.byte	0
 5052 0064 06       		.byte	6
 5053 0065 60       		.byte	96
 5054 0066 06       		.byte	6
 5055 0067 60       		.byte	96
 5056 0068 0C       		.byte	12
 5057 0069 C0       		.byte	-64
 5058 006a 19       		.byte	25
 5059 006b 80       		.byte	-128
 5060 006c 11       		.byte	17
ARM GAS  c:\Users\lenovo\AppData\Local\Temp\cc7gPbIA.s 			page 107


 5061 006d 00       		.byte	0
 5062 006e 22       		.byte	34
 5063 006f 00       		.byte	0
 5064 0070 00       		.byte	0
 5065 0071 00       		.byte	0
 5066 0072 00       		.byte	0
 5067 0073 00       		.byte	0
 5068 0074 00       		.byte	0
 5069 0075 00       		.byte	0
 5070 0076 00       		.byte	0
 5071 0077 00       		.byte	0
 5072 0078 00       		.byte	0
 5073 0079 00       		.byte	0
 5074 007a 00       		.byte	0
 5075 007b 00       		.byte	0
 5076 007c 00       		.byte	0
 5077 007d 00       		.byte	0
 5078 007e 00       		.byte	0
 5079 007f 00       		.byte	0
 5080 0080 00       		.byte	0
 5081 0081 00       		.byte	0
 5082 0082 00       		.byte	0
 5083 0083 00       		.byte	0
 5084 0084 00       		.byte	0
 5085 0085 00       		.byte	0
 5086 0086 00       		.byte	0
 5087 0087 00       		.byte	0
 5088 0088 00       		.byte	0
 5089 0089 00       		.byte	0
 5090 008a 00       		.byte	0
 5091 008b 00       		.byte	0
 5092 008c 00       		.byte	0
 5093 008d 00       		.byte	0
 5094 008e 00       		.byte	0
 5095 008f 00       		.byte	0
 5096 0090 00       		.byte	0
 5097 0091 00       		.byte	0
 5098 0092 00       		.byte	0
 5099 0093 00       		.byte	0
 5100 0094 00       		.byte	0
 5101 0095 00       		.byte	0
 5102 0096 00       		.byte	0
 5103 0097 00       		.byte	0
 5104 0098 08       		.byte	8
 5105 0099 40       		.byte	64
 5106 009a 08       		.byte	8
 5107 009b 40       		.byte	64
 5108 009c 08       		.byte	8
 5109 009d 40       		.byte	64
 5110 009e 08       		.byte	8
 5111 009f 40       		.byte	64
 5112 00a0 7F       		.byte	127
 5113 00a1 E0       		.byte	-32
 5114 00a2 7F       		.byte	127
 5115 00a3 E0       		.byte	-32
 5116 00a4 10       		.byte	16
 5117 00a5 40       		.byte	64
ARM GAS  c:\Users\lenovo\AppData\Local\Temp\cc7gPbIA.s 			page 108


 5118 00a6 10       		.byte	16
 5119 00a7 80       		.byte	-128
 5120 00a8 10       		.byte	16
 5121 00a9 80       		.byte	-128
 5122 00aa 10       		.byte	16
 5123 00ab 80       		.byte	-128
 5124 00ac 10       		.byte	16
 5125 00ad 80       		.byte	-128
 5126 00ae 7F       		.byte	127
 5127 00af E0       		.byte	-32
 5128 00b0 7F       		.byte	127
 5129 00b1 E0       		.byte	-32
 5130 00b2 20       		.byte	32
 5131 00b3 80       		.byte	-128
 5132 00b4 20       		.byte	32
 5133 00b5 80       		.byte	-128
 5134 00b6 20       		.byte	32
 5135 00b7 80       		.byte	-128
 5136 00b8 20       		.byte	32
 5137 00b9 80       		.byte	-128
 5138 00ba 00       		.byte	0
 5139 00bb 00       		.byte	0
 5140 00bc 00       		.byte	0
 5141 00bd 00       		.byte	0
 5142 00be 00       		.byte	0
 5143 00bf 00       		.byte	0
 5144 00c0 00       		.byte	0
 5145 00c1 00       		.byte	0
 5146 00c2 00       		.byte	0
 5147 00c3 00       		.byte	0
 5148 00c4 00       		.byte	0
 5149 00c5 00       		.byte	0
 5150 00c6 02       		.byte	2
 5151 00c7 00       		.byte	0
 5152 00c8 02       		.byte	2
 5153 00c9 00       		.byte	0
 5154 00ca 0F       		.byte	15
 5155 00cb 80       		.byte	-128
 5156 00cc 1A       		.byte	26
 5157 00cd C0       		.byte	-64
 5158 00ce 32       		.byte	50
 5159 00cf C0       		.byte	-64
 5160 00d0 33       		.byte	51
 5161 00d1 C0       		.byte	-64
 5162 00d2 32       		.byte	50
 5163 00d3 00       		.byte	0
 5164 00d4 1A       		.byte	26
 5165 00d5 00       		.byte	0
 5166 00d6 0E       		.byte	14
 5167 00d7 00       		.byte	0
 5168 00d8 07       		.byte	7
 5169 00d9 00       		.byte	0
 5170 00da 03       		.byte	3
 5171 00db 80       		.byte	-128
 5172 00dc 03       		.byte	3
 5173 00dd 80       		.byte	-128
 5174 00de 02       		.byte	2
ARM GAS  c:\Users\lenovo\AppData\Local\Temp\cc7gPbIA.s 			page 109


 5175 00df C0       		.byte	-64
 5176 00e0 32       		.byte	50
 5177 00e1 C0       		.byte	-64
 5178 00e2 3A       		.byte	58
 5179 00e3 C0       		.byte	-64
 5180 00e4 32       		.byte	50
 5181 00e5 C0       		.byte	-64
 5182 00e6 12       		.byte	18
 5183 00e7 80       		.byte	-128
 5184 00e8 0F       		.byte	15
 5185 00e9 00       		.byte	0
 5186 00ea 02       		.byte	2
 5187 00eb 00       		.byte	0
 5188 00ec 02       		.byte	2
 5189 00ed 00       		.byte	0
 5190 00ee 00       		.byte	0
 5191 00ef 00       		.byte	0
 5192 00f0 00       		.byte	0
 5193 00f1 00       		.byte	0
 5194 00f2 00       		.byte	0
 5195 00f3 00       		.byte	0
 5196 00f4 00       		.byte	0
 5197 00f5 00       		.byte	0
 5198 00f6 00       		.byte	0
 5199 00f7 00       		.byte	0
 5200 00f8 70       		.byte	112
 5201 00f9 80       		.byte	-128
 5202 00fa 50       		.byte	80
 5203 00fb 80       		.byte	-128
 5204 00fc 89       		.byte	-119
 5205 00fd 00       		.byte	0
 5206 00fe 89       		.byte	-119
 5207 00ff 00       		.byte	0
 5208 0100 89       		.byte	-119
 5209 0101 00       		.byte	0
 5210 0102 8A       		.byte	-118
 5211 0103 00       		.byte	0
 5212 0104 8A       		.byte	-118
 5213 0105 00       		.byte	0
 5214 0106 5C       		.byte	92
 5215 0107 00       		.byte	0
 5216 0108 75       		.byte	117
 5217 0109 C0       		.byte	-64
 5218 010a 05       		.byte	5
 5219 010b 40       		.byte	64
 5220 010c 0A       		.byte	10
 5221 010d 20       		.byte	32
 5222 010e 0A       		.byte	10
 5223 010f 20       		.byte	32
 5224 0110 12       		.byte	18
 5225 0111 20       		.byte	32
 5226 0112 12       		.byte	18
 5227 0113 20       		.byte	32
 5228 0114 12       		.byte	18
 5229 0115 20       		.byte	32
 5230 0116 21       		.byte	33
 5231 0117 40       		.byte	64
ARM GAS  c:\Users\lenovo\AppData\Local\Temp\cc7gPbIA.s 			page 110


 5232 0118 21       		.byte	33
 5233 0119 C0       		.byte	-64
 5234 011a 00       		.byte	0
 5235 011b 00       		.byte	0
 5236 011c 00       		.byte	0
 5237 011d 00       		.byte	0
 5238 011e 00       		.byte	0
 5239 011f 00       		.byte	0
 5240 0120 00       		.byte	0
 5241 0121 00       		.byte	0
 5242 0122 00       		.byte	0
 5243 0123 00       		.byte	0
 5244 0124 00       		.byte	0
 5245 0125 00       		.byte	0
 5246 0126 00       		.byte	0
 5247 0127 00       		.byte	0
 5248 0128 1C       		.byte	28
 5249 0129 00       		.byte	0
 5250 012a 36       		.byte	54
 5251 012b 00       		.byte	0
 5252 012c 36       		.byte	54
 5253 012d 00       		.byte	0
 5254 012e 36       		.byte	54
 5255 012f 00       		.byte	0
 5256 0130 36       		.byte	54
 5257 0131 00       		.byte	0
 5258 0132 36       		.byte	54
 5259 0133 00       		.byte	0
 5260 0134 34       		.byte	52
 5261 0135 00       		.byte	0
 5262 0136 19       		.byte	25
 5263 0137 E0       		.byte	-32
 5264 0138 38       		.byte	56
 5265 0139 80       		.byte	-128
 5266 013a 58       		.byte	88
 5267 013b 80       		.byte	-128
 5268 013c CC       		.byte	-52
 5269 013d 80       		.byte	-128
 5270 013e CC       		.byte	-52
 5271 013f 80       		.byte	-128
 5272 0140 C6       		.byte	-58
 5273 0141 80       		.byte	-128
 5274 0142 C7       		.byte	-57
 5275 0143 00       		.byte	0
 5276 0144 C3       		.byte	-61
 5277 0145 10       		.byte	16
 5278 0146 63       		.byte	99
 5279 0147 90       		.byte	-112
 5280 0148 3C       		.byte	60
 5281 0149 E0       		.byte	-32
 5282 014a 00       		.byte	0
 5283 014b 00       		.byte	0
 5284 014c 00       		.byte	0
 5285 014d 00       		.byte	0
 5286 014e 00       		.byte	0
 5287 014f 00       		.byte	0
 5288 0150 00       		.byte	0
ARM GAS  c:\Users\lenovo\AppData\Local\Temp\cc7gPbIA.s 			page 111


 5289 0151 00       		.byte	0
 5290 0152 00       		.byte	0
 5291 0153 00       		.byte	0
 5292 0154 30       		.byte	48
 5293 0155 00       		.byte	0
 5294 0156 38       		.byte	56
 5295 0157 00       		.byte	0
 5296 0158 08       		.byte	8
 5297 0159 00       		.byte	0
 5298 015a 08       		.byte	8
 5299 015b 00       		.byte	0
 5300 015c 10       		.byte	16
 5301 015d 00       		.byte	0
 5302 015e 20       		.byte	32
 5303 015f 00       		.byte	0
 5304 0160 00       		.byte	0
 5305 0161 00       		.byte	0
 5306 0162 00       		.byte	0
 5307 0163 00       		.byte	0
 5308 0164 00       		.byte	0
 5309 0165 00       		.byte	0
 5310 0166 00       		.byte	0
 5311 0167 00       		.byte	0
 5312 0168 00       		.byte	0
 5313 0169 00       		.byte	0
 5314 016a 00       		.byte	0
 5315 016b 00       		.byte	0
 5316 016c 00       		.byte	0
 5317 016d 00       		.byte	0
 5318 016e 00       		.byte	0
 5319 016f 00       		.byte	0
 5320 0170 00       		.byte	0
 5321 0171 00       		.byte	0
 5322 0172 00       		.byte	0
 5323 0173 00       		.byte	0
 5324 0174 00       		.byte	0
 5325 0175 00       		.byte	0
 5326 0176 00       		.byte	0
 5327 0177 00       		.byte	0
 5328 0178 00       		.byte	0
 5329 0179 00       		.byte	0
 5330 017a 00       		.byte	0
 5331 017b 00       		.byte	0
 5332 017c 00       		.byte	0
 5333 017d 00       		.byte	0
 5334 017e 00       		.byte	0
 5335 017f 00       		.byte	0
 5336 0180 00       		.byte	0
 5337 0181 00       		.byte	0
 5338 0182 00       		.byte	0
 5339 0183 00       		.byte	0
 5340 0184 00       		.byte	0
 5341 0185 20       		.byte	32
 5342 0186 00       		.byte	0
 5343 0187 40       		.byte	64
 5344 0188 00       		.byte	0
 5345 0189 80       		.byte	-128
ARM GAS  c:\Users\lenovo\AppData\Local\Temp\cc7gPbIA.s 			page 112


 5346 018a 01       		.byte	1
 5347 018b 00       		.byte	0
 5348 018c 01       		.byte	1
 5349 018d 00       		.byte	0
 5350 018e 02       		.byte	2
 5351 018f 00       		.byte	0
 5352 0190 02       		.byte	2
 5353 0191 00       		.byte	0
 5354 0192 04       		.byte	4
 5355 0193 00       		.byte	0
 5356 0194 04       		.byte	4
 5357 0195 00       		.byte	0
 5358 0196 04       		.byte	4
 5359 0197 00       		.byte	0
 5360 0198 04       		.byte	4
 5361 0199 00       		.byte	0
 5362 019a 04       		.byte	4
 5363 019b 00       		.byte	0
 5364 019c 04       		.byte	4
 5365 019d 00       		.byte	0
 5366 019e 04       		.byte	4
 5367 019f 00       		.byte	0
 5368 01a0 02       		.byte	2
 5369 01a1 00       		.byte	0
 5370 01a2 02       		.byte	2
 5371 01a3 00       		.byte	0
 5372 01a4 01       		.byte	1
 5373 01a5 00       		.byte	0
 5374 01a6 01       		.byte	1
 5375 01a7 00       		.byte	0
 5376 01a8 00       		.byte	0
 5377 01a9 80       		.byte	-128
 5378 01aa 00       		.byte	0
 5379 01ab 40       		.byte	64
 5380 01ac 00       		.byte	0
 5381 01ad 20       		.byte	32
 5382 01ae 00       		.byte	0
 5383 01af 00       		.byte	0
 5384 01b0 00       		.byte	0
 5385 01b1 00       		.byte	0
 5386 01b2 00       		.byte	0
 5387 01b3 00       		.byte	0
 5388 01b4 40       		.byte	64
 5389 01b5 00       		.byte	0
 5390 01b6 20       		.byte	32
 5391 01b7 00       		.byte	0
 5392 01b8 10       		.byte	16
 5393 01b9 00       		.byte	0
 5394 01ba 08       		.byte	8
 5395 01bb 00       		.byte	0
 5396 01bc 08       		.byte	8
 5397 01bd 00       		.byte	0
 5398 01be 04       		.byte	4
 5399 01bf 00       		.byte	0
 5400 01c0 04       		.byte	4
 5401 01c1 00       		.byte	0
 5402 01c2 02       		.byte	2
ARM GAS  c:\Users\lenovo\AppData\Local\Temp\cc7gPbIA.s 			page 113


 5403 01c3 00       		.byte	0
 5404 01c4 02       		.byte	2
 5405 01c5 00       		.byte	0
 5406 01c6 02       		.byte	2
 5407 01c7 00       		.byte	0
 5408 01c8 02       		.byte	2
 5409 01c9 00       		.byte	0
 5410 01ca 02       		.byte	2
 5411 01cb 00       		.byte	0
 5412 01cc 02       		.byte	2
 5413 01cd 00       		.byte	0
 5414 01ce 02       		.byte	2
 5415 01cf 00       		.byte	0
 5416 01d0 04       		.byte	4
 5417 01d1 00       		.byte	0
 5418 01d2 04       		.byte	4
 5419 01d3 00       		.byte	0
 5420 01d4 08       		.byte	8
 5421 01d5 00       		.byte	0
 5422 01d6 08       		.byte	8
 5423 01d7 00       		.byte	0
 5424 01d8 10       		.byte	16
 5425 01d9 00       		.byte	0
 5426 01da 20       		.byte	32
 5427 01db 00       		.byte	0
 5428 01dc 40       		.byte	64
 5429 01dd 00       		.byte	0
 5430 01de 00       		.byte	0
 5431 01df 00       		.byte	0
 5432 01e0 00       		.byte	0
 5433 01e1 00       		.byte	0
 5434 01e2 00       		.byte	0
 5435 01e3 00       		.byte	0
 5436 01e4 00       		.byte	0
 5437 01e5 00       		.byte	0
 5438 01e6 00       		.byte	0
 5439 01e7 00       		.byte	0
 5440 01e8 00       		.byte	0
 5441 01e9 00       		.byte	0
 5442 01ea 00       		.byte	0
 5443 01eb 00       		.byte	0
 5444 01ec 02       		.byte	2
 5445 01ed 00       		.byte	0
 5446 01ee 03       		.byte	3
 5447 01ef 00       		.byte	0
 5448 01f0 02       		.byte	2
 5449 01f1 00       		.byte	0
 5450 01f2 62       		.byte	98
 5451 01f3 30       		.byte	48
 5452 01f4 72       		.byte	114
 5453 01f5 F0       		.byte	-16
 5454 01f6 0B       		.byte	11
 5455 01f7 80       		.byte	-128
 5456 01f8 0F       		.byte	15
 5457 01f9 80       		.byte	-128
 5458 01fa 7A       		.byte	122
 5459 01fb F0       		.byte	-16
ARM GAS  c:\Users\lenovo\AppData\Local\Temp\cc7gPbIA.s 			page 114


 5460 01fc 62       		.byte	98
 5461 01fd 30       		.byte	48
 5462 01fe 02       		.byte	2
 5463 01ff 00       		.byte	0
 5464 0200 02       		.byte	2
 5465 0201 00       		.byte	0
 5466 0202 02       		.byte	2
 5467 0203 00       		.byte	0
 5468 0204 00       		.byte	0
 5469 0205 00       		.byte	0
 5470 0206 00       		.byte	0
 5471 0207 00       		.byte	0
 5472 0208 00       		.byte	0
 5473 0209 00       		.byte	0
 5474 020a 00       		.byte	0
 5475 020b 00       		.byte	0
 5476 020c 00       		.byte	0
 5477 020d 00       		.byte	0
 5478 020e 00       		.byte	0
 5479 020f 00       		.byte	0
 5480 0210 00       		.byte	0
 5481 0211 00       		.byte	0
 5482 0212 00       		.byte	0
 5483 0213 00       		.byte	0
 5484 0214 00       		.byte	0
 5485 0215 00       		.byte	0
 5486 0216 00       		.byte	0
 5487 0217 00       		.byte	0
 5488 0218 00       		.byte	0
 5489 0219 00       		.byte	0
 5490 021a 00       		.byte	0
 5491 021b 00       		.byte	0
 5492 021c 00       		.byte	0
 5493 021d 00       		.byte	0
 5494 021e 02       		.byte	2
 5495 021f 00       		.byte	0
 5496 0220 02       		.byte	2
 5497 0221 00       		.byte	0
 5498 0222 02       		.byte	2
 5499 0223 00       		.byte	0
 5500 0224 02       		.byte	2
 5501 0225 00       		.byte	0
 5502 0226 02       		.byte	2
 5503 0227 00       		.byte	0
 5504 0228 7F       		.byte	127
 5505 0229 F0       		.byte	-16
 5506 022a 02       		.byte	2
 5507 022b 00       		.byte	0
 5508 022c 02       		.byte	2
 5509 022d 00       		.byte	0
 5510 022e 02       		.byte	2
 5511 022f 00       		.byte	0
 5512 0230 02       		.byte	2
 5513 0231 00       		.byte	0
 5514 0232 02       		.byte	2
 5515 0233 00       		.byte	0
 5516 0234 00       		.byte	0
ARM GAS  c:\Users\lenovo\AppData\Local\Temp\cc7gPbIA.s 			page 115


 5517 0235 00       		.byte	0
 5518 0236 00       		.byte	0
 5519 0237 00       		.byte	0
 5520 0238 00       		.byte	0
 5521 0239 00       		.byte	0
 5522 023a 00       		.byte	0
 5523 023b 00       		.byte	0
 5524 023c 00       		.byte	0
 5525 023d 00       		.byte	0
 5526 023e 00       		.byte	0
 5527 023f 00       		.byte	0
 5528 0240 00       		.byte	0
 5529 0241 00       		.byte	0
 5530 0242 00       		.byte	0
 5531 0243 00       		.byte	0
 5532 0244 00       		.byte	0
 5533 0245 00       		.byte	0
 5534 0246 00       		.byte	0
 5535 0247 00       		.byte	0
 5536 0248 00       		.byte	0
 5537 0249 00       		.byte	0
 5538 024a 00       		.byte	0
 5539 024b 00       		.byte	0
 5540 024c 00       		.byte	0
 5541 024d 00       		.byte	0
 5542 024e 00       		.byte	0
 5543 024f 00       		.byte	0
 5544 0250 00       		.byte	0
 5545 0251 00       		.byte	0
 5546 0252 00       		.byte	0
 5547 0253 00       		.byte	0
 5548 0254 00       		.byte	0
 5549 0255 00       		.byte	0
 5550 0256 00       		.byte	0
 5551 0257 00       		.byte	0
 5552 0258 00       		.byte	0
 5553 0259 00       		.byte	0
 5554 025a 00       		.byte	0
 5555 025b 00       		.byte	0
 5556 025c 00       		.byte	0
 5557 025d 00       		.byte	0
 5558 025e 00       		.byte	0
 5559 025f 00       		.byte	0
 5560 0260 00       		.byte	0
 5561 0261 00       		.byte	0
 5562 0262 00       		.byte	0
 5563 0263 00       		.byte	0
 5564 0264 30       		.byte	48
 5565 0265 00       		.byte	0
 5566 0266 38       		.byte	56
 5567 0267 00       		.byte	0
 5568 0268 08       		.byte	8
 5569 0269 00       		.byte	0
 5570 026a 08       		.byte	8
 5571 026b 00       		.byte	0
 5572 026c 10       		.byte	16
 5573 026d 00       		.byte	0
ARM GAS  c:\Users\lenovo\AppData\Local\Temp\cc7gPbIA.s 			page 116


 5574 026e 20       		.byte	32
 5575 026f 00       		.byte	0
 5576 0270 00       		.byte	0
 5577 0271 00       		.byte	0
 5578 0272 00       		.byte	0
 5579 0273 00       		.byte	0
 5580 0274 00       		.byte	0
 5581 0275 00       		.byte	0
 5582 0276 00       		.byte	0
 5583 0277 00       		.byte	0
 5584 0278 00       		.byte	0
 5585 0279 00       		.byte	0
 5586 027a 00       		.byte	0
 5587 027b 00       		.byte	0
 5588 027c 00       		.byte	0
 5589 027d 00       		.byte	0
 5590 027e 00       		.byte	0
 5591 027f 00       		.byte	0
 5592 0280 00       		.byte	0
 5593 0281 00       		.byte	0
 5594 0282 00       		.byte	0
 5595 0283 00       		.byte	0
 5596 0284 00       		.byte	0
 5597 0285 00       		.byte	0
 5598 0286 00       		.byte	0
 5599 0287 00       		.byte	0
 5600 0288 7F       		.byte	127
 5601 0289 E0       		.byte	-32
 5602 028a 00       		.byte	0
 5603 028b 00       		.byte	0
 5604 028c 00       		.byte	0
 5605 028d 00       		.byte	0
 5606 028e 00       		.byte	0
 5607 028f 00       		.byte	0
 5608 0290 00       		.byte	0
 5609 0291 00       		.byte	0
 5610 0292 00       		.byte	0
 5611 0293 00       		.byte	0
 5612 0294 00       		.byte	0
 5613 0295 00       		.byte	0
 5614 0296 00       		.byte	0
 5615 0297 00       		.byte	0
 5616 0298 00       		.byte	0
 5617 0299 00       		.byte	0
 5618 029a 00       		.byte	0
 5619 029b 00       		.byte	0
 5620 029c 00       		.byte	0
 5621 029d 00       		.byte	0
 5622 029e 00       		.byte	0
 5623 029f 00       		.byte	0
 5624 02a0 00       		.byte	0
 5625 02a1 00       		.byte	0
 5626 02a2 00       		.byte	0
 5627 02a3 00       		.byte	0
 5628 02a4 00       		.byte	0
 5629 02a5 00       		.byte	0
 5630 02a6 00       		.byte	0
ARM GAS  c:\Users\lenovo\AppData\Local\Temp\cc7gPbIA.s 			page 117


 5631 02a7 00       		.byte	0
 5632 02a8 00       		.byte	0
 5633 02a9 00       		.byte	0
 5634 02aa 00       		.byte	0
 5635 02ab 00       		.byte	0
 5636 02ac 00       		.byte	0
 5637 02ad 00       		.byte	0
 5638 02ae 00       		.byte	0
 5639 02af 00       		.byte	0
 5640 02b0 00       		.byte	0
 5641 02b1 00       		.byte	0
 5642 02b2 00       		.byte	0
 5643 02b3 00       		.byte	0
 5644 02b4 00       		.byte	0
 5645 02b5 00       		.byte	0
 5646 02b6 00       		.byte	0
 5647 02b7 00       		.byte	0
 5648 02b8 00       		.byte	0
 5649 02b9 00       		.byte	0
 5650 02ba 00       		.byte	0
 5651 02bb 00       		.byte	0
 5652 02bc 00       		.byte	0
 5653 02bd 00       		.byte	0
 5654 02be 00       		.byte	0
 5655 02bf 00       		.byte	0
 5656 02c0 00       		.byte	0
 5657 02c1 00       		.byte	0
 5658 02c2 00       		.byte	0
 5659 02c3 00       		.byte	0
 5660 02c4 38       		.byte	56
 5661 02c5 00       		.byte	0
 5662 02c6 38       		.byte	56
 5663 02c7 00       		.byte	0
 5664 02c8 38       		.byte	56
 5665 02c9 00       		.byte	0
 5666 02ca 00       		.byte	0
 5667 02cb 00       		.byte	0
 5668 02cc 00       		.byte	0
 5669 02cd 00       		.byte	0
 5670 02ce 00       		.byte	0
 5671 02cf 00       		.byte	0
 5672 02d0 00       		.byte	0
 5673 02d1 00       		.byte	0
 5674 02d2 00       		.byte	0
 5675 02d3 00       		.byte	0
 5676 02d4 00       		.byte	0
 5677 02d5 20       		.byte	32
 5678 02d6 00       		.byte	0
 5679 02d7 60       		.byte	96
 5680 02d8 00       		.byte	0
 5681 02d9 40       		.byte	64
 5682 02da 00       		.byte	0
 5683 02db C0       		.byte	-64
 5684 02dc 00       		.byte	0
 5685 02dd 80       		.byte	-128
 5686 02de 00       		.byte	0
 5687 02df 80       		.byte	-128
ARM GAS  c:\Users\lenovo\AppData\Local\Temp\cc7gPbIA.s 			page 118


 5688 02e0 01       		.byte	1
 5689 02e1 00       		.byte	0
 5690 02e2 01       		.byte	1
 5691 02e3 00       		.byte	0
 5692 02e4 02       		.byte	2
 5693 02e5 00       		.byte	0
 5694 02e6 02       		.byte	2
 5695 02e7 00       		.byte	0
 5696 02e8 06       		.byte	6
 5697 02e9 00       		.byte	0
 5698 02ea 04       		.byte	4
 5699 02eb 00       		.byte	0
 5700 02ec 04       		.byte	4
 5701 02ed 00       		.byte	0
 5702 02ee 08       		.byte	8
 5703 02ef 00       		.byte	0
 5704 02f0 08       		.byte	8
 5705 02f1 00       		.byte	0
 5706 02f2 10       		.byte	16
 5707 02f3 00       		.byte	0
 5708 02f4 10       		.byte	16
 5709 02f5 00       		.byte	0
 5710 02f6 30       		.byte	48
 5711 02f7 00       		.byte	0
 5712 02f8 20       		.byte	32
 5713 02f9 00       		.byte	0
 5714 02fa 60       		.byte	96
 5715 02fb 00       		.byte	0
 5716 02fc 40       		.byte	64
 5717 02fd 00       		.byte	0
 5718 02fe 00       		.byte	0
 5719 02ff 00       		.byte	0
 5720 0300 00       		.byte	0
 5721 0301 00       		.byte	0
 5722 0302 00       		.byte	0
 5723 0303 00       		.byte	0
 5724 0304 00       		.byte	0
 5725 0305 00       		.byte	0
 5726 0306 00       		.byte	0
 5727 0307 00       		.byte	0
 5728 0308 00       		.byte	0
 5729 0309 00       		.byte	0
 5730 030a 0F       		.byte	15
 5731 030b 00       		.byte	0
 5732 030c 19       		.byte	25
 5733 030d 80       		.byte	-128
 5734 030e 30       		.byte	48
 5735 030f C0       		.byte	-64
 5736 0310 30       		.byte	48
 5737 0311 C0       		.byte	-64
 5738 0312 60       		.byte	96
 5739 0313 60       		.byte	96
 5740 0314 60       		.byte	96
 5741 0315 60       		.byte	96
 5742 0316 60       		.byte	96
 5743 0317 60       		.byte	96
 5744 0318 60       		.byte	96
ARM GAS  c:\Users\lenovo\AppData\Local\Temp\cc7gPbIA.s 			page 119


 5745 0319 60       		.byte	96
 5746 031a 60       		.byte	96
 5747 031b 60       		.byte	96
 5748 031c 60       		.byte	96
 5749 031d 60       		.byte	96
 5750 031e 60       		.byte	96
 5751 031f 60       		.byte	96
 5752 0320 60       		.byte	96
 5753 0321 60       		.byte	96
 5754 0322 30       		.byte	48
 5755 0323 C0       		.byte	-64
 5756 0324 30       		.byte	48
 5757 0325 C0       		.byte	-64
 5758 0326 19       		.byte	25
 5759 0327 80       		.byte	-128
 5760 0328 0F       		.byte	15
 5761 0329 00       		.byte	0
 5762 032a 00       		.byte	0
 5763 032b 00       		.byte	0
 5764 032c 00       		.byte	0
 5765 032d 00       		.byte	0
 5766 032e 00       		.byte	0
 5767 032f 00       		.byte	0
 5768 0330 00       		.byte	0
 5769 0331 00       		.byte	0
 5770 0332 00       		.byte	0
 5771 0333 00       		.byte	0
 5772 0334 00       		.byte	0
 5773 0335 00       		.byte	0
 5774 0336 00       		.byte	0
 5775 0337 00       		.byte	0
 5776 0338 00       		.byte	0
 5777 0339 00       		.byte	0
 5778 033a 02       		.byte	2
 5779 033b 00       		.byte	0
 5780 033c 3E       		.byte	62
 5781 033d 00       		.byte	0
 5782 033e 06       		.byte	6
 5783 033f 00       		.byte	0
 5784 0340 06       		.byte	6
 5785 0341 00       		.byte	0
 5786 0342 06       		.byte	6
 5787 0343 00       		.byte	0
 5788 0344 06       		.byte	6
 5789 0345 00       		.byte	0
 5790 0346 06       		.byte	6
 5791 0347 00       		.byte	0
 5792 0348 06       		.byte	6
 5793 0349 00       		.byte	0
 5794 034a 06       		.byte	6
 5795 034b 00       		.byte	0
 5796 034c 06       		.byte	6
 5797 034d 00       		.byte	0
 5798 034e 06       		.byte	6
 5799 034f 00       		.byte	0
 5800 0350 06       		.byte	6
 5801 0351 00       		.byte	0
ARM GAS  c:\Users\lenovo\AppData\Local\Temp\cc7gPbIA.s 			page 120


 5802 0352 06       		.byte	6
 5803 0353 00       		.byte	0
 5804 0354 06       		.byte	6
 5805 0355 00       		.byte	0
 5806 0356 06       		.byte	6
 5807 0357 00       		.byte	0
 5808 0358 3F       		.byte	63
 5809 0359 C0       		.byte	-64
 5810 035a 00       		.byte	0
 5811 035b 00       		.byte	0
 5812 035c 00       		.byte	0
 5813 035d 00       		.byte	0
 5814 035e 00       		.byte	0
 5815 035f 00       		.byte	0
 5816 0360 00       		.byte	0
 5817 0361 00       		.byte	0
 5818 0362 00       		.byte	0
 5819 0363 00       		.byte	0
 5820 0364 00       		.byte	0
 5821 0365 00       		.byte	0
 5822 0366 00       		.byte	0
 5823 0367 00       		.byte	0
 5824 0368 00       		.byte	0
 5825 0369 00       		.byte	0
 5826 036a 1F       		.byte	31
 5827 036b 00       		.byte	0
 5828 036c 21       		.byte	33
 5829 036d 80       		.byte	-128
 5830 036e 40       		.byte	64
 5831 036f C0       		.byte	-64
 5832 0370 60       		.byte	96
 5833 0371 C0       		.byte	-64
 5834 0372 60       		.byte	96
 5835 0373 C0       		.byte	-64
 5836 0374 00       		.byte	0
 5837 0375 C0       		.byte	-64
 5838 0376 00       		.byte	0
 5839 0377 80       		.byte	-128
 5840 0378 01       		.byte	1
 5841 0379 80       		.byte	-128
 5842 037a 03       		.byte	3
 5843 037b 00       		.byte	0
 5844 037c 06       		.byte	6
 5845 037d 00       		.byte	0
 5846 037e 04       		.byte	4
 5847 037f 00       		.byte	0
 5848 0380 08       		.byte	8
 5849 0381 00       		.byte	0
 5850 0382 10       		.byte	16
 5851 0383 40       		.byte	64
 5852 0384 20       		.byte	32
 5853 0385 40       		.byte	64
 5854 0386 60       		.byte	96
 5855 0387 40       		.byte	64
 5856 0388 7F       		.byte	127
 5857 0389 C0       		.byte	-64
 5858 038a 00       		.byte	0
ARM GAS  c:\Users\lenovo\AppData\Local\Temp\cc7gPbIA.s 			page 121


 5859 038b 00       		.byte	0
 5860 038c 00       		.byte	0
 5861 038d 00       		.byte	0
 5862 038e 00       		.byte	0
 5863 038f 00       		.byte	0
 5864 0390 00       		.byte	0
 5865 0391 00       		.byte	0
 5866 0392 00       		.byte	0
 5867 0393 00       		.byte	0
 5868 0394 00       		.byte	0
 5869 0395 00       		.byte	0
 5870 0396 00       		.byte	0
 5871 0397 00       		.byte	0
 5872 0398 00       		.byte	0
 5873 0399 00       		.byte	0
 5874 039a 1E       		.byte	30
 5875 039b 00       		.byte	0
 5876 039c 63       		.byte	99
 5877 039d 00       		.byte	0
 5878 039e 61       		.byte	97
 5879 039f 80       		.byte	-128
 5880 03a0 61       		.byte	97
 5881 03a1 80       		.byte	-128
 5882 03a2 01       		.byte	1
 5883 03a3 80       		.byte	-128
 5884 03a4 01       		.byte	1
 5885 03a5 80       		.byte	-128
 5886 03a6 03       		.byte	3
 5887 03a7 00       		.byte	0
 5888 03a8 0E       		.byte	14
 5889 03a9 00       		.byte	0
 5890 03aa 01       		.byte	1
 5891 03ab 80       		.byte	-128
 5892 03ac 00       		.byte	0
 5893 03ad 80       		.byte	-128
 5894 03ae 00       		.byte	0
 5895 03af C0       		.byte	-64
 5896 03b0 00       		.byte	0
 5897 03b1 C0       		.byte	-64
 5898 03b2 60       		.byte	96
 5899 03b3 C0       		.byte	-64
 5900 03b4 60       		.byte	96
 5901 03b5 C0       		.byte	-64
 5902 03b6 61       		.byte	97
 5903 03b7 80       		.byte	-128
 5904 03b8 1F       		.byte	31
 5905 03b9 00       		.byte	0
 5906 03ba 00       		.byte	0
 5907 03bb 00       		.byte	0
 5908 03bc 00       		.byte	0
 5909 03bd 00       		.byte	0
 5910 03be 00       		.byte	0
 5911 03bf 00       		.byte	0
 5912 03c0 00       		.byte	0
 5913 03c1 00       		.byte	0
 5914 03c2 00       		.byte	0
 5915 03c3 00       		.byte	0
ARM GAS  c:\Users\lenovo\AppData\Local\Temp\cc7gPbIA.s 			page 122


 5916 03c4 00       		.byte	0
 5917 03c5 00       		.byte	0
 5918 03c6 00       		.byte	0
 5919 03c7 00       		.byte	0
 5920 03c8 00       		.byte	0
 5921 03c9 00       		.byte	0
 5922 03ca 01       		.byte	1
 5923 03cb 80       		.byte	-128
 5924 03cc 01       		.byte	1
 5925 03cd 80       		.byte	-128
 5926 03ce 03       		.byte	3
 5927 03cf 80       		.byte	-128
 5928 03d0 05       		.byte	5
 5929 03d1 80       		.byte	-128
 5930 03d2 05       		.byte	5
 5931 03d3 80       		.byte	-128
 5932 03d4 09       		.byte	9
 5933 03d5 80       		.byte	-128
 5934 03d6 11       		.byte	17
 5935 03d7 80       		.byte	-128
 5936 03d8 11       		.byte	17
 5937 03d9 80       		.byte	-128
 5938 03da 21       		.byte	33
 5939 03db 80       		.byte	-128
 5940 03dc 41       		.byte	65
 5941 03dd 80       		.byte	-128
 5942 03de 7F       		.byte	127
 5943 03df F0       		.byte	-16
 5944 03e0 01       		.byte	1
 5945 03e1 80       		.byte	-128
 5946 03e2 01       		.byte	1
 5947 03e3 80       		.byte	-128
 5948 03e4 01       		.byte	1
 5949 03e5 80       		.byte	-128
 5950 03e6 01       		.byte	1
 5951 03e7 80       		.byte	-128
 5952 03e8 07       		.byte	7
 5953 03e9 E0       		.byte	-32
 5954 03ea 00       		.byte	0
 5955 03eb 00       		.byte	0
 5956 03ec 00       		.byte	0
 5957 03ed 00       		.byte	0
 5958 03ee 00       		.byte	0
 5959 03ef 00       		.byte	0
 5960 03f0 00       		.byte	0
 5961 03f1 00       		.byte	0
 5962 03f2 00       		.byte	0
 5963 03f3 00       		.byte	0
 5964 03f4 00       		.byte	0
 5965 03f5 00       		.byte	0
 5966 03f6 00       		.byte	0
 5967 03f7 00       		.byte	0
 5968 03f8 00       		.byte	0
 5969 03f9 00       		.byte	0
 5970 03fa 3F       		.byte	63
 5971 03fb C0       		.byte	-64
 5972 03fc 20       		.byte	32
ARM GAS  c:\Users\lenovo\AppData\Local\Temp\cc7gPbIA.s 			page 123


 5973 03fd 00       		.byte	0
 5974 03fe 20       		.byte	32
 5975 03ff 00       		.byte	0
 5976 0400 20       		.byte	32
 5977 0401 00       		.byte	0
 5978 0402 20       		.byte	32
 5979 0403 00       		.byte	0
 5980 0404 20       		.byte	32
 5981 0405 00       		.byte	0
 5982 0406 2F       		.byte	47
 5983 0407 00       		.byte	0
 5984 0408 31       		.byte	49
 5985 0409 80       		.byte	-128
 5986 040a 20       		.byte	32
 5987 040b C0       		.byte	-64
 5988 040c 00       		.byte	0
 5989 040d C0       		.byte	-64
 5990 040e 00       		.byte	0
 5991 040f C0       		.byte	-64
 5992 0410 60       		.byte	96
 5993 0411 C0       		.byte	-64
 5994 0412 60       		.byte	96
 5995 0413 C0       		.byte	-64
 5996 0414 41       		.byte	65
 5997 0415 80       		.byte	-128
 5998 0416 21       		.byte	33
 5999 0417 80       		.byte	-128
 6000 0418 1F       		.byte	31
 6001 0419 00       		.byte	0
 6002 041a 00       		.byte	0
 6003 041b 00       		.byte	0
 6004 041c 00       		.byte	0
 6005 041d 00       		.byte	0
 6006 041e 00       		.byte	0
 6007 041f 00       		.byte	0
 6008 0420 00       		.byte	0
 6009 0421 00       		.byte	0
 6010 0422 00       		.byte	0
 6011 0423 00       		.byte	0
 6012 0424 00       		.byte	0
 6013 0425 00       		.byte	0
 6014 0426 00       		.byte	0
 6015 0427 00       		.byte	0
 6016 0428 00       		.byte	0
 6017 0429 00       		.byte	0
 6018 042a 07       		.byte	7
 6019 042b 80       		.byte	-128
 6020 042c 18       		.byte	24
 6021 042d C0       		.byte	-64
 6022 042e 30       		.byte	48
 6023 042f C0       		.byte	-64
 6024 0430 30       		.byte	48
 6025 0431 00       		.byte	0
 6026 0432 20       		.byte	32
 6027 0433 00       		.byte	0
 6028 0434 60       		.byte	96
 6029 0435 00       		.byte	0
ARM GAS  c:\Users\lenovo\AppData\Local\Temp\cc7gPbIA.s 			page 124


 6030 0436 67       		.byte	103
 6031 0437 80       		.byte	-128
 6032 0438 68       		.byte	104
 6033 0439 C0       		.byte	-64
 6034 043a 70       		.byte	112
 6035 043b 60       		.byte	96
 6036 043c 60       		.byte	96
 6037 043d 60       		.byte	96
 6038 043e 60       		.byte	96
 6039 043f 60       		.byte	96
 6040 0440 60       		.byte	96
 6041 0441 60       		.byte	96
 6042 0442 20       		.byte	32
 6043 0443 60       		.byte	96
 6044 0444 30       		.byte	48
 6045 0445 40       		.byte	64
 6046 0446 18       		.byte	24
 6047 0447 C0       		.byte	-64
 6048 0448 0F       		.byte	15
 6049 0449 00       		.byte	0
 6050 044a 00       		.byte	0
 6051 044b 00       		.byte	0
 6052 044c 00       		.byte	0
 6053 044d 00       		.byte	0
 6054 044e 00       		.byte	0
 6055 044f 00       		.byte	0
 6056 0450 00       		.byte	0
 6057 0451 00       		.byte	0
 6058 0452 00       		.byte	0
 6059 0453 00       		.byte	0
 6060 0454 00       		.byte	0
 6061 0455 00       		.byte	0
 6062 0456 00       		.byte	0
 6063 0457 00       		.byte	0
 6064 0458 00       		.byte	0
 6065 0459 00       		.byte	0
 6066 045a 1F       		.byte	31
 6067 045b E0       		.byte	-32
 6068 045c 30       		.byte	48
 6069 045d 60       		.byte	96
 6070 045e 20       		.byte	32
 6071 045f 40       		.byte	64
 6072 0460 20       		.byte	32
 6073 0461 80       		.byte	-128
 6074 0462 00       		.byte	0
 6075 0463 80       		.byte	-128
 6076 0464 00       		.byte	0
 6077 0465 80       		.byte	-128
 6078 0466 01       		.byte	1
 6079 0467 00       		.byte	0
 6080 0468 01       		.byte	1
 6081 0469 00       		.byte	0
 6082 046a 02       		.byte	2
 6083 046b 00       		.byte	0
 6084 046c 02       		.byte	2
 6085 046d 00       		.byte	0
 6086 046e 02       		.byte	2
ARM GAS  c:\Users\lenovo\AppData\Local\Temp\cc7gPbIA.s 			page 125


 6087 046f 00       		.byte	0
 6088 0470 06       		.byte	6
 6089 0471 00       		.byte	0
 6090 0472 06       		.byte	6
 6091 0473 00       		.byte	0
 6092 0474 06       		.byte	6
 6093 0475 00       		.byte	0
 6094 0476 06       		.byte	6
 6095 0477 00       		.byte	0
 6096 0478 06       		.byte	6
 6097 0479 00       		.byte	0
 6098 047a 00       		.byte	0
 6099 047b 00       		.byte	0
 6100 047c 00       		.byte	0
 6101 047d 00       		.byte	0
 6102 047e 00       		.byte	0
 6103 047f 00       		.byte	0
 6104 0480 00       		.byte	0
 6105 0481 00       		.byte	0
 6106 0482 00       		.byte	0
 6107 0483 00       		.byte	0
 6108 0484 00       		.byte	0
 6109 0485 00       		.byte	0
 6110 0486 00       		.byte	0
 6111 0487 00       		.byte	0
 6112 0488 00       		.byte	0
 6113 0489 00       		.byte	0
 6114 048a 1F       		.byte	31
 6115 048b 80       		.byte	-128
 6116 048c 30       		.byte	48
 6117 048d C0       		.byte	-64
 6118 048e 60       		.byte	96
 6119 048f 60       		.byte	96
 6120 0490 60       		.byte	96
 6121 0491 60       		.byte	96
 6122 0492 60       		.byte	96
 6123 0493 60       		.byte	96
 6124 0494 30       		.byte	48
 6125 0495 40       		.byte	64
 6126 0496 38       		.byte	56
 6127 0497 C0       		.byte	-64
 6128 0498 0F       		.byte	15
 6129 0499 00       		.byte	0
 6130 049a 13       		.byte	19
 6131 049b 80       		.byte	-128
 6132 049c 30       		.byte	48
 6133 049d C0       		.byte	-64
 6134 049e 60       		.byte	96
 6135 049f 60       		.byte	96
 6136 04a0 60       		.byte	96
 6137 04a1 60       		.byte	96
 6138 04a2 60       		.byte	96
 6139 04a3 60       		.byte	96
 6140 04a4 60       		.byte	96
 6141 04a5 60       		.byte	96
 6142 04a6 30       		.byte	48
 6143 04a7 C0       		.byte	-64
ARM GAS  c:\Users\lenovo\AppData\Local\Temp\cc7gPbIA.s 			page 126


 6144 04a8 0F       		.byte	15
 6145 04a9 80       		.byte	-128
 6146 04aa 00       		.byte	0
 6147 04ab 00       		.byte	0
 6148 04ac 00       		.byte	0
 6149 04ad 00       		.byte	0
 6150 04ae 00       		.byte	0
 6151 04af 00       		.byte	0
 6152 04b0 00       		.byte	0
 6153 04b1 00       		.byte	0
 6154 04b2 00       		.byte	0
 6155 04b3 00       		.byte	0
 6156 04b4 00       		.byte	0
 6157 04b5 00       		.byte	0
 6158 04b6 00       		.byte	0
 6159 04b7 00       		.byte	0
 6160 04b8 00       		.byte	0
 6161 04b9 00       		.byte	0
 6162 04ba 0F       		.byte	15
 6163 04bb 00       		.byte	0
 6164 04bc 30       		.byte	48
 6165 04bd 80       		.byte	-128
 6166 04be 30       		.byte	48
 6167 04bf C0       		.byte	-64
 6168 04c0 60       		.byte	96
 6169 04c1 40       		.byte	64
 6170 04c2 60       		.byte	96
 6171 04c3 60       		.byte	96
 6172 04c4 60       		.byte	96
 6173 04c5 60       		.byte	96
 6174 04c6 60       		.byte	96
 6175 04c7 60       		.byte	96
 6176 04c8 60       		.byte	96
 6177 04c9 E0       		.byte	-32
 6178 04ca 31       		.byte	49
 6179 04cb 60       		.byte	96
 6180 04cc 1E       		.byte	30
 6181 04cd 60       		.byte	96
 6182 04ce 00       		.byte	0
 6183 04cf 60       		.byte	96
 6184 04d0 00       		.byte	0
 6185 04d1 C0       		.byte	-64
 6186 04d2 00       		.byte	0
 6187 04d3 C0       		.byte	-64
 6188 04d4 30       		.byte	48
 6189 04d5 80       		.byte	-128
 6190 04d6 31       		.byte	49
 6191 04d7 80       		.byte	-128
 6192 04d8 1E       		.byte	30
 6193 04d9 00       		.byte	0
 6194 04da 00       		.byte	0
 6195 04db 00       		.byte	0
 6196 04dc 00       		.byte	0
 6197 04dd 00       		.byte	0
 6198 04de 00       		.byte	0
 6199 04df 00       		.byte	0
 6200 04e0 00       		.byte	0
ARM GAS  c:\Users\lenovo\AppData\Local\Temp\cc7gPbIA.s 			page 127


 6201 04e1 00       		.byte	0
 6202 04e2 00       		.byte	0
 6203 04e3 00       		.byte	0
 6204 04e4 00       		.byte	0
 6205 04e5 00       		.byte	0
 6206 04e6 00       		.byte	0
 6207 04e7 00       		.byte	0
 6208 04e8 00       		.byte	0
 6209 04e9 00       		.byte	0
 6210 04ea 00       		.byte	0
 6211 04eb 00       		.byte	0
 6212 04ec 00       		.byte	0
 6213 04ed 00       		.byte	0
 6214 04ee 00       		.byte	0
 6215 04ef 00       		.byte	0
 6216 04f0 00       		.byte	0
 6217 04f1 00       		.byte	0
 6218 04f2 00       		.byte	0
 6219 04f3 00       		.byte	0
 6220 04f4 07       		.byte	7
 6221 04f5 00       		.byte	0
 6222 04f6 07       		.byte	7
 6223 04f7 00       		.byte	0
 6224 04f8 07       		.byte	7
 6225 04f9 00       		.byte	0
 6226 04fa 00       		.byte	0
 6227 04fb 00       		.byte	0
 6228 04fc 00       		.byte	0
 6229 04fd 00       		.byte	0
 6230 04fe 00       		.byte	0
 6231 04ff 00       		.byte	0
 6232 0500 00       		.byte	0
 6233 0501 00       		.byte	0
 6234 0502 00       		.byte	0
 6235 0503 00       		.byte	0
 6236 0504 07       		.byte	7
 6237 0505 00       		.byte	0
 6238 0506 07       		.byte	7
 6239 0507 00       		.byte	0
 6240 0508 07       		.byte	7
 6241 0509 00       		.byte	0
 6242 050a 00       		.byte	0
 6243 050b 00       		.byte	0
 6244 050c 00       		.byte	0
 6245 050d 00       		.byte	0
 6246 050e 00       		.byte	0
 6247 050f 00       		.byte	0
 6248 0510 00       		.byte	0
 6249 0511 00       		.byte	0
 6250 0512 00       		.byte	0
 6251 0513 00       		.byte	0
 6252 0514 00       		.byte	0
 6253 0515 00       		.byte	0
 6254 0516 00       		.byte	0
 6255 0517 00       		.byte	0
 6256 0518 00       		.byte	0
 6257 0519 00       		.byte	0
ARM GAS  c:\Users\lenovo\AppData\Local\Temp\cc7gPbIA.s 			page 128


 6258 051a 00       		.byte	0
 6259 051b 00       		.byte	0
 6260 051c 00       		.byte	0
 6261 051d 00       		.byte	0
 6262 051e 00       		.byte	0
 6263 051f 00       		.byte	0
 6264 0520 00       		.byte	0
 6265 0521 00       		.byte	0
 6266 0522 00       		.byte	0
 6267 0523 00       		.byte	0
 6268 0524 06       		.byte	6
 6269 0525 00       		.byte	0
 6270 0526 06       		.byte	6
 6271 0527 00       		.byte	0
 6272 0528 00       		.byte	0
 6273 0529 00       		.byte	0
 6274 052a 00       		.byte	0
 6275 052b 00       		.byte	0
 6276 052c 00       		.byte	0
 6277 052d 00       		.byte	0
 6278 052e 00       		.byte	0
 6279 052f 00       		.byte	0
 6280 0530 00       		.byte	0
 6281 0531 00       		.byte	0
 6282 0532 00       		.byte	0
 6283 0533 00       		.byte	0
 6284 0534 00       		.byte	0
 6285 0535 00       		.byte	0
 6286 0536 06       		.byte	6
 6287 0537 00       		.byte	0
 6288 0538 06       		.byte	6
 6289 0539 00       		.byte	0
 6290 053a 02       		.byte	2
 6291 053b 00       		.byte	0
 6292 053c 04       		.byte	4
 6293 053d 00       		.byte	0
 6294 053e 04       		.byte	4
 6295 053f 00       		.byte	0
 6296 0540 00       		.byte	0
 6297 0541 00       		.byte	0
 6298 0542 00       		.byte	0
 6299 0543 00       		.byte	0
 6300 0544 00       		.byte	0
 6301 0545 00       		.byte	0
 6302 0546 00       		.byte	0
 6303 0547 00       		.byte	0
 6304 0548 00       		.byte	0
 6305 0549 20       		.byte	32
 6306 054a 00       		.byte	0
 6307 054b 40       		.byte	64
 6308 054c 00       		.byte	0
 6309 054d 80       		.byte	-128
 6310 054e 01       		.byte	1
 6311 054f 00       		.byte	0
 6312 0550 02       		.byte	2
 6313 0551 00       		.byte	0
 6314 0552 04       		.byte	4
ARM GAS  c:\Users\lenovo\AppData\Local\Temp\cc7gPbIA.s 			page 129


 6315 0553 00       		.byte	0
 6316 0554 08       		.byte	8
 6317 0555 00       		.byte	0
 6318 0556 10       		.byte	16
 6319 0557 00       		.byte	0
 6320 0558 20       		.byte	32
 6321 0559 00       		.byte	0
 6322 055a 10       		.byte	16
 6323 055b 00       		.byte	0
 6324 055c 08       		.byte	8
 6325 055d 00       		.byte	0
 6326 055e 04       		.byte	4
 6327 055f 00       		.byte	0
 6328 0560 02       		.byte	2
 6329 0561 00       		.byte	0
 6330 0562 01       		.byte	1
 6331 0563 00       		.byte	0
 6332 0564 00       		.byte	0
 6333 0565 80       		.byte	-128
 6334 0566 00       		.byte	0
 6335 0567 40       		.byte	64
 6336 0568 00       		.byte	0
 6337 0569 20       		.byte	32
 6338 056a 00       		.byte	0
 6339 056b 00       		.byte	0
 6340 056c 00       		.byte	0
 6341 056d 00       		.byte	0
 6342 056e 00       		.byte	0
 6343 056f 00       		.byte	0
 6344 0570 00       		.byte	0
 6345 0571 00       		.byte	0
 6346 0572 00       		.byte	0
 6347 0573 00       		.byte	0
 6348 0574 00       		.byte	0
 6349 0575 00       		.byte	0
 6350 0576 00       		.byte	0
 6351 0577 00       		.byte	0
 6352 0578 00       		.byte	0
 6353 0579 00       		.byte	0
 6354 057a 00       		.byte	0
 6355 057b 00       		.byte	0
 6356 057c 00       		.byte	0
 6357 057d 00       		.byte	0
 6358 057e 00       		.byte	0
 6359 057f 00       		.byte	0
 6360 0580 00       		.byte	0
 6361 0581 00       		.byte	0
 6362 0582 00       		.byte	0
 6363 0583 00       		.byte	0
 6364 0584 7F       		.byte	127
 6365 0585 E0       		.byte	-32
 6366 0586 00       		.byte	0
 6367 0587 00       		.byte	0
 6368 0588 00       		.byte	0
 6369 0589 00       		.byte	0
 6370 058a 00       		.byte	0
 6371 058b 00       		.byte	0
ARM GAS  c:\Users\lenovo\AppData\Local\Temp\cc7gPbIA.s 			page 130


 6372 058c 7F       		.byte	127
 6373 058d E0       		.byte	-32
 6374 058e 00       		.byte	0
 6375 058f 00       		.byte	0
 6376 0590 00       		.byte	0
 6377 0591 00       		.byte	0
 6378 0592 00       		.byte	0
 6379 0593 00       		.byte	0
 6380 0594 00       		.byte	0
 6381 0595 00       		.byte	0
 6382 0596 00       		.byte	0
 6383 0597 00       		.byte	0
 6384 0598 00       		.byte	0
 6385 0599 00       		.byte	0
 6386 059a 00       		.byte	0
 6387 059b 00       		.byte	0
 6388 059c 00       		.byte	0
 6389 059d 00       		.byte	0
 6390 059e 00       		.byte	0
 6391 059f 00       		.byte	0
 6392 05a0 00       		.byte	0
 6393 05a1 00       		.byte	0
 6394 05a2 00       		.byte	0
 6395 05a3 00       		.byte	0
 6396 05a4 00       		.byte	0
 6397 05a5 00       		.byte	0
 6398 05a6 00       		.byte	0
 6399 05a7 00       		.byte	0
 6400 05a8 20       		.byte	32
 6401 05a9 00       		.byte	0
 6402 05aa 10       		.byte	16
 6403 05ab 00       		.byte	0
 6404 05ac 08       		.byte	8
 6405 05ad 00       		.byte	0
 6406 05ae 04       		.byte	4
 6407 05af 00       		.byte	0
 6408 05b0 02       		.byte	2
 6409 05b1 00       		.byte	0
 6410 05b2 01       		.byte	1
 6411 05b3 00       		.byte	0
 6412 05b4 00       		.byte	0
 6413 05b5 80       		.byte	-128
 6414 05b6 00       		.byte	0
 6415 05b7 40       		.byte	64
 6416 05b8 00       		.byte	0
 6417 05b9 20       		.byte	32
 6418 05ba 00       		.byte	0
 6419 05bb 40       		.byte	64
 6420 05bc 00       		.byte	0
 6421 05bd 80       		.byte	-128
 6422 05be 01       		.byte	1
 6423 05bf 00       		.byte	0
 6424 05c0 02       		.byte	2
 6425 05c1 00       		.byte	0
 6426 05c2 04       		.byte	4
 6427 05c3 00       		.byte	0
 6428 05c4 08       		.byte	8
ARM GAS  c:\Users\lenovo\AppData\Local\Temp\cc7gPbIA.s 			page 131


 6429 05c5 00       		.byte	0
 6430 05c6 10       		.byte	16
 6431 05c7 00       		.byte	0
 6432 05c8 20       		.byte	32
 6433 05c9 00       		.byte	0
 6434 05ca 00       		.byte	0
 6435 05cb 00       		.byte	0
 6436 05cc 00       		.byte	0
 6437 05cd 00       		.byte	0
 6438 05ce 00       		.byte	0
 6439 05cf 00       		.byte	0
 6440 05d0 00       		.byte	0
 6441 05d1 00       		.byte	0
 6442 05d2 00       		.byte	0
 6443 05d3 00       		.byte	0
 6444 05d4 00       		.byte	0
 6445 05d5 00       		.byte	0
 6446 05d6 00       		.byte	0
 6447 05d7 00       		.byte	0
 6448 05d8 00       		.byte	0
 6449 05d9 00       		.byte	0
 6450 05da 07       		.byte	7
 6451 05db C0       		.byte	-64
 6452 05dc 18       		.byte	24
 6453 05dd 60       		.byte	96
 6454 05de 20       		.byte	32
 6455 05df 30       		.byte	48
 6456 05e0 20       		.byte	32
 6457 05e1 30       		.byte	48
 6458 05e2 30       		.byte	48
 6459 05e3 30       		.byte	48
 6460 05e4 30       		.byte	48
 6461 05e5 30       		.byte	48
 6462 05e6 00       		.byte	0
 6463 05e7 E0       		.byte	-32
 6464 05e8 01       		.byte	1
 6465 05e9 80       		.byte	-128
 6466 05ea 02       		.byte	2
 6467 05eb 00       		.byte	0
 6468 05ec 02       		.byte	2
 6469 05ed 00       		.byte	0
 6470 05ee 02       		.byte	2
 6471 05ef 00       		.byte	0
 6472 05f0 00       		.byte	0
 6473 05f1 00       		.byte	0
 6474 05f2 00       		.byte	0
 6475 05f3 00       		.byte	0
 6476 05f4 07       		.byte	7
 6477 05f5 00       		.byte	0
 6478 05f6 07       		.byte	7
 6479 05f7 00       		.byte	0
 6480 05f8 07       		.byte	7
 6481 05f9 00       		.byte	0
 6482 05fa 00       		.byte	0
 6483 05fb 00       		.byte	0
 6484 05fc 00       		.byte	0
 6485 05fd 00       		.byte	0
ARM GAS  c:\Users\lenovo\AppData\Local\Temp\cc7gPbIA.s 			page 132


 6486 05fe 00       		.byte	0
 6487 05ff 00       		.byte	0
 6488 0600 00       		.byte	0
 6489 0601 00       		.byte	0
 6490 0602 00       		.byte	0
 6491 0603 00       		.byte	0
 6492 0604 00       		.byte	0
 6493 0605 00       		.byte	0
 6494 0606 00       		.byte	0
 6495 0607 00       		.byte	0
 6496 0608 07       		.byte	7
 6497 0609 00       		.byte	0
 6498 060a 18       		.byte	24
 6499 060b C0       		.byte	-64
 6500 060c 30       		.byte	48
 6501 060d 40       		.byte	64
 6502 060e 33       		.byte	51
 6503 060f A0       		.byte	-96
 6504 0610 26       		.byte	38
 6505 0611 A0       		.byte	-96
 6506 0612 66       		.byte	102
 6507 0613 A0       		.byte	-96
 6508 0614 65       		.byte	101
 6509 0615 A0       		.byte	-96
 6510 0616 6D       		.byte	109
 6511 0617 20       		.byte	32
 6512 0618 6D       		.byte	109
 6513 0619 20       		.byte	32
 6514 061a 6D       		.byte	109
 6515 061b 20       		.byte	32
 6516 061c 6D       		.byte	109
 6517 061d 20       		.byte	32
 6518 061e 6D       		.byte	109
 6519 061f 40       		.byte	64
 6520 0620 27       		.byte	39
 6521 0621 80       		.byte	-128
 6522 0622 30       		.byte	48
 6523 0623 20       		.byte	32
 6524 0624 30       		.byte	48
 6525 0625 40       		.byte	64
 6526 0626 18       		.byte	24
 6527 0627 C0       		.byte	-64
 6528 0628 0F       		.byte	15
 6529 0629 00       		.byte	0
 6530 062a 00       		.byte	0
 6531 062b 00       		.byte	0
 6532 062c 00       		.byte	0
 6533 062d 00       		.byte	0
 6534 062e 00       		.byte	0
 6535 062f 00       		.byte	0
 6536 0630 00       		.byte	0
 6537 0631 00       		.byte	0
 6538 0632 00       		.byte	0
 6539 0633 00       		.byte	0
 6540 0634 00       		.byte	0
 6541 0635 00       		.byte	0
 6542 0636 00       		.byte	0
ARM GAS  c:\Users\lenovo\AppData\Local\Temp\cc7gPbIA.s 			page 133


 6543 0637 00       		.byte	0
 6544 0638 00       		.byte	0
 6545 0639 00       		.byte	0
 6546 063a 06       		.byte	6
 6547 063b 00       		.byte	0
 6548 063c 06       		.byte	6
 6549 063d 00       		.byte	0
 6550 063e 0A       		.byte	10
 6551 063f 00       		.byte	0
 6552 0640 0B       		.byte	11
 6553 0641 00       		.byte	0
 6554 0642 09       		.byte	9
 6555 0643 00       		.byte	0
 6556 0644 09       		.byte	9
 6557 0645 00       		.byte	0
 6558 0646 11       		.byte	17
 6559 0647 00       		.byte	0
 6560 0648 11       		.byte	17
 6561 0649 80       		.byte	-128
 6562 064a 10       		.byte	16
 6563 064b 80       		.byte	-128
 6564 064c 1F       		.byte	31
 6565 064d 80       		.byte	-128
 6566 064e 20       		.byte	32
 6567 064f C0       		.byte	-64
 6568 0650 20       		.byte	32
 6569 0651 C0       		.byte	-64
 6570 0652 20       		.byte	32
 6571 0653 40       		.byte	64
 6572 0654 40       		.byte	64
 6573 0655 40       		.byte	64
 6574 0656 40       		.byte	64
 6575 0657 60       		.byte	96
 6576 0658 F0       		.byte	-16
 6577 0659 F0       		.byte	-16
 6578 065a 00       		.byte	0
 6579 065b 00       		.byte	0
 6580 065c 00       		.byte	0
 6581 065d 00       		.byte	0
 6582 065e 00       		.byte	0
 6583 065f 00       		.byte	0
 6584 0660 00       		.byte	0
 6585 0661 00       		.byte	0
 6586 0662 00       		.byte	0
 6587 0663 00       		.byte	0
 6588 0664 00       		.byte	0
 6589 0665 00       		.byte	0
 6590 0666 00       		.byte	0
 6591 0667 00       		.byte	0
 6592 0668 00       		.byte	0
 6593 0669 00       		.byte	0
 6594 066a 7F       		.byte	127
 6595 066b 00       		.byte	0
 6596 066c 31       		.byte	49
 6597 066d C0       		.byte	-64
 6598 066e 30       		.byte	48
 6599 066f C0       		.byte	-64
ARM GAS  c:\Users\lenovo\AppData\Local\Temp\cc7gPbIA.s 			page 134


 6600 0670 30       		.byte	48
 6601 0671 C0       		.byte	-64
 6602 0672 30       		.byte	48
 6603 0673 C0       		.byte	-64
 6604 0674 30       		.byte	48
 6605 0675 C0       		.byte	-64
 6606 0676 31       		.byte	49
 6607 0677 80       		.byte	-128
 6608 0678 3F       		.byte	63
 6609 0679 00       		.byte	0
 6610 067a 30       		.byte	48
 6611 067b C0       		.byte	-64
 6612 067c 30       		.byte	48
 6613 067d 40       		.byte	64
 6614 067e 30       		.byte	48
 6615 067f 60       		.byte	96
 6616 0680 30       		.byte	48
 6617 0681 60       		.byte	96
 6618 0682 30       		.byte	48
 6619 0683 60       		.byte	96
 6620 0684 30       		.byte	48
 6621 0685 60       		.byte	96
 6622 0686 30       		.byte	48
 6623 0687 C0       		.byte	-64
 6624 0688 7F       		.byte	127
 6625 0689 80       		.byte	-128
 6626 068a 00       		.byte	0
 6627 068b 00       		.byte	0
 6628 068c 00       		.byte	0
 6629 068d 00       		.byte	0
 6630 068e 00       		.byte	0
 6631 068f 00       		.byte	0
 6632 0690 00       		.byte	0
 6633 0691 00       		.byte	0
 6634 0692 00       		.byte	0
 6635 0693 00       		.byte	0
 6636 0694 00       		.byte	0
 6637 0695 00       		.byte	0
 6638 0696 00       		.byte	0
 6639 0697 00       		.byte	0
 6640 0698 00       		.byte	0
 6641 0699 00       		.byte	0
 6642 069a 07       		.byte	7
 6643 069b C0       		.byte	-64
 6644 069c 18       		.byte	24
 6645 069d C0       		.byte	-64
 6646 069e 30       		.byte	48
 6647 069f 60       		.byte	96
 6648 06a0 30       		.byte	48
 6649 06a1 20       		.byte	32
 6650 06a2 20       		.byte	32
 6651 06a3 20       		.byte	32
 6652 06a4 60       		.byte	96
 6653 06a5 00       		.byte	0
 6654 06a6 60       		.byte	96
 6655 06a7 00       		.byte	0
 6656 06a8 60       		.byte	96
ARM GAS  c:\Users\lenovo\AppData\Local\Temp\cc7gPbIA.s 			page 135


 6657 06a9 00       		.byte	0
 6658 06aa 60       		.byte	96
 6659 06ab 00       		.byte	0
 6660 06ac 60       		.byte	96
 6661 06ad 00       		.byte	0
 6662 06ae 60       		.byte	96
 6663 06af 00       		.byte	0
 6664 06b0 60       		.byte	96
 6665 06b1 20       		.byte	32
 6666 06b2 30       		.byte	48
 6667 06b3 20       		.byte	32
 6668 06b4 30       		.byte	48
 6669 06b5 40       		.byte	64
 6670 06b6 18       		.byte	24
 6671 06b7 C0       		.byte	-64
 6672 06b8 0F       		.byte	15
 6673 06b9 00       		.byte	0
 6674 06ba 00       		.byte	0
 6675 06bb 00       		.byte	0
 6676 06bc 00       		.byte	0
 6677 06bd 00       		.byte	0
 6678 06be 00       		.byte	0
 6679 06bf 00       		.byte	0
 6680 06c0 00       		.byte	0
 6681 06c1 00       		.byte	0
 6682 06c2 00       		.byte	0
 6683 06c3 00       		.byte	0
 6684 06c4 00       		.byte	0
 6685 06c5 00       		.byte	0
 6686 06c6 00       		.byte	0
 6687 06c7 00       		.byte	0
 6688 06c8 00       		.byte	0
 6689 06c9 00       		.byte	0
 6690 06ca FE       		.byte	-2
 6691 06cb 00       		.byte	0
 6692 06cc 31       		.byte	49
 6693 06cd 80       		.byte	-128
 6694 06ce 30       		.byte	48
 6695 06cf C0       		.byte	-64
 6696 06d0 30       		.byte	48
 6697 06d1 C0       		.byte	-64
 6698 06d2 30       		.byte	48
 6699 06d3 60       		.byte	96
 6700 06d4 30       		.byte	48
 6701 06d5 60       		.byte	96
 6702 06d6 30       		.byte	48
 6703 06d7 60       		.byte	96
 6704 06d8 30       		.byte	48
 6705 06d9 60       		.byte	96
 6706 06da 30       		.byte	48
 6707 06db 60       		.byte	96
 6708 06dc 30       		.byte	48
 6709 06dd 60       		.byte	96
 6710 06de 30       		.byte	48
 6711 06df 60       		.byte	96
 6712 06e0 30       		.byte	48
 6713 06e1 60       		.byte	96
ARM GAS  c:\Users\lenovo\AppData\Local\Temp\cc7gPbIA.s 			page 136


 6714 06e2 30       		.byte	48
 6715 06e3 C0       		.byte	-64
 6716 06e4 30       		.byte	48
 6717 06e5 C0       		.byte	-64
 6718 06e6 31       		.byte	49
 6719 06e7 80       		.byte	-128
 6720 06e8 FE       		.byte	-2
 6721 06e9 00       		.byte	0
 6722 06ea 00       		.byte	0
 6723 06eb 00       		.byte	0
 6724 06ec 00       		.byte	0
 6725 06ed 00       		.byte	0
 6726 06ee 00       		.byte	0
 6727 06ef 00       		.byte	0
 6728 06f0 00       		.byte	0
 6729 06f1 00       		.byte	0
 6730 06f2 00       		.byte	0
 6731 06f3 00       		.byte	0
 6732 06f4 00       		.byte	0
 6733 06f5 00       		.byte	0
 6734 06f6 00       		.byte	0
 6735 06f7 00       		.byte	0
 6736 06f8 00       		.byte	0
 6737 06f9 00       		.byte	0
 6738 06fa FF       		.byte	-1
 6739 06fb C0       		.byte	-64
 6740 06fc 60       		.byte	96
 6741 06fd C0       		.byte	-64
 6742 06fe 60       		.byte	96
 6743 06ff 20       		.byte	32
 6744 0700 60       		.byte	96
 6745 0701 20       		.byte	32
 6746 0702 60       		.byte	96
 6747 0703 00       		.byte	0
 6748 0704 61       		.byte	97
 6749 0705 00       		.byte	0
 6750 0706 61       		.byte	97
 6751 0707 00       		.byte	0
 6752 0708 7F       		.byte	127
 6753 0709 00       		.byte	0
 6754 070a 61       		.byte	97
 6755 070b 00       		.byte	0
 6756 070c 61       		.byte	97
 6757 070d 00       		.byte	0
 6758 070e 61       		.byte	97
 6759 070f 00       		.byte	0
 6760 0710 60       		.byte	96
 6761 0711 00       		.byte	0
 6762 0712 60       		.byte	96
 6763 0713 20       		.byte	32
 6764 0714 60       		.byte	96
 6765 0715 20       		.byte	32
 6766 0716 60       		.byte	96
 6767 0717 40       		.byte	64
 6768 0718 FF       		.byte	-1
 6769 0719 C0       		.byte	-64
 6770 071a 00       		.byte	0
ARM GAS  c:\Users\lenovo\AppData\Local\Temp\cc7gPbIA.s 			page 137


 6771 071b 00       		.byte	0
 6772 071c 00       		.byte	0
 6773 071d 00       		.byte	0
 6774 071e 00       		.byte	0
 6775 071f 00       		.byte	0
 6776 0720 00       		.byte	0
 6777 0721 00       		.byte	0
 6778 0722 00       		.byte	0
 6779 0723 00       		.byte	0
 6780 0724 00       		.byte	0
 6781 0725 00       		.byte	0
 6782 0726 00       		.byte	0
 6783 0727 00       		.byte	0
 6784 0728 00       		.byte	0
 6785 0729 00       		.byte	0
 6786 072a FF       		.byte	-1
 6787 072b C0       		.byte	-64
 6788 072c 60       		.byte	96
 6789 072d C0       		.byte	-64
 6790 072e 60       		.byte	96
 6791 072f 20       		.byte	32
 6792 0730 60       		.byte	96
 6793 0731 20       		.byte	32
 6794 0732 60       		.byte	96
 6795 0733 00       		.byte	0
 6796 0734 61       		.byte	97
 6797 0735 00       		.byte	0
 6798 0736 61       		.byte	97
 6799 0737 00       		.byte	0
 6800 0738 7F       		.byte	127
 6801 0739 00       		.byte	0
 6802 073a 61       		.byte	97
 6803 073b 00       		.byte	0
 6804 073c 61       		.byte	97
 6805 073d 00       		.byte	0
 6806 073e 61       		.byte	97
 6807 073f 00       		.byte	0
 6808 0740 60       		.byte	96
 6809 0741 00       		.byte	0
 6810 0742 60       		.byte	96
 6811 0743 00       		.byte	0
 6812 0744 60       		.byte	96
 6813 0745 00       		.byte	0
 6814 0746 60       		.byte	96
 6815 0747 00       		.byte	0
 6816 0748 F8       		.byte	-8
 6817 0749 00       		.byte	0
 6818 074a 00       		.byte	0
 6819 074b 00       		.byte	0
 6820 074c 00       		.byte	0
 6821 074d 00       		.byte	0
 6822 074e 00       		.byte	0
 6823 074f 00       		.byte	0
 6824 0750 00       		.byte	0
 6825 0751 00       		.byte	0
 6826 0752 00       		.byte	0
 6827 0753 00       		.byte	0
ARM GAS  c:\Users\lenovo\AppData\Local\Temp\cc7gPbIA.s 			page 138


 6828 0754 00       		.byte	0
 6829 0755 00       		.byte	0
 6830 0756 00       		.byte	0
 6831 0757 00       		.byte	0
 6832 0758 00       		.byte	0
 6833 0759 00       		.byte	0
 6834 075a 0F       		.byte	15
 6835 075b 00       		.byte	0
 6836 075c 18       		.byte	24
 6837 075d 80       		.byte	-128
 6838 075e 30       		.byte	48
 6839 075f 40       		.byte	64
 6840 0760 30       		.byte	48
 6841 0761 40       		.byte	64
 6842 0762 20       		.byte	32
 6843 0763 40       		.byte	64
 6844 0764 60       		.byte	96
 6845 0765 00       		.byte	0
 6846 0766 60       		.byte	96
 6847 0767 00       		.byte	0
 6848 0768 60       		.byte	96
 6849 0769 00       		.byte	0
 6850 076a 60       		.byte	96
 6851 076b 00       		.byte	0
 6852 076c 63       		.byte	99
 6853 076d F0       		.byte	-16
 6854 076e 60       		.byte	96
 6855 076f C0       		.byte	-64
 6856 0770 60       		.byte	96
 6857 0771 C0       		.byte	-64
 6858 0772 30       		.byte	48
 6859 0773 C0       		.byte	-64
 6860 0774 30       		.byte	48
 6861 0775 C0       		.byte	-64
 6862 0776 18       		.byte	24
 6863 0777 C0       		.byte	-64
 6864 0778 0F       		.byte	15
 6865 0779 00       		.byte	0
 6866 077a 00       		.byte	0
 6867 077b 00       		.byte	0
 6868 077c 00       		.byte	0
 6869 077d 00       		.byte	0
 6870 077e 00       		.byte	0
 6871 077f 00       		.byte	0
 6872 0780 00       		.byte	0
 6873 0781 00       		.byte	0
 6874 0782 00       		.byte	0
 6875 0783 00       		.byte	0
 6876 0784 00       		.byte	0
 6877 0785 00       		.byte	0
 6878 0786 00       		.byte	0
 6879 0787 00       		.byte	0
 6880 0788 00       		.byte	0
 6881 0789 00       		.byte	0
 6882 078a F0       		.byte	-16
 6883 078b F0       		.byte	-16
 6884 078c 60       		.byte	96
ARM GAS  c:\Users\lenovo\AppData\Local\Temp\cc7gPbIA.s 			page 139


 6885 078d 60       		.byte	96
 6886 078e 60       		.byte	96
 6887 078f 60       		.byte	96
 6888 0790 60       		.byte	96
 6889 0791 60       		.byte	96
 6890 0792 60       		.byte	96
 6891 0793 60       		.byte	96
 6892 0794 60       		.byte	96
 6893 0795 60       		.byte	96
 6894 0796 60       		.byte	96
 6895 0797 60       		.byte	96
 6896 0798 7F       		.byte	127
 6897 0799 E0       		.byte	-32
 6898 079a 60       		.byte	96
 6899 079b 60       		.byte	96
 6900 079c 60       		.byte	96
 6901 079d 60       		.byte	96
 6902 079e 60       		.byte	96
 6903 079f 60       		.byte	96
 6904 07a0 60       		.byte	96
 6905 07a1 60       		.byte	96
 6906 07a2 60       		.byte	96
 6907 07a3 60       		.byte	96
 6908 07a4 60       		.byte	96
 6909 07a5 60       		.byte	96
 6910 07a6 60       		.byte	96
 6911 07a7 60       		.byte	96
 6912 07a8 F0       		.byte	-16
 6913 07a9 F0       		.byte	-16
 6914 07aa 00       		.byte	0
 6915 07ab 00       		.byte	0
 6916 07ac 00       		.byte	0
 6917 07ad 00       		.byte	0
 6918 07ae 00       		.byte	0
 6919 07af 00       		.byte	0
 6920 07b0 00       		.byte	0
 6921 07b1 00       		.byte	0
 6922 07b2 00       		.byte	0
 6923 07b3 00       		.byte	0
 6924 07b4 00       		.byte	0
 6925 07b5 00       		.byte	0
 6926 07b6 00       		.byte	0
 6927 07b7 00       		.byte	0
 6928 07b8 00       		.byte	0
 6929 07b9 00       		.byte	0
 6930 07ba 3F       		.byte	63
 6931 07bb C0       		.byte	-64
 6932 07bc 06       		.byte	6
 6933 07bd 00       		.byte	0
 6934 07be 06       		.byte	6
 6935 07bf 00       		.byte	0
 6936 07c0 06       		.byte	6
 6937 07c1 00       		.byte	0
 6938 07c2 06       		.byte	6
 6939 07c3 00       		.byte	0
 6940 07c4 06       		.byte	6
 6941 07c5 00       		.byte	0
ARM GAS  c:\Users\lenovo\AppData\Local\Temp\cc7gPbIA.s 			page 140


 6942 07c6 06       		.byte	6
 6943 07c7 00       		.byte	0
 6944 07c8 06       		.byte	6
 6945 07c9 00       		.byte	0
 6946 07ca 06       		.byte	6
 6947 07cb 00       		.byte	0
 6948 07cc 06       		.byte	6
 6949 07cd 00       		.byte	0
 6950 07ce 06       		.byte	6
 6951 07cf 00       		.byte	0
 6952 07d0 06       		.byte	6
 6953 07d1 00       		.byte	0
 6954 07d2 06       		.byte	6
 6955 07d3 00       		.byte	0
 6956 07d4 06       		.byte	6
 6957 07d5 00       		.byte	0
 6958 07d6 06       		.byte	6
 6959 07d7 00       		.byte	0
 6960 07d8 3F       		.byte	63
 6961 07d9 C0       		.byte	-64
 6962 07da 00       		.byte	0
 6963 07db 00       		.byte	0
 6964 07dc 00       		.byte	0
 6965 07dd 00       		.byte	0
 6966 07de 00       		.byte	0
 6967 07df 00       		.byte	0
 6968 07e0 00       		.byte	0
 6969 07e1 00       		.byte	0
 6970 07e2 00       		.byte	0
 6971 07e3 00       		.byte	0
 6972 07e4 00       		.byte	0
 6973 07e5 00       		.byte	0
 6974 07e6 00       		.byte	0
 6975 07e7 00       		.byte	0
 6976 07e8 00       		.byte	0
 6977 07e9 00       		.byte	0
 6978 07ea 1F       		.byte	31
 6979 07eb E0       		.byte	-32
 6980 07ec 03       		.byte	3
 6981 07ed 00       		.byte	0
 6982 07ee 03       		.byte	3
 6983 07ef 00       		.byte	0
 6984 07f0 03       		.byte	3
 6985 07f1 00       		.byte	0
 6986 07f2 03       		.byte	3
 6987 07f3 00       		.byte	0
 6988 07f4 03       		.byte	3
 6989 07f5 00       		.byte	0
 6990 07f6 03       		.byte	3
 6991 07f7 00       		.byte	0
 6992 07f8 03       		.byte	3
 6993 07f9 00       		.byte	0
 6994 07fa 03       		.byte	3
 6995 07fb 00       		.byte	0
 6996 07fc 03       		.byte	3
 6997 07fd 00       		.byte	0
 6998 07fe 03       		.byte	3
ARM GAS  c:\Users\lenovo\AppData\Local\Temp\cc7gPbIA.s 			page 141


 6999 07ff 00       		.byte	0
 7000 0800 03       		.byte	3
 7001 0801 00       		.byte	0
 7002 0802 03       		.byte	3
 7003 0803 00       		.byte	0
 7004 0804 03       		.byte	3
 7005 0805 00       		.byte	0
 7006 0806 03       		.byte	3
 7007 0807 00       		.byte	0
 7008 0808 03       		.byte	3
 7009 0809 00       		.byte	0
 7010 080a 63       		.byte	99
 7011 080b 00       		.byte	0
 7012 080c 66       		.byte	102
 7013 080d 00       		.byte	0
 7014 080e 3C       		.byte	60
 7015 080f 00       		.byte	0
 7016 0810 00       		.byte	0
 7017 0811 00       		.byte	0
 7018 0812 00       		.byte	0
 7019 0813 00       		.byte	0
 7020 0814 00       		.byte	0
 7021 0815 00       		.byte	0
 7022 0816 00       		.byte	0
 7023 0817 00       		.byte	0
 7024 0818 00       		.byte	0
 7025 0819 00       		.byte	0
 7026 081a F3       		.byte	-13
 7027 081b C0       		.byte	-64
 7028 081c 61       		.byte	97
 7029 081d 80       		.byte	-128
 7030 081e 63       		.byte	99
 7031 081f 00       		.byte	0
 7032 0820 62       		.byte	98
 7033 0821 00       		.byte	0
 7034 0822 64       		.byte	100
 7035 0823 00       		.byte	0
 7036 0824 68       		.byte	104
 7037 0825 00       		.byte	0
 7038 0826 6C       		.byte	108
 7039 0827 00       		.byte	0
 7040 0828 74       		.byte	116
 7041 0829 00       		.byte	0
 7042 082a 76       		.byte	118
 7043 082b 00       		.byte	0
 7044 082c 62       		.byte	98
 7045 082d 00       		.byte	0
 7046 082e 63       		.byte	99
 7047 082f 00       		.byte	0
 7048 0830 61       		.byte	97
 7049 0831 00       		.byte	0
 7050 0832 61       		.byte	97
 7051 0833 80       		.byte	-128
 7052 0834 60       		.byte	96
 7053 0835 80       		.byte	-128
 7054 0836 60       		.byte	96
 7055 0837 C0       		.byte	-64
ARM GAS  c:\Users\lenovo\AppData\Local\Temp\cc7gPbIA.s 			page 142


 7056 0838 F1       		.byte	-15
 7057 0839 E0       		.byte	-32
 7058 083a 00       		.byte	0
 7059 083b 00       		.byte	0
 7060 083c 00       		.byte	0
 7061 083d 00       		.byte	0
 7062 083e 00       		.byte	0
 7063 083f 00       		.byte	0
 7064 0840 00       		.byte	0
 7065 0841 00       		.byte	0
 7066 0842 00       		.byte	0
 7067 0843 00       		.byte	0
 7068 0844 00       		.byte	0
 7069 0845 00       		.byte	0
 7070 0846 00       		.byte	0
 7071 0847 00       		.byte	0
 7072 0848 00       		.byte	0
 7073 0849 00       		.byte	0
 7074 084a F8       		.byte	-8
 7075 084b 00       		.byte	0
 7076 084c 60       		.byte	96
 7077 084d 00       		.byte	0
 7078 084e 60       		.byte	96
 7079 084f 00       		.byte	0
 7080 0850 60       		.byte	96
 7081 0851 00       		.byte	0
 7082 0852 60       		.byte	96
 7083 0853 00       		.byte	0
 7084 0854 60       		.byte	96
 7085 0855 00       		.byte	0
 7086 0856 60       		.byte	96
 7087 0857 00       		.byte	0
 7088 0858 60       		.byte	96
 7089 0859 00       		.byte	0
 7090 085a 60       		.byte	96
 7091 085b 00       		.byte	0
 7092 085c 60       		.byte	96
 7093 085d 00       		.byte	0
 7094 085e 60       		.byte	96
 7095 085f 00       		.byte	0
 7096 0860 60       		.byte	96
 7097 0861 00       		.byte	0
 7098 0862 60       		.byte	96
 7099 0863 20       		.byte	32
 7100 0864 60       		.byte	96
 7101 0865 20       		.byte	32
 7102 0866 60       		.byte	96
 7103 0867 40       		.byte	64
 7104 0868 FF       		.byte	-1
 7105 0869 C0       		.byte	-64
 7106 086a 00       		.byte	0
 7107 086b 00       		.byte	0
 7108 086c 00       		.byte	0
 7109 086d 00       		.byte	0
 7110 086e 00       		.byte	0
 7111 086f 00       		.byte	0
 7112 0870 00       		.byte	0
ARM GAS  c:\Users\lenovo\AppData\Local\Temp\cc7gPbIA.s 			page 143


 7113 0871 00       		.byte	0
 7114 0872 00       		.byte	0
 7115 0873 00       		.byte	0
 7116 0874 00       		.byte	0
 7117 0875 00       		.byte	0
 7118 0876 00       		.byte	0
 7119 0877 00       		.byte	0
 7120 0878 00       		.byte	0
 7121 0879 00       		.byte	0
 7122 087a E0       		.byte	-32
 7123 087b E0       		.byte	-32
 7124 087c 61       		.byte	97
 7125 087d C0       		.byte	-64
 7126 087e 61       		.byte	97
 7127 087f C0       		.byte	-64
 7128 0880 71       		.byte	113
 7129 0881 C0       		.byte	-64
 7130 0882 71       		.byte	113
 7131 0883 C0       		.byte	-64
 7132 0884 72       		.byte	114
 7133 0885 C0       		.byte	-64
 7134 0886 72       		.byte	114
 7135 0887 C0       		.byte	-64
 7136 0888 52       		.byte	82
 7137 0889 C0       		.byte	-64
 7138 088a 5A       		.byte	90
 7139 088b C0       		.byte	-64
 7140 088c 5A       		.byte	90
 7141 088d C0       		.byte	-64
 7142 088e 5C       		.byte	92
 7143 088f C0       		.byte	-64
 7144 0890 4C       		.byte	76
 7145 0891 C0       		.byte	-64
 7146 0892 4C       		.byte	76
 7147 0893 C0       		.byte	-64
 7148 0894 4C       		.byte	76
 7149 0895 C0       		.byte	-64
 7150 0896 48       		.byte	72
 7151 0897 C0       		.byte	-64
 7152 0898 E1       		.byte	-31
 7153 0899 E0       		.byte	-32
 7154 089a 00       		.byte	0
 7155 089b 00       		.byte	0
 7156 089c 00       		.byte	0
 7157 089d 00       		.byte	0
 7158 089e 00       		.byte	0
 7159 089f 00       		.byte	0
 7160 08a0 00       		.byte	0
 7161 08a1 00       		.byte	0
 7162 08a2 00       		.byte	0
 7163 08a3 00       		.byte	0
 7164 08a4 00       		.byte	0
 7165 08a5 00       		.byte	0
 7166 08a6 00       		.byte	0
 7167 08a7 00       		.byte	0
 7168 08a8 00       		.byte	0
 7169 08a9 00       		.byte	0
ARM GAS  c:\Users\lenovo\AppData\Local\Temp\cc7gPbIA.s 			page 144


 7170 08aa 71       		.byte	113
 7171 08ab F0       		.byte	-16
 7172 08ac 30       		.byte	48
 7173 08ad 40       		.byte	64
 7174 08ae 38       		.byte	56
 7175 08af 40       		.byte	64
 7176 08b0 38       		.byte	56
 7177 08b1 40       		.byte	64
 7178 08b2 2C       		.byte	44
 7179 08b3 40       		.byte	64
 7180 08b4 2C       		.byte	44
 7181 08b5 40       		.byte	64
 7182 08b6 26       		.byte	38
 7183 08b7 40       		.byte	64
 7184 08b8 26       		.byte	38
 7185 08b9 40       		.byte	64
 7186 08ba 22       		.byte	34
 7187 08bb 40       		.byte	64
 7188 08bc 23       		.byte	35
 7189 08bd 40       		.byte	64
 7190 08be 21       		.byte	33
 7191 08bf 40       		.byte	64
 7192 08c0 21       		.byte	33
 7193 08c1 C0       		.byte	-64
 7194 08c2 21       		.byte	33
 7195 08c3 C0       		.byte	-64
 7196 08c4 20       		.byte	32
 7197 08c5 C0       		.byte	-64
 7198 08c6 20       		.byte	32
 7199 08c7 C0       		.byte	-64
 7200 08c8 F8       		.byte	-8
 7201 08c9 40       		.byte	64
 7202 08ca 00       		.byte	0
 7203 08cb 00       		.byte	0
 7204 08cc 00       		.byte	0
 7205 08cd 00       		.byte	0
 7206 08ce 00       		.byte	0
 7207 08cf 00       		.byte	0
 7208 08d0 00       		.byte	0
 7209 08d1 00       		.byte	0
 7210 08d2 00       		.byte	0
 7211 08d3 00       		.byte	0
 7212 08d4 00       		.byte	0
 7213 08d5 00       		.byte	0
 7214 08d6 00       		.byte	0
 7215 08d7 00       		.byte	0
 7216 08d8 00       		.byte	0
 7217 08d9 00       		.byte	0
 7218 08da 0F       		.byte	15
 7219 08db 00       		.byte	0
 7220 08dc 19       		.byte	25
 7221 08dd 80       		.byte	-128
 7222 08de 30       		.byte	48
 7223 08df C0       		.byte	-64
 7224 08e0 30       		.byte	48
 7225 08e1 40       		.byte	64
 7226 08e2 60       		.byte	96
ARM GAS  c:\Users\lenovo\AppData\Local\Temp\cc7gPbIA.s 			page 145


 7227 08e3 60       		.byte	96
 7228 08e4 60       		.byte	96
 7229 08e5 60       		.byte	96
 7230 08e6 60       		.byte	96
 7231 08e7 60       		.byte	96
 7232 08e8 60       		.byte	96
 7233 08e9 60       		.byte	96
 7234 08ea 60       		.byte	96
 7235 08eb 60       		.byte	96
 7236 08ec 60       		.byte	96
 7237 08ed 60       		.byte	96
 7238 08ee 60       		.byte	96
 7239 08ef 60       		.byte	96
 7240 08f0 60       		.byte	96
 7241 08f1 60       		.byte	96
 7242 08f2 30       		.byte	48
 7243 08f3 40       		.byte	64
 7244 08f4 30       		.byte	48
 7245 08f5 C0       		.byte	-64
 7246 08f6 19       		.byte	25
 7247 08f7 80       		.byte	-128
 7248 08f8 0F       		.byte	15
 7249 08f9 00       		.byte	0
 7250 08fa 00       		.byte	0
 7251 08fb 00       		.byte	0
 7252 08fc 00       		.byte	0
 7253 08fd 00       		.byte	0
 7254 08fe 00       		.byte	0
 7255 08ff 00       		.byte	0
 7256 0900 00       		.byte	0
 7257 0901 00       		.byte	0
 7258 0902 00       		.byte	0
 7259 0903 00       		.byte	0
 7260 0904 00       		.byte	0
 7261 0905 00       		.byte	0
 7262 0906 00       		.byte	0
 7263 0907 00       		.byte	0
 7264 0908 00       		.byte	0
 7265 0909 00       		.byte	0
 7266 090a FF       		.byte	-1
 7267 090b 00       		.byte	0
 7268 090c 60       		.byte	96
 7269 090d C0       		.byte	-64
 7270 090e 60       		.byte	96
 7271 090f 60       		.byte	96
 7272 0910 60       		.byte	96
 7273 0911 60       		.byte	96
 7274 0912 60       		.byte	96
 7275 0913 60       		.byte	96
 7276 0914 60       		.byte	96
 7277 0915 60       		.byte	96
 7278 0916 60       		.byte	96
 7279 0917 60       		.byte	96
 7280 0918 61       		.byte	97
 7281 0919 C0       		.byte	-64
 7282 091a 7F       		.byte	127
 7283 091b 00       		.byte	0
ARM GAS  c:\Users\lenovo\AppData\Local\Temp\cc7gPbIA.s 			page 146


 7284 091c 60       		.byte	96
 7285 091d 00       		.byte	0
 7286 091e 60       		.byte	96
 7287 091f 00       		.byte	0
 7288 0920 60       		.byte	96
 7289 0921 00       		.byte	0
 7290 0922 60       		.byte	96
 7291 0923 00       		.byte	0
 7292 0924 60       		.byte	96
 7293 0925 00       		.byte	0
 7294 0926 60       		.byte	96
 7295 0927 00       		.byte	0
 7296 0928 F8       		.byte	-8
 7297 0929 00       		.byte	0
 7298 092a 00       		.byte	0
 7299 092b 00       		.byte	0
 7300 092c 00       		.byte	0
 7301 092d 00       		.byte	0
 7302 092e 00       		.byte	0
 7303 092f 00       		.byte	0
 7304 0930 00       		.byte	0
 7305 0931 00       		.byte	0
 7306 0932 00       		.byte	0
 7307 0933 00       		.byte	0
 7308 0934 00       		.byte	0
 7309 0935 00       		.byte	0
 7310 0936 00       		.byte	0
 7311 0937 00       		.byte	0
 7312 0938 00       		.byte	0
 7313 0939 00       		.byte	0
 7314 093a 0F       		.byte	15
 7315 093b 00       		.byte	0
 7316 093c 19       		.byte	25
 7317 093d 80       		.byte	-128
 7318 093e 30       		.byte	48
 7319 093f C0       		.byte	-64
 7320 0940 30       		.byte	48
 7321 0941 40       		.byte	64
 7322 0942 60       		.byte	96
 7323 0943 60       		.byte	96
 7324 0944 60       		.byte	96
 7325 0945 60       		.byte	96
 7326 0946 60       		.byte	96
 7327 0947 60       		.byte	96
 7328 0948 60       		.byte	96
 7329 0949 60       		.byte	96
 7330 094a 60       		.byte	96
 7331 094b 60       		.byte	96
 7332 094c 60       		.byte	96
 7333 094d 60       		.byte	96
 7334 094e 60       		.byte	96
 7335 094f 60       		.byte	96
 7336 0950 6E       		.byte	110
 7337 0951 60       		.byte	96
 7338 0952 32       		.byte	50
 7339 0953 40       		.byte	64
 7340 0954 33       		.byte	51
ARM GAS  c:\Users\lenovo\AppData\Local\Temp\cc7gPbIA.s 			page 147


 7341 0955 C0       		.byte	-64
 7342 0956 19       		.byte	25
 7343 0957 80       		.byte	-128
 7344 0958 0F       		.byte	15
 7345 0959 00       		.byte	0
 7346 095a 01       		.byte	1
 7347 095b E0       		.byte	-32
 7348 095c 00       		.byte	0
 7349 095d C0       		.byte	-64
 7350 095e 00       		.byte	0
 7351 095f 00       		.byte	0
 7352 0960 00       		.byte	0
 7353 0961 00       		.byte	0
 7354 0962 00       		.byte	0
 7355 0963 00       		.byte	0
 7356 0964 00       		.byte	0
 7357 0965 00       		.byte	0
 7358 0966 00       		.byte	0
 7359 0967 00       		.byte	0
 7360 0968 00       		.byte	0
 7361 0969 00       		.byte	0
 7362 096a FF       		.byte	-1
 7363 096b 80       		.byte	-128
 7364 096c 60       		.byte	96
 7365 096d C0       		.byte	-64
 7366 096e 60       		.byte	96
 7367 096f 60       		.byte	96
 7368 0970 60       		.byte	96
 7369 0971 60       		.byte	96
 7370 0972 60       		.byte	96
 7371 0973 60       		.byte	96
 7372 0974 60       		.byte	96
 7373 0975 60       		.byte	96
 7374 0976 60       		.byte	96
 7375 0977 C0       		.byte	-64
 7376 0978 7F       		.byte	127
 7377 0979 00       		.byte	0
 7378 097a 62       		.byte	98
 7379 097b 00       		.byte	0
 7380 097c 63       		.byte	99
 7381 097d 00       		.byte	0
 7382 097e 61       		.byte	97
 7383 097f 00       		.byte	0
 7384 0980 61       		.byte	97
 7385 0981 80       		.byte	-128
 7386 0982 60       		.byte	96
 7387 0983 C0       		.byte	-64
 7388 0984 60       		.byte	96
 7389 0985 C0       		.byte	-64
 7390 0986 60       		.byte	96
 7391 0987 60       		.byte	96
 7392 0988 F0       		.byte	-16
 7393 0989 70       		.byte	112
 7394 098a 00       		.byte	0
 7395 098b 00       		.byte	0
 7396 098c 00       		.byte	0
 7397 098d 00       		.byte	0
ARM GAS  c:\Users\lenovo\AppData\Local\Temp\cc7gPbIA.s 			page 148


 7398 098e 00       		.byte	0
 7399 098f 00       		.byte	0
 7400 0990 00       		.byte	0
 7401 0991 00       		.byte	0
 7402 0992 00       		.byte	0
 7403 0993 00       		.byte	0
 7404 0994 00       		.byte	0
 7405 0995 00       		.byte	0
 7406 0996 00       		.byte	0
 7407 0997 00       		.byte	0
 7408 0998 00       		.byte	0
 7409 0999 00       		.byte	0
 7410 099a 1F       		.byte	31
 7411 099b 40       		.byte	64
 7412 099c 30       		.byte	48
 7413 099d C0       		.byte	-64
 7414 099e 60       		.byte	96
 7415 099f 40       		.byte	64
 7416 09a0 60       		.byte	96
 7417 09a1 40       		.byte	64
 7418 09a2 60       		.byte	96
 7419 09a3 00       		.byte	0
 7420 09a4 70       		.byte	112
 7421 09a5 00       		.byte	0
 7422 09a6 3C       		.byte	60
 7423 09a7 00       		.byte	0
 7424 09a8 1F       		.byte	31
 7425 09a9 00       		.byte	0
 7426 09aa 07       		.byte	7
 7427 09ab C0       		.byte	-64
 7428 09ac 01       		.byte	1
 7429 09ad C0       		.byte	-64
 7430 09ae 00       		.byte	0
 7431 09af E0       		.byte	-32
 7432 09b0 40       		.byte	64
 7433 09b1 60       		.byte	96
 7434 09b2 40       		.byte	64
 7435 09b3 60       		.byte	96
 7436 09b4 60       		.byte	96
 7437 09b5 60       		.byte	96
 7438 09b6 30       		.byte	48
 7439 09b7 C0       		.byte	-64
 7440 09b8 0F       		.byte	15
 7441 09b9 80       		.byte	-128
 7442 09ba 00       		.byte	0
 7443 09bb 00       		.byte	0
 7444 09bc 00       		.byte	0
 7445 09bd 00       		.byte	0
 7446 09be 00       		.byte	0
 7447 09bf 00       		.byte	0
 7448 09c0 00       		.byte	0
 7449 09c1 00       		.byte	0
 7450 09c2 00       		.byte	0
 7451 09c3 00       		.byte	0
 7452 09c4 00       		.byte	0
 7453 09c5 00       		.byte	0
 7454 09c6 00       		.byte	0
ARM GAS  c:\Users\lenovo\AppData\Local\Temp\cc7gPbIA.s 			page 149


 7455 09c7 00       		.byte	0
 7456 09c8 00       		.byte	0
 7457 09c9 00       		.byte	0
 7458 09ca 7F       		.byte	127
 7459 09cb E0       		.byte	-32
 7460 09cc 46       		.byte	70
 7461 09cd 20       		.byte	32
 7462 09ce 86       		.byte	-122
 7463 09cf 10       		.byte	16
 7464 09d0 86       		.byte	-122
 7465 09d1 10       		.byte	16
 7466 09d2 06       		.byte	6
 7467 09d3 00       		.byte	0
 7468 09d4 06       		.byte	6
 7469 09d5 00       		.byte	0
 7470 09d6 06       		.byte	6
 7471 09d7 00       		.byte	0
 7472 09d8 06       		.byte	6
 7473 09d9 00       		.byte	0
 7474 09da 06       		.byte	6
 7475 09db 00       		.byte	0
 7476 09dc 06       		.byte	6
 7477 09dd 00       		.byte	0
 7478 09de 06       		.byte	6
 7479 09df 00       		.byte	0
 7480 09e0 06       		.byte	6
 7481 09e1 00       		.byte	0
 7482 09e2 06       		.byte	6
 7483 09e3 00       		.byte	0
 7484 09e4 06       		.byte	6
 7485 09e5 00       		.byte	0
 7486 09e6 06       		.byte	6
 7487 09e7 00       		.byte	0
 7488 09e8 1F       		.byte	31
 7489 09e9 80       		.byte	-128
 7490 09ea 00       		.byte	0
 7491 09eb 00       		.byte	0
 7492 09ec 00       		.byte	0
 7493 09ed 00       		.byte	0
 7494 09ee 00       		.byte	0
 7495 09ef 00       		.byte	0
 7496 09f0 00       		.byte	0
 7497 09f1 00       		.byte	0
 7498 09f2 00       		.byte	0
 7499 09f3 00       		.byte	0
 7500 09f4 00       		.byte	0
 7501 09f5 00       		.byte	0
 7502 09f6 00       		.byte	0
 7503 09f7 00       		.byte	0
 7504 09f8 00       		.byte	0
 7505 09f9 00       		.byte	0
 7506 09fa 78       		.byte	120
 7507 09fb E0       		.byte	-32
 7508 09fc 30       		.byte	48
 7509 09fd 40       		.byte	64
 7510 09fe 30       		.byte	48
 7511 09ff 40       		.byte	64
ARM GAS  c:\Users\lenovo\AppData\Local\Temp\cc7gPbIA.s 			page 150


 7512 0a00 30       		.byte	48
 7513 0a01 40       		.byte	64
 7514 0a02 30       		.byte	48
 7515 0a03 40       		.byte	64
 7516 0a04 30       		.byte	48
 7517 0a05 40       		.byte	64
 7518 0a06 30       		.byte	48
 7519 0a07 40       		.byte	64
 7520 0a08 30       		.byte	48
 7521 0a09 40       		.byte	64
 7522 0a0a 30       		.byte	48
 7523 0a0b 40       		.byte	64
 7524 0a0c 30       		.byte	48
 7525 0a0d 40       		.byte	64
 7526 0a0e 30       		.byte	48
 7527 0a0f 40       		.byte	64
 7528 0a10 30       		.byte	48
 7529 0a11 40       		.byte	64
 7530 0a12 30       		.byte	48
 7531 0a13 40       		.byte	64
 7532 0a14 30       		.byte	48
 7533 0a15 40       		.byte	64
 7534 0a16 18       		.byte	24
 7535 0a17 80       		.byte	-128
 7536 0a18 0F       		.byte	15
 7537 0a19 00       		.byte	0
 7538 0a1a 00       		.byte	0
 7539 0a1b 00       		.byte	0
 7540 0a1c 00       		.byte	0
 7541 0a1d 00       		.byte	0
 7542 0a1e 00       		.byte	0
 7543 0a1f 00       		.byte	0
 7544 0a20 00       		.byte	0
 7545 0a21 00       		.byte	0
 7546 0a22 00       		.byte	0
 7547 0a23 00       		.byte	0
 7548 0a24 00       		.byte	0
 7549 0a25 00       		.byte	0
 7550 0a26 00       		.byte	0
 7551 0a27 00       		.byte	0
 7552 0a28 00       		.byte	0
 7553 0a29 00       		.byte	0
 7554 0a2a F0       		.byte	-16
 7555 0a2b E0       		.byte	-32
 7556 0a2c 60       		.byte	96
 7557 0a2d 40       		.byte	64
 7558 0a2e 20       		.byte	32
 7559 0a2f 80       		.byte	-128
 7560 0a30 20       		.byte	32
 7561 0a31 80       		.byte	-128
 7562 0a32 30       		.byte	48
 7563 0a33 80       		.byte	-128
 7564 0a34 30       		.byte	48
 7565 0a35 80       		.byte	-128
 7566 0a36 11       		.byte	17
 7567 0a37 00       		.byte	0
 7568 0a38 11       		.byte	17
ARM GAS  c:\Users\lenovo\AppData\Local\Temp\cc7gPbIA.s 			page 151


 7569 0a39 00       		.byte	0
 7570 0a3a 19       		.byte	25
 7571 0a3b 00       		.byte	0
 7572 0a3c 19       		.byte	25
 7573 0a3d 00       		.byte	0
 7574 0a3e 0A       		.byte	10
 7575 0a3f 00       		.byte	0
 7576 0a40 0A       		.byte	10
 7577 0a41 00       		.byte	0
 7578 0a42 0E       		.byte	14
 7579 0a43 00       		.byte	0
 7580 0a44 0C       		.byte	12
 7581 0a45 00       		.byte	0
 7582 0a46 04       		.byte	4
 7583 0a47 00       		.byte	0
 7584 0a48 04       		.byte	4
 7585 0a49 00       		.byte	0
 7586 0a4a 00       		.byte	0
 7587 0a4b 00       		.byte	0
 7588 0a4c 00       		.byte	0
 7589 0a4d 00       		.byte	0
 7590 0a4e 00       		.byte	0
 7591 0a4f 00       		.byte	0
 7592 0a50 00       		.byte	0
 7593 0a51 00       		.byte	0
 7594 0a52 00       		.byte	0
 7595 0a53 00       		.byte	0
 7596 0a54 00       		.byte	0
 7597 0a55 00       		.byte	0
 7598 0a56 00       		.byte	0
 7599 0a57 00       		.byte	0
 7600 0a58 00       		.byte	0
 7601 0a59 00       		.byte	0
 7602 0a5a EF       		.byte	-17
 7603 0a5b 70       		.byte	112
 7604 0a5c 46       		.byte	70
 7605 0a5d 20       		.byte	32
 7606 0a5e 42       		.byte	66
 7607 0a5f 20       		.byte	32
 7608 0a60 62       		.byte	98
 7609 0a61 20       		.byte	32
 7610 0a62 62       		.byte	98
 7611 0a63 20       		.byte	32
 7612 0a64 26       		.byte	38
 7613 0a65 40       		.byte	64
 7614 0a66 26       		.byte	38
 7615 0a67 40       		.byte	64
 7616 0a68 27       		.byte	39
 7617 0a69 40       		.byte	64
 7618 0a6a 27       		.byte	39
 7619 0a6b 40       		.byte	64
 7620 0a6c 39       		.byte	57
 7621 0a6d 40       		.byte	64
 7622 0a6e 39       		.byte	57
 7623 0a6f 80       		.byte	-128
 7624 0a70 19       		.byte	25
 7625 0a71 80       		.byte	-128
ARM GAS  c:\Users\lenovo\AppData\Local\Temp\cc7gPbIA.s 			page 152


 7626 0a72 19       		.byte	25
 7627 0a73 80       		.byte	-128
 7628 0a74 11       		.byte	17
 7629 0a75 80       		.byte	-128
 7630 0a76 11       		.byte	17
 7631 0a77 00       		.byte	0
 7632 0a78 11       		.byte	17
 7633 0a79 00       		.byte	0
 7634 0a7a 00       		.byte	0
 7635 0a7b 00       		.byte	0
 7636 0a7c 00       		.byte	0
 7637 0a7d 00       		.byte	0
 7638 0a7e 00       		.byte	0
 7639 0a7f 00       		.byte	0
 7640 0a80 00       		.byte	0
 7641 0a81 00       		.byte	0
 7642 0a82 00       		.byte	0
 7643 0a83 00       		.byte	0
 7644 0a84 00       		.byte	0
 7645 0a85 00       		.byte	0
 7646 0a86 00       		.byte	0
 7647 0a87 00       		.byte	0
 7648 0a88 00       		.byte	0
 7649 0a89 00       		.byte	0
 7650 0a8a 79       		.byte	121
 7651 0a8b E0       		.byte	-32
 7652 0a8c 30       		.byte	48
 7653 0a8d 80       		.byte	-128
 7654 0a8e 10       		.byte	16
 7655 0a8f 80       		.byte	-128
 7656 0a90 18       		.byte	24
 7657 0a91 80       		.byte	-128
 7658 0a92 09       		.byte	9
 7659 0a93 00       		.byte	0
 7660 0a94 0D       		.byte	13
 7661 0a95 00       		.byte	0
 7662 0a96 06       		.byte	6
 7663 0a97 00       		.byte	0
 7664 0a98 04       		.byte	4
 7665 0a99 00       		.byte	0
 7666 0a9a 06       		.byte	6
 7667 0a9b 00       		.byte	0
 7668 0a9c 06       		.byte	6
 7669 0a9d 00       		.byte	0
 7670 0a9e 0B       		.byte	11
 7671 0a9f 00       		.byte	0
 7672 0aa0 09       		.byte	9
 7673 0aa1 00       		.byte	0
 7674 0aa2 11       		.byte	17
 7675 0aa3 80       		.byte	-128
 7676 0aa4 10       		.byte	16
 7677 0aa5 80       		.byte	-128
 7678 0aa6 20       		.byte	32
 7679 0aa7 C0       		.byte	-64
 7680 0aa8 71       		.byte	113
 7681 0aa9 E0       		.byte	-32
 7682 0aaa 00       		.byte	0
ARM GAS  c:\Users\lenovo\AppData\Local\Temp\cc7gPbIA.s 			page 153


 7683 0aab 00       		.byte	0
 7684 0aac 00       		.byte	0
 7685 0aad 00       		.byte	0
 7686 0aae 00       		.byte	0
 7687 0aaf 00       		.byte	0
 7688 0ab0 00       		.byte	0
 7689 0ab1 00       		.byte	0
 7690 0ab2 00       		.byte	0
 7691 0ab3 00       		.byte	0
 7692 0ab4 00       		.byte	0
 7693 0ab5 00       		.byte	0
 7694 0ab6 00       		.byte	0
 7695 0ab7 00       		.byte	0
 7696 0ab8 00       		.byte	0
 7697 0ab9 00       		.byte	0
 7698 0aba F0       		.byte	-16
 7699 0abb F0       		.byte	-16
 7700 0abc 60       		.byte	96
 7701 0abd 20       		.byte	32
 7702 0abe 20       		.byte	32
 7703 0abf 40       		.byte	64
 7704 0ac0 30       		.byte	48
 7705 0ac1 40       		.byte	64
 7706 0ac2 10       		.byte	16
 7707 0ac3 80       		.byte	-128
 7708 0ac4 18       		.byte	24
 7709 0ac5 80       		.byte	-128
 7710 0ac6 1D       		.byte	29
 7711 0ac7 00       		.byte	0
 7712 0ac8 0D       		.byte	13
 7713 0ac9 00       		.byte	0
 7714 0aca 0E       		.byte	14
 7715 0acb 00       		.byte	0
 7716 0acc 06       		.byte	6
 7717 0acd 00       		.byte	0
 7718 0ace 06       		.byte	6
 7719 0acf 00       		.byte	0
 7720 0ad0 06       		.byte	6
 7721 0ad1 00       		.byte	0
 7722 0ad2 06       		.byte	6
 7723 0ad3 00       		.byte	0
 7724 0ad4 06       		.byte	6
 7725 0ad5 00       		.byte	0
 7726 0ad6 06       		.byte	6
 7727 0ad7 00       		.byte	0
 7728 0ad8 1F       		.byte	31
 7729 0ad9 80       		.byte	-128
 7730 0ada 00       		.byte	0
 7731 0adb 00       		.byte	0
 7732 0adc 00       		.byte	0
 7733 0add 00       		.byte	0
 7734 0ade 00       		.byte	0
 7735 0adf 00       		.byte	0
 7736 0ae0 00       		.byte	0
 7737 0ae1 00       		.byte	0
 7738 0ae2 00       		.byte	0
 7739 0ae3 00       		.byte	0
ARM GAS  c:\Users\lenovo\AppData\Local\Temp\cc7gPbIA.s 			page 154


 7740 0ae4 00       		.byte	0
 7741 0ae5 00       		.byte	0
 7742 0ae6 00       		.byte	0
 7743 0ae7 00       		.byte	0
 7744 0ae8 00       		.byte	0
 7745 0ae9 00       		.byte	0
 7746 0aea 3F       		.byte	63
 7747 0aeb E0       		.byte	-32
 7748 0aec 30       		.byte	48
 7749 0aed 40       		.byte	64
 7750 0aee 60       		.byte	96
 7751 0aef C0       		.byte	-64
 7752 0af0 40       		.byte	64
 7753 0af1 80       		.byte	-128
 7754 0af2 01       		.byte	1
 7755 0af3 80       		.byte	-128
 7756 0af4 01       		.byte	1
 7757 0af5 00       		.byte	0
 7758 0af6 02       		.byte	2
 7759 0af7 00       		.byte	0
 7760 0af8 02       		.byte	2
 7761 0af9 00       		.byte	0
 7762 0afa 04       		.byte	4
 7763 0afb 00       		.byte	0
 7764 0afc 04       		.byte	4
 7765 0afd 00       		.byte	0
 7766 0afe 08       		.byte	8
 7767 0aff 00       		.byte	0
 7768 0b00 18       		.byte	24
 7769 0b01 00       		.byte	0
 7770 0b02 10       		.byte	16
 7771 0b03 20       		.byte	32
 7772 0b04 30       		.byte	48
 7773 0b05 20       		.byte	32
 7774 0b06 20       		.byte	32
 7775 0b07 40       		.byte	64
 7776 0b08 7F       		.byte	127
 7777 0b09 C0       		.byte	-64
 7778 0b0a 00       		.byte	0
 7779 0b0b 00       		.byte	0
 7780 0b0c 00       		.byte	0
 7781 0b0d 00       		.byte	0
 7782 0b0e 00       		.byte	0
 7783 0b0f 00       		.byte	0
 7784 0b10 00       		.byte	0
 7785 0b11 00       		.byte	0
 7786 0b12 00       		.byte	0
 7787 0b13 00       		.byte	0
 7788 0b14 07       		.byte	7
 7789 0b15 C0       		.byte	-64
 7790 0b16 04       		.byte	4
 7791 0b17 00       		.byte	0
 7792 0b18 04       		.byte	4
 7793 0b19 00       		.byte	0
 7794 0b1a 04       		.byte	4
 7795 0b1b 00       		.byte	0
 7796 0b1c 04       		.byte	4
ARM GAS  c:\Users\lenovo\AppData\Local\Temp\cc7gPbIA.s 			page 155


 7797 0b1d 00       		.byte	0
 7798 0b1e 04       		.byte	4
 7799 0b1f 00       		.byte	0
 7800 0b20 04       		.byte	4
 7801 0b21 00       		.byte	0
 7802 0b22 04       		.byte	4
 7803 0b23 00       		.byte	0
 7804 0b24 04       		.byte	4
 7805 0b25 00       		.byte	0
 7806 0b26 04       		.byte	4
 7807 0b27 00       		.byte	0
 7808 0b28 04       		.byte	4
 7809 0b29 00       		.byte	0
 7810 0b2a 04       		.byte	4
 7811 0b2b 00       		.byte	0
 7812 0b2c 04       		.byte	4
 7813 0b2d 00       		.byte	0
 7814 0b2e 04       		.byte	4
 7815 0b2f 00       		.byte	0
 7816 0b30 04       		.byte	4
 7817 0b31 00       		.byte	0
 7818 0b32 04       		.byte	4
 7819 0b33 00       		.byte	0
 7820 0b34 04       		.byte	4
 7821 0b35 00       		.byte	0
 7822 0b36 04       		.byte	4
 7823 0b37 00       		.byte	0
 7824 0b38 04       		.byte	4
 7825 0b39 00       		.byte	0
 7826 0b3a 04       		.byte	4
 7827 0b3b 00       		.byte	0
 7828 0b3c 07       		.byte	7
 7829 0b3d C0       		.byte	-64
 7830 0b3e 00       		.byte	0
 7831 0b3f 00       		.byte	0
 7832 0b40 00       		.byte	0
 7833 0b41 00       		.byte	0
 7834 0b42 00       		.byte	0
 7835 0b43 00       		.byte	0
 7836 0b44 00       		.byte	0
 7837 0b45 00       		.byte	0
 7838 0b46 00       		.byte	0
 7839 0b47 00       		.byte	0
 7840 0b48 20       		.byte	32
 7841 0b49 00       		.byte	0
 7842 0b4a 20       		.byte	32
 7843 0b4b 00       		.byte	0
 7844 0b4c 10       		.byte	16
 7845 0b4d 00       		.byte	0
 7846 0b4e 10       		.byte	16
 7847 0b4f 00       		.byte	0
 7848 0b50 08       		.byte	8
 7849 0b51 00       		.byte	0
 7850 0b52 08       		.byte	8
 7851 0b53 00       		.byte	0
 7852 0b54 08       		.byte	8
 7853 0b55 00       		.byte	0
ARM GAS  c:\Users\lenovo\AppData\Local\Temp\cc7gPbIA.s 			page 156


 7854 0b56 04       		.byte	4
 7855 0b57 00       		.byte	0
 7856 0b58 04       		.byte	4
 7857 0b59 00       		.byte	0
 7858 0b5a 02       		.byte	2
 7859 0b5b 00       		.byte	0
 7860 0b5c 02       		.byte	2
 7861 0b5d 00       		.byte	0
 7862 0b5e 03       		.byte	3
 7863 0b5f 00       		.byte	0
 7864 0b60 01       		.byte	1
 7865 0b61 00       		.byte	0
 7866 0b62 01       		.byte	1
 7867 0b63 00       		.byte	0
 7868 0b64 00       		.byte	0
 7869 0b65 80       		.byte	-128
 7870 0b66 00       		.byte	0
 7871 0b67 80       		.byte	-128
 7872 0b68 00       		.byte	0
 7873 0b69 40       		.byte	64
 7874 0b6a 00       		.byte	0
 7875 0b6b 40       		.byte	64
 7876 0b6c 00       		.byte	0
 7877 0b6d 40       		.byte	64
 7878 0b6e 00       		.byte	0
 7879 0b6f 20       		.byte	32
 7880 0b70 00       		.byte	0
 7881 0b71 00       		.byte	0
 7882 0b72 00       		.byte	0
 7883 0b73 00       		.byte	0
 7884 0b74 3E       		.byte	62
 7885 0b75 00       		.byte	0
 7886 0b76 02       		.byte	2
 7887 0b77 00       		.byte	0
 7888 0b78 02       		.byte	2
 7889 0b79 00       		.byte	0
 7890 0b7a 02       		.byte	2
 7891 0b7b 00       		.byte	0
 7892 0b7c 02       		.byte	2
 7893 0b7d 00       		.byte	0
 7894 0b7e 02       		.byte	2
 7895 0b7f 00       		.byte	0
 7896 0b80 02       		.byte	2
 7897 0b81 00       		.byte	0
 7898 0b82 02       		.byte	2
 7899 0b83 00       		.byte	0
 7900 0b84 02       		.byte	2
 7901 0b85 00       		.byte	0
 7902 0b86 02       		.byte	2
 7903 0b87 00       		.byte	0
 7904 0b88 02       		.byte	2
 7905 0b89 00       		.byte	0
 7906 0b8a 02       		.byte	2
 7907 0b8b 00       		.byte	0
 7908 0b8c 02       		.byte	2
 7909 0b8d 00       		.byte	0
 7910 0b8e 02       		.byte	2
ARM GAS  c:\Users\lenovo\AppData\Local\Temp\cc7gPbIA.s 			page 157


 7911 0b8f 00       		.byte	0
 7912 0b90 02       		.byte	2
 7913 0b91 00       		.byte	0
 7914 0b92 02       		.byte	2
 7915 0b93 00       		.byte	0
 7916 0b94 02       		.byte	2
 7917 0b95 00       		.byte	0
 7918 0b96 02       		.byte	2
 7919 0b97 00       		.byte	0
 7920 0b98 02       		.byte	2
 7921 0b99 00       		.byte	0
 7922 0b9a 02       		.byte	2
 7923 0b9b 00       		.byte	0
 7924 0b9c 3E       		.byte	62
 7925 0b9d 00       		.byte	0
 7926 0b9e 00       		.byte	0
 7927 0b9f 00       		.byte	0
 7928 0ba0 00       		.byte	0
 7929 0ba1 00       		.byte	0
 7930 0ba2 06       		.byte	6
 7931 0ba3 00       		.byte	0
 7932 0ba4 09       		.byte	9
 7933 0ba5 00       		.byte	0
 7934 0ba6 10       		.byte	16
 7935 0ba7 80       		.byte	-128
 7936 0ba8 00       		.byte	0
 7937 0ba9 00       		.byte	0
 7938 0baa 00       		.byte	0
 7939 0bab 00       		.byte	0
 7940 0bac 00       		.byte	0
 7941 0bad 00       		.byte	0
 7942 0bae 00       		.byte	0
 7943 0baf 00       		.byte	0
 7944 0bb0 00       		.byte	0
 7945 0bb1 00       		.byte	0
 7946 0bb2 00       		.byte	0
 7947 0bb3 00       		.byte	0
 7948 0bb4 00       		.byte	0
 7949 0bb5 00       		.byte	0
 7950 0bb6 00       		.byte	0
 7951 0bb7 00       		.byte	0
 7952 0bb8 00       		.byte	0
 7953 0bb9 00       		.byte	0
 7954 0bba 00       		.byte	0
 7955 0bbb 00       		.byte	0
 7956 0bbc 00       		.byte	0
 7957 0bbd 00       		.byte	0
 7958 0bbe 00       		.byte	0
 7959 0bbf 00       		.byte	0
 7960 0bc0 00       		.byte	0
 7961 0bc1 00       		.byte	0
 7962 0bc2 00       		.byte	0
 7963 0bc3 00       		.byte	0
 7964 0bc4 00       		.byte	0
 7965 0bc5 00       		.byte	0
 7966 0bc6 00       		.byte	0
 7967 0bc7 00       		.byte	0
ARM GAS  c:\Users\lenovo\AppData\Local\Temp\cc7gPbIA.s 			page 158


 7968 0bc8 00       		.byte	0
 7969 0bc9 00       		.byte	0
 7970 0bca 00       		.byte	0
 7971 0bcb 00       		.byte	0
 7972 0bcc 00       		.byte	0
 7973 0bcd 00       		.byte	0
 7974 0bce 00       		.byte	0
 7975 0bcf 00       		.byte	0
 7976 0bd0 00       		.byte	0
 7977 0bd1 00       		.byte	0
 7978 0bd2 00       		.byte	0
 7979 0bd3 00       		.byte	0
 7980 0bd4 00       		.byte	0
 7981 0bd5 00       		.byte	0
 7982 0bd6 00       		.byte	0
 7983 0bd7 00       		.byte	0
 7984 0bd8 00       		.byte	0
 7985 0bd9 00       		.byte	0
 7986 0bda 00       		.byte	0
 7987 0bdb 00       		.byte	0
 7988 0bdc 00       		.byte	0
 7989 0bdd 00       		.byte	0
 7990 0bde 00       		.byte	0
 7991 0bdf 00       		.byte	0
 7992 0be0 00       		.byte	0
 7993 0be1 00       		.byte	0
 7994 0be2 00       		.byte	0
 7995 0be3 00       		.byte	0
 7996 0be4 00       		.byte	0
 7997 0be5 00       		.byte	0
 7998 0be6 00       		.byte	0
 7999 0be7 00       		.byte	0
 8000 0be8 00       		.byte	0
 8001 0be9 00       		.byte	0
 8002 0bea 00       		.byte	0
 8003 0beb 00       		.byte	0
 8004 0bec 00       		.byte	0
 8005 0bed 00       		.byte	0
 8006 0bee 00       		.byte	0
 8007 0bef 00       		.byte	0
 8008 0bf0 00       		.byte	0
 8009 0bf1 00       		.byte	0
 8010 0bf2 00       		.byte	0
 8011 0bf3 00       		.byte	0
 8012 0bf4 00       		.byte	0
 8013 0bf5 00       		.byte	0
 8014 0bf6 00       		.byte	0
 8015 0bf7 00       		.byte	0
 8016 0bf8 00       		.byte	0
 8017 0bf9 00       		.byte	0
 8018 0bfa 00       		.byte	0
 8019 0bfb 00       		.byte	0
 8020 0bfc 00       		.byte	0
 8021 0bfd 00       		.byte	0
 8022 0bfe FF       		.byte	-1
 8023 0bff F0       		.byte	-16
 8024 0c00 00       		.byte	0
ARM GAS  c:\Users\lenovo\AppData\Local\Temp\cc7gPbIA.s 			page 159


 8025 0c01 00       		.byte	0
 8026 0c02 00       		.byte	0
 8027 0c03 00       		.byte	0
 8028 0c04 18       		.byte	24
 8029 0c05 00       		.byte	0
 8030 0c06 06       		.byte	6
 8031 0c07 00       		.byte	0
 8032 0c08 00       		.byte	0
 8033 0c09 00       		.byte	0
 8034 0c0a 00       		.byte	0
 8035 0c0b 00       		.byte	0
 8036 0c0c 00       		.byte	0
 8037 0c0d 00       		.byte	0
 8038 0c0e 00       		.byte	0
 8039 0c0f 00       		.byte	0
 8040 0c10 00       		.byte	0
 8041 0c11 00       		.byte	0
 8042 0c12 00       		.byte	0
 8043 0c13 00       		.byte	0
 8044 0c14 00       		.byte	0
 8045 0c15 00       		.byte	0
 8046 0c16 00       		.byte	0
 8047 0c17 00       		.byte	0
 8048 0c18 00       		.byte	0
 8049 0c19 00       		.byte	0
 8050 0c1a 00       		.byte	0
 8051 0c1b 00       		.byte	0
 8052 0c1c 00       		.byte	0
 8053 0c1d 00       		.byte	0
 8054 0c1e 00       		.byte	0
 8055 0c1f 00       		.byte	0
 8056 0c20 00       		.byte	0
 8057 0c21 00       		.byte	0
 8058 0c22 00       		.byte	0
 8059 0c23 00       		.byte	0
 8060 0c24 00       		.byte	0
 8061 0c25 00       		.byte	0
 8062 0c26 00       		.byte	0
 8063 0c27 00       		.byte	0
 8064 0c28 00       		.byte	0
 8065 0c29 00       		.byte	0
 8066 0c2a 00       		.byte	0
 8067 0c2b 00       		.byte	0
 8068 0c2c 00       		.byte	0
 8069 0c2d 00       		.byte	0
 8070 0c2e 00       		.byte	0
 8071 0c2f 00       		.byte	0
 8072 0c30 00       		.byte	0
 8073 0c31 00       		.byte	0
 8074 0c32 00       		.byte	0
 8075 0c33 00       		.byte	0
 8076 0c34 00       		.byte	0
 8077 0c35 00       		.byte	0
 8078 0c36 00       		.byte	0
 8079 0c37 00       		.byte	0
 8080 0c38 00       		.byte	0
 8081 0c39 00       		.byte	0
ARM GAS  c:\Users\lenovo\AppData\Local\Temp\cc7gPbIA.s 			page 160


 8082 0c3a 00       		.byte	0
 8083 0c3b 00       		.byte	0
 8084 0c3c 00       		.byte	0
 8085 0c3d 00       		.byte	0
 8086 0c3e 00       		.byte	0
 8087 0c3f 00       		.byte	0
 8088 0c40 00       		.byte	0
 8089 0c41 00       		.byte	0
 8090 0c42 00       		.byte	0
 8091 0c43 00       		.byte	0
 8092 0c44 0F       		.byte	15
 8093 0c45 80       		.byte	-128
 8094 0c46 30       		.byte	48
 8095 0c47 C0       		.byte	-64
 8096 0c48 30       		.byte	48
 8097 0c49 C0       		.byte	-64
 8098 0c4a 00       		.byte	0
 8099 0c4b C0       		.byte	-64
 8100 0c4c 07       		.byte	7
 8101 0c4d C0       		.byte	-64
 8102 0c4e 38       		.byte	56
 8103 0c4f C0       		.byte	-64
 8104 0c50 70       		.byte	112
 8105 0c51 C0       		.byte	-64
 8106 0c52 60       		.byte	96
 8107 0c53 C0       		.byte	-64
 8108 0c54 60       		.byte	96
 8109 0c55 C0       		.byte	-64
 8110 0c56 71       		.byte	113
 8111 0c57 D0       		.byte	-48
 8112 0c58 3E       		.byte	62
 8113 0c59 70       		.byte	112
 8114 0c5a 00       		.byte	0
 8115 0c5b 00       		.byte	0
 8116 0c5c 00       		.byte	0
 8117 0c5d 00       		.byte	0
 8118 0c5e 00       		.byte	0
 8119 0c5f 00       		.byte	0
 8120 0c60 00       		.byte	0
 8121 0c61 00       		.byte	0
 8122 0c62 00       		.byte	0
 8123 0c63 00       		.byte	0
 8124 0c64 00       		.byte	0
 8125 0c65 00       		.byte	0
 8126 0c66 00       		.byte	0
 8127 0c67 00       		.byte	0
 8128 0c68 10       		.byte	16
 8129 0c69 00       		.byte	0
 8130 0c6a 70       		.byte	112
 8131 0c6b 00       		.byte	0
 8132 0c6c 30       		.byte	48
 8133 0c6d 00       		.byte	0
 8134 0c6e 30       		.byte	48
 8135 0c6f 00       		.byte	0
 8136 0c70 30       		.byte	48
 8137 0c71 00       		.byte	0
 8138 0c72 30       		.byte	48
ARM GAS  c:\Users\lenovo\AppData\Local\Temp\cc7gPbIA.s 			page 161


 8139 0c73 00       		.byte	0
 8140 0c74 33       		.byte	51
 8141 0c75 80       		.byte	-128
 8142 0c76 3C       		.byte	60
 8143 0c77 C0       		.byte	-64
 8144 0c78 38       		.byte	56
 8145 0c79 60       		.byte	96
 8146 0c7a 30       		.byte	48
 8147 0c7b 60       		.byte	96
 8148 0c7c 30       		.byte	48
 8149 0c7d 60       		.byte	96
 8150 0c7e 30       		.byte	48
 8151 0c7f 60       		.byte	96
 8152 0c80 30       		.byte	48
 8153 0c81 60       		.byte	96
 8154 0c82 30       		.byte	48
 8155 0c83 60       		.byte	96
 8156 0c84 30       		.byte	48
 8157 0c85 40       		.byte	64
 8158 0c86 38       		.byte	56
 8159 0c87 C0       		.byte	-64
 8160 0c88 27       		.byte	39
 8161 0c89 80       		.byte	-128
 8162 0c8a 00       		.byte	0
 8163 0c8b 00       		.byte	0
 8164 0c8c 00       		.byte	0
 8165 0c8d 00       		.byte	0
 8166 0c8e 00       		.byte	0
 8167 0c8f 00       		.byte	0
 8168 0c90 00       		.byte	0
 8169 0c91 00       		.byte	0
 8170 0c92 00       		.byte	0
 8171 0c93 00       		.byte	0
 8172 0c94 00       		.byte	0
 8173 0c95 00       		.byte	0
 8174 0c96 00       		.byte	0
 8175 0c97 00       		.byte	0
 8176 0c98 00       		.byte	0
 8177 0c99 00       		.byte	0
 8178 0c9a 00       		.byte	0
 8179 0c9b 00       		.byte	0
 8180 0c9c 00       		.byte	0
 8181 0c9d 00       		.byte	0
 8182 0c9e 00       		.byte	0
 8183 0c9f 00       		.byte	0
 8184 0ca0 00       		.byte	0
 8185 0ca1 00       		.byte	0
 8186 0ca2 00       		.byte	0
 8187 0ca3 00       		.byte	0
 8188 0ca4 0F       		.byte	15
 8189 0ca5 00       		.byte	0
 8190 0ca6 31       		.byte	49
 8191 0ca7 80       		.byte	-128
 8192 0ca8 31       		.byte	49
 8193 0ca9 80       		.byte	-128
 8194 0caa 61       		.byte	97
 8195 0cab 80       		.byte	-128
ARM GAS  c:\Users\lenovo\AppData\Local\Temp\cc7gPbIA.s 			page 162


 8196 0cac 60       		.byte	96
 8197 0cad 00       		.byte	0
 8198 0cae 60       		.byte	96
 8199 0caf 00       		.byte	0
 8200 0cb0 60       		.byte	96
 8201 0cb1 00       		.byte	0
 8202 0cb2 60       		.byte	96
 8203 0cb3 40       		.byte	64
 8204 0cb4 30       		.byte	48
 8205 0cb5 40       		.byte	64
 8206 0cb6 30       		.byte	48
 8207 0cb7 80       		.byte	-128
 8208 0cb8 0F       		.byte	15
 8209 0cb9 00       		.byte	0
 8210 0cba 00       		.byte	0
 8211 0cbb 00       		.byte	0
 8212 0cbc 00       		.byte	0
 8213 0cbd 00       		.byte	0
 8214 0cbe 00       		.byte	0
 8215 0cbf 00       		.byte	0
 8216 0cc0 00       		.byte	0
 8217 0cc1 00       		.byte	0
 8218 0cc2 00       		.byte	0
 8219 0cc3 00       		.byte	0
 8220 0cc4 00       		.byte	0
 8221 0cc5 00       		.byte	0
 8222 0cc6 00       		.byte	0
 8223 0cc7 00       		.byte	0
 8224 0cc8 00       		.byte	0
 8225 0cc9 40       		.byte	64
 8226 0cca 03       		.byte	3
 8227 0ccb C0       		.byte	-64
 8228 0ccc 00       		.byte	0
 8229 0ccd C0       		.byte	-64
 8230 0cce 00       		.byte	0
 8231 0ccf C0       		.byte	-64
 8232 0cd0 00       		.byte	0
 8233 0cd1 C0       		.byte	-64
 8234 0cd2 00       		.byte	0
 8235 0cd3 C0       		.byte	-64
 8236 0cd4 1E       		.byte	30
 8237 0cd5 C0       		.byte	-64
 8238 0cd6 31       		.byte	49
 8239 0cd7 C0       		.byte	-64
 8240 0cd8 30       		.byte	48
 8241 0cd9 C0       		.byte	-64
 8242 0cda 60       		.byte	96
 8243 0cdb C0       		.byte	-64
 8244 0cdc 60       		.byte	96
 8245 0cdd C0       		.byte	-64
 8246 0cde 60       		.byte	96
 8247 0cdf C0       		.byte	-64
 8248 0ce0 60       		.byte	96
 8249 0ce1 C0       		.byte	-64
 8250 0ce2 60       		.byte	96
 8251 0ce3 C0       		.byte	-64
 8252 0ce4 20       		.byte	32
ARM GAS  c:\Users\lenovo\AppData\Local\Temp\cc7gPbIA.s 			page 163


 8253 0ce5 C0       		.byte	-64
 8254 0ce6 31       		.byte	49
 8255 0ce7 E0       		.byte	-32
 8256 0ce8 1E       		.byte	30
 8257 0ce9 80       		.byte	-128
 8258 0cea 00       		.byte	0
 8259 0ceb 00       		.byte	0
 8260 0cec 00       		.byte	0
 8261 0ced 00       		.byte	0
 8262 0cee 00       		.byte	0
 8263 0cef 00       		.byte	0
 8264 0cf0 00       		.byte	0
 8265 0cf1 00       		.byte	0
 8266 0cf2 00       		.byte	0
 8267 0cf3 00       		.byte	0
 8268 0cf4 00       		.byte	0
 8269 0cf5 00       		.byte	0
 8270 0cf6 00       		.byte	0
 8271 0cf7 00       		.byte	0
 8272 0cf8 00       		.byte	0
 8273 0cf9 00       		.byte	0
 8274 0cfa 00       		.byte	0
 8275 0cfb 00       		.byte	0
 8276 0cfc 00       		.byte	0
 8277 0cfd 00       		.byte	0
 8278 0cfe 00       		.byte	0
 8279 0cff 00       		.byte	0
 8280 0d00 00       		.byte	0
 8281 0d01 00       		.byte	0
 8282 0d02 00       		.byte	0
 8283 0d03 00       		.byte	0
 8284 0d04 07       		.byte	7
 8285 0d05 80       		.byte	-128
 8286 0d06 18       		.byte	24
 8287 0d07 C0       		.byte	-64
 8288 0d08 10       		.byte	16
 8289 0d09 40       		.byte	64
 8290 0d0a 30       		.byte	48
 8291 0d0b 60       		.byte	96
 8292 0d0c 30       		.byte	48
 8293 0d0d 60       		.byte	96
 8294 0d0e 3F       		.byte	63
 8295 0d0f E0       		.byte	-32
 8296 0d10 30       		.byte	48
 8297 0d11 00       		.byte	0
 8298 0d12 30       		.byte	48
 8299 0d13 00       		.byte	0
 8300 0d14 18       		.byte	24
 8301 0d15 20       		.byte	32
 8302 0d16 18       		.byte	24
 8303 0d17 40       		.byte	64
 8304 0d18 07       		.byte	7
 8305 0d19 80       		.byte	-128
 8306 0d1a 00       		.byte	0
 8307 0d1b 00       		.byte	0
 8308 0d1c 00       		.byte	0
 8309 0d1d 00       		.byte	0
ARM GAS  c:\Users\lenovo\AppData\Local\Temp\cc7gPbIA.s 			page 164


 8310 0d1e 00       		.byte	0
 8311 0d1f 00       		.byte	0
 8312 0d20 00       		.byte	0
 8313 0d21 00       		.byte	0
 8314 0d22 00       		.byte	0
 8315 0d23 00       		.byte	0
 8316 0d24 00       		.byte	0
 8317 0d25 00       		.byte	0
 8318 0d26 00       		.byte	0
 8319 0d27 00       		.byte	0
 8320 0d28 00       		.byte	0
 8321 0d29 00       		.byte	0
 8322 0d2a 03       		.byte	3
 8323 0d2b C0       		.byte	-64
 8324 0d2c 06       		.byte	6
 8325 0d2d 60       		.byte	96
 8326 0d2e 0C       		.byte	12
 8327 0d2f 60       		.byte	96
 8328 0d30 0C       		.byte	12
 8329 0d31 00       		.byte	0
 8330 0d32 0C       		.byte	12
 8331 0d33 00       		.byte	0
 8332 0d34 7F       		.byte	127
 8333 0d35 80       		.byte	-128
 8334 0d36 0C       		.byte	12
 8335 0d37 00       		.byte	0
 8336 0d38 0C       		.byte	12
 8337 0d39 00       		.byte	0
 8338 0d3a 0C       		.byte	12
 8339 0d3b 00       		.byte	0
 8340 0d3c 0C       		.byte	12
 8341 0d3d 00       		.byte	0
 8342 0d3e 0C       		.byte	12
 8343 0d3f 00       		.byte	0
 8344 0d40 0C       		.byte	12
 8345 0d41 00       		.byte	0
 8346 0d42 0C       		.byte	12
 8347 0d43 00       		.byte	0
 8348 0d44 0C       		.byte	12
 8349 0d45 00       		.byte	0
 8350 0d46 0C       		.byte	12
 8351 0d47 00       		.byte	0
 8352 0d48 3F       		.byte	63
 8353 0d49 80       		.byte	-128
 8354 0d4a 00       		.byte	0
 8355 0d4b 00       		.byte	0
 8356 0d4c 00       		.byte	0
 8357 0d4d 00       		.byte	0
 8358 0d4e 00       		.byte	0
 8359 0d4f 00       		.byte	0
 8360 0d50 00       		.byte	0
 8361 0d51 00       		.byte	0
 8362 0d52 00       		.byte	0
 8363 0d53 00       		.byte	0
 8364 0d54 00       		.byte	0
 8365 0d55 00       		.byte	0
 8366 0d56 00       		.byte	0
ARM GAS  c:\Users\lenovo\AppData\Local\Temp\cc7gPbIA.s 			page 165


 8367 0d57 00       		.byte	0
 8368 0d58 00       		.byte	0
 8369 0d59 00       		.byte	0
 8370 0d5a 00       		.byte	0
 8371 0d5b 00       		.byte	0
 8372 0d5c 00       		.byte	0
 8373 0d5d 00       		.byte	0
 8374 0d5e 00       		.byte	0
 8375 0d5f 00       		.byte	0
 8376 0d60 00       		.byte	0
 8377 0d61 00       		.byte	0
 8378 0d62 00       		.byte	0
 8379 0d63 00       		.byte	0
 8380 0d64 0F       		.byte	15
 8381 0d65 E0       		.byte	-32
 8382 0d66 1B       		.byte	27
 8383 0d67 60       		.byte	96
 8384 0d68 31       		.byte	49
 8385 0d69 80       		.byte	-128
 8386 0d6a 31       		.byte	49
 8387 0d6b 80       		.byte	-128
 8388 0d6c 31       		.byte	49
 8389 0d6d 80       		.byte	-128
 8390 0d6e 19       		.byte	25
 8391 0d6f 80       		.byte	-128
 8392 0d70 1F       		.byte	31
 8393 0d71 00       		.byte	0
 8394 0d72 30       		.byte	48
 8395 0d73 00       		.byte	0
 8396 0d74 3F       		.byte	63
 8397 0d75 00       		.byte	0
 8398 0d76 33       		.byte	51
 8399 0d77 C0       		.byte	-64
 8400 0d78 60       		.byte	96
 8401 0d79 C0       		.byte	-64
 8402 0d7a 60       		.byte	96
 8403 0d7b C0       		.byte	-64
 8404 0d7c 71       		.byte	113
 8405 0d7d C0       		.byte	-64
 8406 0d7e 1F       		.byte	31
 8407 0d7f 00       		.byte	0
 8408 0d80 00       		.byte	0
 8409 0d81 00       		.byte	0
 8410 0d82 00       		.byte	0
 8411 0d83 00       		.byte	0
 8412 0d84 00       		.byte	0
 8413 0d85 00       		.byte	0
 8414 0d86 00       		.byte	0
 8415 0d87 00       		.byte	0
 8416 0d88 10       		.byte	16
 8417 0d89 00       		.byte	0
 8418 0d8a 70       		.byte	112
 8419 0d8b 00       		.byte	0
 8420 0d8c 30       		.byte	48
 8421 0d8d 00       		.byte	0
 8422 0d8e 30       		.byte	48
 8423 0d8f 00       		.byte	0
ARM GAS  c:\Users\lenovo\AppData\Local\Temp\cc7gPbIA.s 			page 166


 8424 0d90 30       		.byte	48
 8425 0d91 00       		.byte	0
 8426 0d92 30       		.byte	48
 8427 0d93 00       		.byte	0
 8428 0d94 37       		.byte	55
 8429 0d95 80       		.byte	-128
 8430 0d96 38       		.byte	56
 8431 0d97 C0       		.byte	-64
 8432 0d98 30       		.byte	48
 8433 0d99 C0       		.byte	-64
 8434 0d9a 30       		.byte	48
 8435 0d9b C0       		.byte	-64
 8436 0d9c 30       		.byte	48
 8437 0d9d C0       		.byte	-64
 8438 0d9e 30       		.byte	48
 8439 0d9f C0       		.byte	-64
 8440 0da0 30       		.byte	48
 8441 0da1 C0       		.byte	-64
 8442 0da2 30       		.byte	48
 8443 0da3 C0       		.byte	-64
 8444 0da4 30       		.byte	48
 8445 0da5 C0       		.byte	-64
 8446 0da6 30       		.byte	48
 8447 0da7 C0       		.byte	-64
 8448 0da8 79       		.byte	121
 8449 0da9 E0       		.byte	-32
 8450 0daa 00       		.byte	0
 8451 0dab 00       		.byte	0
 8452 0dac 00       		.byte	0
 8453 0dad 00       		.byte	0
 8454 0dae 00       		.byte	0
 8455 0daf 00       		.byte	0
 8456 0db0 00       		.byte	0
 8457 0db1 00       		.byte	0
 8458 0db2 00       		.byte	0
 8459 0db3 00       		.byte	0
 8460 0db4 00       		.byte	0
 8461 0db5 00       		.byte	0
 8462 0db6 00       		.byte	0
 8463 0db7 00       		.byte	0
 8464 0db8 00       		.byte	0
 8465 0db9 00       		.byte	0
 8466 0dba 06       		.byte	6
 8467 0dbb 00       		.byte	0
 8468 0dbc 06       		.byte	6
 8469 0dbd 00       		.byte	0
 8470 0dbe 00       		.byte	0
 8471 0dbf 00       		.byte	0
 8472 0dc0 00       		.byte	0
 8473 0dc1 00       		.byte	0
 8474 0dc2 02       		.byte	2
 8475 0dc3 00       		.byte	0
 8476 0dc4 3E       		.byte	62
 8477 0dc5 00       		.byte	0
 8478 0dc6 06       		.byte	6
 8479 0dc7 00       		.byte	0
 8480 0dc8 06       		.byte	6
ARM GAS  c:\Users\lenovo\AppData\Local\Temp\cc7gPbIA.s 			page 167


 8481 0dc9 00       		.byte	0
 8482 0dca 06       		.byte	6
 8483 0dcb 00       		.byte	0
 8484 0dcc 06       		.byte	6
 8485 0dcd 00       		.byte	0
 8486 0dce 06       		.byte	6
 8487 0dcf 00       		.byte	0
 8488 0dd0 06       		.byte	6
 8489 0dd1 00       		.byte	0
 8490 0dd2 06       		.byte	6
 8491 0dd3 00       		.byte	0
 8492 0dd4 06       		.byte	6
 8493 0dd5 00       		.byte	0
 8494 0dd6 06       		.byte	6
 8495 0dd7 00       		.byte	0
 8496 0dd8 3F       		.byte	63
 8497 0dd9 C0       		.byte	-64
 8498 0dda 00       		.byte	0
 8499 0ddb 00       		.byte	0
 8500 0ddc 00       		.byte	0
 8501 0ddd 00       		.byte	0
 8502 0dde 00       		.byte	0
 8503 0ddf 00       		.byte	0
 8504 0de0 00       		.byte	0
 8505 0de1 00       		.byte	0
 8506 0de2 00       		.byte	0
 8507 0de3 00       		.byte	0
 8508 0de4 00       		.byte	0
 8509 0de5 00       		.byte	0
 8510 0de6 00       		.byte	0
 8511 0de7 00       		.byte	0
 8512 0de8 00       		.byte	0
 8513 0de9 00       		.byte	0
 8514 0dea 03       		.byte	3
 8515 0deb 80       		.byte	-128
 8516 0dec 03       		.byte	3
 8517 0ded 80       		.byte	-128
 8518 0dee 00       		.byte	0
 8519 0def 00       		.byte	0
 8520 0df0 00       		.byte	0
 8521 0df1 00       		.byte	0
 8522 0df2 00       		.byte	0
 8523 0df3 80       		.byte	-128
 8524 0df4 0F       		.byte	15
 8525 0df5 80       		.byte	-128
 8526 0df6 01       		.byte	1
 8527 0df7 80       		.byte	-128
 8528 0df8 01       		.byte	1
 8529 0df9 80       		.byte	-128
 8530 0dfa 01       		.byte	1
 8531 0dfb 80       		.byte	-128
 8532 0dfc 01       		.byte	1
 8533 0dfd 80       		.byte	-128
 8534 0dfe 01       		.byte	1
 8535 0dff 80       		.byte	-128
 8536 0e00 01       		.byte	1
 8537 0e01 80       		.byte	-128
ARM GAS  c:\Users\lenovo\AppData\Local\Temp\cc7gPbIA.s 			page 168


 8538 0e02 01       		.byte	1
 8539 0e03 80       		.byte	-128
 8540 0e04 01       		.byte	1
 8541 0e05 80       		.byte	-128
 8542 0e06 01       		.byte	1
 8543 0e07 80       		.byte	-128
 8544 0e08 01       		.byte	1
 8545 0e09 80       		.byte	-128
 8546 0e0a 01       		.byte	1
 8547 0e0b 80       		.byte	-128
 8548 0e0c 33       		.byte	51
 8549 0e0d 00       		.byte	0
 8550 0e0e 3E       		.byte	62
 8551 0e0f 00       		.byte	0
 8552 0e10 00       		.byte	0
 8553 0e11 00       		.byte	0
 8554 0e12 00       		.byte	0
 8555 0e13 00       		.byte	0
 8556 0e14 00       		.byte	0
 8557 0e15 00       		.byte	0
 8558 0e16 00       		.byte	0
 8559 0e17 00       		.byte	0
 8560 0e18 10       		.byte	16
 8561 0e19 00       		.byte	0
 8562 0e1a 70       		.byte	112
 8563 0e1b 00       		.byte	0
 8564 0e1c 30       		.byte	48
 8565 0e1d 00       		.byte	0
 8566 0e1e 30       		.byte	48
 8567 0e1f 00       		.byte	0
 8568 0e20 30       		.byte	48
 8569 0e21 00       		.byte	0
 8570 0e22 30       		.byte	48
 8571 0e23 00       		.byte	0
 8572 0e24 31       		.byte	49
 8573 0e25 C0       		.byte	-64
 8574 0e26 31       		.byte	49
 8575 0e27 00       		.byte	0
 8576 0e28 31       		.byte	49
 8577 0e29 00       		.byte	0
 8578 0e2a 32       		.byte	50
 8579 0e2b 00       		.byte	0
 8580 0e2c 36       		.byte	54
 8581 0e2d 00       		.byte	0
 8582 0e2e 3A       		.byte	58
 8583 0e2f 00       		.byte	0
 8584 0e30 31       		.byte	49
 8585 0e31 00       		.byte	0
 8586 0e32 31       		.byte	49
 8587 0e33 80       		.byte	-128
 8588 0e34 30       		.byte	48
 8589 0e35 80       		.byte	-128
 8590 0e36 30       		.byte	48
 8591 0e37 C0       		.byte	-64
 8592 0e38 79       		.byte	121
 8593 0e39 E0       		.byte	-32
 8594 0e3a 00       		.byte	0
ARM GAS  c:\Users\lenovo\AppData\Local\Temp\cc7gPbIA.s 			page 169


 8595 0e3b 00       		.byte	0
 8596 0e3c 00       		.byte	0
 8597 0e3d 00       		.byte	0
 8598 0e3e 00       		.byte	0
 8599 0e3f 00       		.byte	0
 8600 0e40 00       		.byte	0
 8601 0e41 00       		.byte	0
 8602 0e42 00       		.byte	0
 8603 0e43 00       		.byte	0
 8604 0e44 00       		.byte	0
 8605 0e45 00       		.byte	0
 8606 0e46 00       		.byte	0
 8607 0e47 00       		.byte	0
 8608 0e48 02       		.byte	2
 8609 0e49 00       		.byte	0
 8610 0e4a 3E       		.byte	62
 8611 0e4b 00       		.byte	0
 8612 0e4c 06       		.byte	6
 8613 0e4d 00       		.byte	0
 8614 0e4e 06       		.byte	6
 8615 0e4f 00       		.byte	0
 8616 0e50 06       		.byte	6
 8617 0e51 00       		.byte	0
 8618 0e52 06       		.byte	6
 8619 0e53 00       		.byte	0
 8620 0e54 06       		.byte	6
 8621 0e55 00       		.byte	0
 8622 0e56 06       		.byte	6
 8623 0e57 00       		.byte	0
 8624 0e58 06       		.byte	6
 8625 0e59 00       		.byte	0
 8626 0e5a 06       		.byte	6
 8627 0e5b 00       		.byte	0
 8628 0e5c 06       		.byte	6
 8629 0e5d 00       		.byte	0
 8630 0e5e 06       		.byte	6
 8631 0e5f 00       		.byte	0
 8632 0e60 06       		.byte	6
 8633 0e61 00       		.byte	0
 8634 0e62 06       		.byte	6
 8635 0e63 00       		.byte	0
 8636 0e64 06       		.byte	6
 8637 0e65 00       		.byte	0
 8638 0e66 06       		.byte	6
 8639 0e67 00       		.byte	0
 8640 0e68 3F       		.byte	63
 8641 0e69 C0       		.byte	-64
 8642 0e6a 00       		.byte	0
 8643 0e6b 00       		.byte	0
 8644 0e6c 00       		.byte	0
 8645 0e6d 00       		.byte	0
 8646 0e6e 00       		.byte	0
 8647 0e6f 00       		.byte	0
 8648 0e70 00       		.byte	0
 8649 0e71 00       		.byte	0
 8650 0e72 00       		.byte	0
 8651 0e73 00       		.byte	0
ARM GAS  c:\Users\lenovo\AppData\Local\Temp\cc7gPbIA.s 			page 170


 8652 0e74 00       		.byte	0
 8653 0e75 00       		.byte	0
 8654 0e76 00       		.byte	0
 8655 0e77 00       		.byte	0
 8656 0e78 00       		.byte	0
 8657 0e79 00       		.byte	0
 8658 0e7a 00       		.byte	0
 8659 0e7b 00       		.byte	0
 8660 0e7c 00       		.byte	0
 8661 0e7d 00       		.byte	0
 8662 0e7e 00       		.byte	0
 8663 0e7f 00       		.byte	0
 8664 0e80 00       		.byte	0
 8665 0e81 00       		.byte	0
 8666 0e82 00       		.byte	0
 8667 0e83 00       		.byte	0
 8668 0e84 EC       		.byte	-20
 8669 0e85 E0       		.byte	-32
 8670 0e86 77       		.byte	119
 8671 0e87 60       		.byte	96
 8672 0e88 66       		.byte	102
 8673 0e89 60       		.byte	96
 8674 0e8a 66       		.byte	102
 8675 0e8b 60       		.byte	96
 8676 0e8c 66       		.byte	102
 8677 0e8d 60       		.byte	96
 8678 0e8e 66       		.byte	102
 8679 0e8f 60       		.byte	96
 8680 0e90 66       		.byte	102
 8681 0e91 60       		.byte	96
 8682 0e92 66       		.byte	102
 8683 0e93 60       		.byte	96
 8684 0e94 66       		.byte	102
 8685 0e95 60       		.byte	96
 8686 0e96 66       		.byte	102
 8687 0e97 60       		.byte	96
 8688 0e98 FF       		.byte	-1
 8689 0e99 F0       		.byte	-16
 8690 0e9a 00       		.byte	0
 8691 0e9b 00       		.byte	0
 8692 0e9c 00       		.byte	0
 8693 0e9d 00       		.byte	0
 8694 0e9e 00       		.byte	0
 8695 0e9f 00       		.byte	0
 8696 0ea0 00       		.byte	0
 8697 0ea1 00       		.byte	0
 8698 0ea2 00       		.byte	0
 8699 0ea3 00       		.byte	0
 8700 0ea4 00       		.byte	0
 8701 0ea5 00       		.byte	0
 8702 0ea6 00       		.byte	0
 8703 0ea7 00       		.byte	0
 8704 0ea8 00       		.byte	0
 8705 0ea9 00       		.byte	0
 8706 0eaa 00       		.byte	0
 8707 0eab 00       		.byte	0
 8708 0eac 00       		.byte	0
ARM GAS  c:\Users\lenovo\AppData\Local\Temp\cc7gPbIA.s 			page 171


 8709 0ead 00       		.byte	0
 8710 0eae 00       		.byte	0
 8711 0eaf 00       		.byte	0
 8712 0eb0 00       		.byte	0
 8713 0eb1 00       		.byte	0
 8714 0eb2 00       		.byte	0
 8715 0eb3 00       		.byte	0
 8716 0eb4 77       		.byte	119
 8717 0eb5 80       		.byte	-128
 8718 0eb6 38       		.byte	56
 8719 0eb7 C0       		.byte	-64
 8720 0eb8 30       		.byte	48
 8721 0eb9 C0       		.byte	-64
 8722 0eba 30       		.byte	48
 8723 0ebb C0       		.byte	-64
 8724 0ebc 30       		.byte	48
 8725 0ebd C0       		.byte	-64
 8726 0ebe 30       		.byte	48
 8727 0ebf C0       		.byte	-64
 8728 0ec0 30       		.byte	48
 8729 0ec1 C0       		.byte	-64
 8730 0ec2 30       		.byte	48
 8731 0ec3 C0       		.byte	-64
 8732 0ec4 30       		.byte	48
 8733 0ec5 C0       		.byte	-64
 8734 0ec6 30       		.byte	48
 8735 0ec7 C0       		.byte	-64
 8736 0ec8 79       		.byte	121
 8737 0ec9 E0       		.byte	-32
 8738 0eca 00       		.byte	0
 8739 0ecb 00       		.byte	0
 8740 0ecc 00       		.byte	0
 8741 0ecd 00       		.byte	0
 8742 0ece 00       		.byte	0
 8743 0ecf 00       		.byte	0
 8744 0ed0 00       		.byte	0
 8745 0ed1 00       		.byte	0
 8746 0ed2 00       		.byte	0
 8747 0ed3 00       		.byte	0
 8748 0ed4 00       		.byte	0
 8749 0ed5 00       		.byte	0
 8750 0ed6 00       		.byte	0
 8751 0ed7 00       		.byte	0
 8752 0ed8 00       		.byte	0
 8753 0ed9 00       		.byte	0
 8754 0eda 00       		.byte	0
 8755 0edb 00       		.byte	0
 8756 0edc 00       		.byte	0
 8757 0edd 00       		.byte	0
 8758 0ede 00       		.byte	0
 8759 0edf 00       		.byte	0
 8760 0ee0 00       		.byte	0
 8761 0ee1 00       		.byte	0
 8762 0ee2 00       		.byte	0
 8763 0ee3 00       		.byte	0
 8764 0ee4 0F       		.byte	15
 8765 0ee5 00       		.byte	0
ARM GAS  c:\Users\lenovo\AppData\Local\Temp\cc7gPbIA.s 			page 172


 8766 0ee6 19       		.byte	25
 8767 0ee7 80       		.byte	-128
 8768 0ee8 30       		.byte	48
 8769 0ee9 C0       		.byte	-64
 8770 0eea 60       		.byte	96
 8771 0eeb 60       		.byte	96
 8772 0eec 60       		.byte	96
 8773 0eed 60       		.byte	96
 8774 0eee 60       		.byte	96
 8775 0eef 60       		.byte	96
 8776 0ef0 60       		.byte	96
 8777 0ef1 60       		.byte	96
 8778 0ef2 60       		.byte	96
 8779 0ef3 60       		.byte	96
 8780 0ef4 30       		.byte	48
 8781 0ef5 C0       		.byte	-64
 8782 0ef6 30       		.byte	48
 8783 0ef7 C0       		.byte	-64
 8784 0ef8 0F       		.byte	15
 8785 0ef9 00       		.byte	0
 8786 0efa 00       		.byte	0
 8787 0efb 00       		.byte	0
 8788 0efc 00       		.byte	0
 8789 0efd 00       		.byte	0
 8790 0efe 00       		.byte	0
 8791 0eff 00       		.byte	0
 8792 0f00 00       		.byte	0
 8793 0f01 00       		.byte	0
 8794 0f02 00       		.byte	0
 8795 0f03 00       		.byte	0
 8796 0f04 00       		.byte	0
 8797 0f05 00       		.byte	0
 8798 0f06 00       		.byte	0
 8799 0f07 00       		.byte	0
 8800 0f08 00       		.byte	0
 8801 0f09 00       		.byte	0
 8802 0f0a 00       		.byte	0
 8803 0f0b 00       		.byte	0
 8804 0f0c 00       		.byte	0
 8805 0f0d 00       		.byte	0
 8806 0f0e 00       		.byte	0
 8807 0f0f 00       		.byte	0
 8808 0f10 00       		.byte	0
 8809 0f11 00       		.byte	0
 8810 0f12 00       		.byte	0
 8811 0f13 00       		.byte	0
 8812 0f14 77       		.byte	119
 8813 0f15 80       		.byte	-128
 8814 0f16 38       		.byte	56
 8815 0f17 C0       		.byte	-64
 8816 0f18 30       		.byte	48
 8817 0f19 60       		.byte	96
 8818 0f1a 30       		.byte	48
 8819 0f1b 60       		.byte	96
 8820 0f1c 30       		.byte	48
 8821 0f1d 60       		.byte	96
 8822 0f1e 30       		.byte	48
ARM GAS  c:\Users\lenovo\AppData\Local\Temp\cc7gPbIA.s 			page 173


 8823 0f1f 60       		.byte	96
 8824 0f20 30       		.byte	48
 8825 0f21 60       		.byte	96
 8826 0f22 30       		.byte	48
 8827 0f23 60       		.byte	96
 8828 0f24 30       		.byte	48
 8829 0f25 C0       		.byte	-64
 8830 0f26 38       		.byte	56
 8831 0f27 C0       		.byte	-64
 8832 0f28 37       		.byte	55
 8833 0f29 80       		.byte	-128
 8834 0f2a 30       		.byte	48
 8835 0f2b 00       		.byte	0
 8836 0f2c 30       		.byte	48
 8837 0f2d 00       		.byte	0
 8838 0f2e 7C       		.byte	124
 8839 0f2f 00       		.byte	0
 8840 0f30 00       		.byte	0
 8841 0f31 00       		.byte	0
 8842 0f32 00       		.byte	0
 8843 0f33 00       		.byte	0
 8844 0f34 00       		.byte	0
 8845 0f35 00       		.byte	0
 8846 0f36 00       		.byte	0
 8847 0f37 00       		.byte	0
 8848 0f38 00       		.byte	0
 8849 0f39 00       		.byte	0
 8850 0f3a 00       		.byte	0
 8851 0f3b 00       		.byte	0
 8852 0f3c 00       		.byte	0
 8853 0f3d 00       		.byte	0
 8854 0f3e 00       		.byte	0
 8855 0f3f 00       		.byte	0
 8856 0f40 00       		.byte	0
 8857 0f41 00       		.byte	0
 8858 0f42 00       		.byte	0
 8859 0f43 00       		.byte	0
 8860 0f44 1E       		.byte	30
 8861 0f45 40       		.byte	64
 8862 0f46 31       		.byte	49
 8863 0f47 C0       		.byte	-64
 8864 0f48 30       		.byte	48
 8865 0f49 C0       		.byte	-64
 8866 0f4a 60       		.byte	96
 8867 0f4b C0       		.byte	-64
 8868 0f4c 60       		.byte	96
 8869 0f4d C0       		.byte	-64
 8870 0f4e 60       		.byte	96
 8871 0f4f C0       		.byte	-64
 8872 0f50 60       		.byte	96
 8873 0f51 C0       		.byte	-64
 8874 0f52 60       		.byte	96
 8875 0f53 C0       		.byte	-64
 8876 0f54 20       		.byte	32
 8877 0f55 C0       		.byte	-64
 8878 0f56 31       		.byte	49
 8879 0f57 C0       		.byte	-64
ARM GAS  c:\Users\lenovo\AppData\Local\Temp\cc7gPbIA.s 			page 174


 8880 0f58 1E       		.byte	30
 8881 0f59 C0       		.byte	-64
 8882 0f5a 00       		.byte	0
 8883 0f5b C0       		.byte	-64
 8884 0f5c 00       		.byte	0
 8885 0f5d C0       		.byte	-64
 8886 0f5e 03       		.byte	3
 8887 0f5f E0       		.byte	-32
 8888 0f60 00       		.byte	0
 8889 0f61 00       		.byte	0
 8890 0f62 00       		.byte	0
 8891 0f63 00       		.byte	0
 8892 0f64 00       		.byte	0
 8893 0f65 00       		.byte	0
 8894 0f66 00       		.byte	0
 8895 0f67 00       		.byte	0
 8896 0f68 00       		.byte	0
 8897 0f69 00       		.byte	0
 8898 0f6a 00       		.byte	0
 8899 0f6b 00       		.byte	0
 8900 0f6c 00       		.byte	0
 8901 0f6d 00       		.byte	0
 8902 0f6e 00       		.byte	0
 8903 0f6f 00       		.byte	0
 8904 0f70 00       		.byte	0
 8905 0f71 00       		.byte	0
 8906 0f72 00       		.byte	0
 8907 0f73 00       		.byte	0
 8908 0f74 F9       		.byte	-7
 8909 0f75 C0       		.byte	-64
 8910 0f76 1A       		.byte	26
 8911 0f77 60       		.byte	96
 8912 0f78 1C       		.byte	28
 8913 0f79 60       		.byte	96
 8914 0f7a 18       		.byte	24
 8915 0f7b 00       		.byte	0
 8916 0f7c 18       		.byte	24
 8917 0f7d 00       		.byte	0
 8918 0f7e 18       		.byte	24
 8919 0f7f 00       		.byte	0
 8920 0f80 18       		.byte	24
 8921 0f81 00       		.byte	0
 8922 0f82 18       		.byte	24
 8923 0f83 00       		.byte	0
 8924 0f84 18       		.byte	24
 8925 0f85 00       		.byte	0
 8926 0f86 18       		.byte	24
 8927 0f87 00       		.byte	0
 8928 0f88 FF       		.byte	-1
 8929 0f89 00       		.byte	0
 8930 0f8a 00       		.byte	0
 8931 0f8b 00       		.byte	0
 8932 0f8c 00       		.byte	0
 8933 0f8d 00       		.byte	0
 8934 0f8e 00       		.byte	0
 8935 0f8f 00       		.byte	0
 8936 0f90 00       		.byte	0
ARM GAS  c:\Users\lenovo\AppData\Local\Temp\cc7gPbIA.s 			page 175


 8937 0f91 00       		.byte	0
 8938 0f92 00       		.byte	0
 8939 0f93 00       		.byte	0
 8940 0f94 00       		.byte	0
 8941 0f95 00       		.byte	0
 8942 0f96 00       		.byte	0
 8943 0f97 00       		.byte	0
 8944 0f98 00       		.byte	0
 8945 0f99 00       		.byte	0
 8946 0f9a 00       		.byte	0
 8947 0f9b 00       		.byte	0
 8948 0f9c 00       		.byte	0
 8949 0f9d 00       		.byte	0
 8950 0f9e 00       		.byte	0
 8951 0f9f 00       		.byte	0
 8952 0fa0 00       		.byte	0
 8953 0fa1 00       		.byte	0
 8954 0fa2 00       		.byte	0
 8955 0fa3 00       		.byte	0
 8956 0fa4 0F       		.byte	15
 8957 0fa5 C0       		.byte	-64
 8958 0fa6 38       		.byte	56
 8959 0fa7 C0       		.byte	-64
 8960 0fa8 30       		.byte	48
 8961 0fa9 40       		.byte	64
 8962 0faa 30       		.byte	48
 8963 0fab 40       		.byte	64
 8964 0fac 1C       		.byte	28
 8965 0fad 00       		.byte	0
 8966 0fae 0F       		.byte	15
 8967 0faf 00       		.byte	0
 8968 0fb0 03       		.byte	3
 8969 0fb1 C0       		.byte	-64
 8970 0fb2 20       		.byte	32
 8971 0fb3 C0       		.byte	-64
 8972 0fb4 20       		.byte	32
 8973 0fb5 C0       		.byte	-64
 8974 0fb6 31       		.byte	49
 8975 0fb7 C0       		.byte	-64
 8976 0fb8 3F       		.byte	63
 8977 0fb9 80       		.byte	-128
 8978 0fba 00       		.byte	0
 8979 0fbb 00       		.byte	0
 8980 0fbc 00       		.byte	0
 8981 0fbd 00       		.byte	0
 8982 0fbe 00       		.byte	0
 8983 0fbf 00       		.byte	0
 8984 0fc0 00       		.byte	0
 8985 0fc1 00       		.byte	0
 8986 0fc2 00       		.byte	0
 8987 0fc3 00       		.byte	0
 8988 0fc4 00       		.byte	0
 8989 0fc5 00       		.byte	0
 8990 0fc6 00       		.byte	0
 8991 0fc7 00       		.byte	0
 8992 0fc8 00       		.byte	0
 8993 0fc9 00       		.byte	0
ARM GAS  c:\Users\lenovo\AppData\Local\Temp\cc7gPbIA.s 			page 176


 8994 0fca 00       		.byte	0
 8995 0fcb 00       		.byte	0
 8996 0fcc 04       		.byte	4
 8997 0fcd 00       		.byte	0
 8998 0fce 04       		.byte	4
 8999 0fcf 00       		.byte	0
 9000 0fd0 0C       		.byte	12
 9001 0fd1 00       		.byte	0
 9002 0fd2 0C       		.byte	12
 9003 0fd3 00       		.byte	0
 9004 0fd4 7F       		.byte	127
 9005 0fd5 80       		.byte	-128
 9006 0fd6 0C       		.byte	12
 9007 0fd7 00       		.byte	0
 9008 0fd8 0C       		.byte	12
 9009 0fd9 00       		.byte	0
 9010 0fda 0C       		.byte	12
 9011 0fdb 00       		.byte	0
 9012 0fdc 0C       		.byte	12
 9013 0fdd 00       		.byte	0
 9014 0fde 0C       		.byte	12
 9015 0fdf 00       		.byte	0
 9016 0fe0 0C       		.byte	12
 9017 0fe1 00       		.byte	0
 9018 0fe2 0C       		.byte	12
 9019 0fe3 00       		.byte	0
 9020 0fe4 0C       		.byte	12
 9021 0fe5 40       		.byte	64
 9022 0fe6 0C       		.byte	12
 9023 0fe7 40       		.byte	64
 9024 0fe8 07       		.byte	7
 9025 0fe9 80       		.byte	-128
 9026 0fea 00       		.byte	0
 9027 0feb 00       		.byte	0
 9028 0fec 00       		.byte	0
 9029 0fed 00       		.byte	0
 9030 0fee 00       		.byte	0
 9031 0fef 00       		.byte	0
 9032 0ff0 00       		.byte	0
 9033 0ff1 00       		.byte	0
 9034 0ff2 00       		.byte	0
 9035 0ff3 00       		.byte	0
 9036 0ff4 00       		.byte	0
 9037 0ff5 00       		.byte	0
 9038 0ff6 00       		.byte	0
 9039 0ff7 00       		.byte	0
 9040 0ff8 00       		.byte	0
 9041 0ff9 00       		.byte	0
 9042 0ffa 00       		.byte	0
 9043 0ffb 00       		.byte	0
 9044 0ffc 00       		.byte	0
 9045 0ffd 00       		.byte	0
 9046 0ffe 00       		.byte	0
 9047 0fff 00       		.byte	0
 9048 1000 00       		.byte	0
 9049 1001 00       		.byte	0
 9050 1002 10       		.byte	16
ARM GAS  c:\Users\lenovo\AppData\Local\Temp\cc7gPbIA.s 			page 177


 9051 1003 40       		.byte	64
 9052 1004 71       		.byte	113
 9053 1005 C0       		.byte	-64
 9054 1006 30       		.byte	48
 9055 1007 C0       		.byte	-64
 9056 1008 30       		.byte	48
 9057 1009 C0       		.byte	-64
 9058 100a 30       		.byte	48
 9059 100b C0       		.byte	-64
 9060 100c 30       		.byte	48
 9061 100d C0       		.byte	-64
 9062 100e 30       		.byte	48
 9063 100f C0       		.byte	-64
 9064 1010 30       		.byte	48
 9065 1011 C0       		.byte	-64
 9066 1012 30       		.byte	48
 9067 1013 C0       		.byte	-64
 9068 1014 30       		.byte	48
 9069 1015 C0       		.byte	-64
 9070 1016 39       		.byte	57
 9071 1017 E0       		.byte	-32
 9072 1018 1E       		.byte	30
 9073 1019 80       		.byte	-128
 9074 101a 00       		.byte	0
 9075 101b 00       		.byte	0
 9076 101c 00       		.byte	0
 9077 101d 00       		.byte	0
 9078 101e 00       		.byte	0
 9079 101f 00       		.byte	0
 9080 1020 00       		.byte	0
 9081 1021 00       		.byte	0
 9082 1022 00       		.byte	0
 9083 1023 00       		.byte	0
 9084 1024 00       		.byte	0
 9085 1025 00       		.byte	0
 9086 1026 00       		.byte	0
 9087 1027 00       		.byte	0
 9088 1028 00       		.byte	0
 9089 1029 00       		.byte	0
 9090 102a 00       		.byte	0
 9091 102b 00       		.byte	0
 9092 102c 00       		.byte	0
 9093 102d 00       		.byte	0
 9094 102e 00       		.byte	0
 9095 102f 00       		.byte	0
 9096 1030 00       		.byte	0
 9097 1031 00       		.byte	0
 9098 1032 00       		.byte	0
 9099 1033 00       		.byte	0
 9100 1034 78       		.byte	120
 9101 1035 E0       		.byte	-32
 9102 1036 30       		.byte	48
 9103 1037 40       		.byte	64
 9104 1038 10       		.byte	16
 9105 1039 80       		.byte	-128
 9106 103a 10       		.byte	16
 9107 103b 80       		.byte	-128
ARM GAS  c:\Users\lenovo\AppData\Local\Temp\cc7gPbIA.s 			page 178


 9108 103c 18       		.byte	24
 9109 103d 80       		.byte	-128
 9110 103e 09       		.byte	9
 9111 103f 00       		.byte	0
 9112 1040 0D       		.byte	13
 9113 1041 00       		.byte	0
 9114 1042 0D       		.byte	13
 9115 1043 00       		.byte	0
 9116 1044 06       		.byte	6
 9117 1045 00       		.byte	0
 9118 1046 06       		.byte	6
 9119 1047 00       		.byte	0
 9120 1048 04       		.byte	4
 9121 1049 00       		.byte	0
 9122 104a 00       		.byte	0
 9123 104b 00       		.byte	0
 9124 104c 00       		.byte	0
 9125 104d 00       		.byte	0
 9126 104e 00       		.byte	0
 9127 104f 00       		.byte	0
 9128 1050 00       		.byte	0
 9129 1051 00       		.byte	0
 9130 1052 00       		.byte	0
 9131 1053 00       		.byte	0
 9132 1054 00       		.byte	0
 9133 1055 00       		.byte	0
 9134 1056 00       		.byte	0
 9135 1057 00       		.byte	0
 9136 1058 00       		.byte	0
 9137 1059 00       		.byte	0
 9138 105a 00       		.byte	0
 9139 105b 00       		.byte	0
 9140 105c 00       		.byte	0
 9141 105d 00       		.byte	0
 9142 105e 00       		.byte	0
 9143 105f 00       		.byte	0
 9144 1060 00       		.byte	0
 9145 1061 00       		.byte	0
 9146 1062 00       		.byte	0
 9147 1063 00       		.byte	0
 9148 1064 EF       		.byte	-17
 9149 1065 70       		.byte	112
 9150 1066 46       		.byte	70
 9151 1067 20       		.byte	32
 9152 1068 62       		.byte	98
 9153 1069 20       		.byte	32
 9154 106a 26       		.byte	38
 9155 106b 40       		.byte	64
 9156 106c 26       		.byte	38
 9157 106d 40       		.byte	64
 9158 106e 37       		.byte	55
 9159 106f 40       		.byte	64
 9160 1070 39       		.byte	57
 9161 1071 80       		.byte	-128
 9162 1072 19       		.byte	25
 9163 1073 80       		.byte	-128
 9164 1074 19       		.byte	25
ARM GAS  c:\Users\lenovo\AppData\Local\Temp\cc7gPbIA.s 			page 179


 9165 1075 80       		.byte	-128
 9166 1076 19       		.byte	25
 9167 1077 80       		.byte	-128
 9168 1078 10       		.byte	16
 9169 1079 00       		.byte	0
 9170 107a 00       		.byte	0
 9171 107b 00       		.byte	0
 9172 107c 00       		.byte	0
 9173 107d 00       		.byte	0
 9174 107e 00       		.byte	0
 9175 107f 00       		.byte	0
 9176 1080 00       		.byte	0
 9177 1081 00       		.byte	0
 9178 1082 00       		.byte	0
 9179 1083 00       		.byte	0
 9180 1084 00       		.byte	0
 9181 1085 00       		.byte	0
 9182 1086 00       		.byte	0
 9183 1087 00       		.byte	0
 9184 1088 00       		.byte	0
 9185 1089 00       		.byte	0
 9186 108a 00       		.byte	0
 9187 108b 00       		.byte	0
 9188 108c 00       		.byte	0
 9189 108d 00       		.byte	0
 9190 108e 00       		.byte	0
 9191 108f 00       		.byte	0
 9192 1090 00       		.byte	0
 9193 1091 00       		.byte	0
 9194 1092 00       		.byte	0
 9195 1093 00       		.byte	0
 9196 1094 3D       		.byte	61
 9197 1095 E0       		.byte	-32
 9198 1096 18       		.byte	24
 9199 1097 80       		.byte	-128
 9200 1098 08       		.byte	8
 9201 1099 80       		.byte	-128
 9202 109a 0D       		.byte	13
 9203 109b 00       		.byte	0
 9204 109c 06       		.byte	6
 9205 109d 00       		.byte	0
 9206 109e 06       		.byte	6
 9207 109f 00       		.byte	0
 9208 10a0 07       		.byte	7
 9209 10a1 00       		.byte	0
 9210 10a2 09       		.byte	9
 9211 10a3 00       		.byte	0
 9212 10a4 10       		.byte	16
 9213 10a5 80       		.byte	-128
 9214 10a6 10       		.byte	16
 9215 10a7 C0       		.byte	-64
 9216 10a8 79       		.byte	121
 9217 10a9 E0       		.byte	-32
 9218 10aa 00       		.byte	0
 9219 10ab 00       		.byte	0
 9220 10ac 00       		.byte	0
 9221 10ad 00       		.byte	0
ARM GAS  c:\Users\lenovo\AppData\Local\Temp\cc7gPbIA.s 			page 180


 9222 10ae 00       		.byte	0
 9223 10af 00       		.byte	0
 9224 10b0 00       		.byte	0
 9225 10b1 00       		.byte	0
 9226 10b2 00       		.byte	0
 9227 10b3 00       		.byte	0
 9228 10b4 00       		.byte	0
 9229 10b5 00       		.byte	0
 9230 10b6 00       		.byte	0
 9231 10b7 00       		.byte	0
 9232 10b8 00       		.byte	0
 9233 10b9 00       		.byte	0
 9234 10ba 00       		.byte	0
 9235 10bb 00       		.byte	0
 9236 10bc 00       		.byte	0
 9237 10bd 00       		.byte	0
 9238 10be 00       		.byte	0
 9239 10bf 00       		.byte	0
 9240 10c0 00       		.byte	0
 9241 10c1 00       		.byte	0
 9242 10c2 00       		.byte	0
 9243 10c3 00       		.byte	0
 9244 10c4 79       		.byte	121
 9245 10c5 E0       		.byte	-32
 9246 10c6 10       		.byte	16
 9247 10c7 80       		.byte	-128
 9248 10c8 10       		.byte	16
 9249 10c9 80       		.byte	-128
 9250 10ca 10       		.byte	16
 9251 10cb 80       		.byte	-128
 9252 10cc 09       		.byte	9
 9253 10cd 00       		.byte	0
 9254 10ce 09       		.byte	9
 9255 10cf 00       		.byte	0
 9256 10d0 0D       		.byte	13
 9257 10d1 00       		.byte	0
 9258 10d2 06       		.byte	6
 9259 10d3 00       		.byte	0
 9260 10d4 06       		.byte	6
 9261 10d5 00       		.byte	0
 9262 10d6 06       		.byte	6
 9263 10d7 00       		.byte	0
 9264 10d8 04       		.byte	4
 9265 10d9 00       		.byte	0
 9266 10da 04       		.byte	4
 9267 10db 00       		.byte	0
 9268 10dc 24       		.byte	36
 9269 10dd 00       		.byte	0
 9270 10de 38       		.byte	56
 9271 10df 00       		.byte	0
 9272 10e0 00       		.byte	0
 9273 10e1 00       		.byte	0
 9274 10e2 00       		.byte	0
 9275 10e3 00       		.byte	0
 9276 10e4 00       		.byte	0
 9277 10e5 00       		.byte	0
 9278 10e6 00       		.byte	0
ARM GAS  c:\Users\lenovo\AppData\Local\Temp\cc7gPbIA.s 			page 181


 9279 10e7 00       		.byte	0
 9280 10e8 00       		.byte	0
 9281 10e9 00       		.byte	0
 9282 10ea 00       		.byte	0
 9283 10eb 00       		.byte	0
 9284 10ec 00       		.byte	0
 9285 10ed 00       		.byte	0
 9286 10ee 00       		.byte	0
 9287 10ef 00       		.byte	0
 9288 10f0 00       		.byte	0
 9289 10f1 00       		.byte	0
 9290 10f2 00       		.byte	0
 9291 10f3 00       		.byte	0
 9292 10f4 3F       		.byte	63
 9293 10f5 80       		.byte	-128
 9294 10f6 21       		.byte	33
 9295 10f7 80       		.byte	-128
 9296 10f8 23       		.byte	35
 9297 10f9 00       		.byte	0
 9298 10fa 22       		.byte	34
 9299 10fb 00       		.byte	0
 9300 10fc 06       		.byte	6
 9301 10fd 00       		.byte	0
 9302 10fe 04       		.byte	4
 9303 10ff 00       		.byte	0
 9304 1100 0C       		.byte	12
 9305 1101 00       		.byte	0
 9306 1102 18       		.byte	24
 9307 1103 40       		.byte	64
 9308 1104 10       		.byte	16
 9309 1105 40       		.byte	64
 9310 1106 30       		.byte	48
 9311 1107 C0       		.byte	-64
 9312 1108 3F       		.byte	63
 9313 1109 80       		.byte	-128
 9314 110a 00       		.byte	0
 9315 110b 00       		.byte	0
 9316 110c 00       		.byte	0
 9317 110d 00       		.byte	0
 9318 110e 00       		.byte	0
 9319 110f 00       		.byte	0
 9320 1110 00       		.byte	0
 9321 1111 00       		.byte	0
 9322 1112 00       		.byte	0
 9323 1113 00       		.byte	0
 9324 1114 00       		.byte	0
 9325 1115 C0       		.byte	-64
 9326 1116 01       		.byte	1
 9327 1117 00       		.byte	0
 9328 1118 01       		.byte	1
 9329 1119 00       		.byte	0
 9330 111a 01       		.byte	1
 9331 111b 00       		.byte	0
 9332 111c 01       		.byte	1
 9333 111d 00       		.byte	0
 9334 111e 01       		.byte	1
 9335 111f 00       		.byte	0
ARM GAS  c:\Users\lenovo\AppData\Local\Temp\cc7gPbIA.s 			page 182


 9336 1120 01       		.byte	1
 9337 1121 00       		.byte	0
 9338 1122 01       		.byte	1
 9339 1123 00       		.byte	0
 9340 1124 01       		.byte	1
 9341 1125 00       		.byte	0
 9342 1126 02       		.byte	2
 9343 1127 00       		.byte	0
 9344 1128 04       		.byte	4
 9345 1129 00       		.byte	0
 9346 112a 02       		.byte	2
 9347 112b 00       		.byte	0
 9348 112c 01       		.byte	1
 9349 112d 00       		.byte	0
 9350 112e 01       		.byte	1
 9351 112f 00       		.byte	0
 9352 1130 01       		.byte	1
 9353 1131 00       		.byte	0
 9354 1132 01       		.byte	1
 9355 1133 00       		.byte	0
 9356 1134 01       		.byte	1
 9357 1135 00       		.byte	0
 9358 1136 01       		.byte	1
 9359 1137 00       		.byte	0
 9360 1138 01       		.byte	1
 9361 1139 00       		.byte	0
 9362 113a 01       		.byte	1
 9363 113b 00       		.byte	0
 9364 113c 00       		.byte	0
 9365 113d C0       		.byte	-64
 9366 113e 00       		.byte	0
 9367 113f 00       		.byte	0
 9368 1140 02       		.byte	2
 9369 1141 00       		.byte	0
 9370 1142 02       		.byte	2
 9371 1143 00       		.byte	0
 9372 1144 02       		.byte	2
 9373 1145 00       		.byte	0
 9374 1146 02       		.byte	2
 9375 1147 00       		.byte	0
 9376 1148 02       		.byte	2
 9377 1149 00       		.byte	0
 9378 114a 02       		.byte	2
 9379 114b 00       		.byte	0
 9380 114c 02       		.byte	2
 9381 114d 00       		.byte	0
 9382 114e 02       		.byte	2
 9383 114f 00       		.byte	0
 9384 1150 02       		.byte	2
 9385 1151 00       		.byte	0
 9386 1152 02       		.byte	2
 9387 1153 00       		.byte	0
 9388 1154 02       		.byte	2
 9389 1155 00       		.byte	0
 9390 1156 02       		.byte	2
 9391 1157 00       		.byte	0
 9392 1158 02       		.byte	2
ARM GAS  c:\Users\lenovo\AppData\Local\Temp\cc7gPbIA.s 			page 183


 9393 1159 00       		.byte	0
 9394 115a 02       		.byte	2
 9395 115b 00       		.byte	0
 9396 115c 02       		.byte	2
 9397 115d 00       		.byte	0
 9398 115e 02       		.byte	2
 9399 115f 00       		.byte	0
 9400 1160 02       		.byte	2
 9401 1161 00       		.byte	0
 9402 1162 02       		.byte	2
 9403 1163 00       		.byte	0
 9404 1164 02       		.byte	2
 9405 1165 00       		.byte	0
 9406 1166 02       		.byte	2
 9407 1167 00       		.byte	0
 9408 1168 02       		.byte	2
 9409 1169 00       		.byte	0
 9410 116a 02       		.byte	2
 9411 116b 00       		.byte	0
 9412 116c 02       		.byte	2
 9413 116d 00       		.byte	0
 9414 116e 02       		.byte	2
 9415 116f 00       		.byte	0
 9416 1170 00       		.byte	0
 9417 1171 00       		.byte	0
 9418 1172 00       		.byte	0
 9419 1173 00       		.byte	0
 9420 1174 30       		.byte	48
 9421 1175 00       		.byte	0
 9422 1176 08       		.byte	8
 9423 1177 00       		.byte	0
 9424 1178 08       		.byte	8
 9425 1179 00       		.byte	0
 9426 117a 08       		.byte	8
 9427 117b 00       		.byte	0
 9428 117c 08       		.byte	8
 9429 117d 00       		.byte	0
 9430 117e 08       		.byte	8
 9431 117f 00       		.byte	0
 9432 1180 08       		.byte	8
 9433 1181 00       		.byte	0
 9434 1182 08       		.byte	8
 9435 1183 00       		.byte	0
 9436 1184 08       		.byte	8
 9437 1185 00       		.byte	0
 9438 1186 04       		.byte	4
 9439 1187 00       		.byte	0
 9440 1188 02       		.byte	2
 9441 1189 00       		.byte	0
 9442 118a 04       		.byte	4
 9443 118b 00       		.byte	0
 9444 118c 08       		.byte	8
 9445 118d 00       		.byte	0
 9446 118e 08       		.byte	8
 9447 118f 00       		.byte	0
 9448 1190 08       		.byte	8
 9449 1191 00       		.byte	0
ARM GAS  c:\Users\lenovo\AppData\Local\Temp\cc7gPbIA.s 			page 184


 9450 1192 08       		.byte	8
 9451 1193 00       		.byte	0
 9452 1194 08       		.byte	8
 9453 1195 00       		.byte	0
 9454 1196 08       		.byte	8
 9455 1197 00       		.byte	0
 9456 1198 08       		.byte	8
 9457 1199 00       		.byte	0
 9458 119a 08       		.byte	8
 9459 119b 00       		.byte	0
 9460 119c 30       		.byte	48
 9461 119d 00       		.byte	0
 9462 119e 00       		.byte	0
 9463 119f 00       		.byte	0
 9464 11a0 00       		.byte	0
 9465 11a1 00       		.byte	0
 9466 11a2 38       		.byte	56
 9467 11a3 00       		.byte	0
 9468 11a4 44       		.byte	68
 9469 11a5 20       		.byte	32
 9470 11a6 43       		.byte	67
 9471 11a7 20       		.byte	32
 9472 11a8 01       		.byte	1
 9473 11a9 C0       		.byte	-64
 9474 11aa 00       		.byte	0
 9475 11ab 00       		.byte	0
 9476 11ac 00       		.byte	0
 9477 11ad 00       		.byte	0
 9478 11ae 00       		.byte	0
 9479 11af 00       		.byte	0
 9480 11b0 00       		.byte	0
 9481 11b1 00       		.byte	0
 9482 11b2 00       		.byte	0
 9483 11b3 00       		.byte	0
 9484 11b4 00       		.byte	0
 9485 11b5 00       		.byte	0
 9486 11b6 00       		.byte	0
 9487 11b7 00       		.byte	0
 9488 11b8 00       		.byte	0
 9489 11b9 00       		.byte	0
 9490 11ba 00       		.byte	0
 9491 11bb 00       		.byte	0
 9492 11bc 00       		.byte	0
 9493 11bd 00       		.byte	0
 9494 11be 00       		.byte	0
 9495 11bf 00       		.byte	0
 9496 11c0 00       		.byte	0
 9497 11c1 00       		.byte	0
 9498 11c2 00       		.byte	0
 9499 11c3 00       		.byte	0
 9500 11c4 00       		.byte	0
 9501 11c5 00       		.byte	0
 9502 11c6 00       		.byte	0
 9503 11c7 00       		.byte	0
 9504 11c8 00       		.byte	0
 9505 11c9 00       		.byte	0
 9506 11ca 00       		.byte	0
ARM GAS  c:\Users\lenovo\AppData\Local\Temp\cc7gPbIA.s 			page 185


 9507 11cb 00       		.byte	0
 9508 11cc 00       		.byte	0
 9509 11cd 00       		.byte	0
 9510 11ce 00       		.byte	0
 9511 11cf 00       		.byte	0
 9512              		.section	.rodata.asc2_3216,"a",%progbits
 9513              		.align	2
 9516              	asc2_3216:
 9517 0000 00       		.byte	0
 9518 0001 00       		.byte	0
 9519 0002 00       		.byte	0
 9520 0003 00       		.byte	0
 9521 0004 00       		.byte	0
 9522 0005 00       		.byte	0
 9523 0006 00       		.byte	0
 9524 0007 00       		.byte	0
 9525 0008 00       		.byte	0
 9526 0009 00       		.byte	0
 9527 000a 00       		.byte	0
 9528 000b 00       		.byte	0
 9529 000c 00       		.byte	0
 9530 000d 00       		.byte	0
 9531 000e 00       		.byte	0
 9532 000f 00       		.byte	0
 9533 0010 00       		.byte	0
 9534 0011 00       		.byte	0
 9535 0012 00       		.byte	0
 9536 0013 00       		.byte	0
 9537 0014 00       		.byte	0
 9538 0015 00       		.byte	0
 9539 0016 00       		.byte	0
 9540 0017 00       		.byte	0
 9541 0018 00       		.byte	0
 9542 0019 00       		.byte	0
 9543 001a 00       		.byte	0
 9544 001b 00       		.byte	0
 9545 001c 00       		.byte	0
 9546 001d 00       		.byte	0
 9547 001e 00       		.byte	0
 9548 001f 00       		.byte	0
 9549 0020 00       		.byte	0
 9550 0021 00       		.byte	0
 9551 0022 00       		.byte	0
 9552 0023 00       		.byte	0
 9553 0024 00       		.byte	0
 9554 0025 00       		.byte	0
 9555 0026 00       		.byte	0
 9556 0027 00       		.byte	0
 9557 0028 00       		.byte	0
 9558 0029 00       		.byte	0
 9559 002a 00       		.byte	0
 9560 002b 00       		.byte	0
 9561 002c 00       		.byte	0
 9562 002d 00       		.byte	0
 9563 002e 00       		.byte	0
 9564 002f 00       		.byte	0
 9565 0030 00       		.byte	0
ARM GAS  c:\Users\lenovo\AppData\Local\Temp\cc7gPbIA.s 			page 186


 9566 0031 00       		.byte	0
 9567 0032 00       		.byte	0
 9568 0033 00       		.byte	0
 9569 0034 00       		.byte	0
 9570 0035 00       		.byte	0
 9571 0036 00       		.byte	0
 9572 0037 00       		.byte	0
 9573 0038 00       		.byte	0
 9574 0039 00       		.byte	0
 9575 003a 00       		.byte	0
 9576 003b 00       		.byte	0
 9577 003c 00       		.byte	0
 9578 003d 00       		.byte	0
 9579 003e 00       		.byte	0
 9580 003f 00       		.byte	0
 9581 0040 00000000 		.space	64
 9581      00000000 
 9581      00000000 
 9581      00000000 
 9581      00000000 
 9582 0080 00       		.byte	0
 9583 0081 00       		.byte	0
 9584 0082 00       		.byte	0
 9585 0083 00       		.byte	0
 9586 0084 00       		.byte	0
 9587 0085 00       		.byte	0
 9588 0086 00       		.byte	0
 9589 0087 00       		.byte	0
 9590 0088 00       		.byte	0
 9591 0089 00       		.byte	0
 9592 008a 00       		.byte	0
 9593 008b 00       		.byte	0
 9594 008c 03       		.byte	3
 9595 008d C0       		.byte	-64
 9596 008e 03       		.byte	3
 9597 008f C0       		.byte	-64
 9598 0090 03       		.byte	3
 9599 0091 C0       		.byte	-64
 9600 0092 03       		.byte	3
 9601 0093 C0       		.byte	-64
 9602 0094 03       		.byte	3
 9603 0095 C0       		.byte	-64
 9604 0096 03       		.byte	3
 9605 0097 C0       		.byte	-64
 9606 0098 01       		.byte	1
 9607 0099 C0       		.byte	-64
 9608 009a 01       		.byte	1
 9609 009b 80       		.byte	-128
 9610 009c 01       		.byte	1
 9611 009d 80       		.byte	-128
 9612 009e 01       		.byte	1
 9613 009f 80       		.byte	-128
 9614 00a0 01       		.byte	1
 9615 00a1 80       		.byte	-128
 9616 00a2 01       		.byte	1
 9617 00a3 80       		.byte	-128
 9618 00a4 01       		.byte	1
ARM GAS  c:\Users\lenovo\AppData\Local\Temp\cc7gPbIA.s 			page 187


 9619 00a5 80       		.byte	-128
 9620 00a6 01       		.byte	1
 9621 00a7 80       		.byte	-128
 9622 00a8 01       		.byte	1
 9623 00a9 80       		.byte	-128
 9624 00aa 00       		.byte	0
 9625 00ab 00       		.byte	0
 9626 00ac 00       		.byte	0
 9627 00ad 00       		.byte	0
 9628 00ae 00       		.byte	0
 9629 00af 00       		.byte	0
 9630 00b0 01       		.byte	1
 9631 00b1 80       		.byte	-128
 9632 00b2 03       		.byte	3
 9633 00b3 C0       		.byte	-64
 9634 00b4 03       		.byte	3
 9635 00b5 C0       		.byte	-64
 9636 00b6 01       		.byte	1
 9637 00b7 80       		.byte	-128
 9638 00b8 00       		.byte	0
 9639 00b9 00       		.byte	0
 9640 00ba 00       		.byte	0
 9641 00bb 00       		.byte	0
 9642 00bc 00       		.byte	0
 9643 00bd 00       		.byte	0
 9644 00be 00       		.byte	0
 9645 00bf 00       		.byte	0
 9646 00c0 00000000 		.space	64
 9646      00000000 
 9646      00000000 
 9646      00000000 
 9646      00000000 
 9647 0100 00       		.byte	0
 9648 0101 00       		.byte	0
 9649 0102 00       		.byte	0
 9650 0103 00       		.byte	0
 9651 0104 03       		.byte	3
 9652 0105 18       		.byte	24
 9653 0106 07       		.byte	7
 9654 0107 38       		.byte	56
 9655 0108 07       		.byte	7
 9656 0109 38       		.byte	56
 9657 010a 0E       		.byte	14
 9658 010b 70       		.byte	112
 9659 010c 0C       		.byte	12
 9660 010d 60       		.byte	96
 9661 010e 18       		.byte	24
 9662 010f C0       		.byte	-64
 9663 0110 31       		.byte	49
 9664 0111 80       		.byte	-128
 9665 0112 21       		.byte	33
 9666 0113 00       		.byte	0
 9667 0114 00       		.byte	0
 9668 0115 00       		.byte	0
 9669 0116 00       		.byte	0
 9670 0117 00       		.byte	0
 9671 0118 00       		.byte	0
ARM GAS  c:\Users\lenovo\AppData\Local\Temp\cc7gPbIA.s 			page 188


 9672 0119 00       		.byte	0
 9673 011a 00       		.byte	0
 9674 011b 00       		.byte	0
 9675 011c 00       		.byte	0
 9676 011d 00       		.byte	0
 9677 011e 00       		.byte	0
 9678 011f 00       		.byte	0
 9679 0120 00       		.byte	0
 9680 0121 00       		.byte	0
 9681 0122 00       		.byte	0
 9682 0123 00       		.byte	0
 9683 0124 00       		.byte	0
 9684 0125 00       		.byte	0
 9685 0126 00       		.byte	0
 9686 0127 00       		.byte	0
 9687 0128 00       		.byte	0
 9688 0129 00       		.byte	0
 9689 012a 00       		.byte	0
 9690 012b 00       		.byte	0
 9691 012c 00       		.byte	0
 9692 012d 00       		.byte	0
 9693 012e 00       		.byte	0
 9694 012f 00       		.byte	0
 9695 0130 00       		.byte	0
 9696 0131 00       		.byte	0
 9697 0132 00       		.byte	0
 9698 0133 00       		.byte	0
 9699 0134 00       		.byte	0
 9700 0135 00       		.byte	0
 9701 0136 00       		.byte	0
 9702 0137 00       		.byte	0
 9703 0138 00       		.byte	0
 9704 0139 00       		.byte	0
 9705 013a 00       		.byte	0
 9706 013b 00       		.byte	0
 9707 013c 00       		.byte	0
 9708 013d 00       		.byte	0
 9709 013e 00       		.byte	0
 9710 013f 00       		.byte	0
 9711 0140 00000000 		.space	64
 9711      00000000 
 9711      00000000 
 9711      00000000 
 9711      00000000 
 9712 0180 00       		.byte	0
 9713 0181 00       		.byte	0
 9714 0182 00       		.byte	0
 9715 0183 00       		.byte	0
 9716 0184 00       		.byte	0
 9717 0185 00       		.byte	0
 9718 0186 00       		.byte	0
 9719 0187 00       		.byte	0
 9720 0188 00       		.byte	0
 9721 0189 00       		.byte	0
 9722 018a 00       		.byte	0
 9723 018b 00       		.byte	0
 9724 018c 04       		.byte	4
ARM GAS  c:\Users\lenovo\AppData\Local\Temp\cc7gPbIA.s 			page 189


 9725 018d 08       		.byte	8
 9726 018e 04       		.byte	4
 9727 018f 08       		.byte	8
 9728 0190 04       		.byte	4
 9729 0191 08       		.byte	8
 9730 0192 04       		.byte	4
 9731 0193 08       		.byte	8
 9732 0194 04       		.byte	4
 9733 0195 08       		.byte	8
 9734 0196 7F       		.byte	127
 9735 0197 FE       		.byte	-2
 9736 0198 7F       		.byte	127
 9737 0199 FE       		.byte	-2
 9738 019a 7F       		.byte	127
 9739 019b FE       		.byte	-2
 9740 019c 08       		.byte	8
 9741 019d 10       		.byte	16
 9742 019e 08       		.byte	8
 9743 019f 10       		.byte	16
 9744 01a0 08       		.byte	8
 9745 01a1 10       		.byte	16
 9746 01a2 08       		.byte	8
 9747 01a3 10       		.byte	16
 9748 01a4 08       		.byte	8
 9749 01a5 10       		.byte	16
 9750 01a6 08       		.byte	8
 9751 01a7 10       		.byte	16
 9752 01a8 7F       		.byte	127
 9753 01a9 FE       		.byte	-2
 9754 01aa 7F       		.byte	127
 9755 01ab FE       		.byte	-2
 9756 01ac 7F       		.byte	127
 9757 01ad FE       		.byte	-2
 9758 01ae 18       		.byte	24
 9759 01af 30       		.byte	48
 9760 01b0 10       		.byte	16
 9761 01b1 20       		.byte	32
 9762 01b2 10       		.byte	16
 9763 01b3 20       		.byte	32
 9764 01b4 10       		.byte	16
 9765 01b5 20       		.byte	32
 9766 01b6 10       		.byte	16
 9767 01b7 20       		.byte	32
 9768 01b8 00       		.byte	0
 9769 01b9 00       		.byte	0
 9770 01ba 00       		.byte	0
 9771 01bb 00       		.byte	0
 9772 01bc 00       		.byte	0
 9773 01bd 00       		.byte	0
 9774 01be 00       		.byte	0
 9775 01bf 00       		.byte	0
 9776 01c0 00000000 		.space	64
 9776      00000000 
 9776      00000000 
 9776      00000000 
 9776      00000000 
 9777 0200 00       		.byte	0
ARM GAS  c:\Users\lenovo\AppData\Local\Temp\cc7gPbIA.s 			page 190


 9778 0201 00       		.byte	0
 9779 0202 00       		.byte	0
 9780 0203 00       		.byte	0
 9781 0204 00       		.byte	0
 9782 0205 00       		.byte	0
 9783 0206 00       		.byte	0
 9784 0207 00       		.byte	0
 9785 0208 01       		.byte	1
 9786 0209 00       		.byte	0
 9787 020a 01       		.byte	1
 9788 020b 00       		.byte	0
 9789 020c 03       		.byte	3
 9790 020d C0       		.byte	-64
 9791 020e 0D       		.byte	13
 9792 020f 30       		.byte	48
 9793 0210 09       		.byte	9
 9794 0211 18       		.byte	24
 9795 0212 19       		.byte	25
 9796 0213 18       		.byte	24
 9797 0214 19       		.byte	25
 9798 0215 38       		.byte	56
 9799 0216 19       		.byte	25
 9800 0217 38       		.byte	56
 9801 0218 1D       		.byte	29
 9802 0219 00       		.byte	0
 9803 021a 0D       		.byte	13
 9804 021b 00       		.byte	0
 9805 021c 0F       		.byte	15
 9806 021d 00       		.byte	0
 9807 021e 07       		.byte	7
 9808 021f 00       		.byte	0
 9809 0220 03       		.byte	3
 9810 0221 C0       		.byte	-64
 9811 0222 01       		.byte	1
 9812 0223 E0       		.byte	-32
 9813 0224 01       		.byte	1
 9814 0225 F0       		.byte	-16
 9815 0226 01       		.byte	1
 9816 0227 30       		.byte	48
 9817 0228 01       		.byte	1
 9818 0229 38       		.byte	56
 9819 022a 01       		.byte	1
 9820 022b 18       		.byte	24
 9821 022c 39       		.byte	57
 9822 022d 18       		.byte	24
 9823 022e 39       		.byte	57
 9824 022f 18       		.byte	24
 9825 0230 31       		.byte	49
 9826 0231 18       		.byte	24
 9827 0232 31       		.byte	49
 9828 0233 30       		.byte	48
 9829 0234 19       		.byte	25
 9830 0235 60       		.byte	96
 9831 0236 07       		.byte	7
 9832 0237 C0       		.byte	-64
 9833 0238 01       		.byte	1
 9834 0239 00       		.byte	0
ARM GAS  c:\Users\lenovo\AppData\Local\Temp\cc7gPbIA.s 			page 191


 9835 023a 01       		.byte	1
 9836 023b 00       		.byte	0
 9837 023c 01       		.byte	1
 9838 023d 00       		.byte	0
 9839 023e 00       		.byte	0
 9840 023f 00       		.byte	0
 9841 0240 00000000 		.space	64
 9841      00000000 
 9841      00000000 
 9841      00000000 
 9841      00000000 
 9842 0280 00       		.byte	0
 9843 0281 00       		.byte	0
 9844 0282 00       		.byte	0
 9845 0283 00       		.byte	0
 9846 0284 00       		.byte	0
 9847 0285 00       		.byte	0
 9848 0286 00       		.byte	0
 9849 0287 00       		.byte	0
 9850 0288 00       		.byte	0
 9851 0289 00       		.byte	0
 9852 028a 00       		.byte	0
 9853 028b 00       		.byte	0
 9854 028c 38       		.byte	56
 9855 028d 10       		.byte	16
 9856 028e 6C       		.byte	108
 9857 028f 10       		.byte	16
 9858 0290 44       		.byte	68
 9859 0291 20       		.byte	32
 9860 0292 C6       		.byte	-58
 9861 0293 20       		.byte	32
 9862 0294 C6       		.byte	-58
 9863 0295 40       		.byte	64
 9864 0296 C6       		.byte	-58
 9865 0297 40       		.byte	64
 9866 0298 C6       		.byte	-58
 9867 0299 40       		.byte	64
 9868 029a C6       		.byte	-58
 9869 029b 80       		.byte	-128
 9870 029c C6       		.byte	-58
 9871 029d 80       		.byte	-128
 9872 029e 44       		.byte	68
 9873 029f 80       		.byte	-128
 9874 02a0 6D       		.byte	109
 9875 02a1 38       		.byte	56
 9876 02a2 39       		.byte	57
 9877 02a3 6C       		.byte	108
 9878 02a4 02       		.byte	2
 9879 02a5 44       		.byte	68
 9880 02a6 02       		.byte	2
 9881 02a7 C6       		.byte	-58
 9882 02a8 02       		.byte	2
 9883 02a9 C6       		.byte	-58
 9884 02aa 04       		.byte	4
 9885 02ab C6       		.byte	-58
 9886 02ac 04       		.byte	4
 9887 02ad C6       		.byte	-58
ARM GAS  c:\Users\lenovo\AppData\Local\Temp\cc7gPbIA.s 			page 192


 9888 02ae 08       		.byte	8
 9889 02af C6       		.byte	-58
 9890 02b0 08       		.byte	8
 9891 02b1 C6       		.byte	-58
 9892 02b2 08       		.byte	8
 9893 02b3 44       		.byte	68
 9894 02b4 10       		.byte	16
 9895 02b5 6C       		.byte	108
 9896 02b6 10       		.byte	16
 9897 02b7 38       		.byte	56
 9898 02b8 00       		.byte	0
 9899 02b9 00       		.byte	0
 9900 02ba 00       		.byte	0
 9901 02bb 00       		.byte	0
 9902 02bc 00       		.byte	0
 9903 02bd 00       		.byte	0
 9904 02be 00       		.byte	0
 9905 02bf 00       		.byte	0
 9906 02c0 00000000 		.space	64
 9906      00000000 
 9906      00000000 
 9906      00000000 
 9906      00000000 
 9907 0300 00       		.byte	0
 9908 0301 00       		.byte	0
 9909 0302 00       		.byte	0
 9910 0303 00       		.byte	0
 9911 0304 00       		.byte	0
 9912 0305 00       		.byte	0
 9913 0306 00       		.byte	0
 9914 0307 00       		.byte	0
 9915 0308 00       		.byte	0
 9916 0309 00       		.byte	0
 9917 030a 00       		.byte	0
 9918 030b 00       		.byte	0
 9919 030c 0F       		.byte	15
 9920 030d 00       		.byte	0
 9921 030e 19       		.byte	25
 9922 030f 00       		.byte	0
 9923 0310 31       		.byte	49
 9924 0311 80       		.byte	-128
 9925 0312 31       		.byte	49
 9926 0313 80       		.byte	-128
 9927 0314 31       		.byte	49
 9928 0315 80       		.byte	-128
 9929 0316 31       		.byte	49
 9930 0317 80       		.byte	-128
 9931 0318 31       		.byte	49
 9932 0319 00       		.byte	0
 9933 031a 33       		.byte	51
 9934 031b 00       		.byte	0
 9935 031c 3A       		.byte	58
 9936 031d 00       		.byte	0
 9937 031e 1C       		.byte	28
 9938 031f 00       		.byte	0
 9939 0320 38       		.byte	56
 9940 0321 7C       		.byte	124
ARM GAS  c:\Users\lenovo\AppData\Local\Temp\cc7gPbIA.s 			page 193


 9941 0322 3C       		.byte	60
 9942 0323 10       		.byte	16
 9943 0324 4C       		.byte	76
 9944 0325 10       		.byte	16
 9945 0326 CE       		.byte	-50
 9946 0327 10       		.byte	16
 9947 0328 C6       		.byte	-58
 9948 0329 20       		.byte	32
 9949 032a C7       		.byte	-57
 9950 032b 20       		.byte	32
 9951 032c C3       		.byte	-61
 9952 032d 20       		.byte	32
 9953 032e C1       		.byte	-63
 9954 032f C0       		.byte	-64
 9955 0330 C1       		.byte	-63
 9956 0331 C2       		.byte	-62
 9957 0332 60       		.byte	96
 9958 0333 E6       		.byte	-26
 9959 0334 31       		.byte	49
 9960 0335 7C       		.byte	124
 9961 0336 1E       		.byte	30
 9962 0337 38       		.byte	56
 9963 0338 00       		.byte	0
 9964 0339 00       		.byte	0
 9965 033a 00       		.byte	0
 9966 033b 00       		.byte	0
 9967 033c 00       		.byte	0
 9968 033d 00       		.byte	0
 9969 033e 00       		.byte	0
 9970 033f 00       		.byte	0
 9971 0340 00000000 		.space	64
 9971      00000000 
 9971      00000000 
 9971      00000000 
 9971      00000000 
 9972 0380 00       		.byte	0
 9973 0381 00       		.byte	0
 9974 0382 00       		.byte	0
 9975 0383 00       		.byte	0
 9976 0384 38       		.byte	56
 9977 0385 00       		.byte	0
 9978 0386 3C       		.byte	60
 9979 0387 00       		.byte	0
 9980 0388 3C       		.byte	60
 9981 0389 00       		.byte	0
 9982 038a 0C       		.byte	12
 9983 038b 00       		.byte	0
 9984 038c 0C       		.byte	12
 9985 038d 00       		.byte	0
 9986 038e 08       		.byte	8
 9987 038f 00       		.byte	0
 9988 0390 30       		.byte	48
 9989 0391 00       		.byte	0
 9990 0392 60       		.byte	96
 9991 0393 00       		.byte	0
 9992 0394 00       		.byte	0
 9993 0395 00       		.byte	0
ARM GAS  c:\Users\lenovo\AppData\Local\Temp\cc7gPbIA.s 			page 194


 9994 0396 00       		.byte	0
 9995 0397 00       		.byte	0
 9996 0398 00       		.byte	0
 9997 0399 00       		.byte	0
 9998 039a 00       		.byte	0
 9999 039b 00       		.byte	0
 10000 039c 00       		.byte	0
 10001 039d 00       		.byte	0
 10002 039e 00       		.byte	0
 10003 039f 00       		.byte	0
 10004 03a0 00       		.byte	0
 10005 03a1 00       		.byte	0
 10006 03a2 00       		.byte	0
 10007 03a3 00       		.byte	0
 10008 03a4 00       		.byte	0
 10009 03a5 00       		.byte	0
 10010 03a6 00       		.byte	0
 10011 03a7 00       		.byte	0
 10012 03a8 00       		.byte	0
 10013 03a9 00       		.byte	0
 10014 03aa 00       		.byte	0
 10015 03ab 00       		.byte	0
 10016 03ac 00       		.byte	0
 10017 03ad 00       		.byte	0
 10018 03ae 00       		.byte	0
 10019 03af 00       		.byte	0
 10020 03b0 00       		.byte	0
 10021 03b1 00       		.byte	0
 10022 03b2 00       		.byte	0
 10023 03b3 00       		.byte	0
 10024 03b4 00       		.byte	0
 10025 03b5 00       		.byte	0
 10026 03b6 00       		.byte	0
 10027 03b7 00       		.byte	0
 10028 03b8 00       		.byte	0
 10029 03b9 00       		.byte	0
 10030 03ba 00       		.byte	0
 10031 03bb 00       		.byte	0
 10032 03bc 00       		.byte	0
 10033 03bd 00       		.byte	0
 10034 03be 00       		.byte	0
 10035 03bf 00       		.byte	0
 10036 03c0 00000000 		.space	64
 10036      00000000 
 10036      00000000 
 10036      00000000 
 10036      00000000 
 10037 0400 00       		.byte	0
 10038 0401 00       		.byte	0
 10039 0402 00       		.byte	0
 10040 0403 00       		.byte	0
 10041 0404 00       		.byte	0
 10042 0405 02       		.byte	2
 10043 0406 00       		.byte	0
 10044 0407 04       		.byte	4
 10045 0408 00       		.byte	0
 10046 0409 08       		.byte	8
ARM GAS  c:\Users\lenovo\AppData\Local\Temp\cc7gPbIA.s 			page 195


 10047 040a 00       		.byte	0
 10048 040b 18       		.byte	24
 10049 040c 00       		.byte	0
 10050 040d 30       		.byte	48
 10051 040e 00       		.byte	0
 10052 040f 20       		.byte	32
 10053 0410 00       		.byte	0
 10054 0411 60       		.byte	96
 10055 0412 00       		.byte	0
 10056 0413 40       		.byte	64
 10057 0414 00       		.byte	0
 10058 0415 C0       		.byte	-64
 10059 0416 00       		.byte	0
 10060 0417 C0       		.byte	-64
 10061 0418 01       		.byte	1
 10062 0419 80       		.byte	-128
 10063 041a 01       		.byte	1
 10064 041b 80       		.byte	-128
 10065 041c 01       		.byte	1
 10066 041d 80       		.byte	-128
 10067 041e 01       		.byte	1
 10068 041f 80       		.byte	-128
 10069 0420 01       		.byte	1
 10070 0421 80       		.byte	-128
 10071 0422 01       		.byte	1
 10072 0423 80       		.byte	-128
 10073 0424 01       		.byte	1
 10074 0425 80       		.byte	-128
 10075 0426 01       		.byte	1
 10076 0427 80       		.byte	-128
 10077 0428 01       		.byte	1
 10078 0429 80       		.byte	-128
 10079 042a 00       		.byte	0
 10080 042b C0       		.byte	-64
 10081 042c 00       		.byte	0
 10082 042d C0       		.byte	-64
 10083 042e 00       		.byte	0
 10084 042f 40       		.byte	64
 10085 0430 00       		.byte	0
 10086 0431 60       		.byte	96
 10087 0432 00       		.byte	0
 10088 0433 20       		.byte	32
 10089 0434 00       		.byte	0
 10090 0435 30       		.byte	48
 10091 0436 00       		.byte	0
 10092 0437 18       		.byte	24
 10093 0438 00       		.byte	0
 10094 0439 08       		.byte	8
 10095 043a 00       		.byte	0
 10096 043b 04       		.byte	4
 10097 043c 00       		.byte	0
 10098 043d 02       		.byte	2
 10099 043e 00       		.byte	0
 10100 043f 00       		.byte	0
 10101 0440 00000000 		.space	64
 10101      00000000 
 10101      00000000 
ARM GAS  c:\Users\lenovo\AppData\Local\Temp\cc7gPbIA.s 			page 196


 10101      00000000 
 10101      00000000 
 10102 0480 00       		.byte	0
 10103 0481 00       		.byte	0
 10104 0482 00       		.byte	0
 10105 0483 00       		.byte	0
 10106 0484 40       		.byte	64
 10107 0485 00       		.byte	0
 10108 0486 20       		.byte	32
 10109 0487 00       		.byte	0
 10110 0488 10       		.byte	16
 10111 0489 00       		.byte	0
 10112 048a 18       		.byte	24
 10113 048b 00       		.byte	0
 10114 048c 0C       		.byte	12
 10115 048d 00       		.byte	0
 10116 048e 04       		.byte	4
 10117 048f 00       		.byte	0
 10118 0490 06       		.byte	6
 10119 0491 00       		.byte	0
 10120 0492 02       		.byte	2
 10121 0493 00       		.byte	0
 10122 0494 03       		.byte	3
 10123 0495 00       		.byte	0
 10124 0496 03       		.byte	3
 10125 0497 00       		.byte	0
 10126 0498 01       		.byte	1
 10127 0499 80       		.byte	-128
 10128 049a 01       		.byte	1
 10129 049b 80       		.byte	-128
 10130 049c 01       		.byte	1
 10131 049d 80       		.byte	-128
 10132 049e 01       		.byte	1
 10133 049f 80       		.byte	-128
 10134 04a0 01       		.byte	1
 10135 04a1 80       		.byte	-128
 10136 04a2 01       		.byte	1
 10137 04a3 80       		.byte	-128
 10138 04a4 01       		.byte	1
 10139 04a5 80       		.byte	-128
 10140 04a6 01       		.byte	1
 10141 04a7 80       		.byte	-128
 10142 04a8 01       		.byte	1
 10143 04a9 80       		.byte	-128
 10144 04aa 03       		.byte	3
 10145 04ab 00       		.byte	0
 10146 04ac 03       		.byte	3
 10147 04ad 00       		.byte	0
 10148 04ae 03       		.byte	3
 10149 04af 00       		.byte	0
 10150 04b0 06       		.byte	6
 10151 04b1 00       		.byte	0
 10152 04b2 04       		.byte	4
 10153 04b3 00       		.byte	0
 10154 04b4 0C       		.byte	12
 10155 04b5 00       		.byte	0
 10156 04b6 18       		.byte	24
ARM GAS  c:\Users\lenovo\AppData\Local\Temp\cc7gPbIA.s 			page 197


 10157 04b7 00       		.byte	0
 10158 04b8 10       		.byte	16
 10159 04b9 00       		.byte	0
 10160 04ba 20       		.byte	32
 10161 04bb 00       		.byte	0
 10162 04bc 40       		.byte	64
 10163 04bd 00       		.byte	0
 10164 04be 00       		.byte	0
 10165 04bf 00       		.byte	0
 10166 04c0 00000000 		.space	64
 10166      00000000 
 10166      00000000 
 10166      00000000 
 10166      00000000 
 10167 0500 00       		.byte	0
 10168 0501 00       		.byte	0
 10169 0502 00       		.byte	0
 10170 0503 00       		.byte	0
 10171 0504 00       		.byte	0
 10172 0505 00       		.byte	0
 10173 0506 00       		.byte	0
 10174 0507 00       		.byte	0
 10175 0508 00       		.byte	0
 10176 0509 00       		.byte	0
 10177 050a 00       		.byte	0
 10178 050b 00       		.byte	0
 10179 050c 00       		.byte	0
 10180 050d 00       		.byte	0
 10181 050e 00       		.byte	0
 10182 050f 00       		.byte	0
 10183 0510 00       		.byte	0
 10184 0511 C0       		.byte	-64
 10185 0512 01       		.byte	1
 10186 0513 C0       		.byte	-64
 10187 0514 01       		.byte	1
 10188 0515 C0       		.byte	-64
 10189 0516 30       		.byte	48
 10190 0517 C6       		.byte	-58
 10191 0518 38       		.byte	56
 10192 0519 8E       		.byte	-114
 10193 051a 1C       		.byte	28
 10194 051b 9C       		.byte	-100
 10195 051c 06       		.byte	6
 10196 051d B0       		.byte	-80
 10197 051e 01       		.byte	1
 10198 051f C0       		.byte	-64
 10199 0520 01       		.byte	1
 10200 0521 C0       		.byte	-64
 10201 0522 06       		.byte	6
 10202 0523 B0       		.byte	-80
 10203 0524 1C       		.byte	28
 10204 0525 9C       		.byte	-100
 10205 0526 38       		.byte	56
 10206 0527 8E       		.byte	-114
 10207 0528 31       		.byte	49
 10208 0529 86       		.byte	-122
 10209 052a 01       		.byte	1
ARM GAS  c:\Users\lenovo\AppData\Local\Temp\cc7gPbIA.s 			page 198


 10210 052b C0       		.byte	-64
 10211 052c 01       		.byte	1
 10212 052d C0       		.byte	-64
 10213 052e 01       		.byte	1
 10214 052f C0       		.byte	-64
 10215 0530 00       		.byte	0
 10216 0531 00       		.byte	0
 10217 0532 00       		.byte	0
 10218 0533 00       		.byte	0
 10219 0534 00       		.byte	0
 10220 0535 00       		.byte	0
 10221 0536 00       		.byte	0
 10222 0537 00       		.byte	0
 10223 0538 00       		.byte	0
 10224 0539 00       		.byte	0
 10225 053a 00       		.byte	0
 10226 053b 00       		.byte	0
 10227 053c 00       		.byte	0
 10228 053d 00       		.byte	0
 10229 053e 00       		.byte	0
 10230 053f 00       		.byte	0
 10231 0540 00000000 		.space	64
 10231      00000000 
 10231      00000000 
 10231      00000000 
 10231      00000000 
 10232 0580 00       		.byte	0
 10233 0581 00       		.byte	0
 10234 0582 00       		.byte	0
 10235 0583 00       		.byte	0
 10236 0584 00       		.byte	0
 10237 0585 00       		.byte	0
 10238 0586 00       		.byte	0
 10239 0587 00       		.byte	0
 10240 0588 00       		.byte	0
 10241 0589 00       		.byte	0
 10242 058a 00       		.byte	0
 10243 058b 00       		.byte	0
 10244 058c 00       		.byte	0
 10245 058d 00       		.byte	0
 10246 058e 00       		.byte	0
 10247 058f 00       		.byte	0
 10248 0590 00       		.byte	0
 10249 0591 00       		.byte	0
 10250 0592 00       		.byte	0
 10251 0593 80       		.byte	-128
 10252 0594 00       		.byte	0
 10253 0595 80       		.byte	-128
 10254 0596 00       		.byte	0
 10255 0597 80       		.byte	-128
 10256 0598 00       		.byte	0
 10257 0599 80       		.byte	-128
 10258 059a 00       		.byte	0
 10259 059b 80       		.byte	-128
 10260 059c 00       		.byte	0
 10261 059d 80       		.byte	-128
 10262 059e 00       		.byte	0
ARM GAS  c:\Users\lenovo\AppData\Local\Temp\cc7gPbIA.s 			page 199


 10263 059f 80       		.byte	-128
 10264 05a0 3F       		.byte	63
 10265 05a1 FE       		.byte	-2
 10266 05a2 00       		.byte	0
 10267 05a3 80       		.byte	-128
 10268 05a4 00       		.byte	0
 10269 05a5 80       		.byte	-128
 10270 05a6 00       		.byte	0
 10271 05a7 80       		.byte	-128
 10272 05a8 00       		.byte	0
 10273 05a9 80       		.byte	-128
 10274 05aa 00       		.byte	0
 10275 05ab 80       		.byte	-128
 10276 05ac 00       		.byte	0
 10277 05ad 80       		.byte	-128
 10278 05ae 00       		.byte	0
 10279 05af 80       		.byte	-128
 10280 05b0 00       		.byte	0
 10281 05b1 00       		.byte	0
 10282 05b2 00       		.byte	0
 10283 05b3 00       		.byte	0
 10284 05b4 00       		.byte	0
 10285 05b5 00       		.byte	0
 10286 05b6 00       		.byte	0
 10287 05b7 00       		.byte	0
 10288 05b8 00       		.byte	0
 10289 05b9 00       		.byte	0
 10290 05ba 00       		.byte	0
 10291 05bb 00       		.byte	0
 10292 05bc 00       		.byte	0
 10293 05bd 00       		.byte	0
 10294 05be 00       		.byte	0
 10295 05bf 00       		.byte	0
 10296 05c0 00000000 		.space	64
 10296      00000000 
 10296      00000000 
 10296      00000000 
 10296      00000000 
 10297 0600 00       		.byte	0
 10298 0601 00       		.byte	0
 10299 0602 00       		.byte	0
 10300 0603 00       		.byte	0
 10301 0604 00       		.byte	0
 10302 0605 00       		.byte	0
 10303 0606 00       		.byte	0
 10304 0607 00       		.byte	0
 10305 0608 00       		.byte	0
 10306 0609 00       		.byte	0
 10307 060a 00       		.byte	0
 10308 060b 00       		.byte	0
 10309 060c 00       		.byte	0
 10310 060d 00       		.byte	0
 10311 060e 00       		.byte	0
 10312 060f 00       		.byte	0
 10313 0610 00       		.byte	0
 10314 0611 00       		.byte	0
 10315 0612 00       		.byte	0
ARM GAS  c:\Users\lenovo\AppData\Local\Temp\cc7gPbIA.s 			page 200


 10316 0613 00       		.byte	0
 10317 0614 00       		.byte	0
 10318 0615 00       		.byte	0
 10319 0616 00       		.byte	0
 10320 0617 00       		.byte	0
 10321 0618 00       		.byte	0
 10322 0619 00       		.byte	0
 10323 061a 00       		.byte	0
 10324 061b 00       		.byte	0
 10325 061c 00       		.byte	0
 10326 061d 00       		.byte	0
 10327 061e 00       		.byte	0
 10328 061f 00       		.byte	0
 10329 0620 00       		.byte	0
 10330 0621 00       		.byte	0
 10331 0622 00       		.byte	0
 10332 0623 00       		.byte	0
 10333 0624 00       		.byte	0
 10334 0625 00       		.byte	0
 10335 0626 00       		.byte	0
 10336 0627 00       		.byte	0
 10337 0628 00       		.byte	0
 10338 0629 00       		.byte	0
 10339 062a 00       		.byte	0
 10340 062b 00       		.byte	0
 10341 062c 00       		.byte	0
 10342 062d 00       		.byte	0
 10343 062e 00       		.byte	0
 10344 062f 00       		.byte	0
 10345 0630 38       		.byte	56
 10346 0631 00       		.byte	0
 10347 0632 3C       		.byte	60
 10348 0633 00       		.byte	0
 10349 0634 3C       		.byte	60
 10350 0635 00       		.byte	0
 10351 0636 0C       		.byte	12
 10352 0637 00       		.byte	0
 10353 0638 0C       		.byte	12
 10354 0639 00       		.byte	0
 10355 063a 08       		.byte	8
 10356 063b 00       		.byte	0
 10357 063c 30       		.byte	48
 10358 063d 00       		.byte	0
 10359 063e 60       		.byte	96
 10360 063f 00       		.byte	0
 10361 0640 00000000 		.space	64
 10361      00000000 
 10361      00000000 
 10361      00000000 
 10361      00000000 
 10362 0680 00       		.byte	0
 10363 0681 00       		.byte	0
 10364 0682 00       		.byte	0
 10365 0683 00       		.byte	0
 10366 0684 00       		.byte	0
 10367 0685 00       		.byte	0
 10368 0686 00       		.byte	0
ARM GAS  c:\Users\lenovo\AppData\Local\Temp\cc7gPbIA.s 			page 201


 10369 0687 00       		.byte	0
 10370 0688 00       		.byte	0
 10371 0689 00       		.byte	0
 10372 068a 00       		.byte	0
 10373 068b 00       		.byte	0
 10374 068c 00       		.byte	0
 10375 068d 00       		.byte	0
 10376 068e 00       		.byte	0
 10377 068f 00       		.byte	0
 10378 0690 00       		.byte	0
 10379 0691 00       		.byte	0
 10380 0692 00       		.byte	0
 10381 0693 00       		.byte	0
 10382 0694 00       		.byte	0
 10383 0695 00       		.byte	0
 10384 0696 00       		.byte	0
 10385 0697 00       		.byte	0
 10386 0698 00       		.byte	0
 10387 0699 00       		.byte	0
 10388 069a 00       		.byte	0
 10389 069b 00       		.byte	0
 10390 069c 00       		.byte	0
 10391 069d 00       		.byte	0
 10392 069e 00       		.byte	0
 10393 069f 00       		.byte	0
 10394 06a0 7F       		.byte	127
 10395 06a1 FE       		.byte	-2
 10396 06a2 00       		.byte	0
 10397 06a3 00       		.byte	0
 10398 06a4 00       		.byte	0
 10399 06a5 00       		.byte	0
 10400 06a6 00       		.byte	0
 10401 06a7 00       		.byte	0
 10402 06a8 00       		.byte	0
 10403 06a9 00       		.byte	0
 10404 06aa 00       		.byte	0
 10405 06ab 00       		.byte	0
 10406 06ac 00       		.byte	0
 10407 06ad 00       		.byte	0
 10408 06ae 00       		.byte	0
 10409 06af 00       		.byte	0
 10410 06b0 00       		.byte	0
 10411 06b1 00       		.byte	0
 10412 06b2 00       		.byte	0
 10413 06b3 00       		.byte	0
 10414 06b4 00       		.byte	0
 10415 06b5 00       		.byte	0
 10416 06b6 00       		.byte	0
 10417 06b7 00       		.byte	0
 10418 06b8 00       		.byte	0
 10419 06b9 00       		.byte	0
 10420 06ba 00       		.byte	0
 10421 06bb 00       		.byte	0
 10422 06bc 00       		.byte	0
 10423 06bd 00       		.byte	0
 10424 06be 00       		.byte	0
 10425 06bf 00       		.byte	0
ARM GAS  c:\Users\lenovo\AppData\Local\Temp\cc7gPbIA.s 			page 202


 10426 06c0 00000000 		.space	64
 10426      00000000 
 10426      00000000 
 10426      00000000 
 10426      00000000 
 10427 0700 00       		.byte	0
 10428 0701 00       		.byte	0
 10429 0702 00       		.byte	0
 10430 0703 00       		.byte	0
 10431 0704 00       		.byte	0
 10432 0705 00       		.byte	0
 10433 0706 00       		.byte	0
 10434 0707 00       		.byte	0
 10435 0708 00       		.byte	0
 10436 0709 00       		.byte	0
 10437 070a 00       		.byte	0
 10438 070b 00       		.byte	0
 10439 070c 00       		.byte	0
 10440 070d 00       		.byte	0
 10441 070e 00       		.byte	0
 10442 070f 00       		.byte	0
 10443 0710 00       		.byte	0
 10444 0711 00       		.byte	0
 10445 0712 00       		.byte	0
 10446 0713 00       		.byte	0
 10447 0714 00       		.byte	0
 10448 0715 00       		.byte	0
 10449 0716 00       		.byte	0
 10450 0717 00       		.byte	0
 10451 0718 00       		.byte	0
 10452 0719 00       		.byte	0
 10453 071a 00       		.byte	0
 10454 071b 00       		.byte	0
 10455 071c 00       		.byte	0
 10456 071d 00       		.byte	0
 10457 071e 00       		.byte	0
 10458 071f 00       		.byte	0
 10459 0720 00       		.byte	0
 10460 0721 00       		.byte	0
 10461 0722 00       		.byte	0
 10462 0723 00       		.byte	0
 10463 0724 00       		.byte	0
 10464 0725 00       		.byte	0
 10465 0726 00       		.byte	0
 10466 0727 00       		.byte	0
 10467 0728 00       		.byte	0
 10468 0729 00       		.byte	0
 10469 072a 00       		.byte	0
 10470 072b 00       		.byte	0
 10471 072c 00       		.byte	0
 10472 072d 00       		.byte	0
 10473 072e 00       		.byte	0
 10474 072f 00       		.byte	0
 10475 0730 18       		.byte	24
 10476 0731 00       		.byte	0
 10477 0732 3C       		.byte	60
 10478 0733 00       		.byte	0
ARM GAS  c:\Users\lenovo\AppData\Local\Temp\cc7gPbIA.s 			page 203


 10479 0734 3C       		.byte	60
 10480 0735 00       		.byte	0
 10481 0736 18       		.byte	24
 10482 0737 00       		.byte	0
 10483 0738 00       		.byte	0
 10484 0739 00       		.byte	0
 10485 073a 00       		.byte	0
 10486 073b 00       		.byte	0
 10487 073c 00       		.byte	0
 10488 073d 00       		.byte	0
 10489 073e 00       		.byte	0
 10490 073f 00       		.byte	0
 10491 0740 00000000 		.space	64
 10491      00000000 
 10491      00000000 
 10491      00000000 
 10491      00000000 
 10492 0780 00       		.byte	0
 10493 0781 00       		.byte	0
 10494 0782 00       		.byte	0
 10495 0783 00       		.byte	0
 10496 0784 00       		.byte	0
 10497 0785 00       		.byte	0
 10498 0786 00       		.byte	0
 10499 0787 02       		.byte	2
 10500 0788 00       		.byte	0
 10501 0789 06       		.byte	6
 10502 078a 00       		.byte	0
 10503 078b 04       		.byte	4
 10504 078c 00       		.byte	0
 10505 078d 0C       		.byte	12
 10506 078e 00       		.byte	0
 10507 078f 08       		.byte	8
 10508 0790 00       		.byte	0
 10509 0791 18       		.byte	24
 10510 0792 00       		.byte	0
 10511 0793 10       		.byte	16
 10512 0794 00       		.byte	0
 10513 0795 30       		.byte	48
 10514 0796 00       		.byte	0
 10515 0797 20       		.byte	32
 10516 0798 00       		.byte	0
 10517 0799 60       		.byte	96
 10518 079a 00       		.byte	0
 10519 079b 40       		.byte	64
 10520 079c 00       		.byte	0
 10521 079d C0       		.byte	-64
 10522 079e 00       		.byte	0
 10523 079f 80       		.byte	-128
 10524 07a0 01       		.byte	1
 10525 07a1 80       		.byte	-128
 10526 07a2 01       		.byte	1
 10527 07a3 00       		.byte	0
 10528 07a4 03       		.byte	3
 10529 07a5 00       		.byte	0
 10530 07a6 02       		.byte	2
 10531 07a7 00       		.byte	0
ARM GAS  c:\Users\lenovo\AppData\Local\Temp\cc7gPbIA.s 			page 204


 10532 07a8 06       		.byte	6
 10533 07a9 00       		.byte	0
 10534 07aa 04       		.byte	4
 10535 07ab 00       		.byte	0
 10536 07ac 0C       		.byte	12
 10537 07ad 00       		.byte	0
 10538 07ae 08       		.byte	8
 10539 07af 00       		.byte	0
 10540 07b0 18       		.byte	24
 10541 07b1 00       		.byte	0
 10542 07b2 10       		.byte	16
 10543 07b3 00       		.byte	0
 10544 07b4 30       		.byte	48
 10545 07b5 00       		.byte	0
 10546 07b6 20       		.byte	32
 10547 07b7 00       		.byte	0
 10548 07b8 60       		.byte	96
 10549 07b9 00       		.byte	0
 10550 07ba 40       		.byte	64
 10551 07bb 00       		.byte	0
 10552 07bc 00       		.byte	0
 10553 07bd 00       		.byte	0
 10554 07be 00       		.byte	0
 10555 07bf 00       		.byte	0
 10556 07c0 00000000 		.space	64
 10556      00000000 
 10556      00000000 
 10556      00000000 
 10556      00000000 
 10557 0800 00       		.byte	0
 10558 0801 00       		.byte	0
 10559 0802 00       		.byte	0
 10560 0803 00       		.byte	0
 10561 0804 00       		.byte	0
 10562 0805 00       		.byte	0
 10563 0806 00       		.byte	0
 10564 0807 00       		.byte	0
 10565 0808 00       		.byte	0
 10566 0809 00       		.byte	0
 10567 080a 00       		.byte	0
 10568 080b 00       		.byte	0
 10569 080c 03       		.byte	3
 10570 080d C0       		.byte	-64
 10571 080e 06       		.byte	6
 10572 080f 20       		.byte	32
 10573 0810 0C       		.byte	12
 10574 0811 30       		.byte	48
 10575 0812 18       		.byte	24
 10576 0813 18       		.byte	24
 10577 0814 18       		.byte	24
 10578 0815 18       		.byte	24
 10579 0816 18       		.byte	24
 10580 0817 08       		.byte	8
 10581 0818 30       		.byte	48
 10582 0819 0C       		.byte	12
 10583 081a 30       		.byte	48
 10584 081b 0C       		.byte	12
ARM GAS  c:\Users\lenovo\AppData\Local\Temp\cc7gPbIA.s 			page 205


 10585 081c 30       		.byte	48
 10586 081d 0C       		.byte	12
 10587 081e 30       		.byte	48
 10588 081f 0C       		.byte	12
 10589 0820 30       		.byte	48
 10590 0821 0C       		.byte	12
 10591 0822 30       		.byte	48
 10592 0823 0C       		.byte	12
 10593 0824 30       		.byte	48
 10594 0825 0C       		.byte	12
 10595 0826 30       		.byte	48
 10596 0827 0C       		.byte	12
 10597 0828 30       		.byte	48
 10598 0829 0C       		.byte	12
 10599 082a 30       		.byte	48
 10600 082b 0C       		.byte	12
 10601 082c 18       		.byte	24
 10602 082d 08       		.byte	8
 10603 082e 18       		.byte	24
 10604 082f 18       		.byte	24
 10605 0830 18       		.byte	24
 10606 0831 18       		.byte	24
 10607 0832 0C       		.byte	12
 10608 0833 30       		.byte	48
 10609 0834 06       		.byte	6
 10610 0835 20       		.byte	32
 10611 0836 03       		.byte	3
 10612 0837 C0       		.byte	-64
 10613 0838 00       		.byte	0
 10614 0839 00       		.byte	0
 10615 083a 00       		.byte	0
 10616 083b 00       		.byte	0
 10617 083c 00       		.byte	0
 10618 083d 00       		.byte	0
 10619 083e 00       		.byte	0
 10620 083f 00       		.byte	0
 10621 0840 00000000 		.space	64
 10621      00000000 
 10621      00000000 
 10621      00000000 
 10621      00000000 
 10622 0880 00       		.byte	0
 10623 0881 00       		.byte	0
 10624 0882 00       		.byte	0
 10625 0883 00       		.byte	0
 10626 0884 00       		.byte	0
 10627 0885 00       		.byte	0
 10628 0886 00       		.byte	0
 10629 0887 00       		.byte	0
 10630 0888 00       		.byte	0
 10631 0889 00       		.byte	0
 10632 088a 00       		.byte	0
 10633 088b 00       		.byte	0
 10634 088c 00       		.byte	0
 10635 088d 80       		.byte	-128
 10636 088e 01       		.byte	1
 10637 088f 80       		.byte	-128
ARM GAS  c:\Users\lenovo\AppData\Local\Temp\cc7gPbIA.s 			page 206


 10638 0890 1F       		.byte	31
 10639 0891 80       		.byte	-128
 10640 0892 01       		.byte	1
 10641 0893 80       		.byte	-128
 10642 0894 01       		.byte	1
 10643 0895 80       		.byte	-128
 10644 0896 01       		.byte	1
 10645 0897 80       		.byte	-128
 10646 0898 01       		.byte	1
 10647 0899 80       		.byte	-128
 10648 089a 01       		.byte	1
 10649 089b 80       		.byte	-128
 10650 089c 01       		.byte	1
 10651 089d 80       		.byte	-128
 10652 089e 01       		.byte	1
 10653 089f 80       		.byte	-128
 10654 08a0 01       		.byte	1
 10655 08a1 80       		.byte	-128
 10656 08a2 01       		.byte	1
 10657 08a3 80       		.byte	-128
 10658 08a4 01       		.byte	1
 10659 08a5 80       		.byte	-128
 10660 08a6 01       		.byte	1
 10661 08a7 80       		.byte	-128
 10662 08a8 01       		.byte	1
 10663 08a9 80       		.byte	-128
 10664 08aa 01       		.byte	1
 10665 08ab 80       		.byte	-128
 10666 08ac 01       		.byte	1
 10667 08ad 80       		.byte	-128
 10668 08ae 01       		.byte	1
 10669 08af 80       		.byte	-128
 10670 08b0 01       		.byte	1
 10671 08b1 80       		.byte	-128
 10672 08b2 01       		.byte	1
 10673 08b3 80       		.byte	-128
 10674 08b4 03       		.byte	3
 10675 08b5 C0       		.byte	-64
 10676 08b6 1F       		.byte	31
 10677 08b7 F8       		.byte	-8
 10678 08b8 00       		.byte	0
 10679 08b9 00       		.byte	0
 10680 08ba 00       		.byte	0
 10681 08bb 00       		.byte	0
 10682 08bc 00       		.byte	0
 10683 08bd 00       		.byte	0
 10684 08be 00       		.byte	0
 10685 08bf 00       		.byte	0
 10686 08c0 00000000 		.space	64
 10686      00000000 
 10686      00000000 
 10686      00000000 
 10686      00000000 
 10687 0900 00       		.byte	0
 10688 0901 00       		.byte	0
 10689 0902 00       		.byte	0
 10690 0903 00       		.byte	0
ARM GAS  c:\Users\lenovo\AppData\Local\Temp\cc7gPbIA.s 			page 207


 10691 0904 00       		.byte	0
 10692 0905 00       		.byte	0
 10693 0906 00       		.byte	0
 10694 0907 00       		.byte	0
 10695 0908 00       		.byte	0
 10696 0909 00       		.byte	0
 10697 090a 00       		.byte	0
 10698 090b 00       		.byte	0
 10699 090c 07       		.byte	7
 10700 090d E0       		.byte	-32
 10701 090e 08       		.byte	8
 10702 090f 38       		.byte	56
 10703 0910 10       		.byte	16
 10704 0911 18       		.byte	24
 10705 0912 20       		.byte	32
 10706 0913 0C       		.byte	12
 10707 0914 20       		.byte	32
 10708 0915 0C       		.byte	12
 10709 0916 30       		.byte	48
 10710 0917 0C       		.byte	12
 10711 0918 30       		.byte	48
 10712 0919 0C       		.byte	12
 10713 091a 00       		.byte	0
 10714 091b 0C       		.byte	12
 10715 091c 00       		.byte	0
 10716 091d 18       		.byte	24
 10717 091e 00       		.byte	0
 10718 091f 18       		.byte	24
 10719 0920 00       		.byte	0
 10720 0921 30       		.byte	48
 10721 0922 00       		.byte	0
 10722 0923 60       		.byte	96
 10723 0924 00       		.byte	0
 10724 0925 C0       		.byte	-64
 10725 0926 01       		.byte	1
 10726 0927 80       		.byte	-128
 10727 0928 03       		.byte	3
 10728 0929 00       		.byte	0
 10729 092a 02       		.byte	2
 10730 092b 00       		.byte	0
 10731 092c 04       		.byte	4
 10732 092d 04       		.byte	4
 10733 092e 08       		.byte	8
 10734 092f 04       		.byte	4
 10735 0930 10       		.byte	16
 10736 0931 04       		.byte	4
 10737 0932 20       		.byte	32
 10738 0933 0C       		.byte	12
 10739 0934 3F       		.byte	63
 10740 0935 F8       		.byte	-8
 10741 0936 3F       		.byte	63
 10742 0937 F8       		.byte	-8
 10743 0938 00       		.byte	0
 10744 0939 00       		.byte	0
 10745 093a 00       		.byte	0
 10746 093b 00       		.byte	0
 10747 093c 00       		.byte	0
ARM GAS  c:\Users\lenovo\AppData\Local\Temp\cc7gPbIA.s 			page 208


 10748 093d 00       		.byte	0
 10749 093e 00       		.byte	0
 10750 093f 00       		.byte	0
 10751 0940 00000000 		.space	64
 10751      00000000 
 10751      00000000 
 10751      00000000 
 10751      00000000 
 10752 0980 00       		.byte	0
 10753 0981 00       		.byte	0
 10754 0982 00       		.byte	0
 10755 0983 00       		.byte	0
 10756 0984 00       		.byte	0
 10757 0985 00       		.byte	0
 10758 0986 00       		.byte	0
 10759 0987 00       		.byte	0
 10760 0988 00       		.byte	0
 10761 0989 00       		.byte	0
 10762 098a 00       		.byte	0
 10763 098b 00       		.byte	0
 10764 098c 07       		.byte	7
 10765 098d C0       		.byte	-64
 10766 098e 18       		.byte	24
 10767 098f 60       		.byte	96
 10768 0990 30       		.byte	48
 10769 0991 30       		.byte	48
 10770 0992 30       		.byte	48
 10771 0993 18       		.byte	24
 10772 0994 30       		.byte	48
 10773 0995 18       		.byte	24
 10774 0996 30       		.byte	48
 10775 0997 18       		.byte	24
 10776 0998 00       		.byte	0
 10777 0999 18       		.byte	24
 10778 099a 00       		.byte	0
 10779 099b 18       		.byte	24
 10780 099c 00       		.byte	0
 10781 099d 30       		.byte	48
 10782 099e 00       		.byte	0
 10783 099f 60       		.byte	96
 10784 09a0 03       		.byte	3
 10785 09a1 C0       		.byte	-64
 10786 09a2 00       		.byte	0
 10787 09a3 70       		.byte	112
 10788 09a4 00       		.byte	0
 10789 09a5 18       		.byte	24
 10790 09a6 00       		.byte	0
 10791 09a7 08       		.byte	8
 10792 09a8 00       		.byte	0
 10793 09a9 0C       		.byte	12
 10794 09aa 00       		.byte	0
 10795 09ab 0C       		.byte	12
 10796 09ac 30       		.byte	48
 10797 09ad 0C       		.byte	12
 10798 09ae 30       		.byte	48
 10799 09af 0C       		.byte	12
 10800 09b0 30       		.byte	48
ARM GAS  c:\Users\lenovo\AppData\Local\Temp\cc7gPbIA.s 			page 209


 10801 09b1 08       		.byte	8
 10802 09b2 30       		.byte	48
 10803 09b3 18       		.byte	24
 10804 09b4 18       		.byte	24
 10805 09b5 30       		.byte	48
 10806 09b6 07       		.byte	7
 10807 09b7 C0       		.byte	-64
 10808 09b8 00       		.byte	0
 10809 09b9 00       		.byte	0
 10810 09ba 00       		.byte	0
 10811 09bb 00       		.byte	0
 10812 09bc 00       		.byte	0
 10813 09bd 00       		.byte	0
 10814 09be 00       		.byte	0
 10815 09bf 00       		.byte	0
 10816 09c0 00000000 		.space	64
 10816      00000000 
 10816      00000000 
 10816      00000000 
 10816      00000000 
 10817 0a00 00       		.byte	0
 10818 0a01 00       		.byte	0
 10819 0a02 00       		.byte	0
 10820 0a03 00       		.byte	0
 10821 0a04 00       		.byte	0
 10822 0a05 00       		.byte	0
 10823 0a06 00       		.byte	0
 10824 0a07 00       		.byte	0
 10825 0a08 00       		.byte	0
 10826 0a09 00       		.byte	0
 10827 0a0a 00       		.byte	0
 10828 0a0b 00       		.byte	0
 10829 0a0c 00       		.byte	0
 10830 0a0d 60       		.byte	96
 10831 0a0e 00       		.byte	0
 10832 0a0f 60       		.byte	96
 10833 0a10 00       		.byte	0
 10834 0a11 E0       		.byte	-32
 10835 0a12 00       		.byte	0
 10836 0a13 E0       		.byte	-32
 10837 0a14 01       		.byte	1
 10838 0a15 60       		.byte	96
 10839 0a16 01       		.byte	1
 10840 0a17 60       		.byte	96
 10841 0a18 02       		.byte	2
 10842 0a19 60       		.byte	96
 10843 0a1a 04       		.byte	4
 10844 0a1b 60       		.byte	96
 10845 0a1c 04       		.byte	4
 10846 0a1d 60       		.byte	96
 10847 0a1e 08       		.byte	8
 10848 0a1f 60       		.byte	96
 10849 0a20 08       		.byte	8
 10850 0a21 60       		.byte	96
 10851 0a22 10       		.byte	16
 10852 0a23 60       		.byte	96
 10853 0a24 30       		.byte	48
ARM GAS  c:\Users\lenovo\AppData\Local\Temp\cc7gPbIA.s 			page 210


 10854 0a25 60       		.byte	96
 10855 0a26 20       		.byte	32
 10856 0a27 60       		.byte	96
 10857 0a28 40       		.byte	64
 10858 0a29 60       		.byte	96
 10859 0a2a 7F       		.byte	127
 10860 0a2b FC       		.byte	-4
 10861 0a2c 00       		.byte	0
 10862 0a2d 60       		.byte	96
 10863 0a2e 00       		.byte	0
 10864 0a2f 60       		.byte	96
 10865 0a30 00       		.byte	0
 10866 0a31 60       		.byte	96
 10867 0a32 00       		.byte	0
 10868 0a33 60       		.byte	96
 10869 0a34 00       		.byte	0
 10870 0a35 60       		.byte	96
 10871 0a36 03       		.byte	3
 10872 0a37 FC       		.byte	-4
 10873 0a38 00       		.byte	0
 10874 0a39 00       		.byte	0
 10875 0a3a 00       		.byte	0
 10876 0a3b 00       		.byte	0
 10877 0a3c 00       		.byte	0
 10878 0a3d 00       		.byte	0
 10879 0a3e 00       		.byte	0
 10880 0a3f 00       		.byte	0
 10881 0a40 00000000 		.space	64
 10881      00000000 
 10881      00000000 
 10881      00000000 
 10881      00000000 
 10882 0a80 00       		.byte	0
 10883 0a81 00       		.byte	0
 10884 0a82 00       		.byte	0
 10885 0a83 00       		.byte	0
 10886 0a84 00       		.byte	0
 10887 0a85 00       		.byte	0
 10888 0a86 00       		.byte	0
 10889 0a87 00       		.byte	0
 10890 0a88 00       		.byte	0
 10891 0a89 00       		.byte	0
 10892 0a8a 00       		.byte	0
 10893 0a8b 00       		.byte	0
 10894 0a8c 0F       		.byte	15
 10895 0a8d FC       		.byte	-4
 10896 0a8e 0F       		.byte	15
 10897 0a8f FC       		.byte	-4
 10898 0a90 10       		.byte	16
 10899 0a91 00       		.byte	0
 10900 0a92 10       		.byte	16
 10901 0a93 00       		.byte	0
 10902 0a94 10       		.byte	16
 10903 0a95 00       		.byte	0
 10904 0a96 10       		.byte	16
 10905 0a97 00       		.byte	0
 10906 0a98 10       		.byte	16
ARM GAS  c:\Users\lenovo\AppData\Local\Temp\cc7gPbIA.s 			page 211


 10907 0a99 00       		.byte	0
 10908 0a9a 10       		.byte	16
 10909 0a9b 00       		.byte	0
 10910 0a9c 13       		.byte	19
 10911 0a9d E0       		.byte	-32
 10912 0a9e 14       		.byte	20
 10913 0a9f 30       		.byte	48
 10914 0aa0 18       		.byte	24
 10915 0aa1 18       		.byte	24
 10916 0aa2 10       		.byte	16
 10917 0aa3 08       		.byte	8
 10918 0aa4 00       		.byte	0
 10919 0aa5 0C       		.byte	12
 10920 0aa6 00       		.byte	0
 10921 0aa7 0C       		.byte	12
 10922 0aa8 00       		.byte	0
 10923 0aa9 0C       		.byte	12
 10924 0aaa 00       		.byte	0
 10925 0aab 0C       		.byte	12
 10926 0aac 30       		.byte	48
 10927 0aad 0C       		.byte	12
 10928 0aae 30       		.byte	48
 10929 0aaf 0C       		.byte	12
 10930 0ab0 20       		.byte	32
 10931 0ab1 18       		.byte	24
 10932 0ab2 20       		.byte	32
 10933 0ab3 18       		.byte	24
 10934 0ab4 18       		.byte	24
 10935 0ab5 30       		.byte	48
 10936 0ab6 07       		.byte	7
 10937 0ab7 C0       		.byte	-64
 10938 0ab8 00       		.byte	0
 10939 0ab9 00       		.byte	0
 10940 0aba 00       		.byte	0
 10941 0abb 00       		.byte	0
 10942 0abc 00       		.byte	0
 10943 0abd 00       		.byte	0
 10944 0abe 00       		.byte	0
 10945 0abf 00       		.byte	0
 10946 0ac0 00000000 		.space	64
 10946      00000000 
 10946      00000000 
 10946      00000000 
 10946      00000000 
 10947 0b00 00       		.byte	0
 10948 0b01 00       		.byte	0
 10949 0b02 00       		.byte	0
 10950 0b03 00       		.byte	0
 10951 0b04 00       		.byte	0
 10952 0b05 00       		.byte	0
 10953 0b06 00       		.byte	0
 10954 0b07 00       		.byte	0
 10955 0b08 00       		.byte	0
 10956 0b09 00       		.byte	0
 10957 0b0a 00       		.byte	0
 10958 0b0b 00       		.byte	0
 10959 0b0c 01       		.byte	1
ARM GAS  c:\Users\lenovo\AppData\Local\Temp\cc7gPbIA.s 			page 212


 10960 0b0d E0       		.byte	-32
 10961 0b0e 06       		.byte	6
 10962 0b0f 18       		.byte	24
 10963 0b10 0C       		.byte	12
 10964 0b11 18       		.byte	24
 10965 0b12 08       		.byte	8
 10966 0b13 18       		.byte	24
 10967 0b14 18       		.byte	24
 10968 0b15 00       		.byte	0
 10969 0b16 10       		.byte	16
 10970 0b17 00       		.byte	0
 10971 0b18 10       		.byte	16
 10972 0b19 00       		.byte	0
 10973 0b1a 30       		.byte	48
 10974 0b1b 00       		.byte	0
 10975 0b1c 33       		.byte	51
 10976 0b1d E0       		.byte	-32
 10977 0b1e 36       		.byte	54
 10978 0b1f 30       		.byte	48
 10979 0b20 38       		.byte	56
 10980 0b21 18       		.byte	24
 10981 0b22 38       		.byte	56
 10982 0b23 08       		.byte	8
 10983 0b24 30       		.byte	48
 10984 0b25 0C       		.byte	12
 10985 0b26 30       		.byte	48
 10986 0b27 0C       		.byte	12
 10987 0b28 30       		.byte	48
 10988 0b29 0C       		.byte	12
 10989 0b2a 30       		.byte	48
 10990 0b2b 0C       		.byte	12
 10991 0b2c 30       		.byte	48
 10992 0b2d 0C       		.byte	12
 10993 0b2e 18       		.byte	24
 10994 0b2f 0C       		.byte	12
 10995 0b30 18       		.byte	24
 10996 0b31 08       		.byte	8
 10997 0b32 0C       		.byte	12
 10998 0b33 18       		.byte	24
 10999 0b34 0E       		.byte	14
 11000 0b35 30       		.byte	48
 11001 0b36 03       		.byte	3
 11002 0b37 E0       		.byte	-32
 11003 0b38 00       		.byte	0
 11004 0b39 00       		.byte	0
 11005 0b3a 00       		.byte	0
 11006 0b3b 00       		.byte	0
 11007 0b3c 00       		.byte	0
 11008 0b3d 00       		.byte	0
 11009 0b3e 00       		.byte	0
 11010 0b3f 00       		.byte	0
 11011 0b40 00000000 		.space	64
 11011      00000000 
 11011      00000000 
 11011      00000000 
 11011      00000000 
 11012 0b80 00       		.byte	0
ARM GAS  c:\Users\lenovo\AppData\Local\Temp\cc7gPbIA.s 			page 213


 11013 0b81 00       		.byte	0
 11014 0b82 00       		.byte	0
 11015 0b83 00       		.byte	0
 11016 0b84 00       		.byte	0
 11017 0b85 00       		.byte	0
 11018 0b86 00       		.byte	0
 11019 0b87 00       		.byte	0
 11020 0b88 00       		.byte	0
 11021 0b89 00       		.byte	0
 11022 0b8a 00       		.byte	0
 11023 0b8b 00       		.byte	0
 11024 0b8c 1F       		.byte	31
 11025 0b8d FC       		.byte	-4
 11026 0b8e 1F       		.byte	31
 11027 0b8f FC       		.byte	-4
 11028 0b90 10       		.byte	16
 11029 0b91 08       		.byte	8
 11030 0b92 30       		.byte	48
 11031 0b93 10       		.byte	16
 11032 0b94 20       		.byte	32
 11033 0b95 10       		.byte	16
 11034 0b96 20       		.byte	32
 11035 0b97 20       		.byte	32
 11036 0b98 00       		.byte	0
 11037 0b99 20       		.byte	32
 11038 0b9a 00       		.byte	0
 11039 0b9b 40       		.byte	64
 11040 0b9c 00       		.byte	0
 11041 0b9d 40       		.byte	64
 11042 0b9e 00       		.byte	0
 11043 0b9f 40       		.byte	64
 11044 0ba0 00       		.byte	0
 11045 0ba1 80       		.byte	-128
 11046 0ba2 00       		.byte	0
 11047 0ba3 80       		.byte	-128
 11048 0ba4 01       		.byte	1
 11049 0ba5 00       		.byte	0
 11050 0ba6 01       		.byte	1
 11051 0ba7 00       		.byte	0
 11052 0ba8 01       		.byte	1
 11053 0ba9 00       		.byte	0
 11054 0baa 01       		.byte	1
 11055 0bab 00       		.byte	0
 11056 0bac 03       		.byte	3
 11057 0bad 00       		.byte	0
 11058 0bae 03       		.byte	3
 11059 0baf 00       		.byte	0
 11060 0bb0 03       		.byte	3
 11061 0bb1 00       		.byte	0
 11062 0bb2 03       		.byte	3
 11063 0bb3 00       		.byte	0
 11064 0bb4 03       		.byte	3
 11065 0bb5 00       		.byte	0
 11066 0bb6 03       		.byte	3
 11067 0bb7 00       		.byte	0
 11068 0bb8 00       		.byte	0
 11069 0bb9 00       		.byte	0
ARM GAS  c:\Users\lenovo\AppData\Local\Temp\cc7gPbIA.s 			page 214


 11070 0bba 00       		.byte	0
 11071 0bbb 00       		.byte	0
 11072 0bbc 00       		.byte	0
 11073 0bbd 00       		.byte	0
 11074 0bbe 00       		.byte	0
 11075 0bbf 00       		.byte	0
 11076 0bc0 00000000 		.space	64
 11076      00000000 
 11076      00000000 
 11076      00000000 
 11076      00000000 
 11077 0c00 00       		.byte	0
 11078 0c01 00       		.byte	0
 11079 0c02 00       		.byte	0
 11080 0c03 00       		.byte	0
 11081 0c04 00       		.byte	0
 11082 0c05 00       		.byte	0
 11083 0c06 00       		.byte	0
 11084 0c07 00       		.byte	0
 11085 0c08 00       		.byte	0
 11086 0c09 00       		.byte	0
 11087 0c0a 00       		.byte	0
 11088 0c0b 00       		.byte	0
 11089 0c0c 07       		.byte	7
 11090 0c0d E0       		.byte	-32
 11091 0c0e 0C       		.byte	12
 11092 0c0f 30       		.byte	48
 11093 0c10 18       		.byte	24
 11094 0c11 18       		.byte	24
 11095 0c12 30       		.byte	48
 11096 0c13 0C       		.byte	12
 11097 0c14 30       		.byte	48
 11098 0c15 0C       		.byte	12
 11099 0c16 30       		.byte	48
 11100 0c17 0C       		.byte	12
 11101 0c18 38       		.byte	56
 11102 0c19 0C       		.byte	12
 11103 0c1a 38       		.byte	56
 11104 0c1b 08       		.byte	8
 11105 0c1c 1E       		.byte	30
 11106 0c1d 18       		.byte	24
 11107 0c1e 0F       		.byte	15
 11108 0c1f 20       		.byte	32
 11109 0c20 07       		.byte	7
 11110 0c21 C0       		.byte	-64
 11111 0c22 18       		.byte	24
 11112 0c23 F0       		.byte	-16
 11113 0c24 30       		.byte	48
 11114 0c25 78       		.byte	120
 11115 0c26 30       		.byte	48
 11116 0c27 38       		.byte	56
 11117 0c28 60       		.byte	96
 11118 0c29 1C       		.byte	28
 11119 0c2a 60       		.byte	96
 11120 0c2b 0C       		.byte	12
 11121 0c2c 60       		.byte	96
 11122 0c2d 0C       		.byte	12
ARM GAS  c:\Users\lenovo\AppData\Local\Temp\cc7gPbIA.s 			page 215


 11123 0c2e 60       		.byte	96
 11124 0c2f 0C       		.byte	12
 11125 0c30 60       		.byte	96
 11126 0c31 0C       		.byte	12
 11127 0c32 30       		.byte	48
 11128 0c33 18       		.byte	24
 11129 0c34 18       		.byte	24
 11130 0c35 30       		.byte	48
 11131 0c36 07       		.byte	7
 11132 0c37 C0       		.byte	-64
 11133 0c38 00       		.byte	0
 11134 0c39 00       		.byte	0
 11135 0c3a 00       		.byte	0
 11136 0c3b 00       		.byte	0
 11137 0c3c 00       		.byte	0
 11138 0c3d 00       		.byte	0
 11139 0c3e 00       		.byte	0
 11140 0c3f 00       		.byte	0
 11141 0c40 00000000 		.space	64
 11141      00000000 
 11141      00000000 
 11141      00000000 
 11141      00000000 
 11142 0c80 00       		.byte	0
 11143 0c81 00       		.byte	0
 11144 0c82 00       		.byte	0
 11145 0c83 00       		.byte	0
 11146 0c84 00       		.byte	0
 11147 0c85 00       		.byte	0
 11148 0c86 00       		.byte	0
 11149 0c87 00       		.byte	0
 11150 0c88 00       		.byte	0
 11151 0c89 00       		.byte	0
 11152 0c8a 00       		.byte	0
 11153 0c8b 00       		.byte	0
 11154 0c8c 07       		.byte	7
 11155 0c8d C0       		.byte	-64
 11156 0c8e 18       		.byte	24
 11157 0c8f 20       		.byte	32
 11158 0c90 30       		.byte	48
 11159 0c91 10       		.byte	16
 11160 0c92 30       		.byte	48
 11161 0c93 18       		.byte	24
 11162 0c94 60       		.byte	96
 11163 0c95 08       		.byte	8
 11164 0c96 60       		.byte	96
 11165 0c97 0C       		.byte	12
 11166 0c98 60       		.byte	96
 11167 0c99 0C       		.byte	12
 11168 0c9a 60       		.byte	96
 11169 0c9b 0C       		.byte	12
 11170 0c9c 60       		.byte	96
 11171 0c9d 0C       		.byte	12
 11172 0c9e 60       		.byte	96
 11173 0c9f 0C       		.byte	12
 11174 0ca0 70       		.byte	112
 11175 0ca1 1C       		.byte	28
ARM GAS  c:\Users\lenovo\AppData\Local\Temp\cc7gPbIA.s 			page 216


 11176 0ca2 30       		.byte	48
 11177 0ca3 2C       		.byte	44
 11178 0ca4 18       		.byte	24
 11179 0ca5 6C       		.byte	108
 11180 0ca6 0F       		.byte	15
 11181 0ca7 8C       		.byte	-116
 11182 0ca8 00       		.byte	0
 11183 0ca9 0C       		.byte	12
 11184 0caa 00       		.byte	0
 11185 0cab 18       		.byte	24
 11186 0cac 00       		.byte	0
 11187 0cad 18       		.byte	24
 11188 0cae 00       		.byte	0
 11189 0caf 10       		.byte	16
 11190 0cb0 30       		.byte	48
 11191 0cb1 30       		.byte	48
 11192 0cb2 30       		.byte	48
 11193 0cb3 60       		.byte	96
 11194 0cb4 30       		.byte	48
 11195 0cb5 C0       		.byte	-64
 11196 0cb6 0F       		.byte	15
 11197 0cb7 80       		.byte	-128
 11198 0cb8 00       		.byte	0
 11199 0cb9 00       		.byte	0
 11200 0cba 00       		.byte	0
 11201 0cbb 00       		.byte	0
 11202 0cbc 00       		.byte	0
 11203 0cbd 00       		.byte	0
 11204 0cbe 00       		.byte	0
 11205 0cbf 00       		.byte	0
 11206 0cc0 00000000 		.space	64
 11206      00000000 
 11206      00000000 
 11206      00000000 
 11206      00000000 
 11207 0d00 00       		.byte	0
 11208 0d01 00       		.byte	0
 11209 0d02 00       		.byte	0
 11210 0d03 00       		.byte	0
 11211 0d04 00       		.byte	0
 11212 0d05 00       		.byte	0
 11213 0d06 00       		.byte	0
 11214 0d07 00       		.byte	0
 11215 0d08 00       		.byte	0
 11216 0d09 00       		.byte	0
 11217 0d0a 00       		.byte	0
 11218 0d0b 00       		.byte	0
 11219 0d0c 00       		.byte	0
 11220 0d0d 00       		.byte	0
 11221 0d0e 00       		.byte	0
 11222 0d0f 00       		.byte	0
 11223 0d10 00       		.byte	0
 11224 0d11 00       		.byte	0
 11225 0d12 00       		.byte	0
 11226 0d13 00       		.byte	0
 11227 0d14 00       		.byte	0
 11228 0d15 00       		.byte	0
ARM GAS  c:\Users\lenovo\AppData\Local\Temp\cc7gPbIA.s 			page 217


 11229 0d16 00       		.byte	0
 11230 0d17 00       		.byte	0
 11231 0d18 00       		.byte	0
 11232 0d19 00       		.byte	0
 11233 0d1a 01       		.byte	1
 11234 0d1b 80       		.byte	-128
 11235 0d1c 03       		.byte	3
 11236 0d1d C0       		.byte	-64
 11237 0d1e 03       		.byte	3
 11238 0d1f C0       		.byte	-64
 11239 0d20 01       		.byte	1
 11240 0d21 80       		.byte	-128
 11241 0d22 00       		.byte	0
 11242 0d23 00       		.byte	0
 11243 0d24 00       		.byte	0
 11244 0d25 00       		.byte	0
 11245 0d26 00       		.byte	0
 11246 0d27 00       		.byte	0
 11247 0d28 00       		.byte	0
 11248 0d29 00       		.byte	0
 11249 0d2a 00       		.byte	0
 11250 0d2b 00       		.byte	0
 11251 0d2c 00       		.byte	0
 11252 0d2d 00       		.byte	0
 11253 0d2e 00       		.byte	0
 11254 0d2f 00       		.byte	0
 11255 0d30 01       		.byte	1
 11256 0d31 80       		.byte	-128
 11257 0d32 03       		.byte	3
 11258 0d33 C0       		.byte	-64
 11259 0d34 03       		.byte	3
 11260 0d35 C0       		.byte	-64
 11261 0d36 01       		.byte	1
 11262 0d37 80       		.byte	-128
 11263 0d38 00       		.byte	0
 11264 0d39 00       		.byte	0
 11265 0d3a 00       		.byte	0
 11266 0d3b 00       		.byte	0
 11267 0d3c 00       		.byte	0
 11268 0d3d 00       		.byte	0
 11269 0d3e 00       		.byte	0
 11270 0d3f 00       		.byte	0
 11271 0d40 00000000 		.space	64
 11271      00000000 
 11271      00000000 
 11271      00000000 
 11271      00000000 
 11272 0d80 00       		.byte	0
 11273 0d81 00       		.byte	0
 11274 0d82 00       		.byte	0
 11275 0d83 00       		.byte	0
 11276 0d84 00       		.byte	0
 11277 0d85 00       		.byte	0
 11278 0d86 00       		.byte	0
 11279 0d87 00       		.byte	0
 11280 0d88 00       		.byte	0
 11281 0d89 00       		.byte	0
ARM GAS  c:\Users\lenovo\AppData\Local\Temp\cc7gPbIA.s 			page 218


 11282 0d8a 00       		.byte	0
 11283 0d8b 00       		.byte	0
 11284 0d8c 00       		.byte	0
 11285 0d8d 00       		.byte	0
 11286 0d8e 00       		.byte	0
 11287 0d8f 00       		.byte	0
 11288 0d90 00       		.byte	0
 11289 0d91 00       		.byte	0
 11290 0d92 00       		.byte	0
 11291 0d93 00       		.byte	0
 11292 0d94 00       		.byte	0
 11293 0d95 00       		.byte	0
 11294 0d96 00       		.byte	0
 11295 0d97 00       		.byte	0
 11296 0d98 00       		.byte	0
 11297 0d99 00       		.byte	0
 11298 0d9a 00       		.byte	0
 11299 0d9b 00       		.byte	0
 11300 0d9c 03       		.byte	3
 11301 0d9d 80       		.byte	-128
 11302 0d9e 03       		.byte	3
 11303 0d9f 80       		.byte	-128
 11304 0da0 03       		.byte	3
 11305 0da1 80       		.byte	-128
 11306 0da2 00       		.byte	0
 11307 0da3 00       		.byte	0
 11308 0da4 00       		.byte	0
 11309 0da5 00       		.byte	0
 11310 0da6 00       		.byte	0
 11311 0da7 00       		.byte	0
 11312 0da8 00       		.byte	0
 11313 0da9 00       		.byte	0
 11314 0daa 00       		.byte	0
 11315 0dab 00       		.byte	0
 11316 0dac 00       		.byte	0
 11317 0dad 00       		.byte	0
 11318 0dae 00       		.byte	0
 11319 0daf 00       		.byte	0
 11320 0db0 00       		.byte	0
 11321 0db1 00       		.byte	0
 11322 0db2 03       		.byte	3
 11323 0db3 80       		.byte	-128
 11324 0db4 03       		.byte	3
 11325 0db5 80       		.byte	-128
 11326 0db6 03       		.byte	3
 11327 0db7 80       		.byte	-128
 11328 0db8 01       		.byte	1
 11329 0db9 80       		.byte	-128
 11330 0dba 03       		.byte	3
 11331 0dbb 00       		.byte	0
 11332 0dbc 03       		.byte	3
 11333 0dbd 00       		.byte	0
 11334 0dbe 00       		.byte	0
 11335 0dbf 00       		.byte	0
 11336 0dc0 00000000 		.space	64
 11336      00000000 
 11336      00000000 
ARM GAS  c:\Users\lenovo\AppData\Local\Temp\cc7gPbIA.s 			page 219


 11336      00000000 
 11336      00000000 
 11337 0e00 00       		.byte	0
 11338 0e01 00       		.byte	0
 11339 0e02 00       		.byte	0
 11340 0e03 00       		.byte	0
 11341 0e04 00       		.byte	0
 11342 0e05 00       		.byte	0
 11343 0e06 00       		.byte	0
 11344 0e07 00       		.byte	0
 11345 0e08 00       		.byte	0
 11346 0e09 00       		.byte	0
 11347 0e0a 00       		.byte	0
 11348 0e0b 00       		.byte	0
 11349 0e0c 00       		.byte	0
 11350 0e0d 04       		.byte	4
 11351 0e0e 00       		.byte	0
 11352 0e0f 08       		.byte	8
 11353 0e10 00       		.byte	0
 11354 0e11 10       		.byte	16
 11355 0e12 00       		.byte	0
 11356 0e13 20       		.byte	32
 11357 0e14 00       		.byte	0
 11358 0e15 40       		.byte	64
 11359 0e16 00       		.byte	0
 11360 0e17 80       		.byte	-128
 11361 0e18 01       		.byte	1
 11362 0e19 00       		.byte	0
 11363 0e1a 02       		.byte	2
 11364 0e1b 00       		.byte	0
 11365 0e1c 04       		.byte	4
 11366 0e1d 00       		.byte	0
 11367 0e1e 08       		.byte	8
 11368 0e1f 00       		.byte	0
 11369 0e20 10       		.byte	16
 11370 0e21 00       		.byte	0
 11371 0e22 10       		.byte	16
 11372 0e23 00       		.byte	0
 11373 0e24 08       		.byte	8
 11374 0e25 00       		.byte	0
 11375 0e26 04       		.byte	4
 11376 0e27 00       		.byte	0
 11377 0e28 02       		.byte	2
 11378 0e29 00       		.byte	0
 11379 0e2a 01       		.byte	1
 11380 0e2b 00       		.byte	0
 11381 0e2c 00       		.byte	0
 11382 0e2d 80       		.byte	-128
 11383 0e2e 00       		.byte	0
 11384 0e2f 40       		.byte	64
 11385 0e30 00       		.byte	0
 11386 0e31 20       		.byte	32
 11387 0e32 00       		.byte	0
 11388 0e33 10       		.byte	16
 11389 0e34 00       		.byte	0
 11390 0e35 08       		.byte	8
 11391 0e36 00       		.byte	0
ARM GAS  c:\Users\lenovo\AppData\Local\Temp\cc7gPbIA.s 			page 220


 11392 0e37 04       		.byte	4
 11393 0e38 00       		.byte	0
 11394 0e39 00       		.byte	0
 11395 0e3a 00       		.byte	0
 11396 0e3b 00       		.byte	0
 11397 0e3c 00       		.byte	0
 11398 0e3d 00       		.byte	0
 11399 0e3e 00       		.byte	0
 11400 0e3f 00       		.byte	0
 11401 0e40 00000000 		.space	64
 11401      00000000 
 11401      00000000 
 11401      00000000 
 11401      00000000 
 11402 0e80 00       		.byte	0
 11403 0e81 00       		.byte	0
 11404 0e82 00       		.byte	0
 11405 0e83 00       		.byte	0
 11406 0e84 00       		.byte	0
 11407 0e85 00       		.byte	0
 11408 0e86 00       		.byte	0
 11409 0e87 00       		.byte	0
 11410 0e88 00       		.byte	0
 11411 0e89 00       		.byte	0
 11412 0e8a 00       		.byte	0
 11413 0e8b 00       		.byte	0
 11414 0e8c 00       		.byte	0
 11415 0e8d 00       		.byte	0
 11416 0e8e 00       		.byte	0
 11417 0e8f 00       		.byte	0
 11418 0e90 00       		.byte	0
 11419 0e91 00       		.byte	0
 11420 0e92 00       		.byte	0
 11421 0e93 00       		.byte	0
 11422 0e94 00       		.byte	0
 11423 0e95 00       		.byte	0
 11424 0e96 00       		.byte	0
 11425 0e97 00       		.byte	0
 11426 0e98 00       		.byte	0
 11427 0e99 00       		.byte	0
 11428 0e9a 7F       		.byte	127
 11429 0e9b FE       		.byte	-2
 11430 0e9c 00       		.byte	0
 11431 0e9d 00       		.byte	0
 11432 0e9e 00       		.byte	0
 11433 0e9f 00       		.byte	0
 11434 0ea0 00       		.byte	0
 11435 0ea1 00       		.byte	0
 11436 0ea2 00       		.byte	0
 11437 0ea3 00       		.byte	0
 11438 0ea4 00       		.byte	0
 11439 0ea5 00       		.byte	0
 11440 0ea6 7F       		.byte	127
 11441 0ea7 FE       		.byte	-2
 11442 0ea8 00       		.byte	0
 11443 0ea9 00       		.byte	0
 11444 0eaa 00       		.byte	0
ARM GAS  c:\Users\lenovo\AppData\Local\Temp\cc7gPbIA.s 			page 221


 11445 0eab 00       		.byte	0
 11446 0eac 00       		.byte	0
 11447 0ead 00       		.byte	0
 11448 0eae 00       		.byte	0
 11449 0eaf 00       		.byte	0
 11450 0eb0 00       		.byte	0
 11451 0eb1 00       		.byte	0
 11452 0eb2 00       		.byte	0
 11453 0eb3 00       		.byte	0
 11454 0eb4 00       		.byte	0
 11455 0eb5 00       		.byte	0
 11456 0eb6 00       		.byte	0
 11457 0eb7 00       		.byte	0
 11458 0eb8 00       		.byte	0
 11459 0eb9 00       		.byte	0
 11460 0eba 00       		.byte	0
 11461 0ebb 00       		.byte	0
 11462 0ebc 00       		.byte	0
 11463 0ebd 00       		.byte	0
 11464 0ebe 00       		.byte	0
 11465 0ebf 00       		.byte	0
 11466 0ec0 00000000 		.space	64
 11466      00000000 
 11466      00000000 
 11466      00000000 
 11466      00000000 
 11467 0f00 00       		.byte	0
 11468 0f01 00       		.byte	0
 11469 0f02 00       		.byte	0
 11470 0f03 00       		.byte	0
 11471 0f04 00       		.byte	0
 11472 0f05 00       		.byte	0
 11473 0f06 00       		.byte	0
 11474 0f07 00       		.byte	0
 11475 0f08 00       		.byte	0
 11476 0f09 00       		.byte	0
 11477 0f0a 00       		.byte	0
 11478 0f0b 00       		.byte	0
 11479 0f0c 20       		.byte	32
 11480 0f0d 00       		.byte	0
 11481 0f0e 10       		.byte	16
 11482 0f0f 00       		.byte	0
 11483 0f10 08       		.byte	8
 11484 0f11 00       		.byte	0
 11485 0f12 04       		.byte	4
 11486 0f13 00       		.byte	0
 11487 0f14 02       		.byte	2
 11488 0f15 00       		.byte	0
 11489 0f16 01       		.byte	1
 11490 0f17 00       		.byte	0
 11491 0f18 00       		.byte	0
 11492 0f19 80       		.byte	-128
 11493 0f1a 00       		.byte	0
 11494 0f1b 40       		.byte	64
 11495 0f1c 00       		.byte	0
 11496 0f1d 20       		.byte	32
 11497 0f1e 00       		.byte	0
ARM GAS  c:\Users\lenovo\AppData\Local\Temp\cc7gPbIA.s 			page 222


 11498 0f1f 10       		.byte	16
 11499 0f20 00       		.byte	0
 11500 0f21 08       		.byte	8
 11501 0f22 00       		.byte	0
 11502 0f23 08       		.byte	8
 11503 0f24 00       		.byte	0
 11504 0f25 10       		.byte	16
 11505 0f26 00       		.byte	0
 11506 0f27 20       		.byte	32
 11507 0f28 00       		.byte	0
 11508 0f29 40       		.byte	64
 11509 0f2a 00       		.byte	0
 11510 0f2b 80       		.byte	-128
 11511 0f2c 01       		.byte	1
 11512 0f2d 00       		.byte	0
 11513 0f2e 02       		.byte	2
 11514 0f2f 00       		.byte	0
 11515 0f30 04       		.byte	4
 11516 0f31 00       		.byte	0
 11517 0f32 08       		.byte	8
 11518 0f33 00       		.byte	0
 11519 0f34 10       		.byte	16
 11520 0f35 00       		.byte	0
 11521 0f36 20       		.byte	32
 11522 0f37 00       		.byte	0
 11523 0f38 00       		.byte	0
 11524 0f39 00       		.byte	0
 11525 0f3a 00       		.byte	0
 11526 0f3b 00       		.byte	0
 11527 0f3c 00       		.byte	0
 11528 0f3d 00       		.byte	0
 11529 0f3e 00       		.byte	0
 11530 0f3f 00       		.byte	0
 11531 0f40 00000000 		.space	64
 11531      00000000 
 11531      00000000 
 11531      00000000 
 11531      00000000 
 11532 0f80 00       		.byte	0
 11533 0f81 00       		.byte	0
 11534 0f82 00       		.byte	0
 11535 0f83 00       		.byte	0
 11536 0f84 00       		.byte	0
 11537 0f85 00       		.byte	0
 11538 0f86 00       		.byte	0
 11539 0f87 00       		.byte	0
 11540 0f88 00       		.byte	0
 11541 0f89 00       		.byte	0
 11542 0f8a 00       		.byte	0
 11543 0f8b 00       		.byte	0
 11544 0f8c 03       		.byte	3
 11545 0f8d E0       		.byte	-32
 11546 0f8e 0C       		.byte	12
 11547 0f8f 18       		.byte	24
 11548 0f90 18       		.byte	24
 11549 0f91 0C       		.byte	12
 11550 0f92 10       		.byte	16
ARM GAS  c:\Users\lenovo\AppData\Local\Temp\cc7gPbIA.s 			page 223


 11551 0f93 06       		.byte	6
 11552 0f94 30       		.byte	48
 11553 0f95 06       		.byte	6
 11554 0f96 38       		.byte	56
 11555 0f97 06       		.byte	6
 11556 0f98 38       		.byte	56
 11557 0f99 06       		.byte	6
 11558 0f9a 38       		.byte	56
 11559 0f9b 06       		.byte	6
 11560 0f9c 00       		.byte	0
 11561 0f9d 0C       		.byte	12
 11562 0f9e 00       		.byte	0
 11563 0f9f 18       		.byte	24
 11564 0fa0 00       		.byte	0
 11565 0fa1 70       		.byte	112
 11566 0fa2 00       		.byte	0
 11567 0fa3 C0       		.byte	-64
 11568 0fa4 00       		.byte	0
 11569 0fa5 80       		.byte	-128
 11570 0fa6 00       		.byte	0
 11571 0fa7 80       		.byte	-128
 11572 0fa8 00       		.byte	0
 11573 0fa9 80       		.byte	-128
 11574 0faa 00       		.byte	0
 11575 0fab 80       		.byte	-128
 11576 0fac 00       		.byte	0
 11577 0fad 00       		.byte	0
 11578 0fae 00       		.byte	0
 11579 0faf 00       		.byte	0
 11580 0fb0 01       		.byte	1
 11581 0fb1 80       		.byte	-128
 11582 0fb2 03       		.byte	3
 11583 0fb3 C0       		.byte	-64
 11584 0fb4 03       		.byte	3
 11585 0fb5 C0       		.byte	-64
 11586 0fb6 01       		.byte	1
 11587 0fb7 80       		.byte	-128
 11588 0fb8 00       		.byte	0
 11589 0fb9 00       		.byte	0
 11590 0fba 00       		.byte	0
 11591 0fbb 00       		.byte	0
 11592 0fbc 00       		.byte	0
 11593 0fbd 00       		.byte	0
 11594 0fbe 00       		.byte	0
 11595 0fbf 00       		.byte	0
 11596 0fc0 00000000 		.space	64
 11596      00000000 
 11596      00000000 
 11596      00000000 
 11596      00000000 
 11597 1000 00       		.byte	0
 11598 1001 00       		.byte	0
 11599 1002 00       		.byte	0
 11600 1003 00       		.byte	0
 11601 1004 00       		.byte	0
 11602 1005 00       		.byte	0
 11603 1006 00       		.byte	0
ARM GAS  c:\Users\lenovo\AppData\Local\Temp\cc7gPbIA.s 			page 224


 11604 1007 00       		.byte	0
 11605 1008 00       		.byte	0
 11606 1009 00       		.byte	0
 11607 100a 00       		.byte	0
 11608 100b 00       		.byte	0
 11609 100c 03       		.byte	3
 11610 100d E0       		.byte	-32
 11611 100e 06       		.byte	6
 11612 100f 10       		.byte	16
 11613 1010 0C       		.byte	12
 11614 1011 08       		.byte	8
 11615 1012 18       		.byte	24
 11616 1013 04       		.byte	4
 11617 1014 30       		.byte	48
 11618 1015 D4       		.byte	-44
 11619 1016 31       		.byte	49
 11620 1017 B2       		.byte	-78
 11621 1018 21       		.byte	33
 11622 1019 32       		.byte	50
 11623 101a 63       		.byte	99
 11624 101b 32       		.byte	50
 11625 101c 63       		.byte	99
 11626 101d 22       		.byte	34
 11627 101e 66       		.byte	102
 11628 101f 22       		.byte	34
 11629 1020 66       		.byte	102
 11630 1021 22       		.byte	34
 11631 1022 66       		.byte	102
 11632 1023 22       		.byte	34
 11633 1024 66       		.byte	102
 11634 1025 62       		.byte	98
 11635 1026 66       		.byte	102
 11636 1027 64       		.byte	100
 11637 1028 66       		.byte	102
 11638 1029 64       		.byte	100
 11639 102a 26       		.byte	38
 11640 102b E8       		.byte	-24
 11641 102c 33       		.byte	51
 11642 102d 30       		.byte	48
 11643 102e 30       		.byte	48
 11644 102f 02       		.byte	2
 11645 1030 10       		.byte	16
 11646 1031 04       		.byte	4
 11647 1032 18       		.byte	24
 11648 1033 0C       		.byte	12
 11649 1034 0C       		.byte	12
 11650 1035 18       		.byte	24
 11651 1036 03       		.byte	3
 11652 1037 E0       		.byte	-32
 11653 1038 00       		.byte	0
 11654 1039 00       		.byte	0
 11655 103a 00       		.byte	0
 11656 103b 00       		.byte	0
 11657 103c 00       		.byte	0
 11658 103d 00       		.byte	0
 11659 103e 00       		.byte	0
 11660 103f 00       		.byte	0
ARM GAS  c:\Users\lenovo\AppData\Local\Temp\cc7gPbIA.s 			page 225


 11661 1040 00000000 		.space	64
 11661      00000000 
 11661      00000000 
 11661      00000000 
 11661      00000000 
 11662 1080 00       		.byte	0
 11663 1081 00       		.byte	0
 11664 1082 00       		.byte	0
 11665 1083 00       		.byte	0
 11666 1084 00       		.byte	0
 11667 1085 00       		.byte	0
 11668 1086 00       		.byte	0
 11669 1087 00       		.byte	0
 11670 1088 00       		.byte	0
 11671 1089 00       		.byte	0
 11672 108a 00       		.byte	0
 11673 108b 00       		.byte	0
 11674 108c 03       		.byte	3
 11675 108d 80       		.byte	-128
 11676 108e 03       		.byte	3
 11677 108f 80       		.byte	-128
 11678 1090 03       		.byte	3
 11679 1091 80       		.byte	-128
 11680 1092 03       		.byte	3
 11681 1093 80       		.byte	-128
 11682 1094 04       		.byte	4
 11683 1095 C0       		.byte	-64
 11684 1096 04       		.byte	4
 11685 1097 C0       		.byte	-64
 11686 1098 04       		.byte	4
 11687 1099 C0       		.byte	-64
 11688 109a 04       		.byte	4
 11689 109b C0       		.byte	-64
 11690 109c 0C       		.byte	12
 11691 109d 40       		.byte	64
 11692 109e 08       		.byte	8
 11693 109f 60       		.byte	96
 11694 10a0 08       		.byte	8
 11695 10a1 60       		.byte	96
 11696 10a2 08       		.byte	8
 11697 10a3 60       		.byte	96
 11698 10a4 08       		.byte	8
 11699 10a5 20       		.byte	32
 11700 10a6 1F       		.byte	31
 11701 10a7 F0       		.byte	-16
 11702 10a8 10       		.byte	16
 11703 10a9 30       		.byte	48
 11704 10aa 10       		.byte	16
 11705 10ab 30       		.byte	48
 11706 10ac 10       		.byte	16
 11707 10ad 30       		.byte	48
 11708 10ae 20       		.byte	32
 11709 10af 18       		.byte	24
 11710 10b0 20       		.byte	32
 11711 10b1 18       		.byte	24
 11712 10b2 20       		.byte	32
 11713 10b3 18       		.byte	24
ARM GAS  c:\Users\lenovo\AppData\Local\Temp\cc7gPbIA.s 			page 226


 11714 10b4 60       		.byte	96
 11715 10b5 1C       		.byte	28
 11716 10b6 F8       		.byte	-8
 11717 10b7 3E       		.byte	62
 11718 10b8 00       		.byte	0
 11719 10b9 00       		.byte	0
 11720 10ba 00       		.byte	0
 11721 10bb 00       		.byte	0
 11722 10bc 00       		.byte	0
 11723 10bd 00       		.byte	0
 11724 10be 00       		.byte	0
 11725 10bf 00       		.byte	0
 11726 10c0 00000000 		.space	64
 11726      00000000 
 11726      00000000 
 11726      00000000 
 11726      00000000 
 11727 1100 00       		.byte	0
 11728 1101 00       		.byte	0
 11729 1102 00       		.byte	0
 11730 1103 00       		.byte	0
 11731 1104 00       		.byte	0
 11732 1105 00       		.byte	0
 11733 1106 00       		.byte	0
 11734 1107 00       		.byte	0
 11735 1108 00       		.byte	0
 11736 1109 00       		.byte	0
 11737 110a 00       		.byte	0
 11738 110b 00       		.byte	0
 11739 110c 7F       		.byte	127
 11740 110d E0       		.byte	-32
 11741 110e 18       		.byte	24
 11742 110f 38       		.byte	56
 11743 1110 18       		.byte	24
 11744 1111 18       		.byte	24
 11745 1112 18       		.byte	24
 11746 1113 0C       		.byte	12
 11747 1114 18       		.byte	24
 11748 1115 0C       		.byte	12
 11749 1116 18       		.byte	24
 11750 1117 0C       		.byte	12
 11751 1118 18       		.byte	24
 11752 1119 0C       		.byte	12
 11753 111a 18       		.byte	24
 11754 111b 0C       		.byte	12
 11755 111c 18       		.byte	24
 11756 111d 18       		.byte	24
 11757 111e 18       		.byte	24
 11758 111f 30       		.byte	48
 11759 1120 1F       		.byte	31
 11760 1121 E0       		.byte	-32
 11761 1122 18       		.byte	24
 11762 1123 18       		.byte	24
 11763 1124 18       		.byte	24
 11764 1125 0C       		.byte	12
 11765 1126 18       		.byte	24
 11766 1127 04       		.byte	4
ARM GAS  c:\Users\lenovo\AppData\Local\Temp\cc7gPbIA.s 			page 227


 11767 1128 18       		.byte	24
 11768 1129 06       		.byte	6
 11769 112a 18       		.byte	24
 11770 112b 06       		.byte	6
 11771 112c 18       		.byte	24
 11772 112d 06       		.byte	6
 11773 112e 18       		.byte	24
 11774 112f 06       		.byte	6
 11775 1130 18       		.byte	24
 11776 1131 06       		.byte	6
 11777 1132 18       		.byte	24
 11778 1133 0C       		.byte	12
 11779 1134 18       		.byte	24
 11780 1135 18       		.byte	24
 11781 1136 7F       		.byte	127
 11782 1137 F0       		.byte	-16
 11783 1138 00       		.byte	0
 11784 1139 00       		.byte	0
 11785 113a 00       		.byte	0
 11786 113b 00       		.byte	0
 11787 113c 00       		.byte	0
 11788 113d 00       		.byte	0
 11789 113e 00       		.byte	0
 11790 113f 00       		.byte	0
 11791 1140 00000000 		.space	64
 11791      00000000 
 11791      00000000 
 11791      00000000 
 11791      00000000 
 11792 1180 00       		.byte	0
 11793 1181 00       		.byte	0
 11794 1182 00       		.byte	0
 11795 1183 00       		.byte	0
 11796 1184 00       		.byte	0
 11797 1185 00       		.byte	0
 11798 1186 00       		.byte	0
 11799 1187 00       		.byte	0
 11800 1188 00       		.byte	0
 11801 1189 00       		.byte	0
 11802 118a 00       		.byte	0
 11803 118b 00       		.byte	0
 11804 118c 03       		.byte	3
 11805 118d E0       		.byte	-32
 11806 118e 06       		.byte	6
 11807 118f 1C       		.byte	28
 11808 1190 08       		.byte	8
 11809 1191 0C       		.byte	12
 11810 1192 18       		.byte	24
 11811 1193 06       		.byte	6
 11812 1194 30       		.byte	48
 11813 1195 02       		.byte	2
 11814 1196 30       		.byte	48
 11815 1197 02       		.byte	2
 11816 1198 30       		.byte	48
 11817 1199 00       		.byte	0
 11818 119a 60       		.byte	96
 11819 119b 00       		.byte	0
ARM GAS  c:\Users\lenovo\AppData\Local\Temp\cc7gPbIA.s 			page 228


 11820 119c 60       		.byte	96
 11821 119d 00       		.byte	0
 11822 119e 60       		.byte	96
 11823 119f 00       		.byte	0
 11824 11a0 60       		.byte	96
 11825 11a1 00       		.byte	0
 11826 11a2 60       		.byte	96
 11827 11a3 00       		.byte	0
 11828 11a4 60       		.byte	96
 11829 11a5 00       		.byte	0
 11830 11a6 60       		.byte	96
 11831 11a7 00       		.byte	0
 11832 11a8 60       		.byte	96
 11833 11a9 00       		.byte	0
 11834 11aa 60       		.byte	96
 11835 11ab 00       		.byte	0
 11836 11ac 30       		.byte	48
 11837 11ad 02       		.byte	2
 11838 11ae 30       		.byte	48
 11839 11af 02       		.byte	2
 11840 11b0 10       		.byte	16
 11841 11b1 04       		.byte	4
 11842 11b2 18       		.byte	24
 11843 11b3 08       		.byte	8
 11844 11b4 0C       		.byte	12
 11845 11b5 10       		.byte	16
 11846 11b6 03       		.byte	3
 11847 11b7 E0       		.byte	-32
 11848 11b8 00       		.byte	0
 11849 11b9 00       		.byte	0
 11850 11ba 00       		.byte	0
 11851 11bb 00       		.byte	0
 11852 11bc 00       		.byte	0
 11853 11bd 00       		.byte	0
 11854 11be 00       		.byte	0
 11855 11bf 00       		.byte	0
 11856 11c0 00000000 		.space	64
 11856      00000000 
 11856      00000000 
 11856      00000000 
 11856      00000000 
 11857 1200 00       		.byte	0
 11858 1201 00       		.byte	0
 11859 1202 00       		.byte	0
 11860 1203 00       		.byte	0
 11861 1204 00       		.byte	0
 11862 1205 00       		.byte	0
 11863 1206 00       		.byte	0
 11864 1207 00       		.byte	0
 11865 1208 00       		.byte	0
 11866 1209 00       		.byte	0
 11867 120a 00       		.byte	0
 11868 120b 00       		.byte	0
 11869 120c 7F       		.byte	127
 11870 120d C0       		.byte	-64
 11871 120e 18       		.byte	24
 11872 120f 70       		.byte	112
ARM GAS  c:\Users\lenovo\AppData\Local\Temp\cc7gPbIA.s 			page 229


 11873 1210 18       		.byte	24
 11874 1211 18       		.byte	24
 11875 1212 18       		.byte	24
 11876 1213 08       		.byte	8
 11877 1214 18       		.byte	24
 11878 1215 0C       		.byte	12
 11879 1216 18       		.byte	24
 11880 1217 0C       		.byte	12
 11881 1218 18       		.byte	24
 11882 1219 06       		.byte	6
 11883 121a 18       		.byte	24
 11884 121b 06       		.byte	6
 11885 121c 18       		.byte	24
 11886 121d 06       		.byte	6
 11887 121e 18       		.byte	24
 11888 121f 06       		.byte	6
 11889 1220 18       		.byte	24
 11890 1221 06       		.byte	6
 11891 1222 18       		.byte	24
 11892 1223 06       		.byte	6
 11893 1224 18       		.byte	24
 11894 1225 06       		.byte	6
 11895 1226 18       		.byte	24
 11896 1227 06       		.byte	6
 11897 1228 18       		.byte	24
 11898 1229 06       		.byte	6
 11899 122a 18       		.byte	24
 11900 122b 04       		.byte	4
 11901 122c 18       		.byte	24
 11902 122d 0C       		.byte	12
 11903 122e 18       		.byte	24
 11904 122f 0C       		.byte	12
 11905 1230 18       		.byte	24
 11906 1231 18       		.byte	24
 11907 1232 18       		.byte	24
 11908 1233 18       		.byte	24
 11909 1234 18       		.byte	24
 11910 1235 60       		.byte	96
 11911 1236 7F       		.byte	127
 11912 1237 C0       		.byte	-64
 11913 1238 00       		.byte	0
 11914 1239 00       		.byte	0
 11915 123a 00       		.byte	0
 11916 123b 00       		.byte	0
 11917 123c 00       		.byte	0
 11918 123d 00       		.byte	0
 11919 123e 00       		.byte	0
 11920 123f 00       		.byte	0
 11921 1240 00000000 		.space	64
 11921      00000000 
 11921      00000000 
 11921      00000000 
 11921      00000000 
 11922 1280 00       		.byte	0
 11923 1281 00       		.byte	0
 11924 1282 00       		.byte	0
 11925 1283 00       		.byte	0
ARM GAS  c:\Users\lenovo\AppData\Local\Temp\cc7gPbIA.s 			page 230


 11926 1284 00       		.byte	0
 11927 1285 00       		.byte	0
 11928 1286 00       		.byte	0
 11929 1287 00       		.byte	0
 11930 1288 00       		.byte	0
 11931 1289 00       		.byte	0
 11932 128a 00       		.byte	0
 11933 128b 00       		.byte	0
 11934 128c 7F       		.byte	127
 11935 128d FC       		.byte	-4
 11936 128e 18       		.byte	24
 11937 128f 0C       		.byte	12
 11938 1290 18       		.byte	24
 11939 1291 04       		.byte	4
 11940 1292 18       		.byte	24
 11941 1293 02       		.byte	2
 11942 1294 18       		.byte	24
 11943 1295 02       		.byte	2
 11944 1296 18       		.byte	24
 11945 1297 00       		.byte	0
 11946 1298 18       		.byte	24
 11947 1299 00       		.byte	0
 11948 129a 18       		.byte	24
 11949 129b 10       		.byte	16
 11950 129c 18       		.byte	24
 11951 129d 10       		.byte	16
 11952 129e 18       		.byte	24
 11953 129f 30       		.byte	48
 11954 12a0 1F       		.byte	31
 11955 12a1 F0       		.byte	-16
 11956 12a2 18       		.byte	24
 11957 12a3 30       		.byte	48
 11958 12a4 18       		.byte	24
 11959 12a5 10       		.byte	16
 11960 12a6 18       		.byte	24
 11961 12a7 10       		.byte	16
 11962 12a8 18       		.byte	24
 11963 12a9 00       		.byte	0
 11964 12aa 18       		.byte	24
 11965 12ab 00       		.byte	0
 11966 12ac 18       		.byte	24
 11967 12ad 00       		.byte	0
 11968 12ae 18       		.byte	24
 11969 12af 02       		.byte	2
 11970 12b0 18       		.byte	24
 11971 12b1 02       		.byte	2
 11972 12b2 18       		.byte	24
 11973 12b3 04       		.byte	4
 11974 12b4 18       		.byte	24
 11975 12b5 0C       		.byte	12
 11976 12b6 7F       		.byte	127
 11977 12b7 FC       		.byte	-4
 11978 12b8 00       		.byte	0
 11979 12b9 00       		.byte	0
 11980 12ba 00       		.byte	0
 11981 12bb 00       		.byte	0
 11982 12bc 00       		.byte	0
ARM GAS  c:\Users\lenovo\AppData\Local\Temp\cc7gPbIA.s 			page 231


 11983 12bd 00       		.byte	0
 11984 12be 00       		.byte	0
 11985 12bf 00       		.byte	0
 11986 12c0 00000000 		.space	64
 11986      00000000 
 11986      00000000 
 11986      00000000 
 11986      00000000 
 11987 1300 00       		.byte	0
 11988 1301 00       		.byte	0
 11989 1302 00       		.byte	0
 11990 1303 00       		.byte	0
 11991 1304 00       		.byte	0
 11992 1305 00       		.byte	0
 11993 1306 00       		.byte	0
 11994 1307 00       		.byte	0
 11995 1308 00       		.byte	0
 11996 1309 00       		.byte	0
 11997 130a 00       		.byte	0
 11998 130b 00       		.byte	0
 11999 130c 7F       		.byte	127
 12000 130d FC       		.byte	-4
 12001 130e 18       		.byte	24
 12002 130f 1C       		.byte	28
 12003 1310 18       		.byte	24
 12004 1311 04       		.byte	4
 12005 1312 18       		.byte	24
 12006 1313 02       		.byte	2
 12007 1314 18       		.byte	24
 12008 1315 02       		.byte	2
 12009 1316 18       		.byte	24
 12010 1317 00       		.byte	0
 12011 1318 18       		.byte	24
 12012 1319 00       		.byte	0
 12013 131a 18       		.byte	24
 12014 131b 10       		.byte	16
 12015 131c 18       		.byte	24
 12016 131d 10       		.byte	16
 12017 131e 18       		.byte	24
 12018 131f 30       		.byte	48
 12019 1320 1F       		.byte	31
 12020 1321 F0       		.byte	-16
 12021 1322 18       		.byte	24
 12022 1323 30       		.byte	48
 12023 1324 18       		.byte	24
 12024 1325 10       		.byte	16
 12025 1326 18       		.byte	24
 12026 1327 10       		.byte	16
 12027 1328 18       		.byte	24
 12028 1329 10       		.byte	16
 12029 132a 18       		.byte	24
 12030 132b 00       		.byte	0
 12031 132c 18       		.byte	24
 12032 132d 00       		.byte	0
 12033 132e 18       		.byte	24
 12034 132f 00       		.byte	0
 12035 1330 18       		.byte	24
ARM GAS  c:\Users\lenovo\AppData\Local\Temp\cc7gPbIA.s 			page 232


 12036 1331 00       		.byte	0
 12037 1332 18       		.byte	24
 12038 1333 00       		.byte	0
 12039 1334 18       		.byte	24
 12040 1335 00       		.byte	0
 12041 1336 7E       		.byte	126
 12042 1337 00       		.byte	0
 12043 1338 00       		.byte	0
 12044 1339 00       		.byte	0
 12045 133a 00       		.byte	0
 12046 133b 00       		.byte	0
 12047 133c 00       		.byte	0
 12048 133d 00       		.byte	0
 12049 133e 00       		.byte	0
 12050 133f 00       		.byte	0
 12051 1340 00000000 		.space	64
 12051      00000000 
 12051      00000000 
 12051      00000000 
 12051      00000000 
 12052 1380 00       		.byte	0
 12053 1381 00       		.byte	0
 12054 1382 00       		.byte	0
 12055 1383 00       		.byte	0
 12056 1384 00       		.byte	0
 12057 1385 00       		.byte	0
 12058 1386 00       		.byte	0
 12059 1387 00       		.byte	0
 12060 1388 00       		.byte	0
 12061 1389 00       		.byte	0
 12062 138a 00       		.byte	0
 12063 138b 00       		.byte	0
 12064 138c 03       		.byte	3
 12065 138d C0       		.byte	-64
 12066 138e 0C       		.byte	12
 12067 138f 30       		.byte	48
 12068 1390 08       		.byte	8
 12069 1391 10       		.byte	16
 12070 1392 18       		.byte	24
 12071 1393 18       		.byte	24
 12072 1394 30       		.byte	48
 12073 1395 08       		.byte	8
 12074 1396 30       		.byte	48
 12075 1397 08       		.byte	8
 12076 1398 20       		.byte	32
 12077 1399 00       		.byte	0
 12078 139a 60       		.byte	96
 12079 139b 00       		.byte	0
 12080 139c 60       		.byte	96
 12081 139d 00       		.byte	0
 12082 139e 60       		.byte	96
 12083 139f 00       		.byte	0
 12084 13a0 60       		.byte	96
 12085 13a1 00       		.byte	0
 12086 13a2 60       		.byte	96
 12087 13a3 00       		.byte	0
 12088 13a4 60       		.byte	96
ARM GAS  c:\Users\lenovo\AppData\Local\Temp\cc7gPbIA.s 			page 233


 12089 13a5 7E       		.byte	126
 12090 13a6 60       		.byte	96
 12091 13a7 18       		.byte	24
 12092 13a8 60       		.byte	96
 12093 13a9 18       		.byte	24
 12094 13aa 20       		.byte	32
 12095 13ab 18       		.byte	24
 12096 13ac 30       		.byte	48
 12097 13ad 18       		.byte	24
 12098 13ae 30       		.byte	48
 12099 13af 18       		.byte	24
 12100 13b0 10       		.byte	16
 12101 13b1 18       		.byte	24
 12102 13b2 18       		.byte	24
 12103 13b3 18       		.byte	24
 12104 13b4 0C       		.byte	12
 12105 13b5 20       		.byte	32
 12106 13b6 07       		.byte	7
 12107 13b7 C0       		.byte	-64
 12108 13b8 00       		.byte	0
 12109 13b9 00       		.byte	0
 12110 13ba 00       		.byte	0
 12111 13bb 00       		.byte	0
 12112 13bc 00       		.byte	0
 12113 13bd 00       		.byte	0
 12114 13be 00       		.byte	0
 12115 13bf 00       		.byte	0
 12116 13c0 00000000 		.space	64
 12116      00000000 
 12116      00000000 
 12116      00000000 
 12116      00000000 
 12117 1400 00       		.byte	0
 12118 1401 00       		.byte	0
 12119 1402 00       		.byte	0
 12120 1403 00       		.byte	0
 12121 1404 00       		.byte	0
 12122 1405 00       		.byte	0
 12123 1406 00       		.byte	0
 12124 1407 00       		.byte	0
 12125 1408 00       		.byte	0
 12126 1409 00       		.byte	0
 12127 140a 00       		.byte	0
 12128 140b 00       		.byte	0
 12129 140c FC       		.byte	-4
 12130 140d 3F       		.byte	63
 12131 140e 30       		.byte	48
 12132 140f 0C       		.byte	12
 12133 1410 30       		.byte	48
 12134 1411 0C       		.byte	12
 12135 1412 30       		.byte	48
 12136 1413 0C       		.byte	12
 12137 1414 30       		.byte	48
 12138 1415 0C       		.byte	12
 12139 1416 30       		.byte	48
 12140 1417 0C       		.byte	12
 12141 1418 30       		.byte	48
ARM GAS  c:\Users\lenovo\AppData\Local\Temp\cc7gPbIA.s 			page 234


 12142 1419 0C       		.byte	12
 12143 141a 30       		.byte	48
 12144 141b 0C       		.byte	12
 12145 141c 30       		.byte	48
 12146 141d 0C       		.byte	12
 12147 141e 30       		.byte	48
 12148 141f 0C       		.byte	12
 12149 1420 3F       		.byte	63
 12150 1421 FC       		.byte	-4
 12151 1422 30       		.byte	48
 12152 1423 0C       		.byte	12
 12153 1424 30       		.byte	48
 12154 1425 0C       		.byte	12
 12155 1426 30       		.byte	48
 12156 1427 0C       		.byte	12
 12157 1428 30       		.byte	48
 12158 1429 0C       		.byte	12
 12159 142a 30       		.byte	48
 12160 142b 0C       		.byte	12
 12161 142c 30       		.byte	48
 12162 142d 0C       		.byte	12
 12163 142e 30       		.byte	48
 12164 142f 0C       		.byte	12
 12165 1430 30       		.byte	48
 12166 1431 0C       		.byte	12
 12167 1432 30       		.byte	48
 12168 1433 0C       		.byte	12
 12169 1434 30       		.byte	48
 12170 1435 0C       		.byte	12
 12171 1436 FC       		.byte	-4
 12172 1437 3F       		.byte	63
 12173 1438 00       		.byte	0
 12174 1439 00       		.byte	0
 12175 143a 00       		.byte	0
 12176 143b 00       		.byte	0
 12177 143c 00       		.byte	0
 12178 143d 00       		.byte	0
 12179 143e 00       		.byte	0
 12180 143f 00       		.byte	0
 12181 1440 00000000 		.space	64
 12181      00000000 
 12181      00000000 
 12181      00000000 
 12181      00000000 
 12182 1480 00       		.byte	0
 12183 1481 00       		.byte	0
 12184 1482 00       		.byte	0
 12185 1483 00       		.byte	0
 12186 1484 00       		.byte	0
 12187 1485 00       		.byte	0
 12188 1486 00       		.byte	0
 12189 1487 00       		.byte	0
 12190 1488 00       		.byte	0
 12191 1489 00       		.byte	0
 12192 148a 00       		.byte	0
 12193 148b 00       		.byte	0
 12194 148c 1F       		.byte	31
ARM GAS  c:\Users\lenovo\AppData\Local\Temp\cc7gPbIA.s 			page 235


 12195 148d F8       		.byte	-8
 12196 148e 01       		.byte	1
 12197 148f 80       		.byte	-128
 12198 1490 01       		.byte	1
 12199 1491 80       		.byte	-128
 12200 1492 01       		.byte	1
 12201 1493 80       		.byte	-128
 12202 1494 01       		.byte	1
 12203 1495 80       		.byte	-128
 12204 1496 01       		.byte	1
 12205 1497 80       		.byte	-128
 12206 1498 01       		.byte	1
 12207 1499 80       		.byte	-128
 12208 149a 01       		.byte	1
 12209 149b 80       		.byte	-128
 12210 149c 01       		.byte	1
 12211 149d 80       		.byte	-128
 12212 149e 01       		.byte	1
 12213 149f 80       		.byte	-128
 12214 14a0 01       		.byte	1
 12215 14a1 80       		.byte	-128
 12216 14a2 01       		.byte	1
 12217 14a3 80       		.byte	-128
 12218 14a4 01       		.byte	1
 12219 14a5 80       		.byte	-128
 12220 14a6 01       		.byte	1
 12221 14a7 80       		.byte	-128
 12222 14a8 01       		.byte	1
 12223 14a9 80       		.byte	-128
 12224 14aa 01       		.byte	1
 12225 14ab 80       		.byte	-128
 12226 14ac 01       		.byte	1
 12227 14ad 80       		.byte	-128
 12228 14ae 01       		.byte	1
 12229 14af 80       		.byte	-128
 12230 14b0 01       		.byte	1
 12231 14b1 80       		.byte	-128
 12232 14b2 01       		.byte	1
 12233 14b3 80       		.byte	-128
 12234 14b4 01       		.byte	1
 12235 14b5 80       		.byte	-128
 12236 14b6 1F       		.byte	31
 12237 14b7 F8       		.byte	-8
 12238 14b8 00       		.byte	0
 12239 14b9 00       		.byte	0
 12240 14ba 00       		.byte	0
 12241 14bb 00       		.byte	0
 12242 14bc 00       		.byte	0
 12243 14bd 00       		.byte	0
 12244 14be 00       		.byte	0
 12245 14bf 00       		.byte	0
 12246 14c0 00000000 		.space	64
 12246      00000000 
 12246      00000000 
 12246      00000000 
 12246      00000000 
 12247 1500 00       		.byte	0
ARM GAS  c:\Users\lenovo\AppData\Local\Temp\cc7gPbIA.s 			page 236


 12248 1501 00       		.byte	0
 12249 1502 00       		.byte	0
 12250 1503 00       		.byte	0
 12251 1504 00       		.byte	0
 12252 1505 00       		.byte	0
 12253 1506 00       		.byte	0
 12254 1507 00       		.byte	0
 12255 1508 00       		.byte	0
 12256 1509 00       		.byte	0
 12257 150a 00       		.byte	0
 12258 150b 00       		.byte	0
 12259 150c 07       		.byte	7
 12260 150d FE       		.byte	-2
 12261 150e 00       		.byte	0
 12262 150f 60       		.byte	96
 12263 1510 00       		.byte	0
 12264 1511 60       		.byte	96
 12265 1512 00       		.byte	0
 12266 1513 60       		.byte	96
 12267 1514 00       		.byte	0
 12268 1515 60       		.byte	96
 12269 1516 00       		.byte	0
 12270 1517 60       		.byte	96
 12271 1518 00       		.byte	0
 12272 1519 60       		.byte	96
 12273 151a 00       		.byte	0
 12274 151b 60       		.byte	96
 12275 151c 00       		.byte	0
 12276 151d 60       		.byte	96
 12277 151e 00       		.byte	0
 12278 151f 60       		.byte	96
 12279 1520 00       		.byte	0
 12280 1521 60       		.byte	96
 12281 1522 00       		.byte	0
 12282 1523 60       		.byte	96
 12283 1524 00       		.byte	0
 12284 1525 60       		.byte	96
 12285 1526 00       		.byte	0
 12286 1527 60       		.byte	96
 12287 1528 00       		.byte	0
 12288 1529 60       		.byte	96
 12289 152a 00       		.byte	0
 12290 152b 60       		.byte	96
 12291 152c 00       		.byte	0
 12292 152d 60       		.byte	96
 12293 152e 00       		.byte	0
 12294 152f 60       		.byte	96
 12295 1530 00       		.byte	0
 12296 1531 60       		.byte	96
 12297 1532 00       		.byte	0
 12298 1533 60       		.byte	96
 12299 1534 00       		.byte	0
 12300 1535 60       		.byte	96
 12301 1536 00       		.byte	0
 12302 1537 60       		.byte	96
 12303 1538 70       		.byte	112
 12304 1539 60       		.byte	96
ARM GAS  c:\Users\lenovo\AppData\Local\Temp\cc7gPbIA.s 			page 237


 12305 153a 70       		.byte	112
 12306 153b C0       		.byte	-64
 12307 153c 71       		.byte	113
 12308 153d 80       		.byte	-128
 12309 153e 3F       		.byte	63
 12310 153f 00       		.byte	0
 12311 1540 00000000 		.space	64
 12311      00000000 
 12311      00000000 
 12311      00000000 
 12311      00000000 
 12312 1580 00       		.byte	0
 12313 1581 00       		.byte	0
 12314 1582 00       		.byte	0
 12315 1583 00       		.byte	0
 12316 1584 00       		.byte	0
 12317 1585 00       		.byte	0
 12318 1586 00       		.byte	0
 12319 1587 00       		.byte	0
 12320 1588 00       		.byte	0
 12321 1589 00       		.byte	0
 12322 158a 00       		.byte	0
 12323 158b 00       		.byte	0
 12324 158c 7E       		.byte	126
 12325 158d 7C       		.byte	124
 12326 158e 18       		.byte	24
 12327 158f 30       		.byte	48
 12328 1590 18       		.byte	24
 12329 1591 20       		.byte	32
 12330 1592 18       		.byte	24
 12331 1593 60       		.byte	96
 12332 1594 18       		.byte	24
 12333 1595 40       		.byte	64
 12334 1596 18       		.byte	24
 12335 1597 80       		.byte	-128
 12336 1598 18       		.byte	24
 12337 1599 80       		.byte	-128
 12338 159a 19       		.byte	25
 12339 159b 00       		.byte	0
 12340 159c 19       		.byte	25
 12341 159d 00       		.byte	0
 12342 159e 1B       		.byte	27
 12343 159f 00       		.byte	0
 12344 15a0 1D       		.byte	29
 12345 15a1 80       		.byte	-128
 12346 15a2 1D       		.byte	29
 12347 15a3 80       		.byte	-128
 12348 15a4 18       		.byte	24
 12349 15a5 C0       		.byte	-64
 12350 15a6 18       		.byte	24
 12351 15a7 C0       		.byte	-64
 12352 15a8 18       		.byte	24
 12353 15a9 60       		.byte	96
 12354 15aa 18       		.byte	24
 12355 15ab 60       		.byte	96
 12356 15ac 18       		.byte	24
 12357 15ad 30       		.byte	48
ARM GAS  c:\Users\lenovo\AppData\Local\Temp\cc7gPbIA.s 			page 238


 12358 15ae 18       		.byte	24
 12359 15af 30       		.byte	48
 12360 15b0 18       		.byte	24
 12361 15b1 30       		.byte	48
 12362 15b2 18       		.byte	24
 12363 15b3 18       		.byte	24
 12364 15b4 18       		.byte	24
 12365 15b5 18       		.byte	24
 12366 15b6 7E       		.byte	126
 12367 15b7 3E       		.byte	62
 12368 15b8 00       		.byte	0
 12369 15b9 00       		.byte	0
 12370 15ba 00       		.byte	0
 12371 15bb 00       		.byte	0
 12372 15bc 00       		.byte	0
 12373 15bd 00       		.byte	0
 12374 15be 00       		.byte	0
 12375 15bf 00       		.byte	0
 12376 15c0 00000000 		.space	64
 12376      00000000 
 12376      00000000 
 12376      00000000 
 12376      00000000 
 12377 1600 00       		.byte	0
 12378 1601 00       		.byte	0
 12379 1602 00       		.byte	0
 12380 1603 00       		.byte	0
 12381 1604 00       		.byte	0
 12382 1605 00       		.byte	0
 12383 1606 00       		.byte	0
 12384 1607 00       		.byte	0
 12385 1608 00       		.byte	0
 12386 1609 00       		.byte	0
 12387 160a 00       		.byte	0
 12388 160b 00       		.byte	0
 12389 160c 7E       		.byte	126
 12390 160d 00       		.byte	0
 12391 160e 18       		.byte	24
 12392 160f 00       		.byte	0
 12393 1610 18       		.byte	24
 12394 1611 00       		.byte	0
 12395 1612 18       		.byte	24
 12396 1613 00       		.byte	0
 12397 1614 18       		.byte	24
 12398 1615 00       		.byte	0
 12399 1616 18       		.byte	24
 12400 1617 00       		.byte	0
 12401 1618 18       		.byte	24
 12402 1619 00       		.byte	0
 12403 161a 18       		.byte	24
 12404 161b 00       		.byte	0
 12405 161c 18       		.byte	24
 12406 161d 00       		.byte	0
 12407 161e 18       		.byte	24
 12408 161f 00       		.byte	0
 12409 1620 18       		.byte	24
 12410 1621 00       		.byte	0
ARM GAS  c:\Users\lenovo\AppData\Local\Temp\cc7gPbIA.s 			page 239


 12411 1622 18       		.byte	24
 12412 1623 00       		.byte	0
 12413 1624 18       		.byte	24
 12414 1625 00       		.byte	0
 12415 1626 18       		.byte	24
 12416 1627 00       		.byte	0
 12417 1628 18       		.byte	24
 12418 1629 00       		.byte	0
 12419 162a 18       		.byte	24
 12420 162b 00       		.byte	0
 12421 162c 18       		.byte	24
 12422 162d 00       		.byte	0
 12423 162e 18       		.byte	24
 12424 162f 02       		.byte	2
 12425 1630 18       		.byte	24
 12426 1631 02       		.byte	2
 12427 1632 18       		.byte	24
 12428 1633 04       		.byte	4
 12429 1634 18       		.byte	24
 12430 1635 0C       		.byte	12
 12431 1636 7F       		.byte	127
 12432 1637 FC       		.byte	-4
 12433 1638 00       		.byte	0
 12434 1639 00       		.byte	0
 12435 163a 00       		.byte	0
 12436 163b 00       		.byte	0
 12437 163c 00       		.byte	0
 12438 163d 00       		.byte	0
 12439 163e 00       		.byte	0
 12440 163f 00       		.byte	0
 12441 1640 00000000 		.space	64
 12441      00000000 
 12441      00000000 
 12441      00000000 
 12441      00000000 
 12442 1680 00       		.byte	0
 12443 1681 00       		.byte	0
 12444 1682 00       		.byte	0
 12445 1683 00       		.byte	0
 12446 1684 00       		.byte	0
 12447 1685 00       		.byte	0
 12448 1686 00       		.byte	0
 12449 1687 00       		.byte	0
 12450 1688 00       		.byte	0
 12451 1689 00       		.byte	0
 12452 168a 00       		.byte	0
 12453 168b 00       		.byte	0
 12454 168c F0       		.byte	-16
 12455 168d 0F       		.byte	15
 12456 168e 38       		.byte	56
 12457 168f 1C       		.byte	28
 12458 1690 38       		.byte	56
 12459 1691 1C       		.byte	28
 12460 1692 38       		.byte	56
 12461 1693 1C       		.byte	28
 12462 1694 38       		.byte	56
 12463 1695 1C       		.byte	28
ARM GAS  c:\Users\lenovo\AppData\Local\Temp\cc7gPbIA.s 			page 240


 12464 1696 38       		.byte	56
 12465 1697 2C       		.byte	44
 12466 1698 2C       		.byte	44
 12467 1699 2C       		.byte	44
 12468 169a 2C       		.byte	44
 12469 169b 2C       		.byte	44
 12470 169c 2C       		.byte	44
 12471 169d 2C       		.byte	44
 12472 169e 2C       		.byte	44
 12473 169f 4C       		.byte	76
 12474 16a0 2C       		.byte	44
 12475 16a1 4C       		.byte	76
 12476 16a2 26       		.byte	38
 12477 16a3 4C       		.byte	76
 12478 16a4 26       		.byte	38
 12479 16a5 4C       		.byte	76
 12480 16a6 26       		.byte	38
 12481 16a7 4C       		.byte	76
 12482 16a8 26       		.byte	38
 12483 16a9 8C       		.byte	-116
 12484 16aa 22       		.byte	34
 12485 16ab 8C       		.byte	-116
 12486 16ac 23       		.byte	35
 12487 16ad 8C       		.byte	-116
 12488 16ae 23       		.byte	35
 12489 16af 8C       		.byte	-116
 12490 16b0 23       		.byte	35
 12491 16b1 0C       		.byte	12
 12492 16b2 23       		.byte	35
 12493 16b3 0C       		.byte	12
 12494 16b4 21       		.byte	33
 12495 16b5 0C       		.byte	12
 12496 16b6 F1       		.byte	-15
 12497 16b7 3F       		.byte	63
 12498 16b8 00       		.byte	0
 12499 16b9 00       		.byte	0
 12500 16ba 00       		.byte	0
 12501 16bb 00       		.byte	0
 12502 16bc 00       		.byte	0
 12503 16bd 00       		.byte	0
 12504 16be 00       		.byte	0
 12505 16bf 00       		.byte	0
 12506 16c0 00000000 		.space	64
 12506      00000000 
 12506      00000000 
 12506      00000000 
 12506      00000000 
 12507 1700 00       		.byte	0
 12508 1701 00       		.byte	0
 12509 1702 00       		.byte	0
 12510 1703 00       		.byte	0
 12511 1704 00       		.byte	0
 12512 1705 00       		.byte	0
 12513 1706 00       		.byte	0
 12514 1707 00       		.byte	0
 12515 1708 00       		.byte	0
 12516 1709 00       		.byte	0
ARM GAS  c:\Users\lenovo\AppData\Local\Temp\cc7gPbIA.s 			page 241


 12517 170a 00       		.byte	0
 12518 170b 00       		.byte	0
 12519 170c F0       		.byte	-16
 12520 170d 1F       		.byte	31
 12521 170e 38       		.byte	56
 12522 170f 04       		.byte	4
 12523 1710 38       		.byte	56
 12524 1711 04       		.byte	4
 12525 1712 2C       		.byte	44
 12526 1713 04       		.byte	4
 12527 1714 2C       		.byte	44
 12528 1715 04       		.byte	4
 12529 1716 26       		.byte	38
 12530 1717 04       		.byte	4
 12531 1718 26       		.byte	38
 12532 1719 04       		.byte	4
 12533 171a 23       		.byte	35
 12534 171b 04       		.byte	4
 12535 171c 23       		.byte	35
 12536 171d 04       		.byte	4
 12537 171e 21       		.byte	33
 12538 171f 84       		.byte	-124
 12539 1720 21       		.byte	33
 12540 1721 84       		.byte	-124
 12541 1722 20       		.byte	32
 12542 1723 C4       		.byte	-60
 12543 1724 20       		.byte	32
 12544 1725 C4       		.byte	-60
 12545 1726 20       		.byte	32
 12546 1727 64       		.byte	100
 12547 1728 20       		.byte	32
 12548 1729 64       		.byte	100
 12549 172a 20       		.byte	32
 12550 172b 34       		.byte	52
 12551 172c 20       		.byte	32
 12552 172d 34       		.byte	52
 12553 172e 20       		.byte	32
 12554 172f 1C       		.byte	28
 12555 1730 20       		.byte	32
 12556 1731 1C       		.byte	28
 12557 1732 20       		.byte	32
 12558 1733 0C       		.byte	12
 12559 1734 20       		.byte	32
 12560 1735 0C       		.byte	12
 12561 1736 F8       		.byte	-8
 12562 1737 04       		.byte	4
 12563 1738 00       		.byte	0
 12564 1739 00       		.byte	0
 12565 173a 00       		.byte	0
 12566 173b 00       		.byte	0
 12567 173c 00       		.byte	0
 12568 173d 00       		.byte	0
 12569 173e 00       		.byte	0
 12570 173f 00       		.byte	0
 12571 1740 00000000 		.space	64
 12571      00000000 
 12571      00000000 
ARM GAS  c:\Users\lenovo\AppData\Local\Temp\cc7gPbIA.s 			page 242


 12571      00000000 
 12571      00000000 
 12572 1780 00       		.byte	0
 12573 1781 00       		.byte	0
 12574 1782 00       		.byte	0
 12575 1783 00       		.byte	0
 12576 1784 00       		.byte	0
 12577 1785 00       		.byte	0
 12578 1786 00       		.byte	0
 12579 1787 00       		.byte	0
 12580 1788 00       		.byte	0
 12581 1789 00       		.byte	0
 12582 178a 00       		.byte	0
 12583 178b 00       		.byte	0
 12584 178c 03       		.byte	3
 12585 178d C0       		.byte	-64
 12586 178e 0C       		.byte	12
 12587 178f 30       		.byte	48
 12588 1790 18       		.byte	24
 12589 1791 18       		.byte	24
 12590 1792 10       		.byte	16
 12591 1793 08       		.byte	8
 12592 1794 30       		.byte	48
 12593 1795 0C       		.byte	12
 12594 1796 30       		.byte	48
 12595 1797 0C       		.byte	12
 12596 1798 60       		.byte	96
 12597 1799 04       		.byte	4
 12598 179a 60       		.byte	96
 12599 179b 06       		.byte	6
 12600 179c 60       		.byte	96
 12601 179d 06       		.byte	6
 12602 179e 60       		.byte	96
 12603 179f 06       		.byte	6
 12604 17a0 60       		.byte	96
 12605 17a1 06       		.byte	6
 12606 17a2 60       		.byte	96
 12607 17a3 06       		.byte	6
 12608 17a4 60       		.byte	96
 12609 17a5 06       		.byte	6
 12610 17a6 60       		.byte	96
 12611 17a7 06       		.byte	6
 12612 17a8 60       		.byte	96
 12613 17a9 06       		.byte	6
 12614 17aa 20       		.byte	32
 12615 17ab 06       		.byte	6
 12616 17ac 30       		.byte	48
 12617 17ad 0C       		.byte	12
 12618 17ae 30       		.byte	48
 12619 17af 0C       		.byte	12
 12620 17b0 10       		.byte	16
 12621 17b1 08       		.byte	8
 12622 17b2 18       		.byte	24
 12623 17b3 18       		.byte	24
 12624 17b4 0C       		.byte	12
 12625 17b5 30       		.byte	48
 12626 17b6 03       		.byte	3
ARM GAS  c:\Users\lenovo\AppData\Local\Temp\cc7gPbIA.s 			page 243


 12627 17b7 C0       		.byte	-64
 12628 17b8 00       		.byte	0
 12629 17b9 00       		.byte	0
 12630 17ba 00       		.byte	0
 12631 17bb 00       		.byte	0
 12632 17bc 00       		.byte	0
 12633 17bd 00       		.byte	0
 12634 17be 00       		.byte	0
 12635 17bf 00       		.byte	0
 12636 17c0 00000000 		.space	64
 12636      00000000 
 12636      00000000 
 12636      00000000 
 12636      00000000 
 12637 1800 00       		.byte	0
 12638 1801 00       		.byte	0
 12639 1802 00       		.byte	0
 12640 1803 00       		.byte	0
 12641 1804 00       		.byte	0
 12642 1805 00       		.byte	0
 12643 1806 00       		.byte	0
 12644 1807 00       		.byte	0
 12645 1808 00       		.byte	0
 12646 1809 00       		.byte	0
 12647 180a 00       		.byte	0
 12648 180b 00       		.byte	0
 12649 180c 7F       		.byte	127
 12650 180d F0       		.byte	-16
 12651 180e 18       		.byte	24
 12652 180f 18       		.byte	24
 12653 1810 18       		.byte	24
 12654 1811 0C       		.byte	12
 12655 1812 18       		.byte	24
 12656 1813 06       		.byte	6
 12657 1814 18       		.byte	24
 12658 1815 06       		.byte	6
 12659 1816 18       		.byte	24
 12660 1817 06       		.byte	6
 12661 1818 18       		.byte	24
 12662 1819 06       		.byte	6
 12663 181a 18       		.byte	24
 12664 181b 06       		.byte	6
 12665 181c 18       		.byte	24
 12666 181d 06       		.byte	6
 12667 181e 18       		.byte	24
 12668 181f 0C       		.byte	12
 12669 1820 18       		.byte	24
 12670 1821 18       		.byte	24
 12671 1822 1F       		.byte	31
 12672 1823 E0       		.byte	-32
 12673 1824 18       		.byte	24
 12674 1825 00       		.byte	0
 12675 1826 18       		.byte	24
 12676 1827 00       		.byte	0
 12677 1828 18       		.byte	24
 12678 1829 00       		.byte	0
 12679 182a 18       		.byte	24
ARM GAS  c:\Users\lenovo\AppData\Local\Temp\cc7gPbIA.s 			page 244


 12680 182b 00       		.byte	0
 12681 182c 18       		.byte	24
 12682 182d 00       		.byte	0
 12683 182e 18       		.byte	24
 12684 182f 00       		.byte	0
 12685 1830 18       		.byte	24
 12686 1831 00       		.byte	0
 12687 1832 18       		.byte	24
 12688 1833 00       		.byte	0
 12689 1834 18       		.byte	24
 12690 1835 00       		.byte	0
 12691 1836 7E       		.byte	126
 12692 1837 00       		.byte	0
 12693 1838 00       		.byte	0
 12694 1839 00       		.byte	0
 12695 183a 00       		.byte	0
 12696 183b 00       		.byte	0
 12697 183c 00       		.byte	0
 12698 183d 00       		.byte	0
 12699 183e 00       		.byte	0
 12700 183f 00       		.byte	0
 12701 1840 00000000 		.space	64
 12701      00000000 
 12701      00000000 
 12701      00000000 
 12701      00000000 
 12702 1880 00       		.byte	0
 12703 1881 00       		.byte	0
 12704 1882 00       		.byte	0
 12705 1883 00       		.byte	0
 12706 1884 00       		.byte	0
 12707 1885 00       		.byte	0
 12708 1886 00       		.byte	0
 12709 1887 00       		.byte	0
 12710 1888 00       		.byte	0
 12711 1889 00       		.byte	0
 12712 188a 00       		.byte	0
 12713 188b 00       		.byte	0
 12714 188c 03       		.byte	3
 12715 188d C0       		.byte	-64
 12716 188e 0C       		.byte	12
 12717 188f 30       		.byte	48
 12718 1890 18       		.byte	24
 12719 1891 18       		.byte	24
 12720 1892 10       		.byte	16
 12721 1893 08       		.byte	8
 12722 1894 30       		.byte	48
 12723 1895 0C       		.byte	12
 12724 1896 30       		.byte	48
 12725 1897 0C       		.byte	12
 12726 1898 60       		.byte	96
 12727 1899 06       		.byte	6
 12728 189a 60       		.byte	96
 12729 189b 06       		.byte	6
 12730 189c 60       		.byte	96
 12731 189d 06       		.byte	6
 12732 189e 60       		.byte	96
ARM GAS  c:\Users\lenovo\AppData\Local\Temp\cc7gPbIA.s 			page 245


 12733 189f 06       		.byte	6
 12734 18a0 60       		.byte	96
 12735 18a1 06       		.byte	6
 12736 18a2 60       		.byte	96
 12737 18a3 06       		.byte	6
 12738 18a4 60       		.byte	96
 12739 18a5 06       		.byte	6
 12740 18a6 60       		.byte	96
 12741 18a7 06       		.byte	6
 12742 18a8 60       		.byte	96
 12743 18a9 06       		.byte	6
 12744 18aa 60       		.byte	96
 12745 18ab 06       		.byte	6
 12746 18ac 27       		.byte	39
 12747 18ad 84       		.byte	-124
 12748 18ae 38       		.byte	56
 12749 18af CC       		.byte	-52
 12750 18b0 38       		.byte	56
 12751 18b1 6C       		.byte	108
 12752 18b2 18       		.byte	24
 12753 18b3 78       		.byte	120
 12754 18b4 0C       		.byte	12
 12755 18b5 70       		.byte	112
 12756 18b6 03       		.byte	3
 12757 18b7 E0       		.byte	-32
 12758 18b8 00       		.byte	0
 12759 18b9 32       		.byte	50
 12760 18ba 00       		.byte	0
 12761 18bb 3C       		.byte	60
 12762 18bc 00       		.byte	0
 12763 18bd 1C       		.byte	28
 12764 18be 00       		.byte	0
 12765 18bf 00       		.byte	0
 12766 18c0 00000000 		.space	64
 12766      00000000 
 12766      00000000 
 12766      00000000 
 12766      00000000 
 12767 1900 00       		.byte	0
 12768 1901 00       		.byte	0
 12769 1902 00       		.byte	0
 12770 1903 00       		.byte	0
 12771 1904 00       		.byte	0
 12772 1905 00       		.byte	0
 12773 1906 00       		.byte	0
 12774 1907 00       		.byte	0
 12775 1908 00       		.byte	0
 12776 1909 00       		.byte	0
 12777 190a 00       		.byte	0
 12778 190b 00       		.byte	0
 12779 190c 7F       		.byte	127
 12780 190d E0       		.byte	-32
 12781 190e 18       		.byte	24
 12782 190f 38       		.byte	56
 12783 1910 18       		.byte	24
 12784 1911 18       		.byte	24
 12785 1912 18       		.byte	24
ARM GAS  c:\Users\lenovo\AppData\Local\Temp\cc7gPbIA.s 			page 246


 12786 1913 0C       		.byte	12
 12787 1914 18       		.byte	24
 12788 1915 0C       		.byte	12
 12789 1916 18       		.byte	24
 12790 1917 0C       		.byte	12
 12791 1918 18       		.byte	24
 12792 1919 0C       		.byte	12
 12793 191a 18       		.byte	24
 12794 191b 0C       		.byte	12
 12795 191c 18       		.byte	24
 12796 191d 18       		.byte	24
 12797 191e 18       		.byte	24
 12798 191f 30       		.byte	48
 12799 1920 1F       		.byte	31
 12800 1921 E0       		.byte	-32
 12801 1922 18       		.byte	24
 12802 1923 C0       		.byte	-64
 12803 1924 18       		.byte	24
 12804 1925 C0       		.byte	-64
 12805 1926 18       		.byte	24
 12806 1927 60       		.byte	96
 12807 1928 18       		.byte	24
 12808 1929 60       		.byte	96
 12809 192a 18       		.byte	24
 12810 192b 60       		.byte	96
 12811 192c 18       		.byte	24
 12812 192d 30       		.byte	48
 12813 192e 18       		.byte	24
 12814 192f 30       		.byte	48
 12815 1930 18       		.byte	24
 12816 1931 30       		.byte	48
 12817 1932 18       		.byte	24
 12818 1933 18       		.byte	24
 12819 1934 18       		.byte	24
 12820 1935 18       		.byte	24
 12821 1936 7E       		.byte	126
 12822 1937 1E       		.byte	30
 12823 1938 00       		.byte	0
 12824 1939 00       		.byte	0
 12825 193a 00       		.byte	0
 12826 193b 00       		.byte	0
 12827 193c 00       		.byte	0
 12828 193d 00       		.byte	0
 12829 193e 00       		.byte	0
 12830 193f 00       		.byte	0
 12831 1940 00000000 		.space	64
 12831      00000000 
 12831      00000000 
 12831      00000000 
 12831      00000000 
 12832 1980 00       		.byte	0
 12833 1981 00       		.byte	0
 12834 1982 00       		.byte	0
 12835 1983 00       		.byte	0
 12836 1984 00       		.byte	0
 12837 1985 00       		.byte	0
 12838 1986 00       		.byte	0
ARM GAS  c:\Users\lenovo\AppData\Local\Temp\cc7gPbIA.s 			page 247


 12839 1987 00       		.byte	0
 12840 1988 00       		.byte	0
 12841 1989 00       		.byte	0
 12842 198a 00       		.byte	0
 12843 198b 00       		.byte	0
 12844 198c 0F       		.byte	15
 12845 198d C8       		.byte	-56
 12846 198e 18       		.byte	24
 12847 198f 78       		.byte	120
 12848 1990 30       		.byte	48
 12849 1991 18       		.byte	24
 12850 1992 60       		.byte	96
 12851 1993 18       		.byte	24
 12852 1994 60       		.byte	96
 12853 1995 08       		.byte	8
 12854 1996 60       		.byte	96
 12855 1997 08       		.byte	8
 12856 1998 60       		.byte	96
 12857 1999 00       		.byte	0
 12858 199a 70       		.byte	112
 12859 199b 00       		.byte	0
 12860 199c 3C       		.byte	60
 12861 199d 00       		.byte	0
 12862 199e 1F       		.byte	31
 12863 199f 00       		.byte	0
 12864 19a0 07       		.byte	7
 12865 19a1 C0       		.byte	-64
 12866 19a2 01       		.byte	1
 12867 19a3 F0       		.byte	-16
 12868 19a4 00       		.byte	0
 12869 19a5 78       		.byte	120
 12870 19a6 00       		.byte	0
 12871 19a7 18       		.byte	24
 12872 19a8 00       		.byte	0
 12873 19a9 1C       		.byte	28
 12874 19aa 40       		.byte	64
 12875 19ab 0C       		.byte	12
 12876 19ac 40       		.byte	64
 12877 19ad 0C       		.byte	12
 12878 19ae 60       		.byte	96
 12879 19af 0C       		.byte	12
 12880 19b0 20       		.byte	32
 12881 19b1 0C       		.byte	12
 12882 19b2 30       		.byte	48
 12883 19b3 18       		.byte	24
 12884 19b4 38       		.byte	56
 12885 19b5 30       		.byte	48
 12886 19b6 27       		.byte	39
 12887 19b7 E0       		.byte	-32
 12888 19b8 00       		.byte	0
 12889 19b9 00       		.byte	0
 12890 19ba 00       		.byte	0
 12891 19bb 00       		.byte	0
 12892 19bc 00       		.byte	0
 12893 19bd 00       		.byte	0
 12894 19be 00       		.byte	0
 12895 19bf 00       		.byte	0
ARM GAS  c:\Users\lenovo\AppData\Local\Temp\cc7gPbIA.s 			page 248


 12896 19c0 00000000 		.space	64
 12896      00000000 
 12896      00000000 
 12896      00000000 
 12896      00000000 
 12897 1a00 00       		.byte	0
 12898 1a01 00       		.byte	0
 12899 1a02 00       		.byte	0
 12900 1a03 00       		.byte	0
 12901 1a04 00       		.byte	0
 12902 1a05 00       		.byte	0
 12903 1a06 00       		.byte	0
 12904 1a07 00       		.byte	0
 12905 1a08 00       		.byte	0
 12906 1a09 00       		.byte	0
 12907 1a0a 00       		.byte	0
 12908 1a0b 00       		.byte	0
 12909 1a0c 3F       		.byte	63
 12910 1a0d FC       		.byte	-4
 12911 1a0e 31       		.byte	49
 12912 1a0f 84       		.byte	-124
 12913 1a10 21       		.byte	33
 12914 1a11 86       		.byte	-122
 12915 1a12 41       		.byte	65
 12916 1a13 82       		.byte	-126
 12917 1a14 41       		.byte	65
 12918 1a15 82       		.byte	-126
 12919 1a16 01       		.byte	1
 12920 1a17 80       		.byte	-128
 12921 1a18 01       		.byte	1
 12922 1a19 80       		.byte	-128
 12923 1a1a 01       		.byte	1
 12924 1a1b 80       		.byte	-128
 12925 1a1c 01       		.byte	1
 12926 1a1d 80       		.byte	-128
 12927 1a1e 01       		.byte	1
 12928 1a1f 80       		.byte	-128
 12929 1a20 01       		.byte	1
 12930 1a21 80       		.byte	-128
 12931 1a22 01       		.byte	1
 12932 1a23 80       		.byte	-128
 12933 1a24 01       		.byte	1
 12934 1a25 80       		.byte	-128
 12935 1a26 01       		.byte	1
 12936 1a27 80       		.byte	-128
 12937 1a28 01       		.byte	1
 12938 1a29 80       		.byte	-128
 12939 1a2a 01       		.byte	1
 12940 1a2b 80       		.byte	-128
 12941 1a2c 01       		.byte	1
 12942 1a2d 80       		.byte	-128
 12943 1a2e 01       		.byte	1
 12944 1a2f 80       		.byte	-128
 12945 1a30 01       		.byte	1
 12946 1a31 80       		.byte	-128
 12947 1a32 01       		.byte	1
 12948 1a33 80       		.byte	-128
ARM GAS  c:\Users\lenovo\AppData\Local\Temp\cc7gPbIA.s 			page 249


 12949 1a34 01       		.byte	1
 12950 1a35 80       		.byte	-128
 12951 1a36 07       		.byte	7
 12952 1a37 E0       		.byte	-32
 12953 1a38 00       		.byte	0
 12954 1a39 00       		.byte	0
 12955 1a3a 00       		.byte	0
 12956 1a3b 00       		.byte	0
 12957 1a3c 00       		.byte	0
 12958 1a3d 00       		.byte	0
 12959 1a3e 00       		.byte	0
 12960 1a3f 00       		.byte	0
 12961 1a40 00000000 		.space	64
 12961      00000000 
 12961      00000000 
 12961      00000000 
 12961      00000000 
 12962 1a80 00       		.byte	0
 12963 1a81 00       		.byte	0
 12964 1a82 00       		.byte	0
 12965 1a83 00       		.byte	0
 12966 1a84 00       		.byte	0
 12967 1a85 00       		.byte	0
 12968 1a86 00       		.byte	0
 12969 1a87 00       		.byte	0
 12970 1a88 00       		.byte	0
 12971 1a89 00       		.byte	0
 12972 1a8a 00       		.byte	0
 12973 1a8b 00       		.byte	0
 12974 1a8c FC       		.byte	-4
 12975 1a8d 3E       		.byte	62
 12976 1a8e 30       		.byte	48
 12977 1a8f 08       		.byte	8
 12978 1a90 30       		.byte	48
 12979 1a91 08       		.byte	8
 12980 1a92 30       		.byte	48
 12981 1a93 08       		.byte	8
 12982 1a94 30       		.byte	48
 12983 1a95 08       		.byte	8
 12984 1a96 30       		.byte	48
 12985 1a97 08       		.byte	8
 12986 1a98 30       		.byte	48
 12987 1a99 08       		.byte	8
 12988 1a9a 30       		.byte	48
 12989 1a9b 08       		.byte	8
 12990 1a9c 30       		.byte	48
 12991 1a9d 08       		.byte	8
 12992 1a9e 30       		.byte	48
 12993 1a9f 08       		.byte	8
 12994 1aa0 30       		.byte	48
 12995 1aa1 08       		.byte	8
 12996 1aa2 30       		.byte	48
 12997 1aa3 08       		.byte	8
 12998 1aa4 30       		.byte	48
 12999 1aa5 08       		.byte	8
 13000 1aa6 30       		.byte	48
 13001 1aa7 08       		.byte	8
ARM GAS  c:\Users\lenovo\AppData\Local\Temp\cc7gPbIA.s 			page 250


 13002 1aa8 30       		.byte	48
 13003 1aa9 08       		.byte	8
 13004 1aaa 30       		.byte	48
 13005 1aab 08       		.byte	8
 13006 1aac 30       		.byte	48
 13007 1aad 08       		.byte	8
 13008 1aae 30       		.byte	48
 13009 1aaf 08       		.byte	8
 13010 1ab0 30       		.byte	48
 13011 1ab1 08       		.byte	8
 13012 1ab2 18       		.byte	24
 13013 1ab3 10       		.byte	16
 13014 1ab4 1C       		.byte	28
 13015 1ab5 20       		.byte	32
 13016 1ab6 07       		.byte	7
 13017 1ab7 C0       		.byte	-64
 13018 1ab8 00       		.byte	0
 13019 1ab9 00       		.byte	0
 13020 1aba 00       		.byte	0
 13021 1abb 00       		.byte	0
 13022 1abc 00       		.byte	0
 13023 1abd 00       		.byte	0
 13024 1abe 00       		.byte	0
 13025 1abf 00       		.byte	0
 13026 1ac0 00000000 		.space	64
 13026      00000000 
 13026      00000000 
 13026      00000000 
 13026      00000000 
 13027 1b00 00       		.byte	0
 13028 1b01 00       		.byte	0
 13029 1b02 00       		.byte	0
 13030 1b03 00       		.byte	0
 13031 1b04 00       		.byte	0
 13032 1b05 00       		.byte	0
 13033 1b06 00       		.byte	0
 13034 1b07 00       		.byte	0
 13035 1b08 00       		.byte	0
 13036 1b09 00       		.byte	0
 13037 1b0a 00       		.byte	0
 13038 1b0b 00       		.byte	0
 13039 1b0c 7C       		.byte	124
 13040 1b0d 1E       		.byte	30
 13041 1b0e 18       		.byte	24
 13042 1b0f 0C       		.byte	12
 13043 1b10 18       		.byte	24
 13044 1b11 08       		.byte	8
 13045 1b12 18       		.byte	24
 13046 1b13 08       		.byte	8
 13047 1b14 18       		.byte	24
 13048 1b15 08       		.byte	8
 13049 1b16 0C       		.byte	12
 13050 1b17 10       		.byte	16
 13051 1b18 0C       		.byte	12
 13052 1b19 10       		.byte	16
 13053 1b1a 0C       		.byte	12
 13054 1b1b 10       		.byte	16
ARM GAS  c:\Users\lenovo\AppData\Local\Temp\cc7gPbIA.s 			page 251


 13055 1b1c 0C       		.byte	12
 13056 1b1d 10       		.byte	16
 13057 1b1e 0C       		.byte	12
 13058 1b1f 20       		.byte	32
 13059 1b20 06       		.byte	6
 13060 1b21 20       		.byte	32
 13061 1b22 06       		.byte	6
 13062 1b23 20       		.byte	32
 13063 1b24 06       		.byte	6
 13064 1b25 20       		.byte	32
 13065 1b26 06       		.byte	6
 13066 1b27 40       		.byte	64
 13067 1b28 03       		.byte	3
 13068 1b29 40       		.byte	64
 13069 1b2a 03       		.byte	3
 13070 1b2b 40       		.byte	64
 13071 1b2c 03       		.byte	3
 13072 1b2d 40       		.byte	64
 13073 1b2e 03       		.byte	3
 13074 1b2f 80       		.byte	-128
 13075 1b30 01       		.byte	1
 13076 1b31 80       		.byte	-128
 13077 1b32 01       		.byte	1
 13078 1b33 80       		.byte	-128
 13079 1b34 01       		.byte	1
 13080 1b35 00       		.byte	0
 13081 1b36 01       		.byte	1
 13082 1b37 00       		.byte	0
 13083 1b38 00       		.byte	0
 13084 1b39 00       		.byte	0
 13085 1b3a 00       		.byte	0
 13086 1b3b 00       		.byte	0
 13087 1b3c 00       		.byte	0
 13088 1b3d 00       		.byte	0
 13089 1b3e 00       		.byte	0
 13090 1b3f 00       		.byte	0
 13091 1b40 00000000 		.space	64
 13091      00000000 
 13091      00000000 
 13091      00000000 
 13091      00000000 
 13092 1b80 00       		.byte	0
 13093 1b81 00       		.byte	0
 13094 1b82 00       		.byte	0
 13095 1b83 00       		.byte	0
 13096 1b84 00       		.byte	0
 13097 1b85 00       		.byte	0
 13098 1b86 00       		.byte	0
 13099 1b87 00       		.byte	0
 13100 1b88 00       		.byte	0
 13101 1b89 00       		.byte	0
 13102 1b8a 00       		.byte	0
 13103 1b8b 00       		.byte	0
 13104 1b8c F3       		.byte	-13
 13105 1b8d CF       		.byte	-49
 13106 1b8e 61       		.byte	97
 13107 1b8f 86       		.byte	-122
ARM GAS  c:\Users\lenovo\AppData\Local\Temp\cc7gPbIA.s 			page 252


 13108 1b90 61       		.byte	97
 13109 1b91 84       		.byte	-124
 13110 1b92 21       		.byte	33
 13111 1b93 84       		.byte	-124
 13112 1b94 20       		.byte	32
 13113 1b95 84       		.byte	-124
 13114 1b96 30       		.byte	48
 13115 1b97 C4       		.byte	-60
 13116 1b98 31       		.byte	49
 13117 1b99 C4       		.byte	-60
 13118 1b9a 31       		.byte	49
 13119 1b9b C4       		.byte	-60
 13120 1b9c 31       		.byte	49
 13121 1b9d C8       		.byte	-56
 13122 1b9e 31       		.byte	49
 13123 1b9f C8       		.byte	-56
 13124 1ba0 11       		.byte	17
 13125 1ba1 C8       		.byte	-56
 13126 1ba2 12       		.byte	18
 13127 1ba3 48       		.byte	72
 13128 1ba4 1A       		.byte	26
 13129 1ba5 68       		.byte	104
 13130 1ba6 1A       		.byte	26
 13131 1ba7 68       		.byte	104
 13132 1ba8 1A       		.byte	26
 13133 1ba9 70       		.byte	112
 13134 1baa 1C       		.byte	28
 13135 1bab 70       		.byte	112
 13136 1bac 0C       		.byte	12
 13137 1bad 70       		.byte	112
 13138 1bae 0C       		.byte	12
 13139 1baf 70       		.byte	112
 13140 1bb0 0C       		.byte	12
 13141 1bb1 30       		.byte	48
 13142 1bb2 0C       		.byte	12
 13143 1bb3 20       		.byte	32
 13144 1bb4 08       		.byte	8
 13145 1bb5 20       		.byte	32
 13146 1bb6 08       		.byte	8
 13147 1bb7 20       		.byte	32
 13148 1bb8 00       		.byte	0
 13149 1bb9 00       		.byte	0
 13150 1bba 00       		.byte	0
 13151 1bbb 00       		.byte	0
 13152 1bbc 00       		.byte	0
 13153 1bbd 00       		.byte	0
 13154 1bbe 00       		.byte	0
 13155 1bbf 00       		.byte	0
 13156 1bc0 00000000 		.space	64
 13156      00000000 
 13156      00000000 
 13156      00000000 
 13156      00000000 
 13157 1c00 00       		.byte	0
 13158 1c01 00       		.byte	0
 13159 1c02 00       		.byte	0
 13160 1c03 00       		.byte	0
ARM GAS  c:\Users\lenovo\AppData\Local\Temp\cc7gPbIA.s 			page 253


 13161 1c04 00       		.byte	0
 13162 1c05 00       		.byte	0
 13163 1c06 00       		.byte	0
 13164 1c07 00       		.byte	0
 13165 1c08 00       		.byte	0
 13166 1c09 00       		.byte	0
 13167 1c0a 00       		.byte	0
 13168 1c0b 00       		.byte	0
 13169 1c0c 7C       		.byte	124
 13170 1c0d 3E       		.byte	62
 13171 1c0e 18       		.byte	24
 13172 1c0f 08       		.byte	8
 13173 1c10 18       		.byte	24
 13174 1c11 10       		.byte	16
 13175 1c12 0C       		.byte	12
 13176 1c13 10       		.byte	16
 13177 1c14 0C       		.byte	12
 13178 1c15 20       		.byte	32
 13179 1c16 06       		.byte	6
 13180 1c17 20       		.byte	32
 13181 1c18 06       		.byte	6
 13182 1c19 40       		.byte	64
 13183 1c1a 03       		.byte	3
 13184 1c1b 40       		.byte	64
 13185 1c1c 03       		.byte	3
 13186 1c1d 80       		.byte	-128
 13187 1c1e 01       		.byte	1
 13188 1c1f 80       		.byte	-128
 13189 1c20 01       		.byte	1
 13190 1c21 80       		.byte	-128
 13191 1c22 01       		.byte	1
 13192 1c23 80       		.byte	-128
 13193 1c24 01       		.byte	1
 13194 1c25 C0       		.byte	-64
 13195 1c26 02       		.byte	2
 13196 1c27 C0       		.byte	-64
 13197 1c28 02       		.byte	2
 13198 1c29 60       		.byte	96
 13199 1c2a 04       		.byte	4
 13200 1c2b 60       		.byte	96
 13201 1c2c 04       		.byte	4
 13202 1c2d 70       		.byte	112
 13203 1c2e 08       		.byte	8
 13204 1c2f 30       		.byte	48
 13205 1c30 08       		.byte	8
 13206 1c31 30       		.byte	48
 13207 1c32 18       		.byte	24
 13208 1c33 18       		.byte	24
 13209 1c34 10       		.byte	16
 13210 1c35 1C       		.byte	28
 13211 1c36 7C       		.byte	124
 13212 1c37 3E       		.byte	62
 13213 1c38 00       		.byte	0
 13214 1c39 00       		.byte	0
 13215 1c3a 00       		.byte	0
 13216 1c3b 00       		.byte	0
 13217 1c3c 00       		.byte	0
ARM GAS  c:\Users\lenovo\AppData\Local\Temp\cc7gPbIA.s 			page 254


 13218 1c3d 00       		.byte	0
 13219 1c3e 00       		.byte	0
 13220 1c3f 00       		.byte	0
 13221 1c40 00000000 		.space	64
 13221      00000000 
 13221      00000000 
 13221      00000000 
 13221      00000000 
 13222 1c80 00       		.byte	0
 13223 1c81 00       		.byte	0
 13224 1c82 00       		.byte	0
 13225 1c83 00       		.byte	0
 13226 1c84 00       		.byte	0
 13227 1c85 00       		.byte	0
 13228 1c86 00       		.byte	0
 13229 1c87 00       		.byte	0
 13230 1c88 00       		.byte	0
 13231 1c89 00       		.byte	0
 13232 1c8a 00       		.byte	0
 13233 1c8b 00       		.byte	0
 13234 1c8c 7E       		.byte	126
 13235 1c8d 3E       		.byte	62
 13236 1c8e 38       		.byte	56
 13237 1c8f 08       		.byte	8
 13238 1c90 18       		.byte	24
 13239 1c91 08       		.byte	8
 13240 1c92 18       		.byte	24
 13241 1c93 10       		.byte	16
 13242 1c94 0C       		.byte	12
 13243 1c95 10       		.byte	16
 13244 1c96 0C       		.byte	12
 13245 1c97 10       		.byte	16
 13246 1c98 0C       		.byte	12
 13247 1c99 20       		.byte	32
 13248 1c9a 06       		.byte	6
 13249 1c9b 20       		.byte	32
 13250 1c9c 06       		.byte	6
 13251 1c9d 20       		.byte	32
 13252 1c9e 03       		.byte	3
 13253 1c9f 40       		.byte	64
 13254 1ca0 03       		.byte	3
 13255 1ca1 40       		.byte	64
 13256 1ca2 03       		.byte	3
 13257 1ca3 80       		.byte	-128
 13258 1ca4 01       		.byte	1
 13259 1ca5 80       		.byte	-128
 13260 1ca6 01       		.byte	1
 13261 1ca7 80       		.byte	-128
 13262 1ca8 01       		.byte	1
 13263 1ca9 80       		.byte	-128
 13264 1caa 01       		.byte	1
 13265 1cab 80       		.byte	-128
 13266 1cac 01       		.byte	1
 13267 1cad 80       		.byte	-128
 13268 1cae 01       		.byte	1
 13269 1caf 80       		.byte	-128
 13270 1cb0 01       		.byte	1
ARM GAS  c:\Users\lenovo\AppData\Local\Temp\cc7gPbIA.s 			page 255


 13271 1cb1 80       		.byte	-128
 13272 1cb2 01       		.byte	1
 13273 1cb3 80       		.byte	-128
 13274 1cb4 01       		.byte	1
 13275 1cb5 80       		.byte	-128
 13276 1cb6 07       		.byte	7
 13277 1cb7 E0       		.byte	-32
 13278 1cb8 00       		.byte	0
 13279 1cb9 00       		.byte	0
 13280 1cba 00       		.byte	0
 13281 1cbb 00       		.byte	0
 13282 1cbc 00       		.byte	0
 13283 1cbd 00       		.byte	0
 13284 1cbe 00       		.byte	0
 13285 1cbf 00       		.byte	0
 13286 1cc0 00000000 		.space	64
 13286      00000000 
 13286      00000000 
 13286      00000000 
 13286      00000000 
 13287 1d00 00       		.byte	0
 13288 1d01 00       		.byte	0
 13289 1d02 00       		.byte	0
 13290 1d03 00       		.byte	0
 13291 1d04 00       		.byte	0
 13292 1d05 00       		.byte	0
 13293 1d06 00       		.byte	0
 13294 1d07 00       		.byte	0
 13295 1d08 00       		.byte	0
 13296 1d09 00       		.byte	0
 13297 1d0a 00       		.byte	0
 13298 1d0b 00       		.byte	0
 13299 1d0c 1F       		.byte	31
 13300 1d0d FE       		.byte	-2
 13301 1d0e 1C       		.byte	28
 13302 1d0f 0C       		.byte	12
 13303 1d10 18       		.byte	24
 13304 1d11 0C       		.byte	12
 13305 1d12 30       		.byte	48
 13306 1d13 18       		.byte	24
 13307 1d14 20       		.byte	32
 13308 1d15 18       		.byte	24
 13309 1d16 00       		.byte	0
 13310 1d17 30       		.byte	48
 13311 1d18 00       		.byte	0
 13312 1d19 60       		.byte	96
 13313 1d1a 00       		.byte	0
 13314 1d1b 60       		.byte	96
 13315 1d1c 00       		.byte	0
 13316 1d1d C0       		.byte	-64
 13317 1d1e 00       		.byte	0
 13318 1d1f C0       		.byte	-64
 13319 1d20 01       		.byte	1
 13320 1d21 80       		.byte	-128
 13321 1d22 01       		.byte	1
 13322 1d23 80       		.byte	-128
 13323 1d24 03       		.byte	3
ARM GAS  c:\Users\lenovo\AppData\Local\Temp\cc7gPbIA.s 			page 256


 13324 1d25 00       		.byte	0
 13325 1d26 03       		.byte	3
 13326 1d27 00       		.byte	0
 13327 1d28 06       		.byte	6
 13328 1d29 00       		.byte	0
 13329 1d2a 06       		.byte	6
 13330 1d2b 00       		.byte	0
 13331 1d2c 0C       		.byte	12
 13332 1d2d 00       		.byte	0
 13333 1d2e 18       		.byte	24
 13334 1d2f 02       		.byte	2
 13335 1d30 18       		.byte	24
 13336 1d31 06       		.byte	6
 13337 1d32 30       		.byte	48
 13338 1d33 04       		.byte	4
 13339 1d34 30       		.byte	48
 13340 1d35 1C       		.byte	28
 13341 1d36 7F       		.byte	127
 13342 1d37 FC       		.byte	-4
 13343 1d38 00       		.byte	0
 13344 1d39 00       		.byte	0
 13345 1d3a 00       		.byte	0
 13346 1d3b 00       		.byte	0
 13347 1d3c 00       		.byte	0
 13348 1d3d 00       		.byte	0
 13349 1d3e 00       		.byte	0
 13350 1d3f 00       		.byte	0
 13351 1d40 00000000 		.space	64
 13351      00000000 
 13351      00000000 
 13351      00000000 
 13351      00000000 
 13352 1d80 00       		.byte	0
 13353 1d81 00       		.byte	0
 13354 1d82 00       		.byte	0
 13355 1d83 00       		.byte	0
 13356 1d84 00       		.byte	0
 13357 1d85 00       		.byte	0
 13358 1d86 03       		.byte	3
 13359 1d87 FC       		.byte	-4
 13360 1d88 03       		.byte	3
 13361 1d89 00       		.byte	0
 13362 1d8a 03       		.byte	3
 13363 1d8b 00       		.byte	0
 13364 1d8c 03       		.byte	3
 13365 1d8d 00       		.byte	0
 13366 1d8e 03       		.byte	3
 13367 1d8f 00       		.byte	0
 13368 1d90 03       		.byte	3
 13369 1d91 00       		.byte	0
 13370 1d92 03       		.byte	3
 13371 1d93 00       		.byte	0
 13372 1d94 03       		.byte	3
 13373 1d95 00       		.byte	0
 13374 1d96 03       		.byte	3
 13375 1d97 00       		.byte	0
 13376 1d98 03       		.byte	3
ARM GAS  c:\Users\lenovo\AppData\Local\Temp\cc7gPbIA.s 			page 257


 13377 1d99 00       		.byte	0
 13378 1d9a 03       		.byte	3
 13379 1d9b 00       		.byte	0
 13380 1d9c 03       		.byte	3
 13381 1d9d 00       		.byte	0
 13382 1d9e 03       		.byte	3
 13383 1d9f 00       		.byte	0
 13384 1da0 03       		.byte	3
 13385 1da1 00       		.byte	0
 13386 1da2 03       		.byte	3
 13387 1da3 00       		.byte	0
 13388 1da4 03       		.byte	3
 13389 1da5 00       		.byte	0
 13390 1da6 03       		.byte	3
 13391 1da7 00       		.byte	0
 13392 1da8 03       		.byte	3
 13393 1da9 00       		.byte	0
 13394 1daa 03       		.byte	3
 13395 1dab 00       		.byte	0
 13396 1dac 03       		.byte	3
 13397 1dad 00       		.byte	0
 13398 1dae 03       		.byte	3
 13399 1daf 00       		.byte	0
 13400 1db0 03       		.byte	3
 13401 1db1 00       		.byte	0
 13402 1db2 03       		.byte	3
 13403 1db3 00       		.byte	0
 13404 1db4 03       		.byte	3
 13405 1db5 00       		.byte	0
 13406 1db6 03       		.byte	3
 13407 1db7 00       		.byte	0
 13408 1db8 03       		.byte	3
 13409 1db9 00       		.byte	0
 13410 1dba 03       		.byte	3
 13411 1dbb FC       		.byte	-4
 13412 1dbc 00       		.byte	0
 13413 1dbd 00       		.byte	0
 13414 1dbe 00       		.byte	0
 13415 1dbf 00       		.byte	0
 13416 1dc0 00000000 		.space	64
 13416      00000000 
 13416      00000000 
 13416      00000000 
 13416      00000000 
 13417 1e00 00       		.byte	0
 13418 1e01 00       		.byte	0
 13419 1e02 00       		.byte	0
 13420 1e03 00       		.byte	0
 13421 1e04 00       		.byte	0
 13422 1e05 00       		.byte	0
 13423 1e06 00       		.byte	0
 13424 1e07 00       		.byte	0
 13425 1e08 00       		.byte	0
 13426 1e09 00       		.byte	0
 13427 1e0a 18       		.byte	24
 13428 1e0b 00       		.byte	0
 13429 1e0c 18       		.byte	24
ARM GAS  c:\Users\lenovo\AppData\Local\Temp\cc7gPbIA.s 			page 258


 13430 1e0d 00       		.byte	0
 13431 1e0e 08       		.byte	8
 13432 1e0f 00       		.byte	0
 13433 1e10 0C       		.byte	12
 13434 1e11 00       		.byte	0
 13435 1e12 04       		.byte	4
 13436 1e13 00       		.byte	0
 13437 1e14 06       		.byte	6
 13438 1e15 00       		.byte	0
 13439 1e16 06       		.byte	6
 13440 1e17 00       		.byte	0
 13441 1e18 02       		.byte	2
 13442 1e19 00       		.byte	0
 13443 1e1a 03       		.byte	3
 13444 1e1b 00       		.byte	0
 13445 1e1c 01       		.byte	1
 13446 1e1d 00       		.byte	0
 13447 1e1e 01       		.byte	1
 13448 1e1f 80       		.byte	-128
 13449 1e20 01       		.byte	1
 13450 1e21 80       		.byte	-128
 13451 1e22 00       		.byte	0
 13452 1e23 80       		.byte	-128
 13453 1e24 00       		.byte	0
 13454 1e25 C0       		.byte	-64
 13455 1e26 00       		.byte	0
 13456 1e27 40       		.byte	64
 13457 1e28 00       		.byte	0
 13458 1e29 60       		.byte	96
 13459 1e2a 00       		.byte	0
 13460 1e2b 60       		.byte	96
 13461 1e2c 00       		.byte	0
 13462 1e2d 30       		.byte	48
 13463 1e2e 00       		.byte	0
 13464 1e2f 30       		.byte	48
 13465 1e30 00       		.byte	0
 13466 1e31 30       		.byte	48
 13467 1e32 00       		.byte	0
 13468 1e33 18       		.byte	24
 13469 1e34 00       		.byte	0
 13470 1e35 18       		.byte	24
 13471 1e36 00       		.byte	0
 13472 1e37 0C       		.byte	12
 13473 1e38 00       		.byte	0
 13474 1e39 0C       		.byte	12
 13475 1e3a 00       		.byte	0
 13476 1e3b 0C       		.byte	12
 13477 1e3c 00       		.byte	0
 13478 1e3d 06       		.byte	6
 13479 1e3e 00       		.byte	0
 13480 1e3f 00       		.byte	0
 13481 1e40 00000000 		.space	64
 13481      00000000 
 13481      00000000 
 13481      00000000 
 13481      00000000 
 13482 1e80 00       		.byte	0
ARM GAS  c:\Users\lenovo\AppData\Local\Temp\cc7gPbIA.s 			page 259


 13483 1e81 00       		.byte	0
 13484 1e82 00       		.byte	0
 13485 1e83 00       		.byte	0
 13486 1e84 00       		.byte	0
 13487 1e85 00       		.byte	0
 13488 1e86 3F       		.byte	63
 13489 1e87 C0       		.byte	-64
 13490 1e88 00       		.byte	0
 13491 1e89 C0       		.byte	-64
 13492 1e8a 00       		.byte	0
 13493 1e8b C0       		.byte	-64
 13494 1e8c 00       		.byte	0
 13495 1e8d C0       		.byte	-64
 13496 1e8e 00       		.byte	0
 13497 1e8f C0       		.byte	-64
 13498 1e90 00       		.byte	0
 13499 1e91 C0       		.byte	-64
 13500 1e92 00       		.byte	0
 13501 1e93 C0       		.byte	-64
 13502 1e94 00       		.byte	0
 13503 1e95 C0       		.byte	-64
 13504 1e96 00       		.byte	0
 13505 1e97 C0       		.byte	-64
 13506 1e98 00       		.byte	0
 13507 1e99 C0       		.byte	-64
 13508 1e9a 00       		.byte	0
 13509 1e9b C0       		.byte	-64
 13510 1e9c 00       		.byte	0
 13511 1e9d C0       		.byte	-64
 13512 1e9e 00       		.byte	0
 13513 1e9f C0       		.byte	-64
 13514 1ea0 00       		.byte	0
 13515 1ea1 C0       		.byte	-64
 13516 1ea2 00       		.byte	0
 13517 1ea3 C0       		.byte	-64
 13518 1ea4 00       		.byte	0
 13519 1ea5 C0       		.byte	-64
 13520 1ea6 00       		.byte	0
 13521 1ea7 C0       		.byte	-64
 13522 1ea8 00       		.byte	0
 13523 1ea9 C0       		.byte	-64
 13524 1eaa 00       		.byte	0
 13525 1eab C0       		.byte	-64
 13526 1eac 00       		.byte	0
 13527 1ead C0       		.byte	-64
 13528 1eae 00       		.byte	0
 13529 1eaf C0       		.byte	-64
 13530 1eb0 00       		.byte	0
 13531 1eb1 C0       		.byte	-64
 13532 1eb2 00       		.byte	0
 13533 1eb3 C0       		.byte	-64
 13534 1eb4 00       		.byte	0
 13535 1eb5 C0       		.byte	-64
 13536 1eb6 00       		.byte	0
 13537 1eb7 C0       		.byte	-64
 13538 1eb8 00       		.byte	0
 13539 1eb9 C0       		.byte	-64
ARM GAS  c:\Users\lenovo\AppData\Local\Temp\cc7gPbIA.s 			page 260


 13540 1eba 3F       		.byte	63
 13541 1ebb C0       		.byte	-64
 13542 1ebc 00       		.byte	0
 13543 1ebd 00       		.byte	0
 13544 1ebe 00       		.byte	0
 13545 1ebf 00       		.byte	0
 13546 1ec0 00000000 		.space	64
 13546      00000000 
 13546      00000000 
 13546      00000000 
 13546      00000000 
 13547 1f00 00       		.byte	0
 13548 1f01 00       		.byte	0
 13549 1f02 00       		.byte	0
 13550 1f03 00       		.byte	0
 13551 1f04 03       		.byte	3
 13552 1f05 C0       		.byte	-64
 13553 1f06 03       		.byte	3
 13554 1f07 E0       		.byte	-32
 13555 1f08 06       		.byte	6
 13556 1f09 20       		.byte	32
 13557 1f0a 08       		.byte	8
 13558 1f0b 10       		.byte	16
 13559 1f0c 00       		.byte	0
 13560 1f0d 00       		.byte	0
 13561 1f0e 00       		.byte	0
 13562 1f0f 00       		.byte	0
 13563 1f10 00       		.byte	0
 13564 1f11 00       		.byte	0
 13565 1f12 00       		.byte	0
 13566 1f13 00       		.byte	0
 13567 1f14 00       		.byte	0
 13568 1f15 00       		.byte	0
 13569 1f16 00       		.byte	0
 13570 1f17 00       		.byte	0
 13571 1f18 00       		.byte	0
 13572 1f19 00       		.byte	0
 13573 1f1a 00       		.byte	0
 13574 1f1b 00       		.byte	0
 13575 1f1c 00       		.byte	0
 13576 1f1d 00       		.byte	0
 13577 1f1e 00       		.byte	0
 13578 1f1f 00       		.byte	0
 13579 1f20 00       		.byte	0
 13580 1f21 00       		.byte	0
 13581 1f22 00       		.byte	0
 13582 1f23 00       		.byte	0
 13583 1f24 00       		.byte	0
 13584 1f25 00       		.byte	0
 13585 1f26 00       		.byte	0
 13586 1f27 00       		.byte	0
 13587 1f28 00       		.byte	0
 13588 1f29 00       		.byte	0
 13589 1f2a 00       		.byte	0
 13590 1f2b 00       		.byte	0
 13591 1f2c 00       		.byte	0
 13592 1f2d 00       		.byte	0
ARM GAS  c:\Users\lenovo\AppData\Local\Temp\cc7gPbIA.s 			page 261


 13593 1f2e 00       		.byte	0
 13594 1f2f 00       		.byte	0
 13595 1f30 00       		.byte	0
 13596 1f31 00       		.byte	0
 13597 1f32 00       		.byte	0
 13598 1f33 00       		.byte	0
 13599 1f34 00       		.byte	0
 13600 1f35 00       		.byte	0
 13601 1f36 00       		.byte	0
 13602 1f37 00       		.byte	0
 13603 1f38 00       		.byte	0
 13604 1f39 00       		.byte	0
 13605 1f3a 00       		.byte	0
 13606 1f3b 00       		.byte	0
 13607 1f3c 00       		.byte	0
 13608 1f3d 00       		.byte	0
 13609 1f3e 00       		.byte	0
 13610 1f3f 00       		.byte	0
 13611 1f40 00000000 		.space	64
 13611      00000000 
 13611      00000000 
 13611      00000000 
 13611      00000000 
 13612 1f80 00       		.byte	0
 13613 1f81 00       		.byte	0
 13614 1f82 00       		.byte	0
 13615 1f83 00       		.byte	0
 13616 1f84 00       		.byte	0
 13617 1f85 00       		.byte	0
 13618 1f86 00       		.byte	0
 13619 1f87 00       		.byte	0
 13620 1f88 00       		.byte	0
 13621 1f89 00       		.byte	0
 13622 1f8a 00       		.byte	0
 13623 1f8b 00       		.byte	0
 13624 1f8c 00       		.byte	0
 13625 1f8d 00       		.byte	0
 13626 1f8e 00       		.byte	0
 13627 1f8f 00       		.byte	0
 13628 1f90 00       		.byte	0
 13629 1f91 00       		.byte	0
 13630 1f92 00       		.byte	0
 13631 1f93 00       		.byte	0
 13632 1f94 00       		.byte	0
 13633 1f95 00       		.byte	0
 13634 1f96 00       		.byte	0
 13635 1f97 00       		.byte	0
 13636 1f98 00       		.byte	0
 13637 1f99 00       		.byte	0
 13638 1f9a 00       		.byte	0
 13639 1f9b 00       		.byte	0
 13640 1f9c 00       		.byte	0
 13641 1f9d 00       		.byte	0
 13642 1f9e 00       		.byte	0
 13643 1f9f 00       		.byte	0
 13644 1fa0 00       		.byte	0
 13645 1fa1 00       		.byte	0
ARM GAS  c:\Users\lenovo\AppData\Local\Temp\cc7gPbIA.s 			page 262


 13646 1fa2 00       		.byte	0
 13647 1fa3 00       		.byte	0
 13648 1fa4 00       		.byte	0
 13649 1fa5 00       		.byte	0
 13650 1fa6 00       		.byte	0
 13651 1fa7 00       		.byte	0
 13652 1fa8 00       		.byte	0
 13653 1fa9 00       		.byte	0
 13654 1faa 00       		.byte	0
 13655 1fab 00       		.byte	0
 13656 1fac 00       		.byte	0
 13657 1fad 00       		.byte	0
 13658 1fae 00       		.byte	0
 13659 1faf 00       		.byte	0
 13660 1fb0 00       		.byte	0
 13661 1fb1 00       		.byte	0
 13662 1fb2 00       		.byte	0
 13663 1fb3 00       		.byte	0
 13664 1fb4 00       		.byte	0
 13665 1fb5 00       		.byte	0
 13666 1fb6 00       		.byte	0
 13667 1fb7 00       		.byte	0
 13668 1fb8 00       		.byte	0
 13669 1fb9 00       		.byte	0
 13670 1fba 00       		.byte	0
 13671 1fbb 00       		.byte	0
 13672 1fbc 00       		.byte	0
 13673 1fbd 00       		.byte	0
 13674 1fbe FF       		.byte	-1
 13675 1fbf FF       		.byte	-1
 13676 1fc0 00000000 		.space	64
 13676      00000000 
 13676      00000000 
 13676      00000000 
 13676      00000000 
 13677 2000 00       		.byte	0
 13678 2001 00       		.byte	0
 13679 2002 00       		.byte	0
 13680 2003 00       		.byte	0
 13681 2004 1E       		.byte	30
 13682 2005 00       		.byte	0
 13683 2006 03       		.byte	3
 13684 2007 00       		.byte	0
 13685 2008 00       		.byte	0
 13686 2009 80       		.byte	-128
 13687 200a 00       		.byte	0
 13688 200b 00       		.byte	0
 13689 200c 00       		.byte	0
 13690 200d 00       		.byte	0
 13691 200e 00       		.byte	0
 13692 200f 00       		.byte	0
 13693 2010 00       		.byte	0
 13694 2011 00       		.byte	0
 13695 2012 00       		.byte	0
 13696 2013 00       		.byte	0
 13697 2014 00       		.byte	0
 13698 2015 00       		.byte	0
ARM GAS  c:\Users\lenovo\AppData\Local\Temp\cc7gPbIA.s 			page 263


 13699 2016 00       		.byte	0
 13700 2017 00       		.byte	0
 13701 2018 00       		.byte	0
 13702 2019 00       		.byte	0
 13703 201a 00       		.byte	0
 13704 201b 00       		.byte	0
 13705 201c 00       		.byte	0
 13706 201d 00       		.byte	0
 13707 201e 00       		.byte	0
 13708 201f 00       		.byte	0
 13709 2020 00       		.byte	0
 13710 2021 00       		.byte	0
 13711 2022 00       		.byte	0
 13712 2023 00       		.byte	0
 13713 2024 00       		.byte	0
 13714 2025 00       		.byte	0
 13715 2026 00       		.byte	0
 13716 2027 00       		.byte	0
 13717 2028 00       		.byte	0
 13718 2029 00       		.byte	0
 13719 202a 00       		.byte	0
 13720 202b 00       		.byte	0
 13721 202c 00       		.byte	0
 13722 202d 00       		.byte	0
 13723 202e 00       		.byte	0
 13724 202f 00       		.byte	0
 13725 2030 00       		.byte	0
 13726 2031 00       		.byte	0
 13727 2032 00       		.byte	0
 13728 2033 00       		.byte	0
 13729 2034 00       		.byte	0
 13730 2035 00       		.byte	0
 13731 2036 00       		.byte	0
 13732 2037 00       		.byte	0
 13733 2038 00       		.byte	0
 13734 2039 00       		.byte	0
 13735 203a 00       		.byte	0
 13736 203b 00       		.byte	0
 13737 203c 00       		.byte	0
 13738 203d 00       		.byte	0
 13739 203e 00       		.byte	0
 13740 203f 00       		.byte	0
 13741 2040 00000000 		.space	64
 13741      00000000 
 13741      00000000 
 13741      00000000 
 13741      00000000 
 13742 2080 00       		.byte	0
 13743 2081 00       		.byte	0
 13744 2082 00       		.byte	0
 13745 2083 00       		.byte	0
 13746 2084 00       		.byte	0
 13747 2085 00       		.byte	0
 13748 2086 00       		.byte	0
 13749 2087 00       		.byte	0
 13750 2088 00       		.byte	0
 13751 2089 00       		.byte	0
ARM GAS  c:\Users\lenovo\AppData\Local\Temp\cc7gPbIA.s 			page 264


 13752 208a 00       		.byte	0
 13753 208b 00       		.byte	0
 13754 208c 00       		.byte	0
 13755 208d 00       		.byte	0
 13756 208e 00       		.byte	0
 13757 208f 00       		.byte	0
 13758 2090 00       		.byte	0
 13759 2091 00       		.byte	0
 13760 2092 00       		.byte	0
 13761 2093 00       		.byte	0
 13762 2094 00       		.byte	0
 13763 2095 00       		.byte	0
 13764 2096 00       		.byte	0
 13765 2097 00       		.byte	0
 13766 2098 00       		.byte	0
 13767 2099 00       		.byte	0
 13768 209a 07       		.byte	7
 13769 209b E0       		.byte	-32
 13770 209c 18       		.byte	24
 13771 209d 30       		.byte	48
 13772 209e 30       		.byte	48
 13773 209f 18       		.byte	24
 13774 20a0 30       		.byte	48
 13775 20a1 18       		.byte	24
 13776 20a2 30       		.byte	48
 13777 20a3 18       		.byte	24
 13778 20a4 00       		.byte	0
 13779 20a5 38       		.byte	56
 13780 20a6 07       		.byte	7
 13781 20a7 D8       		.byte	-40
 13782 20a8 1C       		.byte	28
 13783 20a9 18       		.byte	24
 13784 20aa 30       		.byte	48
 13785 20ab 18       		.byte	24
 13786 20ac 60       		.byte	96
 13787 20ad 18       		.byte	24
 13788 20ae 60       		.byte	96
 13789 20af 18       		.byte	24
 13790 20b0 60       		.byte	96
 13791 20b1 18       		.byte	24
 13792 20b2 60       		.byte	96
 13793 20b3 19       		.byte	25
 13794 20b4 30       		.byte	48
 13795 20b5 79       		.byte	121
 13796 20b6 1F       		.byte	31
 13797 20b7 8E       		.byte	-114
 13798 20b8 00       		.byte	0
 13799 20b9 00       		.byte	0
 13800 20ba 00       		.byte	0
 13801 20bb 00       		.byte	0
 13802 20bc 00       		.byte	0
 13803 20bd 00       		.byte	0
 13804 20be 00       		.byte	0
 13805 20bf 00       		.byte	0
 13806 20c0 00000000 		.space	64
 13806      00000000 
 13806      00000000 
ARM GAS  c:\Users\lenovo\AppData\Local\Temp\cc7gPbIA.s 			page 265


 13806      00000000 
 13806      00000000 
 13807 2100 00       		.byte	0
 13808 2101 00       		.byte	0
 13809 2102 00       		.byte	0
 13810 2103 00       		.byte	0
 13811 2104 00       		.byte	0
 13812 2105 00       		.byte	0
 13813 2106 00       		.byte	0
 13814 2107 00       		.byte	0
 13815 2108 00       		.byte	0
 13816 2109 00       		.byte	0
 13817 210a 08       		.byte	8
 13818 210b 00       		.byte	0
 13819 210c 78       		.byte	120
 13820 210d 00       		.byte	0
 13821 210e 18       		.byte	24
 13822 210f 00       		.byte	0
 13823 2110 18       		.byte	24
 13824 2111 00       		.byte	0
 13825 2112 18       		.byte	24
 13826 2113 00       		.byte	0
 13827 2114 18       		.byte	24
 13828 2115 00       		.byte	0
 13829 2116 18       		.byte	24
 13830 2117 00       		.byte	0
 13831 2118 18       		.byte	24
 13832 2119 00       		.byte	0
 13833 211a 19       		.byte	25
 13834 211b E0       		.byte	-32
 13835 211c 1A       		.byte	26
 13836 211d 38       		.byte	56
 13837 211e 1C       		.byte	28
 13838 211f 18       		.byte	24
 13839 2120 1C       		.byte	28
 13840 2121 0C       		.byte	12
 13841 2122 18       		.byte	24
 13842 2123 0C       		.byte	12
 13843 2124 18       		.byte	24
 13844 2125 0C       		.byte	12
 13845 2126 18       		.byte	24
 13846 2127 0C       		.byte	12
 13847 2128 18       		.byte	24
 13848 2129 0C       		.byte	12
 13849 212a 18       		.byte	24
 13850 212b 0C       		.byte	12
 13851 212c 18       		.byte	24
 13852 212d 0C       		.byte	12
 13853 212e 18       		.byte	24
 13854 212f 0C       		.byte	12
 13855 2130 18       		.byte	24
 13856 2131 08       		.byte	8
 13857 2132 1C       		.byte	28
 13858 2133 18       		.byte	24
 13859 2134 1C       		.byte	28
 13860 2135 30       		.byte	48
 13861 2136 13       		.byte	19
ARM GAS  c:\Users\lenovo\AppData\Local\Temp\cc7gPbIA.s 			page 266


 13862 2137 E0       		.byte	-32
 13863 2138 00       		.byte	0
 13864 2139 00       		.byte	0
 13865 213a 00       		.byte	0
 13866 213b 00       		.byte	0
 13867 213c 00       		.byte	0
 13868 213d 00       		.byte	0
 13869 213e 00       		.byte	0
 13870 213f 00       		.byte	0
 13871 2140 00000000 		.space	64
 13871      00000000 
 13871      00000000 
 13871      00000000 
 13871      00000000 
 13872 2180 00       		.byte	0
 13873 2181 00       		.byte	0
 13874 2182 00       		.byte	0
 13875 2183 00       		.byte	0
 13876 2184 00       		.byte	0
 13877 2185 00       		.byte	0
 13878 2186 00       		.byte	0
 13879 2187 00       		.byte	0
 13880 2188 00       		.byte	0
 13881 2189 00       		.byte	0
 13882 218a 00       		.byte	0
 13883 218b 00       		.byte	0
 13884 218c 00       		.byte	0
 13885 218d 00       		.byte	0
 13886 218e 00       		.byte	0
 13887 218f 00       		.byte	0
 13888 2190 00       		.byte	0
 13889 2191 00       		.byte	0
 13890 2192 00       		.byte	0
 13891 2193 00       		.byte	0
 13892 2194 00       		.byte	0
 13893 2195 00       		.byte	0
 13894 2196 00       		.byte	0
 13895 2197 00       		.byte	0
 13896 2198 00       		.byte	0
 13897 2199 00       		.byte	0
 13898 219a 03       		.byte	3
 13899 219b E0       		.byte	-32
 13900 219c 0E       		.byte	14
 13901 219d 10       		.byte	16
 13902 219e 0C       		.byte	12
 13903 219f 18       		.byte	24
 13904 21a0 18       		.byte	24
 13905 21a1 18       		.byte	24
 13906 21a2 30       		.byte	48
 13907 21a3 18       		.byte	24
 13908 21a4 30       		.byte	48
 13909 21a5 00       		.byte	0
 13910 21a6 30       		.byte	48
 13911 21a7 00       		.byte	0
 13912 21a8 30       		.byte	48
 13913 21a9 00       		.byte	0
 13914 21aa 30       		.byte	48
ARM GAS  c:\Users\lenovo\AppData\Local\Temp\cc7gPbIA.s 			page 267


 13915 21ab 00       		.byte	0
 13916 21ac 30       		.byte	48
 13917 21ad 00       		.byte	0
 13918 21ae 30       		.byte	48
 13919 21af 04       		.byte	4
 13920 21b0 18       		.byte	24
 13921 21b1 04       		.byte	4
 13922 21b2 18       		.byte	24
 13923 21b3 08       		.byte	8
 13924 21b4 0C       		.byte	12
 13925 21b5 10       		.byte	16
 13926 21b6 03       		.byte	3
 13927 21b7 E0       		.byte	-32
 13928 21b8 00       		.byte	0
 13929 21b9 00       		.byte	0
 13930 21ba 00       		.byte	0
 13931 21bb 00       		.byte	0
 13932 21bc 00       		.byte	0
 13933 21bd 00       		.byte	0
 13934 21be 00       		.byte	0
 13935 21bf 00       		.byte	0
 13936 21c0 00000000 		.space	64
 13936      00000000 
 13936      00000000 
 13936      00000000 
 13936      00000000 
 13937 2200 00       		.byte	0
 13938 2201 00       		.byte	0
 13939 2202 00       		.byte	0
 13940 2203 00       		.byte	0
 13941 2204 00       		.byte	0
 13942 2205 00       		.byte	0
 13943 2206 00       		.byte	0
 13944 2207 00       		.byte	0
 13945 2208 00       		.byte	0
 13946 2209 00       		.byte	0
 13947 220a 00       		.byte	0
 13948 220b 08       		.byte	8
 13949 220c 00       		.byte	0
 13950 220d 78       		.byte	120
 13951 220e 00       		.byte	0
 13952 220f 18       		.byte	24
 13953 2210 00       		.byte	0
 13954 2211 18       		.byte	24
 13955 2212 00       		.byte	0
 13956 2213 18       		.byte	24
 13957 2214 00       		.byte	0
 13958 2215 18       		.byte	24
 13959 2216 00       		.byte	0
 13960 2217 18       		.byte	24
 13961 2218 00       		.byte	0
 13962 2219 18       		.byte	24
 13963 221a 07       		.byte	7
 13964 221b D8       		.byte	-40
 13965 221c 0C       		.byte	12
 13966 221d 38       		.byte	56
 13967 221e 18       		.byte	24
ARM GAS  c:\Users\lenovo\AppData\Local\Temp\cc7gPbIA.s 			page 268


 13968 221f 18       		.byte	24
 13969 2220 18       		.byte	24
 13970 2221 18       		.byte	24
 13971 2222 30       		.byte	48
 13972 2223 18       		.byte	24
 13973 2224 30       		.byte	48
 13974 2225 18       		.byte	24
 13975 2226 30       		.byte	48
 13976 2227 18       		.byte	24
 13977 2228 30       		.byte	48
 13978 2229 18       		.byte	24
 13979 222a 30       		.byte	48
 13980 222b 18       		.byte	24
 13981 222c 30       		.byte	48
 13982 222d 18       		.byte	24
 13983 222e 30       		.byte	48
 13984 222f 18       		.byte	24
 13985 2230 10       		.byte	16
 13986 2231 18       		.byte	24
 13987 2232 18       		.byte	24
 13988 2233 38       		.byte	56
 13989 2234 0C       		.byte	12
 13990 2235 5E       		.byte	94
 13991 2236 07       		.byte	7
 13992 2237 90       		.byte	-112
 13993 2238 00       		.byte	0
 13994 2239 00       		.byte	0
 13995 223a 00       		.byte	0
 13996 223b 00       		.byte	0
 13997 223c 00       		.byte	0
 13998 223d 00       		.byte	0
 13999 223e 00       		.byte	0
 14000 223f 00       		.byte	0
 14001 2240 00000000 		.space	64
 14001      00000000 
 14001      00000000 
 14001      00000000 
 14001      00000000 
 14002 2280 00       		.byte	0
 14003 2281 00       		.byte	0
 14004 2282 00       		.byte	0
 14005 2283 00       		.byte	0
 14006 2284 00       		.byte	0
 14007 2285 00       		.byte	0
 14008 2286 00       		.byte	0
 14009 2287 00       		.byte	0
 14010 2288 00       		.byte	0
 14011 2289 00       		.byte	0
 14012 228a 00       		.byte	0
 14013 228b 00       		.byte	0
 14014 228c 00       		.byte	0
 14015 228d 00       		.byte	0
 14016 228e 00       		.byte	0
 14017 228f 00       		.byte	0
 14018 2290 00       		.byte	0
 14019 2291 00       		.byte	0
 14020 2292 00       		.byte	0
ARM GAS  c:\Users\lenovo\AppData\Local\Temp\cc7gPbIA.s 			page 269


 14021 2293 00       		.byte	0
 14022 2294 00       		.byte	0
 14023 2295 00       		.byte	0
 14024 2296 00       		.byte	0
 14025 2297 00       		.byte	0
 14026 2298 00       		.byte	0
 14027 2299 00       		.byte	0
 14028 229a 03       		.byte	3
 14029 229b C0       		.byte	-64
 14030 229c 0C       		.byte	12
 14031 229d 30       		.byte	48
 14032 229e 08       		.byte	8
 14033 229f 18       		.byte	24
 14034 22a0 18       		.byte	24
 14035 22a1 08       		.byte	8
 14036 22a2 30       		.byte	48
 14037 22a3 0C       		.byte	12
 14038 22a4 30       		.byte	48
 14039 22a5 0C       		.byte	12
 14040 22a6 30       		.byte	48
 14041 22a7 0C       		.byte	12
 14042 22a8 3F       		.byte	63
 14043 22a9 FC       		.byte	-4
 14044 22aa 30       		.byte	48
 14045 22ab 00       		.byte	0
 14046 22ac 30       		.byte	48
 14047 22ad 00       		.byte	0
 14048 22ae 30       		.byte	48
 14049 22af 00       		.byte	0
 14050 22b0 18       		.byte	24
 14051 22b1 04       		.byte	4
 14052 22b2 18       		.byte	24
 14053 22b3 08       		.byte	8
 14054 22b4 0E       		.byte	14
 14055 22b5 18       		.byte	24
 14056 22b6 03       		.byte	3
 14057 22b7 E0       		.byte	-32
 14058 22b8 00       		.byte	0
 14059 22b9 00       		.byte	0
 14060 22ba 00       		.byte	0
 14061 22bb 00       		.byte	0
 14062 22bc 00       		.byte	0
 14063 22bd 00       		.byte	0
 14064 22be 00       		.byte	0
 14065 22bf 00       		.byte	0
 14066 22c0 00000000 		.space	64
 14066      00000000 
 14066      00000000 
 14066      00000000 
 14066      00000000 
 14067 2300 00       		.byte	0
 14068 2301 00       		.byte	0
 14069 2302 00       		.byte	0
 14070 2303 00       		.byte	0
 14071 2304 00       		.byte	0
 14072 2305 00       		.byte	0
 14073 2306 00       		.byte	0
ARM GAS  c:\Users\lenovo\AppData\Local\Temp\cc7gPbIA.s 			page 270


 14074 2307 00       		.byte	0
 14075 2308 00       		.byte	0
 14076 2309 00       		.byte	0
 14077 230a 00       		.byte	0
 14078 230b 00       		.byte	0
 14079 230c 00       		.byte	0
 14080 230d 7C       		.byte	124
 14081 230e 01       		.byte	1
 14082 230f 86       		.byte	-122
 14083 2310 01       		.byte	1
 14084 2311 06       		.byte	6
 14085 2312 03       		.byte	3
 14086 2313 06       		.byte	6
 14087 2314 03       		.byte	3
 14088 2315 00       		.byte	0
 14089 2316 03       		.byte	3
 14090 2317 00       		.byte	0
 14091 2318 03       		.byte	3
 14092 2319 00       		.byte	0
 14093 231a 3F       		.byte	63
 14094 231b F8       		.byte	-8
 14095 231c 03       		.byte	3
 14096 231d 00       		.byte	0
 14097 231e 03       		.byte	3
 14098 231f 00       		.byte	0
 14099 2320 03       		.byte	3
 14100 2321 00       		.byte	0
 14101 2322 03       		.byte	3
 14102 2323 00       		.byte	0
 14103 2324 03       		.byte	3
 14104 2325 00       		.byte	0
 14105 2326 03       		.byte	3
 14106 2327 00       		.byte	0
 14107 2328 03       		.byte	3
 14108 2329 00       		.byte	0
 14109 232a 03       		.byte	3
 14110 232b 00       		.byte	0
 14111 232c 03       		.byte	3
 14112 232d 00       		.byte	0
 14113 232e 03       		.byte	3
 14114 232f 00       		.byte	0
 14115 2330 03       		.byte	3
 14116 2331 00       		.byte	0
 14117 2332 03       		.byte	3
 14118 2333 00       		.byte	0
 14119 2334 03       		.byte	3
 14120 2335 00       		.byte	0
 14121 2336 1F       		.byte	31
 14122 2337 F0       		.byte	-16
 14123 2338 00       		.byte	0
 14124 2339 00       		.byte	0
 14125 233a 00       		.byte	0
 14126 233b 00       		.byte	0
 14127 233c 00       		.byte	0
 14128 233d 00       		.byte	0
 14129 233e 00       		.byte	0
 14130 233f 00       		.byte	0
ARM GAS  c:\Users\lenovo\AppData\Local\Temp\cc7gPbIA.s 			page 271


 14131 2340 00000000 		.space	64
 14131      00000000 
 14131      00000000 
 14131      00000000 
 14131      00000000 
 14132 2380 00       		.byte	0
 14133 2381 00       		.byte	0
 14134 2382 00       		.byte	0
 14135 2383 00       		.byte	0
 14136 2384 00       		.byte	0
 14137 2385 00       		.byte	0
 14138 2386 00       		.byte	0
 14139 2387 00       		.byte	0
 14140 2388 00       		.byte	0
 14141 2389 00       		.byte	0
 14142 238a 00       		.byte	0
 14143 238b 00       		.byte	0
 14144 238c 00       		.byte	0
 14145 238d 00       		.byte	0
 14146 238e 00       		.byte	0
 14147 238f 00       		.byte	0
 14148 2390 00       		.byte	0
 14149 2391 00       		.byte	0
 14150 2392 00       		.byte	0
 14151 2393 00       		.byte	0
 14152 2394 00       		.byte	0
 14153 2395 00       		.byte	0
 14154 2396 00       		.byte	0
 14155 2397 00       		.byte	0
 14156 2398 00       		.byte	0
 14157 2399 00       		.byte	0
 14158 239a 03       		.byte	3
 14159 239b EE       		.byte	-18
 14160 239c 0C       		.byte	12
 14161 239d 36       		.byte	54
 14162 239e 08       		.byte	8
 14163 239f 18       		.byte	24
 14164 23a0 18       		.byte	24
 14165 23a1 18       		.byte	24
 14166 23a2 18       		.byte	24
 14167 23a3 18       		.byte	24
 14168 23a4 18       		.byte	24
 14169 23a5 18       		.byte	24
 14170 23a6 08       		.byte	8
 14171 23a7 18       		.byte	24
 14172 23a8 0C       		.byte	12
 14173 23a9 30       		.byte	48
 14174 23aa 0F       		.byte	15
 14175 23ab E0       		.byte	-32
 14176 23ac 18       		.byte	24
 14177 23ad 00       		.byte	0
 14178 23ae 18       		.byte	24
 14179 23af 00       		.byte	0
 14180 23b0 1F       		.byte	31
 14181 23b1 C0       		.byte	-64
 14182 23b2 0F       		.byte	15
 14183 23b3 F8       		.byte	-8
ARM GAS  c:\Users\lenovo\AppData\Local\Temp\cc7gPbIA.s 			page 272


 14184 23b4 18       		.byte	24
 14185 23b5 1C       		.byte	28
 14186 23b6 30       		.byte	48
 14187 23b7 0C       		.byte	12
 14188 23b8 30       		.byte	48
 14189 23b9 0C       		.byte	12
 14190 23ba 30       		.byte	48
 14191 23bb 0C       		.byte	12
 14192 23bc 18       		.byte	24
 14193 23bd 18       		.byte	24
 14194 23be 07       		.byte	7
 14195 23bf E0       		.byte	-32
 14196 23c0 00000000 		.space	64
 14196      00000000 
 14196      00000000 
 14196      00000000 
 14196      00000000 
 14197 2400 00       		.byte	0
 14198 2401 00       		.byte	0
 14199 2402 00       		.byte	0
 14200 2403 00       		.byte	0
 14201 2404 00       		.byte	0
 14202 2405 00       		.byte	0
 14203 2406 00       		.byte	0
 14204 2407 00       		.byte	0
 14205 2408 00       		.byte	0
 14206 2409 00       		.byte	0
 14207 240a 08       		.byte	8
 14208 240b 00       		.byte	0
 14209 240c 78       		.byte	120
 14210 240d 00       		.byte	0
 14211 240e 18       		.byte	24
 14212 240f 00       		.byte	0
 14213 2410 18       		.byte	24
 14214 2411 00       		.byte	0
 14215 2412 18       		.byte	24
 14216 2413 00       		.byte	0
 14217 2414 18       		.byte	24
 14218 2415 00       		.byte	0
 14219 2416 18       		.byte	24
 14220 2417 00       		.byte	0
 14221 2418 18       		.byte	24
 14222 2419 00       		.byte	0
 14223 241a 19       		.byte	25
 14224 241b E0       		.byte	-32
 14225 241c 1A       		.byte	26
 14226 241d 30       		.byte	48
 14227 241e 1C       		.byte	28
 14228 241f 18       		.byte	24
 14229 2420 18       		.byte	24
 14230 2421 18       		.byte	24
 14231 2422 18       		.byte	24
 14232 2423 18       		.byte	24
 14233 2424 18       		.byte	24
 14234 2425 18       		.byte	24
 14235 2426 18       		.byte	24
 14236 2427 18       		.byte	24
ARM GAS  c:\Users\lenovo\AppData\Local\Temp\cc7gPbIA.s 			page 273


 14237 2428 18       		.byte	24
 14238 2429 18       		.byte	24
 14239 242a 18       		.byte	24
 14240 242b 18       		.byte	24
 14241 242c 18       		.byte	24
 14242 242d 18       		.byte	24
 14243 242e 18       		.byte	24
 14244 242f 18       		.byte	24
 14245 2430 18       		.byte	24
 14246 2431 18       		.byte	24
 14247 2432 18       		.byte	24
 14248 2433 18       		.byte	24
 14249 2434 18       		.byte	24
 14250 2435 18       		.byte	24
 14251 2436 7E       		.byte	126
 14252 2437 7E       		.byte	126
 14253 2438 00       		.byte	0
 14254 2439 00       		.byte	0
 14255 243a 00       		.byte	0
 14256 243b 00       		.byte	0
 14257 243c 00       		.byte	0
 14258 243d 00       		.byte	0
 14259 243e 00       		.byte	0
 14260 243f 00       		.byte	0
 14261 2440 00000000 		.space	64
 14261      00000000 
 14261      00000000 
 14261      00000000 
 14261      00000000 
 14262 2480 00       		.byte	0
 14263 2481 00       		.byte	0
 14264 2482 00       		.byte	0
 14265 2483 00       		.byte	0
 14266 2484 00       		.byte	0
 14267 2485 00       		.byte	0
 14268 2486 00       		.byte	0
 14269 2487 00       		.byte	0
 14270 2488 00       		.byte	0
 14271 2489 00       		.byte	0
 14272 248a 00       		.byte	0
 14273 248b 00       		.byte	0
 14274 248c 01       		.byte	1
 14275 248d 80       		.byte	-128
 14276 248e 03       		.byte	3
 14277 248f C0       		.byte	-64
 14278 2490 01       		.byte	1
 14279 2491 80       		.byte	-128
 14280 2492 00       		.byte	0
 14281 2493 00       		.byte	0
 14282 2494 00       		.byte	0
 14283 2495 00       		.byte	0
 14284 2496 00       		.byte	0
 14285 2497 00       		.byte	0
 14286 2498 00       		.byte	0
 14287 2499 80       		.byte	-128
 14288 249a 1F       		.byte	31
 14289 249b 80       		.byte	-128
ARM GAS  c:\Users\lenovo\AppData\Local\Temp\cc7gPbIA.s 			page 274


 14290 249c 01       		.byte	1
 14291 249d 80       		.byte	-128
 14292 249e 01       		.byte	1
 14293 249f 80       		.byte	-128
 14294 24a0 01       		.byte	1
 14295 24a1 80       		.byte	-128
 14296 24a2 01       		.byte	1
 14297 24a3 80       		.byte	-128
 14298 24a4 01       		.byte	1
 14299 24a5 80       		.byte	-128
 14300 24a6 01       		.byte	1
 14301 24a7 80       		.byte	-128
 14302 24a8 01       		.byte	1
 14303 24a9 80       		.byte	-128
 14304 24aa 01       		.byte	1
 14305 24ab 80       		.byte	-128
 14306 24ac 01       		.byte	1
 14307 24ad 80       		.byte	-128
 14308 24ae 01       		.byte	1
 14309 24af 80       		.byte	-128
 14310 24b0 01       		.byte	1
 14311 24b1 80       		.byte	-128
 14312 24b2 01       		.byte	1
 14313 24b3 80       		.byte	-128
 14314 24b4 01       		.byte	1
 14315 24b5 80       		.byte	-128
 14316 24b6 1F       		.byte	31
 14317 24b7 F8       		.byte	-8
 14318 24b8 00       		.byte	0
 14319 24b9 00       		.byte	0
 14320 24ba 00       		.byte	0
 14321 24bb 00       		.byte	0
 14322 24bc 00       		.byte	0
 14323 24bd 00       		.byte	0
 14324 24be 00       		.byte	0
 14325 24bf 00       		.byte	0
 14326 24c0 00000000 		.space	64
 14326      00000000 
 14326      00000000 
 14326      00000000 
 14326      00000000 
 14327 2500 00       		.byte	0
 14328 2501 00       		.byte	0
 14329 2502 00       		.byte	0
 14330 2503 00       		.byte	0
 14331 2504 00       		.byte	0
 14332 2505 00       		.byte	0
 14333 2506 00       		.byte	0
 14334 2507 00       		.byte	0
 14335 2508 00       		.byte	0
 14336 2509 00       		.byte	0
 14337 250a 00       		.byte	0
 14338 250b 00       		.byte	0
 14339 250c 00       		.byte	0
 14340 250d 38       		.byte	56
 14341 250e 00       		.byte	0
 14342 250f 78       		.byte	120
ARM GAS  c:\Users\lenovo\AppData\Local\Temp\cc7gPbIA.s 			page 275


 14343 2510 00       		.byte	0
 14344 2511 30       		.byte	48
 14345 2512 00       		.byte	0
 14346 2513 00       		.byte	0
 14347 2514 00       		.byte	0
 14348 2515 00       		.byte	0
 14349 2516 00       		.byte	0
 14350 2517 00       		.byte	0
 14351 2518 00       		.byte	0
 14352 2519 10       		.byte	16
 14353 251a 03       		.byte	3
 14354 251b F0       		.byte	-16
 14355 251c 00       		.byte	0
 14356 251d 30       		.byte	48
 14357 251e 00       		.byte	0
 14358 251f 30       		.byte	48
 14359 2520 00       		.byte	0
 14360 2521 30       		.byte	48
 14361 2522 00       		.byte	0
 14362 2523 30       		.byte	48
 14363 2524 00       		.byte	0
 14364 2525 30       		.byte	48
 14365 2526 00       		.byte	0
 14366 2527 30       		.byte	48
 14367 2528 00       		.byte	0
 14368 2529 30       		.byte	48
 14369 252a 00       		.byte	0
 14370 252b 30       		.byte	48
 14371 252c 00       		.byte	0
 14372 252d 30       		.byte	48
 14373 252e 00       		.byte	0
 14374 252f 30       		.byte	48
 14375 2530 00       		.byte	0
 14376 2531 30       		.byte	48
 14377 2532 00       		.byte	0
 14378 2533 30       		.byte	48
 14379 2534 00       		.byte	0
 14380 2535 30       		.byte	48
 14381 2536 00       		.byte	0
 14382 2537 30       		.byte	48
 14383 2538 00       		.byte	0
 14384 2539 30       		.byte	48
 14385 253a 18       		.byte	24
 14386 253b 60       		.byte	96
 14387 253c 18       		.byte	24
 14388 253d 40       		.byte	64
 14389 253e 0F       		.byte	15
 14390 253f 80       		.byte	-128
 14391 2540 00000000 		.space	64
 14391      00000000 
 14391      00000000 
 14391      00000000 
 14391      00000000 
 14392 2580 00       		.byte	0
 14393 2581 00       		.byte	0
 14394 2582 00       		.byte	0
 14395 2583 00       		.byte	0
ARM GAS  c:\Users\lenovo\AppData\Local\Temp\cc7gPbIA.s 			page 276


 14396 2584 00       		.byte	0
 14397 2585 00       		.byte	0
 14398 2586 00       		.byte	0
 14399 2587 00       		.byte	0
 14400 2588 00       		.byte	0
 14401 2589 00       		.byte	0
 14402 258a 08       		.byte	8
 14403 258b 00       		.byte	0
 14404 258c 78       		.byte	120
 14405 258d 00       		.byte	0
 14406 258e 18       		.byte	24
 14407 258f 00       		.byte	0
 14408 2590 18       		.byte	24
 14409 2591 00       		.byte	0
 14410 2592 18       		.byte	24
 14411 2593 00       		.byte	0
 14412 2594 18       		.byte	24
 14413 2595 00       		.byte	0
 14414 2596 18       		.byte	24
 14415 2597 00       		.byte	0
 14416 2598 18       		.byte	24
 14417 2599 00       		.byte	0
 14418 259a 18       		.byte	24
 14419 259b 7C       		.byte	124
 14420 259c 18       		.byte	24
 14421 259d 30       		.byte	48
 14422 259e 18       		.byte	24
 14423 259f 20       		.byte	32
 14424 25a0 18       		.byte	24
 14425 25a1 40       		.byte	64
 14426 25a2 18       		.byte	24
 14427 25a3 80       		.byte	-128
 14428 25a4 19       		.byte	25
 14429 25a5 80       		.byte	-128
 14430 25a6 1B       		.byte	27
 14431 25a7 80       		.byte	-128
 14432 25a8 1E       		.byte	30
 14433 25a9 C0       		.byte	-64
 14434 25aa 1C       		.byte	28
 14435 25ab C0       		.byte	-64
 14436 25ac 18       		.byte	24
 14437 25ad 60       		.byte	96
 14438 25ae 18       		.byte	24
 14439 25af 30       		.byte	48
 14440 25b0 18       		.byte	24
 14441 25b1 30       		.byte	48
 14442 25b2 18       		.byte	24
 14443 25b3 18       		.byte	24
 14444 25b4 18       		.byte	24
 14445 25b5 1C       		.byte	28
 14446 25b6 7E       		.byte	126
 14447 25b7 3E       		.byte	62
 14448 25b8 00       		.byte	0
 14449 25b9 00       		.byte	0
 14450 25ba 00       		.byte	0
 14451 25bb 00       		.byte	0
 14452 25bc 00       		.byte	0
ARM GAS  c:\Users\lenovo\AppData\Local\Temp\cc7gPbIA.s 			page 277


 14453 25bd 00       		.byte	0
 14454 25be 00       		.byte	0
 14455 25bf 00       		.byte	0
 14456 25c0 00000000 		.space	64
 14456      00000000 
 14456      00000000 
 14456      00000000 
 14456      00000000 
 14457 2600 00       		.byte	0
 14458 2601 00       		.byte	0
 14459 2602 00       		.byte	0
 14460 2603 00       		.byte	0
 14461 2604 00       		.byte	0
 14462 2605 00       		.byte	0
 14463 2606 00       		.byte	0
 14464 2607 00       		.byte	0
 14465 2608 00       		.byte	0
 14466 2609 00       		.byte	0
 14467 260a 00       		.byte	0
 14468 260b 80       		.byte	-128
 14469 260c 1F       		.byte	31
 14470 260d 80       		.byte	-128
 14471 260e 01       		.byte	1
 14472 260f 80       		.byte	-128
 14473 2610 01       		.byte	1
 14474 2611 80       		.byte	-128
 14475 2612 01       		.byte	1
 14476 2613 80       		.byte	-128
 14477 2614 01       		.byte	1
 14478 2615 80       		.byte	-128
 14479 2616 01       		.byte	1
 14480 2617 80       		.byte	-128
 14481 2618 01       		.byte	1
 14482 2619 80       		.byte	-128
 14483 261a 01       		.byte	1
 14484 261b 80       		.byte	-128
 14485 261c 01       		.byte	1
 14486 261d 80       		.byte	-128
 14487 261e 01       		.byte	1
 14488 261f 80       		.byte	-128
 14489 2620 01       		.byte	1
 14490 2621 80       		.byte	-128
 14491 2622 01       		.byte	1
 14492 2623 80       		.byte	-128
 14493 2624 01       		.byte	1
 14494 2625 80       		.byte	-128
 14495 2626 01       		.byte	1
 14496 2627 80       		.byte	-128
 14497 2628 01       		.byte	1
 14498 2629 80       		.byte	-128
 14499 262a 01       		.byte	1
 14500 262b 80       		.byte	-128
 14501 262c 01       		.byte	1
 14502 262d 80       		.byte	-128
 14503 262e 01       		.byte	1
 14504 262f 80       		.byte	-128
 14505 2630 01       		.byte	1
ARM GAS  c:\Users\lenovo\AppData\Local\Temp\cc7gPbIA.s 			page 278


 14506 2631 80       		.byte	-128
 14507 2632 01       		.byte	1
 14508 2633 80       		.byte	-128
 14509 2634 01       		.byte	1
 14510 2635 80       		.byte	-128
 14511 2636 1F       		.byte	31
 14512 2637 F8       		.byte	-8
 14513 2638 00       		.byte	0
 14514 2639 00       		.byte	0
 14515 263a 00       		.byte	0
 14516 263b 00       		.byte	0
 14517 263c 00       		.byte	0
 14518 263d 00       		.byte	0
 14519 263e 00       		.byte	0
 14520 263f 00       		.byte	0
 14521 2640 00000000 		.space	64
 14521      00000000 
 14521      00000000 
 14521      00000000 
 14521      00000000 
 14522 2680 00       		.byte	0
 14523 2681 00       		.byte	0
 14524 2682 00       		.byte	0
 14525 2683 00       		.byte	0
 14526 2684 00       		.byte	0
 14527 2685 00       		.byte	0
 14528 2686 00       		.byte	0
 14529 2687 00       		.byte	0
 14530 2688 00       		.byte	0
 14531 2689 00       		.byte	0
 14532 268a 00       		.byte	0
 14533 268b 00       		.byte	0
 14534 268c 00       		.byte	0
 14535 268d 00       		.byte	0
 14536 268e 00       		.byte	0
 14537 268f 00       		.byte	0
 14538 2690 00       		.byte	0
 14539 2691 00       		.byte	0
 14540 2692 00       		.byte	0
 14541 2693 00       		.byte	0
 14542 2694 00       		.byte	0
 14543 2695 00       		.byte	0
 14544 2696 00       		.byte	0
 14545 2697 00       		.byte	0
 14546 2698 20       		.byte	32
 14547 2699 00       		.byte	0
 14548 269a EF       		.byte	-17
 14549 269b 3C       		.byte	60
 14550 269c 71       		.byte	113
 14551 269d C6       		.byte	-58
 14552 269e 61       		.byte	97
 14553 269f 86       		.byte	-122
 14554 26a0 61       		.byte	97
 14555 26a1 86       		.byte	-122
 14556 26a2 61       		.byte	97
 14557 26a3 86       		.byte	-122
 14558 26a4 61       		.byte	97
ARM GAS  c:\Users\lenovo\AppData\Local\Temp\cc7gPbIA.s 			page 279


 14559 26a5 86       		.byte	-122
 14560 26a6 61       		.byte	97
 14561 26a7 86       		.byte	-122
 14562 26a8 61       		.byte	97
 14563 26a9 86       		.byte	-122
 14564 26aa 61       		.byte	97
 14565 26ab 86       		.byte	-122
 14566 26ac 61       		.byte	97
 14567 26ad 86       		.byte	-122
 14568 26ae 61       		.byte	97
 14569 26af 86       		.byte	-122
 14570 26b0 61       		.byte	97
 14571 26b1 86       		.byte	-122
 14572 26b2 61       		.byte	97
 14573 26b3 86       		.byte	-122
 14574 26b4 61       		.byte	97
 14575 26b5 86       		.byte	-122
 14576 26b6 F3       		.byte	-13
 14577 26b7 CF       		.byte	-49
 14578 26b8 00       		.byte	0
 14579 26b9 00       		.byte	0
 14580 26ba 00       		.byte	0
 14581 26bb 00       		.byte	0
 14582 26bc 00       		.byte	0
 14583 26bd 00       		.byte	0
 14584 26be 00       		.byte	0
 14585 26bf 00       		.byte	0
 14586 26c0 00000000 		.space	64
 14586      00000000 
 14586      00000000 
 14586      00000000 
 14586      00000000 
 14587 2700 00       		.byte	0
 14588 2701 00       		.byte	0
 14589 2702 00       		.byte	0
 14590 2703 00       		.byte	0
 14591 2704 00       		.byte	0
 14592 2705 00       		.byte	0
 14593 2706 00       		.byte	0
 14594 2707 00       		.byte	0
 14595 2708 00       		.byte	0
 14596 2709 00       		.byte	0
 14597 270a 00       		.byte	0
 14598 270b 00       		.byte	0
 14599 270c 00       		.byte	0
 14600 270d 00       		.byte	0
 14601 270e 00       		.byte	0
 14602 270f 00       		.byte	0
 14603 2710 00       		.byte	0
 14604 2711 00       		.byte	0
 14605 2712 00       		.byte	0
 14606 2713 00       		.byte	0
 14607 2714 00       		.byte	0
 14608 2715 00       		.byte	0
 14609 2716 00       		.byte	0
 14610 2717 00       		.byte	0
 14611 2718 00       		.byte	0
ARM GAS  c:\Users\lenovo\AppData\Local\Temp\cc7gPbIA.s 			page 280


 14612 2719 00       		.byte	0
 14613 271a 09       		.byte	9
 14614 271b E0       		.byte	-32
 14615 271c 7A       		.byte	122
 14616 271d 30       		.byte	48
 14617 271e 1C       		.byte	28
 14618 271f 18       		.byte	24
 14619 2720 18       		.byte	24
 14620 2721 18       		.byte	24
 14621 2722 18       		.byte	24
 14622 2723 18       		.byte	24
 14623 2724 18       		.byte	24
 14624 2725 18       		.byte	24
 14625 2726 18       		.byte	24
 14626 2727 18       		.byte	24
 14627 2728 18       		.byte	24
 14628 2729 18       		.byte	24
 14629 272a 18       		.byte	24
 14630 272b 18       		.byte	24
 14631 272c 18       		.byte	24
 14632 272d 18       		.byte	24
 14633 272e 18       		.byte	24
 14634 272f 18       		.byte	24
 14635 2730 18       		.byte	24
 14636 2731 18       		.byte	24
 14637 2732 18       		.byte	24
 14638 2733 18       		.byte	24
 14639 2734 18       		.byte	24
 14640 2735 18       		.byte	24
 14641 2736 7E       		.byte	126
 14642 2737 7E       		.byte	126
 14643 2738 00       		.byte	0
 14644 2739 00       		.byte	0
 14645 273a 00       		.byte	0
 14646 273b 00       		.byte	0
 14647 273c 00       		.byte	0
 14648 273d 00       		.byte	0
 14649 273e 00       		.byte	0
 14650 273f 00       		.byte	0
 14651 2740 00000000 		.space	64
 14651      00000000 
 14651      00000000 
 14651      00000000 
 14651      00000000 
 14652 2780 00       		.byte	0
 14653 2781 00       		.byte	0
 14654 2782 00       		.byte	0
 14655 2783 00       		.byte	0
 14656 2784 00       		.byte	0
 14657 2785 00       		.byte	0
 14658 2786 00       		.byte	0
 14659 2787 00       		.byte	0
 14660 2788 00       		.byte	0
 14661 2789 00       		.byte	0
 14662 278a 00       		.byte	0
 14663 278b 00       		.byte	0
 14664 278c 00       		.byte	0
ARM GAS  c:\Users\lenovo\AppData\Local\Temp\cc7gPbIA.s 			page 281


 14665 278d 00       		.byte	0
 14666 278e 00       		.byte	0
 14667 278f 00       		.byte	0
 14668 2790 00       		.byte	0
 14669 2791 00       		.byte	0
 14670 2792 00       		.byte	0
 14671 2793 00       		.byte	0
 14672 2794 00       		.byte	0
 14673 2795 00       		.byte	0
 14674 2796 00       		.byte	0
 14675 2797 00       		.byte	0
 14676 2798 00       		.byte	0
 14677 2799 00       		.byte	0
 14678 279a 03       		.byte	3
 14679 279b C0       		.byte	-64
 14680 279c 0C       		.byte	12
 14681 279d 30       		.byte	48
 14682 279e 08       		.byte	8
 14683 279f 18       		.byte	24
 14684 27a0 18       		.byte	24
 14685 27a1 18       		.byte	24
 14686 27a2 10       		.byte	16
 14687 27a3 0C       		.byte	12
 14688 27a4 30       		.byte	48
 14689 27a5 0C       		.byte	12
 14690 27a6 30       		.byte	48
 14691 27a7 0C       		.byte	12
 14692 27a8 30       		.byte	48
 14693 27a9 0C       		.byte	12
 14694 27aa 30       		.byte	48
 14695 27ab 0C       		.byte	12
 14696 27ac 30       		.byte	48
 14697 27ad 0C       		.byte	12
 14698 27ae 30       		.byte	48
 14699 27af 0C       		.byte	12
 14700 27b0 18       		.byte	24
 14701 27b1 18       		.byte	24
 14702 27b2 18       		.byte	24
 14703 27b3 18       		.byte	24
 14704 27b4 0C       		.byte	12
 14705 27b5 30       		.byte	48
 14706 27b6 03       		.byte	3
 14707 27b7 C0       		.byte	-64
 14708 27b8 00       		.byte	0
 14709 27b9 00       		.byte	0
 14710 27ba 00       		.byte	0
 14711 27bb 00       		.byte	0
 14712 27bc 00       		.byte	0
 14713 27bd 00       		.byte	0
 14714 27be 00       		.byte	0
 14715 27bf 00       		.byte	0
 14716 27c0 00000000 		.space	64
 14716      00000000 
 14716      00000000 
 14716      00000000 
 14716      00000000 
 14717 2800 00       		.byte	0
ARM GAS  c:\Users\lenovo\AppData\Local\Temp\cc7gPbIA.s 			page 282


 14718 2801 00       		.byte	0
 14719 2802 00       		.byte	0
 14720 2803 00       		.byte	0
 14721 2804 00       		.byte	0
 14722 2805 00       		.byte	0
 14723 2806 00       		.byte	0
 14724 2807 00       		.byte	0
 14725 2808 00       		.byte	0
 14726 2809 00       		.byte	0
 14727 280a 00       		.byte	0
 14728 280b 00       		.byte	0
 14729 280c 00       		.byte	0
 14730 280d 00       		.byte	0
 14731 280e 00       		.byte	0
 14732 280f 00       		.byte	0
 14733 2810 00       		.byte	0
 14734 2811 00       		.byte	0
 14735 2812 00       		.byte	0
 14736 2813 00       		.byte	0
 14737 2814 00       		.byte	0
 14738 2815 00       		.byte	0
 14739 2816 00       		.byte	0
 14740 2817 00       		.byte	0
 14741 2818 00       		.byte	0
 14742 2819 00       		.byte	0
 14743 281a 09       		.byte	9
 14744 281b E0       		.byte	-32
 14745 281c 7A       		.byte	122
 14746 281d 30       		.byte	48
 14747 281e 1C       		.byte	28
 14748 281f 18       		.byte	24
 14749 2820 18       		.byte	24
 14750 2821 08       		.byte	8
 14751 2822 18       		.byte	24
 14752 2823 0C       		.byte	12
 14753 2824 18       		.byte	24
 14754 2825 0C       		.byte	12
 14755 2826 18       		.byte	24
 14756 2827 0C       		.byte	12
 14757 2828 18       		.byte	24
 14758 2829 0C       		.byte	12
 14759 282a 18       		.byte	24
 14760 282b 0C       		.byte	12
 14761 282c 18       		.byte	24
 14762 282d 0C       		.byte	12
 14763 282e 18       		.byte	24
 14764 282f 0C       		.byte	12
 14765 2830 18       		.byte	24
 14766 2831 18       		.byte	24
 14767 2832 1C       		.byte	28
 14768 2833 18       		.byte	24
 14769 2834 1E       		.byte	30
 14770 2835 30       		.byte	48
 14771 2836 19       		.byte	25
 14772 2837 E0       		.byte	-32
 14773 2838 18       		.byte	24
 14774 2839 00       		.byte	0
ARM GAS  c:\Users\lenovo\AppData\Local\Temp\cc7gPbIA.s 			page 283


 14775 283a 18       		.byte	24
 14776 283b 00       		.byte	0
 14777 283c 18       		.byte	24
 14778 283d 00       		.byte	0
 14779 283e 7E       		.byte	126
 14780 283f 00       		.byte	0
 14781 2840 00000000 		.space	64
 14781      00000000 
 14781      00000000 
 14781      00000000 
 14781      00000000 
 14782 2880 00       		.byte	0
 14783 2881 00       		.byte	0
 14784 2882 00       		.byte	0
 14785 2883 00       		.byte	0
 14786 2884 00       		.byte	0
 14787 2885 00       		.byte	0
 14788 2886 00       		.byte	0
 14789 2887 00       		.byte	0
 14790 2888 00       		.byte	0
 14791 2889 00       		.byte	0
 14792 288a 00       		.byte	0
 14793 288b 00       		.byte	0
 14794 288c 00       		.byte	0
 14795 288d 00       		.byte	0
 14796 288e 00       		.byte	0
 14797 288f 00       		.byte	0
 14798 2890 00       		.byte	0
 14799 2891 00       		.byte	0
 14800 2892 00       		.byte	0
 14801 2893 00       		.byte	0
 14802 2894 00       		.byte	0
 14803 2895 00       		.byte	0
 14804 2896 00       		.byte	0
 14805 2897 00       		.byte	0
 14806 2898 00       		.byte	0
 14807 2899 00       		.byte	0
 14808 289a 03       		.byte	3
 14809 289b C8       		.byte	-56
 14810 289c 0C       		.byte	12
 14811 289d 78       		.byte	120
 14812 289e 18       		.byte	24
 14813 289f 38       		.byte	56
 14814 28a0 18       		.byte	24
 14815 28a1 18       		.byte	24
 14816 28a2 30       		.byte	48
 14817 28a3 18       		.byte	24
 14818 28a4 30       		.byte	48
 14819 28a5 18       		.byte	24
 14820 28a6 30       		.byte	48
 14821 28a7 18       		.byte	24
 14822 28a8 30       		.byte	48
 14823 28a9 18       		.byte	24
 14824 28aa 30       		.byte	48
 14825 28ab 18       		.byte	24
 14826 28ac 30       		.byte	48
 14827 28ad 18       		.byte	24
ARM GAS  c:\Users\lenovo\AppData\Local\Temp\cc7gPbIA.s 			page 284


 14828 28ae 30       		.byte	48
 14829 28af 18       		.byte	24
 14830 28b0 10       		.byte	16
 14831 28b1 18       		.byte	24
 14832 28b2 18       		.byte	24
 14833 28b3 38       		.byte	56
 14834 28b4 0C       		.byte	12
 14835 28b5 78       		.byte	120
 14836 28b6 07       		.byte	7
 14837 28b7 98       		.byte	-104
 14838 28b8 00       		.byte	0
 14839 28b9 18       		.byte	24
 14840 28ba 00       		.byte	0
 14841 28bb 18       		.byte	24
 14842 28bc 00       		.byte	0
 14843 28bd 18       		.byte	24
 14844 28be 00       		.byte	0
 14845 28bf 7E       		.byte	126
 14846 28c0 00000000 		.space	64
 14846      00000000 
 14846      00000000 
 14846      00000000 
 14846      00000000 
 14847 2900 00       		.byte	0
 14848 2901 00       		.byte	0
 14849 2902 00       		.byte	0
 14850 2903 00       		.byte	0
 14851 2904 00       		.byte	0
 14852 2905 00       		.byte	0
 14853 2906 00       		.byte	0
 14854 2907 00       		.byte	0
 14855 2908 00       		.byte	0
 14856 2909 00       		.byte	0
 14857 290a 00       		.byte	0
 14858 290b 00       		.byte	0
 14859 290c 00       		.byte	0
 14860 290d 00       		.byte	0
 14861 290e 00       		.byte	0
 14862 290f 00       		.byte	0
 14863 2910 00       		.byte	0
 14864 2911 00       		.byte	0
 14865 2912 00       		.byte	0
 14866 2913 00       		.byte	0
 14867 2914 00       		.byte	0
 14868 2915 00       		.byte	0
 14869 2916 00       		.byte	0
 14870 2917 00       		.byte	0
 14871 2918 00       		.byte	0
 14872 2919 00       		.byte	0
 14873 291a 06       		.byte	6
 14874 291b 1C       		.byte	28
 14875 291c 7E       		.byte	126
 14876 291d 66       		.byte	102
 14877 291e 06       		.byte	6
 14878 291f 86       		.byte	-122
 14879 2920 07       		.byte	7
 14880 2921 80       		.byte	-128
ARM GAS  c:\Users\lenovo\AppData\Local\Temp\cc7gPbIA.s 			page 285


 14881 2922 07       		.byte	7
 14882 2923 00       		.byte	0
 14883 2924 06       		.byte	6
 14884 2925 00       		.byte	0
 14885 2926 06       		.byte	6
 14886 2927 00       		.byte	0
 14887 2928 06       		.byte	6
 14888 2929 00       		.byte	0
 14889 292a 06       		.byte	6
 14890 292b 00       		.byte	0
 14891 292c 06       		.byte	6
 14892 292d 00       		.byte	0
 14893 292e 06       		.byte	6
 14894 292f 00       		.byte	0
 14895 2930 06       		.byte	6
 14896 2931 00       		.byte	0
 14897 2932 06       		.byte	6
 14898 2933 00       		.byte	0
 14899 2934 06       		.byte	6
 14900 2935 00       		.byte	0
 14901 2936 7F       		.byte	127
 14902 2937 E0       		.byte	-32
 14903 2938 00       		.byte	0
 14904 2939 00       		.byte	0
 14905 293a 00       		.byte	0
 14906 293b 00       		.byte	0
 14907 293c 00       		.byte	0
 14908 293d 00       		.byte	0
 14909 293e 00       		.byte	0
 14910 293f 00       		.byte	0
 14911 2940 00000000 		.space	64
 14911      00000000 
 14911      00000000 
 14911      00000000 
 14911      00000000 
 14912 2980 00       		.byte	0
 14913 2981 00       		.byte	0
 14914 2982 00       		.byte	0
 14915 2983 00       		.byte	0
 14916 2984 00       		.byte	0
 14917 2985 00       		.byte	0
 14918 2986 00       		.byte	0
 14919 2987 00       		.byte	0
 14920 2988 00       		.byte	0
 14921 2989 00       		.byte	0
 14922 298a 00       		.byte	0
 14923 298b 00       		.byte	0
 14924 298c 00       		.byte	0
 14925 298d 00       		.byte	0
 14926 298e 00       		.byte	0
 14927 298f 00       		.byte	0
 14928 2990 00       		.byte	0
 14929 2991 00       		.byte	0
 14930 2992 00       		.byte	0
 14931 2993 00       		.byte	0
 14932 2994 00       		.byte	0
 14933 2995 00       		.byte	0
ARM GAS  c:\Users\lenovo\AppData\Local\Temp\cc7gPbIA.s 			page 286


 14934 2996 00       		.byte	0
 14935 2997 00       		.byte	0
 14936 2998 00       		.byte	0
 14937 2999 00       		.byte	0
 14938 299a 03       		.byte	3
 14939 299b E4       		.byte	-28
 14940 299c 06       		.byte	6
 14941 299d 1C       		.byte	28
 14942 299e 0C       		.byte	12
 14943 299f 0C       		.byte	12
 14944 29a0 0C       		.byte	12
 14945 29a1 04       		.byte	4
 14946 29a2 0C       		.byte	12
 14947 29a3 04       		.byte	4
 14948 29a4 0E       		.byte	14
 14949 29a5 00       		.byte	0
 14950 29a6 07       		.byte	7
 14951 29a7 C0       		.byte	-64
 14952 29a8 01       		.byte	1
 14953 29a9 F0       		.byte	-16
 14954 29aa 00       		.byte	0
 14955 29ab 78       		.byte	120
 14956 29ac 00       		.byte	0
 14957 29ad 1C       		.byte	28
 14958 29ae 10       		.byte	16
 14959 29af 0C       		.byte	12
 14960 29b0 10       		.byte	16
 14961 29b1 0C       		.byte	12
 14962 29b2 18       		.byte	24
 14963 29b3 0C       		.byte	12
 14964 29b4 1C       		.byte	28
 14965 29b5 18       		.byte	24
 14966 29b6 13       		.byte	19
 14967 29b7 F0       		.byte	-16
 14968 29b8 00       		.byte	0
 14969 29b9 00       		.byte	0
 14970 29ba 00       		.byte	0
 14971 29bb 00       		.byte	0
 14972 29bc 00       		.byte	0
 14973 29bd 00       		.byte	0
 14974 29be 00       		.byte	0
 14975 29bf 00       		.byte	0
 14976 29c0 00000000 		.space	64
 14976      00000000 
 14976      00000000 
 14976      00000000 
 14976      00000000 
 14977 2a00 00       		.byte	0
 14978 2a01 00       		.byte	0
 14979 2a02 00       		.byte	0
 14980 2a03 00       		.byte	0
 14981 2a04 00       		.byte	0
 14982 2a05 00       		.byte	0
 14983 2a06 00       		.byte	0
 14984 2a07 00       		.byte	0
 14985 2a08 00       		.byte	0
 14986 2a09 00       		.byte	0
ARM GAS  c:\Users\lenovo\AppData\Local\Temp\cc7gPbIA.s 			page 287


 14987 2a0a 00       		.byte	0
 14988 2a0b 00       		.byte	0
 14989 2a0c 00       		.byte	0
 14990 2a0d 00       		.byte	0
 14991 2a0e 00       		.byte	0
 14992 2a0f 00       		.byte	0
 14993 2a10 01       		.byte	1
 14994 2a11 00       		.byte	0
 14995 2a12 01       		.byte	1
 14996 2a13 00       		.byte	0
 14997 2a14 01       		.byte	1
 14998 2a15 00       		.byte	0
 14999 2a16 03       		.byte	3
 15000 2a17 00       		.byte	0
 15001 2a18 07       		.byte	7
 15002 2a19 00       		.byte	0
 15003 2a1a 3F       		.byte	63
 15004 2a1b F8       		.byte	-8
 15005 2a1c 03       		.byte	3
 15006 2a1d 00       		.byte	0
 15007 2a1e 03       		.byte	3
 15008 2a1f 00       		.byte	0
 15009 2a20 03       		.byte	3
 15010 2a21 00       		.byte	0
 15011 2a22 03       		.byte	3
 15012 2a23 00       		.byte	0
 15013 2a24 03       		.byte	3
 15014 2a25 00       		.byte	0
 15015 2a26 03       		.byte	3
 15016 2a27 00       		.byte	0
 15017 2a28 03       		.byte	3
 15018 2a29 00       		.byte	0
 15019 2a2a 03       		.byte	3
 15020 2a2b 00       		.byte	0
 15021 2a2c 03       		.byte	3
 15022 2a2d 00       		.byte	0
 15023 2a2e 03       		.byte	3
 15024 2a2f 00       		.byte	0
 15025 2a30 03       		.byte	3
 15026 2a31 04       		.byte	4
 15027 2a32 03       		.byte	3
 15028 2a33 04       		.byte	4
 15029 2a34 01       		.byte	1
 15030 2a35 88       		.byte	-120
 15031 2a36 00       		.byte	0
 15032 2a37 F0       		.byte	-16
 15033 2a38 00       		.byte	0
 15034 2a39 00       		.byte	0
 15035 2a3a 00       		.byte	0
 15036 2a3b 00       		.byte	0
 15037 2a3c 00       		.byte	0
 15038 2a3d 00       		.byte	0
 15039 2a3e 00       		.byte	0
 15040 2a3f 00       		.byte	0
 15041 2a40 00000000 		.space	64
 15041      00000000 
 15041      00000000 
ARM GAS  c:\Users\lenovo\AppData\Local\Temp\cc7gPbIA.s 			page 288


 15041      00000000 
 15041      00000000 
 15042 2a80 00       		.byte	0
 15043 2a81 00       		.byte	0
 15044 2a82 00       		.byte	0
 15045 2a83 00       		.byte	0
 15046 2a84 00       		.byte	0
 15047 2a85 00       		.byte	0
 15048 2a86 00       		.byte	0
 15049 2a87 00       		.byte	0
 15050 2a88 00       		.byte	0
 15051 2a89 00       		.byte	0
 15052 2a8a 00       		.byte	0
 15053 2a8b 00       		.byte	0
 15054 2a8c 00       		.byte	0
 15055 2a8d 00       		.byte	0
 15056 2a8e 00       		.byte	0
 15057 2a8f 00       		.byte	0
 15058 2a90 00       		.byte	0
 15059 2a91 00       		.byte	0
 15060 2a92 00       		.byte	0
 15061 2a93 00       		.byte	0
 15062 2a94 00       		.byte	0
 15063 2a95 00       		.byte	0
 15064 2a96 00       		.byte	0
 15065 2a97 00       		.byte	0
 15066 2a98 08       		.byte	8
 15067 2a99 08       		.byte	8
 15068 2a9a 78       		.byte	120
 15069 2a9b 78       		.byte	120
 15070 2a9c 18       		.byte	24
 15071 2a9d 18       		.byte	24
 15072 2a9e 18       		.byte	24
 15073 2a9f 18       		.byte	24
 15074 2aa0 18       		.byte	24
 15075 2aa1 18       		.byte	24
 15076 2aa2 18       		.byte	24
 15077 2aa3 18       		.byte	24
 15078 2aa4 18       		.byte	24
 15079 2aa5 18       		.byte	24
 15080 2aa6 18       		.byte	24
 15081 2aa7 18       		.byte	24
 15082 2aa8 18       		.byte	24
 15083 2aa9 18       		.byte	24
 15084 2aaa 18       		.byte	24
 15085 2aab 18       		.byte	24
 15086 2aac 18       		.byte	24
 15087 2aad 18       		.byte	24
 15088 2aae 18       		.byte	24
 15089 2aaf 18       		.byte	24
 15090 2ab0 18       		.byte	24
 15091 2ab1 18       		.byte	24
 15092 2ab2 18       		.byte	24
 15093 2ab3 38       		.byte	56
 15094 2ab4 0C       		.byte	12
 15095 2ab5 5E       		.byte	94
 15096 2ab6 07       		.byte	7
ARM GAS  c:\Users\lenovo\AppData\Local\Temp\cc7gPbIA.s 			page 289


 15097 2ab7 90       		.byte	-112
 15098 2ab8 00       		.byte	0
 15099 2ab9 00       		.byte	0
 15100 2aba 00       		.byte	0
 15101 2abb 00       		.byte	0
 15102 2abc 00       		.byte	0
 15103 2abd 00       		.byte	0
 15104 2abe 00       		.byte	0
 15105 2abf 00       		.byte	0
 15106 2ac0 00000000 		.space	64
 15106      00000000 
 15106      00000000 
 15106      00000000 
 15106      00000000 
 15107 2b00 00       		.byte	0
 15108 2b01 00       		.byte	0
 15109 2b02 00       		.byte	0
 15110 2b03 00       		.byte	0
 15111 2b04 00       		.byte	0
 15112 2b05 00       		.byte	0
 15113 2b06 00       		.byte	0
 15114 2b07 00       		.byte	0
 15115 2b08 00       		.byte	0
 15116 2b09 00       		.byte	0
 15117 2b0a 00       		.byte	0
 15118 2b0b 00       		.byte	0
 15119 2b0c 00       		.byte	0
 15120 2b0d 00       		.byte	0
 15121 2b0e 00       		.byte	0
 15122 2b0f 00       		.byte	0
 15123 2b10 00       		.byte	0
 15124 2b11 00       		.byte	0
 15125 2b12 00       		.byte	0
 15126 2b13 00       		.byte	0
 15127 2b14 00       		.byte	0
 15128 2b15 00       		.byte	0
 15129 2b16 00       		.byte	0
 15130 2b17 00       		.byte	0
 15131 2b18 00       		.byte	0
 15132 2b19 00       		.byte	0
 15133 2b1a 7C       		.byte	124
 15134 2b1b 3E       		.byte	62
 15135 2b1c 18       		.byte	24
 15136 2b1d 0C       		.byte	12
 15137 2b1e 18       		.byte	24
 15138 2b1f 08       		.byte	8
 15139 2b20 18       		.byte	24
 15140 2b21 18       		.byte	24
 15141 2b22 0C       		.byte	12
 15142 2b23 10       		.byte	16
 15143 2b24 0C       		.byte	12
 15144 2b25 10       		.byte	16
 15145 2b26 04       		.byte	4
 15146 2b27 20       		.byte	32
 15147 2b28 06       		.byte	6
 15148 2b29 20       		.byte	32
 15149 2b2a 06       		.byte	6
ARM GAS  c:\Users\lenovo\AppData\Local\Temp\cc7gPbIA.s 			page 290


 15150 2b2b 20       		.byte	32
 15151 2b2c 03       		.byte	3
 15152 2b2d 40       		.byte	64
 15153 2b2e 03       		.byte	3
 15154 2b2f 40       		.byte	64
 15155 2b30 03       		.byte	3
 15156 2b31 C0       		.byte	-64
 15157 2b32 01       		.byte	1
 15158 2b33 80       		.byte	-128
 15159 2b34 01       		.byte	1
 15160 2b35 80       		.byte	-128
 15161 2b36 01       		.byte	1
 15162 2b37 00       		.byte	0
 15163 2b38 00       		.byte	0
 15164 2b39 00       		.byte	0
 15165 2b3a 00       		.byte	0
 15166 2b3b 00       		.byte	0
 15167 2b3c 00       		.byte	0
 15168 2b3d 00       		.byte	0
 15169 2b3e 00       		.byte	0
 15170 2b3f 00       		.byte	0
 15171 2b40 00000000 		.space	64
 15171      00000000 
 15171      00000000 
 15171      00000000 
 15171      00000000 
 15172 2b80 00       		.byte	0
 15173 2b81 00       		.byte	0
 15174 2b82 00       		.byte	0
 15175 2b83 00       		.byte	0
 15176 2b84 00       		.byte	0
 15177 2b85 00       		.byte	0
 15178 2b86 00       		.byte	0
 15179 2b87 00       		.byte	0
 15180 2b88 00       		.byte	0
 15181 2b89 00       		.byte	0
 15182 2b8a 00       		.byte	0
 15183 2b8b 00       		.byte	0
 15184 2b8c 00       		.byte	0
 15185 2b8d 00       		.byte	0
 15186 2b8e 00       		.byte	0
 15187 2b8f 00       		.byte	0
 15188 2b90 00       		.byte	0
 15189 2b91 00       		.byte	0
 15190 2b92 00       		.byte	0
 15191 2b93 00       		.byte	0
 15192 2b94 00       		.byte	0
 15193 2b95 00       		.byte	0
 15194 2b96 00       		.byte	0
 15195 2b97 00       		.byte	0
 15196 2b98 00       		.byte	0
 15197 2b99 00       		.byte	0
 15198 2b9a FB       		.byte	-5
 15199 2b9b CF       		.byte	-49
 15200 2b9c 61       		.byte	97
 15201 2b9d 86       		.byte	-122
 15202 2b9e 21       		.byte	33
ARM GAS  c:\Users\lenovo\AppData\Local\Temp\cc7gPbIA.s 			page 291


 15203 2b9f 84       		.byte	-124
 15204 2ba0 31       		.byte	49
 15205 2ba1 84       		.byte	-124
 15206 2ba2 31       		.byte	49
 15207 2ba3 84       		.byte	-124
 15208 2ba4 31       		.byte	49
 15209 2ba5 C8       		.byte	-56
 15210 2ba6 11       		.byte	17
 15211 2ba7 C8       		.byte	-56
 15212 2ba8 1A       		.byte	26
 15213 2ba9 C8       		.byte	-56
 15214 2baa 1A       		.byte	26
 15215 2bab 48       		.byte	72
 15216 2bac 1A       		.byte	26
 15217 2bad 70       		.byte	112
 15218 2bae 0E       		.byte	14
 15219 2baf 70       		.byte	112
 15220 2bb0 0C       		.byte	12
 15221 2bb1 70       		.byte	112
 15222 2bb2 0C       		.byte	12
 15223 2bb3 30       		.byte	48
 15224 2bb4 0C       		.byte	12
 15225 2bb5 20       		.byte	32
 15226 2bb6 04       		.byte	4
 15227 2bb7 20       		.byte	32
 15228 2bb8 00       		.byte	0
 15229 2bb9 00       		.byte	0
 15230 2bba 00       		.byte	0
 15231 2bbb 00       		.byte	0
 15232 2bbc 00       		.byte	0
 15233 2bbd 00       		.byte	0
 15234 2bbe 00       		.byte	0
 15235 2bbf 00       		.byte	0
 15236 2bc0 00000000 		.space	64
 15236      00000000 
 15236      00000000 
 15236      00000000 
 15236      00000000 
 15237 2c00 00       		.byte	0
 15238 2c01 00       		.byte	0
 15239 2c02 00       		.byte	0
 15240 2c03 00       		.byte	0
 15241 2c04 00       		.byte	0
 15242 2c05 00       		.byte	0
 15243 2c06 00       		.byte	0
 15244 2c07 00       		.byte	0
 15245 2c08 00       		.byte	0
 15246 2c09 00       		.byte	0
 15247 2c0a 00       		.byte	0
 15248 2c0b 00       		.byte	0
 15249 2c0c 00       		.byte	0
 15250 2c0d 00       		.byte	0
 15251 2c0e 00       		.byte	0
 15252 2c0f 00       		.byte	0
 15253 2c10 00       		.byte	0
 15254 2c11 00       		.byte	0
 15255 2c12 00       		.byte	0
ARM GAS  c:\Users\lenovo\AppData\Local\Temp\cc7gPbIA.s 			page 292


 15256 2c13 00       		.byte	0
 15257 2c14 00       		.byte	0
 15258 2c15 00       		.byte	0
 15259 2c16 00       		.byte	0
 15260 2c17 00       		.byte	0
 15261 2c18 00       		.byte	0
 15262 2c19 00       		.byte	0
 15263 2c1a 3E       		.byte	62
 15264 2c1b 7C       		.byte	124
 15265 2c1c 0C       		.byte	12
 15266 2c1d 10       		.byte	16
 15267 2c1e 0E       		.byte	14
 15268 2c1f 10       		.byte	16
 15269 2c20 06       		.byte	6
 15270 2c21 20       		.byte	32
 15271 2c22 03       		.byte	3
 15272 2c23 40       		.byte	64
 15273 2c24 03       		.byte	3
 15274 2c25 40       		.byte	64
 15275 2c26 01       		.byte	1
 15276 2c27 80       		.byte	-128
 15277 2c28 01       		.byte	1
 15278 2c29 80       		.byte	-128
 15279 2c2a 01       		.byte	1
 15280 2c2b C0       		.byte	-64
 15281 2c2c 02       		.byte	2
 15282 2c2d 60       		.byte	96
 15283 2c2e 04       		.byte	4
 15284 2c2f 60       		.byte	96
 15285 2c30 04       		.byte	4
 15286 2c31 30       		.byte	48
 15287 2c32 08       		.byte	8
 15288 2c33 18       		.byte	24
 15289 2c34 18       		.byte	24
 15290 2c35 18       		.byte	24
 15291 2c36 7C       		.byte	124
 15292 2c37 7E       		.byte	126
 15293 2c38 00       		.byte	0
 15294 2c39 00       		.byte	0
 15295 2c3a 00       		.byte	0
 15296 2c3b 00       		.byte	0
 15297 2c3c 00       		.byte	0
 15298 2c3d 00       		.byte	0
 15299 2c3e 00       		.byte	0
 15300 2c3f 00       		.byte	0
 15301 2c40 00000000 		.space	64
 15301      00000000 
 15301      00000000 
 15301      00000000 
 15301      00000000 
 15302 2c80 00       		.byte	0
 15303 2c81 00       		.byte	0
 15304 2c82 00       		.byte	0
 15305 2c83 00       		.byte	0
 15306 2c84 00       		.byte	0
 15307 2c85 00       		.byte	0
 15308 2c86 00       		.byte	0
ARM GAS  c:\Users\lenovo\AppData\Local\Temp\cc7gPbIA.s 			page 293


 15309 2c87 00       		.byte	0
 15310 2c88 00       		.byte	0
 15311 2c89 00       		.byte	0
 15312 2c8a 00       		.byte	0
 15313 2c8b 00       		.byte	0
 15314 2c8c 00       		.byte	0
 15315 2c8d 00       		.byte	0
 15316 2c8e 00       		.byte	0
 15317 2c8f 00       		.byte	0
 15318 2c90 00       		.byte	0
 15319 2c91 00       		.byte	0
 15320 2c92 00       		.byte	0
 15321 2c93 00       		.byte	0
 15322 2c94 00       		.byte	0
 15323 2c95 00       		.byte	0
 15324 2c96 00       		.byte	0
 15325 2c97 00       		.byte	0
 15326 2c98 00       		.byte	0
 15327 2c99 00       		.byte	0
 15328 2c9a 7C       		.byte	124
 15329 2c9b 3E       		.byte	62
 15330 2c9c 18       		.byte	24
 15331 2c9d 18       		.byte	24
 15332 2c9e 18       		.byte	24
 15333 2c9f 10       		.byte	16
 15334 2ca0 08       		.byte	8
 15335 2ca1 10       		.byte	16
 15336 2ca2 0C       		.byte	12
 15337 2ca3 10       		.byte	16
 15338 2ca4 04       		.byte	4
 15339 2ca5 20       		.byte	32
 15340 2ca6 06       		.byte	6
 15341 2ca7 20       		.byte	32
 15342 2ca8 06       		.byte	6
 15343 2ca9 20       		.byte	32
 15344 2caa 02       		.byte	2
 15345 2cab 40       		.byte	64
 15346 2cac 03       		.byte	3
 15347 2cad 40       		.byte	64
 15348 2cae 01       		.byte	1
 15349 2caf 40       		.byte	64
 15350 2cb0 01       		.byte	1
 15351 2cb1 80       		.byte	-128
 15352 2cb2 01       		.byte	1
 15353 2cb3 80       		.byte	-128
 15354 2cb4 01       		.byte	1
 15355 2cb5 00       		.byte	0
 15356 2cb6 01       		.byte	1
 15357 2cb7 00       		.byte	0
 15358 2cb8 01       		.byte	1
 15359 2cb9 00       		.byte	0
 15360 2cba 02       		.byte	2
 15361 2cbb 00       		.byte	0
 15362 2cbc 3E       		.byte	62
 15363 2cbd 00       		.byte	0
 15364 2cbe 3C       		.byte	60
 15365 2cbf 00       		.byte	0
ARM GAS  c:\Users\lenovo\AppData\Local\Temp\cc7gPbIA.s 			page 294


 15366 2cc0 00000000 		.space	64
 15366      00000000 
 15366      00000000 
 15366      00000000 
 15366      00000000 
 15367 2d00 00       		.byte	0
 15368 2d01 00       		.byte	0
 15369 2d02 00       		.byte	0
 15370 2d03 00       		.byte	0
 15371 2d04 00       		.byte	0
 15372 2d05 00       		.byte	0
 15373 2d06 00       		.byte	0
 15374 2d07 00       		.byte	0
 15375 2d08 00       		.byte	0
 15376 2d09 00       		.byte	0
 15377 2d0a 00       		.byte	0
 15378 2d0b 00       		.byte	0
 15379 2d0c 00       		.byte	0
 15380 2d0d 00       		.byte	0
 15381 2d0e 00       		.byte	0
 15382 2d0f 00       		.byte	0
 15383 2d10 00       		.byte	0
 15384 2d11 00       		.byte	0
 15385 2d12 00       		.byte	0
 15386 2d13 00       		.byte	0
 15387 2d14 00       		.byte	0
 15388 2d15 00       		.byte	0
 15389 2d16 00       		.byte	0
 15390 2d17 00       		.byte	0
 15391 2d18 00       		.byte	0
 15392 2d19 00       		.byte	0
 15393 2d1a 3F       		.byte	63
 15394 2d1b F8       		.byte	-8
 15395 2d1c 30       		.byte	48
 15396 2d1d 38       		.byte	56
 15397 2d1e 30       		.byte	48
 15398 2d1f 30       		.byte	48
 15399 2d20 20       		.byte	32
 15400 2d21 60       		.byte	96
 15401 2d22 20       		.byte	32
 15402 2d23 E0       		.byte	-32
 15403 2d24 00       		.byte	0
 15404 2d25 C0       		.byte	-64
 15405 2d26 01       		.byte	1
 15406 2d27 80       		.byte	-128
 15407 2d28 03       		.byte	3
 15408 2d29 80       		.byte	-128
 15409 2d2a 03       		.byte	3
 15410 2d2b 00       		.byte	0
 15411 2d2c 06       		.byte	6
 15412 2d2d 00       		.byte	0
 15413 2d2e 0E       		.byte	14
 15414 2d2f 04       		.byte	4
 15415 2d30 0C       		.byte	12
 15416 2d31 04       		.byte	4
 15417 2d32 18       		.byte	24
 15418 2d33 0C       		.byte	12
ARM GAS  c:\Users\lenovo\AppData\Local\Temp\cc7gPbIA.s 			page 295


 15419 2d34 30       		.byte	48
 15420 2d35 18       		.byte	24
 15421 2d36 3F       		.byte	63
 15422 2d37 F8       		.byte	-8
 15423 2d38 00       		.byte	0
 15424 2d39 00       		.byte	0
 15425 2d3a 00       		.byte	0
 15426 2d3b 00       		.byte	0
 15427 2d3c 00       		.byte	0
 15428 2d3d 00       		.byte	0
 15429 2d3e 00       		.byte	0
 15430 2d3f 00       		.byte	0
 15431 2d40 00000000 		.space	64
 15431      00000000 
 15431      00000000 
 15431      00000000 
 15431      00000000 
 15432 2d80 00       		.byte	0
 15433 2d81 00       		.byte	0
 15434 2d82 00       		.byte	0
 15435 2d83 00       		.byte	0
 15436 2d84 00       		.byte	0
 15437 2d85 0C       		.byte	12
 15438 2d86 00       		.byte	0
 15439 2d87 10       		.byte	16
 15440 2d88 00       		.byte	0
 15441 2d89 20       		.byte	32
 15442 2d8a 00       		.byte	0
 15443 2d8b 20       		.byte	32
 15444 2d8c 00       		.byte	0
 15445 2d8d 20       		.byte	32
 15446 2d8e 00       		.byte	0
 15447 2d8f 20       		.byte	32
 15448 2d90 00       		.byte	0
 15449 2d91 20       		.byte	32
 15450 2d92 00       		.byte	0
 15451 2d93 20       		.byte	32
 15452 2d94 00       		.byte	0
 15453 2d95 20       		.byte	32
 15454 2d96 00       		.byte	0
 15455 2d97 20       		.byte	32
 15456 2d98 00       		.byte	0
 15457 2d99 20       		.byte	32
 15458 2d9a 00       		.byte	0
 15459 2d9b 20       		.byte	32
 15460 2d9c 00       		.byte	0
 15461 2d9d 20       		.byte	32
 15462 2d9e 00       		.byte	0
 15463 2d9f C0       		.byte	-64
 15464 2da0 01       		.byte	1
 15465 2da1 80       		.byte	-128
 15466 2da2 00       		.byte	0
 15467 2da3 40       		.byte	64
 15468 2da4 00       		.byte	0
 15469 2da5 20       		.byte	32
 15470 2da6 00       		.byte	0
 15471 2da7 20       		.byte	32
ARM GAS  c:\Users\lenovo\AppData\Local\Temp\cc7gPbIA.s 			page 296


 15472 2da8 00       		.byte	0
 15473 2da9 20       		.byte	32
 15474 2daa 00       		.byte	0
 15475 2dab 20       		.byte	32
 15476 2dac 00       		.byte	0
 15477 2dad 20       		.byte	32
 15478 2dae 00       		.byte	0
 15479 2daf 20       		.byte	32
 15480 2db0 00       		.byte	0
 15481 2db1 20       		.byte	32
 15482 2db2 00       		.byte	0
 15483 2db3 20       		.byte	32
 15484 2db4 00       		.byte	0
 15485 2db5 20       		.byte	32
 15486 2db6 00       		.byte	0
 15487 2db7 20       		.byte	32
 15488 2db8 00       		.byte	0
 15489 2db9 20       		.byte	32
 15490 2dba 00       		.byte	0
 15491 2dbb 10       		.byte	16
 15492 2dbc 00       		.byte	0
 15493 2dbd 0C       		.byte	12
 15494 2dbe 00       		.byte	0
 15495 2dbf 00       		.byte	0
 15496 2dc0 00000000 		.space	64
 15496      00000000 
 15496      00000000 
 15496      00000000 
 15496      00000000 
 15497 2e00 00       		.byte	0
 15498 2e01 80       		.byte	-128
 15499 2e02 00       		.byte	0
 15500 2e03 80       		.byte	-128
 15501 2e04 00       		.byte	0
 15502 2e05 80       		.byte	-128
 15503 2e06 00       		.byte	0
 15504 2e07 80       		.byte	-128
 15505 2e08 00       		.byte	0
 15506 2e09 80       		.byte	-128
 15507 2e0a 00       		.byte	0
 15508 2e0b 80       		.byte	-128
 15509 2e0c 00       		.byte	0
 15510 2e0d 80       		.byte	-128
 15511 2e0e 00       		.byte	0
 15512 2e0f 80       		.byte	-128
 15513 2e10 00       		.byte	0
 15514 2e11 80       		.byte	-128
 15515 2e12 00       		.byte	0
 15516 2e13 80       		.byte	-128
 15517 2e14 00       		.byte	0
 15518 2e15 80       		.byte	-128
 15519 2e16 00       		.byte	0
 15520 2e17 80       		.byte	-128
 15521 2e18 00       		.byte	0
 15522 2e19 80       		.byte	-128
 15523 2e1a 00       		.byte	0
 15524 2e1b 80       		.byte	-128
ARM GAS  c:\Users\lenovo\AppData\Local\Temp\cc7gPbIA.s 			page 297


 15525 2e1c 00       		.byte	0
 15526 2e1d 80       		.byte	-128
 15527 2e1e 00       		.byte	0
 15528 2e1f 80       		.byte	-128
 15529 2e20 00       		.byte	0
 15530 2e21 80       		.byte	-128
 15531 2e22 00       		.byte	0
 15532 2e23 80       		.byte	-128
 15533 2e24 00       		.byte	0
 15534 2e25 80       		.byte	-128
 15535 2e26 00       		.byte	0
 15536 2e27 80       		.byte	-128
 15537 2e28 00       		.byte	0
 15538 2e29 80       		.byte	-128
 15539 2e2a 00       		.byte	0
 15540 2e2b 80       		.byte	-128
 15541 2e2c 00       		.byte	0
 15542 2e2d 80       		.byte	-128
 15543 2e2e 00       		.byte	0
 15544 2e2f 80       		.byte	-128
 15545 2e30 00       		.byte	0
 15546 2e31 80       		.byte	-128
 15547 2e32 00       		.byte	0
 15548 2e33 80       		.byte	-128
 15549 2e34 00       		.byte	0
 15550 2e35 80       		.byte	-128
 15551 2e36 00       		.byte	0
 15552 2e37 80       		.byte	-128
 15553 2e38 00       		.byte	0
 15554 2e39 80       		.byte	-128
 15555 2e3a 00       		.byte	0
 15556 2e3b 80       		.byte	-128
 15557 2e3c 00       		.byte	0
 15558 2e3d 80       		.byte	-128
 15559 2e3e 00       		.byte	0
 15560 2e3f 80       		.byte	-128
 15561 2e40 00000000 		.space	64
 15561      00000000 
 15561      00000000 
 15561      00000000 
 15561      00000000 
 15562 2e80 00       		.byte	0
 15563 2e81 00       		.byte	0
 15564 2e82 00       		.byte	0
 15565 2e83 00       		.byte	0
 15566 2e84 18       		.byte	24
 15567 2e85 00       		.byte	0
 15568 2e86 04       		.byte	4
 15569 2e87 00       		.byte	0
 15570 2e88 02       		.byte	2
 15571 2e89 00       		.byte	0
 15572 2e8a 02       		.byte	2
 15573 2e8b 00       		.byte	0
 15574 2e8c 02       		.byte	2
 15575 2e8d 00       		.byte	0
 15576 2e8e 02       		.byte	2
 15577 2e8f 00       		.byte	0
ARM GAS  c:\Users\lenovo\AppData\Local\Temp\cc7gPbIA.s 			page 298


 15578 2e90 02       		.byte	2
 15579 2e91 00       		.byte	0
 15580 2e92 02       		.byte	2
 15581 2e93 00       		.byte	0
 15582 2e94 02       		.byte	2
 15583 2e95 00       		.byte	0
 15584 2e96 02       		.byte	2
 15585 2e97 00       		.byte	0
 15586 2e98 02       		.byte	2
 15587 2e99 00       		.byte	0
 15588 2e9a 02       		.byte	2
 15589 2e9b 00       		.byte	0
 15590 2e9c 02       		.byte	2
 15591 2e9d 00       		.byte	0
 15592 2e9e 01       		.byte	1
 15593 2e9f 80       		.byte	-128
 15594 2ea0 00       		.byte	0
 15595 2ea1 C0       		.byte	-64
 15596 2ea2 01       		.byte	1
 15597 2ea3 00       		.byte	0
 15598 2ea4 02       		.byte	2
 15599 2ea5 00       		.byte	0
 15600 2ea6 02       		.byte	2
 15601 2ea7 00       		.byte	0
 15602 2ea8 02       		.byte	2
 15603 2ea9 00       		.byte	0
 15604 2eaa 02       		.byte	2
 15605 2eab 00       		.byte	0
 15606 2eac 02       		.byte	2
 15607 2ead 00       		.byte	0
 15608 2eae 02       		.byte	2
 15609 2eaf 00       		.byte	0
 15610 2eb0 02       		.byte	2
 15611 2eb1 00       		.byte	0
 15612 2eb2 02       		.byte	2
 15613 2eb3 00       		.byte	0
 15614 2eb4 02       		.byte	2
 15615 2eb5 00       		.byte	0
 15616 2eb6 02       		.byte	2
 15617 2eb7 00       		.byte	0
 15618 2eb8 02       		.byte	2
 15619 2eb9 00       		.byte	0
 15620 2eba 04       		.byte	4
 15621 2ebb 00       		.byte	0
 15622 2ebc 18       		.byte	24
 15623 2ebd 00       		.byte	0
 15624 2ebe 00       		.byte	0
 15625 2ebf 00       		.byte	0
 15626 2ec0 00000000 		.space	64
 15626      00000000 
 15626      00000000 
 15626      00000000 
 15626      00000000 
 15627 2f00 00       		.byte	0
 15628 2f01 00       		.byte	0
 15629 2f02 1E       		.byte	30
 15630 2f03 00       		.byte	0
ARM GAS  c:\Users\lenovo\AppData\Local\Temp\cc7gPbIA.s 			page 299


 15631 2f04 23       		.byte	35
 15632 2f05 00       		.byte	0
 15633 2f06 41       		.byte	65
 15634 2f07 82       		.byte	-126
 15635 2f08 40       		.byte	64
 15636 2f09 82       		.byte	-126
 15637 2f0a 00       		.byte	0
 15638 2f0b E4       		.byte	-28
 15639 2f0c 00       		.byte	0
 15640 2f0d 38       		.byte	56
 15641 2f0e 00       		.byte	0
 15642 2f0f 00       		.byte	0
 15643 2f10 00       		.byte	0
 15644 2f11 00       		.byte	0
 15645 2f12 00       		.byte	0
 15646 2f13 00       		.byte	0
 15647 2f14 00       		.byte	0
 15648 2f15 00       		.byte	0
 15649 2f16 00       		.byte	0
 15650 2f17 00       		.byte	0
 15651 2f18 00       		.byte	0
 15652 2f19 00       		.byte	0
 15653 2f1a 00       		.byte	0
 15654 2f1b 00       		.byte	0
 15655 2f1c 00       		.byte	0
 15656 2f1d 00       		.byte	0
 15657 2f1e 00       		.byte	0
 15658 2f1f 00       		.byte	0
 15659 2f20 00       		.byte	0
 15660 2f21 00       		.byte	0
 15661 2f22 00       		.byte	0
 15662 2f23 00       		.byte	0
 15663 2f24 00       		.byte	0
 15664 2f25 00       		.byte	0
 15665 2f26 00       		.byte	0
 15666 2f27 00       		.byte	0
 15667 2f28 00       		.byte	0
 15668 2f29 00       		.byte	0
 15669 2f2a 00       		.byte	0
 15670 2f2b 00       		.byte	0
 15671 2f2c 00       		.byte	0
 15672 2f2d 00       		.byte	0
 15673 2f2e 00       		.byte	0
 15674 2f2f 00       		.byte	0
 15675 2f30 00       		.byte	0
 15676 2f31 00       		.byte	0
 15677 2f32 00       		.byte	0
 15678 2f33 00       		.byte	0
 15679 2f34 00       		.byte	0
 15680 2f35 00       		.byte	0
 15681 2f36 00       		.byte	0
 15682 2f37 00       		.byte	0
 15683 2f38 00       		.byte	0
 15684 2f39 00       		.byte	0
 15685 2f3a 00       		.byte	0
 15686 2f3b 00       		.byte	0
 15687 2f3c 00       		.byte	0
ARM GAS  c:\Users\lenovo\AppData\Local\Temp\cc7gPbIA.s 			page 300


 15688 2f3d 00       		.byte	0
 15689 2f3e 00       		.byte	0
 15690 2f3f 00       		.byte	0
 15691 2f40 00000000 		.space	64
 15691      00000000 
 15691      00000000 
 15691      00000000 
 15691      00000000 
 15692              		.text
 15693              	.Letext0:
 15694              		.file 2 "c:\\program files (x86)\\liteos studio\\resources\\arm-none-eabi\\arm-none-eabi\\include\
 15695              		.file 3 "c:\\program files (x86)\\liteos studio\\resources\\arm-none-eabi\\arm-none-eabi\\include\
 15696              		.file 4 "c:\\program files (x86)\\liteos studio\\resources\\arm-none-eabi\\arm-none-eabi\\include\
 15697              		.file 5 "c:\\program files (x86)\\liteos studio\\resources\\arm-none-eabi\\lib\\gcc\\arm-none-eabi
 15698              		.file 6 "c:\\program files (x86)\\liteos studio\\resources\\arm-none-eabi\\arm-none-eabi\\include\
 15699              		.file 7 "C:/Users/lenovo/Desktop/liteos/Project2/BearPi_LiteOS/kernel/include/los_typedef.h"
 15700              		.file 8 "c:\\program files (x86)\\liteos studio\\resources\\arm-none-eabi\\arm-none-eabi\\include\
 15701              		.file 9 "C:/Users/lenovo/Desktop/liteos/Project2/BearPi_LiteOS/arch/arm/common/cmsis/core_cm4.h"
 15702              		.file 10 "C:/Users/lenovo/Desktop/liteos/Project2/BearPi_LiteOS/targets/STM32L431_BearPi/Inc/syste
 15703              		.file 11 "C:/Users/lenovo/Desktop/liteos/Project2/BearPi_LiteOS/targets/STM32L431_BearPi/Inc/stm32
 15704              		.file 12 "C:/Users/lenovo/Desktop/liteos/Project2/BearPi_LiteOS/targets/STM32L431_BearPi/OS_CONFIG
 15705              		.file 13 "C:/Users/lenovo/Desktop/liteos/Project2/BearPi_LiteOS/kernel/include/los_config.h"
 15706              		.file 14 "C:/Users/lenovo/Desktop/liteos/Project2/BearPi_LiteOS/kernel/include/los_list.h"
 15707              		.file 15 "C:/Users/lenovo/Desktop/liteos/Project2/BearPi_LiteOS/kernel/include/los_err.h"
 15708              		.file 16 "C:/Users/lenovo/Desktop/liteos/Project2/BearPi_LiteOS/arch/arm/arm-m/include/los_hwi.h"
 15709              		.file 17 "C:/Users/lenovo/Desktop/liteos/Project2/BearPi_LiteOS/kernel/include/los_tick.h"
 15710              		.file 18 "C:/Users/lenovo/Desktop/liteos/Project2/BearPi_LiteOS/kernel/include/los_event.h"
 15711              		.file 19 "C:/Users/lenovo/Desktop/liteos/Project2/BearPi_LiteOS/kernel/include/los_task.h"
 15712              		.file 20 "C:/Users/lenovo/Desktop/liteos/Project2/BearPi_LiteOS/kernel/base/include/los_task.ph"
 15713              		.file 21 "C:/Users/lenovo/Desktop/liteos/Project2/BearPi_LiteOS/targets/STM32L431_BearPi/Inc/main.
 15714              		.file 22 "C:/Users/lenovo/Desktop/liteos/Project2/BearPi_LiteOS/targets/STM32L431_BearPi/Drivers/S
 15715              		.file 23 "C:/Users/lenovo/Desktop/liteos/Project2/BearPi_LiteOS/targets/STM32L431_BearPi/Drivers/S
 15716              		.file 24 "C:/Users/lenovo/Desktop/liteos/Project2/BearPi_LiteOS/targets/STM32L431_BearPi/Drivers/S
 15717              		.file 25 "C:/Users/lenovo/Desktop/liteos/Project2/BearPi_LiteOS/targets/STM32L431_BearPi/Drivers/S
 15718              		.file 26 "C:/Users/lenovo/Desktop/liteos/Project2/BearPi_LiteOS/targets/STM32L431_BearPi/Hardware/
 15719              		.file 27 "C:/Users/lenovo/Desktop/liteos/Project2/BearPi_LiteOS/targets/STM32L431_BearPi/Hardware/
 15720              		.file 28 "C:/Users/lenovo/Desktop/liteos/Project2/BearPi_LiteOS/targets/STM32L431_BearPi/Inc/spi.h
 15721              		.file 29 "C:/Users/lenovo/Desktop/liteos/Project2/BearPi_LiteOS/targets/STM32L431_BearPi/Inc/dwt.h
ARM GAS  c:\Users\lenovo\AppData\Local\Temp\cc7gPbIA.s 			page 301


DEFINED SYMBOLS
                            *ABS*:00000000 lcd.c
c:\Users\lenovo\AppData\Local\Temp\cc7gPbIA.s:18     .text.LCD_Pow:00000000 $t
c:\Users\lenovo\AppData\Local\Temp\cc7gPbIA.s:24     .text.LCD_Pow:00000000 LCD_Pow
c:\Users\lenovo\AppData\Local\Temp\cc7gPbIA.s:59     .text.LCD_SPI_Send:00000000 $t
c:\Users\lenovo\AppData\Local\Temp\cc7gPbIA.s:65     .text.LCD_SPI_Send:00000000 LCD_SPI_Send
c:\Users\lenovo\AppData\Local\Temp\cc7gPbIA.s:86     .text.LCD_Write_Data:00000000 $t
c:\Users\lenovo\AppData\Local\Temp\cc7gPbIA.s:92     .text.LCD_Write_Data:00000000 LCD_Write_Data
c:\Users\lenovo\AppData\Local\Temp\cc7gPbIA.s:130    .text.LCD_Write_Data:00000020 $d
c:\Users\lenovo\AppData\Local\Temp\cc7gPbIA.s:135    .text.LCD_Write_Cmd:00000000 $t
c:\Users\lenovo\AppData\Local\Temp\cc7gPbIA.s:141    .text.LCD_Write_Cmd:00000000 LCD_Write_Cmd
c:\Users\lenovo\AppData\Local\Temp\cc7gPbIA.s:179    .text.LCD_Write_Cmd:00000020 $d
c:\Users\lenovo\AppData\Local\Temp\cc7gPbIA.s:184    .text.LCD_Gpio_Init:00000000 $t
c:\Users\lenovo\AppData\Local\Temp\cc7gPbIA.s:190    .text.LCD_Gpio_Init:00000000 LCD_Gpio_Init
c:\Users\lenovo\AppData\Local\Temp\cc7gPbIA.s:304    .text.LCD_Gpio_Init:0000009c $d
c:\Users\lenovo\AppData\Local\Temp\cc7gPbIA.s:311    .text.LCD_Write_HalfWord:00000000 $t
c:\Users\lenovo\AppData\Local\Temp\cc7gPbIA.s:318    .text.LCD_Write_HalfWord:00000000 LCD_Write_HalfWord
c:\Users\lenovo\AppData\Local\Temp\cc7gPbIA.s:358    .text.LCD_Write_HalfWord:00000028 $d
c:\Users\lenovo\AppData\Local\Temp\cc7gPbIA.s:363    .text.LCD_Address_Set:00000000 $t
c:\Users\lenovo\AppData\Local\Temp\cc7gPbIA.s:370    .text.LCD_Address_Set:00000000 LCD_Address_Set
c:\Users\lenovo\AppData\Local\Temp\cc7gPbIA.s:441    .text.LCD_DisplayOn:00000000 $t
c:\Users\lenovo\AppData\Local\Temp\cc7gPbIA.s:448    .text.LCD_DisplayOn:00000000 LCD_DisplayOn
c:\Users\lenovo\AppData\Local\Temp\cc7gPbIA.s:470    .text.LCD_DisplayOn:00000010 $d
c:\Users\lenovo\AppData\Local\Temp\cc7gPbIA.s:475    .text.LCD_DisplayOff:00000000 $t
c:\Users\lenovo\AppData\Local\Temp\cc7gPbIA.s:482    .text.LCD_DisplayOff:00000000 LCD_DisplayOff
c:\Users\lenovo\AppData\Local\Temp\cc7gPbIA.s:504    .text.LCD_DisplayOff:00000010 $d
c:\Users\lenovo\AppData\Local\Temp\cc7gPbIA.s:509    .text.LCD_Clear:00000000 $t
c:\Users\lenovo\AppData\Local\Temp\cc7gPbIA.s:516    .text.LCD_Clear:00000000 LCD_Clear
c:\Users\lenovo\AppData\Local\Temp\cc7gPbIA.s:594    .text.LCD_Clear:00000050 $d
c:\Users\lenovo\AppData\Local\Temp\cc7gPbIA.s:600    .text.LCD_Fill:00000000 $t
c:\Users\lenovo\AppData\Local\Temp\cc7gPbIA.s:607    .text.LCD_Fill:00000000 LCD_Fill
c:\Users\lenovo\AppData\Local\Temp\cc7gPbIA.s:707    .text.LCD_Fill:0000006c $d
c:\Users\lenovo\AppData\Local\Temp\cc7gPbIA.s:713    .text.LCD_Draw_Point:00000000 $t
c:\Users\lenovo\AppData\Local\Temp\cc7gPbIA.s:720    .text.LCD_Draw_Point:00000000 LCD_Draw_Point
c:\Users\lenovo\AppData\Local\Temp\cc7gPbIA.s:747    .text.LCD_Draw_Point:00000014 $d
c:\Users\lenovo\AppData\Local\Temp\cc7gPbIA.s:752    .text.LCD_Draw_ColorPoint:00000000 $t
c:\Users\lenovo\AppData\Local\Temp\cc7gPbIA.s:759    .text.LCD_Draw_ColorPoint:00000000 LCD_Draw_ColorPoint
c:\Users\lenovo\AppData\Local\Temp\cc7gPbIA.s:788    .text.LCD_DrawLine:00000000 $t
c:\Users\lenovo\AppData\Local\Temp\cc7gPbIA.s:795    .text.LCD_DrawLine:00000000 LCD_DrawLine
c:\Users\lenovo\AppData\Local\Temp\cc7gPbIA.s:999    .text.LCD_DrawLine:000000e4 $d
c:\Users\lenovo\AppData\Local\Temp\cc7gPbIA.s:1006   .text.LCD_DrawRectangle:00000000 $t
c:\Users\lenovo\AppData\Local\Temp\cc7gPbIA.s:1013   .text.LCD_DrawRectangle:00000000 LCD_DrawRectangle
c:\Users\lenovo\AppData\Local\Temp\cc7gPbIA.s:1065   .text.LCD_Draw_Circle:00000000 $t
c:\Users\lenovo\AppData\Local\Temp\cc7gPbIA.s:1072   .text.LCD_Draw_Circle:00000000 LCD_Draw_Circle
c:\Users\lenovo\AppData\Local\Temp\cc7gPbIA.s:1218   .text.LCD_ShowChar:00000000 $t
c:\Users\lenovo\AppData\Local\Temp\cc7gPbIA.s:1225   .text.LCD_ShowChar:00000000 LCD_ShowChar
c:\Users\lenovo\AppData\Local\Temp\cc7gPbIA.s:1507   .text.LCD_ShowChar:0000014c $d
c:\Users\lenovo\AppData\Local\Temp\cc7gPbIA.s:9516   .rodata.asc2_3216:00000000 asc2_3216
c:\Users\lenovo\AppData\Local\Temp\cc7gPbIA.s:4951   .rodata.asc2_2412:00000000 asc2_2412
c:\Users\lenovo\AppData\Local\Temp\cc7gPbIA.s:1517   .text.LCD_ShowNum:00000000 $t
c:\Users\lenovo\AppData\Local\Temp\cc7gPbIA.s:1524   .text.LCD_ShowNum:00000000 LCD_ShowNum
c:\Users\lenovo\AppData\Local\Temp\cc7gPbIA.s:1630   .text.LCD_ShowNum:00000080 $d
c:\Users\lenovo\AppData\Local\Temp\cc7gPbIA.s:1635   .text.LCD_ShowxNum:00000000 $t
c:\Users\lenovo\AppData\Local\Temp\cc7gPbIA.s:1642   .text.LCD_ShowxNum:00000000 LCD_ShowxNum
c:\Users\lenovo\AppData\Local\Temp\cc7gPbIA.s:1767   .text.LCD_ShowxNum:000000a0 $d
c:\Users\lenovo\AppData\Local\Temp\cc7gPbIA.s:1772   .text.LCD_ShowString:00000000 $t
c:\Users\lenovo\AppData\Local\Temp\cc7gPbIA.s:1779   .text.LCD_ShowString:00000000 LCD_ShowString
ARM GAS  c:\Users\lenovo\AppData\Local\Temp\cc7gPbIA.s 			page 302


c:\Users\lenovo\AppData\Local\Temp\cc7gPbIA.s:1859   .text.LCD_Show_Image:00000000 $t
c:\Users\lenovo\AppData\Local\Temp\cc7gPbIA.s:1866   .text.LCD_Show_Image:00000000 LCD_Show_Image
c:\Users\lenovo\AppData\Local\Temp\cc7gPbIA.s:1948   .text.LCD_Show_Image:00000070 $d
c:\Users\lenovo\AppData\Local\Temp\cc7gPbIA.s:1953   .text.LCD_Init:00000000 $t
c:\Users\lenovo\AppData\Local\Temp\cc7gPbIA.s:1960   .text.LCD_Init:00000000 LCD_Init
c:\Users\lenovo\AppData\Local\Temp\cc7gPbIA.s:2244   .text.LCD_Init:0000019c $d
c:\Users\lenovo\AppData\Local\Temp\cc7gPbIA.s:2273   .data.BACK_COLOR:00000000 BACK_COLOR
c:\Users\lenovo\AppData\Local\Temp\cc7gPbIA.s:2259   .bss.POINT_COLOR:00000000 POINT_COLOR
c:\Users\lenovo\AppData\Local\Temp\cc7gPbIA.s:3426   .rodata.asc2_1608:00000000 asc2_1608
c:\Users\lenovo\AppData\Local\Temp\cc7gPbIA.s:2280   .rodata.asc2_1206:00000000 asc2_1206
c:\Users\lenovo\AppData\Local\Temp\cc7gPbIA.s:2255   .bss.POINT_COLOR:00000000 $d
c:\Users\lenovo\AppData\Local\Temp\cc7gPbIA.s:2262   .bss.lcd_buf:00000000 $d
c:\Users\lenovo\AppData\Local\Temp\cc7gPbIA.s:2266   .bss.lcd_buf:00000000 lcd_buf
c:\Users\lenovo\AppData\Local\Temp\cc7gPbIA.s:2269   .data.BACK_COLOR:00000000 $d
c:\Users\lenovo\AppData\Local\Temp\cc7gPbIA.s:2276   .rodata.asc2_1206:00000000 $d
c:\Users\lenovo\AppData\Local\Temp\cc7gPbIA.s:3422   .rodata.asc2_1608:00000000 $d
c:\Users\lenovo\AppData\Local\Temp\cc7gPbIA.s:4948   .rodata.asc2_2412:00000000 $d
c:\Users\lenovo\AppData\Local\Temp\cc7gPbIA.s:9513   .rodata.asc2_3216:00000000 $d

UNDEFINED SYMBOLS
SPI2_WriteByte
HAL_GPIO_WritePin
HAL_GPIO_Init
delay10ms
