ARM GAS  c:\Users\lenovo\AppData\Local\Temp\ccHhl9hS.s 			page 1


   1              		.cpu cortex-m4
   2              		.eabi_attribute 27, 1
   3              		.eabi_attribute 28, 1
   4              		.eabi_attribute 20, 1
   5              		.eabi_attribute 21, 1
   6              		.eabi_attribute 23, 3
   7              		.eabi_attribute 24, 1
   8              		.eabi_attribute 25, 1
   9              		.eabi_attribute 26, 1
  10              		.eabi_attribute 30, 1
  11              		.eabi_attribute 34, 1
  12              		.eabi_attribute 18, 4
  13              		.file	"list.c"
  14              		.text
  15              	.Ltext0:
  16              		.cfi_sections	.debug_frame
  17              		.section	.text.lwm2m_list_add,"ax",%progbits
  18              		.align	1
  19              		.global	lwm2m_list_add
  20              		.syntax unified
  21              		.thumb
  22              		.thumb_func
  23              		.fpu fpv4-sp-d16
  25              	lwm2m_list_add:
  26              	.LFB134:
  27              		.file 1 "C:/Users/lenovo/Desktop/liteos/Project2/BearPi_LiteOS/components/connectivity/lwm2m/core/
   1:C:/Users/lenovo/Desktop/liteos/Project2/BearPi_LiteOS/components/connectivity/lwm2m/core\list.c **** /*******************************************************************************
   2:C:/Users/lenovo/Desktop/liteos/Project2/BearPi_LiteOS/components/connectivity/lwm2m/core\list.c ****  *
   3:C:/Users/lenovo/Desktop/liteos/Project2/BearPi_LiteOS/components/connectivity/lwm2m/core\list.c ****  * Copyright (c) 2013 Intel Corporation and others.
   4:C:/Users/lenovo/Desktop/liteos/Project2/BearPi_LiteOS/components/connectivity/lwm2m/core\list.c ****  * All rights reserved. This program and the accompanying materials
   5:C:/Users/lenovo/Desktop/liteos/Project2/BearPi_LiteOS/components/connectivity/lwm2m/core\list.c ****  * are made available under the terms of the Eclipse Public License v1.0
   6:C:/Users/lenovo/Desktop/liteos/Project2/BearPi_LiteOS/components/connectivity/lwm2m/core\list.c ****  * and Eclipse Distribution License v1.0 which accompany this distribution.
   7:C:/Users/lenovo/Desktop/liteos/Project2/BearPi_LiteOS/components/connectivity/lwm2m/core\list.c ****  *
   8:C:/Users/lenovo/Desktop/liteos/Project2/BearPi_LiteOS/components/connectivity/lwm2m/core\list.c ****  * The Eclipse Public License is available at
   9:C:/Users/lenovo/Desktop/liteos/Project2/BearPi_LiteOS/components/connectivity/lwm2m/core\list.c ****  *    http://www.eclipse.org/legal/epl-v10.html
  10:C:/Users/lenovo/Desktop/liteos/Project2/BearPi_LiteOS/components/connectivity/lwm2m/core\list.c ****  * The Eclipse Distribution License is available at
  11:C:/Users/lenovo/Desktop/liteos/Project2/BearPi_LiteOS/components/connectivity/lwm2m/core\list.c ****  *    http://www.eclipse.org/org/documents/edl-v10.php.
  12:C:/Users/lenovo/Desktop/liteos/Project2/BearPi_LiteOS/components/connectivity/lwm2m/core\list.c ****  *
  13:C:/Users/lenovo/Desktop/liteos/Project2/BearPi_LiteOS/components/connectivity/lwm2m/core\list.c ****  * Contributors:
  14:C:/Users/lenovo/Desktop/liteos/Project2/BearPi_LiteOS/components/connectivity/lwm2m/core\list.c ****  *    David Navarro, Intel Corporation - initial API and implementation
  15:C:/Users/lenovo/Desktop/liteos/Project2/BearPi_LiteOS/components/connectivity/lwm2m/core\list.c ****  *
  16:C:/Users/lenovo/Desktop/liteos/Project2/BearPi_LiteOS/components/connectivity/lwm2m/core\list.c ****  *******************************************************************************/
  17:C:/Users/lenovo/Desktop/liteos/Project2/BearPi_LiteOS/components/connectivity/lwm2m/core\list.c **** 
  18:C:/Users/lenovo/Desktop/liteos/Project2/BearPi_LiteOS/components/connectivity/lwm2m/core\list.c **** #include "internals.h"
  19:C:/Users/lenovo/Desktop/liteos/Project2/BearPi_LiteOS/components/connectivity/lwm2m/core\list.c **** 
  20:C:/Users/lenovo/Desktop/liteos/Project2/BearPi_LiteOS/components/connectivity/lwm2m/core\list.c **** 
  21:C:/Users/lenovo/Desktop/liteos/Project2/BearPi_LiteOS/components/connectivity/lwm2m/core\list.c **** lwm2m_list_t *lwm2m_list_add(lwm2m_list_t *head,
  22:C:/Users/lenovo/Desktop/liteos/Project2/BearPi_LiteOS/components/connectivity/lwm2m/core\list.c ****                              lwm2m_list_t *node)
  23:C:/Users/lenovo/Desktop/liteos/Project2/BearPi_LiteOS/components/connectivity/lwm2m/core\list.c **** {
  28              		.loc 1 23 0
  29              		.cfi_startproc
  30              		@ args = 0, pretend = 0, frame = 0
  31              		@ frame_needed = 0, uses_anonymous_args = 0
  32              		@ link register save eliminated.
  33              	.LVL0:
  24:C:/Users/lenovo/Desktop/liteos/Project2/BearPi_LiteOS/components/connectivity/lwm2m/core\list.c ****     lwm2m_list_t *target;
  25:C:/Users/lenovo/Desktop/liteos/Project2/BearPi_LiteOS/components/connectivity/lwm2m/core\list.c **** 
ARM GAS  c:\Users\lenovo\AppData\Local\Temp\ccHhl9hS.s 			page 2


  26:C:/Users/lenovo/Desktop/liteos/Project2/BearPi_LiteOS/components/connectivity/lwm2m/core\list.c ****     if (NULL == head) return node;
  34              		.loc 1 26 0
  35 0000 A8B1     		cbz	r0, .L5
  23:C:/Users/lenovo/Desktop/liteos/Project2/BearPi_LiteOS/components/connectivity/lwm2m/core\list.c ****     lwm2m_list_t *target;
  36              		.loc 1 23 0
  37 0002 30B4     		push	{r4, r5}
  38              	.LCFI0:
  39              		.cfi_def_cfa_offset 8
  40              		.cfi_offset 4, -8
  41              		.cfi_offset 5, -4
  42 0004 0546     		mov	r5, r0
  27:C:/Users/lenovo/Desktop/liteos/Project2/BearPi_LiteOS/components/connectivity/lwm2m/core\list.c **** 
  28:C:/Users/lenovo/Desktop/liteos/Project2/BearPi_LiteOS/components/connectivity/lwm2m/core\list.c ****     if (head->id > node->id)
  43              		.loc 1 28 0
  44 0006 8388     		ldrh	r3, [r0, #4]
  45 0008 8888     		ldrh	r0, [r1, #4]
  46              	.LVL1:
  47 000a 8342     		cmp	r3, r0
  48 000c 01D8     		bhi	.L12
  29:C:/Users/lenovo/Desktop/liteos/Project2/BearPi_LiteOS/components/connectivity/lwm2m/core\list.c ****     {
  30:C:/Users/lenovo/Desktop/liteos/Project2/BearPi_LiteOS/components/connectivity/lwm2m/core\list.c ****         node->next = head;
  31:C:/Users/lenovo/Desktop/liteos/Project2/BearPi_LiteOS/components/connectivity/lwm2m/core\list.c ****         return node;
  32:C:/Users/lenovo/Desktop/liteos/Project2/BearPi_LiteOS/components/connectivity/lwm2m/core\list.c ****     }
  33:C:/Users/lenovo/Desktop/liteos/Project2/BearPi_LiteOS/components/connectivity/lwm2m/core\list.c **** 
  34:C:/Users/lenovo/Desktop/liteos/Project2/BearPi_LiteOS/components/connectivity/lwm2m/core\list.c ****     target = head;
  49              		.loc 1 34 0
  50 000e 2A46     		mov	r2, r5
  51 0010 03E0     		b	.L3
  52              	.L12:
  30:C:/Users/lenovo/Desktop/liteos/Project2/BearPi_LiteOS/components/connectivity/lwm2m/core\list.c ****         return node;
  53              		.loc 1 30 0
  54 0012 0D60     		str	r5, [r1]
  31:C:/Users/lenovo/Desktop/liteos/Project2/BearPi_LiteOS/components/connectivity/lwm2m/core\list.c ****     }
  55              		.loc 1 31 0
  56 0014 0846     		mov	r0, r1
  57 0016 08E0     		b	.L1
  58              	.LVL2:
  59              	.L7:
  35:C:/Users/lenovo/Desktop/liteos/Project2/BearPi_LiteOS/components/connectivity/lwm2m/core\list.c ****     while (NULL != target->next && target->next->id < node->id)
  36:C:/Users/lenovo/Desktop/liteos/Project2/BearPi_LiteOS/components/connectivity/lwm2m/core\list.c ****     {
  37:C:/Users/lenovo/Desktop/liteos/Project2/BearPi_LiteOS/components/connectivity/lwm2m/core\list.c ****         target = target->next;
  60              		.loc 1 37 0
  61 0018 1A46     		mov	r2, r3
  62              	.LVL3:
  63              	.L3:
  35:C:/Users/lenovo/Desktop/liteos/Project2/BearPi_LiteOS/components/connectivity/lwm2m/core\list.c ****     while (NULL != target->next && target->next->id < node->id)
  64              		.loc 1 35 0
  65 001a 1368     		ldr	r3, [r2]
  66 001c 13B1     		cbz	r3, .L4
  35:C:/Users/lenovo/Desktop/liteos/Project2/BearPi_LiteOS/components/connectivity/lwm2m/core\list.c ****     while (NULL != target->next && target->next->id < node->id)
  67              		.loc 1 35 0 is_stmt 0 discriminator 1
  68 001e 9C88     		ldrh	r4, [r3, #4]
  69 0020 A042     		cmp	r0, r4
  70 0022 F9D8     		bhi	.L7
  71              	.L4:
  38:C:/Users/lenovo/Desktop/liteos/Project2/BearPi_LiteOS/components/connectivity/lwm2m/core\list.c ****     }
  39:C:/Users/lenovo/Desktop/liteos/Project2/BearPi_LiteOS/components/connectivity/lwm2m/core\list.c **** 
ARM GAS  c:\Users\lenovo\AppData\Local\Temp\ccHhl9hS.s 			page 3


  40:C:/Users/lenovo/Desktop/liteos/Project2/BearPi_LiteOS/components/connectivity/lwm2m/core\list.c ****     node->next = target->next;
  72              		.loc 1 40 0 is_stmt 1
  73 0024 0B60     		str	r3, [r1]
  41:C:/Users/lenovo/Desktop/liteos/Project2/BearPi_LiteOS/components/connectivity/lwm2m/core\list.c ****     target->next = node;
  74              		.loc 1 41 0
  75 0026 1160     		str	r1, [r2]
  42:C:/Users/lenovo/Desktop/liteos/Project2/BearPi_LiteOS/components/connectivity/lwm2m/core\list.c **** 
  43:C:/Users/lenovo/Desktop/liteos/Project2/BearPi_LiteOS/components/connectivity/lwm2m/core\list.c ****     return head;
  76              		.loc 1 43 0
  77 0028 2846     		mov	r0, r5
  78              	.LVL4:
  79              	.L1:
  44:C:/Users/lenovo/Desktop/liteos/Project2/BearPi_LiteOS/components/connectivity/lwm2m/core\list.c **** }
  80              		.loc 1 44 0
  81 002a 30BC     		pop	{r4, r5}
  82              	.LCFI1:
  83              		.cfi_restore 5
  84              		.cfi_restore 4
  85              		.cfi_def_cfa_offset 0
  86              	.LVL5:
  87 002c 7047     		bx	lr
  88              	.LVL6:
  89              	.L5:
  26:C:/Users/lenovo/Desktop/liteos/Project2/BearPi_LiteOS/components/connectivity/lwm2m/core\list.c **** 
  90              		.loc 1 26 0
  91 002e 0846     		mov	r0, r1
  92              	.LVL7:
  93              		.loc 1 44 0
  94 0030 7047     		bx	lr
  95              		.cfi_endproc
  96              	.LFE134:
  98              		.section	.text.lwm2m_list_find,"ax",%progbits
  99              		.align	1
 100              		.global	lwm2m_list_find
 101              		.syntax unified
 102              		.thumb
 103              		.thumb_func
 104              		.fpu fpv4-sp-d16
 106              	lwm2m_list_find:
 107              	.LFB135:
  45:C:/Users/lenovo/Desktop/liteos/Project2/BearPi_LiteOS/components/connectivity/lwm2m/core\list.c **** 
  46:C:/Users/lenovo/Desktop/liteos/Project2/BearPi_LiteOS/components/connectivity/lwm2m/core\list.c **** 
  47:C:/Users/lenovo/Desktop/liteos/Project2/BearPi_LiteOS/components/connectivity/lwm2m/core\list.c **** lwm2m_list_t *lwm2m_list_find(lwm2m_list_t *head,
  48:C:/Users/lenovo/Desktop/liteos/Project2/BearPi_LiteOS/components/connectivity/lwm2m/core\list.c ****                               uint16_t id)
  49:C:/Users/lenovo/Desktop/liteos/Project2/BearPi_LiteOS/components/connectivity/lwm2m/core\list.c **** {
 108              		.loc 1 49 0
 109              		.cfi_startproc
 110              		@ args = 0, pretend = 0, frame = 0
 111              		@ frame_needed = 0, uses_anonymous_args = 0
 112              		@ link register save eliminated.
 113              	.LVL8:
  50:C:/Users/lenovo/Desktop/liteos/Project2/BearPi_LiteOS/components/connectivity/lwm2m/core\list.c ****     while (NULL != head && head->id < id)
 114              		.loc 1 50 0
 115 0000 00E0     		b	.L14
 116              	.L16:
  51:C:/Users/lenovo/Desktop/liteos/Project2/BearPi_LiteOS/components/connectivity/lwm2m/core\list.c ****     {
  52:C:/Users/lenovo/Desktop/liteos/Project2/BearPi_LiteOS/components/connectivity/lwm2m/core\list.c ****         head = head->next;
ARM GAS  c:\Users\lenovo\AppData\Local\Temp\ccHhl9hS.s 			page 4


 117              		.loc 1 52 0
 118 0002 0068     		ldr	r0, [r0]
 119              	.LVL9:
 120              	.L14:
  50:C:/Users/lenovo/Desktop/liteos/Project2/BearPi_LiteOS/components/connectivity/lwm2m/core\list.c ****     while (NULL != head && head->id < id)
 121              		.loc 1 50 0
 122 0004 10B1     		cbz	r0, .L15
  50:C:/Users/lenovo/Desktop/liteos/Project2/BearPi_LiteOS/components/connectivity/lwm2m/core\list.c ****     while (NULL != head && head->id < id)
 123              		.loc 1 50 0 is_stmt 0 discriminator 1
 124 0006 8388     		ldrh	r3, [r0, #4]
 125 0008 8B42     		cmp	r3, r1
 126 000a FAD3     		bcc	.L16
 127              	.L15:
  53:C:/Users/lenovo/Desktop/liteos/Project2/BearPi_LiteOS/components/connectivity/lwm2m/core\list.c ****     }
  54:C:/Users/lenovo/Desktop/liteos/Project2/BearPi_LiteOS/components/connectivity/lwm2m/core\list.c **** 
  55:C:/Users/lenovo/Desktop/liteos/Project2/BearPi_LiteOS/components/connectivity/lwm2m/core\list.c ****     if (NULL != head && head->id == id) return head;
 128              		.loc 1 55 0 is_stmt 1
 129 000c 10B1     		cbz	r0, .L17
 130              		.loc 1 55 0 is_stmt 0 discriminator 1
 131 000e 8388     		ldrh	r3, [r0, #4]
 132 0010 8B42     		cmp	r3, r1
 133 0012 00D1     		bne	.L18
 134              	.LVL10:
 135              	.L17:
  56:C:/Users/lenovo/Desktop/liteos/Project2/BearPi_LiteOS/components/connectivity/lwm2m/core\list.c **** 
  57:C:/Users/lenovo/Desktop/liteos/Project2/BearPi_LiteOS/components/connectivity/lwm2m/core\list.c ****     return NULL;
  58:C:/Users/lenovo/Desktop/liteos/Project2/BearPi_LiteOS/components/connectivity/lwm2m/core\list.c **** }
 136              		.loc 1 58 0 is_stmt 1
 137 0014 7047     		bx	lr
 138              	.LVL11:
 139              	.L18:
  57:C:/Users/lenovo/Desktop/liteos/Project2/BearPi_LiteOS/components/connectivity/lwm2m/core\list.c **** }
 140              		.loc 1 57 0
 141 0016 0020     		movs	r0, #0
 142              	.LVL12:
 143 0018 FCE7     		b	.L17
 144              		.cfi_endproc
 145              	.LFE135:
 147              		.section	.text.lwm2m_list_remove,"ax",%progbits
 148              		.align	1
 149              		.global	lwm2m_list_remove
 150              		.syntax unified
 151              		.thumb
 152              		.thumb_func
 153              		.fpu fpv4-sp-d16
 155              	lwm2m_list_remove:
 156              	.LFB136:
  59:C:/Users/lenovo/Desktop/liteos/Project2/BearPi_LiteOS/components/connectivity/lwm2m/core\list.c **** 
  60:C:/Users/lenovo/Desktop/liteos/Project2/BearPi_LiteOS/components/connectivity/lwm2m/core\list.c **** 
  61:C:/Users/lenovo/Desktop/liteos/Project2/BearPi_LiteOS/components/connectivity/lwm2m/core\list.c **** lwm2m_list_t *lwm2m_list_remove(lwm2m_list_t *head,
  62:C:/Users/lenovo/Desktop/liteos/Project2/BearPi_LiteOS/components/connectivity/lwm2m/core\list.c ****                                 uint16_t id,
  63:C:/Users/lenovo/Desktop/liteos/Project2/BearPi_LiteOS/components/connectivity/lwm2m/core\list.c ****                                 lwm2m_list_t **nodeP)
  64:C:/Users/lenovo/Desktop/liteos/Project2/BearPi_LiteOS/components/connectivity/lwm2m/core\list.c **** {
 157              		.loc 1 64 0
 158              		.cfi_startproc
 159              		@ args = 0, pretend = 0, frame = 0
 160              		@ frame_needed = 0, uses_anonymous_args = 0
ARM GAS  c:\Users\lenovo\AppData\Local\Temp\ccHhl9hS.s 			page 5


 161              		@ link register save eliminated.
 162              	.LVL13:
 163 0000 70B4     		push	{r4, r5, r6}
 164              	.LCFI2:
 165              		.cfi_def_cfa_offset 12
 166              		.cfi_offset 4, -12
 167              		.cfi_offset 5, -8
 168              		.cfi_offset 6, -4
  65:C:/Users/lenovo/Desktop/liteos/Project2/BearPi_LiteOS/components/connectivity/lwm2m/core\list.c ****     lwm2m_list_t *target;
  66:C:/Users/lenovo/Desktop/liteos/Project2/BearPi_LiteOS/components/connectivity/lwm2m/core\list.c **** 
  67:C:/Users/lenovo/Desktop/liteos/Project2/BearPi_LiteOS/components/connectivity/lwm2m/core\list.c ****     if (head == NULL)
 169              		.loc 1 67 0
 170 0002 0646     		mov	r6, r0
 171 0004 20B1     		cbz	r0, .L32
  68:C:/Users/lenovo/Desktop/liteos/Project2/BearPi_LiteOS/components/connectivity/lwm2m/core\list.c ****     {
  69:C:/Users/lenovo/Desktop/liteos/Project2/BearPi_LiteOS/components/connectivity/lwm2m/core\list.c ****         if (nodeP) *nodeP = NULL;
  70:C:/Users/lenovo/Desktop/liteos/Project2/BearPi_LiteOS/components/connectivity/lwm2m/core\list.c ****         return NULL;
  71:C:/Users/lenovo/Desktop/liteos/Project2/BearPi_LiteOS/components/connectivity/lwm2m/core\list.c ****     }
  72:C:/Users/lenovo/Desktop/liteos/Project2/BearPi_LiteOS/components/connectivity/lwm2m/core\list.c **** 
  73:C:/Users/lenovo/Desktop/liteos/Project2/BearPi_LiteOS/components/connectivity/lwm2m/core\list.c ****     if (head->id == id)
 172              		.loc 1 73 0
 173 0006 8388     		ldrh	r3, [r0, #4]
 174 0008 8B42     		cmp	r3, r1
 175 000a 05D0     		beq	.L33
  74:C:/Users/lenovo/Desktop/liteos/Project2/BearPi_LiteOS/components/connectivity/lwm2m/core\list.c ****     {
  75:C:/Users/lenovo/Desktop/liteos/Project2/BearPi_LiteOS/components/connectivity/lwm2m/core\list.c ****         if (nodeP) *nodeP = head;
  76:C:/Users/lenovo/Desktop/liteos/Project2/BearPi_LiteOS/components/connectivity/lwm2m/core\list.c ****         return head->next;
  77:C:/Users/lenovo/Desktop/liteos/Project2/BearPi_LiteOS/components/connectivity/lwm2m/core\list.c ****     }
  78:C:/Users/lenovo/Desktop/liteos/Project2/BearPi_LiteOS/components/connectivity/lwm2m/core\list.c **** 
  79:C:/Users/lenovo/Desktop/liteos/Project2/BearPi_LiteOS/components/connectivity/lwm2m/core\list.c ****     target = head;
 176              		.loc 1 79 0
 177 000c 0446     		mov	r4, r0
 178 000e 08E0     		b	.L22
 179              	.L32:
  69:C:/Users/lenovo/Desktop/liteos/Project2/BearPi_LiteOS/components/connectivity/lwm2m/core\list.c ****         return NULL;
 180              		.loc 1 69 0
 181 0010 A2B1     		cbz	r2, .L19
  69:C:/Users/lenovo/Desktop/liteos/Project2/BearPi_LiteOS/components/connectivity/lwm2m/core\list.c ****         return NULL;
 182              		.loc 1 69 0 is_stmt 0 discriminator 1
 183 0012 0023     		movs	r3, #0
 184 0014 1360     		str	r3, [r2]
 185 0016 11E0     		b	.L19
 186              	.L33:
  75:C:/Users/lenovo/Desktop/liteos/Project2/BearPi_LiteOS/components/connectivity/lwm2m/core\list.c ****         return head->next;
 187              		.loc 1 75 0 is_stmt 1
 188 0018 02B1     		cbz	r2, .L23
  75:C:/Users/lenovo/Desktop/liteos/Project2/BearPi_LiteOS/components/connectivity/lwm2m/core\list.c ****         return head->next;
 189              		.loc 1 75 0 is_stmt 0 discriminator 1
 190 001a 1060     		str	r0, [r2]
 191              	.L23:
  76:C:/Users/lenovo/Desktop/liteos/Project2/BearPi_LiteOS/components/connectivity/lwm2m/core\list.c ****     }
 192              		.loc 1 76 0 is_stmt 1
 193 001c 3068     		ldr	r0, [r6]
 194              	.LVL14:
 195 001e 0DE0     		b	.L19
 196              	.LVL15:
 197              	.L29:
ARM GAS  c:\Users\lenovo\AppData\Local\Temp\ccHhl9hS.s 			page 6


  80:C:/Users/lenovo/Desktop/liteos/Project2/BearPi_LiteOS/components/connectivity/lwm2m/core\list.c ****     while (NULL != target->next && target->next->id < id)
  81:C:/Users/lenovo/Desktop/liteos/Project2/BearPi_LiteOS/components/connectivity/lwm2m/core\list.c ****     {
  82:C:/Users/lenovo/Desktop/liteos/Project2/BearPi_LiteOS/components/connectivity/lwm2m/core\list.c ****         target = target->next;
 198              		.loc 1 82 0
 199 0020 1C46     		mov	r4, r3
 200              	.LVL16:
 201              	.L22:
  80:C:/Users/lenovo/Desktop/liteos/Project2/BearPi_LiteOS/components/connectivity/lwm2m/core\list.c ****     while (NULL != target->next && target->next->id < id)
 202              		.loc 1 80 0
 203 0022 2368     		ldr	r3, [r4]
 204 0024 13B1     		cbz	r3, .L24
  80:C:/Users/lenovo/Desktop/liteos/Project2/BearPi_LiteOS/components/connectivity/lwm2m/core\list.c ****     while (NULL != target->next && target->next->id < id)
 205              		.loc 1 80 0 is_stmt 0 discriminator 1
 206 0026 9D88     		ldrh	r5, [r3, #4]
 207 0028 8D42     		cmp	r5, r1
 208 002a F9D3     		bcc	.L29
 209              	.L24:
  83:C:/Users/lenovo/Desktop/liteos/Project2/BearPi_LiteOS/components/connectivity/lwm2m/core\list.c ****     }
  84:C:/Users/lenovo/Desktop/liteos/Project2/BearPi_LiteOS/components/connectivity/lwm2m/core\list.c **** 
  85:C:/Users/lenovo/Desktop/liteos/Project2/BearPi_LiteOS/components/connectivity/lwm2m/core\list.c ****     if (NULL != target->next && target->next->id == id)
 210              		.loc 1 85 0 is_stmt 1
 211 002c 13B1     		cbz	r3, .L25
 212              		.loc 1 85 0 is_stmt 0 discriminator 1
 213 002e 9888     		ldrh	r0, [r3, #4]
 214              	.LVL17:
 215 0030 8842     		cmp	r0, r1
 216 0032 05D0     		beq	.L34
 217              	.L25:
  86:C:/Users/lenovo/Desktop/liteos/Project2/BearPi_LiteOS/components/connectivity/lwm2m/core\list.c ****     {
  87:C:/Users/lenovo/Desktop/liteos/Project2/BearPi_LiteOS/components/connectivity/lwm2m/core\list.c ****         if (nodeP) *nodeP = target->next;
  88:C:/Users/lenovo/Desktop/liteos/Project2/BearPi_LiteOS/components/connectivity/lwm2m/core\list.c ****         target->next = target->next->next;
  89:C:/Users/lenovo/Desktop/liteos/Project2/BearPi_LiteOS/components/connectivity/lwm2m/core\list.c ****     }
  90:C:/Users/lenovo/Desktop/liteos/Project2/BearPi_LiteOS/components/connectivity/lwm2m/core\list.c ****     else
  91:C:/Users/lenovo/Desktop/liteos/Project2/BearPi_LiteOS/components/connectivity/lwm2m/core\list.c ****     {
  92:C:/Users/lenovo/Desktop/liteos/Project2/BearPi_LiteOS/components/connectivity/lwm2m/core\list.c ****         if (nodeP) *nodeP = NULL;
 218              		.loc 1 92 0 is_stmt 1
 219 0034 5AB1     		cbz	r2, .L30
 220              		.loc 1 92 0 is_stmt 0 discriminator 1
 221 0036 0023     		movs	r3, #0
 222 0038 1360     		str	r3, [r2]
  93:C:/Users/lenovo/Desktop/liteos/Project2/BearPi_LiteOS/components/connectivity/lwm2m/core\list.c ****     }
  94:C:/Users/lenovo/Desktop/liteos/Project2/BearPi_LiteOS/components/connectivity/lwm2m/core\list.c **** 
  95:C:/Users/lenovo/Desktop/liteos/Project2/BearPi_LiteOS/components/connectivity/lwm2m/core\list.c ****     return head;
 223              		.loc 1 95 0 is_stmt 1 discriminator 1
 224 003a 3046     		mov	r0, r6
 225              	.LVL18:
 226              	.L19:
  96:C:/Users/lenovo/Desktop/liteos/Project2/BearPi_LiteOS/components/connectivity/lwm2m/core\list.c **** }
 227              		.loc 1 96 0
 228 003c 70BC     		pop	{r4, r5, r6}
 229              	.LCFI3:
 230              		.cfi_remember_state
 231              		.cfi_restore 6
 232              		.cfi_restore 5
 233              		.cfi_restore 4
 234              		.cfi_def_cfa_offset 0
 235              	.LVL19:
ARM GAS  c:\Users\lenovo\AppData\Local\Temp\ccHhl9hS.s 			page 7


 236 003e 7047     		bx	lr
 237              	.LVL20:
 238              	.L34:
 239              	.LCFI4:
 240              		.cfi_restore_state
  87:C:/Users/lenovo/Desktop/liteos/Project2/BearPi_LiteOS/components/connectivity/lwm2m/core\list.c ****         target->next = target->next->next;
 241              		.loc 1 87 0
 242 0040 02B1     		cbz	r2, .L26
  87:C:/Users/lenovo/Desktop/liteos/Project2/BearPi_LiteOS/components/connectivity/lwm2m/core\list.c ****         target->next = target->next->next;
 243              		.loc 1 87 0 is_stmt 0 discriminator 1
 244 0042 1360     		str	r3, [r2]
 245              	.L26:
  88:C:/Users/lenovo/Desktop/liteos/Project2/BearPi_LiteOS/components/connectivity/lwm2m/core\list.c ****     }
 246              		.loc 1 88 0 is_stmt 1
 247 0044 2368     		ldr	r3, [r4]
 248 0046 1B68     		ldr	r3, [r3]
 249 0048 2360     		str	r3, [r4]
  95:C:/Users/lenovo/Desktop/liteos/Project2/BearPi_LiteOS/components/connectivity/lwm2m/core\list.c **** }
 250              		.loc 1 95 0
 251 004a 3046     		mov	r0, r6
  88:C:/Users/lenovo/Desktop/liteos/Project2/BearPi_LiteOS/components/connectivity/lwm2m/core\list.c ****     }
 252              		.loc 1 88 0
 253 004c F6E7     		b	.L19
 254              	.L30:
  95:C:/Users/lenovo/Desktop/liteos/Project2/BearPi_LiteOS/components/connectivity/lwm2m/core\list.c **** }
 255              		.loc 1 95 0
 256 004e 3046     		mov	r0, r6
 257 0050 F4E7     		b	.L19
 258              		.cfi_endproc
 259              	.LFE136:
 261              		.section	.text.lwm2m_list_newId,"ax",%progbits
 262              		.align	1
 263              		.global	lwm2m_list_newId
 264              		.syntax unified
 265              		.thumb
 266              		.thumb_func
 267              		.fpu fpv4-sp-d16
 269              	lwm2m_list_newId:
 270              	.LFB137:
  97:C:/Users/lenovo/Desktop/liteos/Project2/BearPi_LiteOS/components/connectivity/lwm2m/core\list.c **** 
  98:C:/Users/lenovo/Desktop/liteos/Project2/BearPi_LiteOS/components/connectivity/lwm2m/core\list.c **** uint16_t lwm2m_list_newId(lwm2m_list_t *head)
  99:C:/Users/lenovo/Desktop/liteos/Project2/BearPi_LiteOS/components/connectivity/lwm2m/core\list.c **** {
 271              		.loc 1 99 0
 272              		.cfi_startproc
 273              		@ args = 0, pretend = 0, frame = 0
 274              		@ frame_needed = 0, uses_anonymous_args = 0
 275              		@ link register save eliminated.
 276              	.LVL21:
 277 0000 0246     		mov	r2, r0
 278              	.LVL22:
 100:C:/Users/lenovo/Desktop/liteos/Project2/BearPi_LiteOS/components/connectivity/lwm2m/core\list.c ****     uint16_t id;
 101:C:/Users/lenovo/Desktop/liteos/Project2/BearPi_LiteOS/components/connectivity/lwm2m/core\list.c ****     lwm2m_list_t *target;
 102:C:/Users/lenovo/Desktop/liteos/Project2/BearPi_LiteOS/components/connectivity/lwm2m/core\list.c **** 
 103:C:/Users/lenovo/Desktop/liteos/Project2/BearPi_LiteOS/components/connectivity/lwm2m/core\list.c ****     id = 0;
 279              		.loc 1 103 0
 280 0002 0020     		movs	r0, #0
 281              	.LVL23:
ARM GAS  c:\Users\lenovo\AppData\Local\Temp\ccHhl9hS.s 			page 8


 104:C:/Users/lenovo/Desktop/liteos/Project2/BearPi_LiteOS/components/connectivity/lwm2m/core\list.c ****     target = head;
 105:C:/Users/lenovo/Desktop/liteos/Project2/BearPi_LiteOS/components/connectivity/lwm2m/core\list.c **** 
 106:C:/Users/lenovo/Desktop/liteos/Project2/BearPi_LiteOS/components/connectivity/lwm2m/core\list.c ****     while (target != NULL && id == target->id)
 282              		.loc 1 106 0
 283 0004 02E0     		b	.L36
 284              	.LVL24:
 285              	.L38:
 107:C:/Users/lenovo/Desktop/liteos/Project2/BearPi_LiteOS/components/connectivity/lwm2m/core\list.c ****     {
 108:C:/Users/lenovo/Desktop/liteos/Project2/BearPi_LiteOS/components/connectivity/lwm2m/core\list.c ****         id = target->id + 1;
 286              		.loc 1 108 0
 287 0006 0133     		adds	r3, r3, #1
 288 0008 98B2     		uxth	r0, r3
 289              	.LVL25:
 109:C:/Users/lenovo/Desktop/liteos/Project2/BearPi_LiteOS/components/connectivity/lwm2m/core\list.c ****         target = target->next;
 290              		.loc 1 109 0
 291 000a 1268     		ldr	r2, [r2]
 292              	.LVL26:
 293              	.L36:
 106:C:/Users/lenovo/Desktop/liteos/Project2/BearPi_LiteOS/components/connectivity/lwm2m/core\list.c ****     {
 294              		.loc 1 106 0
 295 000c 12B1     		cbz	r2, .L37
 106:C:/Users/lenovo/Desktop/liteos/Project2/BearPi_LiteOS/components/connectivity/lwm2m/core\list.c ****     {
 296              		.loc 1 106 0 is_stmt 0 discriminator 1
 297 000e 9388     		ldrh	r3, [r2, #4]
 298 0010 8342     		cmp	r3, r0
 299 0012 F8D0     		beq	.L38
 300              	.L37:
 110:C:/Users/lenovo/Desktop/liteos/Project2/BearPi_LiteOS/components/connectivity/lwm2m/core\list.c ****     }
 111:C:/Users/lenovo/Desktop/liteos/Project2/BearPi_LiteOS/components/connectivity/lwm2m/core\list.c **** 
 112:C:/Users/lenovo/Desktop/liteos/Project2/BearPi_LiteOS/components/connectivity/lwm2m/core\list.c ****     return id;
 113:C:/Users/lenovo/Desktop/liteos/Project2/BearPi_LiteOS/components/connectivity/lwm2m/core\list.c **** }
 301              		.loc 1 113 0 is_stmt 1
 302 0014 7047     		bx	lr
 303              		.cfi_endproc
 304              	.LFE137:
 306              		.section	.text.lwm2m_list_free,"ax",%progbits
 307              		.align	1
 308              		.global	lwm2m_list_free
 309              		.syntax unified
 310              		.thumb
 311              		.thumb_func
 312              		.fpu fpv4-sp-d16
 314              	lwm2m_list_free:
 315              	.LFB138:
 114:C:/Users/lenovo/Desktop/liteos/Project2/BearPi_LiteOS/components/connectivity/lwm2m/core\list.c **** 
 115:C:/Users/lenovo/Desktop/liteos/Project2/BearPi_LiteOS/components/connectivity/lwm2m/core\list.c **** void lwm2m_list_free(lwm2m_list_t *head)
 116:C:/Users/lenovo/Desktop/liteos/Project2/BearPi_LiteOS/components/connectivity/lwm2m/core\list.c **** {
 316              		.loc 1 116 0
 317              		.cfi_startproc
 318              		@ args = 0, pretend = 0, frame = 0
 319              		@ frame_needed = 0, uses_anonymous_args = 0
 320              	.LVL27:
 117:C:/Users/lenovo/Desktop/liteos/Project2/BearPi_LiteOS/components/connectivity/lwm2m/core\list.c ****     if (head != NULL)
 321              		.loc 1 117 0
 322 0000 00B9     		cbnz	r0, .L45
 323 0002 7047     		bx	lr
 324              	.L45:
ARM GAS  c:\Users\lenovo\AppData\Local\Temp\ccHhl9hS.s 			page 9


 116:C:/Users/lenovo/Desktop/liteos/Project2/BearPi_LiteOS/components/connectivity/lwm2m/core\list.c ****     if (head != NULL)
 325              		.loc 1 116 0
 326 0004 10B5     		push	{r4, lr}
 327              	.LCFI5:
 328              		.cfi_def_cfa_offset 8
 329              		.cfi_offset 4, -8
 330              		.cfi_offset 14, -4
 331              	.LBB2:
 118:C:/Users/lenovo/Desktop/liteos/Project2/BearPi_LiteOS/components/connectivity/lwm2m/core\list.c ****     {
 119:C:/Users/lenovo/Desktop/liteos/Project2/BearPi_LiteOS/components/connectivity/lwm2m/core\list.c ****         lwm2m_list_t *nextP;
 120:C:/Users/lenovo/Desktop/liteos/Project2/BearPi_LiteOS/components/connectivity/lwm2m/core\list.c **** 
 121:C:/Users/lenovo/Desktop/liteos/Project2/BearPi_LiteOS/components/connectivity/lwm2m/core\list.c ****         nextP = head->next;
 332              		.loc 1 121 0
 333 0006 0468     		ldr	r4, [r0]
 334              	.LVL28:
 122:C:/Users/lenovo/Desktop/liteos/Project2/BearPi_LiteOS/components/connectivity/lwm2m/core\list.c ****         lwm2m_free(head);
 335              		.loc 1 122 0
 336 0008 FFF7FEFF 		bl	lwm2m_free
 337              	.LVL29:
 123:C:/Users/lenovo/Desktop/liteos/Project2/BearPi_LiteOS/components/connectivity/lwm2m/core\list.c ****         lwm2m_list_free(nextP);
 338              		.loc 1 123 0
 339 000c 2046     		mov	r0, r4
 340 000e FFF7FEFF 		bl	lwm2m_list_free
 341              	.LVL30:
 342              	.LBE2:
 124:C:/Users/lenovo/Desktop/liteos/Project2/BearPi_LiteOS/components/connectivity/lwm2m/core\list.c ****     }
 125:C:/Users/lenovo/Desktop/liteos/Project2/BearPi_LiteOS/components/connectivity/lwm2m/core\list.c **** }
 343              		.loc 1 125 0
 344 0012 10BD     		pop	{r4, pc}
 345              		.cfi_endproc
 346              	.LFE138:
 348              		.text
 349              	.Letext0:
 350              		.file 2 "c:\\program files (x86)\\liteos studio\\resources\\arm-none-eabi\\arm-none-eabi\\include\
 351              		.file 3 "c:\\program files (x86)\\liteos studio\\resources\\arm-none-eabi\\arm-none-eabi\\include\
 352              		.file 4 "c:\\program files (x86)\\liteos studio\\resources\\arm-none-eabi\\arm-none-eabi\\include\
 353              		.file 5 "c:\\program files (x86)\\liteos studio\\resources\\arm-none-eabi\\arm-none-eabi\\include\
 354              		.file 6 "c:\\program files (x86)\\liteos studio\\resources\\arm-none-eabi\\lib\\gcc\\arm-none-eabi
 355              		.file 7 "c:\\program files (x86)\\liteos studio\\resources\\arm-none-eabi\\arm-none-eabi\\include\
 356              		.file 8 "c:\\program files (x86)\\liteos studio\\resources\\arm-none-eabi\\arm-none-eabi\\include\
 357              		.file 9 "C:/Users/lenovo/Desktop/liteos/Project2/BearPi_LiteOS/components/connectivity/lwm2m/core/
 358              		.file 10 "C:/Users/lenovo/Desktop/liteos/Project2/BearPi_LiteOS/kernel/include/los_typedef.h"
 359              		.file 11 "C:/Users/lenovo/Desktop/liteos/Project2/BearPi_LiteOS/arch/arm/common/cmsis/core_cm4.h"
 360              		.file 12 "C:/Users/lenovo/Desktop/liteos/Project2/BearPi_LiteOS/targets/STM32L431_BearPi/Inc/syste
 361              		.file 13 "C:/Users/lenovo/Desktop/liteos/Project2/BearPi_LiteOS/kernel/include/los_list.h"
 362              		.file 14 "C:/Users/lenovo/Desktop/liteos/Project2/BearPi_LiteOS/kernel/include/los_err.h"
 363              		.file 15 "C:/Users/lenovo/Desktop/liteos/Project2/BearPi_LiteOS/arch/arm/arm-m/include/los_hwi.h"
 364              		.file 16 "C:/Users/lenovo/Desktop/liteos/Project2/BearPi_LiteOS/kernel/include/los_tick.h"
 365              		.file 17 "C:/Users/lenovo/Desktop/liteos/Project2/BearPi_LiteOS/kernel/include/los_event.h"
 366              		.file 18 "C:/Users/lenovo/Desktop/liteos/Project2/BearPi_LiteOS/kernel/include/los_task.h"
 367              		.file 19 "C:/Users/lenovo/Desktop/liteos/Project2/BearPi_LiteOS/kernel/base/include/los_task.ph"
 368              		.file 20 "C:/Users/lenovo/Desktop/liteos/Project2/BearPi_LiteOS/targets/STM32L431_BearPi/Inc/main.
 369              		.file 21 "C:/Users/lenovo/Desktop/liteos/Project2/BearPi_LiteOS/targets/STM32L431_BearPi/OS_CONFIG
 370              		.file 22 "C:/Users/lenovo/Desktop/liteos/Project2/BearPi_LiteOS/kernel/include/los_config.h"
 371              		.file 23 "C:/Users/lenovo/Desktop/liteos/Project2/BearPi_LiteOS/components/connectivity/lwm2m/core
 372              		.file 24 "c:\\program files (x86)\\liteos studio\\resources\\arm-none-eabi\\arm-none-eabi\\include
 373              		.file 25 "c:\\program files (x86)\\liteos studio\\resources\\arm-none-eabi\\arm-none-eabi\\include
ARM GAS  c:\Users\lenovo\AppData\Local\Temp\ccHhl9hS.s 			page 10


ARM GAS  c:\Users\lenovo\AppData\Local\Temp\ccHhl9hS.s 			page 11

