ARM GAS  c:\Users\lenovo\AppData\Local\Temp\ccHTqdRM.s 			page 1


   1              		.cpu cortex-m4
   2              		.eabi_attribute 27, 1
   3              		.eabi_attribute 28, 1
   4              		.eabi_attribute 20, 1
   5              		.eabi_attribute 21, 1
   6              		.eabi_attribute 23, 3
   7              		.eabi_attribute 24, 1
   8              		.eabi_attribute 25, 1
   9              		.eabi_attribute 26, 1
  10              		.eabi_attribute 30, 1
  11              		.eabi_attribute 34, 1
  12              		.eabi_attribute 18, 4
  13              		.file	"los_slabmem.c"
  14              		.text
  15              	.Ltext0:
  16              		.cfi_sections	.debug_frame
  17              		.section	.text.osSlabBlockHeadFill,"ax",%progbits
  18              		.align	1
  19              		.global	osSlabBlockHeadFill
  20              		.syntax unified
  21              		.thumb
  22              		.thumb_func
  23              		.fpu fpv4-sp-d16
  25              	osSlabBlockHeadFill:
  26              	.LFB133:
  27              		.file 1 "C:/Users/lenovo/Desktop/liteos/Project2/BearPi_LiteOS/kernel/base/mem/common/los_slabmem.
   1:C:/Users/lenovo/Desktop/liteos/Project2/BearPi_LiteOS/kernel/base/mem/common\los_slabmem.c **** /*----------------------------------------------------------------------------
   2:C:/Users/lenovo/Desktop/liteos/Project2/BearPi_LiteOS/kernel/base/mem/common\los_slabmem.c ****  * Copyright (c) <2013-2017>, <Huawei Technologies Co., Ltd>
   3:C:/Users/lenovo/Desktop/liteos/Project2/BearPi_LiteOS/kernel/base/mem/common\los_slabmem.c ****  * All rights reserved.
   4:C:/Users/lenovo/Desktop/liteos/Project2/BearPi_LiteOS/kernel/base/mem/common\los_slabmem.c ****  * Redistribution and use in source and binary forms, with or without modification,
   5:C:/Users/lenovo/Desktop/liteos/Project2/BearPi_LiteOS/kernel/base/mem/common\los_slabmem.c ****  * are permitted provided that the following conditions are met:
   6:C:/Users/lenovo/Desktop/liteos/Project2/BearPi_LiteOS/kernel/base/mem/common\los_slabmem.c ****  * 1. Redistributions of source code must retain the above copyright notice, this list of
   7:C:/Users/lenovo/Desktop/liteos/Project2/BearPi_LiteOS/kernel/base/mem/common\los_slabmem.c ****  * conditions and the following disclaimer.
   8:C:/Users/lenovo/Desktop/liteos/Project2/BearPi_LiteOS/kernel/base/mem/common\los_slabmem.c ****  * 2. Redistributions in binary form must reproduce the above copyright notice, this list
   9:C:/Users/lenovo/Desktop/liteos/Project2/BearPi_LiteOS/kernel/base/mem/common\los_slabmem.c ****  * of conditions and the following disclaimer in the documentation and/or other materials
  10:C:/Users/lenovo/Desktop/liteos/Project2/BearPi_LiteOS/kernel/base/mem/common\los_slabmem.c ****  * provided with the distribution.
  11:C:/Users/lenovo/Desktop/liteos/Project2/BearPi_LiteOS/kernel/base/mem/common\los_slabmem.c ****  * 3. Neither the name of the copyright holder nor the names of its contributors may be used
  12:C:/Users/lenovo/Desktop/liteos/Project2/BearPi_LiteOS/kernel/base/mem/common\los_slabmem.c ****  * to endorse or promote products derived from this software without specific prior written
  13:C:/Users/lenovo/Desktop/liteos/Project2/BearPi_LiteOS/kernel/base/mem/common\los_slabmem.c ****  * permission.
  14:C:/Users/lenovo/Desktop/liteos/Project2/BearPi_LiteOS/kernel/base/mem/common\los_slabmem.c ****  * THIS SOFTWARE IS PROVIDED BY THE COPYRIGHT HOLDERS AND CONTRIBUTORS
  15:C:/Users/lenovo/Desktop/liteos/Project2/BearPi_LiteOS/kernel/base/mem/common\los_slabmem.c ****  * "AS IS" AND ANY EXPRESS OR IMPLIED WARRANTIES, INCLUDING, BUT NOT LIMITED TO,
  16:C:/Users/lenovo/Desktop/liteos/Project2/BearPi_LiteOS/kernel/base/mem/common\los_slabmem.c ****  * THE IMPLIED WARRANTIES OF MERCHANTABILITY AND FITNESS FOR A PARTICULAR
  17:C:/Users/lenovo/Desktop/liteos/Project2/BearPi_LiteOS/kernel/base/mem/common\los_slabmem.c ****  * PURPOSE ARE DISCLAIMED. IN NO EVENT SHALL THE COPYRIGHT HOLDER OR
  18:C:/Users/lenovo/Desktop/liteos/Project2/BearPi_LiteOS/kernel/base/mem/common\los_slabmem.c ****  * CONTRIBUTORS BE LIABLE FOR ANY DIRECT, INDIRECT, INCIDENTAL, SPECIAL,
  19:C:/Users/lenovo/Desktop/liteos/Project2/BearPi_LiteOS/kernel/base/mem/common\los_slabmem.c ****  * EXEMPLARY, OR CONSEQUENTIAL DAMAGES (INCLUDING, BUT NOT LIMITED TO,
  20:C:/Users/lenovo/Desktop/liteos/Project2/BearPi_LiteOS/kernel/base/mem/common\los_slabmem.c ****  * PROCUREMENT OF SUBSTITUTE GOODS OR SERVICES; LOSS OF USE, DATA, OR PROFITS;
  21:C:/Users/lenovo/Desktop/liteos/Project2/BearPi_LiteOS/kernel/base/mem/common\los_slabmem.c ****  * OR BUSINESS INTERRUPTION) HOWEVER CAUSED AND ON ANY THEORY OF LIABILITY,
  22:C:/Users/lenovo/Desktop/liteos/Project2/BearPi_LiteOS/kernel/base/mem/common\los_slabmem.c ****  * WHETHER IN CONTRACT, STRICT LIABILITY, OR TORT (INCLUDING NEGLIGENCE OR
  23:C:/Users/lenovo/Desktop/liteos/Project2/BearPi_LiteOS/kernel/base/mem/common\los_slabmem.c ****  * OTHERWISE) ARISING IN ANY WAY OUT OF THE USE OF THIS SOFTWARE, EVEN IF
  24:C:/Users/lenovo/Desktop/liteos/Project2/BearPi_LiteOS/kernel/base/mem/common\los_slabmem.c ****  * ADVISED OF THE POSSIBILITY OF SUCH DAMAGE.
  25:C:/Users/lenovo/Desktop/liteos/Project2/BearPi_LiteOS/kernel/base/mem/common\los_slabmem.c ****  *---------------------------------------------------------------------------*/
  26:C:/Users/lenovo/Desktop/liteos/Project2/BearPi_LiteOS/kernel/base/mem/common\los_slabmem.c **** /*----------------------------------------------------------------------------
  27:C:/Users/lenovo/Desktop/liteos/Project2/BearPi_LiteOS/kernel/base/mem/common\los_slabmem.c ****  * Notice of Export Control Law
  28:C:/Users/lenovo/Desktop/liteos/Project2/BearPi_LiteOS/kernel/base/mem/common\los_slabmem.c ****  * ===============================================
  29:C:/Users/lenovo/Desktop/liteos/Project2/BearPi_LiteOS/kernel/base/mem/common\los_slabmem.c ****  * Huawei LiteOS may be subject to applicable export control laws and regulations, which might
  30:C:/Users/lenovo/Desktop/liteos/Project2/BearPi_LiteOS/kernel/base/mem/common\los_slabmem.c ****  * include those applicable to Huawei LiteOS of U.S. and the country in which you are located.
  31:C:/Users/lenovo/Desktop/liteos/Project2/BearPi_LiteOS/kernel/base/mem/common\los_slabmem.c ****  * Import, export and usage of Huawei LiteOS in any manner by you shall be in compliance with such
ARM GAS  c:\Users\lenovo\AppData\Local\Temp\ccHTqdRM.s 			page 2


  32:C:/Users/lenovo/Desktop/liteos/Project2/BearPi_LiteOS/kernel/base/mem/common\los_slabmem.c ****  * applicable export control laws and regulations.
  33:C:/Users/lenovo/Desktop/liteos/Project2/BearPi_LiteOS/kernel/base/mem/common\los_slabmem.c ****  *---------------------------------------------------------------------------*/
  34:C:/Users/lenovo/Desktop/liteos/Project2/BearPi_LiteOS/kernel/base/mem/common\los_slabmem.c **** #define _LOS_SLAB_MEM_C_
  35:C:/Users/lenovo/Desktop/liteos/Project2/BearPi_LiteOS/kernel/base/mem/common\los_slabmem.c **** 
  36:C:/Users/lenovo/Desktop/liteos/Project2/BearPi_LiteOS/kernel/base/mem/common\los_slabmem.c **** #include <los_printf.h>
  37:C:/Users/lenovo/Desktop/liteos/Project2/BearPi_LiteOS/kernel/base/mem/common\los_slabmem.c **** #include <los_slab.ph>
  38:C:/Users/lenovo/Desktop/liteos/Project2/BearPi_LiteOS/kernel/base/mem/common\los_slabmem.c **** #include <los_hwi.h>
  39:C:/Users/lenovo/Desktop/liteos/Project2/BearPi_LiteOS/kernel/base/mem/common\los_slabmem.c **** 
  40:C:/Users/lenovo/Desktop/liteos/Project2/BearPi_LiteOS/kernel/base/mem/common\los_slabmem.c **** #if (LOSCFG_MEM_TASK_USED_STATISTICS == YES)
  41:C:/Users/lenovo/Desktop/liteos/Project2/BearPi_LiteOS/kernel/base/mem/common\los_slabmem.c **** #include "los_memstat.inc"
  42:C:/Users/lenovo/Desktop/liteos/Project2/BearPi_LiteOS/kernel/base/mem/common\los_slabmem.c **** #endif
  43:C:/Users/lenovo/Desktop/liteos/Project2/BearPi_LiteOS/kernel/base/mem/common\los_slabmem.c **** 
  44:C:/Users/lenovo/Desktop/liteos/Project2/BearPi_LiteOS/kernel/base/mem/common\los_slabmem.c **** VOID *osSlabBlockHeadFill(OS_SLAB_BLOCK_NODE *pstSlabNode, UINT32 uwBlkSz)
  45:C:/Users/lenovo/Desktop/liteos/Project2/BearPi_LiteOS/kernel/base/mem/common\los_slabmem.c **** {
  28              		.loc 1 45 0
  29              		.cfi_startproc
  30              		@ args = 0, pretend = 0, frame = 0
  31              		@ frame_needed = 0, uses_anonymous_args = 0
  32              		@ link register save eliminated.
  33              	.LVL0:
  46:C:/Users/lenovo/Desktop/liteos/Project2/BearPi_LiteOS/kernel/base/mem/common\los_slabmem.c ****     OS_SLAB_BLOCK_MAGIC_SET(pstSlabNode);
  34              		.loc 1 46 0
  35 0000 4DF6DE63 		movw	r3, #57054
  36 0004 0380     		strh	r3, [r0]	@ movhi
  47:C:/Users/lenovo/Desktop/liteos/Project2/BearPi_LiteOS/kernel/base/mem/common\los_slabmem.c ****     OS_SLAB_BLOCK_SIZE_SET(pstSlabNode, uwBlkSz);
  37              		.loc 1 47 0
  38 0006 8170     		strb	r1, [r0, #2]
  48:C:/Users/lenovo/Desktop/liteos/Project2/BearPi_LiteOS/kernel/base/mem/common\los_slabmem.c ****     OS_SLAB_BLOCK_ID_SET(pstSlabNode, 0);//now undefine how to use ID
  39              		.loc 1 48 0
  40 0008 0023     		movs	r3, #0
  41 000a C370     		strb	r3, [r0, #3]
  49:C:/Users/lenovo/Desktop/liteos/Project2/BearPi_LiteOS/kernel/base/mem/common\los_slabmem.c ****     return (VOID *)(pstSlabNode + 1);
  50:C:/Users/lenovo/Desktop/liteos/Project2/BearPi_LiteOS/kernel/base/mem/common\los_slabmem.c **** }
  42              		.loc 1 50 0
  43 000c 0430     		adds	r0, r0, #4
  44              	.LVL1:
  45 000e 7047     		bx	lr
  46              		.cfi_endproc
  47              	.LFE133:
  49              		.section	.text.osSlabMemInit,"ax",%progbits
  50              		.align	1
  51              		.global	osSlabMemInit
  52              		.syntax unified
  53              		.thumb
  54              		.thumb_func
  55              		.fpu fpv4-sp-d16
  57              	osSlabMemInit:
  58              	.LFB134:
  51:C:/Users/lenovo/Desktop/liteos/Project2/BearPi_LiteOS/kernel/base/mem/common\los_slabmem.c **** 
  52:C:/Users/lenovo/Desktop/liteos/Project2/BearPi_LiteOS/kernel/base/mem/common\los_slabmem.c **** /*****************************************************************************
  53:C:/Users/lenovo/Desktop/liteos/Project2/BearPi_LiteOS/kernel/base/mem/common\los_slabmem.c ****  Function : osSlabMemInit
  54:C:/Users/lenovo/Desktop/liteos/Project2/BearPi_LiteOS/kernel/base/mem/common\los_slabmem.c ****  Description : To initialize the slab memory management
  55:C:/Users/lenovo/Desktop/liteos/Project2/BearPi_LiteOS/kernel/base/mem/common\los_slabmem.c ****  Input       : None
  56:C:/Users/lenovo/Desktop/liteos/Project2/BearPi_LiteOS/kernel/base/mem/common\los_slabmem.c ****  Output      : None
  57:C:/Users/lenovo/Desktop/liteos/Project2/BearPi_LiteOS/kernel/base/mem/common\los_slabmem.c ****  Return      : None
  58:C:/Users/lenovo/Desktop/liteos/Project2/BearPi_LiteOS/kernel/base/mem/common\los_slabmem.c **** *****************************************************************************/
  59:C:/Users/lenovo/Desktop/liteos/Project2/BearPi_LiteOS/kernel/base/mem/common\los_slabmem.c **** BOOL osSlabMemInit(VOID *pPool)
ARM GAS  c:\Users\lenovo\AppData\Local\Temp\ccHTqdRM.s 			page 3


  60:C:/Users/lenovo/Desktop/liteos/Project2/BearPi_LiteOS/kernel/base/mem/common\los_slabmem.c **** {
  59              		.loc 1 60 0
  60              		.cfi_startproc
  61              		@ args = 0, pretend = 0, frame = 0
  62              		@ frame_needed = 0, uses_anonymous_args = 0
  63              	.LVL2:
  64 0000 F8B5     		push	{r3, r4, r5, r6, r7, lr}
  65              	.LCFI0:
  66              		.cfi_def_cfa_offset 24
  67              		.cfi_offset 3, -24
  68              		.cfi_offset 4, -20
  69              		.cfi_offset 5, -16
  70              		.cfi_offset 6, -12
  71              		.cfi_offset 7, -8
  72              		.cfi_offset 14, -4
  73 0002 0746     		mov	r7, r0
  61:C:/Users/lenovo/Desktop/liteos/Project2/BearPi_LiteOS/kernel/base/mem/common\los_slabmem.c ****     struct LOS_SLAB_CONTROL_HEADER *pstSlabMemHead = osSlabCtrlHdrGet(pPool);
  74              		.loc 1 61 0
  75 0004 FFF7FEFF 		bl	osSlabCtrlHdrGet
  76              	.LVL3:
  77 0008 0546     		mov	r5, r0
  78              	.LVL4:
  62:C:/Users/lenovo/Desktop/liteos/Project2/BearPi_LiteOS/kernel/base/mem/common\los_slabmem.c ****     UINT32 uwIdx = 0;
  63:C:/Users/lenovo/Desktop/liteos/Project2/BearPi_LiteOS/kernel/base/mem/common\los_slabmem.c ****     UINT32 uwTmp = 0;
  79              		.loc 1 63 0
  80 000a 0026     		movs	r6, #0
  64:C:/Users/lenovo/Desktop/liteos/Project2/BearPi_LiteOS/kernel/base/mem/common\los_slabmem.c ****     UINT32 uwBlkSz = 0;
  65:C:/Users/lenovo/Desktop/liteos/Project2/BearPi_LiteOS/kernel/base/mem/common\los_slabmem.c ****     UINT32 uwBlkCnt = 0;
  66:C:/Users/lenovo/Desktop/liteos/Project2/BearPi_LiteOS/kernel/base/mem/common\los_slabmem.c **** 
  67:C:/Users/lenovo/Desktop/liteos/Project2/BearPi_LiteOS/kernel/base/mem/common\los_slabmem.c ****     for (uwIdx = 0; uwIdx < SLAB_MEM_COUNT; uwIdx++)
  81              		.loc 1 67 0
  82 000c 3446     		mov	r4, r6
  83 000e 08E0     		b	.L3
  84              	.LVL5:
  85              	.L4:
  68:C:/Users/lenovo/Desktop/liteos/Project2/BearPi_LiteOS/kernel/base/mem/common\los_slabmem.c ****     {
  69:C:/Users/lenovo/Desktop/liteos/Project2/BearPi_LiteOS/kernel/base/mem/common\los_slabmem.c ****         uwBlkSz = (SLAB_MEM_CALSS_STEP_SIZE << uwIdx);
  70:C:/Users/lenovo/Desktop/liteos/Project2/BearPi_LiteOS/kernel/base/mem/common\los_slabmem.c ****         uwBlkCnt = SLAB_MEM_ALLOCATOR_SIZE / uwBlkSz;
  71:C:/Users/lenovo/Desktop/liteos/Project2/BearPi_LiteOS/kernel/base/mem/common\los_slabmem.c ****         pstSlabMemHead->stSlabClass[uwIdx].blkSz = uwBlkSz;
  72:C:/Users/lenovo/Desktop/liteos/Project2/BearPi_LiteOS/kernel/base/mem/common\los_slabmem.c ****         pstSlabMemHead->stSlabClass[uwIdx].blkCnt = uwBlkCnt;
  73:C:/Users/lenovo/Desktop/liteos/Project2/BearPi_LiteOS/kernel/base/mem/common\los_slabmem.c ****         pstSlabMemHead->stSlabClass[uwIdx].blkUsedCnt = 0;
  74:C:/Users/lenovo/Desktop/liteos/Project2/BearPi_LiteOS/kernel/base/mem/common\los_slabmem.c ****         if (NULL != pstSlabMemHead->stSlabClass[uwIdx].alloc)
  75:C:/Users/lenovo/Desktop/liteos/Project2/BearPi_LiteOS/kernel/base/mem/common\los_slabmem.c ****         {
  76:C:/Users/lenovo/Desktop/liteos/Project2/BearPi_LiteOS/kernel/base/mem/common\los_slabmem.c ****             PRINT_WARN("SlabMemAllocator[%d] inited before\n", uwIdx);
  77:C:/Users/lenovo/Desktop/liteos/Project2/BearPi_LiteOS/kernel/base/mem/common\los_slabmem.c ****             uwTmp++;
  78:C:/Users/lenovo/Desktop/liteos/Project2/BearPi_LiteOS/kernel/base/mem/common\los_slabmem.c ****         }
  79:C:/Users/lenovo/Desktop/liteos/Project2/BearPi_LiteOS/kernel/base/mem/common\los_slabmem.c ****         else
  80:C:/Users/lenovo/Desktop/liteos/Project2/BearPi_LiteOS/kernel/base/mem/common\los_slabmem.c ****         {
  81:C:/Users/lenovo/Desktop/liteos/Project2/BearPi_LiteOS/kernel/base/mem/common\los_slabmem.c ****             pstSlabMemHead->stSlabClass[uwIdx].alloc = osSlabAllocatorNew(pPool, uwBlkSz + sizeof(O
  86              		.loc 1 81 0
  87 0010 0422     		movs	r2, #4
  88 0012 1144     		add	r1, r1, r2
  89              	.LVL6:
  90 0014 3846     		mov	r0, r7
  91 0016 FFF7FEFF 		bl	osSlabAllocatorNew
  92              	.LVL7:
  93 001a 05EB0413 		add	r3, r5, r4, lsl #4
ARM GAS  c:\Users\lenovo\AppData\Local\Temp\ccHTqdRM.s 			page 4


  94 001e D860     		str	r0, [r3, #12]
  95              	.L5:
  67:C:/Users/lenovo/Desktop/liteos/Project2/BearPi_LiteOS/kernel/base/mem/common\los_slabmem.c ****     {
  96              		.loc 1 67 0 discriminator 2
  97 0020 0134     		adds	r4, r4, #1
  98              	.LVL8:
  99              	.L3:
  67:C:/Users/lenovo/Desktop/liteos/Project2/BearPi_LiteOS/kernel/base/mem/common\los_slabmem.c ****     {
 100              		.loc 1 67 0 is_stmt 0 discriminator 1
 101 0022 032C     		cmp	r4, #3
 102 0024 10D8     		bhi	.L10
  69:C:/Users/lenovo/Desktop/liteos/Project2/BearPi_LiteOS/kernel/base/mem/common\los_slabmem.c ****         uwBlkCnt = SLAB_MEM_ALLOCATOR_SIZE / uwBlkSz;
 103              		.loc 1 69 0 is_stmt 1
 104 0026 1021     		movs	r1, #16
 105 0028 A140     		lsls	r1, r1, r4
 106              	.LVL9:
  70:C:/Users/lenovo/Desktop/liteos/Project2/BearPi_LiteOS/kernel/base/mem/common\los_slabmem.c ****         pstSlabMemHead->stSlabClass[uwIdx].blkSz = uwBlkSz;
 107              		.loc 1 70 0
 108 002a 4FF40073 		mov	r3, #512
 109 002e B3FBF1F3 		udiv	r3, r3, r1
 110              	.LVL10:
  71:C:/Users/lenovo/Desktop/liteos/Project2/BearPi_LiteOS/kernel/base/mem/common\los_slabmem.c ****         pstSlabMemHead->stSlabClass[uwIdx].blkCnt = uwBlkCnt;
 111              		.loc 1 71 0
 112 0032 2001     		lsls	r0, r4, #4
 113 0034 2A18     		adds	r2, r5, r0
 114 0036 2950     		str	r1, [r5, r0]
  72:C:/Users/lenovo/Desktop/liteos/Project2/BearPi_LiteOS/kernel/base/mem/common\los_slabmem.c ****         pstSlabMemHead->stSlabClass[uwIdx].blkUsedCnt = 0;
 115              		.loc 1 72 0
 116 0038 5360     		str	r3, [r2, #4]
  73:C:/Users/lenovo/Desktop/liteos/Project2/BearPi_LiteOS/kernel/base/mem/common\los_slabmem.c ****         if (NULL != pstSlabMemHead->stSlabClass[uwIdx].alloc)
 117              		.loc 1 73 0
 118 003a 0020     		movs	r0, #0
 119 003c 9060     		str	r0, [r2, #8]
  74:C:/Users/lenovo/Desktop/liteos/Project2/BearPi_LiteOS/kernel/base/mem/common\los_slabmem.c ****         {
 120              		.loc 1 74 0
 121 003e D268     		ldr	r2, [r2, #12]
 122 0040 002A     		cmp	r2, #0
 123 0042 E5D0     		beq	.L4
  77:C:/Users/lenovo/Desktop/liteos/Project2/BearPi_LiteOS/kernel/base/mem/common\los_slabmem.c ****         }
 124              		.loc 1 77 0
 125 0044 0136     		adds	r6, r6, #1
 126              	.LVL11:
 127 0046 EBE7     		b	.L5
 128              	.LVL12:
 129              	.L10:
  82:C:/Users/lenovo/Desktop/liteos/Project2/BearPi_LiteOS/kernel/base/mem/common\los_slabmem.c ****         }
  83:C:/Users/lenovo/Desktop/liteos/Project2/BearPi_LiteOS/kernel/base/mem/common\los_slabmem.c ****     }
  84:C:/Users/lenovo/Desktop/liteos/Project2/BearPi_LiteOS/kernel/base/mem/common\los_slabmem.c **** 
  85:C:/Users/lenovo/Desktop/liteos/Project2/BearPi_LiteOS/kernel/base/mem/common\los_slabmem.c ****     return ((0 == uwTmp) ? TRUE : FALSE);
 130              		.loc 1 85 0
 131 0048 0EB1     		cbz	r6, .L11
 132 004a 0020     		movs	r0, #0
 133              	.L2:
  86:C:/Users/lenovo/Desktop/liteos/Project2/BearPi_LiteOS/kernel/base/mem/common\los_slabmem.c **** }
 134              		.loc 1 86 0
 135 004c F8BD     		pop	{r3, r4, r5, r6, r7, pc}
 136              	.LVL13:
ARM GAS  c:\Users\lenovo\AppData\Local\Temp\ccHTqdRM.s 			page 5


 137              	.L11:
  85:C:/Users/lenovo/Desktop/liteos/Project2/BearPi_LiteOS/kernel/base/mem/common\los_slabmem.c **** }
 138              		.loc 1 85 0
 139 004e 0120     		movs	r0, #1
 140 0050 FCE7     		b	.L2
 141              		.cfi_endproc
 142              	.LFE134:
 144              		.section	.text.osSlabMemAlloc,"ax",%progbits
 145              		.align	1
 146              		.global	osSlabMemAlloc
 147              		.syntax unified
 148              		.thumb
 149              		.thumb_func
 150              		.fpu fpv4-sp-d16
 152              	osSlabMemAlloc:
 153              	.LFB135:
  87:C:/Users/lenovo/Desktop/liteos/Project2/BearPi_LiteOS/kernel/base/mem/common\los_slabmem.c **** 
  88:C:/Users/lenovo/Desktop/liteos/Project2/BearPi_LiteOS/kernel/base/mem/common\los_slabmem.c **** /*****************************************************************************
  89:C:/Users/lenovo/Desktop/liteos/Project2/BearPi_LiteOS/kernel/base/mem/common\los_slabmem.c ****  Function : osSlabMemAlloc
  90:C:/Users/lenovo/Desktop/liteos/Project2/BearPi_LiteOS/kernel/base/mem/common\los_slabmem.c ****  Description : To alloc memory block
  91:C:/Users/lenovo/Desktop/liteos/Project2/BearPi_LiteOS/kernel/base/mem/common\los_slabmem.c ****  Input       :  UITN32 sz --- size of the  memory we want to alloc
  92:C:/Users/lenovo/Desktop/liteos/Project2/BearPi_LiteOS/kernel/base/mem/common\los_slabmem.c ****  Output      : None
  93:C:/Users/lenovo/Desktop/liteos/Project2/BearPi_LiteOS/kernel/base/mem/common\los_slabmem.c ****  Return      : pointer :the address of the memory we alloced
  94:C:/Users/lenovo/Desktop/liteos/Project2/BearPi_LiteOS/kernel/base/mem/common\los_slabmem.c **** *****************************************************************************/
  95:C:/Users/lenovo/Desktop/liteos/Project2/BearPi_LiteOS/kernel/base/mem/common\los_slabmem.c **** VOID *osSlabMemAlloc(VOID *pPool, UINT32 uwSz)
  96:C:/Users/lenovo/Desktop/liteos/Project2/BearPi_LiteOS/kernel/base/mem/common\los_slabmem.c **** {
 154              		.loc 1 96 0
 155              		.cfi_startproc
 156              		@ args = 0, pretend = 0, frame = 0
 157              		@ frame_needed = 0, uses_anonymous_args = 0
 158              	.LVL14:
 159 0000 2DE9F041 		push	{r4, r5, r6, r7, r8, lr}
 160              	.LCFI1:
 161              		.cfi_def_cfa_offset 24
 162              		.cfi_offset 4, -24
 163              		.cfi_offset 5, -20
 164              		.cfi_offset 6, -16
 165              		.cfi_offset 7, -12
 166              		.cfi_offset 8, -8
 167              		.cfi_offset 14, -4
 168 0004 0D46     		mov	r5, r1
 169              	.LVL15:
  97:C:/Users/lenovo/Desktop/liteos/Project2/BearPi_LiteOS/kernel/base/mem/common\los_slabmem.c ****     VOID *pRet = NULL;
  98:C:/Users/lenovo/Desktop/liteos/Project2/BearPi_LiteOS/kernel/base/mem/common\los_slabmem.c ****     UINTPTR uvIntSave;
  99:C:/Users/lenovo/Desktop/liteos/Project2/BearPi_LiteOS/kernel/base/mem/common\los_slabmem.c ****     struct LOS_SLAB_CONTROL_HEADER *pstSlabMem = osSlabCtrlHdrGet(pPool);
 170              		.loc 1 99 0
 171 0006 FFF7FEFF 		bl	osSlabCtrlHdrGet
 172              	.LVL16:
 100:C:/Users/lenovo/Desktop/liteos/Project2/BearPi_LiteOS/kernel/base/mem/common\los_slabmem.c ****     OS_SLAB_MEM *pstSlabAlloc = NULL;
 101:C:/Users/lenovo/Desktop/liteos/Project2/BearPi_LiteOS/kernel/base/mem/common\los_slabmem.c ****     UINT32 uwIdx = 0;
 102:C:/Users/lenovo/Desktop/liteos/Project2/BearPi_LiteOS/kernel/base/mem/common\los_slabmem.c **** 
 103:C:/Users/lenovo/Desktop/liteos/Project2/BearPi_LiteOS/kernel/base/mem/common\los_slabmem.c ****     if (uwSz > (SLAB_MEM_CALSS_STEP_SIZE << (SLAB_MEM_COUNT - 1)))
 173              		.loc 1 103 0
 174 000a 802D     		cmp	r5, #128
 175 000c 37D8     		bhi	.L20
 176 000e 0646     		mov	r6, r0
 104:C:/Users/lenovo/Desktop/liteos/Project2/BearPi_LiteOS/kernel/base/mem/common\los_slabmem.c ****     {
ARM GAS  c:\Users\lenovo\AppData\Local\Temp\ccHTqdRM.s 			page 6


 105:C:/Users/lenovo/Desktop/liteos/Project2/BearPi_LiteOS/kernel/base/mem/common\los_slabmem.c ****         return NULL;
 106:C:/Users/lenovo/Desktop/liteos/Project2/BearPi_LiteOS/kernel/base/mem/common\los_slabmem.c ****     }
 107:C:/Users/lenovo/Desktop/liteos/Project2/BearPi_LiteOS/kernel/base/mem/common\los_slabmem.c **** 
 108:C:/Users/lenovo/Desktop/liteos/Project2/BearPi_LiteOS/kernel/base/mem/common\los_slabmem.c ****     for (uwIdx = 0; uwIdx < SLAB_MEM_COUNT; uwIdx++)
 177              		.loc 1 108 0
 178 0010 0024     		movs	r4, #0
 179              	.LVL17:
 180              	.L14:
 181              		.loc 1 108 0 is_stmt 0 discriminator 1
 182 0012 032C     		cmp	r4, #3
 183 0014 2FD8     		bhi	.L22
 109:C:/Users/lenovo/Desktop/liteos/Project2/BearPi_LiteOS/kernel/base/mem/common\los_slabmem.c ****     {
 110:C:/Users/lenovo/Desktop/liteos/Project2/BearPi_LiteOS/kernel/base/mem/common\los_slabmem.c ****         if (uwSz<= pstSlabMem->stSlabClass[uwIdx].blkSz)
 184              		.loc 1 110 0 is_stmt 1
 185 0016 2301     		lsls	r3, r4, #4
 186 0018 F358     		ldr	r3, [r6, r3]
 187 001a AB42     		cmp	r3, r5
 188 001c 01D2     		bcs	.L23
 108:C:/Users/lenovo/Desktop/liteos/Project2/BearPi_LiteOS/kernel/base/mem/common\los_slabmem.c ****     {
 189              		.loc 1 108 0 discriminator 2
 190 001e 0134     		adds	r4, r4, #1
 191              	.LVL18:
 192 0020 F7E7     		b	.L14
 193              	.L23:
 111:C:/Users/lenovo/Desktop/liteos/Project2/BearPi_LiteOS/kernel/base/mem/common\los_slabmem.c ****         {
 112:C:/Users/lenovo/Desktop/liteos/Project2/BearPi_LiteOS/kernel/base/mem/common\los_slabmem.c ****             uvIntSave = LOS_IntLock();
 194              		.loc 1 112 0
 195 0022 FFF7FEFF 		bl	LOS_IntLock
 196              	.LVL19:
 197 0026 0746     		mov	r7, r0
 198              	.LVL20:
 113:C:/Users/lenovo/Desktop/liteos/Project2/BearPi_LiteOS/kernel/base/mem/common\los_slabmem.c **** 
 114:C:/Users/lenovo/Desktop/liteos/Project2/BearPi_LiteOS/kernel/base/mem/common\los_slabmem.c ****             if (pstSlabMem->stSlabClass[uwIdx].blkUsedCnt >= pstSlabMem->stSlabClass[uwIdx].blkCnt)
 199              		.loc 1 114 0
 200 0028 06EB0413 		add	r3, r6, r4, lsl #4
 201 002c 9A68     		ldr	r2, [r3, #8]
 202 002e 5B68     		ldr	r3, [r3, #4]
 203 0030 9A42     		cmp	r2, r3
 204 0032 17D2     		bcs	.L24
 115:C:/Users/lenovo/Desktop/liteos/Project2/BearPi_LiteOS/kernel/base/mem/common\los_slabmem.c ****             {
 116:C:/Users/lenovo/Desktop/liteos/Project2/BearPi_LiteOS/kernel/base/mem/common\los_slabmem.c ****                 (VOID)LOS_IntRestore(uvIntSave);
 117:C:/Users/lenovo/Desktop/liteos/Project2/BearPi_LiteOS/kernel/base/mem/common\los_slabmem.c ****                 return NULL;
 118:C:/Users/lenovo/Desktop/liteos/Project2/BearPi_LiteOS/kernel/base/mem/common\los_slabmem.c ****             }
 119:C:/Users/lenovo/Desktop/liteos/Project2/BearPi_LiteOS/kernel/base/mem/common\los_slabmem.c **** 
 120:C:/Users/lenovo/Desktop/liteos/Project2/BearPi_LiteOS/kernel/base/mem/common\los_slabmem.c ****             if (NULL == pstSlabMem->stSlabClass[uwIdx].alloc)
 205              		.loc 1 120 0
 206 0034 06EB0413 		add	r3, r6, r4, lsl #4
 207 0038 D868     		ldr	r0, [r3, #12]
 208              	.LVL21:
 209 003a B8B1     		cbz	r0, .L25
 210              	.LVL22:
 121:C:/Users/lenovo/Desktop/liteos/Project2/BearPi_LiteOS/kernel/base/mem/common\los_slabmem.c ****             {
 122:C:/Users/lenovo/Desktop/liteos/Project2/BearPi_LiteOS/kernel/base/mem/common\los_slabmem.c ****                 (VOID)LOS_IntRestore(uvIntSave);
 123:C:/Users/lenovo/Desktop/liteos/Project2/BearPi_LiteOS/kernel/base/mem/common\los_slabmem.c ****                 return NULL;
 124:C:/Users/lenovo/Desktop/liteos/Project2/BearPi_LiteOS/kernel/base/mem/common\los_slabmem.c ****             }
 125:C:/Users/lenovo/Desktop/liteos/Project2/BearPi_LiteOS/kernel/base/mem/common\los_slabmem.c **** 
 126:C:/Users/lenovo/Desktop/liteos/Project2/BearPi_LiteOS/kernel/base/mem/common\los_slabmem.c ****             pstSlabAlloc = &(pstSlabMem->stSlabClass[uwIdx]);
ARM GAS  c:\Users\lenovo\AppData\Local\Temp\ccHTqdRM.s 			page 7


 127:C:/Users/lenovo/Desktop/liteos/Project2/BearPi_LiteOS/kernel/base/mem/common\los_slabmem.c ****             pRet = osSlabAllocatorAlloc(pstSlabAlloc->alloc);
 211              		.loc 1 127 0
 212 003c FFF7FEFF 		bl	osSlabAllocatorAlloc
 213              	.LVL23:
 128:C:/Users/lenovo/Desktop/liteos/Project2/BearPi_LiteOS/kernel/base/mem/common\los_slabmem.c ****             if (NULL != pRet)
 214              		.loc 1 128 0
 215 0040 0546     		mov	r5, r0
 216              	.LVL24:
 217 0042 58B1     		cbz	r0, .L18
 129:C:/Users/lenovo/Desktop/liteos/Project2/BearPi_LiteOS/kernel/base/mem/common\los_slabmem.c ****             {
 130:C:/Users/lenovo/Desktop/liteos/Project2/BearPi_LiteOS/kernel/base/mem/common\los_slabmem.c ****                 /* alloc success */
 131:C:/Users/lenovo/Desktop/liteos/Project2/BearPi_LiteOS/kernel/base/mem/common\los_slabmem.c ****                 pRet = osSlabBlockHeadFill((OS_SLAB_BLOCK_NODE *)pRet, pstSlabMem->stSlabClass[uwId
 218              		.loc 1 131 0
 219 0044 2401     		lsls	r4, r4, #4
 220              	.LVL25:
 221 0046 06EB0408 		add	r8, r6, r4
 222              	.LVL26:
 223 004a 3159     		ldr	r1, [r6, r4]
 224 004c FFF7FEFF 		bl	osSlabBlockHeadFill
 225              	.LVL27:
 226 0050 0546     		mov	r5, r0
 227              	.LVL28:
 132:C:/Users/lenovo/Desktop/liteos/Project2/BearPi_LiteOS/kernel/base/mem/common\los_slabmem.c ****                 pstSlabMem->stSlabClass[uwIdx].blkUsedCnt++;
 228              		.loc 1 132 0
 229 0052 D8F80830 		ldr	r3, [r8, #8]
 230 0056 0133     		adds	r3, r3, #1
 231 0058 C8F80830 		str	r3, [r8, #8]
 232              	.LVL29:
 233              	.L18:
 133:C:/Users/lenovo/Desktop/liteos/Project2/BearPi_LiteOS/kernel/base/mem/common\los_slabmem.c **** #if (LOSCFG_MEM_TASK_USED_STATISTICS == YES)
 134:C:/Users/lenovo/Desktop/liteos/Project2/BearPi_LiteOS/kernel/base/mem/common\los_slabmem.c ****                 OS_MEM_ADD_USED(pstSlabMem->stSlabClass[uwIdx].blkSz);
 135:C:/Users/lenovo/Desktop/liteos/Project2/BearPi_LiteOS/kernel/base/mem/common\los_slabmem.c **** #endif
 136:C:/Users/lenovo/Desktop/liteos/Project2/BearPi_LiteOS/kernel/base/mem/common\los_slabmem.c ****             }
 137:C:/Users/lenovo/Desktop/liteos/Project2/BearPi_LiteOS/kernel/base/mem/common\los_slabmem.c **** 
 138:C:/Users/lenovo/Desktop/liteos/Project2/BearPi_LiteOS/kernel/base/mem/common\los_slabmem.c ****             (VOID)LOS_IntRestore(uvIntSave);
 234              		.loc 1 138 0
 235 005c 3846     		mov	r0, r7
 236              	.LVL30:
 237 005e FFF7FEFF 		bl	LOS_IntRestore
 238              	.LVL31:
 139:C:/Users/lenovo/Desktop/liteos/Project2/BearPi_LiteOS/kernel/base/mem/common\los_slabmem.c ****             return pRet;
 239              		.loc 1 139 0
 240 0062 09E0     		b	.L12
 241              	.LVL32:
 242              	.L24:
 116:C:/Users/lenovo/Desktop/liteos/Project2/BearPi_LiteOS/kernel/base/mem/common\los_slabmem.c ****                 return NULL;
 243              		.loc 1 116 0
 244 0064 FFF7FEFF 		bl	LOS_IntRestore
 245              	.LVL33:
 117:C:/Users/lenovo/Desktop/liteos/Project2/BearPi_LiteOS/kernel/base/mem/common\los_slabmem.c ****             }
 246              		.loc 1 117 0
 247 0068 0025     		movs	r5, #0
 248              	.LVL34:
 249 006a 05E0     		b	.L12
 250              	.LVL35:
 251              	.L25:
 122:C:/Users/lenovo/Desktop/liteos/Project2/BearPi_LiteOS/kernel/base/mem/common\los_slabmem.c ****                 return NULL;
ARM GAS  c:\Users\lenovo\AppData\Local\Temp\ccHTqdRM.s 			page 8


 252              		.loc 1 122 0
 253 006c 3846     		mov	r0, r7
 254 006e FFF7FEFF 		bl	LOS_IntRestore
 255              	.LVL36:
 123:C:/Users/lenovo/Desktop/liteos/Project2/BearPi_LiteOS/kernel/base/mem/common\los_slabmem.c ****             }
 256              		.loc 1 123 0
 257 0072 0025     		movs	r5, #0
 258              	.LVL37:
 259 0074 00E0     		b	.L12
 260              	.LVL38:
 261              	.L22:
 140:C:/Users/lenovo/Desktop/liteos/Project2/BearPi_LiteOS/kernel/base/mem/common\los_slabmem.c ****         }
 141:C:/Users/lenovo/Desktop/liteos/Project2/BearPi_LiteOS/kernel/base/mem/common\los_slabmem.c ****     }
 142:C:/Users/lenovo/Desktop/liteos/Project2/BearPi_LiteOS/kernel/base/mem/common\los_slabmem.c **** 
 143:C:/Users/lenovo/Desktop/liteos/Project2/BearPi_LiteOS/kernel/base/mem/common\los_slabmem.c ****     return NULL;
 262              		.loc 1 143 0
 263 0076 0025     		movs	r5, #0
 264              	.LVL39:
 265              	.L12:
 144:C:/Users/lenovo/Desktop/liteos/Project2/BearPi_LiteOS/kernel/base/mem/common\los_slabmem.c **** }
 266              		.loc 1 144 0
 267 0078 2846     		mov	r0, r5
 268 007a BDE8F081 		pop	{r4, r5, r6, r7, r8, pc}
 269              	.LVL40:
 270              	.L20:
 105:C:/Users/lenovo/Desktop/liteos/Project2/BearPi_LiteOS/kernel/base/mem/common\los_slabmem.c ****     }
 271              		.loc 1 105 0
 272 007e 0025     		movs	r5, #0
 273              	.LVL41:
 274 0080 FAE7     		b	.L12
 275              		.cfi_endproc
 276              	.LFE135:
 278              		.section	.text.osSlabMemFree,"ax",%progbits
 279              		.align	1
 280              		.global	osSlabMemFree
 281              		.syntax unified
 282              		.thumb
 283              		.thumb_func
 284              		.fpu fpv4-sp-d16
 286              	osSlabMemFree:
 287              	.LFB136:
 145:C:/Users/lenovo/Desktop/liteos/Project2/BearPi_LiteOS/kernel/base/mem/common\los_slabmem.c **** 
 146:C:/Users/lenovo/Desktop/liteos/Project2/BearPi_LiteOS/kernel/base/mem/common\los_slabmem.c **** /*****************************************************************************
 147:C:/Users/lenovo/Desktop/liteos/Project2/BearPi_LiteOS/kernel/base/mem/common\los_slabmem.c ****  Function : osSlabMemFree
 148:C:/Users/lenovo/Desktop/liteos/Project2/BearPi_LiteOS/kernel/base/mem/common\los_slabmem.c ****  Description : To free the  memory block
 149:C:/Users/lenovo/Desktop/liteos/Project2/BearPi_LiteOS/kernel/base/mem/common\los_slabmem.c ****  Input       : VOID* pPtr: the pointer of heap memory we want to free
 150:C:/Users/lenovo/Desktop/liteos/Project2/BearPi_LiteOS/kernel/base/mem/common\los_slabmem.c ****  Output      : None
 151:C:/Users/lenovo/Desktop/liteos/Project2/BearPi_LiteOS/kernel/base/mem/common\los_slabmem.c ****  Return      : TRUE:success FALSE:error
 152:C:/Users/lenovo/Desktop/liteos/Project2/BearPi_LiteOS/kernel/base/mem/common\los_slabmem.c **** *****************************************************************************/
 153:C:/Users/lenovo/Desktop/liteos/Project2/BearPi_LiteOS/kernel/base/mem/common\los_slabmem.c **** BOOL osSlabMemFree(VOID *pPool, VOID* pPtr)
 154:C:/Users/lenovo/Desktop/liteos/Project2/BearPi_LiteOS/kernel/base/mem/common\los_slabmem.c **** {
 288              		.loc 1 154 0
 289              		.cfi_startproc
 290              		@ args = 0, pretend = 0, frame = 0
 291              		@ frame_needed = 0, uses_anonymous_args = 0
 292              	.LVL42:
 293 0000 F8B5     		push	{r3, r4, r5, r6, r7, lr}
ARM GAS  c:\Users\lenovo\AppData\Local\Temp\ccHTqdRM.s 			page 9


 294              	.LCFI2:
 295              		.cfi_def_cfa_offset 24
 296              		.cfi_offset 3, -24
 297              		.cfi_offset 4, -20
 298              		.cfi_offset 5, -16
 299              		.cfi_offset 6, -12
 300              		.cfi_offset 7, -8
 301              		.cfi_offset 14, -4
 302 0002 0D46     		mov	r5, r1
 155:C:/Users/lenovo/Desktop/liteos/Project2/BearPi_LiteOS/kernel/base/mem/common\los_slabmem.c ****     UINTPTR uvIntSave;
 156:C:/Users/lenovo/Desktop/liteos/Project2/BearPi_LiteOS/kernel/base/mem/common\los_slabmem.c ****     struct LOS_SLAB_CONTROL_HEADER *pstSlabMem = osSlabCtrlHdrGet(pPool);
 303              		.loc 1 156 0
 304 0004 FFF7FEFF 		bl	osSlabCtrlHdrGet
 305              	.LVL43:
 157:C:/Users/lenovo/Desktop/liteos/Project2/BearPi_LiteOS/kernel/base/mem/common\los_slabmem.c ****     BOOL bRet = FALSE;
 158:C:/Users/lenovo/Desktop/liteos/Project2/BearPi_LiteOS/kernel/base/mem/common\los_slabmem.c ****     OS_SLAB_MEM *pstSlabAlloc;
 159:C:/Users/lenovo/Desktop/liteos/Project2/BearPi_LiteOS/kernel/base/mem/common\los_slabmem.c ****     UINT32 uwIdx = 0;
 160:C:/Users/lenovo/Desktop/liteos/Project2/BearPi_LiteOS/kernel/base/mem/common\los_slabmem.c ****     OS_SLAB_BLOCK_NODE *pstSlabNode = OS_SLAB_BLOCK_HEAD_GET(pPtr);
 161:C:/Users/lenovo/Desktop/liteos/Project2/BearPi_LiteOS/kernel/base/mem/common\los_slabmem.c **** 
 162:C:/Users/lenovo/Desktop/liteos/Project2/BearPi_LiteOS/kernel/base/mem/common\los_slabmem.c ****     if (!OS_ALLOC_FROM_SLAB_CHECK(pstSlabNode))
 306              		.loc 1 162 0
 307 0008 35F8042C 		ldrh	r2, [r5, #-4]
 308 000c 4DF6DE63 		movw	r3, #57054
 309 0010 9A42     		cmp	r2, r3
 310 0012 02D0     		beq	.L35
 163:C:/Users/lenovo/Desktop/liteos/Project2/BearPi_LiteOS/kernel/base/mem/common\los_slabmem.c ****     {
 164:C:/Users/lenovo/Desktop/liteos/Project2/BearPi_LiteOS/kernel/base/mem/common\los_slabmem.c ****         return FALSE;
 311              		.loc 1 164 0
 312 0014 0024     		movs	r4, #0
 313              	.LVL44:
 314              	.L26:
 165:C:/Users/lenovo/Desktop/liteos/Project2/BearPi_LiteOS/kernel/base/mem/common\los_slabmem.c ****     }
 166:C:/Users/lenovo/Desktop/liteos/Project2/BearPi_LiteOS/kernel/base/mem/common\los_slabmem.c ****     for (uwIdx = 0; uwIdx < SLAB_MEM_COUNT; uwIdx++)
 167:C:/Users/lenovo/Desktop/liteos/Project2/BearPi_LiteOS/kernel/base/mem/common\los_slabmem.c ****     {
 168:C:/Users/lenovo/Desktop/liteos/Project2/BearPi_LiteOS/kernel/base/mem/common\los_slabmem.c ****         if (OS_SLAB_BLOCK_SIZE_GET(pstSlabNode) <= pstSlabMem->stSlabClass[uwIdx].blkSz)
 169:C:/Users/lenovo/Desktop/liteos/Project2/BearPi_LiteOS/kernel/base/mem/common\los_slabmem.c ****         {
 170:C:/Users/lenovo/Desktop/liteos/Project2/BearPi_LiteOS/kernel/base/mem/common\los_slabmem.c ****             uvIntSave = LOS_IntLock();
 171:C:/Users/lenovo/Desktop/liteos/Project2/BearPi_LiteOS/kernel/base/mem/common\los_slabmem.c **** 
 172:C:/Users/lenovo/Desktop/liteos/Project2/BearPi_LiteOS/kernel/base/mem/common\los_slabmem.c ****             pstSlabAlloc = &(pstSlabMem->stSlabClass[uwIdx]);
 173:C:/Users/lenovo/Desktop/liteos/Project2/BearPi_LiteOS/kernel/base/mem/common\los_slabmem.c ****             if (TRUE == osSlabAllocatorFree(pstSlabAlloc->alloc, pstSlabNode))
 174:C:/Users/lenovo/Desktop/liteos/Project2/BearPi_LiteOS/kernel/base/mem/common\los_slabmem.c ****             {
 175:C:/Users/lenovo/Desktop/liteos/Project2/BearPi_LiteOS/kernel/base/mem/common\los_slabmem.c ****                 bRet = TRUE;
 176:C:/Users/lenovo/Desktop/liteos/Project2/BearPi_LiteOS/kernel/base/mem/common\los_slabmem.c ****                 pstSlabMem->stSlabClass[uwIdx].blkUsedCnt--;
 177:C:/Users/lenovo/Desktop/liteos/Project2/BearPi_LiteOS/kernel/base/mem/common\los_slabmem.c **** #if (LOSCFG_MEM_TASK_USED_STATISTICS == YES)
 178:C:/Users/lenovo/Desktop/liteos/Project2/BearPi_LiteOS/kernel/base/mem/common\los_slabmem.c ****                 OS_MEM_REDUCE_USED(pstSlabMem->stSlabClass[uwIdx].blkSz);
 179:C:/Users/lenovo/Desktop/liteos/Project2/BearPi_LiteOS/kernel/base/mem/common\los_slabmem.c **** #endif
 180:C:/Users/lenovo/Desktop/liteos/Project2/BearPi_LiteOS/kernel/base/mem/common\los_slabmem.c ****             }
 181:C:/Users/lenovo/Desktop/liteos/Project2/BearPi_LiteOS/kernel/base/mem/common\los_slabmem.c **** 
 182:C:/Users/lenovo/Desktop/liteos/Project2/BearPi_LiteOS/kernel/base/mem/common\los_slabmem.c ****             (VOID)LOS_IntRestore(uvIntSave);
 183:C:/Users/lenovo/Desktop/liteos/Project2/BearPi_LiteOS/kernel/base/mem/common\los_slabmem.c ****             return bRet;
 184:C:/Users/lenovo/Desktop/liteos/Project2/BearPi_LiteOS/kernel/base/mem/common\los_slabmem.c ****         }
 185:C:/Users/lenovo/Desktop/liteos/Project2/BearPi_LiteOS/kernel/base/mem/common\los_slabmem.c ****     }
 186:C:/Users/lenovo/Desktop/liteos/Project2/BearPi_LiteOS/kernel/base/mem/common\los_slabmem.c ****     return FALSE;
 187:C:/Users/lenovo/Desktop/liteos/Project2/BearPi_LiteOS/kernel/base/mem/common\los_slabmem.c **** }
 315              		.loc 1 187 0
 316 0016 2046     		mov	r0, r4
 317 0018 F8BD     		pop	{r3, r4, r5, r6, r7, pc}
ARM GAS  c:\Users\lenovo\AppData\Local\Temp\ccHTqdRM.s 			page 10


 318              	.LVL45:
 319              	.L35:
 320 001a 0646     		mov	r6, r0
 321 001c 2F1F     		subs	r7, r5, #4
 166:C:/Users/lenovo/Desktop/liteos/Project2/BearPi_LiteOS/kernel/base/mem/common\los_slabmem.c ****     {
 322              		.loc 1 166 0
 323 001e 0024     		movs	r4, #0
 324              	.LVL46:
 325              	.L28:
 166:C:/Users/lenovo/Desktop/liteos/Project2/BearPi_LiteOS/kernel/base/mem/common\los_slabmem.c ****     {
 326              		.loc 1 166 0 is_stmt 0 discriminator 1
 327 0020 032C     		cmp	r4, #3
 328 0022 1ED8     		bhi	.L36
 168:C:/Users/lenovo/Desktop/liteos/Project2/BearPi_LiteOS/kernel/base/mem/common\los_slabmem.c ****         {
 329              		.loc 1 168 0 is_stmt 1
 330 0024 15F8022C 		ldrb	r2, [r5, #-2]	@ zero_extendqisi2
 331 0028 2301     		lsls	r3, r4, #4
 332 002a F358     		ldr	r3, [r6, r3]
 333 002c 9A42     		cmp	r2, r3
 334 002e 01D9     		bls	.L37
 166:C:/Users/lenovo/Desktop/liteos/Project2/BearPi_LiteOS/kernel/base/mem/common\los_slabmem.c ****     {
 335              		.loc 1 166 0 discriminator 2
 336 0030 0134     		adds	r4, r4, #1
 337              	.LVL47:
 338 0032 F5E7     		b	.L28
 339              	.L37:
 170:C:/Users/lenovo/Desktop/liteos/Project2/BearPi_LiteOS/kernel/base/mem/common\los_slabmem.c **** 
 340              		.loc 1 170 0
 341 0034 FFF7FEFF 		bl	LOS_IntLock
 342              	.LVL48:
 343 0038 0546     		mov	r5, r0
 344              	.LVL49:
 173:C:/Users/lenovo/Desktop/liteos/Project2/BearPi_LiteOS/kernel/base/mem/common\los_slabmem.c ****             {
 345              		.loc 1 173 0
 346 003a 06EB0413 		add	r3, r6, r4, lsl #4
 347              	.LVL50:
 348 003e 3946     		mov	r1, r7
 349 0040 D868     		ldr	r0, [r3, #12]
 350              	.LVL51:
 351 0042 FFF7FEFF 		bl	osSlabAllocatorFree
 352              	.LVL52:
 353 0046 0128     		cmp	r0, #1
 354 0048 04D0     		beq	.L38
 157:C:/Users/lenovo/Desktop/liteos/Project2/BearPi_LiteOS/kernel/base/mem/common\los_slabmem.c ****     OS_SLAB_MEM *pstSlabAlloc;
 355              		.loc 1 157 0
 356 004a 0024     		movs	r4, #0
 357              	.LVL53:
 358              	.L30:
 182:C:/Users/lenovo/Desktop/liteos/Project2/BearPi_LiteOS/kernel/base/mem/common\los_slabmem.c ****             return bRet;
 359              		.loc 1 182 0
 360 004c 2846     		mov	r0, r5
 361 004e FFF7FEFF 		bl	LOS_IntRestore
 362              	.LVL54:
 183:C:/Users/lenovo/Desktop/liteos/Project2/BearPi_LiteOS/kernel/base/mem/common\los_slabmem.c ****         }
 363              		.loc 1 183 0
 364 0052 E0E7     		b	.L26
 365              	.LVL55:
ARM GAS  c:\Users\lenovo\AppData\Local\Temp\ccHTqdRM.s 			page 11


 366              	.L38:
 176:C:/Users/lenovo/Desktop/liteos/Project2/BearPi_LiteOS/kernel/base/mem/common\los_slabmem.c **** #if (LOSCFG_MEM_TASK_USED_STATISTICS == YES)
 367              		.loc 1 176 0
 368 0054 06EB0414 		add	r4, r6, r4, lsl #4
 369              	.LVL56:
 370 0058 A368     		ldr	r3, [r4, #8]
 371 005a 013B     		subs	r3, r3, #1
 372 005c A360     		str	r3, [r4, #8]
 175:C:/Users/lenovo/Desktop/liteos/Project2/BearPi_LiteOS/kernel/base/mem/common\los_slabmem.c ****                 pstSlabMem->stSlabClass[uwIdx].blkUsedCnt--;
 373              		.loc 1 175 0
 374 005e 0124     		movs	r4, #1
 375 0060 F4E7     		b	.L30
 376              	.LVL57:
 377              	.L36:
 186:C:/Users/lenovo/Desktop/liteos/Project2/BearPi_LiteOS/kernel/base/mem/common\los_slabmem.c **** }
 378              		.loc 1 186 0
 379 0062 0024     		movs	r4, #0
 380              	.LVL58:
 381 0064 D7E7     		b	.L26
 382              		.cfi_endproc
 383              	.LFE136:
 385              		.section	.text.osSlabMemDeinit,"ax",%progbits
 386              		.align	1
 387              		.global	osSlabMemDeinit
 388              		.syntax unified
 389              		.thumb
 390              		.thumb_func
 391              		.fpu fpv4-sp-d16
 393              	osSlabMemDeinit:
 394              	.LFB137:
 188:C:/Users/lenovo/Desktop/liteos/Project2/BearPi_LiteOS/kernel/base/mem/common\los_slabmem.c **** 
 189:C:/Users/lenovo/Desktop/liteos/Project2/BearPi_LiteOS/kernel/base/mem/common\los_slabmem.c **** /*****************************************************************************
 190:C:/Users/lenovo/Desktop/liteos/Project2/BearPi_LiteOS/kernel/base/mem/common\los_slabmem.c ****  Function : osSlabMemDeinit
 191:C:/Users/lenovo/Desktop/liteos/Project2/BearPi_LiteOS/kernel/base/mem/common\los_slabmem.c ****  Description :  deinitialize the slab memory ,set back to the original status
 192:C:/Users/lenovo/Desktop/liteos/Project2/BearPi_LiteOS/kernel/base/mem/common\los_slabmem.c ****  Input       : None
 193:C:/Users/lenovo/Desktop/liteos/Project2/BearPi_LiteOS/kernel/base/mem/common\los_slabmem.c ****  Output      : None
 194:C:/Users/lenovo/Desktop/liteos/Project2/BearPi_LiteOS/kernel/base/mem/common\los_slabmem.c ****  Return      : None
 195:C:/Users/lenovo/Desktop/liteos/Project2/BearPi_LiteOS/kernel/base/mem/common\los_slabmem.c **** *****************************************************************************/
 196:C:/Users/lenovo/Desktop/liteos/Project2/BearPi_LiteOS/kernel/base/mem/common\los_slabmem.c **** VOID osSlabMemDeinit(VOID *pPool)
 197:C:/Users/lenovo/Desktop/liteos/Project2/BearPi_LiteOS/kernel/base/mem/common\los_slabmem.c **** {
 395              		.loc 1 197 0
 396              		.cfi_startproc
 397              		@ args = 0, pretend = 0, frame = 0
 398              		@ frame_needed = 0, uses_anonymous_args = 0
 399              	.LVL59:
 198:C:/Users/lenovo/Desktop/liteos/Project2/BearPi_LiteOS/kernel/base/mem/common\los_slabmem.c ****     UINT32 uwIdx;
 199:C:/Users/lenovo/Desktop/liteos/Project2/BearPi_LiteOS/kernel/base/mem/common\los_slabmem.c ****     struct LOS_SLAB_CONTROL_HEADER *pstSlabMem = NULL;
 200:C:/Users/lenovo/Desktop/liteos/Project2/BearPi_LiteOS/kernel/base/mem/common\los_slabmem.c ****     OS_SLAB_MEM *pstSlabAlloc;
 201:C:/Users/lenovo/Desktop/liteos/Project2/BearPi_LiteOS/kernel/base/mem/common\los_slabmem.c ****     UINT32 uwBlkSz;
 202:C:/Users/lenovo/Desktop/liteos/Project2/BearPi_LiteOS/kernel/base/mem/common\los_slabmem.c ****     UINT32 uwBlkCnt;
 203:C:/Users/lenovo/Desktop/liteos/Project2/BearPi_LiteOS/kernel/base/mem/common\los_slabmem.c **** 
 204:C:/Users/lenovo/Desktop/liteos/Project2/BearPi_LiteOS/kernel/base/mem/common\los_slabmem.c ****     if (NULL == pPool)
 400              		.loc 1 204 0
 401 0000 F8B1     		cbz	r0, .L45
 197:C:/Users/lenovo/Desktop/liteos/Project2/BearPi_LiteOS/kernel/base/mem/common\los_slabmem.c ****     UINT32 uwIdx;
 402              		.loc 1 197 0
 403 0002 70B5     		push	{r4, r5, r6, lr}
ARM GAS  c:\Users\lenovo\AppData\Local\Temp\ccHTqdRM.s 			page 12


 404              	.LCFI3:
 405              		.cfi_def_cfa_offset 16
 406              		.cfi_offset 4, -16
 407              		.cfi_offset 5, -12
 408              		.cfi_offset 6, -8
 409              		.cfi_offset 14, -4
 410 0004 0646     		mov	r6, r0
 205:C:/Users/lenovo/Desktop/liteos/Project2/BearPi_LiteOS/kernel/base/mem/common\los_slabmem.c ****     {
 206:C:/Users/lenovo/Desktop/liteos/Project2/BearPi_LiteOS/kernel/base/mem/common\los_slabmem.c ****         return ;
 207:C:/Users/lenovo/Desktop/liteos/Project2/BearPi_LiteOS/kernel/base/mem/common\los_slabmem.c ****     }
 208:C:/Users/lenovo/Desktop/liteos/Project2/BearPi_LiteOS/kernel/base/mem/common\los_slabmem.c ****     pstSlabMem = osSlabCtrlHdrGet(pPool);
 411              		.loc 1 208 0
 412 0006 FFF7FEFF 		bl	osSlabCtrlHdrGet
 413              	.LVL60:
 414 000a 0546     		mov	r5, r0
 415              	.LVL61:
 209:C:/Users/lenovo/Desktop/liteos/Project2/BearPi_LiteOS/kernel/base/mem/common\los_slabmem.c **** 
 210:C:/Users/lenovo/Desktop/liteos/Project2/BearPi_LiteOS/kernel/base/mem/common\los_slabmem.c ****     for (uwIdx = 0; uwIdx < SLAB_MEM_COUNT; uwIdx++)
 416              		.loc 1 210 0
 417 000c 0024     		movs	r4, #0
 418 000e 00E0     		b	.L41
 419              	.LVL62:
 420              	.L42:
 421              		.loc 1 210 0 is_stmt 0 discriminator 2
 422 0010 0134     		adds	r4, r4, #1
 423              	.LVL63:
 424              	.L41:
 425              		.loc 1 210 0 discriminator 1
 426 0012 032C     		cmp	r4, #3
 427 0014 14D8     		bhi	.L48
 211:C:/Users/lenovo/Desktop/liteos/Project2/BearPi_LiteOS/kernel/base/mem/common\los_slabmem.c ****     {
 212:C:/Users/lenovo/Desktop/liteos/Project2/BearPi_LiteOS/kernel/base/mem/common\los_slabmem.c ****         uwBlkSz = (0x10 << uwIdx);
 428              		.loc 1 212 0 is_stmt 1
 429 0016 1023     		movs	r3, #16
 430 0018 A340     		lsls	r3, r3, r4
 431              	.LVL64:
 213:C:/Users/lenovo/Desktop/liteos/Project2/BearPi_LiteOS/kernel/base/mem/common\los_slabmem.c ****         uwBlkCnt = SLAB_MEM_ALLOCATOR_SIZE / uwBlkSz;
 432              		.loc 1 213 0
 433 001a 4FF40072 		mov	r2, #512
 434 001e B2FBF3F2 		udiv	r2, r2, r3
 435              	.LVL65:
 214:C:/Users/lenovo/Desktop/liteos/Project2/BearPi_LiteOS/kernel/base/mem/common\los_slabmem.c ****         pstSlabMem->stSlabClass[uwIdx].blkSz = uwBlkSz;
 436              		.loc 1 214 0
 437 0022 2001     		lsls	r0, r4, #4
 438 0024 2918     		adds	r1, r5, r0
 439 0026 2B50     		str	r3, [r5, r0]
 215:C:/Users/lenovo/Desktop/liteos/Project2/BearPi_LiteOS/kernel/base/mem/common\los_slabmem.c ****         pstSlabMem->stSlabClass[uwIdx].blkCnt = uwBlkCnt;
 440              		.loc 1 215 0
 441 0028 4A60     		str	r2, [r1, #4]
 216:C:/Users/lenovo/Desktop/liteos/Project2/BearPi_LiteOS/kernel/base/mem/common\los_slabmem.c ****         if (NULL != pstSlabMem->stSlabClass[uwIdx].alloc)
 442              		.loc 1 216 0
 443 002a C968     		ldr	r1, [r1, #12]
 444 002c 0029     		cmp	r1, #0
 445 002e EFD0     		beq	.L42
 446              	.LVL66:
 217:C:/Users/lenovo/Desktop/liteos/Project2/BearPi_LiteOS/kernel/base/mem/common\los_slabmem.c ****         {
 218:C:/Users/lenovo/Desktop/liteos/Project2/BearPi_LiteOS/kernel/base/mem/common\los_slabmem.c ****             pstSlabAlloc = &(pstSlabMem->stSlabClass[uwIdx]);
ARM GAS  c:\Users\lenovo\AppData\Local\Temp\ccHTqdRM.s 			page 13


 219:C:/Users/lenovo/Desktop/liteos/Project2/BearPi_LiteOS/kernel/base/mem/common\los_slabmem.c ****             osSlabAllocatorDestroy(pPool, pstSlabAlloc->alloc);
 447              		.loc 1 219 0
 448 0030 3046     		mov	r0, r6
 449              	.LVL67:
 450 0032 FFF7FEFF 		bl	osSlabAllocatorDestroy
 451              	.LVL68:
 220:C:/Users/lenovo/Desktop/liteos/Project2/BearPi_LiteOS/kernel/base/mem/common\los_slabmem.c ****             pstSlabMem->stSlabClass[uwIdx].alloc = NULL;
 452              		.loc 1 220 0
 453 0036 05EB0413 		add	r3, r5, r4, lsl #4
 454              	.LVL69:
 455 003a 0022     		movs	r2, #0
 456 003c DA60     		str	r2, [r3, #12]
 457 003e E7E7     		b	.L42
 458              	.LVL70:
 459              	.L48:
 221:C:/Users/lenovo/Desktop/liteos/Project2/BearPi_LiteOS/kernel/base/mem/common\los_slabmem.c ****         }
 222:C:/Users/lenovo/Desktop/liteos/Project2/BearPi_LiteOS/kernel/base/mem/common\los_slabmem.c ****     }
 223:C:/Users/lenovo/Desktop/liteos/Project2/BearPi_LiteOS/kernel/base/mem/common\los_slabmem.c ****     return ;
 224:C:/Users/lenovo/Desktop/liteos/Project2/BearPi_LiteOS/kernel/base/mem/common\los_slabmem.c **** }
 460              		.loc 1 224 0
 461 0040 70BD     		pop	{r4, r5, r6, pc}
 462              	.LVL71:
 463              	.L45:
 464              	.LCFI4:
 465              		.cfi_def_cfa_offset 0
 466              		.cfi_restore 4
 467              		.cfi_restore 5
 468              		.cfi_restore 6
 469              		.cfi_restore 14
 470 0042 7047     		bx	lr
 471              		.cfi_endproc
 472              	.LFE137:
 474              		.section	.text.osSlabMemCheck,"ax",%progbits
 475              		.align	1
 476              		.global	osSlabMemCheck
 477              		.syntax unified
 478              		.thumb
 479              		.thumb_func
 480              		.fpu fpv4-sp-d16
 482              	osSlabMemCheck:
 483              	.LFB138:
 225:C:/Users/lenovo/Desktop/liteos/Project2/BearPi_LiteOS/kernel/base/mem/common\los_slabmem.c **** 
 226:C:/Users/lenovo/Desktop/liteos/Project2/BearPi_LiteOS/kernel/base/mem/common\los_slabmem.c **** UINT32 osSlabMemCheck(VOID *pPool, VOID* pPtr)
 227:C:/Users/lenovo/Desktop/liteos/Project2/BearPi_LiteOS/kernel/base/mem/common\los_slabmem.c **** {
 484              		.loc 1 227 0
 485              		.cfi_startproc
 486              		@ args = 0, pretend = 0, frame = 0
 487              		@ frame_needed = 0, uses_anonymous_args = 0
 488              	.LVL72:
 489 0000 2DE9F041 		push	{r4, r5, r6, r7, r8, lr}
 490              	.LCFI5:
 491              		.cfi_def_cfa_offset 24
 492              		.cfi_offset 4, -24
 493              		.cfi_offset 5, -20
 494              		.cfi_offset 6, -16
 495              		.cfi_offset 7, -12
 496              		.cfi_offset 8, -8
ARM GAS  c:\Users\lenovo\AppData\Local\Temp\ccHTqdRM.s 			page 14


 497              		.cfi_offset 14, -4
 498 0004 0C46     		mov	r4, r1
 228:C:/Users/lenovo/Desktop/liteos/Project2/BearPi_LiteOS/kernel/base/mem/common\los_slabmem.c ****     UINTPTR uvIntSave;
 229:C:/Users/lenovo/Desktop/liteos/Project2/BearPi_LiteOS/kernel/base/mem/common\los_slabmem.c ****     struct LOS_SLAB_CONTROL_HEADER *pstSlabMem = osSlabCtrlHdrGet(pPool);
 499              		.loc 1 229 0
 500 0006 FFF7FEFF 		bl	osSlabCtrlHdrGet
 501              	.LVL73:
 230:C:/Users/lenovo/Desktop/liteos/Project2/BearPi_LiteOS/kernel/base/mem/common\los_slabmem.c ****     UINT32 uwRetBlkSz = (UINT32)-1;
 231:C:/Users/lenovo/Desktop/liteos/Project2/BearPi_LiteOS/kernel/base/mem/common\los_slabmem.c ****     OS_SLAB_MEM *pstSlabAlloc;
 232:C:/Users/lenovo/Desktop/liteos/Project2/BearPi_LiteOS/kernel/base/mem/common\los_slabmem.c ****     UINT32 uwIdx = 0;
 233:C:/Users/lenovo/Desktop/liteos/Project2/BearPi_LiteOS/kernel/base/mem/common\los_slabmem.c ****     OS_SLAB_BLOCK_NODE *pstSlabNode = OS_SLAB_BLOCK_HEAD_GET(pPtr);
 234:C:/Users/lenovo/Desktop/liteos/Project2/BearPi_LiteOS/kernel/base/mem/common\los_slabmem.c **** 
 235:C:/Users/lenovo/Desktop/liteos/Project2/BearPi_LiteOS/kernel/base/mem/common\los_slabmem.c ****     if ((!OS_ALLOC_FROM_SLAB_CHECK(pstSlabNode))
 502              		.loc 1 235 0
 503 000a 34F8042C 		ldrh	r2, [r4, #-4]
 504 000e 4DF6DE63 		movw	r3, #57054
 505 0012 9A42     		cmp	r2, r3
 506 0014 1FD1     		bne	.L54
 507 0016 0546     		mov	r5, r0
 508 0018 271F     		subs	r7, r4, #4
 509              	.LVL74:
 236:C:/Users/lenovo/Desktop/liteos/Project2/BearPi_LiteOS/kernel/base/mem/common\los_slabmem.c ****         || (OS_SLAB_BLOCK_SIZE_GET(pstSlabNode) > pstSlabMem->stSlabClass[SLAB_MEM_COUNT - 1].blkSz
 510              		.loc 1 236 0
 511 001a 14F8022C 		ldrb	r2, [r4, #-2]	@ zero_extendqisi2
 512 001e 036B     		ldr	r3, [r0, #48]
 513 0020 9A42     		cmp	r2, r3
 514 0022 1DD8     		bhi	.L55
 237:C:/Users/lenovo/Desktop/liteos/Project2/BearPi_LiteOS/kernel/base/mem/common\los_slabmem.c ****     {
 238:C:/Users/lenovo/Desktop/liteos/Project2/BearPi_LiteOS/kernel/base/mem/common\los_slabmem.c ****         return uwRetBlkSz;
 239:C:/Users/lenovo/Desktop/liteos/Project2/BearPi_LiteOS/kernel/base/mem/common\los_slabmem.c ****     }
 240:C:/Users/lenovo/Desktop/liteos/Project2/BearPi_LiteOS/kernel/base/mem/common\los_slabmem.c **** 
 241:C:/Users/lenovo/Desktop/liteos/Project2/BearPi_LiteOS/kernel/base/mem/common\los_slabmem.c ****     uvIntSave = LOS_IntLock();
 515              		.loc 1 241 0
 516 0024 FFF7FEFF 		bl	LOS_IntLock
 517              	.LVL75:
 518 0028 8046     		mov	r8, r0
 519              	.LVL76:
 242:C:/Users/lenovo/Desktop/liteos/Project2/BearPi_LiteOS/kernel/base/mem/common\los_slabmem.c ****     for (uwIdx = 0; uwIdx < SLAB_MEM_COUNT; uwIdx++)
 520              		.loc 1 242 0
 521 002a 0024     		movs	r4, #0
 522              	.LVL77:
 230:C:/Users/lenovo/Desktop/liteos/Project2/BearPi_LiteOS/kernel/base/mem/common\los_slabmem.c ****     OS_SLAB_MEM *pstSlabAlloc;
 523              		.loc 1 230 0
 524 002c 4FF0FF36 		mov	r6, #-1
 525              		.loc 1 242 0
 526 0030 00E0     		b	.L51
 527              	.LVL78:
 528              	.L52:
 529              		.loc 1 242 0 is_stmt 0 discriminator 2
 530 0032 0134     		adds	r4, r4, #1
 531              	.LVL79:
 532              	.L51:
 533              		.loc 1 242 0 discriminator 1
 534 0034 032C     		cmp	r4, #3
 535 0036 0AD8     		bhi	.L57
 536              	.LVL80:
 243:C:/Users/lenovo/Desktop/liteos/Project2/BearPi_LiteOS/kernel/base/mem/common\los_slabmem.c ****     {
ARM GAS  c:\Users\lenovo\AppData\Local\Temp\ccHTqdRM.s 			page 15


 244:C:/Users/lenovo/Desktop/liteos/Project2/BearPi_LiteOS/kernel/base/mem/common\los_slabmem.c ****         pstSlabAlloc = &(pstSlabMem->stSlabClass[uwIdx]);
 245:C:/Users/lenovo/Desktop/liteos/Project2/BearPi_LiteOS/kernel/base/mem/common\los_slabmem.c ****         if (osSlabAllocatorCheck(pstSlabAlloc->alloc, pstSlabNode) == TRUE)
 537              		.loc 1 245 0 is_stmt 1
 538 0038 05EB0413 		add	r3, r5, r4, lsl #4
 539              	.LVL81:
 540 003c 3946     		mov	r1, r7
 541 003e D868     		ldr	r0, [r3, #12]
 542 0040 FFF7FEFF 		bl	osSlabAllocatorCheck
 543              	.LVL82:
 544 0044 0128     		cmp	r0, #1
 545 0046 F4D1     		bne	.L52
 246:C:/Users/lenovo/Desktop/liteos/Project2/BearPi_LiteOS/kernel/base/mem/common\los_slabmem.c ****         {
 247:C:/Users/lenovo/Desktop/liteos/Project2/BearPi_LiteOS/kernel/base/mem/common\los_slabmem.c ****             uwRetBlkSz = pstSlabMem->stSlabClass[uwIdx].blkSz;
 546              		.loc 1 247 0
 547 0048 2301     		lsls	r3, r4, #4
 548 004a EE58     		ldr	r6, [r5, r3]
 549              	.LVL83:
 550 004c F1E7     		b	.L52
 551              	.LVL84:
 552              	.L57:
 248:C:/Users/lenovo/Desktop/liteos/Project2/BearPi_LiteOS/kernel/base/mem/common\los_slabmem.c ****         }
 249:C:/Users/lenovo/Desktop/liteos/Project2/BearPi_LiteOS/kernel/base/mem/common\los_slabmem.c ****     }
 250:C:/Users/lenovo/Desktop/liteos/Project2/BearPi_LiteOS/kernel/base/mem/common\los_slabmem.c ****     (VOID)LOS_IntRestore(uvIntSave);
 553              		.loc 1 250 0
 554 004e 4046     		mov	r0, r8
 555 0050 FFF7FEFF 		bl	LOS_IntRestore
 556              	.LVL85:
 251:C:/Users/lenovo/Desktop/liteos/Project2/BearPi_LiteOS/kernel/base/mem/common\los_slabmem.c **** 
 252:C:/Users/lenovo/Desktop/liteos/Project2/BearPi_LiteOS/kernel/base/mem/common\los_slabmem.c ****     return uwRetBlkSz;
 557              		.loc 1 252 0
 558 0054 01E0     		b	.L49
 559              	.LVL86:
 560              	.L54:
 238:C:/Users/lenovo/Desktop/liteos/Project2/BearPi_LiteOS/kernel/base/mem/common\los_slabmem.c ****     }
 561              		.loc 1 238 0
 562 0056 4FF0FF36 		mov	r6, #-1
 563              	.LVL87:
 564              	.L49:
 253:C:/Users/lenovo/Desktop/liteos/Project2/BearPi_LiteOS/kernel/base/mem/common\los_slabmem.c **** }
 565              		.loc 1 253 0
 566 005a 3046     		mov	r0, r6
 567 005c BDE8F081 		pop	{r4, r5, r6, r7, r8, pc}
 568              	.LVL88:
 569              	.L55:
 238:C:/Users/lenovo/Desktop/liteos/Project2/BearPi_LiteOS/kernel/base/mem/common\los_slabmem.c ****     }
 570              		.loc 1 238 0
 571 0060 4FF0FF36 		mov	r6, #-1
 572 0064 F9E7     		b	.L49
 573              		.cfi_endproc
 574              	.LFE138:
 576              		.section	.text.osSlabStatisticsGet,"ax",%progbits
 577              		.align	1
 578              		.global	osSlabStatisticsGet
 579              		.syntax unified
 580              		.thumb
 581              		.thumb_func
 582              		.fpu fpv4-sp-d16
ARM GAS  c:\Users\lenovo\AppData\Local\Temp\ccHTqdRM.s 			page 16


 584              	osSlabStatisticsGet:
 585              	.LFB139:
 254:C:/Users/lenovo/Desktop/liteos/Project2/BearPi_LiteOS/kernel/base/mem/common\los_slabmem.c **** 
 255:C:/Users/lenovo/Desktop/liteos/Project2/BearPi_LiteOS/kernel/base/mem/common\los_slabmem.c **** UINT32 osSlabStatisticsGet(VOID *pPool, LOS_SLAB_STATUS *pstStatus)
 256:C:/Users/lenovo/Desktop/liteos/Project2/BearPi_LiteOS/kernel/base/mem/common\los_slabmem.c **** {
 586              		.loc 1 256 0
 587              		.cfi_startproc
 588              		@ args = 0, pretend = 0, frame = 16
 589              		@ frame_needed = 0, uses_anonymous_args = 0
 590              	.LVL89:
 591 0000 2DE9F04F 		push	{r4, r5, r6, r7, r8, r9, r10, fp, lr}
 592              	.LCFI6:
 593              		.cfi_def_cfa_offset 36
 594              		.cfi_offset 4, -36
 595              		.cfi_offset 5, -32
 596              		.cfi_offset 6, -28
 597              		.cfi_offset 7, -24
 598              		.cfi_offset 8, -20
 599              		.cfi_offset 9, -16
 600              		.cfi_offset 10, -12
 601              		.cfi_offset 11, -8
 602              		.cfi_offset 14, -4
 603 0004 85B0     		sub	sp, sp, #20
 604              	.LCFI7:
 605              		.cfi_def_cfa_offset 56
 606              	.LVL90:
 257:C:/Users/lenovo/Desktop/liteos/Project2/BearPi_LiteOS/kernel/base/mem/common\los_slabmem.c ****     struct LOS_SLAB_CONTROL_HEADER *pstSlabMem = NULL;
 258:C:/Users/lenovo/Desktop/liteos/Project2/BearPi_LiteOS/kernel/base/mem/common\los_slabmem.c ****     OS_SLAB_MEM *pstSlabAlloc;
 259:C:/Users/lenovo/Desktop/liteos/Project2/BearPi_LiteOS/kernel/base/mem/common\los_slabmem.c ****     UINT32 uwItemSz = 0;
 607              		.loc 1 259 0
 608 0006 0023     		movs	r3, #0
 609 0008 0393     		str	r3, [sp, #12]
 260:C:/Users/lenovo/Desktop/liteos/Project2/BearPi_LiteOS/kernel/base/mem/common\los_slabmem.c ****     UINT32 uwItemCnt = 0;
 610              		.loc 1 260 0
 611 000a 0293     		str	r3, [sp, #8]
 261:C:/Users/lenovo/Desktop/liteos/Project2/BearPi_LiteOS/kernel/base/mem/common\los_slabmem.c ****     UINT32 uwCurUsage = 0;
 612              		.loc 1 261 0
 613 000c 0193     		str	r3, [sp, #4]
 614              	.LVL91:
 262:C:/Users/lenovo/Desktop/liteos/Project2/BearPi_LiteOS/kernel/base/mem/common\los_slabmem.c ****     UINT32 uwTotalUsage = 0;
 263:C:/Users/lenovo/Desktop/liteos/Project2/BearPi_LiteOS/kernel/base/mem/common\los_slabmem.c ****     UINT32 uwTotalMem = 0;
 264:C:/Users/lenovo/Desktop/liteos/Project2/BearPi_LiteOS/kernel/base/mem/common\los_slabmem.c ****     UINT32 uwTotalallocCount = 0;
 265:C:/Users/lenovo/Desktop/liteos/Project2/BearPi_LiteOS/kernel/base/mem/common\los_slabmem.c ****     UINT32 uwTotalfreeCount = 0;
 266:C:/Users/lenovo/Desktop/liteos/Project2/BearPi_LiteOS/kernel/base/mem/common\los_slabmem.c ****     UINT32 uwIdx = 0;
 267:C:/Users/lenovo/Desktop/liteos/Project2/BearPi_LiteOS/kernel/base/mem/common\los_slabmem.c **** 
 268:C:/Users/lenovo/Desktop/liteos/Project2/BearPi_LiteOS/kernel/base/mem/common\los_slabmem.c ****     if ((NULL == pstStatus) || (NULL == pPool))
 615              		.loc 1 268 0
 616 000e 99B3     		cbz	r1, .L62
 617 0010 8946     		mov	r9, r1
 618              		.loc 1 268 0 is_stmt 0 discriminator 1
 619 0012 98B3     		cbz	r0, .L63
 269:C:/Users/lenovo/Desktop/liteos/Project2/BearPi_LiteOS/kernel/base/mem/common\los_slabmem.c ****     {
 270:C:/Users/lenovo/Desktop/liteos/Project2/BearPi_LiteOS/kernel/base/mem/common\los_slabmem.c ****         return LOS_NOK;
 271:C:/Users/lenovo/Desktop/liteos/Project2/BearPi_LiteOS/kernel/base/mem/common\los_slabmem.c ****     }
 272:C:/Users/lenovo/Desktop/liteos/Project2/BearPi_LiteOS/kernel/base/mem/common\los_slabmem.c ****     pstSlabMem = osSlabCtrlHdrGet(pPool);
 620              		.loc 1 272 0 is_stmt 1
 621 0014 FFF7FEFF 		bl	osSlabCtrlHdrGet
ARM GAS  c:\Users\lenovo\AppData\Local\Temp\ccHTqdRM.s 			page 17


 622              	.LVL92:
 623 0018 8246     		mov	r10, r0
 624              	.LVL93:
 273:C:/Users/lenovo/Desktop/liteos/Project2/BearPi_LiteOS/kernel/base/mem/common\los_slabmem.c **** 
 274:C:/Users/lenovo/Desktop/liteos/Project2/BearPi_LiteOS/kernel/base/mem/common\los_slabmem.c ****     for (uwIdx = 0; uwIdx < SLAB_MEM_COUNT; uwIdx++)
 625              		.loc 1 274 0
 626 001a 0024     		movs	r4, #0
 265:C:/Users/lenovo/Desktop/liteos/Project2/BearPi_LiteOS/kernel/base/mem/common\los_slabmem.c ****     UINT32 uwIdx = 0;
 627              		.loc 1 265 0
 628 001c 2746     		mov	r7, r4
 264:C:/Users/lenovo/Desktop/liteos/Project2/BearPi_LiteOS/kernel/base/mem/common\los_slabmem.c ****     UINT32 uwTotalfreeCount = 0;
 629              		.loc 1 264 0
 630 001e A046     		mov	r8, r4
 263:C:/Users/lenovo/Desktop/liteos/Project2/BearPi_LiteOS/kernel/base/mem/common\los_slabmem.c ****     UINT32 uwTotalallocCount = 0;
 631              		.loc 1 263 0
 632 0020 2546     		mov	r5, r4
 262:C:/Users/lenovo/Desktop/liteos/Project2/BearPi_LiteOS/kernel/base/mem/common\los_slabmem.c ****     UINT32 uwTotalMem = 0;
 633              		.loc 1 262 0
 634 0022 2646     		mov	r6, r4
 635              		.loc 1 274 0
 636 0024 17E0     		b	.L60
 637              	.LVL94:
 638              	.L61:
 275:C:/Users/lenovo/Desktop/liteos/Project2/BearPi_LiteOS/kernel/base/mem/common\los_slabmem.c ****     {
 276:C:/Users/lenovo/Desktop/liteos/Project2/BearPi_LiteOS/kernel/base/mem/common\los_slabmem.c ****         pstSlabAlloc = &(pstSlabMem->stSlabClass[uwIdx]);
 277:C:/Users/lenovo/Desktop/liteos/Project2/BearPi_LiteOS/kernel/base/mem/common\los_slabmem.c **** 
 278:C:/Users/lenovo/Desktop/liteos/Project2/BearPi_LiteOS/kernel/base/mem/common\los_slabmem.c ****         osSlabAllocatorGetSlabInfo(pstSlabAlloc->alloc, &uwItemSz, &uwItemCnt, &uwCurUsage);
 639              		.loc 1 278 0 discriminator 3
 640 0026 0AEB041B 		add	fp, r10, r4, lsl #4
 641              	.LVL95:
 642 002a 01AB     		add	r3, sp, #4
 643 002c 02AA     		add	r2, sp, #8
 644 002e 03A9     		add	r1, sp, #12
 645 0030 DBF80C00 		ldr	r0, [fp, #12]
 646 0034 FFF7FEFF 		bl	osSlabAllocatorGetSlabInfo
 647              	.LVL96:
 279:C:/Users/lenovo/Desktop/liteos/Project2/BearPi_LiteOS/kernel/base/mem/common\los_slabmem.c ****         uwTotalUsage += (uwCurUsage * uwItemSz);
 648              		.loc 1 279 0 discriminator 3
 649 0038 039B     		ldr	r3, [sp, #12]
 650 003a 019A     		ldr	r2, [sp, #4]
 651 003c 02FB0366 		mla	r6, r2, r3, r6
 652              	.LVL97:
 280:C:/Users/lenovo/Desktop/liteos/Project2/BearPi_LiteOS/kernel/base/mem/common\los_slabmem.c ****         uwTotalMem += (uwItemCnt * uwItemSz);
 653              		.loc 1 280 0 discriminator 3
 654 0040 029A     		ldr	r2, [sp, #8]
 655 0042 02FB0355 		mla	r5, r2, r3, r5
 656              	.LVL98:
 281:C:/Users/lenovo/Desktop/liteos/Project2/BearPi_LiteOS/kernel/base/mem/common\los_slabmem.c ****         uwTotalallocCount += pstSlabMem->stSlabClass[uwIdx].blkUsedCnt;
 657              		.loc 1 281 0 discriminator 3
 658 0046 DBF80820 		ldr	r2, [fp, #8]
 659 004a 9044     		add	r8, r8, r2
 660              	.LVL99:
 282:C:/Users/lenovo/Desktop/liteos/Project2/BearPi_LiteOS/kernel/base/mem/common\los_slabmem.c ****         uwTotalfreeCount  += pstSlabMem->stSlabClass[uwIdx].blkCnt - pstSlabMem->stSlabClass[uwIdx]
 661              		.loc 1 282 0 discriminator 3
 662 004c DBF80430 		ldr	r3, [fp, #4]
 663 0050 9B1A     		subs	r3, r3, r2
 664 0052 1F44     		add	r7, r7, r3
ARM GAS  c:\Users\lenovo\AppData\Local\Temp\ccHTqdRM.s 			page 18


 665              	.LVL100:
 274:C:/Users/lenovo/Desktop/liteos/Project2/BearPi_LiteOS/kernel/base/mem/common\los_slabmem.c ****     {
 666              		.loc 1 274 0 discriminator 3
 667 0054 0134     		adds	r4, r4, #1
 668              	.LVL101:
 669              	.L60:
 274:C:/Users/lenovo/Desktop/liteos/Project2/BearPi_LiteOS/kernel/base/mem/common\los_slabmem.c ****     {
 670              		.loc 1 274 0 is_stmt 0 discriminator 1
 671 0056 032C     		cmp	r4, #3
 672 0058 E5D9     		bls	.L61
 283:C:/Users/lenovo/Desktop/liteos/Project2/BearPi_LiteOS/kernel/base/mem/common\los_slabmem.c ****     }
 284:C:/Users/lenovo/Desktop/liteos/Project2/BearPi_LiteOS/kernel/base/mem/common\los_slabmem.c **** 
 285:C:/Users/lenovo/Desktop/liteos/Project2/BearPi_LiteOS/kernel/base/mem/common\los_slabmem.c ****     if (uwTotalMem < uwTotalUsage)
 673              		.loc 1 285 0 is_stmt 1
 674 005a AE42     		cmp	r6, r5
 675 005c 12D8     		bhi	.L64
 286:C:/Users/lenovo/Desktop/liteos/Project2/BearPi_LiteOS/kernel/base/mem/common\los_slabmem.c ****     {
 287:C:/Users/lenovo/Desktop/liteos/Project2/BearPi_LiteOS/kernel/base/mem/common\los_slabmem.c ****         return LOS_NOK;
 288:C:/Users/lenovo/Desktop/liteos/Project2/BearPi_LiteOS/kernel/base/mem/common\los_slabmem.c ****     }
 289:C:/Users/lenovo/Desktop/liteos/Project2/BearPi_LiteOS/kernel/base/mem/common\los_slabmem.c **** 
 290:C:/Users/lenovo/Desktop/liteos/Project2/BearPi_LiteOS/kernel/base/mem/common\los_slabmem.c ****     pstStatus->totalSize  = uwTotalMem;
 676              		.loc 1 290 0
 677 005e C9F80050 		str	r5, [r9]
 291:C:/Users/lenovo/Desktop/liteos/Project2/BearPi_LiteOS/kernel/base/mem/common\los_slabmem.c ****     pstStatus->usedSize   = uwTotalUsage;
 678              		.loc 1 291 0
 679 0062 C9F80460 		str	r6, [r9, #4]
 292:C:/Users/lenovo/Desktop/liteos/Project2/BearPi_LiteOS/kernel/base/mem/common\los_slabmem.c ****     pstStatus->freeSize   = pstStatus->totalSize - pstStatus->usedSize;
 680              		.loc 1 292 0
 681 0066 AD1B     		subs	r5, r5, r6
 682              	.LVL102:
 683 0068 C9F80850 		str	r5, [r9, #8]
 293:C:/Users/lenovo/Desktop/liteos/Project2/BearPi_LiteOS/kernel/base/mem/common\los_slabmem.c ****     pstStatus->allocCount = uwTotalallocCount;
 684              		.loc 1 293 0
 685 006c C9F80C80 		str	r8, [r9, #12]
 294:C:/Users/lenovo/Desktop/liteos/Project2/BearPi_LiteOS/kernel/base/mem/common\los_slabmem.c ****     pstStatus->freeCount  = uwTotalfreeCount;
 686              		.loc 1 294 0
 687 0070 C9F81070 		str	r7, [r9, #16]
 295:C:/Users/lenovo/Desktop/liteos/Project2/BearPi_LiteOS/kernel/base/mem/common\los_slabmem.c ****     return LOS_OK;
 688              		.loc 1 295 0
 689 0074 0020     		movs	r0, #0
 690 0076 02E0     		b	.L58
 691              	.LVL103:
 692              	.L62:
 270:C:/Users/lenovo/Desktop/liteos/Project2/BearPi_LiteOS/kernel/base/mem/common\los_slabmem.c ****     }
 693              		.loc 1 270 0
 694 0078 0120     		movs	r0, #1
 695              	.LVL104:
 696 007a 00E0     		b	.L58
 697              	.LVL105:
 698              	.L63:
 699 007c 0120     		movs	r0, #1
 700              	.LVL106:
 701              	.L58:
 296:C:/Users/lenovo/Desktop/liteos/Project2/BearPi_LiteOS/kernel/base/mem/common\los_slabmem.c **** }
 702              		.loc 1 296 0
 703 007e 05B0     		add	sp, sp, #20
 704              	.LCFI8:
ARM GAS  c:\Users\lenovo\AppData\Local\Temp\ccHTqdRM.s 			page 19


 705              		.cfi_remember_state
 706              		.cfi_def_cfa_offset 36
 707              		@ sp needed
 708 0080 BDE8F08F 		pop	{r4, r5, r6, r7, r8, r9, r10, fp, pc}
 709              	.LVL107:
 710              	.L64:
 711              	.LCFI9:
 712              		.cfi_restore_state
 287:C:/Users/lenovo/Desktop/liteos/Project2/BearPi_LiteOS/kernel/base/mem/common\los_slabmem.c ****     }
 713              		.loc 1 287 0
 714 0084 0120     		movs	r0, #1
 715 0086 FAE7     		b	.L58
 716              		.cfi_endproc
 717              	.LFE139:
 719              		.section	.text.osSlabGetMaxFreeBlkSize,"ax",%progbits
 720              		.align	1
 721              		.global	osSlabGetMaxFreeBlkSize
 722              		.syntax unified
 723              		.thumb
 724              		.thumb_func
 725              		.fpu fpv4-sp-d16
 727              	osSlabGetMaxFreeBlkSize:
 728              	.LFB140:
 297:C:/Users/lenovo/Desktop/liteos/Project2/BearPi_LiteOS/kernel/base/mem/common\los_slabmem.c **** 
 298:C:/Users/lenovo/Desktop/liteos/Project2/BearPi_LiteOS/kernel/base/mem/common\los_slabmem.c **** UINT32 osSlabGetMaxFreeBlkSize(VOID *pPool)
 299:C:/Users/lenovo/Desktop/liteos/Project2/BearPi_LiteOS/kernel/base/mem/common\los_slabmem.c **** {
 729              		.loc 1 299 0
 730              		.cfi_startproc
 731              		@ args = 0, pretend = 0, frame = 16
 732              		@ frame_needed = 0, uses_anonymous_args = 0
 733              	.LVL108:
 734 0000 30B5     		push	{r4, r5, lr}
 735              	.LCFI10:
 736              		.cfi_def_cfa_offset 12
 737              		.cfi_offset 4, -12
 738              		.cfi_offset 5, -8
 739              		.cfi_offset 14, -4
 740 0002 85B0     		sub	sp, sp, #20
 741              	.LCFI11:
 742              		.cfi_def_cfa_offset 32
 300:C:/Users/lenovo/Desktop/liteos/Project2/BearPi_LiteOS/kernel/base/mem/common\los_slabmem.c ****     struct LOS_SLAB_CONTROL_HEADER *pstSlabMem = osSlabCtrlHdrGet(pPool);
 743              		.loc 1 300 0
 744 0004 FFF7FEFF 		bl	osSlabCtrlHdrGet
 745              	.LVL109:
 746 0008 0546     		mov	r5, r0
 747              	.LVL110:
 301:C:/Users/lenovo/Desktop/liteos/Project2/BearPi_LiteOS/kernel/base/mem/common\los_slabmem.c ****     OS_SLAB_MEM *pstSlabAlloc;
 302:C:/Users/lenovo/Desktop/liteos/Project2/BearPi_LiteOS/kernel/base/mem/common\los_slabmem.c ****     UINT32 uwItemSz = 0;
 748              		.loc 1 302 0
 749 000a 0023     		movs	r3, #0
 750 000c 0393     		str	r3, [sp, #12]
 303:C:/Users/lenovo/Desktop/liteos/Project2/BearPi_LiteOS/kernel/base/mem/common\los_slabmem.c ****     UINT32 uwItemCnt = 0;
 751              		.loc 1 303 0
 752 000e 0293     		str	r3, [sp, #8]
 304:C:/Users/lenovo/Desktop/liteos/Project2/BearPi_LiteOS/kernel/base/mem/common\los_slabmem.c ****     UINT32 uwCurUsage = 0;
 753              		.loc 1 304 0
 754 0010 0193     		str	r3, [sp, #4]
ARM GAS  c:\Users\lenovo\AppData\Local\Temp\ccHTqdRM.s 			page 20


 755              	.LVL111:
 305:C:/Users/lenovo/Desktop/liteos/Project2/BearPi_LiteOS/kernel/base/mem/common\los_slabmem.c ****     int uwIdx = 0;
 306:C:/Users/lenovo/Desktop/liteos/Project2/BearPi_LiteOS/kernel/base/mem/common\los_slabmem.c **** 
 307:C:/Users/lenovo/Desktop/liteos/Project2/BearPi_LiteOS/kernel/base/mem/common\los_slabmem.c ****     for (uwIdx = SLAB_MEM_COUNT - 1; uwIdx >= 0; uwIdx--)
 756              		.loc 1 307 0
 757 0012 0324     		movs	r4, #3
 758 0014 00E0     		b	.L67
 759              	.LVL112:
 760              	.L68:
 761              		.loc 1 307 0 is_stmt 0 discriminator 2
 762 0016 013C     		subs	r4, r4, #1
 763              	.LVL113:
 764              	.L67:
 765              		.loc 1 307 0 discriminator 1
 766 0018 002C     		cmp	r4, #0
 767 001a 0FDB     		blt	.L72
 768              	.LVL114:
 308:C:/Users/lenovo/Desktop/liteos/Project2/BearPi_LiteOS/kernel/base/mem/common\los_slabmem.c ****     {
 309:C:/Users/lenovo/Desktop/liteos/Project2/BearPi_LiteOS/kernel/base/mem/common\los_slabmem.c ****         pstSlabAlloc = &(pstSlabMem->stSlabClass[uwIdx]);
 310:C:/Users/lenovo/Desktop/liteos/Project2/BearPi_LiteOS/kernel/base/mem/common\los_slabmem.c ****         if (pstSlabAlloc->alloc)
 769              		.loc 1 310 0 is_stmt 1
 770 001c 05EB0413 		add	r3, r5, r4, lsl #4
 771              	.LVL115:
 772 0020 D868     		ldr	r0, [r3, #12]
 773 0022 0028     		cmp	r0, #0
 774 0024 F7D0     		beq	.L68
 311:C:/Users/lenovo/Desktop/liteos/Project2/BearPi_LiteOS/kernel/base/mem/common\los_slabmem.c ****         {
 312:C:/Users/lenovo/Desktop/liteos/Project2/BearPi_LiteOS/kernel/base/mem/common\los_slabmem.c ****             osSlabAllocatorGetSlabInfo(pstSlabAlloc->alloc, &uwItemSz, &uwItemCnt, &uwCurUsage);
 775              		.loc 1 312 0
 776 0026 01AB     		add	r3, sp, #4
 777              	.LVL116:
 778 0028 02AA     		add	r2, sp, #8
 779 002a 03A9     		add	r1, sp, #12
 780 002c FFF7FEFF 		bl	osSlabAllocatorGetSlabInfo
 781              	.LVL117:
 313:C:/Users/lenovo/Desktop/liteos/Project2/BearPi_LiteOS/kernel/base/mem/common\los_slabmem.c ****             if (uwCurUsage != uwItemCnt)
 782              		.loc 1 313 0
 783 0030 019A     		ldr	r2, [sp, #4]
 784 0032 029B     		ldr	r3, [sp, #8]
 785 0034 9A42     		cmp	r2, r3
 786 0036 EED0     		beq	.L68
 314:C:/Users/lenovo/Desktop/liteos/Project2/BearPi_LiteOS/kernel/base/mem/common\los_slabmem.c ****             {
 315:C:/Users/lenovo/Desktop/liteos/Project2/BearPi_LiteOS/kernel/base/mem/common\los_slabmem.c ****                 return uwItemSz;
 787              		.loc 1 315 0
 788 0038 0398     		ldr	r0, [sp, #12]
 789 003a 00E0     		b	.L66
 790              	.LVL118:
 791              	.L72:
 316:C:/Users/lenovo/Desktop/liteos/Project2/BearPi_LiteOS/kernel/base/mem/common\los_slabmem.c ****             }
 317:C:/Users/lenovo/Desktop/liteos/Project2/BearPi_LiteOS/kernel/base/mem/common\los_slabmem.c ****         }
 318:C:/Users/lenovo/Desktop/liteos/Project2/BearPi_LiteOS/kernel/base/mem/common\los_slabmem.c ****     }
 319:C:/Users/lenovo/Desktop/liteos/Project2/BearPi_LiteOS/kernel/base/mem/common\los_slabmem.c **** 
 320:C:/Users/lenovo/Desktop/liteos/Project2/BearPi_LiteOS/kernel/base/mem/common\los_slabmem.c ****     return 0;
 792              		.loc 1 320 0
 793 003c 0020     		movs	r0, #0
 794              	.L66:
 321:C:/Users/lenovo/Desktop/liteos/Project2/BearPi_LiteOS/kernel/base/mem/common\los_slabmem.c **** }
ARM GAS  c:\Users\lenovo\AppData\Local\Temp\ccHTqdRM.s 			page 21


 795              		.loc 1 321 0
 796 003e 05B0     		add	sp, sp, #20
 797              	.LCFI12:
 798              		.cfi_def_cfa_offset 12
 799              		@ sp needed
 800 0040 30BD     		pop	{r4, r5, pc}
 801              		.cfi_endproc
 802              	.LFE140:
 804              		.text
 805              	.Letext0:
 806              		.file 2 "c:\\program files (x86)\\liteos studio\\resources\\arm-none-eabi\\arm-none-eabi\\include\
 807              		.file 3 "c:\\program files (x86)\\liteos studio\\resources\\arm-none-eabi\\arm-none-eabi\\include\
 808              		.file 4 "c:\\program files (x86)\\liteos studio\\resources\\arm-none-eabi\\arm-none-eabi\\include\
 809              		.file 5 "c:\\program files (x86)\\liteos studio\\resources\\arm-none-eabi\\lib\\gcc\\arm-none-eabi
 810              		.file 6 "c:\\program files (x86)\\liteos studio\\resources\\arm-none-eabi\\arm-none-eabi\\include\
 811              		.file 7 "C:/Users/lenovo/Desktop/liteos/Project2/BearPi_LiteOS/kernel/include/los_typedef.h"
 812              		.file 8 "c:\\program files (x86)\\liteos studio\\resources\\arm-none-eabi\\arm-none-eabi\\include\
 813              		.file 9 "C:/Users/lenovo/Desktop/liteos/Project2/BearPi_LiteOS/arch/arm/common/cmsis/core_cm4.h"
 814              		.file 10 "C:/Users/lenovo/Desktop/liteos/Project2/BearPi_LiteOS/targets/STM32L431_BearPi/Inc/syste
 815              		.file 11 "C:/Users/lenovo/Desktop/liteos/Project2/BearPi_LiteOS/kernel/include/los_list.h"
 816              		.file 12 "C:/Users/lenovo/Desktop/liteos/Project2/BearPi_LiteOS/kernel/include/los_err.h"
 817              		.file 13 "C:/Users/lenovo/Desktop/liteos/Project2/BearPi_LiteOS/arch/arm/arm-m/include/los_hwi.h"
 818              		.file 14 "C:/Users/lenovo/Desktop/liteos/Project2/BearPi_LiteOS/kernel/include/los_tick.h"
 819              		.file 15 "C:/Users/lenovo/Desktop/liteos/Project2/BearPi_LiteOS/kernel/include/los_event.h"
 820              		.file 16 "C:/Users/lenovo/Desktop/liteos/Project2/BearPi_LiteOS/kernel/include/los_task.h"
 821              		.file 17 "C:/Users/lenovo/Desktop/liteos/Project2/BearPi_LiteOS/kernel/base/include/los_task.ph"
 822              		.file 18 "C:/Users/lenovo/Desktop/liteos/Project2/BearPi_LiteOS/targets/STM32L431_BearPi/Inc/main.
 823              		.file 19 "C:/Users/lenovo/Desktop/liteos/Project2/BearPi_LiteOS/targets/STM32L431_BearPi/OS_CONFIG
 824              		.file 20 "C:/Users/lenovo/Desktop/liteos/Project2/BearPi_LiteOS/kernel/include/los_config.h"
 825              		.file 21 "C:/Users/lenovo/Desktop/liteos/Project2/BearPi_LiteOS/kernel/base/include/los_slab.ph"
ARM GAS  c:\Users\lenovo\AppData\Local\Temp\ccHTqdRM.s 			page 22

