ARM GAS  c:\Users\lenovo\AppData\Local\Temp\ccwkNIEC.s 			page 1


   1              		.cpu cortex-m4
   2              		.eabi_attribute 27, 1
   3              		.eabi_attribute 28, 1
   4              		.eabi_attribute 20, 1
   5              		.eabi_attribute 21, 1
   6              		.eabi_attribute 23, 3
   7              		.eabi_attribute 24, 1
   8              		.eabi_attribute 25, 1
   9              		.eabi_attribute 26, 1
  10              		.eabi_attribute 30, 1
  11              		.eabi_attribute 34, 1
  12              		.eabi_attribute 18, 4
  13              		.file	"los_init.c"
  14              		.text
  15              	.Ltext0:
  16              		.cfi_sections	.debug_frame
  17              		.section	.text.osRegister,"ax",%progbits
  18              		.align	1
  19              		.syntax unified
  20              		.thumb
  21              		.thumb_func
  22              		.fpu fpv4-sp-d16
  24              	osRegister:
  25              	.LFB135:
  26              		.file 1 "C:/Users/lenovo/Desktop/liteos/Project2/BearPi_LiteOS/kernel/los_init.c"
   1:C:/Users/lenovo/Desktop/liteos/Project2/BearPi_LiteOS/kernel\los_init.c **** /*----------------------------------------------------------------------------
   2:C:/Users/lenovo/Desktop/liteos/Project2/BearPi_LiteOS/kernel\los_init.c ****  * Copyright (c) <2013-2015>, <Huawei Technologies Co., Ltd>
   3:C:/Users/lenovo/Desktop/liteos/Project2/BearPi_LiteOS/kernel\los_init.c ****  * All rights reserved.
   4:C:/Users/lenovo/Desktop/liteos/Project2/BearPi_LiteOS/kernel\los_init.c ****  * Redistribution and use in source and binary forms, with or without modification,
   5:C:/Users/lenovo/Desktop/liteos/Project2/BearPi_LiteOS/kernel\los_init.c ****  * are permitted provided that the following conditions are met:
   6:C:/Users/lenovo/Desktop/liteos/Project2/BearPi_LiteOS/kernel\los_init.c ****  * 1. Redistributions of source code must retain the above copyright notice, this list of
   7:C:/Users/lenovo/Desktop/liteos/Project2/BearPi_LiteOS/kernel\los_init.c ****  * conditions and the following disclaimer.
   8:C:/Users/lenovo/Desktop/liteos/Project2/BearPi_LiteOS/kernel\los_init.c ****  * 2. Redistributions in binary form must reproduce the above copyright notice, this list
   9:C:/Users/lenovo/Desktop/liteos/Project2/BearPi_LiteOS/kernel\los_init.c ****  * of conditions and the following disclaimer in the documentation and/or other materials
  10:C:/Users/lenovo/Desktop/liteos/Project2/BearPi_LiteOS/kernel\los_init.c ****  * provided with the distribution.
  11:C:/Users/lenovo/Desktop/liteos/Project2/BearPi_LiteOS/kernel\los_init.c ****  * 3. Neither the name of the copyright holder nor the names of its contributors may be used
  12:C:/Users/lenovo/Desktop/liteos/Project2/BearPi_LiteOS/kernel\los_init.c ****  * to endorse or promote products derived from this software without specific prior written
  13:C:/Users/lenovo/Desktop/liteos/Project2/BearPi_LiteOS/kernel\los_init.c ****  * permission.
  14:C:/Users/lenovo/Desktop/liteos/Project2/BearPi_LiteOS/kernel\los_init.c ****  * THIS SOFTWARE IS PROVIDED BY THE COPYRIGHT HOLDERS AND CONTRIBUTORS
  15:C:/Users/lenovo/Desktop/liteos/Project2/BearPi_LiteOS/kernel\los_init.c ****  * "AS IS" AND ANY EXPRESS OR IMPLIED WARRANTIES, INCLUDING, BUT NOT LIMITED TO,
  16:C:/Users/lenovo/Desktop/liteos/Project2/BearPi_LiteOS/kernel\los_init.c ****  * THE IMPLIED WARRANTIES OF MERCHANTABILITY AND FITNESS FOR A PARTICULAR
  17:C:/Users/lenovo/Desktop/liteos/Project2/BearPi_LiteOS/kernel\los_init.c ****  * PURPOSE ARE DISCLAIMED. IN NO EVENT SHALL THE COPYRIGHT HOLDER OR
  18:C:/Users/lenovo/Desktop/liteos/Project2/BearPi_LiteOS/kernel\los_init.c ****  * CONTRIBUTORS BE LIABLE FOR ANY DIRECT, INDIRECT, INCIDENTAL, SPECIAL,
  19:C:/Users/lenovo/Desktop/liteos/Project2/BearPi_LiteOS/kernel\los_init.c ****  * EXEMPLARY, OR CONSEQUENTIAL DAMAGES (INCLUDING, BUT NOT LIMITED TO,
  20:C:/Users/lenovo/Desktop/liteos/Project2/BearPi_LiteOS/kernel\los_init.c ****  * PROCUREMENT OF SUBSTITUTE GOODS OR SERVICES; LOSS OF USE, DATA, OR PROFITS;
  21:C:/Users/lenovo/Desktop/liteos/Project2/BearPi_LiteOS/kernel\los_init.c ****  * OR BUSINESS INTERRUPTION) HOWEVER CAUSED AND ON ANY THEORY OF LIABILITY,
  22:C:/Users/lenovo/Desktop/liteos/Project2/BearPi_LiteOS/kernel\los_init.c ****  * WHETHER IN CONTRACT, STRICT LIABILITY, OR TORT (INCLUDING NEGLIGENCE OR
  23:C:/Users/lenovo/Desktop/liteos/Project2/BearPi_LiteOS/kernel\los_init.c ****  * OTHERWISE) ARISING IN ANY WAY OUT OF THE USE OF THIS SOFTWARE, EVEN IF
  24:C:/Users/lenovo/Desktop/liteos/Project2/BearPi_LiteOS/kernel\los_init.c ****  * ADVISED OF THE POSSIBILITY OF SUCH DAMAGE.
  25:C:/Users/lenovo/Desktop/liteos/Project2/BearPi_LiteOS/kernel\los_init.c ****  *---------------------------------------------------------------------------*/
  26:C:/Users/lenovo/Desktop/liteos/Project2/BearPi_LiteOS/kernel\los_init.c **** /*----------------------------------------------------------------------------
  27:C:/Users/lenovo/Desktop/liteos/Project2/BearPi_LiteOS/kernel\los_init.c ****  * Notice of Export Control Law
  28:C:/Users/lenovo/Desktop/liteos/Project2/BearPi_LiteOS/kernel\los_init.c ****  * ===============================================
  29:C:/Users/lenovo/Desktop/liteos/Project2/BearPi_LiteOS/kernel\los_init.c ****  * Huawei LiteOS may be subject to applicable export control laws and regulations, which might
  30:C:/Users/lenovo/Desktop/liteos/Project2/BearPi_LiteOS/kernel\los_init.c ****  * include those applicable to Huawei LiteOS of U.S. and the country in which you are located.
  31:C:/Users/lenovo/Desktop/liteos/Project2/BearPi_LiteOS/kernel\los_init.c ****  * Import, export and usage of Huawei LiteOS in any manner by you shall be in compliance with such
  32:C:/Users/lenovo/Desktop/liteos/Project2/BearPi_LiteOS/kernel\los_init.c ****  * applicable export control laws and regulations.
ARM GAS  c:\Users\lenovo\AppData\Local\Temp\ccwkNIEC.s 			page 2


  33:C:/Users/lenovo/Desktop/liteos/Project2/BearPi_LiteOS/kernel\los_init.c ****  *---------------------------------------------------------------------------*/
  34:C:/Users/lenovo/Desktop/liteos/Project2/BearPi_LiteOS/kernel\los_init.c **** #include "los_sys.h"
  35:C:/Users/lenovo/Desktop/liteos/Project2/BearPi_LiteOS/kernel\los_init.c **** #include "los_tick.h"
  36:C:/Users/lenovo/Desktop/liteos/Project2/BearPi_LiteOS/kernel\los_init.c **** #include "los_task.ph"
  37:C:/Users/lenovo/Desktop/liteos/Project2/BearPi_LiteOS/kernel\los_init.c **** #include "los_config.h"
  38:C:/Users/lenovo/Desktop/liteos/Project2/BearPi_LiteOS/kernel\los_init.c **** 
  39:C:/Users/lenovo/Desktop/liteos/Project2/BearPi_LiteOS/kernel\los_init.c **** #if (LOSCFG_PLATFORM_EXC == YES)
  40:C:/Users/lenovo/Desktop/liteos/Project2/BearPi_LiteOS/kernel\los_init.c **** #include "los_exc.ph"
  41:C:/Users/lenovo/Desktop/liteos/Project2/BearPi_LiteOS/kernel\los_init.c **** #endif
  42:C:/Users/lenovo/Desktop/liteos/Project2/BearPi_LiteOS/kernel\los_init.c **** 
  43:C:/Users/lenovo/Desktop/liteos/Project2/BearPi_LiteOS/kernel\los_init.c **** #ifdef __cplusplus
  44:C:/Users/lenovo/Desktop/liteos/Project2/BearPi_LiteOS/kernel\los_init.c **** #if __cplusplus
  45:C:/Users/lenovo/Desktop/liteos/Project2/BearPi_LiteOS/kernel\los_init.c **** extern "C" {
  46:C:/Users/lenovo/Desktop/liteos/Project2/BearPi_LiteOS/kernel\los_init.c **** #endif /* __cpluscplus */
  47:C:/Users/lenovo/Desktop/liteos/Project2/BearPi_LiteOS/kernel\los_init.c **** #endif /* __cpluscplus */
  48:C:/Users/lenovo/Desktop/liteos/Project2/BearPi_LiteOS/kernel\los_init.c **** 
  49:C:/Users/lenovo/Desktop/liteos/Project2/BearPi_LiteOS/kernel\los_init.c **** LITE_OS_SEC_BSS UINT8* m_aucSysMem0;
  50:C:/Users/lenovo/Desktop/liteos/Project2/BearPi_LiteOS/kernel\los_init.c **** 
  51:C:/Users/lenovo/Desktop/liteos/Project2/BearPi_LiteOS/kernel\los_init.c **** #if ((LOSCFG_PLATFORM_EXC == YES) && (LOSCFG_SAVE_EXC_INFO == YES))
  52:C:/Users/lenovo/Desktop/liteos/Project2/BearPi_LiteOS/kernel\los_init.c **** LITE_OS_SEC_BSS UINT8 m_aucTaskArray[MAX_EXC_MEM_SIZE];
  53:C:/Users/lenovo/Desktop/liteos/Project2/BearPi_LiteOS/kernel\los_init.c **** #endif
  54:C:/Users/lenovo/Desktop/liteos/Project2/BearPi_LiteOS/kernel\los_init.c **** 
  55:C:/Users/lenovo/Desktop/liteos/Project2/BearPi_LiteOS/kernel\los_init.c **** LITE_OS_SEC_TEXT_INIT void osEnableFPU(void)
  56:C:/Users/lenovo/Desktop/liteos/Project2/BearPi_LiteOS/kernel\los_init.c **** {
  57:C:/Users/lenovo/Desktop/liteos/Project2/BearPi_LiteOS/kernel\los_init.c ****     *(volatile UINT32 *)0xE000ED88 |= ((3UL << 20)|(3UL << 22));
  58:C:/Users/lenovo/Desktop/liteos/Project2/BearPi_LiteOS/kernel\los_init.c **** }
  59:C:/Users/lenovo/Desktop/liteos/Project2/BearPi_LiteOS/kernel\los_init.c **** 
  60:C:/Users/lenovo/Desktop/liteos/Project2/BearPi_LiteOS/kernel\los_init.c **** /*****************************************************************************
  61:C:/Users/lenovo/Desktop/liteos/Project2/BearPi_LiteOS/kernel\los_init.c ****  Function    : LOS_Reboot
  62:C:/Users/lenovo/Desktop/liteos/Project2/BearPi_LiteOS/kernel\los_init.c ****  Description : system exception, die in here, wait for watchdog.
  63:C:/Users/lenovo/Desktop/liteos/Project2/BearPi_LiteOS/kernel\los_init.c ****  Input       : None
  64:C:/Users/lenovo/Desktop/liteos/Project2/BearPi_LiteOS/kernel\los_init.c ****  Output      : None
  65:C:/Users/lenovo/Desktop/liteos/Project2/BearPi_LiteOS/kernel\los_init.c ****  Return      : None
  66:C:/Users/lenovo/Desktop/liteos/Project2/BearPi_LiteOS/kernel\los_init.c ****  *****************************************************************************/
  67:C:/Users/lenovo/Desktop/liteos/Project2/BearPi_LiteOS/kernel\los_init.c **** LITE_OS_SEC_TEXT_INIT VOID LOS_Reboot(VOID)
  68:C:/Users/lenovo/Desktop/liteos/Project2/BearPi_LiteOS/kernel\los_init.c **** {
  69:C:/Users/lenovo/Desktop/liteos/Project2/BearPi_LiteOS/kernel\los_init.c ****     (VOID) LOS_IntLock();
  70:C:/Users/lenovo/Desktop/liteos/Project2/BearPi_LiteOS/kernel\los_init.c ****     while (1)
  71:C:/Users/lenovo/Desktop/liteos/Project2/BearPi_LiteOS/kernel\los_init.c ****     {
  72:C:/Users/lenovo/Desktop/liteos/Project2/BearPi_LiteOS/kernel\los_init.c ****     }
  73:C:/Users/lenovo/Desktop/liteos/Project2/BearPi_LiteOS/kernel\los_init.c **** }
  74:C:/Users/lenovo/Desktop/liteos/Project2/BearPi_LiteOS/kernel\los_init.c **** /*****************************************************************************
  75:C:/Users/lenovo/Desktop/liteos/Project2/BearPi_LiteOS/kernel\los_init.c ****  Function    : osRegister
  76:C:/Users/lenovo/Desktop/liteos/Project2/BearPi_LiteOS/kernel\los_init.c ****  Description : Configuring the maximum number of tasks
  77:C:/Users/lenovo/Desktop/liteos/Project2/BearPi_LiteOS/kernel\los_init.c ****  Input       : None
  78:C:/Users/lenovo/Desktop/liteos/Project2/BearPi_LiteOS/kernel\los_init.c ****  Output      : None
  79:C:/Users/lenovo/Desktop/liteos/Project2/BearPi_LiteOS/kernel\los_init.c ****  Return      : None
  80:C:/Users/lenovo/Desktop/liteos/Project2/BearPi_LiteOS/kernel\los_init.c ****  *****************************************************************************/
  81:C:/Users/lenovo/Desktop/liteos/Project2/BearPi_LiteOS/kernel\los_init.c **** LITE_OS_SEC_TEXT_INIT static VOID osRegister(VOID)
  82:C:/Users/lenovo/Desktop/liteos/Project2/BearPi_LiteOS/kernel\los_init.c **** {
  27              		.loc 1 82 0
  28              		.cfi_startproc
  29              		@ args = 0, pretend = 0, frame = 0
  30              		@ frame_needed = 0, uses_anonymous_args = 0
  31              		@ link register save eliminated.
  83:C:/Users/lenovo/Desktop/liteos/Project2/BearPi_LiteOS/kernel\los_init.c ****     g_uwTskMaxNum = LOSCFG_BASE_CORE_TSK_LIMIT + 1; /* Reserved 1 for IDLE */
  32              		.loc 1 83 0
ARM GAS  c:\Users\lenovo\AppData\Local\Temp\ccwkNIEC.s 			page 3


  33 0000 014B     		ldr	r3, .L2
  34 0002 1022     		movs	r2, #16
  35 0004 1A60     		str	r2, [r3]
  84:C:/Users/lenovo/Desktop/liteos/Project2/BearPi_LiteOS/kernel\los_init.c **** 
  85:C:/Users/lenovo/Desktop/liteos/Project2/BearPi_LiteOS/kernel\los_init.c ****     return;
  86:C:/Users/lenovo/Desktop/liteos/Project2/BearPi_LiteOS/kernel\los_init.c **** }
  36              		.loc 1 86 0
  37 0006 7047     		bx	lr
  38              	.L3:
  39              		.align	2
  40              	.L2:
  41 0008 00000000 		.word	g_uwTskMaxNum
  42              		.cfi_endproc
  43              	.LFE135:
  45              		.section	.text.osEnableFPU,"ax",%progbits
  46              		.align	1
  47              		.global	osEnableFPU
  48              		.syntax unified
  49              		.thumb
  50              		.thumb_func
  51              		.fpu fpv4-sp-d16
  53              	osEnableFPU:
  54              	.LFB133:
  56:C:/Users/lenovo/Desktop/liteos/Project2/BearPi_LiteOS/kernel\los_init.c ****     *(volatile UINT32 *)0xE000ED88 |= ((3UL << 20)|(3UL << 22));
  55              		.loc 1 56 0
  56              		.cfi_startproc
  57              		@ args = 0, pretend = 0, frame = 0
  58              		@ frame_needed = 0, uses_anonymous_args = 0
  59              		@ link register save eliminated.
  57:C:/Users/lenovo/Desktop/liteos/Project2/BearPi_LiteOS/kernel\los_init.c **** }
  60              		.loc 1 57 0
  61 0000 024A     		ldr	r2, .L5
  62 0002 1368     		ldr	r3, [r2]
  63 0004 43F47003 		orr	r3, r3, #15728640
  64 0008 1360     		str	r3, [r2]
  58:C:/Users/lenovo/Desktop/liteos/Project2/BearPi_LiteOS/kernel\los_init.c **** 
  65              		.loc 1 58 0
  66 000a 7047     		bx	lr
  67              	.L6:
  68              		.align	2
  69              	.L5:
  70 000c 88ED00E0 		.word	-536810104
  71              		.cfi_endproc
  72              	.LFE133:
  74              		.section	.text.LOS_Reboot,"ax",%progbits
  75              		.align	1
  76              		.global	LOS_Reboot
  77              		.syntax unified
  78              		.thumb
  79              		.thumb_func
  80              		.fpu fpv4-sp-d16
  82              	LOS_Reboot:
  83              	.LFB134:
  68:C:/Users/lenovo/Desktop/liteos/Project2/BearPi_LiteOS/kernel\los_init.c ****     (VOID) LOS_IntLock();
  84              		.loc 1 68 0
  85              		.cfi_startproc
  86              		@ Volatile: function does not return.
ARM GAS  c:\Users\lenovo\AppData\Local\Temp\ccwkNIEC.s 			page 4


  87              		@ args = 0, pretend = 0, frame = 0
  88              		@ frame_needed = 0, uses_anonymous_args = 0
  89 0000 08B5     		push	{r3, lr}
  90              	.LCFI0:
  91              		.cfi_def_cfa_offset 8
  92              		.cfi_offset 3, -8
  93              		.cfi_offset 14, -4
  69:C:/Users/lenovo/Desktop/liteos/Project2/BearPi_LiteOS/kernel\los_init.c ****     while (1)
  94              		.loc 1 69 0
  95 0002 FFF7FEFF 		bl	LOS_IntLock
  96              	.LVL0:
  97              	.L8:
  98 0006 FEE7     		b	.L8
  99              		.cfi_endproc
 100              	.LFE134:
 102              		.section	.text.LOS_Start,"ax",%progbits
 103              		.align	1
 104              		.global	LOS_Start
 105              		.syntax unified
 106              		.thumb
 107              		.thumb_func
 108              		.fpu fpv4-sp-d16
 110              	LOS_Start:
 111              	.LFB136:
  87:C:/Users/lenovo/Desktop/liteos/Project2/BearPi_LiteOS/kernel\los_init.c **** 
  88:C:/Users/lenovo/Desktop/liteos/Project2/BearPi_LiteOS/kernel\los_init.c **** /*****************************************************************************
  89:C:/Users/lenovo/Desktop/liteos/Project2/BearPi_LiteOS/kernel\los_init.c ****  Function    : LOS_Start
  90:C:/Users/lenovo/Desktop/liteos/Project2/BearPi_LiteOS/kernel\los_init.c ****  Description : Task start function
  91:C:/Users/lenovo/Desktop/liteos/Project2/BearPi_LiteOS/kernel\los_init.c ****  Input       : None
  92:C:/Users/lenovo/Desktop/liteos/Project2/BearPi_LiteOS/kernel\los_init.c ****  Output      : None
  93:C:/Users/lenovo/Desktop/liteos/Project2/BearPi_LiteOS/kernel\los_init.c ****  Return      : LOS_OK on success or error code on failure
  94:C:/Users/lenovo/Desktop/liteos/Project2/BearPi_LiteOS/kernel\los_init.c ****  *****************************************************************************/
  95:C:/Users/lenovo/Desktop/liteos/Project2/BearPi_LiteOS/kernel\los_init.c **** LITE_OS_SEC_TEXT_INIT UINT32 LOS_Start(VOID)
  96:C:/Users/lenovo/Desktop/liteos/Project2/BearPi_LiteOS/kernel\los_init.c **** {
 112              		.loc 1 96 0
 113              		.cfi_startproc
 114              		@ args = 0, pretend = 0, frame = 0
 115              		@ frame_needed = 0, uses_anonymous_args = 0
 116 0000 10B5     		push	{r4, lr}
 117              	.LCFI1:
 118              		.cfi_def_cfa_offset 8
 119              		.cfi_offset 4, -8
 120              		.cfi_offset 14, -4
  97:C:/Users/lenovo/Desktop/liteos/Project2/BearPi_LiteOS/kernel\los_init.c ****     UINT32 uwRet;
  98:C:/Users/lenovo/Desktop/liteos/Project2/BearPi_LiteOS/kernel\los_init.c **** #if (LOSCFG_BASE_CORE_TICK_HW_TIME == NO)
  99:C:/Users/lenovo/Desktop/liteos/Project2/BearPi_LiteOS/kernel\los_init.c ****     uwRet = osTickStart();
 121              		.loc 1 99 0
 122 0002 FFF7FEFF 		bl	osTickStart
 123              	.LVL1:
 100:C:/Users/lenovo/Desktop/liteos/Project2/BearPi_LiteOS/kernel\los_init.c **** 
 101:C:/Users/lenovo/Desktop/liteos/Project2/BearPi_LiteOS/kernel\los_init.c ****     if (uwRet != LOS_OK)
 124              		.loc 1 101 0
 125 0006 0446     		mov	r4, r0
 126 0008 18B9     		cbnz	r0, .L14
 102:C:/Users/lenovo/Desktop/liteos/Project2/BearPi_LiteOS/kernel\los_init.c ****     {
 103:C:/Users/lenovo/Desktop/liteos/Project2/BearPi_LiteOS/kernel\los_init.c ****         PRINT_ERR("osTickStart error\n");
 104:C:/Users/lenovo/Desktop/liteos/Project2/BearPi_LiteOS/kernel\los_init.c ****         return uwRet;
ARM GAS  c:\Users\lenovo\AppData\Local\Temp\ccwkNIEC.s 			page 5


 105:C:/Users/lenovo/Desktop/liteos/Project2/BearPi_LiteOS/kernel\los_init.c ****     }
 106:C:/Users/lenovo/Desktop/liteos/Project2/BearPi_LiteOS/kernel\los_init.c **** #else
 107:C:/Users/lenovo/Desktop/liteos/Project2/BearPi_LiteOS/kernel\los_init.c ****     extern int os_timer_init(void);
 108:C:/Users/lenovo/Desktop/liteos/Project2/BearPi_LiteOS/kernel\los_init.c ****     uwRet = os_timer_init();
 109:C:/Users/lenovo/Desktop/liteos/Project2/BearPi_LiteOS/kernel\los_init.c ****     if (uwRet != LOS_OK)
 110:C:/Users/lenovo/Desktop/liteos/Project2/BearPi_LiteOS/kernel\los_init.c ****     {
 111:C:/Users/lenovo/Desktop/liteos/Project2/BearPi_LiteOS/kernel\los_init.c ****         PRINT_ERR("os_timer_init error\n");
 112:C:/Users/lenovo/Desktop/liteos/Project2/BearPi_LiteOS/kernel\los_init.c ****         return uwRet;
 113:C:/Users/lenovo/Desktop/liteos/Project2/BearPi_LiteOS/kernel\los_init.c ****     }
 114:C:/Users/lenovo/Desktop/liteos/Project2/BearPi_LiteOS/kernel\los_init.c **** #endif
 115:C:/Users/lenovo/Desktop/liteos/Project2/BearPi_LiteOS/kernel\los_init.c **** 
 116:C:/Users/lenovo/Desktop/liteos/Project2/BearPi_LiteOS/kernel\los_init.c **** #if (LOSCFG_LIB_LIBC_NEWLIB_REENT == YES)
 117:C:/Users/lenovo/Desktop/liteos/Project2/BearPi_LiteOS/kernel\los_init.c ****     extern VOID osTaskSwitchImpurePtr(VOID);
 118:C:/Users/lenovo/Desktop/liteos/Project2/BearPi_LiteOS/kernel\los_init.c ****     osTaskSwitchImpurePtr();
 119:C:/Users/lenovo/Desktop/liteos/Project2/BearPi_LiteOS/kernel\los_init.c **** #endif
 120:C:/Users/lenovo/Desktop/liteos/Project2/BearPi_LiteOS/kernel\los_init.c **** 
 121:C:/Users/lenovo/Desktop/liteos/Project2/BearPi_LiteOS/kernel\los_init.c ****     LOS_StartToRun();
 127              		.loc 1 121 0
 128 000a FFF7FEFF 		bl	LOS_StartToRun
 129              	.LVL2:
 130              	.L10:
 122:C:/Users/lenovo/Desktop/liteos/Project2/BearPi_LiteOS/kernel\los_init.c **** 
 123:C:/Users/lenovo/Desktop/liteos/Project2/BearPi_LiteOS/kernel\los_init.c ****     return uwRet;
 124:C:/Users/lenovo/Desktop/liteos/Project2/BearPi_LiteOS/kernel\los_init.c **** }
 131              		.loc 1 124 0
 132 000e 2046     		mov	r0, r4
 133 0010 10BD     		pop	{r4, pc}
 134              	.LVL3:
 135              	.L14:
 103:C:/Users/lenovo/Desktop/liteos/Project2/BearPi_LiteOS/kernel\los_init.c ****         return uwRet;
 136              		.loc 1 103 0
 137 0012 0348     		ldr	r0, .L15
 138              	.LVL4:
 139 0014 FFF7FEFF 		bl	printf
 140              	.LVL5:
 141 0018 0248     		ldr	r0, .L15+4
 142 001a FFF7FEFF 		bl	puts
 143              	.LVL6:
 104:C:/Users/lenovo/Desktop/liteos/Project2/BearPi_LiteOS/kernel\los_init.c ****     }
 144              		.loc 1 104 0
 145 001e F6E7     		b	.L10
 146              	.L16:
 147              		.align	2
 148              	.L15:
 149 0020 00000000 		.word	.LC0
 150 0024 08000000 		.word	.LC1
 151              		.cfi_endproc
 152              	.LFE136:
 154              		.section	.text.LOS_KernelInit,"ax",%progbits
 155              		.align	1
 156              		.global	LOS_KernelInit
 157              		.syntax unified
 158              		.thumb
 159              		.thumb_func
 160              		.fpu fpv4-sp-d16
 162              	LOS_KernelInit:
 163              	.LFB137:
ARM GAS  c:\Users\lenovo\AppData\Local\Temp\ccwkNIEC.s 			page 6


 125:C:/Users/lenovo/Desktop/liteos/Project2/BearPi_LiteOS/kernel\los_init.c **** 
 126:C:/Users/lenovo/Desktop/liteos/Project2/BearPi_LiteOS/kernel\los_init.c **** /*****************************************************************************
 127:C:/Users/lenovo/Desktop/liteos/Project2/BearPi_LiteOS/kernel\los_init.c ****  Function    : LOS_KernelInit
 128:C:/Users/lenovo/Desktop/liteos/Project2/BearPi_LiteOS/kernel\los_init.c ****  Description : System kernel initialization function, configure all system modules
 129:C:/Users/lenovo/Desktop/liteos/Project2/BearPi_LiteOS/kernel\los_init.c ****  Input       : None
 130:C:/Users/lenovo/Desktop/liteos/Project2/BearPi_LiteOS/kernel\los_init.c ****  Output      : None
 131:C:/Users/lenovo/Desktop/liteos/Project2/BearPi_LiteOS/kernel\los_init.c ****  Return      : LOS_OK on success or error code on failure
 132:C:/Users/lenovo/Desktop/liteos/Project2/BearPi_LiteOS/kernel\los_init.c ****  *****************************************************************************/
 133:C:/Users/lenovo/Desktop/liteos/Project2/BearPi_LiteOS/kernel\los_init.c **** LITE_OS_SEC_TEXT_INIT UINT32 LOS_KernelInit(VOID)
 134:C:/Users/lenovo/Desktop/liteos/Project2/BearPi_LiteOS/kernel\los_init.c **** {
 164              		.loc 1 134 0
 165              		.cfi_startproc
 166              		@ args = 0, pretend = 0, frame = 0
 167              		@ frame_needed = 0, uses_anonymous_args = 0
 168 0000 10B5     		push	{r4, lr}
 169              	.LCFI2:
 170              		.cfi_def_cfa_offset 8
 171              		.cfi_offset 4, -8
 172              		.cfi_offset 14, -4
 135:C:/Users/lenovo/Desktop/liteos/Project2/BearPi_LiteOS/kernel\los_init.c ****     UINT32 uwRet;
 136:C:/Users/lenovo/Desktop/liteos/Project2/BearPi_LiteOS/kernel\los_init.c **** 
 137:C:/Users/lenovo/Desktop/liteos/Project2/BearPi_LiteOS/kernel\los_init.c ****     osRegister();
 173              		.loc 1 137 0
 174 0002 FFF7FEFF 		bl	osRegister
 175              	.LVL7:
 138:C:/Users/lenovo/Desktop/liteos/Project2/BearPi_LiteOS/kernel\los_init.c **** 
 139:C:/Users/lenovo/Desktop/liteos/Project2/BearPi_LiteOS/kernel\los_init.c ****     m_aucSysMem0 = OS_SYS_MEM_ADDR;
 176              		.loc 1 139 0
 177 0006 214B     		ldr	r3, .L28
 178 0008 214A     		ldr	r2, .L28+4
 179 000a 1A60     		str	r2, [r3]
 140:C:/Users/lenovo/Desktop/liteos/Project2/BearPi_LiteOS/kernel\los_init.c ****     uwRet = osMemSystemInit();
 180              		.loc 1 140 0
 181 000c FFF7FEFF 		bl	osMemSystemInit
 182              	.LVL8:
 141:C:/Users/lenovo/Desktop/liteos/Project2/BearPi_LiteOS/kernel\los_init.c ****     if (uwRet != LOS_OK)
 183              		.loc 1 141 0
 184 0010 E8B9     		cbnz	r0, .L24
 142:C:/Users/lenovo/Desktop/liteos/Project2/BearPi_LiteOS/kernel\los_init.c ****     {
 143:C:/Users/lenovo/Desktop/liteos/Project2/BearPi_LiteOS/kernel\los_init.c ****         PRINT_ERR("osMemSystemInit error %d\n", uwRet);/*lint !e515*/
 144:C:/Users/lenovo/Desktop/liteos/Project2/BearPi_LiteOS/kernel\los_init.c ****         return uwRet;
 145:C:/Users/lenovo/Desktop/liteos/Project2/BearPi_LiteOS/kernel\los_init.c ****     }
 146:C:/Users/lenovo/Desktop/liteos/Project2/BearPi_LiteOS/kernel\los_init.c **** 
 147:C:/Users/lenovo/Desktop/liteos/Project2/BearPi_LiteOS/kernel\los_init.c **** #if (LOSCFG_PLATFORM_HWI == YES)
 148:C:/Users/lenovo/Desktop/liteos/Project2/BearPi_LiteOS/kernel\los_init.c ****     {
 149:C:/Users/lenovo/Desktop/liteos/Project2/BearPi_LiteOS/kernel\los_init.c ****         osHwiInit();
 185              		.loc 1 149 0
 186 0012 FFF7FEFF 		bl	osHwiInit
 187              	.LVL9:
 150:C:/Users/lenovo/Desktop/liteos/Project2/BearPi_LiteOS/kernel\los_init.c ****     }
 151:C:/Users/lenovo/Desktop/liteos/Project2/BearPi_LiteOS/kernel\los_init.c **** #endif
 152:C:/Users/lenovo/Desktop/liteos/Project2/BearPi_LiteOS/kernel\los_init.c **** 
 153:C:/Users/lenovo/Desktop/liteos/Project2/BearPi_LiteOS/kernel\los_init.c **** #if (LOSCFG_PLATFORM_EXC == YES)
 154:C:/Users/lenovo/Desktop/liteos/Project2/BearPi_LiteOS/kernel\los_init.c ****     {
 155:C:/Users/lenovo/Desktop/liteos/Project2/BearPi_LiteOS/kernel\los_init.c ****         osExcInit(MAX_EXC_MEM_SIZE);
 156:C:/Users/lenovo/Desktop/liteos/Project2/BearPi_LiteOS/kernel\los_init.c ****     }
 157:C:/Users/lenovo/Desktop/liteos/Project2/BearPi_LiteOS/kernel\los_init.c **** #endif
ARM GAS  c:\Users\lenovo\AppData\Local\Temp\ccwkNIEC.s 			page 7


 158:C:/Users/lenovo/Desktop/liteos/Project2/BearPi_LiteOS/kernel\los_init.c **** 
 159:C:/Users/lenovo/Desktop/liteos/Project2/BearPi_LiteOS/kernel\los_init.c ****     uwRet =osTaskInit();
 188              		.loc 1 159 0
 189 0016 FFF7FEFF 		bl	osTaskInit
 190              	.LVL10:
 160:C:/Users/lenovo/Desktop/liteos/Project2/BearPi_LiteOS/kernel\los_init.c ****     if (uwRet != LOS_OK)
 191              		.loc 1 160 0
 192 001a 0446     		mov	r4, r0
 193 001c 08BB     		cbnz	r0, .L25
 161:C:/Users/lenovo/Desktop/liteos/Project2/BearPi_LiteOS/kernel\los_init.c ****     {
 162:C:/Users/lenovo/Desktop/liteos/Project2/BearPi_LiteOS/kernel\los_init.c ****         PRINT_ERR("osTaskInit error\n");
 163:C:/Users/lenovo/Desktop/liteos/Project2/BearPi_LiteOS/kernel\los_init.c ****         return uwRet;
 164:C:/Users/lenovo/Desktop/liteos/Project2/BearPi_LiteOS/kernel\los_init.c ****     }
 165:C:/Users/lenovo/Desktop/liteos/Project2/BearPi_LiteOS/kernel\los_init.c **** 
 166:C:/Users/lenovo/Desktop/liteos/Project2/BearPi_LiteOS/kernel\los_init.c **** #if (LOSCFG_BASE_CORE_TSK_MONITOR == YES)
 167:C:/Users/lenovo/Desktop/liteos/Project2/BearPi_LiteOS/kernel\los_init.c ****     {
 168:C:/Users/lenovo/Desktop/liteos/Project2/BearPi_LiteOS/kernel\los_init.c ****         osTaskMonInit();
 194              		.loc 1 168 0
 195 001e FFF7FEFF 		bl	osTaskMonInit
 196              	.LVL11:
 169:C:/Users/lenovo/Desktop/liteos/Project2/BearPi_LiteOS/kernel\los_init.c ****     }
 170:C:/Users/lenovo/Desktop/liteos/Project2/BearPi_LiteOS/kernel\los_init.c **** #endif
 171:C:/Users/lenovo/Desktop/liteos/Project2/BearPi_LiteOS/kernel\los_init.c **** 
 172:C:/Users/lenovo/Desktop/liteos/Project2/BearPi_LiteOS/kernel\los_init.c **** #if (LOSCFG_BASE_CORE_CPUP == YES)
 173:C:/Users/lenovo/Desktop/liteos/Project2/BearPi_LiteOS/kernel\los_init.c ****     {
 174:C:/Users/lenovo/Desktop/liteos/Project2/BearPi_LiteOS/kernel\los_init.c ****         uwRet = osCpupInit();
 175:C:/Users/lenovo/Desktop/liteos/Project2/BearPi_LiteOS/kernel\los_init.c ****         if (uwRet != LOS_OK)
 176:C:/Users/lenovo/Desktop/liteos/Project2/BearPi_LiteOS/kernel\los_init.c ****         {
 177:C:/Users/lenovo/Desktop/liteos/Project2/BearPi_LiteOS/kernel\los_init.c ****             PRINT_ERR("osCpupInit error\n");
 178:C:/Users/lenovo/Desktop/liteos/Project2/BearPi_LiteOS/kernel\los_init.c ****             return uwRet;
 179:C:/Users/lenovo/Desktop/liteos/Project2/BearPi_LiteOS/kernel\los_init.c ****         }
 180:C:/Users/lenovo/Desktop/liteos/Project2/BearPi_LiteOS/kernel\los_init.c ****     }
 181:C:/Users/lenovo/Desktop/liteos/Project2/BearPi_LiteOS/kernel\los_init.c **** #endif
 182:C:/Users/lenovo/Desktop/liteos/Project2/BearPi_LiteOS/kernel\los_init.c **** 
 183:C:/Users/lenovo/Desktop/liteos/Project2/BearPi_LiteOS/kernel\los_init.c **** #if (LOSCFG_BASE_IPC_SEM == YES)
 184:C:/Users/lenovo/Desktop/liteos/Project2/BearPi_LiteOS/kernel\los_init.c ****     {
 185:C:/Users/lenovo/Desktop/liteos/Project2/BearPi_LiteOS/kernel\los_init.c ****         uwRet = osSemInit();
 197              		.loc 1 185 0
 198 0022 FFF7FEFF 		bl	osSemInit
 199              	.LVL12:
 186:C:/Users/lenovo/Desktop/liteos/Project2/BearPi_LiteOS/kernel\los_init.c ****         if (uwRet != LOS_OK)
 200              		.loc 1 186 0
 201 0026 0446     		mov	r4, r0
 202 0028 C8B9     		cbnz	r0, .L17
 187:C:/Users/lenovo/Desktop/liteos/Project2/BearPi_LiteOS/kernel\los_init.c ****         {
 188:C:/Users/lenovo/Desktop/liteos/Project2/BearPi_LiteOS/kernel\los_init.c ****             return uwRet;
 189:C:/Users/lenovo/Desktop/liteos/Project2/BearPi_LiteOS/kernel\los_init.c ****         }
 190:C:/Users/lenovo/Desktop/liteos/Project2/BearPi_LiteOS/kernel\los_init.c ****     }
 191:C:/Users/lenovo/Desktop/liteos/Project2/BearPi_LiteOS/kernel\los_init.c **** #endif
 192:C:/Users/lenovo/Desktop/liteos/Project2/BearPi_LiteOS/kernel\los_init.c **** 
 193:C:/Users/lenovo/Desktop/liteos/Project2/BearPi_LiteOS/kernel\los_init.c **** #if (LOSCFG_BASE_IPC_MUX == YES)
 194:C:/Users/lenovo/Desktop/liteos/Project2/BearPi_LiteOS/kernel\los_init.c ****     {
 195:C:/Users/lenovo/Desktop/liteos/Project2/BearPi_LiteOS/kernel\los_init.c ****         uwRet = osMuxInit();
 203              		.loc 1 195 0
 204 002a FFF7FEFF 		bl	osMuxInit
 205              	.LVL13:
 196:C:/Users/lenovo/Desktop/liteos/Project2/BearPi_LiteOS/kernel\los_init.c ****         if (uwRet != LOS_OK)
ARM GAS  c:\Users\lenovo\AppData\Local\Temp\ccwkNIEC.s 			page 8


 206              		.loc 1 196 0
 207 002e 0446     		mov	r4, r0
 208 0030 A8B9     		cbnz	r0, .L17
 197:C:/Users/lenovo/Desktop/liteos/Project2/BearPi_LiteOS/kernel\los_init.c ****         {
 198:C:/Users/lenovo/Desktop/liteos/Project2/BearPi_LiteOS/kernel\los_init.c ****             return uwRet;
 199:C:/Users/lenovo/Desktop/liteos/Project2/BearPi_LiteOS/kernel\los_init.c ****         }
 200:C:/Users/lenovo/Desktop/liteos/Project2/BearPi_LiteOS/kernel\los_init.c ****     }
 201:C:/Users/lenovo/Desktop/liteos/Project2/BearPi_LiteOS/kernel\los_init.c **** #endif
 202:C:/Users/lenovo/Desktop/liteos/Project2/BearPi_LiteOS/kernel\los_init.c **** 
 203:C:/Users/lenovo/Desktop/liteos/Project2/BearPi_LiteOS/kernel\los_init.c **** #if (LOSCFG_BASE_IPC_QUEUE == YES)
 204:C:/Users/lenovo/Desktop/liteos/Project2/BearPi_LiteOS/kernel\los_init.c ****     {
 205:C:/Users/lenovo/Desktop/liteos/Project2/BearPi_LiteOS/kernel\los_init.c ****         uwRet = osQueueInit();
 209              		.loc 1 205 0
 210 0032 FFF7FEFF 		bl	osQueueInit
 211              	.LVL14:
 206:C:/Users/lenovo/Desktop/liteos/Project2/BearPi_LiteOS/kernel\los_init.c ****         if (uwRet != LOS_OK)
 212              		.loc 1 206 0
 213 0036 0446     		mov	r4, r0
 214 0038 D0B9     		cbnz	r0, .L26
 207:C:/Users/lenovo/Desktop/liteos/Project2/BearPi_LiteOS/kernel\los_init.c ****         {
 208:C:/Users/lenovo/Desktop/liteos/Project2/BearPi_LiteOS/kernel\los_init.c ****             PRINT_ERR("osQueueInit error\n");
 209:C:/Users/lenovo/Desktop/liteos/Project2/BearPi_LiteOS/kernel\los_init.c ****             return uwRet;
 210:C:/Users/lenovo/Desktop/liteos/Project2/BearPi_LiteOS/kernel\los_init.c ****         }
 211:C:/Users/lenovo/Desktop/liteos/Project2/BearPi_LiteOS/kernel\los_init.c ****     }
 212:C:/Users/lenovo/Desktop/liteos/Project2/BearPi_LiteOS/kernel\los_init.c **** #endif
 213:C:/Users/lenovo/Desktop/liteos/Project2/BearPi_LiteOS/kernel\los_init.c **** 
 214:C:/Users/lenovo/Desktop/liteos/Project2/BearPi_LiteOS/kernel\los_init.c **** #if (LOSCFG_BASE_CORE_SWTMR == YES)
 215:C:/Users/lenovo/Desktop/liteos/Project2/BearPi_LiteOS/kernel\los_init.c ****     {
 216:C:/Users/lenovo/Desktop/liteos/Project2/BearPi_LiteOS/kernel\los_init.c ****         uwRet = osSwTmrInit();
 215              		.loc 1 216 0
 216 003a FFF7FEFF 		bl	osSwTmrInit
 217              	.LVL15:
 217:C:/Users/lenovo/Desktop/liteos/Project2/BearPi_LiteOS/kernel\los_init.c ****         if (uwRet != LOS_OK)
 218              		.loc 1 217 0
 219 003e 0446     		mov	r4, r0
 220 0040 E8B9     		cbnz	r0, .L27
 218:C:/Users/lenovo/Desktop/liteos/Project2/BearPi_LiteOS/kernel\los_init.c ****         {
 219:C:/Users/lenovo/Desktop/liteos/Project2/BearPi_LiteOS/kernel\los_init.c ****             PRINT_ERR("osSwTmrInit error\n");
 220:C:/Users/lenovo/Desktop/liteos/Project2/BearPi_LiteOS/kernel\los_init.c ****             return uwRet;
 221:C:/Users/lenovo/Desktop/liteos/Project2/BearPi_LiteOS/kernel\los_init.c ****         }
 222:C:/Users/lenovo/Desktop/liteos/Project2/BearPi_LiteOS/kernel\los_init.c ****     }
 223:C:/Users/lenovo/Desktop/liteos/Project2/BearPi_LiteOS/kernel\los_init.c **** #endif
 224:C:/Users/lenovo/Desktop/liteos/Project2/BearPi_LiteOS/kernel\los_init.c **** 
 225:C:/Users/lenovo/Desktop/liteos/Project2/BearPi_LiteOS/kernel\los_init.c ****     #if(LOSCFG_BASE_CORE_TIMESLICE == YES)
 226:C:/Users/lenovo/Desktop/liteos/Project2/BearPi_LiteOS/kernel\los_init.c ****     osTimesliceInit();
 221              		.loc 1 226 0
 222 0042 FFF7FEFF 		bl	osTimesliceInit
 223              	.LVL16:
 227:C:/Users/lenovo/Desktop/liteos/Project2/BearPi_LiteOS/kernel\los_init.c ****     #endif
 228:C:/Users/lenovo/Desktop/liteos/Project2/BearPi_LiteOS/kernel\los_init.c **** 
 229:C:/Users/lenovo/Desktop/liteos/Project2/BearPi_LiteOS/kernel\los_init.c ****     uwRet = osIdleTaskCreate();
 224              		.loc 1 229 0
 225 0046 FFF7FEFF 		bl	osIdleTaskCreate
 226              	.LVL17:
 227 004a 0446     		mov	r4, r0
 228              	.LVL18:
 229 004c 07E0     		b	.L17
ARM GAS  c:\Users\lenovo\AppData\Local\Temp\ccwkNIEC.s 			page 9


 230              	.L24:
 231 004e 0446     		mov	r4, r0
 143:C:/Users/lenovo/Desktop/liteos/Project2/BearPi_LiteOS/kernel\los_init.c ****         return uwRet;
 232              		.loc 1 143 0
 233 0050 1048     		ldr	r0, .L28+8
 234              	.LVL19:
 235 0052 FFF7FEFF 		bl	printf
 236              	.LVL20:
 237 0056 2146     		mov	r1, r4
 238 0058 0F48     		ldr	r0, .L28+12
 239 005a FFF7FEFF 		bl	printf
 240              	.LVL21:
 241              	.L17:
 230:C:/Users/lenovo/Desktop/liteos/Project2/BearPi_LiteOS/kernel\los_init.c ****     if (uwRet != LOS_OK)
 231:C:/Users/lenovo/Desktop/liteos/Project2/BearPi_LiteOS/kernel\los_init.c ****     {
 232:C:/Users/lenovo/Desktop/liteos/Project2/BearPi_LiteOS/kernel\los_init.c ****         return uwRet;
 233:C:/Users/lenovo/Desktop/liteos/Project2/BearPi_LiteOS/kernel\los_init.c ****     }
 234:C:/Users/lenovo/Desktop/liteos/Project2/BearPi_LiteOS/kernel\los_init.c **** 
 235:C:/Users/lenovo/Desktop/liteos/Project2/BearPi_LiteOS/kernel\los_init.c **** #if (LOSCFG_TEST == YES)
 236:C:/Users/lenovo/Desktop/liteos/Project2/BearPi_LiteOS/kernel\los_init.c ****     uwRet = los_TestInit();
 237:C:/Users/lenovo/Desktop/liteos/Project2/BearPi_LiteOS/kernel\los_init.c ****     if (uwRet != LOS_OK)
 238:C:/Users/lenovo/Desktop/liteos/Project2/BearPi_LiteOS/kernel\los_init.c ****     {
 239:C:/Users/lenovo/Desktop/liteos/Project2/BearPi_LiteOS/kernel\los_init.c ****         PRINT_ERR("los_TestInit error\n");
 240:C:/Users/lenovo/Desktop/liteos/Project2/BearPi_LiteOS/kernel\los_init.c ****         return uwRet;
 241:C:/Users/lenovo/Desktop/liteos/Project2/BearPi_LiteOS/kernel\los_init.c ****     }
 242:C:/Users/lenovo/Desktop/liteos/Project2/BearPi_LiteOS/kernel\los_init.c **** #endif
 243:C:/Users/lenovo/Desktop/liteos/Project2/BearPi_LiteOS/kernel\los_init.c **** 
 244:C:/Users/lenovo/Desktop/liteos/Project2/BearPi_LiteOS/kernel\los_init.c ****     return LOS_OK;
 245:C:/Users/lenovo/Desktop/liteos/Project2/BearPi_LiteOS/kernel\los_init.c **** }
 242              		.loc 1 245 0
 243 005e 2046     		mov	r0, r4
 244 0060 10BD     		pop	{r4, pc}
 245              	.LVL22:
 246              	.L25:
 162:C:/Users/lenovo/Desktop/liteos/Project2/BearPi_LiteOS/kernel\los_init.c ****         return uwRet;
 247              		.loc 1 162 0
 248 0062 0C48     		ldr	r0, .L28+8
 249              	.LVL23:
 250 0064 FFF7FEFF 		bl	printf
 251              	.LVL24:
 252 0068 0C48     		ldr	r0, .L28+16
 253 006a FFF7FEFF 		bl	puts
 254              	.LVL25:
 163:C:/Users/lenovo/Desktop/liteos/Project2/BearPi_LiteOS/kernel\los_init.c ****     }
 255              		.loc 1 163 0
 256 006e F6E7     		b	.L17
 257              	.LVL26:
 258              	.L26:
 208:C:/Users/lenovo/Desktop/liteos/Project2/BearPi_LiteOS/kernel\los_init.c ****             return uwRet;
 259              		.loc 1 208 0
 260 0070 0848     		ldr	r0, .L28+8
 261              	.LVL27:
 262 0072 FFF7FEFF 		bl	printf
 263              	.LVL28:
 264 0076 0A48     		ldr	r0, .L28+20
 265 0078 FFF7FEFF 		bl	puts
 266              	.LVL29:
ARM GAS  c:\Users\lenovo\AppData\Local\Temp\ccwkNIEC.s 			page 10


 209:C:/Users/lenovo/Desktop/liteos/Project2/BearPi_LiteOS/kernel\los_init.c ****         }
 267              		.loc 1 209 0
 268 007c EFE7     		b	.L17
 269              	.LVL30:
 270              	.L27:
 219:C:/Users/lenovo/Desktop/liteos/Project2/BearPi_LiteOS/kernel\los_init.c ****             return uwRet;
 271              		.loc 1 219 0
 272 007e 0548     		ldr	r0, .L28+8
 273              	.LVL31:
 274 0080 FFF7FEFF 		bl	printf
 275              	.LVL32:
 276 0084 0748     		ldr	r0, .L28+24
 277 0086 FFF7FEFF 		bl	puts
 278              	.LVL33:
 220:C:/Users/lenovo/Desktop/liteos/Project2/BearPi_LiteOS/kernel\los_init.c ****         }
 279              		.loc 1 220 0
 280 008a E8E7     		b	.L17
 281              	.L29:
 282              		.align	2
 283              	.L28:
 284 008c 00000000 		.word	m_aucSysMem0
 285 0090 00000000 		.word	__los_heap_addr_start__
 286 0094 00000000 		.word	.LC0
 287 0098 00000000 		.word	.LC2
 288 009c 1C000000 		.word	.LC3
 289 00a0 30000000 		.word	.LC4
 290 00a4 44000000 		.word	.LC5
 291              		.cfi_endproc
 292              	.LFE137:
 294              		.comm	m_aucSysMem0,4,4
 295              		.section	.rodata.LOS_KernelInit.str1.4,"aMS",%progbits,1
 296              		.align	2
 297              	.LC2:
 298 0000 6F734D65 		.ascii	"osMemSystemInit error %d\012\000"
 298      6D537973 
 298      74656D49 
 298      6E697420 
 298      6572726F 
 299 001a 0000     		.space	2
 300              	.LC3:
 301 001c 6F735461 		.ascii	"osTaskInit error\000"
 301      736B496E 
 301      69742065 
 301      72726F72 
 301      00
 302 002d 000000   		.space	3
 303              	.LC4:
 304 0030 6F735175 		.ascii	"osQueueInit error\000"
 304      65756549 
 304      6E697420 
 304      6572726F 
 304      7200
 305 0042 0000     		.space	2
 306              	.LC5:
 307 0044 6F735377 		.ascii	"osSwTmrInit error\000"
 307      546D7249 
 307      6E697420 
ARM GAS  c:\Users\lenovo\AppData\Local\Temp\ccwkNIEC.s 			page 11


 307      6572726F 
 307      7200
 308              		.section	.rodata.LOS_Start.str1.4,"aMS",%progbits,1
 309              		.align	2
 310              	.LC0:
 311 0000 5B455252 		.ascii	"[ERR] \000"
 311      5D2000
 312 0007 00       		.space	1
 313              	.LC1:
 314 0008 6F735469 		.ascii	"osTickStart error\000"
 314      636B5374 
 314      61727420 
 314      6572726F 
 314      7200
 315              		.text
 316              	.Letext0:
 317              		.file 2 "c:\\program files (x86)\\liteos studio\\resources\\arm-none-eabi\\arm-none-eabi\\include\
 318              		.file 3 "c:\\program files (x86)\\liteos studio\\resources\\arm-none-eabi\\arm-none-eabi\\include\
 319              		.file 4 "c:\\program files (x86)\\liteos studio\\resources\\arm-none-eabi\\arm-none-eabi\\include\
 320              		.file 5 "c:\\program files (x86)\\liteos studio\\resources\\arm-none-eabi\\lib\\gcc\\arm-none-eabi
 321              		.file 6 "c:\\program files (x86)\\liteos studio\\resources\\arm-none-eabi\\arm-none-eabi\\include\
 322              		.file 7 "C:/Users/lenovo/Desktop/liteos/Project2/BearPi_LiteOS/kernel/include/los_typedef.h"
 323              		.file 8 "c:\\program files (x86)\\liteos studio\\resources\\arm-none-eabi\\arm-none-eabi\\include\
 324              		.file 9 "C:/Users/lenovo/Desktop/liteos/Project2/BearPi_LiteOS/arch/arm/common/cmsis/core_cm4.h"
 325              		.file 10 "C:/Users/lenovo/Desktop/liteos/Project2/BearPi_LiteOS/targets/STM32L431_BearPi/Inc/syste
 326              		.file 11 "C:/Users/lenovo/Desktop/liteos/Project2/BearPi_LiteOS/kernel/include/los_list.h"
 327              		.file 12 "C:/Users/lenovo/Desktop/liteos/Project2/BearPi_LiteOS/kernel/include/los_err.h"
 328              		.file 13 "C:/Users/lenovo/Desktop/liteos/Project2/BearPi_LiteOS/kernel/include/los_tick.h"
 329              		.file 14 "C:/Users/lenovo/Desktop/liteos/Project2/BearPi_LiteOS/kernel/include/los_event.h"
 330              		.file 15 "C:/Users/lenovo/Desktop/liteos/Project2/BearPi_LiteOS/kernel/include/los_task.h"
 331              		.file 16 "C:/Users/lenovo/Desktop/liteos/Project2/BearPi_LiteOS/kernel/base/include/los_task.ph"
 332              		.file 17 "C:/Users/lenovo/Desktop/liteos/Project2/BearPi_LiteOS/targets/STM32L431_BearPi/Inc/main.
 333              		.file 18 "C:/Users/lenovo/Desktop/liteos/Project2/BearPi_LiteOS/targets/STM32L431_BearPi/OS_CONFIG
 334              		.file 19 "C:/Users/lenovo/Desktop/liteos/Project2/BearPi_LiteOS/kernel/include/los_config.h"
 335              		.file 20 "C:/Users/lenovo/Desktop/liteos/Project2/BearPi_LiteOS/arch/arm/arm-m/include/los_hwi.h"
 336              		.file 21 "c:\\program files (x86)\\liteos studio\\resources\\arm-none-eabi\\arm-none-eabi\\include
 337              		.file 22 "<built-in>"
ARM GAS  c:\Users\lenovo\AppData\Local\Temp\ccwkNIEC.s 			page 12

