ARM GAS  c:\Users\lenovo\AppData\Local\Temp\ccRoLgVe.s 			page 1


   1              		.cpu cortex-m4
   2              		.eabi_attribute 27, 1
   3              		.eabi_attribute 28, 1
   4              		.eabi_attribute 20, 1
   5              		.eabi_attribute 21, 1
   6              		.eabi_attribute 23, 3
   7              		.eabi_attribute 24, 1
   8              		.eabi_attribute 25, 1
   9              		.eabi_attribute 26, 1
  10              		.eabi_attribute 30, 1
  11              		.eabi_attribute 34, 1
  12              		.eabi_attribute 18, 4
  13              		.file	"los_timeslice.c"
  14              		.text
  15              	.Ltext0:
  16              		.cfi_sections	.debug_frame
  17              		.section	.text.osTimesliceInit,"ax",%progbits
  18              		.align	1
  19              		.global	osTimesliceInit
  20              		.syntax unified
  21              		.thumb
  22              		.thumb_func
  23              		.fpu fpv4-sp-d16
  25              	osTimesliceInit:
  26              	.LFB135:
  27              		.file 1 "C:/Users/lenovo/Desktop/liteos/Project2/BearPi_LiteOS/kernel/base/core/los_timeslice.c"
   1:C:/Users/lenovo/Desktop/liteos/Project2/BearPi_LiteOS/kernel/base/core\los_timeslice.c **** /*----------------------------------------------------------------------------
   2:C:/Users/lenovo/Desktop/liteos/Project2/BearPi_LiteOS/kernel/base/core\los_timeslice.c ****  * Copyright (c) <2013-2015>, <Huawei Technologies Co., Ltd>
   3:C:/Users/lenovo/Desktop/liteos/Project2/BearPi_LiteOS/kernel/base/core\los_timeslice.c ****  * All rights reserved.
   4:C:/Users/lenovo/Desktop/liteos/Project2/BearPi_LiteOS/kernel/base/core\los_timeslice.c ****  * Redistribution and use in source and binary forms, with or without modification,
   5:C:/Users/lenovo/Desktop/liteos/Project2/BearPi_LiteOS/kernel/base/core\los_timeslice.c ****  * are permitted provided that the following conditions are met:
   6:C:/Users/lenovo/Desktop/liteos/Project2/BearPi_LiteOS/kernel/base/core\los_timeslice.c ****  * 1. Redistributions of source code must retain the above copyright notice, this list of
   7:C:/Users/lenovo/Desktop/liteos/Project2/BearPi_LiteOS/kernel/base/core\los_timeslice.c ****  * conditions and the following disclaimer.
   8:C:/Users/lenovo/Desktop/liteos/Project2/BearPi_LiteOS/kernel/base/core\los_timeslice.c ****  * 2. Redistributions in binary form must reproduce the above copyright notice, this list
   9:C:/Users/lenovo/Desktop/liteos/Project2/BearPi_LiteOS/kernel/base/core\los_timeslice.c ****  * of conditions and the following disclaimer in the documentation and/or other materials
  10:C:/Users/lenovo/Desktop/liteos/Project2/BearPi_LiteOS/kernel/base/core\los_timeslice.c ****  * provided with the distribution.
  11:C:/Users/lenovo/Desktop/liteos/Project2/BearPi_LiteOS/kernel/base/core\los_timeslice.c ****  * 3. Neither the name of the copyright holder nor the names of its contributors may be used
  12:C:/Users/lenovo/Desktop/liteos/Project2/BearPi_LiteOS/kernel/base/core\los_timeslice.c ****  * to endorse or promote products derived from this software without specific prior written
  13:C:/Users/lenovo/Desktop/liteos/Project2/BearPi_LiteOS/kernel/base/core\los_timeslice.c ****  * permission.
  14:C:/Users/lenovo/Desktop/liteos/Project2/BearPi_LiteOS/kernel/base/core\los_timeslice.c ****  * THIS SOFTWARE IS PROVIDED BY THE COPYRIGHT HOLDERS AND CONTRIBUTORS
  15:C:/Users/lenovo/Desktop/liteos/Project2/BearPi_LiteOS/kernel/base/core\los_timeslice.c ****  * "AS IS" AND ANY EXPRESS OR IMPLIED WARRANTIES, INCLUDING, BUT NOT LIMITED TO,
  16:C:/Users/lenovo/Desktop/liteos/Project2/BearPi_LiteOS/kernel/base/core\los_timeslice.c ****  * THE IMPLIED WARRANTIES OF MERCHANTABILITY AND FITNESS FOR A PARTICULAR
  17:C:/Users/lenovo/Desktop/liteos/Project2/BearPi_LiteOS/kernel/base/core\los_timeslice.c ****  * PURPOSE ARE DISCLAIMED. IN NO EVENT SHALL THE COPYRIGHT HOLDER OR
  18:C:/Users/lenovo/Desktop/liteos/Project2/BearPi_LiteOS/kernel/base/core\los_timeslice.c ****  * CONTRIBUTORS BE LIABLE FOR ANY DIRECT, INDIRECT, INCIDENTAL, SPECIAL,
  19:C:/Users/lenovo/Desktop/liteos/Project2/BearPi_LiteOS/kernel/base/core\los_timeslice.c ****  * EXEMPLARY, OR CONSEQUENTIAL DAMAGES (INCLUDING, BUT NOT LIMITED TO,
  20:C:/Users/lenovo/Desktop/liteos/Project2/BearPi_LiteOS/kernel/base/core\los_timeslice.c ****  * PROCUREMENT OF SUBSTITUTE GOODS OR SERVICES; LOSS OF USE, DATA, OR PROFITS;
  21:C:/Users/lenovo/Desktop/liteos/Project2/BearPi_LiteOS/kernel/base/core\los_timeslice.c ****  * OR BUSINESS INTERRUPTION) HOWEVER CAUSED AND ON ANY THEORY OF LIABILITY,
  22:C:/Users/lenovo/Desktop/liteos/Project2/BearPi_LiteOS/kernel/base/core\los_timeslice.c ****  * WHETHER IN CONTRACT, STRICT LIABILITY, OR TORT (INCLUDING NEGLIGENCE OR
  23:C:/Users/lenovo/Desktop/liteos/Project2/BearPi_LiteOS/kernel/base/core\los_timeslice.c ****  * OTHERWISE) ARISING IN ANY WAY OUT OF THE USE OF THIS SOFTWARE, EVEN IF
  24:C:/Users/lenovo/Desktop/liteos/Project2/BearPi_LiteOS/kernel/base/core\los_timeslice.c ****  * ADVISED OF THE POSSIBILITY OF SUCH DAMAGE.
  25:C:/Users/lenovo/Desktop/liteos/Project2/BearPi_LiteOS/kernel/base/core\los_timeslice.c ****  *---------------------------------------------------------------------------*/
  26:C:/Users/lenovo/Desktop/liteos/Project2/BearPi_LiteOS/kernel/base/core\los_timeslice.c **** /*----------------------------------------------------------------------------
  27:C:/Users/lenovo/Desktop/liteos/Project2/BearPi_LiteOS/kernel/base/core\los_timeslice.c ****  * Notice of Export Control Law
  28:C:/Users/lenovo/Desktop/liteos/Project2/BearPi_LiteOS/kernel/base/core\los_timeslice.c ****  * ===============================================
  29:C:/Users/lenovo/Desktop/liteos/Project2/BearPi_LiteOS/kernel/base/core\los_timeslice.c ****  * Huawei LiteOS may be subject to applicable export control laws and regulations, which might
  30:C:/Users/lenovo/Desktop/liteos/Project2/BearPi_LiteOS/kernel/base/core\los_timeslice.c ****  * include those applicable to Huawei LiteOS of U.S. and the country in which you are located.
  31:C:/Users/lenovo/Desktop/liteos/Project2/BearPi_LiteOS/kernel/base/core\los_timeslice.c ****  * Import, export and usage of Huawei LiteOS in any manner by you shall be in compliance with such
ARM GAS  c:\Users\lenovo\AppData\Local\Temp\ccRoLgVe.s 			page 2


  32:C:/Users/lenovo/Desktop/liteos/Project2/BearPi_LiteOS/kernel/base/core\los_timeslice.c ****  * applicable export control laws and regulations.
  33:C:/Users/lenovo/Desktop/liteos/Project2/BearPi_LiteOS/kernel/base/core\los_timeslice.c ****  *---------------------------------------------------------------------------*/
  34:C:/Users/lenovo/Desktop/liteos/Project2/BearPi_LiteOS/kernel/base/core\los_timeslice.c **** 
  35:C:/Users/lenovo/Desktop/liteos/Project2/BearPi_LiteOS/kernel/base/core\los_timeslice.c **** #include "los_sys.ph"
  36:C:/Users/lenovo/Desktop/liteos/Project2/BearPi_LiteOS/kernel/base/core\los_timeslice.c **** #include "los_task.ph"
  37:C:/Users/lenovo/Desktop/liteos/Project2/BearPi_LiteOS/kernel/base/core\los_timeslice.c **** #include "los_tick.ph"
  38:C:/Users/lenovo/Desktop/liteos/Project2/BearPi_LiteOS/kernel/base/core\los_timeslice.c **** #include "los_typedef.ph"
  39:C:/Users/lenovo/Desktop/liteos/Project2/BearPi_LiteOS/kernel/base/core\los_timeslice.c **** #include "los_timeslice.ph"
  40:C:/Users/lenovo/Desktop/liteos/Project2/BearPi_LiteOS/kernel/base/core\los_timeslice.c **** 
  41:C:/Users/lenovo/Desktop/liteos/Project2/BearPi_LiteOS/kernel/base/core\los_timeslice.c **** #ifdef __cplusplus
  42:C:/Users/lenovo/Desktop/liteos/Project2/BearPi_LiteOS/kernel/base/core\los_timeslice.c **** #if __cplusplus
  43:C:/Users/lenovo/Desktop/liteos/Project2/BearPi_LiteOS/kernel/base/core\los_timeslice.c **** extern "C" {
  44:C:/Users/lenovo/Desktop/liteos/Project2/BearPi_LiteOS/kernel/base/core\los_timeslice.c **** #endif /* __cplusplus */
  45:C:/Users/lenovo/Desktop/liteos/Project2/BearPi_LiteOS/kernel/base/core\los_timeslice.c **** #endif /* __cplusplus */
  46:C:/Users/lenovo/Desktop/liteos/Project2/BearPi_LiteOS/kernel/base/core\los_timeslice.c **** 
  47:C:/Users/lenovo/Desktop/liteos/Project2/BearPi_LiteOS/kernel/base/core\los_timeslice.c **** #if(LOSCFG_BASE_CORE_TIMESLICE == YES)
  48:C:/Users/lenovo/Desktop/liteos/Project2/BearPi_LiteOS/kernel/base/core\los_timeslice.c **** LITE_OS_SEC_BSS OS_TASK_ROBIN_S        g_stTaskTimeSlice;
  49:C:/Users/lenovo/Desktop/liteos/Project2/BearPi_LiteOS/kernel/base/core\los_timeslice.c **** 
  50:C:/Users/lenovo/Desktop/liteos/Project2/BearPi_LiteOS/kernel/base/core\los_timeslice.c **** /*****************************************************************************
  51:C:/Users/lenovo/Desktop/liteos/Project2/BearPi_LiteOS/kernel/base/core\los_timeslice.c ****  Function     : osTimesliceInit
  52:C:/Users/lenovo/Desktop/liteos/Project2/BearPi_LiteOS/kernel/base/core\los_timeslice.c ****  Description  : Initialztion Timeslice
  53:C:/Users/lenovo/Desktop/liteos/Project2/BearPi_LiteOS/kernel/base/core\los_timeslice.c ****  Input        : None
  54:C:/Users/lenovo/Desktop/liteos/Project2/BearPi_LiteOS/kernel/base/core\los_timeslice.c ****  Output       : None
  55:C:/Users/lenovo/Desktop/liteos/Project2/BearPi_LiteOS/kernel/base/core\los_timeslice.c ****  Return       : None
  56:C:/Users/lenovo/Desktop/liteos/Project2/BearPi_LiteOS/kernel/base/core\los_timeslice.c ****  *****************************************************************************/
  57:C:/Users/lenovo/Desktop/liteos/Project2/BearPi_LiteOS/kernel/base/core\los_timeslice.c **** LITE_OS_SEC_TEXT_INIT VOID osTimesliceInit(VOID)
  58:C:/Users/lenovo/Desktop/liteos/Project2/BearPi_LiteOS/kernel/base/core\los_timeslice.c **** {
  28              		.loc 1 58 0
  29              		.cfi_startproc
  30              		@ args = 0, pretend = 0, frame = 0
  31              		@ frame_needed = 0, uses_anonymous_args = 0
  32              		@ link register save eliminated.
  59:C:/Users/lenovo/Desktop/liteos/Project2/BearPi_LiteOS/kernel/base/core\los_timeslice.c ****     g_stTaskTimeSlice.pstTask = (LOS_TASK_CB *)NULL;
  33              		.loc 1 59 0
  34 0000 024B     		ldr	r3, .L2
  35 0002 0022     		movs	r2, #0
  36 0004 1A60     		str	r2, [r3]
  60:C:/Users/lenovo/Desktop/liteos/Project2/BearPi_LiteOS/kernel/base/core\los_timeslice.c ****     g_stTaskTimeSlice.usTout = LOSCFG_BASE_CORE_TIMESLICE_TIMEOUT;
  37              		.loc 1 60 0
  38 0006 0A22     		movs	r2, #10
  39 0008 DA80     		strh	r2, [r3, #6]	@ movhi
  61:C:/Users/lenovo/Desktop/liteos/Project2/BearPi_LiteOS/kernel/base/core\los_timeslice.c **** }
  40              		.loc 1 61 0
  41 000a 7047     		bx	lr
  42              	.L3:
  43              		.align	2
  44              	.L2:
  45 000c 00000000 		.word	g_stTaskTimeSlice
  46              		.cfi_endproc
  47              	.LFE135:
  49              		.section	.text.osTimesliceCheck,"ax",%progbits
  50              		.align	1
  51              		.global	osTimesliceCheck
  52              		.syntax unified
  53              		.thumb
  54              		.thumb_func
  55              		.fpu fpv4-sp-d16
ARM GAS  c:\Users\lenovo\AppData\Local\Temp\ccRoLgVe.s 			page 3


  57              	osTimesliceCheck:
  58              	.LFB136:
  62:C:/Users/lenovo/Desktop/liteos/Project2/BearPi_LiteOS/kernel/base/core\los_timeslice.c **** 
  63:C:/Users/lenovo/Desktop/liteos/Project2/BearPi_LiteOS/kernel/base/core\los_timeslice.c **** /*****************************************************************************
  64:C:/Users/lenovo/Desktop/liteos/Project2/BearPi_LiteOS/kernel/base/core\los_timeslice.c ****  Function     : osTimesliceCheck
  65:C:/Users/lenovo/Desktop/liteos/Project2/BearPi_LiteOS/kernel/base/core\los_timeslice.c ****  Description  : check Timeslice
  66:C:/Users/lenovo/Desktop/liteos/Project2/BearPi_LiteOS/kernel/base/core\los_timeslice.c ****  Input        : None
  67:C:/Users/lenovo/Desktop/liteos/Project2/BearPi_LiteOS/kernel/base/core\los_timeslice.c ****  Output       : None
  68:C:/Users/lenovo/Desktop/liteos/Project2/BearPi_LiteOS/kernel/base/core\los_timeslice.c ****  Return       : None
  69:C:/Users/lenovo/Desktop/liteos/Project2/BearPi_LiteOS/kernel/base/core\los_timeslice.c ****  *****************************************************************************/
  70:C:/Users/lenovo/Desktop/liteos/Project2/BearPi_LiteOS/kernel/base/core\los_timeslice.c **** LITE_OS_SEC_TEXT VOID osTimesliceCheck(VOID)
  71:C:/Users/lenovo/Desktop/liteos/Project2/BearPi_LiteOS/kernel/base/core\los_timeslice.c **** {
  59              		.loc 1 71 0
  60              		.cfi_startproc
  61              		@ args = 0, pretend = 0, frame = 0
  62              		@ frame_needed = 0, uses_anonymous_args = 0
  63 0000 08B5     		push	{r3, lr}
  64              	.LCFI0:
  65              		.cfi_def_cfa_offset 8
  66              		.cfi_offset 3, -8
  67              		.cfi_offset 14, -4
  72:C:/Users/lenovo/Desktop/liteos/Project2/BearPi_LiteOS/kernel/base/core\los_timeslice.c ****     if (g_stTaskTimeSlice.pstTask != g_stLosTask.pstRunTask)
  68              		.loc 1 72 0
  69 0002 0E4B     		ldr	r3, .L9
  70 0004 1A68     		ldr	r2, [r3]
  71 0006 0E4B     		ldr	r3, .L9+4
  72 0008 1B68     		ldr	r3, [r3]
  73 000a 9A42     		cmp	r2, r3
  74 000c 08D0     		beq	.L5
  73:C:/Users/lenovo/Desktop/liteos/Project2/BearPi_LiteOS/kernel/base/core\los_timeslice.c ****     {
  74:C:/Users/lenovo/Desktop/liteos/Project2/BearPi_LiteOS/kernel/base/core\los_timeslice.c ****         g_stTaskTimeSlice.pstTask = g_stLosTask.pstRunTask;
  75              		.loc 1 74 0
  76 000e 0B4A     		ldr	r2, .L9
  77 0010 1360     		str	r3, [r2]
  75:C:/Users/lenovo/Desktop/liteos/Project2/BearPi_LiteOS/kernel/base/core\los_timeslice.c ****         g_stTaskTimeSlice.usTime = (UINT16)g_ullTickCount + g_stTaskTimeSlice.usTout - 1;
  78              		.loc 1 75 0
  79 0012 0C4B     		ldr	r3, .L9+8
  80 0014 1B88     		ldrh	r3, [r3]
  81 0016 D188     		ldrh	r1, [r2, #6]
  82 0018 0B44     		add	r3, r3, r1
  83 001a 9BB2     		uxth	r3, r3
  84 001c 013B     		subs	r3, r3, #1
  85 001e 9380     		strh	r3, [r2, #4]	@ movhi
  86              	.L5:
  76:C:/Users/lenovo/Desktop/liteos/Project2/BearPi_LiteOS/kernel/base/core\los_timeslice.c ****     }
  77:C:/Users/lenovo/Desktop/liteos/Project2/BearPi_LiteOS/kernel/base/core\los_timeslice.c **** 
  78:C:/Users/lenovo/Desktop/liteos/Project2/BearPi_LiteOS/kernel/base/core\los_timeslice.c ****     if (g_stTaskTimeSlice.usTime == (UINT16)g_ullTickCount)
  87              		.loc 1 78 0
  88 0020 064B     		ldr	r3, .L9
  89 0022 9A88     		ldrh	r2, [r3, #4]
  90 0024 074B     		ldr	r3, .L9+8
  91 0026 1B88     		ldrh	r3, [r3]
  92 0028 9A42     		cmp	r2, r3
  93 002a 00D0     		beq	.L8
  94              	.L4:
  79:C:/Users/lenovo/Desktop/liteos/Project2/BearPi_LiteOS/kernel/base/core\los_timeslice.c ****     {
  80:C:/Users/lenovo/Desktop/liteos/Project2/BearPi_LiteOS/kernel/base/core\los_timeslice.c ****         g_stTaskTimeSlice.pstTask = (LOS_TASK_CB *)NULL;
ARM GAS  c:\Users\lenovo\AppData\Local\Temp\ccRoLgVe.s 			page 4


  81:C:/Users/lenovo/Desktop/liteos/Project2/BearPi_LiteOS/kernel/base/core\los_timeslice.c ****         if (LOS_TaskYield() != LOS_OK)
  82:C:/Users/lenovo/Desktop/liteos/Project2/BearPi_LiteOS/kernel/base/core\los_timeslice.c ****         {
  83:C:/Users/lenovo/Desktop/liteos/Project2/BearPi_LiteOS/kernel/base/core\los_timeslice.c ****             PRINT_INFO("%s, %d\n", __FUNCTION__, __LINE__);
  84:C:/Users/lenovo/Desktop/liteos/Project2/BearPi_LiteOS/kernel/base/core\los_timeslice.c ****         }
  85:C:/Users/lenovo/Desktop/liteos/Project2/BearPi_LiteOS/kernel/base/core\los_timeslice.c ****     } /*lint !e548*/
  86:C:/Users/lenovo/Desktop/liteos/Project2/BearPi_LiteOS/kernel/base/core\los_timeslice.c **** }
  95              		.loc 1 86 0
  96 002c 08BD     		pop	{r3, pc}
  97              	.L8:
  80:C:/Users/lenovo/Desktop/liteos/Project2/BearPi_LiteOS/kernel/base/core\los_timeslice.c ****         if (LOS_TaskYield() != LOS_OK)
  98              		.loc 1 80 0
  99 002e 034B     		ldr	r3, .L9
 100 0030 0022     		movs	r2, #0
 101 0032 1A60     		str	r2, [r3]
  81:C:/Users/lenovo/Desktop/liteos/Project2/BearPi_LiteOS/kernel/base/core\los_timeslice.c ****         {
 102              		.loc 1 81 0
 103 0034 FFF7FEFF 		bl	LOS_TaskYield
 104              	.LVL0:
 105              		.loc 1 86 0
 106 0038 F8E7     		b	.L4
 107              	.L10:
 108 003a 00BF     		.align	2
 109              	.L9:
 110 003c 00000000 		.word	g_stTaskTimeSlice
 111 0040 00000000 		.word	g_stLosTask
 112 0044 00000000 		.word	g_ullTickCount
 113              		.cfi_endproc
 114              	.LFE136:
 116              		.comm	g_stTaskTimeSlice,8,4
 117              		.text
 118              	.Letext0:
 119              		.file 2 "c:\\program files (x86)\\liteos studio\\resources\\arm-none-eabi\\arm-none-eabi\\include\
 120              		.file 3 "c:\\program files (x86)\\liteos studio\\resources\\arm-none-eabi\\arm-none-eabi\\include\
 121              		.file 4 "c:\\program files (x86)\\liteos studio\\resources\\arm-none-eabi\\arm-none-eabi\\include\
 122              		.file 5 "c:\\program files (x86)\\liteos studio\\resources\\arm-none-eabi\\lib\\gcc\\arm-none-eabi
 123              		.file 6 "c:\\program files (x86)\\liteos studio\\resources\\arm-none-eabi\\arm-none-eabi\\include\
 124              		.file 7 "C:/Users/lenovo/Desktop/liteos/Project2/BearPi_LiteOS/kernel/include/los_typedef.h"
 125              		.file 8 "c:\\program files (x86)\\liteos studio\\resources\\arm-none-eabi\\arm-none-eabi\\include\
 126              		.file 9 "C:/Users/lenovo/Desktop/liteos/Project2/BearPi_LiteOS/arch/arm/common/cmsis/core_cm4.h"
 127              		.file 10 "C:/Users/lenovo/Desktop/liteos/Project2/BearPi_LiteOS/targets/STM32L431_BearPi/Inc/syste
 128              		.file 11 "C:/Users/lenovo/Desktop/liteos/Project2/BearPi_LiteOS/arch/arm/arm-m/include/los_hwi.h"
 129              		.file 12 "C:/Users/lenovo/Desktop/liteos/Project2/BearPi_LiteOS/kernel/include/los_list.h"
 130              		.file 13 "C:/Users/lenovo/Desktop/liteos/Project2/BearPi_LiteOS/kernel/include/los_err.h"
 131              		.file 14 "C:/Users/lenovo/Desktop/liteos/Project2/BearPi_LiteOS/kernel/include/los_tick.h"
 132              		.file 15 "C:/Users/lenovo/Desktop/liteos/Project2/BearPi_LiteOS/kernel/include/los_event.h"
 133              		.file 16 "C:/Users/lenovo/Desktop/liteos/Project2/BearPi_LiteOS/kernel/include/los_task.h"
 134              		.file 17 "C:/Users/lenovo/Desktop/liteos/Project2/BearPi_LiteOS/kernel/base/include/los_task.ph"
 135              		.file 18 "C:/Users/lenovo/Desktop/liteos/Project2/BearPi_LiteOS/targets/STM32L431_BearPi/Inc/main.
 136              		.file 19 "C:/Users/lenovo/Desktop/liteos/Project2/BearPi_LiteOS/targets/STM32L431_BearPi/OS_CONFIG
 137              		.file 20 "C:/Users/lenovo/Desktop/liteos/Project2/BearPi_LiteOS/kernel/include/los_config.h"
 138              		.file 21 "C:/Users/lenovo/Desktop/liteos/Project2/BearPi_LiteOS/kernel/base/include/los_tick.ph"
ARM GAS  c:\Users\lenovo\AppData\Local\Temp\ccRoLgVe.s 			page 5


DEFINED SYMBOLS
                            *ABS*:00000000 los_timeslice.c
c:\Users\lenovo\AppData\Local\Temp\ccRoLgVe.s:18     .text.osTimesliceInit:00000000 $t
c:\Users\lenovo\AppData\Local\Temp\ccRoLgVe.s:25     .text.osTimesliceInit:00000000 osTimesliceInit
c:\Users\lenovo\AppData\Local\Temp\ccRoLgVe.s:45     .text.osTimesliceInit:0000000c $d
                            *COM*:00000008 g_stTaskTimeSlice
c:\Users\lenovo\AppData\Local\Temp\ccRoLgVe.s:50     .text.osTimesliceCheck:00000000 $t
c:\Users\lenovo\AppData\Local\Temp\ccRoLgVe.s:57     .text.osTimesliceCheck:00000000 osTimesliceCheck
c:\Users\lenovo\AppData\Local\Temp\ccRoLgVe.s:110    .text.osTimesliceCheck:0000003c $d

UNDEFINED SYMBOLS
LOS_TaskYield
g_stLosTask
g_ullTickCount
