ARM GAS  c:\Users\lenovo\AppData\Local\Temp\ccAXpOqP.s 			page 1


   1              		.cpu cortex-m4
   2              		.eabi_attribute 27, 1
   3              		.eabi_attribute 28, 1
   4              		.eabi_attribute 20, 1
   5              		.eabi_attribute 21, 1
   6              		.eabi_attribute 23, 3
   7              		.eabi_attribute 24, 1
   8              		.eabi_attribute 25, 1
   9              		.eabi_attribute 26, 1
  10              		.eabi_attribute 30, 1
  11              		.eabi_attribute 34, 1
  12              		.eabi_attribute 18, 4
  13              		.file	"los_mux.c"
  14              		.text
  15              	.Ltext0:
  16              		.cfi_sections	.debug_frame
  17              		.section	.text.osMuxInit,"ax",%progbits
  18              		.align	1
  19              		.global	osMuxInit
  20              		.syntax unified
  21              		.thumb
  22              		.thumb_func
  23              		.fpu fpv4-sp-d16
  25              	osMuxInit:
  26              	.LFB133:
  27              		.file 1 "C:/Users/lenovo/Desktop/liteos/Project2/BearPi_LiteOS/kernel/base/ipc/los_mux.c"
   1:C:/Users/lenovo/Desktop/liteos/Project2/BearPi_LiteOS/kernel/base/ipc\los_mux.c **** /*----------------------------------------------------------------------------
   2:C:/Users/lenovo/Desktop/liteos/Project2/BearPi_LiteOS/kernel/base/ipc\los_mux.c ****  * Copyright (c) <2013-2015>, <Huawei Technologies Co., Ltd>
   3:C:/Users/lenovo/Desktop/liteos/Project2/BearPi_LiteOS/kernel/base/ipc\los_mux.c ****  * All rights reserved.
   4:C:/Users/lenovo/Desktop/liteos/Project2/BearPi_LiteOS/kernel/base/ipc\los_mux.c ****  * Redistribution and use in source and binary forms, with or without modification,
   5:C:/Users/lenovo/Desktop/liteos/Project2/BearPi_LiteOS/kernel/base/ipc\los_mux.c ****  * are permitted provided that the following conditions are met:
   6:C:/Users/lenovo/Desktop/liteos/Project2/BearPi_LiteOS/kernel/base/ipc\los_mux.c ****  * 1. Redistributions of source code must retain the above copyright notice, this list of
   7:C:/Users/lenovo/Desktop/liteos/Project2/BearPi_LiteOS/kernel/base/ipc\los_mux.c ****  * conditions and the following disclaimer.
   8:C:/Users/lenovo/Desktop/liteos/Project2/BearPi_LiteOS/kernel/base/ipc\los_mux.c ****  * 2. Redistributions in binary form must reproduce the above copyright notice, this list
   9:C:/Users/lenovo/Desktop/liteos/Project2/BearPi_LiteOS/kernel/base/ipc\los_mux.c ****  * of conditions and the following disclaimer in the documentation and/or other materials
  10:C:/Users/lenovo/Desktop/liteos/Project2/BearPi_LiteOS/kernel/base/ipc\los_mux.c ****  * provided with the distribution.
  11:C:/Users/lenovo/Desktop/liteos/Project2/BearPi_LiteOS/kernel/base/ipc\los_mux.c ****  * 3. Neither the name of the copyright holder nor the names of its contributors may be used
  12:C:/Users/lenovo/Desktop/liteos/Project2/BearPi_LiteOS/kernel/base/ipc\los_mux.c ****  * to endorse or promote products derived from this software without specific prior written
  13:C:/Users/lenovo/Desktop/liteos/Project2/BearPi_LiteOS/kernel/base/ipc\los_mux.c ****  * permission.
  14:C:/Users/lenovo/Desktop/liteos/Project2/BearPi_LiteOS/kernel/base/ipc\los_mux.c ****  * THIS SOFTWARE IS PROVIDED BY THE COPYRIGHT HOLDERS AND CONTRIBUTORS
  15:C:/Users/lenovo/Desktop/liteos/Project2/BearPi_LiteOS/kernel/base/ipc\los_mux.c ****  * "AS IS" AND ANY EXPRESS OR IMPLIED WARRANTIES, INCLUDING, BUT NOT LIMITED TO,
  16:C:/Users/lenovo/Desktop/liteos/Project2/BearPi_LiteOS/kernel/base/ipc\los_mux.c ****  * THE IMPLIED WARRANTIES OF MERCHANTABILITY AND FITNESS FOR A PARTICULAR
  17:C:/Users/lenovo/Desktop/liteos/Project2/BearPi_LiteOS/kernel/base/ipc\los_mux.c ****  * PURPOSE ARE DISCLAIMED. IN NO EVENT SHALL THE COPYRIGHT HOLDER OR
  18:C:/Users/lenovo/Desktop/liteos/Project2/BearPi_LiteOS/kernel/base/ipc\los_mux.c ****  * CONTRIBUTORS BE LIABLE FOR ANY DIRECT, INDIRECT, INCIDENTAL, SPECIAL,
  19:C:/Users/lenovo/Desktop/liteos/Project2/BearPi_LiteOS/kernel/base/ipc\los_mux.c ****  * EXEMPLARY, OR CONSEQUENTIAL DAMAGES (INCLUDING, BUT NOT LIMITED TO,
  20:C:/Users/lenovo/Desktop/liteos/Project2/BearPi_LiteOS/kernel/base/ipc\los_mux.c ****  * PROCUREMENT OF SUBSTITUTE GOODS OR SERVICES; LOSS OF USE, DATA, OR PROFITS;
  21:C:/Users/lenovo/Desktop/liteos/Project2/BearPi_LiteOS/kernel/base/ipc\los_mux.c ****  * OR BUSINESS INTERRUPTION) HOWEVER CAUSED AND ON ANY THEORY OF LIABILITY,
  22:C:/Users/lenovo/Desktop/liteos/Project2/BearPi_LiteOS/kernel/base/ipc\los_mux.c ****  * WHETHER IN CONTRACT, STRICT LIABILITY, OR TORT (INCLUDING NEGLIGENCE OR
  23:C:/Users/lenovo/Desktop/liteos/Project2/BearPi_LiteOS/kernel/base/ipc\los_mux.c ****  * OTHERWISE) ARISING IN ANY WAY OUT OF THE USE OF THIS SOFTWARE, EVEN IF
  24:C:/Users/lenovo/Desktop/liteos/Project2/BearPi_LiteOS/kernel/base/ipc\los_mux.c ****  * ADVISED OF THE POSSIBILITY OF SUCH DAMAGE.
  25:C:/Users/lenovo/Desktop/liteos/Project2/BearPi_LiteOS/kernel/base/ipc\los_mux.c ****  *---------------------------------------------------------------------------*/
  26:C:/Users/lenovo/Desktop/liteos/Project2/BearPi_LiteOS/kernel/base/ipc\los_mux.c **** /*----------------------------------------------------------------------------
  27:C:/Users/lenovo/Desktop/liteos/Project2/BearPi_LiteOS/kernel/base/ipc\los_mux.c ****  * Notice of Export Control Law
  28:C:/Users/lenovo/Desktop/liteos/Project2/BearPi_LiteOS/kernel/base/ipc\los_mux.c ****  * ===============================================
  29:C:/Users/lenovo/Desktop/liteos/Project2/BearPi_LiteOS/kernel/base/ipc\los_mux.c ****  * Huawei LiteOS may be subject to applicable export control laws and regulations, which might
  30:C:/Users/lenovo/Desktop/liteos/Project2/BearPi_LiteOS/kernel/base/ipc\los_mux.c ****  * include those applicable to Huawei LiteOS of U.S. and the country in which you are located.
  31:C:/Users/lenovo/Desktop/liteos/Project2/BearPi_LiteOS/kernel/base/ipc\los_mux.c ****  * Import, export and usage of Huawei LiteOS in any manner by you shall be in compliance with such
ARM GAS  c:\Users\lenovo\AppData\Local\Temp\ccAXpOqP.s 			page 2


  32:C:/Users/lenovo/Desktop/liteos/Project2/BearPi_LiteOS/kernel/base/ipc\los_mux.c ****  * applicable export control laws and regulations.
  33:C:/Users/lenovo/Desktop/liteos/Project2/BearPi_LiteOS/kernel/base/ipc\los_mux.c ****  *---------------------------------------------------------------------------*/
  34:C:/Users/lenovo/Desktop/liteos/Project2/BearPi_LiteOS/kernel/base/ipc\los_mux.c **** 
  35:C:/Users/lenovo/Desktop/liteos/Project2/BearPi_LiteOS/kernel/base/ipc\los_mux.c **** #include "los_mux.inc"
  36:C:/Users/lenovo/Desktop/liteos/Project2/BearPi_LiteOS/kernel/base/ipc\los_mux.c **** #include "los_err.ph"
  37:C:/Users/lenovo/Desktop/liteos/Project2/BearPi_LiteOS/kernel/base/ipc\los_mux.c **** #include "los_memory.ph"
  38:C:/Users/lenovo/Desktop/liteos/Project2/BearPi_LiteOS/kernel/base/ipc\los_mux.c **** #include "los_priqueue.ph"
  39:C:/Users/lenovo/Desktop/liteos/Project2/BearPi_LiteOS/kernel/base/ipc\los_mux.c **** #include "los_task.ph"
  40:C:/Users/lenovo/Desktop/liteos/Project2/BearPi_LiteOS/kernel/base/ipc\los_mux.c **** #if (LOSCFG_PLATFORM_EXC == YES)
  41:C:/Users/lenovo/Desktop/liteos/Project2/BearPi_LiteOS/kernel/base/ipc\los_mux.c **** #include "los_exc.h"
  42:C:/Users/lenovo/Desktop/liteos/Project2/BearPi_LiteOS/kernel/base/ipc\los_mux.c **** #endif
  43:C:/Users/lenovo/Desktop/liteos/Project2/BearPi_LiteOS/kernel/base/ipc\los_mux.c **** #include "los_hw.h"
  44:C:/Users/lenovo/Desktop/liteos/Project2/BearPi_LiteOS/kernel/base/ipc\los_mux.c **** 
  45:C:/Users/lenovo/Desktop/liteos/Project2/BearPi_LiteOS/kernel/base/ipc\los_mux.c **** #ifdef __cplusplus
  46:C:/Users/lenovo/Desktop/liteos/Project2/BearPi_LiteOS/kernel/base/ipc\los_mux.c **** #if __cplusplus
  47:C:/Users/lenovo/Desktop/liteos/Project2/BearPi_LiteOS/kernel/base/ipc\los_mux.c **** extern "C"{
  48:C:/Users/lenovo/Desktop/liteos/Project2/BearPi_LiteOS/kernel/base/ipc\los_mux.c **** #endif
  49:C:/Users/lenovo/Desktop/liteos/Project2/BearPi_LiteOS/kernel/base/ipc\los_mux.c **** #endif /* __cplusplus */
  50:C:/Users/lenovo/Desktop/liteos/Project2/BearPi_LiteOS/kernel/base/ipc\los_mux.c **** 
  51:C:/Users/lenovo/Desktop/liteos/Project2/BearPi_LiteOS/kernel/base/ipc\los_mux.c **** 
  52:C:/Users/lenovo/Desktop/liteos/Project2/BearPi_LiteOS/kernel/base/ipc\los_mux.c **** #if (LOSCFG_BASE_IPC_MUX == YES)
  53:C:/Users/lenovo/Desktop/liteos/Project2/BearPi_LiteOS/kernel/base/ipc\los_mux.c **** 
  54:C:/Users/lenovo/Desktop/liteos/Project2/BearPi_LiteOS/kernel/base/ipc\los_mux.c **** LITE_OS_SEC_BSS MUX_CB_S             *g_pstAllMux;
  55:C:/Users/lenovo/Desktop/liteos/Project2/BearPi_LiteOS/kernel/base/ipc\los_mux.c **** LITE_OS_SEC_BSS LOS_DL_LIST          g_stUnusedMuxList;
  56:C:/Users/lenovo/Desktop/liteos/Project2/BearPi_LiteOS/kernel/base/ipc\los_mux.c **** 
  57:C:/Users/lenovo/Desktop/liteos/Project2/BearPi_LiteOS/kernel/base/ipc\los_mux.c **** 
  58:C:/Users/lenovo/Desktop/liteos/Project2/BearPi_LiteOS/kernel/base/ipc\los_mux.c **** /*****************************************************************************
  59:C:/Users/lenovo/Desktop/liteos/Project2/BearPi_LiteOS/kernel/base/ipc\los_mux.c ****  Funtion	     : osMuxInit,
  60:C:/Users/lenovo/Desktop/liteos/Project2/BearPi_LiteOS/kernel/base/ipc\los_mux.c ****  Description  : Initializes the mutex,
  61:C:/Users/lenovo/Desktop/liteos/Project2/BearPi_LiteOS/kernel/base/ipc\los_mux.c ****  Input        : None
  62:C:/Users/lenovo/Desktop/liteos/Project2/BearPi_LiteOS/kernel/base/ipc\los_mux.c ****  Output       : None
  63:C:/Users/lenovo/Desktop/liteos/Project2/BearPi_LiteOS/kernel/base/ipc\los_mux.c ****  Return       : LOS_OK on success ,or error code on failure
  64:C:/Users/lenovo/Desktop/liteos/Project2/BearPi_LiteOS/kernel/base/ipc\los_mux.c ****  *****************************************************************************/
  65:C:/Users/lenovo/Desktop/liteos/Project2/BearPi_LiteOS/kernel/base/ipc\los_mux.c **** LITE_OS_SEC_TEXT_INIT UINT32 osMuxInit(VOID)
  66:C:/Users/lenovo/Desktop/liteos/Project2/BearPi_LiteOS/kernel/base/ipc\los_mux.c **** {
  28              		.loc 1 66 0
  29              		.cfi_startproc
  30              		@ args = 0, pretend = 0, frame = 0
  31              		@ frame_needed = 0, uses_anonymous_args = 0
  32 0000 10B5     		push	{r4, lr}
  33              	.LCFI0:
  34              		.cfi_def_cfa_offset 8
  35              		.cfi_offset 4, -8
  36              		.cfi_offset 14, -4
  37              	.LVL0:
  38              	.LBB22:
  39              	.LBB23:
  40              		.file 2 "C:/Users/lenovo/Desktop/liteos/Project2/BearPi_LiteOS/kernel/include/los_list.h"
   1:C:/Users/lenovo/Desktop/liteos/Project2/BearPi_LiteOS/kernel/include\los_list.h **** /*----------------------------------------------------------------------------
   2:C:/Users/lenovo/Desktop/liteos/Project2/BearPi_LiteOS/kernel/include\los_list.h ****  * Copyright (c) <2013-2015>, <Huawei Technologies Co., Ltd>
   3:C:/Users/lenovo/Desktop/liteos/Project2/BearPi_LiteOS/kernel/include\los_list.h ****  * All rights reserved.
   4:C:/Users/lenovo/Desktop/liteos/Project2/BearPi_LiteOS/kernel/include\los_list.h ****  * Redistribution and use in source and binary forms, with or without modification,
   5:C:/Users/lenovo/Desktop/liteos/Project2/BearPi_LiteOS/kernel/include\los_list.h ****  * are permitted provided that the following conditions are met:
   6:C:/Users/lenovo/Desktop/liteos/Project2/BearPi_LiteOS/kernel/include\los_list.h ****  * 1. Redistributions of source code must retain the above copyright notice, this list of
   7:C:/Users/lenovo/Desktop/liteos/Project2/BearPi_LiteOS/kernel/include\los_list.h ****  * conditions and the following disclaimer.
   8:C:/Users/lenovo/Desktop/liteos/Project2/BearPi_LiteOS/kernel/include\los_list.h ****  * 2. Redistributions in binary form must reproduce the above copyright notice, this list
   9:C:/Users/lenovo/Desktop/liteos/Project2/BearPi_LiteOS/kernel/include\los_list.h ****  * of conditions and the following disclaimer in the documentation and/or other materials
ARM GAS  c:\Users\lenovo\AppData\Local\Temp\ccAXpOqP.s 			page 3


  10:C:/Users/lenovo/Desktop/liteos/Project2/BearPi_LiteOS/kernel/include\los_list.h ****  * provided with the distribution.
  11:C:/Users/lenovo/Desktop/liteos/Project2/BearPi_LiteOS/kernel/include\los_list.h ****  * 3. Neither the name of the copyright holder nor the names of its contributors may be used
  12:C:/Users/lenovo/Desktop/liteos/Project2/BearPi_LiteOS/kernel/include\los_list.h ****  * to endorse or promote products derived from this software without specific prior written
  13:C:/Users/lenovo/Desktop/liteos/Project2/BearPi_LiteOS/kernel/include\los_list.h ****  * permission.
  14:C:/Users/lenovo/Desktop/liteos/Project2/BearPi_LiteOS/kernel/include\los_list.h ****  * THIS SOFTWARE IS PROVIDED BY THE COPYRIGHT HOLDERS AND CONTRIBUTORS
  15:C:/Users/lenovo/Desktop/liteos/Project2/BearPi_LiteOS/kernel/include\los_list.h ****  * "AS IS" AND ANY EXPRESS OR IMPLIED WARRANTIES, INCLUDING, BUT NOT LIMITED TO,
  16:C:/Users/lenovo/Desktop/liteos/Project2/BearPi_LiteOS/kernel/include\los_list.h ****  * THE IMPLIED WARRANTIES OF MERCHANTABILITY AND FITNESS FOR A PARTICULAR
  17:C:/Users/lenovo/Desktop/liteos/Project2/BearPi_LiteOS/kernel/include\los_list.h ****  * PURPOSE ARE DISCLAIMED. IN NO EVENT SHALL THE COPYRIGHT HOLDER OR
  18:C:/Users/lenovo/Desktop/liteos/Project2/BearPi_LiteOS/kernel/include\los_list.h ****  * CONTRIBUTORS BE LIABLE FOR ANY DIRECT, INDIRECT, INCIDENTAL, SPECIAL,
  19:C:/Users/lenovo/Desktop/liteos/Project2/BearPi_LiteOS/kernel/include\los_list.h ****  * EXEMPLARY, OR CONSEQUENTIAL DAMAGES (INCLUDING, BUT NOT LIMITED TO,
  20:C:/Users/lenovo/Desktop/liteos/Project2/BearPi_LiteOS/kernel/include\los_list.h ****  * PROCUREMENT OF SUBSTITUTE GOODS OR SERVICES; LOSS OF USE, DATA, OR PROFITS;
  21:C:/Users/lenovo/Desktop/liteos/Project2/BearPi_LiteOS/kernel/include\los_list.h ****  * OR BUSINESS INTERRUPTION) HOWEVER CAUSED AND ON ANY THEORY OF LIABILITY,
  22:C:/Users/lenovo/Desktop/liteos/Project2/BearPi_LiteOS/kernel/include\los_list.h ****  * WHETHER IN CONTRACT, STRICT LIABILITY, OR TORT (INCLUDING NEGLIGENCE OR
  23:C:/Users/lenovo/Desktop/liteos/Project2/BearPi_LiteOS/kernel/include\los_list.h ****  * OTHERWISE) ARISING IN ANY WAY OUT OF THE USE OF THIS SOFTWARE, EVEN IF
  24:C:/Users/lenovo/Desktop/liteos/Project2/BearPi_LiteOS/kernel/include\los_list.h ****  * ADVISED OF THE POSSIBILITY OF SUCH DAMAGE.
  25:C:/Users/lenovo/Desktop/liteos/Project2/BearPi_LiteOS/kernel/include\los_list.h ****  *---------------------------------------------------------------------------*/
  26:C:/Users/lenovo/Desktop/liteos/Project2/BearPi_LiteOS/kernel/include\los_list.h **** /*----------------------------------------------------------------------------
  27:C:/Users/lenovo/Desktop/liteos/Project2/BearPi_LiteOS/kernel/include\los_list.h ****  * Notice of Export Control Law
  28:C:/Users/lenovo/Desktop/liteos/Project2/BearPi_LiteOS/kernel/include\los_list.h ****  * ===============================================
  29:C:/Users/lenovo/Desktop/liteos/Project2/BearPi_LiteOS/kernel/include\los_list.h ****  * Huawei LiteOS may be subject to applicable export control laws and regulations, which might
  30:C:/Users/lenovo/Desktop/liteos/Project2/BearPi_LiteOS/kernel/include\los_list.h ****  * include those applicable to Huawei LiteOS of U.S. and the country in which you are located.
  31:C:/Users/lenovo/Desktop/liteos/Project2/BearPi_LiteOS/kernel/include\los_list.h ****  * Import, export and usage of Huawei LiteOS in any manner by you shall be in compliance with such
  32:C:/Users/lenovo/Desktop/liteos/Project2/BearPi_LiteOS/kernel/include\los_list.h ****  * applicable export control laws and regulations.
  33:C:/Users/lenovo/Desktop/liteos/Project2/BearPi_LiteOS/kernel/include\los_list.h ****  *---------------------------------------------------------------------------*/
  34:C:/Users/lenovo/Desktop/liteos/Project2/BearPi_LiteOS/kernel/include\los_list.h **** 
  35:C:/Users/lenovo/Desktop/liteos/Project2/BearPi_LiteOS/kernel/include\los_list.h ****  /** @defgroup los_list Doubly linked list
  36:C:/Users/lenovo/Desktop/liteos/Project2/BearPi_LiteOS/kernel/include\los_list.h ****  * @ingroup kernel
  37:C:/Users/lenovo/Desktop/liteos/Project2/BearPi_LiteOS/kernel/include\los_list.h ****  */
  38:C:/Users/lenovo/Desktop/liteos/Project2/BearPi_LiteOS/kernel/include\los_list.h **** 
  39:C:/Users/lenovo/Desktop/liteos/Project2/BearPi_LiteOS/kernel/include\los_list.h **** #ifndef _LOS_LIST_H
  40:C:/Users/lenovo/Desktop/liteos/Project2/BearPi_LiteOS/kernel/include\los_list.h **** #define _LOS_LIST_H
  41:C:/Users/lenovo/Desktop/liteos/Project2/BearPi_LiteOS/kernel/include\los_list.h **** 
  42:C:/Users/lenovo/Desktop/liteos/Project2/BearPi_LiteOS/kernel/include\los_list.h **** #include "los_typedef.h"
  43:C:/Users/lenovo/Desktop/liteos/Project2/BearPi_LiteOS/kernel/include\los_list.h **** 
  44:C:/Users/lenovo/Desktop/liteos/Project2/BearPi_LiteOS/kernel/include\los_list.h **** #ifdef __cplusplus
  45:C:/Users/lenovo/Desktop/liteos/Project2/BearPi_LiteOS/kernel/include\los_list.h **** #if __cplusplus
  46:C:/Users/lenovo/Desktop/liteos/Project2/BearPi_LiteOS/kernel/include\los_list.h **** extern "C" {
  47:C:/Users/lenovo/Desktop/liteos/Project2/BearPi_LiteOS/kernel/include\los_list.h **** #endif /* __cplusplus */
  48:C:/Users/lenovo/Desktop/liteos/Project2/BearPi_LiteOS/kernel/include\los_list.h **** #endif /* __cplusplus */
  49:C:/Users/lenovo/Desktop/liteos/Project2/BearPi_LiteOS/kernel/include\los_list.h **** 
  50:C:/Users/lenovo/Desktop/liteos/Project2/BearPi_LiteOS/kernel/include\los_list.h **** 
  51:C:/Users/lenovo/Desktop/liteos/Project2/BearPi_LiteOS/kernel/include\los_list.h **** /**
  52:C:/Users/lenovo/Desktop/liteos/Project2/BearPi_LiteOS/kernel/include\los_list.h ****  *@ingroup los_list
  53:C:/Users/lenovo/Desktop/liteos/Project2/BearPi_LiteOS/kernel/include\los_list.h ****  *Structure of a node in a doubly linked list.
  54:C:/Users/lenovo/Desktop/liteos/Project2/BearPi_LiteOS/kernel/include\los_list.h ****  */
  55:C:/Users/lenovo/Desktop/liteos/Project2/BearPi_LiteOS/kernel/include\los_list.h **** typedef struct LOS_DL_LIST
  56:C:/Users/lenovo/Desktop/liteos/Project2/BearPi_LiteOS/kernel/include\los_list.h **** {
  57:C:/Users/lenovo/Desktop/liteos/Project2/BearPi_LiteOS/kernel/include\los_list.h ****     struct LOS_DL_LIST *pstPrev;            /**< Current node's pointer to the previous node*/
  58:C:/Users/lenovo/Desktop/liteos/Project2/BearPi_LiteOS/kernel/include\los_list.h ****     struct LOS_DL_LIST *pstNext;            /**< Current node's pointer to the next node*/
  59:C:/Users/lenovo/Desktop/liteos/Project2/BearPi_LiteOS/kernel/include\los_list.h **** } LOS_DL_LIST;
  60:C:/Users/lenovo/Desktop/liteos/Project2/BearPi_LiteOS/kernel/include\los_list.h **** 
  61:C:/Users/lenovo/Desktop/liteos/Project2/BearPi_LiteOS/kernel/include\los_list.h **** /**
  62:C:/Users/lenovo/Desktop/liteos/Project2/BearPi_LiteOS/kernel/include\los_list.h ****  *@ingroup los_list
  63:C:/Users/lenovo/Desktop/liteos/Project2/BearPi_LiteOS/kernel/include\los_list.h ****  *@brief Initialize a doubly linked list.
  64:C:/Users/lenovo/Desktop/liteos/Project2/BearPi_LiteOS/kernel/include\los_list.h ****  *
  65:C:/Users/lenovo/Desktop/liteos/Project2/BearPi_LiteOS/kernel/include\los_list.h ****  *@par Description:
  66:C:/Users/lenovo/Desktop/liteos/Project2/BearPi_LiteOS/kernel/include\los_list.h ****  *This API is used to initialize a doubly linked list.
ARM GAS  c:\Users\lenovo\AppData\Local\Temp\ccAXpOqP.s 			page 4


  67:C:/Users/lenovo/Desktop/liteos/Project2/BearPi_LiteOS/kernel/include\los_list.h ****  *@attention
  68:C:/Users/lenovo/Desktop/liteos/Project2/BearPi_LiteOS/kernel/include\los_list.h ****  *<ul>
  69:C:/Users/lenovo/Desktop/liteos/Project2/BearPi_LiteOS/kernel/include\los_list.h ****  *<li>The parameter passed in should be ensured to be a legal pointer.</li>
  70:C:/Users/lenovo/Desktop/liteos/Project2/BearPi_LiteOS/kernel/include\los_list.h ****  *</ul>
  71:C:/Users/lenovo/Desktop/liteos/Project2/BearPi_LiteOS/kernel/include\los_list.h ****  *
  72:C:/Users/lenovo/Desktop/liteos/Project2/BearPi_LiteOS/kernel/include\los_list.h ****  *@param pstList    [IN] Node in a doubly linked list.
  73:C:/Users/lenovo/Desktop/liteos/Project2/BearPi_LiteOS/kernel/include\los_list.h ****  *
  74:C:/Users/lenovo/Desktop/liteos/Project2/BearPi_LiteOS/kernel/include\los_list.h ****  *@retval None.
  75:C:/Users/lenovo/Desktop/liteos/Project2/BearPi_LiteOS/kernel/include\los_list.h ****  *@par Dependency:
  76:C:/Users/lenovo/Desktop/liteos/Project2/BearPi_LiteOS/kernel/include\los_list.h ****  *<ul><li>los_list.h: the header file that contains the API declaration.</li></ul>
  77:C:/Users/lenovo/Desktop/liteos/Project2/BearPi_LiteOS/kernel/include\los_list.h ****  *@see
  78:C:/Users/lenovo/Desktop/liteos/Project2/BearPi_LiteOS/kernel/include\los_list.h ****  *@since Huawei LiteOS V100R001C00
  79:C:/Users/lenovo/Desktop/liteos/Project2/BearPi_LiteOS/kernel/include\los_list.h ****  */
  80:C:/Users/lenovo/Desktop/liteos/Project2/BearPi_LiteOS/kernel/include\los_list.h **** LITE_OS_SEC_ALW_INLINE STATIC_INLINE VOID LOS_ListInit(LOS_DL_LIST *pstList)
  81:C:/Users/lenovo/Desktop/liteos/Project2/BearPi_LiteOS/kernel/include\los_list.h **** {
  82:C:/Users/lenovo/Desktop/liteos/Project2/BearPi_LiteOS/kernel/include\los_list.h ****     pstList->pstNext = pstList;
  41              		.loc 2 82 0
  42 0002 144B     		ldr	r3, .L7
  43 0004 5B60     		str	r3, [r3, #4]
  83:C:/Users/lenovo/Desktop/liteos/Project2/BearPi_LiteOS/kernel/include\los_list.h ****     pstList->pstPrev = pstList;
  44              		.loc 2 83 0
  45 0006 1B60     		str	r3, [r3]
  46              	.LVL1:
  47              	.LBE23:
  48              	.LBE22:
  67:C:/Users/lenovo/Desktop/liteos/Project2/BearPi_LiteOS/kernel/base/ipc\los_mux.c ****     MUX_CB_S *pstMuxNode;
  68:C:/Users/lenovo/Desktop/liteos/Project2/BearPi_LiteOS/kernel/base/ipc\los_mux.c ****     UINT32   uwIndex;
  69:C:/Users/lenovo/Desktop/liteos/Project2/BearPi_LiteOS/kernel/base/ipc\los_mux.c **** 
  70:C:/Users/lenovo/Desktop/liteos/Project2/BearPi_LiteOS/kernel/base/ipc\los_mux.c ****     LOS_ListInit(&g_stUnusedMuxList);
  71:C:/Users/lenovo/Desktop/liteos/Project2/BearPi_LiteOS/kernel/base/ipc\los_mux.c **** 
  72:C:/Users/lenovo/Desktop/liteos/Project2/BearPi_LiteOS/kernel/base/ipc\los_mux.c ****     if (LOSCFG_BASE_IPC_MUX_LIMIT == 0)   /*lint !e506*/
  73:C:/Users/lenovo/Desktop/liteos/Project2/BearPi_LiteOS/kernel/base/ipc\los_mux.c ****     {
  74:C:/Users/lenovo/Desktop/liteos/Project2/BearPi_LiteOS/kernel/base/ipc\los_mux.c ****         return LOS_ERRNO_MUX_MAXNUM_ZERO;
  75:C:/Users/lenovo/Desktop/liteos/Project2/BearPi_LiteOS/kernel/base/ipc\los_mux.c ****     }
  76:C:/Users/lenovo/Desktop/liteos/Project2/BearPi_LiteOS/kernel/base/ipc\los_mux.c **** 
  77:C:/Users/lenovo/Desktop/liteos/Project2/BearPi_LiteOS/kernel/base/ipc\los_mux.c ****     g_pstAllMux = (MUX_CB_S *)LOS_MemAlloc(m_aucSysMem0, (LOSCFG_BASE_IPC_MUX_LIMIT * sizeof(MUX_CB
  49              		.loc 1 77 0
  50 0008 4FF4F071 		mov	r1, #480
  51 000c 124B     		ldr	r3, .L7+4
  52 000e 1868     		ldr	r0, [r3]
  53 0010 FFF7FEFF 		bl	LOS_MemAlloc
  54              	.LVL2:
  55 0014 114B     		ldr	r3, .L7+8
  56 0016 1860     		str	r0, [r3]
  78:C:/Users/lenovo/Desktop/liteos/Project2/BearPi_LiteOS/kernel/base/ipc\los_mux.c ****     if (NULL == g_pstAllMux)
  57              		.loc 1 78 0
  58 0018 C8B1     		cbz	r0, .L5
  79:C:/Users/lenovo/Desktop/liteos/Project2/BearPi_LiteOS/kernel/base/ipc\los_mux.c ****     {
  80:C:/Users/lenovo/Desktop/liteos/Project2/BearPi_LiteOS/kernel/base/ipc\los_mux.c ****         return LOS_ERRNO_MUX_NO_MEMORY;
  81:C:/Users/lenovo/Desktop/liteos/Project2/BearPi_LiteOS/kernel/base/ipc\los_mux.c ****     }
  82:C:/Users/lenovo/Desktop/liteos/Project2/BearPi_LiteOS/kernel/base/ipc\los_mux.c **** 
  83:C:/Users/lenovo/Desktop/liteos/Project2/BearPi_LiteOS/kernel/base/ipc\los_mux.c ****     for (uwIndex = 0; uwIndex < LOSCFG_BASE_IPC_MUX_LIMIT; uwIndex++)
  59              		.loc 1 83 0
  60 001a 0023     		movs	r3, #0
  61 001c 13E0     		b	.L3
  62              	.LVL3:
  63              	.L4:
ARM GAS  c:\Users\lenovo\AppData\Local\Temp\ccAXpOqP.s 			page 5


  84:C:/Users/lenovo/Desktop/liteos/Project2/BearPi_LiteOS/kernel/base/ipc\los_mux.c ****     {
  85:C:/Users/lenovo/Desktop/liteos/Project2/BearPi_LiteOS/kernel/base/ipc\los_mux.c ****         pstMuxNode              = ((MUX_CB_S *)g_pstAllMux) + uwIndex;
  64              		.loc 1 85 0 discriminator 3
  65 001e 0F4A     		ldr	r2, .L7+8
  66 0020 1068     		ldr	r0, [r2]
  67 0022 03EB4301 		add	r1, r3, r3, lsl #1
  68 0026 CA00     		lsls	r2, r1, #3
  69 0028 8118     		adds	r1, r0, r2
  70              	.LVL4:
  86:C:/Users/lenovo/Desktop/liteos/Project2/BearPi_LiteOS/kernel/base/ipc\los_mux.c ****         pstMuxNode->ucMuxID     = uwIndex;
  71              		.loc 1 86 0 discriminator 3
  72 002a 4B60     		str	r3, [r1, #4]
  87:C:/Users/lenovo/Desktop/liteos/Project2/BearPi_LiteOS/kernel/base/ipc\los_mux.c ****         pstMuxNode->ucMuxStat   = OS_MUX_UNUSED;
  73              		.loc 1 87 0 discriminator 3
  74 002c 0024     		movs	r4, #0
  75 002e 8454     		strb	r4, [r0, r2]
  88:C:/Users/lenovo/Desktop/liteos/Project2/BearPi_LiteOS/kernel/base/ipc\los_mux.c ****         LOS_ListTailInsert(&g_stUnusedMuxList, &pstMuxNode->stMuxList);
  76              		.loc 1 88 0 discriminator 3
  77 0030 01F10800 		add	r0, r1, #8
  78              	.LVL5:
  79              	.LBB24:
  80              	.LBB25:
  84:C:/Users/lenovo/Desktop/liteos/Project2/BearPi_LiteOS/kernel/include\los_list.h **** }
  85:C:/Users/lenovo/Desktop/liteos/Project2/BearPi_LiteOS/kernel/include\los_list.h **** 
  86:C:/Users/lenovo/Desktop/liteos/Project2/BearPi_LiteOS/kernel/include\los_list.h **** /**
  87:C:/Users/lenovo/Desktop/liteos/Project2/BearPi_LiteOS/kernel/include\los_list.h ****  *@ingroup los_list
  88:C:/Users/lenovo/Desktop/liteos/Project2/BearPi_LiteOS/kernel/include\los_list.h ****  *@brief Point to the next node pointed to by the current node.
  89:C:/Users/lenovo/Desktop/liteos/Project2/BearPi_LiteOS/kernel/include\los_list.h ****  *
  90:C:/Users/lenovo/Desktop/liteos/Project2/BearPi_LiteOS/kernel/include\los_list.h ****  *@par Description:
  91:C:/Users/lenovo/Desktop/liteos/Project2/BearPi_LiteOS/kernel/include\los_list.h ****  *<ul>
  92:C:/Users/lenovo/Desktop/liteos/Project2/BearPi_LiteOS/kernel/include\los_list.h ****  *<li>This API is used to point to the next node pointed to by the current node.</li>
  93:C:/Users/lenovo/Desktop/liteos/Project2/BearPi_LiteOS/kernel/include\los_list.h ****  *</ul>
  94:C:/Users/lenovo/Desktop/liteos/Project2/BearPi_LiteOS/kernel/include\los_list.h ****  *@attention
  95:C:/Users/lenovo/Desktop/liteos/Project2/BearPi_LiteOS/kernel/include\los_list.h ****  *<ul>
  96:C:/Users/lenovo/Desktop/liteos/Project2/BearPi_LiteOS/kernel/include\los_list.h ****  *<li>None.</li>
  97:C:/Users/lenovo/Desktop/liteos/Project2/BearPi_LiteOS/kernel/include\los_list.h ****  *</ul>
  98:C:/Users/lenovo/Desktop/liteos/Project2/BearPi_LiteOS/kernel/include\los_list.h ****  *
  99:C:/Users/lenovo/Desktop/liteos/Project2/BearPi_LiteOS/kernel/include\los_list.h ****  *@param pstObject  [IN] Node in the doubly linked list.
 100:C:/Users/lenovo/Desktop/liteos/Project2/BearPi_LiteOS/kernel/include\los_list.h ****  *
 101:C:/Users/lenovo/Desktop/liteos/Project2/BearPi_LiteOS/kernel/include\los_list.h ****  *@retval None.
 102:C:/Users/lenovo/Desktop/liteos/Project2/BearPi_LiteOS/kernel/include\los_list.h ****  *@par Dependency:
 103:C:/Users/lenovo/Desktop/liteos/Project2/BearPi_LiteOS/kernel/include\los_list.h ****  *<ul><li>los_list.h: the header file that contains the API declaration.</li></ul>
 104:C:/Users/lenovo/Desktop/liteos/Project2/BearPi_LiteOS/kernel/include\los_list.h ****  *@see
 105:C:/Users/lenovo/Desktop/liteos/Project2/BearPi_LiteOS/kernel/include\los_list.h ****  *@since Huawei LiteOS V100R001C00
 106:C:/Users/lenovo/Desktop/liteos/Project2/BearPi_LiteOS/kernel/include\los_list.h ****  */
 107:C:/Users/lenovo/Desktop/liteos/Project2/BearPi_LiteOS/kernel/include\los_list.h **** #define LOS_DL_LIST_FIRST(pstObject) ((pstObject)->pstNext)
 108:C:/Users/lenovo/Desktop/liteos/Project2/BearPi_LiteOS/kernel/include\los_list.h **** 
 109:C:/Users/lenovo/Desktop/liteos/Project2/BearPi_LiteOS/kernel/include\los_list.h **** /**
 110:C:/Users/lenovo/Desktop/liteos/Project2/BearPi_LiteOS/kernel/include\los_list.h ****  *@ingroup los_list
 111:C:/Users/lenovo/Desktop/liteos/Project2/BearPi_LiteOS/kernel/include\los_list.h ****  *@brief Insert a new node to a doubly linked list.
 112:C:/Users/lenovo/Desktop/liteos/Project2/BearPi_LiteOS/kernel/include\los_list.h ****  *
 113:C:/Users/lenovo/Desktop/liteos/Project2/BearPi_LiteOS/kernel/include\los_list.h ****  *@par Description:
 114:C:/Users/lenovo/Desktop/liteos/Project2/BearPi_LiteOS/kernel/include\los_list.h ****  *This API is used to insert a new node to a doubly linked list.
 115:C:/Users/lenovo/Desktop/liteos/Project2/BearPi_LiteOS/kernel/include\los_list.h ****  *@attention
 116:C:/Users/lenovo/Desktop/liteos/Project2/BearPi_LiteOS/kernel/include\los_list.h ****  *<ul>
 117:C:/Users/lenovo/Desktop/liteos/Project2/BearPi_LiteOS/kernel/include\los_list.h ****  *<li>The parameters passed in should be ensured to be legal pointers.</li>
 118:C:/Users/lenovo/Desktop/liteos/Project2/BearPi_LiteOS/kernel/include\los_list.h ****  *</ul>
ARM GAS  c:\Users\lenovo\AppData\Local\Temp\ccAXpOqP.s 			page 6


 119:C:/Users/lenovo/Desktop/liteos/Project2/BearPi_LiteOS/kernel/include\los_list.h ****  *
 120:C:/Users/lenovo/Desktop/liteos/Project2/BearPi_LiteOS/kernel/include\los_list.h ****  *@param pstList    [IN]   Doubly linked list where the new node is inserted.
 121:C:/Users/lenovo/Desktop/liteos/Project2/BearPi_LiteOS/kernel/include\los_list.h ****  *@param pstNode    [IN]   New node to be inserted.
 122:C:/Users/lenovo/Desktop/liteos/Project2/BearPi_LiteOS/kernel/include\los_list.h ****  *
 123:C:/Users/lenovo/Desktop/liteos/Project2/BearPi_LiteOS/kernel/include\los_list.h ****  *@retval None
 124:C:/Users/lenovo/Desktop/liteos/Project2/BearPi_LiteOS/kernel/include\los_list.h ****  *@par Dependency:
 125:C:/Users/lenovo/Desktop/liteos/Project2/BearPi_LiteOS/kernel/include\los_list.h ****  *<ul><li>los_list.h: the header file that contains the API declaration.</li></ul>
 126:C:/Users/lenovo/Desktop/liteos/Project2/BearPi_LiteOS/kernel/include\los_list.h ****  *@see LOS_ListDelete
 127:C:/Users/lenovo/Desktop/liteos/Project2/BearPi_LiteOS/kernel/include\los_list.h ****  *@since Huawei LiteOS V100R001C00
 128:C:/Users/lenovo/Desktop/liteos/Project2/BearPi_LiteOS/kernel/include\los_list.h ****  */
 129:C:/Users/lenovo/Desktop/liteos/Project2/BearPi_LiteOS/kernel/include\los_list.h **** LITE_OS_SEC_ALW_INLINE STATIC_INLINE VOID LOS_ListAdd(LOS_DL_LIST *pstList, LOS_DL_LIST *pstNode)
 130:C:/Users/lenovo/Desktop/liteos/Project2/BearPi_LiteOS/kernel/include\los_list.h **** {
 131:C:/Users/lenovo/Desktop/liteos/Project2/BearPi_LiteOS/kernel/include\los_list.h ****     pstNode->pstNext = pstList->pstNext;
 132:C:/Users/lenovo/Desktop/liteos/Project2/BearPi_LiteOS/kernel/include\los_list.h ****     pstNode->pstPrev = pstList;
 133:C:/Users/lenovo/Desktop/liteos/Project2/BearPi_LiteOS/kernel/include\los_list.h ****     pstList->pstNext->pstPrev = pstNode;
 134:C:/Users/lenovo/Desktop/liteos/Project2/BearPi_LiteOS/kernel/include\los_list.h ****     pstList->pstNext = pstNode;
 135:C:/Users/lenovo/Desktop/liteos/Project2/BearPi_LiteOS/kernel/include\los_list.h **** }
 136:C:/Users/lenovo/Desktop/liteos/Project2/BearPi_LiteOS/kernel/include\los_list.h **** 
 137:C:/Users/lenovo/Desktop/liteos/Project2/BearPi_LiteOS/kernel/include\los_list.h **** /**
 138:C:/Users/lenovo/Desktop/liteos/Project2/BearPi_LiteOS/kernel/include\los_list.h ****  *@ingroup los_list
 139:C:/Users/lenovo/Desktop/liteos/Project2/BearPi_LiteOS/kernel/include\los_list.h ****  *@brief Insert a node to the tail of a doubly linked list.
 140:C:/Users/lenovo/Desktop/liteos/Project2/BearPi_LiteOS/kernel/include\los_list.h ****  *
 141:C:/Users/lenovo/Desktop/liteos/Project2/BearPi_LiteOS/kernel/include\los_list.h ****  *@par Description:
 142:C:/Users/lenovo/Desktop/liteos/Project2/BearPi_LiteOS/kernel/include\los_list.h ****  *This API is used to insert a new node to the tail of a doubly linked list.
 143:C:/Users/lenovo/Desktop/liteos/Project2/BearPi_LiteOS/kernel/include\los_list.h ****  *@attention
 144:C:/Users/lenovo/Desktop/liteos/Project2/BearPi_LiteOS/kernel/include\los_list.h ****  *<ul>
 145:C:/Users/lenovo/Desktop/liteos/Project2/BearPi_LiteOS/kernel/include\los_list.h ****  *<li>The parameters passed in should be ensured to be legal pointers.</li>
 146:C:/Users/lenovo/Desktop/liteos/Project2/BearPi_LiteOS/kernel/include\los_list.h ****  *</ul>
 147:C:/Users/lenovo/Desktop/liteos/Project2/BearPi_LiteOS/kernel/include\los_list.h ****  *
 148:C:/Users/lenovo/Desktop/liteos/Project2/BearPi_LiteOS/kernel/include\los_list.h ****  *@param pstList     [IN] Doubly linked list where the new node is inserted.
 149:C:/Users/lenovo/Desktop/liteos/Project2/BearPi_LiteOS/kernel/include\los_list.h ****  *@param pstNode     [IN] New node to be inserted.
 150:C:/Users/lenovo/Desktop/liteos/Project2/BearPi_LiteOS/kernel/include\los_list.h ****  *
 151:C:/Users/lenovo/Desktop/liteos/Project2/BearPi_LiteOS/kernel/include\los_list.h ****  *@retval None.
 152:C:/Users/lenovo/Desktop/liteos/Project2/BearPi_LiteOS/kernel/include\los_list.h ****  *@par Dependency:
 153:C:/Users/lenovo/Desktop/liteos/Project2/BearPi_LiteOS/kernel/include\los_list.h ****  *<ul><li>los_list.h: the header file that contains the API declaration.</li></ul>
 154:C:/Users/lenovo/Desktop/liteos/Project2/BearPi_LiteOS/kernel/include\los_list.h ****  *@see LOS_ListAdd | LOS_ListHeadInsert
 155:C:/Users/lenovo/Desktop/liteos/Project2/BearPi_LiteOS/kernel/include\los_list.h ****  *@since Huawei LiteOS V100R001C00
 156:C:/Users/lenovo/Desktop/liteos/Project2/BearPi_LiteOS/kernel/include\los_list.h ****  */
 157:C:/Users/lenovo/Desktop/liteos/Project2/BearPi_LiteOS/kernel/include\los_list.h **** LITE_OS_SEC_ALW_INLINE STATIC_INLINE VOID LOS_ListTailInsert(LOS_DL_LIST *pstList, LOS_DL_LIST *pst
 158:C:/Users/lenovo/Desktop/liteos/Project2/BearPi_LiteOS/kernel/include\los_list.h **** {
 159:C:/Users/lenovo/Desktop/liteos/Project2/BearPi_LiteOS/kernel/include\los_list.h ****     LOS_ListAdd(pstList->pstPrev, pstNode);
  81              		.loc 2 159 0 discriminator 3
  82 0034 074A     		ldr	r2, .L7
  83 0036 1268     		ldr	r2, [r2]
  84              	.LVL6:
  85              	.LBB26:
  86              	.LBB27:
 131:C:/Users/lenovo/Desktop/liteos/Project2/BearPi_LiteOS/kernel/include\los_list.h ****     pstNode->pstPrev = pstList;
  87              		.loc 2 131 0 discriminator 3
  88 0038 5468     		ldr	r4, [r2, #4]
  89 003a CC60     		str	r4, [r1, #12]
 132:C:/Users/lenovo/Desktop/liteos/Project2/BearPi_LiteOS/kernel/include\los_list.h ****     pstList->pstNext->pstPrev = pstNode;
  90              		.loc 2 132 0 discriminator 3
  91 003c 8A60     		str	r2, [r1, #8]
 133:C:/Users/lenovo/Desktop/liteos/Project2/BearPi_LiteOS/kernel/include\los_list.h ****     pstList->pstNext = pstNode;
  92              		.loc 2 133 0 discriminator 3
  93 003e 5168     		ldr	r1, [r2, #4]
ARM GAS  c:\Users\lenovo\AppData\Local\Temp\ccAXpOqP.s 			page 7


  94              	.LVL7:
  95 0040 0860     		str	r0, [r1]
 134:C:/Users/lenovo/Desktop/liteos/Project2/BearPi_LiteOS/kernel/include\los_list.h **** }
  96              		.loc 2 134 0 discriminator 3
  97 0042 5060     		str	r0, [r2, #4]
  98              	.LVL8:
  99              	.LBE27:
 100              	.LBE26:
 101              	.LBE25:
 102              	.LBE24:
  83:C:/Users/lenovo/Desktop/liteos/Project2/BearPi_LiteOS/kernel/base/ipc\los_mux.c ****     {
 103              		.loc 1 83 0 discriminator 3
 104 0044 0133     		adds	r3, r3, #1
 105              	.LVL9:
 106              	.L3:
  83:C:/Users/lenovo/Desktop/liteos/Project2/BearPi_LiteOS/kernel/base/ipc\los_mux.c ****     {
 107              		.loc 1 83 0 is_stmt 0 discriminator 1
 108 0046 132B     		cmp	r3, #19
 109 0048 E9D9     		bls	.L4
  89:C:/Users/lenovo/Desktop/liteos/Project2/BearPi_LiteOS/kernel/base/ipc\los_mux.c ****     }
  90:C:/Users/lenovo/Desktop/liteos/Project2/BearPi_LiteOS/kernel/base/ipc\los_mux.c ****     return LOS_OK;
 110              		.loc 1 90 0 is_stmt 1
 111 004a 0020     		movs	r0, #0
 112              	.LVL10:
 113              	.L1:
  91:C:/Users/lenovo/Desktop/liteos/Project2/BearPi_LiteOS/kernel/base/ipc\los_mux.c **** }
 114              		.loc 1 91 0
 115 004c 10BD     		pop	{r4, pc}
 116              	.L5:
  80:C:/Users/lenovo/Desktop/liteos/Project2/BearPi_LiteOS/kernel/base/ipc\los_mux.c ****     }
 117              		.loc 1 80 0
 118 004e 0448     		ldr	r0, .L7+12
 119 0050 FCE7     		b	.L1
 120              	.L8:
 121 0052 00BF     		.align	2
 122              	.L7:
 123 0054 00000000 		.word	g_stUnusedMuxList
 124 0058 00000000 		.word	m_aucSysMem0
 125 005c 00000000 		.word	g_pstAllMux
 126 0060 001D0002 		.word	33561856
 127              		.cfi_endproc
 128              	.LFE133:
 130              		.section	.text.LOS_MuxCreate,"ax",%progbits
 131              		.align	1
 132              		.global	LOS_MuxCreate
 133              		.syntax unified
 134              		.thumb
 135              		.thumb_func
 136              		.fpu fpv4-sp-d16
 138              	LOS_MuxCreate:
 139              	.LFB134:
  92:C:/Users/lenovo/Desktop/liteos/Project2/BearPi_LiteOS/kernel/base/ipc\los_mux.c **** 
  93:C:/Users/lenovo/Desktop/liteos/Project2/BearPi_LiteOS/kernel/base/ipc\los_mux.c **** /*****************************************************************************
  94:C:/Users/lenovo/Desktop/liteos/Project2/BearPi_LiteOS/kernel/base/ipc\los_mux.c ****  Function     : LOS_MuxCreate
  95:C:/Users/lenovo/Desktop/liteos/Project2/BearPi_LiteOS/kernel/base/ipc\los_mux.c ****  Description  : Create a mutex,
  96:C:/Users/lenovo/Desktop/liteos/Project2/BearPi_LiteOS/kernel/base/ipc\los_mux.c ****  Input        : None
  97:C:/Users/lenovo/Desktop/liteos/Project2/BearPi_LiteOS/kernel/base/ipc\los_mux.c ****  Output       : puwMuxHandle ------ Mutex operation handle
ARM GAS  c:\Users\lenovo\AppData\Local\Temp\ccAXpOqP.s 			page 8


  98:C:/Users/lenovo/Desktop/liteos/Project2/BearPi_LiteOS/kernel/base/ipc\los_mux.c ****  Return       : LOS_OK on success ,or error code on failure
  99:C:/Users/lenovo/Desktop/liteos/Project2/BearPi_LiteOS/kernel/base/ipc\los_mux.c ****  *****************************************************************************/
 100:C:/Users/lenovo/Desktop/liteos/Project2/BearPi_LiteOS/kernel/base/ipc\los_mux.c **** LITE_OS_SEC_TEXT_INIT  UINT32  LOS_MuxCreate (UINT32 *puwMuxHandle)
 101:C:/Users/lenovo/Desktop/liteos/Project2/BearPi_LiteOS/kernel/base/ipc\los_mux.c **** {
 140              		.loc 1 101 0
 141              		.cfi_startproc
 142              		@ args = 0, pretend = 0, frame = 0
 143              		@ frame_needed = 0, uses_anonymous_args = 0
 144              	.LVL11:
 102:C:/Users/lenovo/Desktop/liteos/Project2/BearPi_LiteOS/kernel/base/ipc\los_mux.c ****     UINT32      uwIntSave;
 103:C:/Users/lenovo/Desktop/liteos/Project2/BearPi_LiteOS/kernel/base/ipc\los_mux.c ****     MUX_CB_S    *pstMuxCreated;
 104:C:/Users/lenovo/Desktop/liteos/Project2/BearPi_LiteOS/kernel/base/ipc\los_mux.c ****     LOS_DL_LIST *pstUnusedMux;
 105:C:/Users/lenovo/Desktop/liteos/Project2/BearPi_LiteOS/kernel/base/ipc\los_mux.c ****     UINT32      uwErrNo;
 106:C:/Users/lenovo/Desktop/liteos/Project2/BearPi_LiteOS/kernel/base/ipc\los_mux.c ****     UINT32      uwErrLine;
 107:C:/Users/lenovo/Desktop/liteos/Project2/BearPi_LiteOS/kernel/base/ipc\los_mux.c **** 
 108:C:/Users/lenovo/Desktop/liteos/Project2/BearPi_LiteOS/kernel/base/ipc\los_mux.c ****     if (NULL == puwMuxHandle)
 145              		.loc 1 108 0
 146 0000 60B3     		cbz	r0, .L12
 101:C:/Users/lenovo/Desktop/liteos/Project2/BearPi_LiteOS/kernel/base/ipc\los_mux.c ****     UINT32      uwIntSave;
 147              		.loc 1 101 0
 148 0002 30B5     		push	{r4, r5, lr}
 149              	.LCFI1:
 150              		.cfi_def_cfa_offset 12
 151              		.cfi_offset 4, -12
 152              		.cfi_offset 5, -8
 153              		.cfi_offset 14, -4
 154 0004 83B0     		sub	sp, sp, #12
 155              	.LCFI2:
 156              		.cfi_def_cfa_offset 24
 157 0006 0546     		mov	r5, r0
 109:C:/Users/lenovo/Desktop/liteos/Project2/BearPi_LiteOS/kernel/base/ipc\los_mux.c ****     {
 110:C:/Users/lenovo/Desktop/liteos/Project2/BearPi_LiteOS/kernel/base/ipc\los_mux.c ****         return LOS_ERRNO_MUX_PTR_NULL;
 111:C:/Users/lenovo/Desktop/liteos/Project2/BearPi_LiteOS/kernel/base/ipc\los_mux.c ****     }
 112:C:/Users/lenovo/Desktop/liteos/Project2/BearPi_LiteOS/kernel/base/ipc\los_mux.c **** 
 113:C:/Users/lenovo/Desktop/liteos/Project2/BearPi_LiteOS/kernel/base/ipc\los_mux.c ****     uwIntSave = LOS_IntLock();
 158              		.loc 1 113 0
 159 0008 FFF7FEFF 		bl	LOS_IntLock
 160              	.LVL12:
 161              	.LBB28:
 162              	.LBB29:
 160:C:/Users/lenovo/Desktop/liteos/Project2/BearPi_LiteOS/kernel/include\los_list.h **** }
 161:C:/Users/lenovo/Desktop/liteos/Project2/BearPi_LiteOS/kernel/include\los_list.h **** 
 162:C:/Users/lenovo/Desktop/liteos/Project2/BearPi_LiteOS/kernel/include\los_list.h **** /**
 163:C:/Users/lenovo/Desktop/liteos/Project2/BearPi_LiteOS/kernel/include\los_list.h ****  *@ingroup los_list
 164:C:/Users/lenovo/Desktop/liteos/Project2/BearPi_LiteOS/kernel/include\los_list.h ****  *@brief Delete a specified node from a doubly linked list.
 165:C:/Users/lenovo/Desktop/liteos/Project2/BearPi_LiteOS/kernel/include\los_list.h ****  *
 166:C:/Users/lenovo/Desktop/liteos/Project2/BearPi_LiteOS/kernel/include\los_list.h ****  *@par Description:
 167:C:/Users/lenovo/Desktop/liteos/Project2/BearPi_LiteOS/kernel/include\los_list.h ****  *<ul>
 168:C:/Users/lenovo/Desktop/liteos/Project2/BearPi_LiteOS/kernel/include\los_list.h ****  *<li>This API is used to delete a specified node from a doubly linked list.</li>
 169:C:/Users/lenovo/Desktop/liteos/Project2/BearPi_LiteOS/kernel/include\los_list.h ****  *</ul>
 170:C:/Users/lenovo/Desktop/liteos/Project2/BearPi_LiteOS/kernel/include\los_list.h ****  *@attention
 171:C:/Users/lenovo/Desktop/liteos/Project2/BearPi_LiteOS/kernel/include\los_list.h ****  *<ul>
 172:C:/Users/lenovo/Desktop/liteos/Project2/BearPi_LiteOS/kernel/include\los_list.h ****  *<li>The parameter passed in should be ensured to be a legal pointer.</li>
 173:C:/Users/lenovo/Desktop/liteos/Project2/BearPi_LiteOS/kernel/include\los_list.h ****  *</ul>
 174:C:/Users/lenovo/Desktop/liteos/Project2/BearPi_LiteOS/kernel/include\los_list.h ****  *
 175:C:/Users/lenovo/Desktop/liteos/Project2/BearPi_LiteOS/kernel/include\los_list.h ****  *@param pstNode    [IN] Node to be deleted.
 176:C:/Users/lenovo/Desktop/liteos/Project2/BearPi_LiteOS/kernel/include\los_list.h ****  *
ARM GAS  c:\Users\lenovo\AppData\Local\Temp\ccAXpOqP.s 			page 9


 177:C:/Users/lenovo/Desktop/liteos/Project2/BearPi_LiteOS/kernel/include\los_list.h ****  *@retval None.
 178:C:/Users/lenovo/Desktop/liteos/Project2/BearPi_LiteOS/kernel/include\los_list.h ****  *@par Dependency:
 179:C:/Users/lenovo/Desktop/liteos/Project2/BearPi_LiteOS/kernel/include\los_list.h ****  *<ul><li>los_list.h: the header file that contains the API declaration.</li></ul>
 180:C:/Users/lenovo/Desktop/liteos/Project2/BearPi_LiteOS/kernel/include\los_list.h ****  *@see LOS_ListAdd
 181:C:/Users/lenovo/Desktop/liteos/Project2/BearPi_LiteOS/kernel/include\los_list.h ****  *@since Huawei LiteOS V100R001C00
 182:C:/Users/lenovo/Desktop/liteos/Project2/BearPi_LiteOS/kernel/include\los_list.h ****  */
 183:C:/Users/lenovo/Desktop/liteos/Project2/BearPi_LiteOS/kernel/include\los_list.h **** LITE_OS_SEC_ALW_INLINE STATIC_INLINE VOID LOS_ListDelete(LOS_DL_LIST *pstNode)
 184:C:/Users/lenovo/Desktop/liteos/Project2/BearPi_LiteOS/kernel/include\los_list.h **** {
 185:C:/Users/lenovo/Desktop/liteos/Project2/BearPi_LiteOS/kernel/include\los_list.h ****     pstNode->pstNext->pstPrev = pstNode->pstPrev;
 186:C:/Users/lenovo/Desktop/liteos/Project2/BearPi_LiteOS/kernel/include\los_list.h ****     pstNode->pstPrev->pstNext = pstNode->pstNext;
 187:C:/Users/lenovo/Desktop/liteos/Project2/BearPi_LiteOS/kernel/include\los_list.h ****     pstNode->pstNext = (LOS_DL_LIST *)NULL;
 188:C:/Users/lenovo/Desktop/liteos/Project2/BearPi_LiteOS/kernel/include\los_list.h ****     pstNode->pstPrev = (LOS_DL_LIST *)NULL;
 189:C:/Users/lenovo/Desktop/liteos/Project2/BearPi_LiteOS/kernel/include\los_list.h **** }
 190:C:/Users/lenovo/Desktop/liteos/Project2/BearPi_LiteOS/kernel/include\los_list.h **** 
 191:C:/Users/lenovo/Desktop/liteos/Project2/BearPi_LiteOS/kernel/include\los_list.h **** /**
 192:C:/Users/lenovo/Desktop/liteos/Project2/BearPi_LiteOS/kernel/include\los_list.h ****  *@ingroup los_list
 193:C:/Users/lenovo/Desktop/liteos/Project2/BearPi_LiteOS/kernel/include\los_list.h ****  *@brief Identify whether a specified doubly linked list is empty.
 194:C:/Users/lenovo/Desktop/liteos/Project2/BearPi_LiteOS/kernel/include\los_list.h ****  *
 195:C:/Users/lenovo/Desktop/liteos/Project2/BearPi_LiteOS/kernel/include\los_list.h ****  *@par Description:
 196:C:/Users/lenovo/Desktop/liteos/Project2/BearPi_LiteOS/kernel/include\los_list.h ****  *<ul>
 197:C:/Users/lenovo/Desktop/liteos/Project2/BearPi_LiteOS/kernel/include\los_list.h ****  *<li>This API is used to return whether a doubly linked list is empty.</li>
 198:C:/Users/lenovo/Desktop/liteos/Project2/BearPi_LiteOS/kernel/include\los_list.h ****  *</ul>
 199:C:/Users/lenovo/Desktop/liteos/Project2/BearPi_LiteOS/kernel/include\los_list.h ****  *@attention
 200:C:/Users/lenovo/Desktop/liteos/Project2/BearPi_LiteOS/kernel/include\los_list.h ****  *<ul>
 201:C:/Users/lenovo/Desktop/liteos/Project2/BearPi_LiteOS/kernel/include\los_list.h ****  *<li>The parameter passed in should be ensured to be a legal pointer.</li>
 202:C:/Users/lenovo/Desktop/liteos/Project2/BearPi_LiteOS/kernel/include\los_list.h ****  *</ul>
 203:C:/Users/lenovo/Desktop/liteos/Project2/BearPi_LiteOS/kernel/include\los_list.h ****  *
 204:C:/Users/lenovo/Desktop/liteos/Project2/BearPi_LiteOS/kernel/include\los_list.h ****  *@param pstList  [IN] Doubly linked list.
 205:C:/Users/lenovo/Desktop/liteos/Project2/BearPi_LiteOS/kernel/include\los_list.h ****  *
 206:C:/Users/lenovo/Desktop/liteos/Project2/BearPi_LiteOS/kernel/include\los_list.h ****  *@retval TRUE The doubly linked list is empty.
 207:C:/Users/lenovo/Desktop/liteos/Project2/BearPi_LiteOS/kernel/include\los_list.h ****  *@retval FALSE The doubly linked list is not empty.
 208:C:/Users/lenovo/Desktop/liteos/Project2/BearPi_LiteOS/kernel/include\los_list.h ****  *@par Dependency:
 209:C:/Users/lenovo/Desktop/liteos/Project2/BearPi_LiteOS/kernel/include\los_list.h ****  *<ul><li>los_list.h: the header file that contains the API declaration.</li></ul>
 210:C:/Users/lenovo/Desktop/liteos/Project2/BearPi_LiteOS/kernel/include\los_list.h ****  *@see
 211:C:/Users/lenovo/Desktop/liteos/Project2/BearPi_LiteOS/kernel/include\los_list.h ****  *@since Huawei LiteOS V100R001C00
 212:C:/Users/lenovo/Desktop/liteos/Project2/BearPi_LiteOS/kernel/include\los_list.h ****  */
 213:C:/Users/lenovo/Desktop/liteos/Project2/BearPi_LiteOS/kernel/include\los_list.h **** LITE_OS_SEC_ALW_INLINE STATIC_INLINE BOOL LOS_ListEmpty(LOS_DL_LIST *pstNode)
 214:C:/Users/lenovo/Desktop/liteos/Project2/BearPi_LiteOS/kernel/include\los_list.h **** {
 215:C:/Users/lenovo/Desktop/liteos/Project2/BearPi_LiteOS/kernel/include\los_list.h ****     return (BOOL)(pstNode->pstNext == pstNode);
 163              		.loc 2 215 0
 164 000c 144A     		ldr	r2, .L18
 165 000e 5368     		ldr	r3, [r2, #4]
 166              	.LVL13:
 167              	.LBE29:
 168              	.LBE28:
 114:C:/Users/lenovo/Desktop/liteos/Project2/BearPi_LiteOS/kernel/base/ipc\los_mux.c ****     if (LOS_ListEmpty(&g_stUnusedMuxList))
 169              		.loc 1 114 0
 170 0010 9342     		cmp	r3, r2
 171 0012 17D0     		beq	.L17
 172              	.LVL14:
 173              	.LBB30:
 174              	.LBB31:
 185:C:/Users/lenovo/Desktop/liteos/Project2/BearPi_LiteOS/kernel/include\los_list.h ****     pstNode->pstPrev->pstNext = pstNode->pstNext;
 175              		.loc 2 185 0
 176 0014 5A68     		ldr	r2, [r3, #4]
 177 0016 1968     		ldr	r1, [r3]
 178 0018 1160     		str	r1, [r2]
ARM GAS  c:\Users\lenovo\AppData\Local\Temp\ccAXpOqP.s 			page 10


 186:C:/Users/lenovo/Desktop/liteos/Project2/BearPi_LiteOS/kernel/include\los_list.h ****     pstNode->pstNext = (LOS_DL_LIST *)NULL;
 179              		.loc 2 186 0
 180 001a 1A68     		ldr	r2, [r3]
 181 001c 5968     		ldr	r1, [r3, #4]
 182 001e 5160     		str	r1, [r2, #4]
 183              	.LVL15:
 184              	.LBE31:
 185              	.LBE30:
 115:C:/Users/lenovo/Desktop/liteos/Project2/BearPi_LiteOS/kernel/base/ipc\los_mux.c ****     {
 116:C:/Users/lenovo/Desktop/liteos/Project2/BearPi_LiteOS/kernel/base/ipc\los_mux.c ****         LOS_IntRestore(uwIntSave);
 117:C:/Users/lenovo/Desktop/liteos/Project2/BearPi_LiteOS/kernel/base/ipc\los_mux.c ****         OS_GOTO_ERR_HANDLER(LOS_ERRNO_MUX_ALL_BUSY);
 118:C:/Users/lenovo/Desktop/liteos/Project2/BearPi_LiteOS/kernel/base/ipc\los_mux.c ****     }
 119:C:/Users/lenovo/Desktop/liteos/Project2/BearPi_LiteOS/kernel/base/ipc\los_mux.c **** 
 120:C:/Users/lenovo/Desktop/liteos/Project2/BearPi_LiteOS/kernel/base/ipc\los_mux.c ****     pstUnusedMux                = LOS_DL_LIST_FIRST(&(g_stUnusedMuxList));
 121:C:/Users/lenovo/Desktop/liteos/Project2/BearPi_LiteOS/kernel/base/ipc\los_mux.c ****     LOS_ListDelete(pstUnusedMux);
 122:C:/Users/lenovo/Desktop/liteos/Project2/BearPi_LiteOS/kernel/base/ipc\los_mux.c ****     pstMuxCreated               = (GET_MUX_LIST(pstUnusedMux)); /*lint !e413*/
 123:C:/Users/lenovo/Desktop/liteos/Project2/BearPi_LiteOS/kernel/base/ipc\los_mux.c ****     pstMuxCreated->usMuxCount   = 0;
 186              		.loc 1 123 0
 187 0020 0024     		movs	r4, #0
 188 0022 23F8064C 		strh	r4, [r3, #-6]	@ movhi
 124:C:/Users/lenovo/Desktop/liteos/Project2/BearPi_LiteOS/kernel/base/ipc\los_mux.c ****     pstMuxCreated->ucMuxStat    = OS_MUX_USED;
 189              		.loc 1 124 0
 190 0026 0122     		movs	r2, #1
 191 0028 03F8082C 		strb	r2, [r3, #-8]
 125:C:/Users/lenovo/Desktop/liteos/Project2/BearPi_LiteOS/kernel/base/ipc\los_mux.c ****     pstMuxCreated->usPriority   = 0;
 192              		.loc 1 125 0
 193 002c 9C81     		strh	r4, [r3, #12]	@ movhi
 126:C:/Users/lenovo/Desktop/liteos/Project2/BearPi_LiteOS/kernel/base/ipc\los_mux.c ****     pstMuxCreated->pstOwner     = (LOS_TASK_CB *)NULL;
 194              		.loc 1 126 0
 195 002e 9C60     		str	r4, [r3, #8]
 196              	.LVL16:
 197              	.LBB32:
 198              	.LBB33:
  82:C:/Users/lenovo/Desktop/liteos/Project2/BearPi_LiteOS/kernel/include\los_list.h ****     pstList->pstPrev = pstList;
 199              		.loc 2 82 0
 200 0030 5B60     		str	r3, [r3, #4]
  83:C:/Users/lenovo/Desktop/liteos/Project2/BearPi_LiteOS/kernel/include\los_list.h **** }
 201              		.loc 2 83 0
 202 0032 1B60     		str	r3, [r3]
 203              	.LVL17:
 204              	.LBE33:
 205              	.LBE32:
 127:C:/Users/lenovo/Desktop/liteos/Project2/BearPi_LiteOS/kernel/base/ipc\los_mux.c ****     LOS_ListInit(&pstMuxCreated->stMuxList);
 128:C:/Users/lenovo/Desktop/liteos/Project2/BearPi_LiteOS/kernel/base/ipc\los_mux.c ****     *puwMuxHandle               = (UINT32)pstMuxCreated->ucMuxID;
 206              		.loc 1 128 0
 207 0034 53F8043C 		ldr	r3, [r3, #-4]
 208              	.LVL18:
 209 0038 2B60     		str	r3, [r5]
 129:C:/Users/lenovo/Desktop/liteos/Project2/BearPi_LiteOS/kernel/base/ipc\los_mux.c ****     LOS_IntRestore(uwIntSave);
 210              		.loc 1 129 0
 211 003a FFF7FEFF 		bl	LOS_IntRestore
 212              	.LVL19:
 130:C:/Users/lenovo/Desktop/liteos/Project2/BearPi_LiteOS/kernel/base/ipc\los_mux.c ****     return LOS_OK;
 213              		.loc 1 130 0
 214 003e 2046     		mov	r0, r4
 215              	.L9:
 131:C:/Users/lenovo/Desktop/liteos/Project2/BearPi_LiteOS/kernel/base/ipc\los_mux.c **** ErrHandler:
ARM GAS  c:\Users\lenovo\AppData\Local\Temp\ccAXpOqP.s 			page 11


 132:C:/Users/lenovo/Desktop/liteos/Project2/BearPi_LiteOS/kernel/base/ipc\los_mux.c ****     OS_RETURN_ERROR_P2(uwErrLine, uwErrNo);
 133:C:/Users/lenovo/Desktop/liteos/Project2/BearPi_LiteOS/kernel/base/ipc\los_mux.c **** }
 216              		.loc 1 133 0
 217 0040 03B0     		add	sp, sp, #12
 218              	.LCFI3:
 219              		.cfi_remember_state
 220              		.cfi_def_cfa_offset 12
 221              		@ sp needed
 222 0042 30BD     		pop	{r4, r5, pc}
 223              	.LVL20:
 224              	.L17:
 225              	.LCFI4:
 226              		.cfi_restore_state
 116:C:/Users/lenovo/Desktop/liteos/Project2/BearPi_LiteOS/kernel/base/ipc\los_mux.c ****         OS_GOTO_ERR_HANDLER(LOS_ERRNO_MUX_ALL_BUSY);
 227              		.loc 1 116 0
 228 0044 FFF7FEFF 		bl	LOS_IntRestore
 229              	.LVL21:
 230              	.LDL1:
 132:C:/Users/lenovo/Desktop/liteos/Project2/BearPi_LiteOS/kernel/base/ipc\los_mux.c **** }
 231              		.loc 1 132 0
 232 0048 064C     		ldr	r4, .L18+4
 233 004a 0023     		movs	r3, #0
 234 004c 0093     		str	r3, [sp]
 235 004e 2246     		mov	r2, r4
 236 0050 0549     		ldr	r1, .L18+8
 237 0052 0648     		ldr	r0, .L18+12
 238 0054 FFF7FEFF 		bl	LOS_ErrHandle
 239              	.LVL22:
 240 0058 2046     		mov	r0, r4
 241 005a F1E7     		b	.L9
 242              	.LVL23:
 243              	.L12:
 244              	.LCFI5:
 245              		.cfi_def_cfa_offset 0
 246              		.cfi_restore 4
 247              		.cfi_restore 5
 248              		.cfi_restore 14
 110:C:/Users/lenovo/Desktop/liteos/Project2/BearPi_LiteOS/kernel/base/ipc\los_mux.c ****     }
 249              		.loc 1 110 0
 250 005c 0448     		ldr	r0, .L18+16
 251              	.LVL24:
 252              		.loc 1 133 0
 253 005e 7047     		bx	lr
 254              	.L19:
 255              		.align	2
 256              	.L18:
 257 0060 00000000 		.word	g_stUnusedMuxList
 258 0064 031D0002 		.word	33561859
 259 0068 F8C3B2A1 		.word	-1582119944
 260 006c 00000000 		.word	.LC0
 261 0070 021D0002 		.word	33561858
 262              		.cfi_endproc
 263              	.LFE134:
 265              		.section	.text.LOS_MuxDelete,"ax",%progbits
 266              		.align	1
 267              		.global	LOS_MuxDelete
 268              		.syntax unified
ARM GAS  c:\Users\lenovo\AppData\Local\Temp\ccAXpOqP.s 			page 12


 269              		.thumb
 270              		.thumb_func
 271              		.fpu fpv4-sp-d16
 273              	LOS_MuxDelete:
 274              	.LFB135:
 134:C:/Users/lenovo/Desktop/liteos/Project2/BearPi_LiteOS/kernel/base/ipc\los_mux.c **** 
 135:C:/Users/lenovo/Desktop/liteos/Project2/BearPi_LiteOS/kernel/base/ipc\los_mux.c **** /*****************************************************************************
 136:C:/Users/lenovo/Desktop/liteos/Project2/BearPi_LiteOS/kernel/base/ipc\los_mux.c ****  Function     : LOS_MuxDelete
 137:C:/Users/lenovo/Desktop/liteos/Project2/BearPi_LiteOS/kernel/base/ipc\los_mux.c ****  Description  : Delete a mutex,
 138:C:/Users/lenovo/Desktop/liteos/Project2/BearPi_LiteOS/kernel/base/ipc\los_mux.c ****  Input        : uwMuxHandle------Mutex operation handle
 139:C:/Users/lenovo/Desktop/liteos/Project2/BearPi_LiteOS/kernel/base/ipc\los_mux.c ****  Output       : None
 140:C:/Users/lenovo/Desktop/liteos/Project2/BearPi_LiteOS/kernel/base/ipc\los_mux.c ****  Return       : LOS_OK on success ,or error code on failure
 141:C:/Users/lenovo/Desktop/liteos/Project2/BearPi_LiteOS/kernel/base/ipc\los_mux.c ****  *****************************************************************************/
 142:C:/Users/lenovo/Desktop/liteos/Project2/BearPi_LiteOS/kernel/base/ipc\los_mux.c **** LITE_OS_SEC_TEXT_INIT UINT32 LOS_MuxDelete(UINT32 uwMuxHandle)
 143:C:/Users/lenovo/Desktop/liteos/Project2/BearPi_LiteOS/kernel/base/ipc\los_mux.c **** {
 275              		.loc 1 143 0
 276              		.cfi_startproc
 277              		@ args = 0, pretend = 0, frame = 0
 278              		@ frame_needed = 0, uses_anonymous_args = 0
 279              	.LVL25:
 280 0000 70B5     		push	{r4, r5, r6, lr}
 281              	.LCFI6:
 282              		.cfi_def_cfa_offset 16
 283              		.cfi_offset 4, -16
 284              		.cfi_offset 5, -12
 285              		.cfi_offset 6, -8
 286              		.cfi_offset 14, -4
 287 0002 82B0     		sub	sp, sp, #8
 288              	.LCFI7:
 289              		.cfi_def_cfa_offset 24
 144:C:/Users/lenovo/Desktop/liteos/Project2/BearPi_LiteOS/kernel/base/ipc\los_mux.c ****     UINT32    uwIntSave;
 145:C:/Users/lenovo/Desktop/liteos/Project2/BearPi_LiteOS/kernel/base/ipc\los_mux.c ****     MUX_CB_S *pstMuxDeleted;
 146:C:/Users/lenovo/Desktop/liteos/Project2/BearPi_LiteOS/kernel/base/ipc\los_mux.c ****     UINT32   uwErrNo;
 147:C:/Users/lenovo/Desktop/liteos/Project2/BearPi_LiteOS/kernel/base/ipc\los_mux.c ****     UINT32   uwErrLine;
 148:C:/Users/lenovo/Desktop/liteos/Project2/BearPi_LiteOS/kernel/base/ipc\los_mux.c **** 
 149:C:/Users/lenovo/Desktop/liteos/Project2/BearPi_LiteOS/kernel/base/ipc\los_mux.c ****     if (uwMuxHandle >= (UINT32)LOSCFG_BASE_IPC_MUX_LIMIT)
 290              		.loc 1 149 0
 291 0004 1328     		cmp	r0, #19
 292 0006 24D8     		bhi	.L26
 150:C:/Users/lenovo/Desktop/liteos/Project2/BearPi_LiteOS/kernel/base/ipc\los_mux.c ****     {
 151:C:/Users/lenovo/Desktop/liteos/Project2/BearPi_LiteOS/kernel/base/ipc\los_mux.c ****         OS_GOTO_ERR_HANDLER(LOS_ERRNO_MUX_INVALID);
 152:C:/Users/lenovo/Desktop/liteos/Project2/BearPi_LiteOS/kernel/base/ipc\los_mux.c ****     }
 153:C:/Users/lenovo/Desktop/liteos/Project2/BearPi_LiteOS/kernel/base/ipc\los_mux.c **** 
 154:C:/Users/lenovo/Desktop/liteos/Project2/BearPi_LiteOS/kernel/base/ipc\los_mux.c ****     pstMuxDeleted = GET_MUX(uwMuxHandle);
 293              		.loc 1 154 0
 294 0008 174B     		ldr	r3, .L30
 295 000a 1E68     		ldr	r6, [r3]
 296 000c 00EB4000 		add	r0, r0, r0, lsl #1
 297              	.LVL26:
 298 0010 C500     		lsls	r5, r0, #3
 299 0012 7419     		adds	r4, r6, r5
 300              	.LVL27:
 155:C:/Users/lenovo/Desktop/liteos/Project2/BearPi_LiteOS/kernel/base/ipc\los_mux.c ****     uwIntSave = LOS_IntLock();
 301              		.loc 1 155 0
 302 0014 FFF7FEFF 		bl	LOS_IntLock
 303              	.LVL28:
 156:C:/Users/lenovo/Desktop/liteos/Project2/BearPi_LiteOS/kernel/base/ipc\los_mux.c ****     if (OS_MUX_UNUSED == pstMuxDeleted->ucMuxStat)
ARM GAS  c:\Users\lenovo\AppData\Local\Temp\ccAXpOqP.s 			page 13


 304              		.loc 1 156 0
 305 0018 735D     		ldrb	r3, [r6, r5]	@ zero_extendqisi2
 306 001a 43B1     		cbz	r3, .L28
 157:C:/Users/lenovo/Desktop/liteos/Project2/BearPi_LiteOS/kernel/base/ipc\los_mux.c ****     {
 158:C:/Users/lenovo/Desktop/liteos/Project2/BearPi_LiteOS/kernel/base/ipc\los_mux.c ****         LOS_IntRestore(uwIntSave);
 159:C:/Users/lenovo/Desktop/liteos/Project2/BearPi_LiteOS/kernel/base/ipc\los_mux.c ****         OS_GOTO_ERR_HANDLER(LOS_ERRNO_MUX_INVALID);
 160:C:/Users/lenovo/Desktop/liteos/Project2/BearPi_LiteOS/kernel/base/ipc\los_mux.c ****     }
 161:C:/Users/lenovo/Desktop/liteos/Project2/BearPi_LiteOS/kernel/base/ipc\los_mux.c **** 
 162:C:/Users/lenovo/Desktop/liteos/Project2/BearPi_LiteOS/kernel/base/ipc\los_mux.c ****     if (!LOS_ListEmpty(&pstMuxDeleted->stMuxList) || pstMuxDeleted->usMuxCount)
 307              		.loc 1 162 0
 308 001c 04F10803 		add	r3, r4, #8
 309              	.LVL29:
 310              	.LBB34:
 311              	.LBB35:
 312              		.loc 2 215 0
 313 0020 E268     		ldr	r2, [r4, #12]
 314              	.LVL30:
 315              	.LBE35:
 316              	.LBE34:
 317              		.loc 1 162 0
 318 0022 9342     		cmp	r3, r2
 319 0024 07D0     		beq	.L29
 320              	.L23:
 163:C:/Users/lenovo/Desktop/liteos/Project2/BearPi_LiteOS/kernel/base/ipc\los_mux.c ****     {
 164:C:/Users/lenovo/Desktop/liteos/Project2/BearPi_LiteOS/kernel/base/ipc\los_mux.c ****         LOS_IntRestore(uwIntSave);
 321              		.loc 1 164 0
 322 0026 FFF7FEFF 		bl	LOS_IntRestore
 323              	.LVL31:
 165:C:/Users/lenovo/Desktop/liteos/Project2/BearPi_LiteOS/kernel/base/ipc\los_mux.c ****         OS_GOTO_ERR_HANDLER(LOS_ERRNO_MUX_PENDED);
 324              		.loc 1 165 0
 325 002a 104C     		ldr	r4, .L30+4
 326              	.LVL32:
 327 002c 12E0     		b	.L21
 328              	.LVL33:
 329              	.L28:
 158:C:/Users/lenovo/Desktop/liteos/Project2/BearPi_LiteOS/kernel/base/ipc\los_mux.c ****         OS_GOTO_ERR_HANDLER(LOS_ERRNO_MUX_INVALID);
 330              		.loc 1 158 0
 331 002e FFF7FEFF 		bl	LOS_IntRestore
 332              	.LVL34:
 159:C:/Users/lenovo/Desktop/liteos/Project2/BearPi_LiteOS/kernel/base/ipc\los_mux.c ****     }
 333              		.loc 1 159 0
 334 0032 0F4C     		ldr	r4, .L30+8
 335              	.LVL35:
 336 0034 0EE0     		b	.L21
 337              	.LVL36:
 338              	.L29:
 162:C:/Users/lenovo/Desktop/liteos/Project2/BearPi_LiteOS/kernel/base/ipc\los_mux.c ****     {
 339              		.loc 1 162 0 discriminator 1
 340 0036 6288     		ldrh	r2, [r4, #2]
 341 0038 002A     		cmp	r2, #0
 342 003a F4D1     		bne	.L23
 343              	.LVL37:
 344              	.LBB36:
 345              	.LBB37:
 131:C:/Users/lenovo/Desktop/liteos/Project2/BearPi_LiteOS/kernel/include\los_list.h ****     pstNode->pstPrev = pstList;
 346              		.loc 2 131 0
 347 003c 0D4A     		ldr	r2, .L30+12
ARM GAS  c:\Users\lenovo\AppData\Local\Temp\ccAXpOqP.s 			page 14


 348 003e 5168     		ldr	r1, [r2, #4]
 349 0040 E160     		str	r1, [r4, #12]
 132:C:/Users/lenovo/Desktop/liteos/Project2/BearPi_LiteOS/kernel/include\los_list.h ****     pstList->pstNext->pstPrev = pstNode;
 350              		.loc 2 132 0
 351 0042 A260     		str	r2, [r4, #8]
 133:C:/Users/lenovo/Desktop/liteos/Project2/BearPi_LiteOS/kernel/include\los_list.h ****     pstList->pstNext = pstNode;
 352              		.loc 2 133 0
 353 0044 0B60     		str	r3, [r1]
 134:C:/Users/lenovo/Desktop/liteos/Project2/BearPi_LiteOS/kernel/include\los_list.h **** }
 354              		.loc 2 134 0
 355 0046 5360     		str	r3, [r2, #4]
 356              	.LVL38:
 357              	.LBE37:
 358              	.LBE36:
 166:C:/Users/lenovo/Desktop/liteos/Project2/BearPi_LiteOS/kernel/base/ipc\los_mux.c ****     }
 167:C:/Users/lenovo/Desktop/liteos/Project2/BearPi_LiteOS/kernel/base/ipc\los_mux.c **** 
 168:C:/Users/lenovo/Desktop/liteos/Project2/BearPi_LiteOS/kernel/base/ipc\los_mux.c ****     LOS_ListAdd(&g_stUnusedMuxList, &pstMuxDeleted->stMuxList);
 169:C:/Users/lenovo/Desktop/liteos/Project2/BearPi_LiteOS/kernel/base/ipc\los_mux.c ****     pstMuxDeleted->ucMuxStat = OS_MUX_UNUSED;
 359              		.loc 1 169 0
 360 0048 0024     		movs	r4, #0
 361              	.LVL39:
 362 004a 7455     		strb	r4, [r6, r5]
 170:C:/Users/lenovo/Desktop/liteos/Project2/BearPi_LiteOS/kernel/base/ipc\los_mux.c **** 
 171:C:/Users/lenovo/Desktop/liteos/Project2/BearPi_LiteOS/kernel/base/ipc\los_mux.c ****     LOS_IntRestore(uwIntSave);
 363              		.loc 1 171 0
 364 004c FFF7FEFF 		bl	LOS_IntRestore
 365              	.LVL40:
 172:C:/Users/lenovo/Desktop/liteos/Project2/BearPi_LiteOS/kernel/base/ipc\los_mux.c **** 
 173:C:/Users/lenovo/Desktop/liteos/Project2/BearPi_LiteOS/kernel/base/ipc\los_mux.c ****     return LOS_OK;
 366              		.loc 1 173 0
 367 0050 07E0     		b	.L20
 368              	.LVL41:
 369              	.L26:
 151:C:/Users/lenovo/Desktop/liteos/Project2/BearPi_LiteOS/kernel/base/ipc\los_mux.c ****     }
 370              		.loc 1 151 0
 371 0052 074C     		ldr	r4, .L30+8
 372              	.LVL42:
 373              	.L21:
 174:C:/Users/lenovo/Desktop/liteos/Project2/BearPi_LiteOS/kernel/base/ipc\los_mux.c **** ErrHandler:
 175:C:/Users/lenovo/Desktop/liteos/Project2/BearPi_LiteOS/kernel/base/ipc\los_mux.c ****     OS_RETURN_ERROR_P2(uwErrLine, uwErrNo);
 374              		.loc 1 175 0
 375 0054 0023     		movs	r3, #0
 376 0056 0093     		str	r3, [sp]
 377 0058 2246     		mov	r2, r4
 378 005a 0749     		ldr	r1, .L30+16
 379 005c 0748     		ldr	r0, .L30+20
 380 005e FFF7FEFF 		bl	LOS_ErrHandle
 381              	.LVL43:
 382              	.L20:
 176:C:/Users/lenovo/Desktop/liteos/Project2/BearPi_LiteOS/kernel/base/ipc\los_mux.c **** }
 383              		.loc 1 176 0
 384 0062 2046     		mov	r0, r4
 385 0064 02B0     		add	sp, sp, #8
 386              	.LCFI8:
 387              		.cfi_def_cfa_offset 16
 388              		@ sp needed
 389 0066 70BD     		pop	{r4, r5, r6, pc}
ARM GAS  c:\Users\lenovo\AppData\Local\Temp\ccAXpOqP.s 			page 15


 390              	.L31:
 391              		.align	2
 392              	.L30:
 393 0068 00000000 		.word	g_pstAllMux
 394 006c 091D0002 		.word	33561865
 395 0070 011D0002 		.word	33561857
 396 0074 00000000 		.word	g_stUnusedMuxList
 397 0078 F8C3B2A1 		.word	-1582119944
 398 007c 00000000 		.word	.LC0
 399              		.cfi_endproc
 400              	.LFE135:
 402              		.section	.text.LOS_MuxPend,"ax",%progbits
 403              		.align	1
 404              		.global	LOS_MuxPend
 405              		.syntax unified
 406              		.thumb
 407              		.thumb_func
 408              		.fpu fpv4-sp-d16
 410              	LOS_MuxPend:
 411              	.LFB136:
 177:C:/Users/lenovo/Desktop/liteos/Project2/BearPi_LiteOS/kernel/base/ipc\los_mux.c **** 
 178:C:/Users/lenovo/Desktop/liteos/Project2/BearPi_LiteOS/kernel/base/ipc\los_mux.c **** /*****************************************************************************
 179:C:/Users/lenovo/Desktop/liteos/Project2/BearPi_LiteOS/kernel/base/ipc\los_mux.c ****  Function     : LOS_MuxPend
 180:C:/Users/lenovo/Desktop/liteos/Project2/BearPi_LiteOS/kernel/base/ipc\los_mux.c ****  Description  : Specify the mutex P operation,
 181:C:/Users/lenovo/Desktop/liteos/Project2/BearPi_LiteOS/kernel/base/ipc\los_mux.c ****  Input        : uwMuxHandle ------ Mutex operation handleone,
 182:C:/Users/lenovo/Desktop/liteos/Project2/BearPi_LiteOS/kernel/base/ipc\los_mux.c ****  		       uwTimeOut  ------- waiting time,
 183:C:/Users/lenovo/Desktop/liteos/Project2/BearPi_LiteOS/kernel/base/ipc\los_mux.c ****  Output       : None
 184:C:/Users/lenovo/Desktop/liteos/Project2/BearPi_LiteOS/kernel/base/ipc\los_mux.c ****  Return       : LOS_OK on success ,or error code on failure
 185:C:/Users/lenovo/Desktop/liteos/Project2/BearPi_LiteOS/kernel/base/ipc\los_mux.c ****  *****************************************************************************/
 186:C:/Users/lenovo/Desktop/liteos/Project2/BearPi_LiteOS/kernel/base/ipc\los_mux.c **** LITE_OS_SEC_TEXT UINT32 LOS_MuxPend(UINT32 uwMuxHandle, UINT32 uwTimeout)
 187:C:/Users/lenovo/Desktop/liteos/Project2/BearPi_LiteOS/kernel/base/ipc\los_mux.c **** {
 412              		.loc 1 187 0
 413              		.cfi_startproc
 414              		@ args = 0, pretend = 0, frame = 0
 415              		@ frame_needed = 0, uses_anonymous_args = 0
 416              	.LVL44:
 417 0000 2DE9F041 		push	{r4, r5, r6, r7, r8, lr}
 418              	.LCFI9:
 419              		.cfi_def_cfa_offset 24
 420              		.cfi_offset 4, -24
 421              		.cfi_offset 5, -20
 422              		.cfi_offset 6, -16
 423              		.cfi_offset 7, -12
 424              		.cfi_offset 8, -8
 425              		.cfi_offset 14, -4
 426 0004 82B0     		sub	sp, sp, #8
 427              	.LCFI10:
 428              		.cfi_def_cfa_offset 32
 188:C:/Users/lenovo/Desktop/liteos/Project2/BearPi_LiteOS/kernel/base/ipc\los_mux.c ****     UINT32     uwIntSave;
 189:C:/Users/lenovo/Desktop/liteos/Project2/BearPi_LiteOS/kernel/base/ipc\los_mux.c ****     MUX_CB_S  *pstMuxPended;
 190:C:/Users/lenovo/Desktop/liteos/Project2/BearPi_LiteOS/kernel/base/ipc\los_mux.c ****     UINT32     uwRetErr;
 191:C:/Users/lenovo/Desktop/liteos/Project2/BearPi_LiteOS/kernel/base/ipc\los_mux.c ****     LOS_TASK_CB  *pstRunTsk;
 192:C:/Users/lenovo/Desktop/liteos/Project2/BearPi_LiteOS/kernel/base/ipc\los_mux.c **** 
 193:C:/Users/lenovo/Desktop/liteos/Project2/BearPi_LiteOS/kernel/base/ipc\los_mux.c ****     if (uwMuxHandle >= (UINT32)LOSCFG_BASE_IPC_MUX_LIMIT)
 429              		.loc 1 193 0
 430 0006 1328     		cmp	r0, #19
 431 0008 3DD8     		bhi	.L44
ARM GAS  c:\Users\lenovo\AppData\Local\Temp\ccAXpOqP.s 			page 16


 432 000a 0F46     		mov	r7, r1
 194:C:/Users/lenovo/Desktop/liteos/Project2/BearPi_LiteOS/kernel/base/ipc\los_mux.c ****     {
 195:C:/Users/lenovo/Desktop/liteos/Project2/BearPi_LiteOS/kernel/base/ipc\los_mux.c ****         OS_RETURN_ERROR(LOS_ERRNO_MUX_INVALID);
 196:C:/Users/lenovo/Desktop/liteos/Project2/BearPi_LiteOS/kernel/base/ipc\los_mux.c ****     }
 197:C:/Users/lenovo/Desktop/liteos/Project2/BearPi_LiteOS/kernel/base/ipc\los_mux.c **** 
 198:C:/Users/lenovo/Desktop/liteos/Project2/BearPi_LiteOS/kernel/base/ipc\los_mux.c ****     pstMuxPended = GET_MUX(uwMuxHandle);
 433              		.loc 1 198 0
 434 000c 404B     		ldr	r3, .L52
 435 000e 1E68     		ldr	r6, [r3]
 436 0010 00EB4000 		add	r0, r0, r0, lsl #1
 437              	.LVL45:
 438 0014 C400     		lsls	r4, r0, #3
 439 0016 3519     		adds	r5, r6, r4
 440              	.LVL46:
 199:C:/Users/lenovo/Desktop/liteos/Project2/BearPi_LiteOS/kernel/base/ipc\los_mux.c ****     uwIntSave = LOS_IntLock();
 441              		.loc 1 199 0
 442 0018 FFF7FEFF 		bl	LOS_IntLock
 443              	.LVL47:
 444 001c 8046     		mov	r8, r0
 445              	.LVL48:
 200:C:/Users/lenovo/Desktop/liteos/Project2/BearPi_LiteOS/kernel/base/ipc\los_mux.c ****     if (OS_MUX_UNUSED == pstMuxPended->ucMuxStat)
 446              		.loc 1 200 0
 447 001e 335D     		ldrb	r3, [r6, r4]	@ zero_extendqisi2
 448 0020 002B     		cmp	r3, #0
 449 0022 3CD0     		beq	.L45
 201:C:/Users/lenovo/Desktop/liteos/Project2/BearPi_LiteOS/kernel/base/ipc\los_mux.c ****     {
 202:C:/Users/lenovo/Desktop/liteos/Project2/BearPi_LiteOS/kernel/base/ipc\los_mux.c ****         LOS_IntRestore(uwIntSave);
 203:C:/Users/lenovo/Desktop/liteos/Project2/BearPi_LiteOS/kernel/base/ipc\los_mux.c ****         OS_RETURN_ERROR(LOS_ERRNO_MUX_INVALID);
 204:C:/Users/lenovo/Desktop/liteos/Project2/BearPi_LiteOS/kernel/base/ipc\los_mux.c ****     }
 205:C:/Users/lenovo/Desktop/liteos/Project2/BearPi_LiteOS/kernel/base/ipc\los_mux.c **** 
 206:C:/Users/lenovo/Desktop/liteos/Project2/BearPi_LiteOS/kernel/base/ipc\los_mux.c ****     if (OS_INT_ACTIVE)
 450              		.loc 1 206 0
 451 0024 FFF7FEFF 		bl	osIntNumGet
 452              	.LVL49:
 453 0028 0446     		mov	r4, r0
 454 002a 0028     		cmp	r0, #0
 455 002c 42D1     		bne	.L46
 207:C:/Users/lenovo/Desktop/liteos/Project2/BearPi_LiteOS/kernel/base/ipc\los_mux.c ****     {
 208:C:/Users/lenovo/Desktop/liteos/Project2/BearPi_LiteOS/kernel/base/ipc\los_mux.c ****         LOS_IntRestore(uwIntSave);
 209:C:/Users/lenovo/Desktop/liteos/Project2/BearPi_LiteOS/kernel/base/ipc\los_mux.c ****         return LOS_ERRNO_MUX_PEND_INTERR;
 210:C:/Users/lenovo/Desktop/liteos/Project2/BearPi_LiteOS/kernel/base/ipc\los_mux.c ****     }
 211:C:/Users/lenovo/Desktop/liteos/Project2/BearPi_LiteOS/kernel/base/ipc\los_mux.c **** 
 212:C:/Users/lenovo/Desktop/liteos/Project2/BearPi_LiteOS/kernel/base/ipc\los_mux.c ****     pstRunTsk = (LOS_TASK_CB *)g_stLosTask.pstRunTask;
 456              		.loc 1 212 0
 457 002e 394B     		ldr	r3, .L52+4
 458 0030 1E68     		ldr	r6, [r3]
 459              	.LVL50:
 213:C:/Users/lenovo/Desktop/liteos/Project2/BearPi_LiteOS/kernel/base/ipc\los_mux.c ****     if (pstMuxPended->usMuxCount == 0)
 460              		.loc 1 213 0
 461 0032 6B88     		ldrh	r3, [r5, #2]
 462 0034 002B     		cmp	r3, #0
 463 0036 42D0     		beq	.L47
 214:C:/Users/lenovo/Desktop/liteos/Project2/BearPi_LiteOS/kernel/base/ipc\los_mux.c ****     {
 215:C:/Users/lenovo/Desktop/liteos/Project2/BearPi_LiteOS/kernel/base/ipc\los_mux.c ****         pstMuxPended->usMuxCount++;
 216:C:/Users/lenovo/Desktop/liteos/Project2/BearPi_LiteOS/kernel/base/ipc\los_mux.c ****         pstMuxPended->pstOwner = pstRunTsk;
 217:C:/Users/lenovo/Desktop/liteos/Project2/BearPi_LiteOS/kernel/base/ipc\los_mux.c ****         pstMuxPended->usPriority = pstRunTsk->usPriority;
 218:C:/Users/lenovo/Desktop/liteos/Project2/BearPi_LiteOS/kernel/base/ipc\los_mux.c ****         LOS_IntRestore(uwIntSave);
ARM GAS  c:\Users\lenovo\AppData\Local\Temp\ccAXpOqP.s 			page 17


 219:C:/Users/lenovo/Desktop/liteos/Project2/BearPi_LiteOS/kernel/base/ipc\los_mux.c ****         return LOS_OK;
 220:C:/Users/lenovo/Desktop/liteos/Project2/BearPi_LiteOS/kernel/base/ipc\los_mux.c ****     }
 221:C:/Users/lenovo/Desktop/liteos/Project2/BearPi_LiteOS/kernel/base/ipc\los_mux.c **** 
 222:C:/Users/lenovo/Desktop/liteos/Project2/BearPi_LiteOS/kernel/base/ipc\los_mux.c ****     if (pstMuxPended->pstOwner == pstRunTsk)
 464              		.loc 1 222 0
 465 0038 2A69     		ldr	r2, [r5, #16]
 466 003a B242     		cmp	r2, r6
 467 003c 48D0     		beq	.L48
 223:C:/Users/lenovo/Desktop/liteos/Project2/BearPi_LiteOS/kernel/base/ipc\los_mux.c ****     {
 224:C:/Users/lenovo/Desktop/liteos/Project2/BearPi_LiteOS/kernel/base/ipc\los_mux.c ****         pstMuxPended->usMuxCount++;
 225:C:/Users/lenovo/Desktop/liteos/Project2/BearPi_LiteOS/kernel/base/ipc\los_mux.c ****         LOS_IntRestore(uwIntSave);
 226:C:/Users/lenovo/Desktop/liteos/Project2/BearPi_LiteOS/kernel/base/ipc\los_mux.c ****         return LOS_OK;
 227:C:/Users/lenovo/Desktop/liteos/Project2/BearPi_LiteOS/kernel/base/ipc\los_mux.c ****     }
 228:C:/Users/lenovo/Desktop/liteos/Project2/BearPi_LiteOS/kernel/base/ipc\los_mux.c **** 
 229:C:/Users/lenovo/Desktop/liteos/Project2/BearPi_LiteOS/kernel/base/ipc\los_mux.c ****     if (!uwTimeout)
 468              		.loc 1 229 0
 469 003e 002F     		cmp	r7, #0
 470 0040 4CD0     		beq	.L49
 230:C:/Users/lenovo/Desktop/liteos/Project2/BearPi_LiteOS/kernel/base/ipc\los_mux.c ****     {
 231:C:/Users/lenovo/Desktop/liteos/Project2/BearPi_LiteOS/kernel/base/ipc\los_mux.c ****         LOS_IntRestore(uwIntSave);
 232:C:/Users/lenovo/Desktop/liteos/Project2/BearPi_LiteOS/kernel/base/ipc\los_mux.c ****         return LOS_ERRNO_MUX_UNAVAILABLE;
 233:C:/Users/lenovo/Desktop/liteos/Project2/BearPi_LiteOS/kernel/base/ipc\los_mux.c ****     }
 234:C:/Users/lenovo/Desktop/liteos/Project2/BearPi_LiteOS/kernel/base/ipc\los_mux.c **** 
 235:C:/Users/lenovo/Desktop/liteos/Project2/BearPi_LiteOS/kernel/base/ipc\los_mux.c ****     if (g_usLosTaskLock)
 471              		.loc 1 235 0
 472 0042 354B     		ldr	r3, .L52+8
 473 0044 1B88     		ldrh	r3, [r3]
 474 0046 002B     		cmp	r3, #0
 475 0048 4DD1     		bne	.L50
 236:C:/Users/lenovo/Desktop/liteos/Project2/BearPi_LiteOS/kernel/base/ipc\los_mux.c ****     {
 237:C:/Users/lenovo/Desktop/liteos/Project2/BearPi_LiteOS/kernel/base/ipc\los_mux.c ****         uwRetErr = LOS_ERRNO_MUX_PEND_IN_LOCK;
 238:C:/Users/lenovo/Desktop/liteos/Project2/BearPi_LiteOS/kernel/base/ipc\los_mux.c ****         PRINT_ERR("!!!LOS_ERRNO_MUX_PEND_IN_LOCK!!!\n");
 239:C:/Users/lenovo/Desktop/liteos/Project2/BearPi_LiteOS/kernel/base/ipc\los_mux.c **** #if (LOSCFG_PLATFORM_EXC == YES)
 240:C:/Users/lenovo/Desktop/liteos/Project2/BearPi_LiteOS/kernel/base/ipc\los_mux.c ****         osBackTrace();
 241:C:/Users/lenovo/Desktop/liteos/Project2/BearPi_LiteOS/kernel/base/ipc\los_mux.c **** #endif
 242:C:/Users/lenovo/Desktop/liteos/Project2/BearPi_LiteOS/kernel/base/ipc\los_mux.c ****         goto errre_uniMuxPend;
 243:C:/Users/lenovo/Desktop/liteos/Project2/BearPi_LiteOS/kernel/base/ipc\los_mux.c ****     }
 244:C:/Users/lenovo/Desktop/liteos/Project2/BearPi_LiteOS/kernel/base/ipc\los_mux.c **** 
 245:C:/Users/lenovo/Desktop/liteos/Project2/BearPi_LiteOS/kernel/base/ipc\los_mux.c ****     pstRunTsk->pTaskMux = (VOID *)pstMuxPended;
 476              		.loc 1 245 0
 477 004a F561     		str	r5, [r6, #28]
 246:C:/Users/lenovo/Desktop/liteos/Project2/BearPi_LiteOS/kernel/base/ipc\los_mux.c **** 
 247:C:/Users/lenovo/Desktop/liteos/Project2/BearPi_LiteOS/kernel/base/ipc\los_mux.c ****     if (pstMuxPended->pstOwner->usPriority > pstRunTsk->usPriority)
 478              		.loc 1 247 0
 479 004c 2869     		ldr	r0, [r5, #16]
 480 004e C388     		ldrh	r3, [r0, #6]
 481 0050 F188     		ldrh	r1, [r6, #6]
 482 0052 8B42     		cmp	r3, r1
 483 0054 59D8     		bhi	.L51
 484              	.L42:
 248:C:/Users/lenovo/Desktop/liteos/Project2/BearPi_LiteOS/kernel/base/ipc\los_mux.c ****     {
 249:C:/Users/lenovo/Desktop/liteos/Project2/BearPi_LiteOS/kernel/base/ipc\los_mux.c ****         osTaskPriModify(pstMuxPended->pstOwner, pstRunTsk->usPriority);
 250:C:/Users/lenovo/Desktop/liteos/Project2/BearPi_LiteOS/kernel/base/ipc\los_mux.c ****     }
 251:C:/Users/lenovo/Desktop/liteos/Project2/BearPi_LiteOS/kernel/base/ipc\los_mux.c **** 
 252:C:/Users/lenovo/Desktop/liteos/Project2/BearPi_LiteOS/kernel/base/ipc\los_mux.c ****     osTaskWait(&pstMuxPended->stMuxList, OS_TASK_STATUS_PEND, uwTimeout);
 485              		.loc 1 252 0
 486 0056 3A46     		mov	r2, r7
ARM GAS  c:\Users\lenovo\AppData\Local\Temp\ccAXpOqP.s 			page 18


 487 0058 0821     		movs	r1, #8
 488 005a 6818     		adds	r0, r5, r1
 489 005c FFF7FEFF 		bl	osTaskWait
 490              	.LVL51:
 253:C:/Users/lenovo/Desktop/liteos/Project2/BearPi_LiteOS/kernel/base/ipc\los_mux.c **** 
 254:C:/Users/lenovo/Desktop/liteos/Project2/BearPi_LiteOS/kernel/base/ipc\los_mux.c ****     (VOID)LOS_IntRestore(uwIntSave);
 491              		.loc 1 254 0
 492 0060 4046     		mov	r0, r8
 493 0062 FFF7FEFF 		bl	LOS_IntRestore
 494              	.LVL52:
 255:C:/Users/lenovo/Desktop/liteos/Project2/BearPi_LiteOS/kernel/base/ipc\los_mux.c ****     LOS_Schedule();
 495              		.loc 1 255 0
 496 0066 FFF7FEFF 		bl	LOS_Schedule
 497              	.LVL53:
 256:C:/Users/lenovo/Desktop/liteos/Project2/BearPi_LiteOS/kernel/base/ipc\los_mux.c **** 
 257:C:/Users/lenovo/Desktop/liteos/Project2/BearPi_LiteOS/kernel/base/ipc\los_mux.c ****     if (pstRunTsk->usTaskStatus & OS_TASK_STATUS_TIMEOUT)
 498              		.loc 1 257 0
 499 006a B388     		ldrh	r3, [r6, #4]
 500 006c 13F0400F 		tst	r3, #64
 501 0070 11D0     		beq	.L32
 258:C:/Users/lenovo/Desktop/liteos/Project2/BearPi_LiteOS/kernel/base/ipc\los_mux.c ****     {
 259:C:/Users/lenovo/Desktop/liteos/Project2/BearPi_LiteOS/kernel/base/ipc\los_mux.c ****         uwIntSave = LOS_IntLock();
 502              		.loc 1 259 0
 503 0072 FFF7FEFF 		bl	LOS_IntLock
 504              	.LVL54:
 260:C:/Users/lenovo/Desktop/liteos/Project2/BearPi_LiteOS/kernel/base/ipc\los_mux.c ****         pstRunTsk->usTaskStatus &= (~OS_TASK_STATUS_TIMEOUT);
 505              		.loc 1 260 0
 506 0076 B388     		ldrh	r3, [r6, #4]
 507 0078 23F04003 		bic	r3, r3, #64
 508 007c B380     		strh	r3, [r6, #4]	@ movhi
 261:C:/Users/lenovo/Desktop/liteos/Project2/BearPi_LiteOS/kernel/base/ipc\los_mux.c ****         (VOID)LOS_IntRestore(uwIntSave);
 509              		.loc 1 261 0
 510 007e FFF7FEFF 		bl	LOS_IntRestore
 511              	.LVL55:
 262:C:/Users/lenovo/Desktop/liteos/Project2/BearPi_LiteOS/kernel/base/ipc\los_mux.c ****         uwRetErr = LOS_ERRNO_MUX_TIMEOUT;
 512              		.loc 1 262 0
 513 0082 264C     		ldr	r4, .L52+12
 263:C:/Users/lenovo/Desktop/liteos/Project2/BearPi_LiteOS/kernel/base/ipc\los_mux.c ****         goto error_uniMuxPend;
 514              		.loc 1 263 0
 515 0084 39E0     		b	.L41
 516              	.LVL56:
 517              	.L44:
 195:C:/Users/lenovo/Desktop/liteos/Project2/BearPi_LiteOS/kernel/base/ipc\los_mux.c ****     }
 518              		.loc 1 195 0
 519 0086 264C     		ldr	r4, .L52+16
 520 0088 0023     		movs	r3, #0
 521 008a 0093     		str	r3, [sp]
 522 008c 2246     		mov	r2, r4
 523 008e 2549     		ldr	r1, .L52+20
 524              	.LVL57:
 525 0090 2548     		ldr	r0, .L52+24
 526              	.LVL58:
 527 0092 FFF7FEFF 		bl	LOS_ErrHandle
 528              	.LVL59:
 529              	.L32:
 264:C:/Users/lenovo/Desktop/liteos/Project2/BearPi_LiteOS/kernel/base/ipc\los_mux.c ****     }
 265:C:/Users/lenovo/Desktop/liteos/Project2/BearPi_LiteOS/kernel/base/ipc\los_mux.c **** 
ARM GAS  c:\Users\lenovo\AppData\Local\Temp\ccAXpOqP.s 			page 19


 266:C:/Users/lenovo/Desktop/liteos/Project2/BearPi_LiteOS/kernel/base/ipc\los_mux.c ****     return LOS_OK;
 267:C:/Users/lenovo/Desktop/liteos/Project2/BearPi_LiteOS/kernel/base/ipc\los_mux.c **** 
 268:C:/Users/lenovo/Desktop/liteos/Project2/BearPi_LiteOS/kernel/base/ipc\los_mux.c **** errre_uniMuxPend:
 269:C:/Users/lenovo/Desktop/liteos/Project2/BearPi_LiteOS/kernel/base/ipc\los_mux.c ****     (VOID)LOS_IntRestore(uwIntSave);
 270:C:/Users/lenovo/Desktop/liteos/Project2/BearPi_LiteOS/kernel/base/ipc\los_mux.c **** error_uniMuxPend:
 271:C:/Users/lenovo/Desktop/liteos/Project2/BearPi_LiteOS/kernel/base/ipc\los_mux.c ****     OS_RETURN_ERROR(uwRetErr);
 272:C:/Users/lenovo/Desktop/liteos/Project2/BearPi_LiteOS/kernel/base/ipc\los_mux.c **** }
 530              		.loc 1 272 0
 531 0096 2046     		mov	r0, r4
 532 0098 02B0     		add	sp, sp, #8
 533              	.LCFI11:
 534              		.cfi_remember_state
 535              		.cfi_def_cfa_offset 24
 536              		@ sp needed
 537 009a BDE8F081 		pop	{r4, r5, r6, r7, r8, pc}
 538              	.LVL60:
 539              	.L45:
 540              	.LCFI12:
 541              		.cfi_restore_state
 202:C:/Users/lenovo/Desktop/liteos/Project2/BearPi_LiteOS/kernel/base/ipc\los_mux.c ****         OS_RETURN_ERROR(LOS_ERRNO_MUX_INVALID);
 542              		.loc 1 202 0
 543 009e FFF7FEFF 		bl	LOS_IntRestore
 544              	.LVL61:
 203:C:/Users/lenovo/Desktop/liteos/Project2/BearPi_LiteOS/kernel/base/ipc\los_mux.c ****     }
 545              		.loc 1 203 0
 546 00a2 1F4C     		ldr	r4, .L52+16
 547 00a4 0023     		movs	r3, #0
 548 00a6 0093     		str	r3, [sp]
 549 00a8 2246     		mov	r2, r4
 550 00aa 1E49     		ldr	r1, .L52+20
 551 00ac 1E48     		ldr	r0, .L52+24
 552 00ae FFF7FEFF 		bl	LOS_ErrHandle
 553              	.LVL62:
 554 00b2 F0E7     		b	.L32
 555              	.L46:
 208:C:/Users/lenovo/Desktop/liteos/Project2/BearPi_LiteOS/kernel/base/ipc\los_mux.c ****         return LOS_ERRNO_MUX_PEND_INTERR;
 556              		.loc 1 208 0
 557 00b4 4046     		mov	r0, r8
 558 00b6 FFF7FEFF 		bl	LOS_IntRestore
 559              	.LVL63:
 209:C:/Users/lenovo/Desktop/liteos/Project2/BearPi_LiteOS/kernel/base/ipc\los_mux.c ****     }
 560              		.loc 1 209 0
 561 00ba 1C4C     		ldr	r4, .L52+28
 562 00bc EBE7     		b	.L32
 563              	.LVL64:
 564              	.L47:
 215:C:/Users/lenovo/Desktop/liteos/Project2/BearPi_LiteOS/kernel/base/ipc\los_mux.c ****         pstMuxPended->pstOwner = pstRunTsk;
 565              		.loc 1 215 0
 566 00be 0133     		adds	r3, r3, #1
 567 00c0 6B80     		strh	r3, [r5, #2]	@ movhi
 216:C:/Users/lenovo/Desktop/liteos/Project2/BearPi_LiteOS/kernel/base/ipc\los_mux.c ****         pstMuxPended->usPriority = pstRunTsk->usPriority;
 568              		.loc 1 216 0
 569 00c2 2E61     		str	r6, [r5, #16]
 217:C:/Users/lenovo/Desktop/liteos/Project2/BearPi_LiteOS/kernel/base/ipc\los_mux.c ****         LOS_IntRestore(uwIntSave);
 570              		.loc 1 217 0
 571 00c4 F388     		ldrh	r3, [r6, #6]
 572 00c6 AB82     		strh	r3, [r5, #20]	@ movhi
ARM GAS  c:\Users\lenovo\AppData\Local\Temp\ccAXpOqP.s 			page 20


 218:C:/Users/lenovo/Desktop/liteos/Project2/BearPi_LiteOS/kernel/base/ipc\los_mux.c ****         return LOS_OK;
 573              		.loc 1 218 0
 574 00c8 4046     		mov	r0, r8
 575 00ca FFF7FEFF 		bl	LOS_IntRestore
 576              	.LVL65:
 219:C:/Users/lenovo/Desktop/liteos/Project2/BearPi_LiteOS/kernel/base/ipc\los_mux.c ****     }
 577              		.loc 1 219 0
 578 00ce E2E7     		b	.L32
 579              	.L48:
 224:C:/Users/lenovo/Desktop/liteos/Project2/BearPi_LiteOS/kernel/base/ipc\los_mux.c ****         LOS_IntRestore(uwIntSave);
 580              		.loc 1 224 0
 581 00d0 0133     		adds	r3, r3, #1
 582 00d2 6B80     		strh	r3, [r5, #2]	@ movhi
 225:C:/Users/lenovo/Desktop/liteos/Project2/BearPi_LiteOS/kernel/base/ipc\los_mux.c ****         return LOS_OK;
 583              		.loc 1 225 0
 584 00d4 4046     		mov	r0, r8
 585 00d6 FFF7FEFF 		bl	LOS_IntRestore
 586              	.LVL66:
 226:C:/Users/lenovo/Desktop/liteos/Project2/BearPi_LiteOS/kernel/base/ipc\los_mux.c ****     }
 587              		.loc 1 226 0
 588 00da DCE7     		b	.L32
 589              	.L49:
 231:C:/Users/lenovo/Desktop/liteos/Project2/BearPi_LiteOS/kernel/base/ipc\los_mux.c ****         return LOS_ERRNO_MUX_UNAVAILABLE;
 590              		.loc 1 231 0
 591 00dc 4046     		mov	r0, r8
 592 00de FFF7FEFF 		bl	LOS_IntRestore
 593              	.LVL67:
 232:C:/Users/lenovo/Desktop/liteos/Project2/BearPi_LiteOS/kernel/base/ipc\los_mux.c ****     }
 594              		.loc 1 232 0
 595 00e2 134C     		ldr	r4, .L52+32
 596 00e4 D7E7     		b	.L32
 597              	.L50:
 598              	.LVL68:
 238:C:/Users/lenovo/Desktop/liteos/Project2/BearPi_LiteOS/kernel/base/ipc\los_mux.c **** #if (LOSCFG_PLATFORM_EXC == YES)
 599              		.loc 1 238 0
 600 00e6 1348     		ldr	r0, .L52+36
 601 00e8 FFF7FEFF 		bl	printf
 602              	.LVL69:
 603 00ec 1248     		ldr	r0, .L52+40
 604 00ee FFF7FEFF 		bl	puts
 605              	.LVL70:
 606              	.LDL2:
 269:C:/Users/lenovo/Desktop/liteos/Project2/BearPi_LiteOS/kernel/base/ipc\los_mux.c **** error_uniMuxPend:
 607              		.loc 1 269 0
 608 00f2 4046     		mov	r0, r8
 609 00f4 FFF7FEFF 		bl	LOS_IntRestore
 610              	.LVL71:
 237:C:/Users/lenovo/Desktop/liteos/Project2/BearPi_LiteOS/kernel/base/ipc\los_mux.c ****         PRINT_ERR("!!!LOS_ERRNO_MUX_PEND_IN_LOCK!!!\n");
 611              		.loc 1 237 0
 612 00f8 104C     		ldr	r4, .L52+44
 613              	.LVL72:
 614              	.L41:
 271:C:/Users/lenovo/Desktop/liteos/Project2/BearPi_LiteOS/kernel/base/ipc\los_mux.c **** }
 615              		.loc 1 271 0
 616 00fa 0023     		movs	r3, #0
 617 00fc 0093     		str	r3, [sp]
 618 00fe 2246     		mov	r2, r4
ARM GAS  c:\Users\lenovo\AppData\Local\Temp\ccAXpOqP.s 			page 21


 619 0100 0849     		ldr	r1, .L52+20
 620 0102 0948     		ldr	r0, .L52+24
 621 0104 FFF7FEFF 		bl	LOS_ErrHandle
 622              	.LVL73:
 623 0108 C5E7     		b	.L32
 624              	.LVL74:
 625              	.L51:
 249:C:/Users/lenovo/Desktop/liteos/Project2/BearPi_LiteOS/kernel/base/ipc\los_mux.c ****     }
 626              		.loc 1 249 0
 627 010a FFF7FEFF 		bl	osTaskPriModify
 628              	.LVL75:
 629 010e A2E7     		b	.L42
 630              	.L53:
 631              		.align	2
 632              	.L52:
 633 0110 00000000 		.word	g_pstAllMux
 634 0114 00000000 		.word	g_stLosTask
 635 0118 00000000 		.word	g_usLosTaskLock
 636 011c 071D0002 		.word	33561863
 637 0120 011D0002 		.word	33561857
 638 0124 F8C3B2A1 		.word	-1582119944
 639 0128 00000000 		.word	.LC0
 640 012c 051D0002 		.word	33561861
 641 0130 041D0002 		.word	33561860
 642 0134 00000000 		.word	.LC1
 643 0138 08000000 		.word	.LC2
 644 013c 061D0002 		.word	33561862
 645              		.cfi_endproc
 646              	.LFE136:
 648              		.section	.text.LOS_MuxPost,"ax",%progbits
 649              		.align	1
 650              		.global	LOS_MuxPost
 651              		.syntax unified
 652              		.thumb
 653              		.thumb_func
 654              		.fpu fpv4-sp-d16
 656              	LOS_MuxPost:
 657              	.LFB137:
 273:C:/Users/lenovo/Desktop/liteos/Project2/BearPi_LiteOS/kernel/base/ipc\los_mux.c **** 
 274:C:/Users/lenovo/Desktop/liteos/Project2/BearPi_LiteOS/kernel/base/ipc\los_mux.c **** /*****************************************************************************
 275:C:/Users/lenovo/Desktop/liteos/Project2/BearPi_LiteOS/kernel/base/ipc\los_mux.c ****  Function     : LOS_MuxPost
 276:C:/Users/lenovo/Desktop/liteos/Project2/BearPi_LiteOS/kernel/base/ipc\los_mux.c ****  Description  : Specify the mutex V operation,
 277:C:/Users/lenovo/Desktop/liteos/Project2/BearPi_LiteOS/kernel/base/ipc\los_mux.c ****  Input        : uwMuxHandle ------ Mutex operation handle,
 278:C:/Users/lenovo/Desktop/liteos/Project2/BearPi_LiteOS/kernel/base/ipc\los_mux.c ****  Output       : None
 279:C:/Users/lenovo/Desktop/liteos/Project2/BearPi_LiteOS/kernel/base/ipc\los_mux.c ****  Return       : LOS_OK on success ,or error code on failure
 280:C:/Users/lenovo/Desktop/liteos/Project2/BearPi_LiteOS/kernel/base/ipc\los_mux.c ****  *****************************************************************************/
 281:C:/Users/lenovo/Desktop/liteos/Project2/BearPi_LiteOS/kernel/base/ipc\los_mux.c **** LITE_OS_SEC_TEXT UINT32 LOS_MuxPost(UINT32 uwMuxHandle)
 282:C:/Users/lenovo/Desktop/liteos/Project2/BearPi_LiteOS/kernel/base/ipc\los_mux.c **** {
 658              		.loc 1 282 0
 659              		.cfi_startproc
 660              		@ args = 0, pretend = 0, frame = 0
 661              		@ frame_needed = 0, uses_anonymous_args = 0
 662              	.LVL76:
 663 0000 2DE9F041 		push	{r4, r5, r6, r7, r8, lr}
 664              	.LCFI13:
 665              		.cfi_def_cfa_offset 24
 666              		.cfi_offset 4, -24
ARM GAS  c:\Users\lenovo\AppData\Local\Temp\ccAXpOqP.s 			page 22


 667              		.cfi_offset 5, -20
 668              		.cfi_offset 6, -16
 669              		.cfi_offset 7, -12
 670              		.cfi_offset 8, -8
 671              		.cfi_offset 14, -4
 672 0004 82B0     		sub	sp, sp, #8
 673              	.LCFI14:
 674              		.cfi_def_cfa_offset 32
 675 0006 0446     		mov	r4, r0
 283:C:/Users/lenovo/Desktop/liteos/Project2/BearPi_LiteOS/kernel/base/ipc\los_mux.c ****     UINT32      uwIntSave;
 284:C:/Users/lenovo/Desktop/liteos/Project2/BearPi_LiteOS/kernel/base/ipc\los_mux.c ****     MUX_CB_S    *pstMuxPosted = GET_MUX(uwMuxHandle);
 676              		.loc 1 284 0
 677 0008 2F4B     		ldr	r3, .L66
 678 000a 1F68     		ldr	r7, [r3]
 679 000c 00EB4003 		add	r3, r0, r0, lsl #1
 680 0010 DD00     		lsls	r5, r3, #3
 681 0012 7E19     		adds	r6, r7, r5
 682              	.LVL77:
 285:C:/Users/lenovo/Desktop/liteos/Project2/BearPi_LiteOS/kernel/base/ipc\los_mux.c ****     LOS_TASK_CB *pstResumedTask;
 286:C:/Users/lenovo/Desktop/liteos/Project2/BearPi_LiteOS/kernel/base/ipc\los_mux.c ****     LOS_TASK_CB *pstRunTsk;
 287:C:/Users/lenovo/Desktop/liteos/Project2/BearPi_LiteOS/kernel/base/ipc\los_mux.c **** 
 288:C:/Users/lenovo/Desktop/liteos/Project2/BearPi_LiteOS/kernel/base/ipc\los_mux.c ****     uwIntSave = LOS_IntLock();
 683              		.loc 1 288 0
 684 0014 FFF7FEFF 		bl	LOS_IntLock
 685              	.LVL78:
 686 0018 8046     		mov	r8, r0
 687              	.LVL79:
 289:C:/Users/lenovo/Desktop/liteos/Project2/BearPi_LiteOS/kernel/base/ipc\los_mux.c **** 
 290:C:/Users/lenovo/Desktop/liteos/Project2/BearPi_LiteOS/kernel/base/ipc\los_mux.c ****     if ((uwMuxHandle >= (UINT32)LOSCFG_BASE_IPC_MUX_LIMIT) ||
 688              		.loc 1 290 0
 689 001a 132C     		cmp	r4, #19
 690 001c 15D8     		bhi	.L55
 291:C:/Users/lenovo/Desktop/liteos/Project2/BearPi_LiteOS/kernel/base/ipc\los_mux.c ****         (OS_MUX_UNUSED == pstMuxPosted->ucMuxStat))
 691              		.loc 1 291 0 discriminator 1
 692 001e 7B5D     		ldrb	r3, [r7, r5]	@ zero_extendqisi2
 290:C:/Users/lenovo/Desktop/liteos/Project2/BearPi_LiteOS/kernel/base/ipc\los_mux.c ****         (OS_MUX_UNUSED == pstMuxPosted->ucMuxStat))
 693              		.loc 1 290 0 discriminator 1
 694 0020 9BB1     		cbz	r3, .L55
 292:C:/Users/lenovo/Desktop/liteos/Project2/BearPi_LiteOS/kernel/base/ipc\los_mux.c ****     {
 293:C:/Users/lenovo/Desktop/liteos/Project2/BearPi_LiteOS/kernel/base/ipc\los_mux.c ****         LOS_IntRestore(uwIntSave);
 294:C:/Users/lenovo/Desktop/liteos/Project2/BearPi_LiteOS/kernel/base/ipc\los_mux.c ****         OS_RETURN_ERROR(LOS_ERRNO_MUX_INVALID);
 295:C:/Users/lenovo/Desktop/liteos/Project2/BearPi_LiteOS/kernel/base/ipc\los_mux.c ****     }
 296:C:/Users/lenovo/Desktop/liteos/Project2/BearPi_LiteOS/kernel/base/ipc\los_mux.c **** 
 297:C:/Users/lenovo/Desktop/liteos/Project2/BearPi_LiteOS/kernel/base/ipc\los_mux.c ****     pstRunTsk = (LOS_TASK_CB *)g_stLosTask.pstRunTask;
 695              		.loc 1 297 0
 696 0022 2A4B     		ldr	r3, .L66+4
 697 0024 1A68     		ldr	r2, [r3]
 698              	.LVL80:
 298:C:/Users/lenovo/Desktop/liteos/Project2/BearPi_LiteOS/kernel/base/ipc\los_mux.c ****     if ((pstMuxPosted->usMuxCount == 0) || (pstMuxPosted->pstOwner != pstRunTsk))
 699              		.loc 1 298 0
 700 0026 7388     		ldrh	r3, [r6, #2]
 701 0028 13B1     		cbz	r3, .L58
 702              		.loc 1 298 0 is_stmt 0 discriminator 1
 703 002a 3069     		ldr	r0, [r6, #16]
 704              	.LVL81:
 705 002c 9042     		cmp	r0, r2
 706 002e 1BD0     		beq	.L59
ARM GAS  c:\Users\lenovo\AppData\Local\Temp\ccAXpOqP.s 			page 23


 707              	.L58:
 299:C:/Users/lenovo/Desktop/liteos/Project2/BearPi_LiteOS/kernel/base/ipc\los_mux.c ****     {
 300:C:/Users/lenovo/Desktop/liteos/Project2/BearPi_LiteOS/kernel/base/ipc\los_mux.c ****         LOS_IntRestore(uwIntSave);
 708              		.loc 1 300 0 is_stmt 1
 709 0030 4046     		mov	r0, r8
 710 0032 FFF7FEFF 		bl	LOS_IntRestore
 711              	.LVL82:
 301:C:/Users/lenovo/Desktop/liteos/Project2/BearPi_LiteOS/kernel/base/ipc\los_mux.c ****         OS_RETURN_ERROR(LOS_ERRNO_MUX_INVALID);
 712              		.loc 1 301 0
 713 0036 264C     		ldr	r4, .L66+8
 714              	.LVL83:
 715 0038 0023     		movs	r3, #0
 716 003a 0093     		str	r3, [sp]
 717 003c 2246     		mov	r2, r4
 718 003e 2549     		ldr	r1, .L66+12
 719 0040 2548     		ldr	r0, .L66+16
 720 0042 FFF7FEFF 		bl	LOS_ErrHandle
 721              	.LVL84:
 722 0046 2046     		mov	r0, r4
 723 0048 0BE0     		b	.L54
 724              	.LVL85:
 725              	.L55:
 293:C:/Users/lenovo/Desktop/liteos/Project2/BearPi_LiteOS/kernel/base/ipc\los_mux.c ****         OS_RETURN_ERROR(LOS_ERRNO_MUX_INVALID);
 726              		.loc 1 293 0
 727 004a 4046     		mov	r0, r8
 728              	.LVL86:
 729 004c FFF7FEFF 		bl	LOS_IntRestore
 730              	.LVL87:
 294:C:/Users/lenovo/Desktop/liteos/Project2/BearPi_LiteOS/kernel/base/ipc\los_mux.c ****     }
 731              		.loc 1 294 0
 732 0050 1F4C     		ldr	r4, .L66+8
 733              	.LVL88:
 734 0052 0023     		movs	r3, #0
 735 0054 0093     		str	r3, [sp]
 736 0056 2246     		mov	r2, r4
 737 0058 1E49     		ldr	r1, .L66+12
 738 005a 1F48     		ldr	r0, .L66+16
 739 005c FFF7FEFF 		bl	LOS_ErrHandle
 740              	.LVL89:
 741 0060 2046     		mov	r0, r4
 742              	.L54:
 302:C:/Users/lenovo/Desktop/liteos/Project2/BearPi_LiteOS/kernel/base/ipc\los_mux.c ****     }
 303:C:/Users/lenovo/Desktop/liteos/Project2/BearPi_LiteOS/kernel/base/ipc\los_mux.c **** 
 304:C:/Users/lenovo/Desktop/liteos/Project2/BearPi_LiteOS/kernel/base/ipc\los_mux.c ****     if (--(pstMuxPosted->usMuxCount) != 0)
 305:C:/Users/lenovo/Desktop/liteos/Project2/BearPi_LiteOS/kernel/base/ipc\los_mux.c ****     {
 306:C:/Users/lenovo/Desktop/liteos/Project2/BearPi_LiteOS/kernel/base/ipc\los_mux.c ****         LOS_IntRestore(uwIntSave);
 307:C:/Users/lenovo/Desktop/liteos/Project2/BearPi_LiteOS/kernel/base/ipc\los_mux.c ****         return LOS_OK;
 308:C:/Users/lenovo/Desktop/liteos/Project2/BearPi_LiteOS/kernel/base/ipc\los_mux.c ****     }
 309:C:/Users/lenovo/Desktop/liteos/Project2/BearPi_LiteOS/kernel/base/ipc\los_mux.c **** 
 310:C:/Users/lenovo/Desktop/liteos/Project2/BearPi_LiteOS/kernel/base/ipc\los_mux.c ****     if ((pstMuxPosted->pstOwner->usPriority) != pstMuxPosted->usPriority)
 311:C:/Users/lenovo/Desktop/liteos/Project2/BearPi_LiteOS/kernel/base/ipc\los_mux.c ****     {
 312:C:/Users/lenovo/Desktop/liteos/Project2/BearPi_LiteOS/kernel/base/ipc\los_mux.c ****         osTaskPriModify(pstMuxPosted->pstOwner, pstMuxPosted->usPriority);
 313:C:/Users/lenovo/Desktop/liteos/Project2/BearPi_LiteOS/kernel/base/ipc\los_mux.c ****     }
 314:C:/Users/lenovo/Desktop/liteos/Project2/BearPi_LiteOS/kernel/base/ipc\los_mux.c **** 
 315:C:/Users/lenovo/Desktop/liteos/Project2/BearPi_LiteOS/kernel/base/ipc\los_mux.c ****     if (!LOS_ListEmpty(&pstMuxPosted->stMuxList))
 316:C:/Users/lenovo/Desktop/liteos/Project2/BearPi_LiteOS/kernel/base/ipc\los_mux.c ****     {
 317:C:/Users/lenovo/Desktop/liteos/Project2/BearPi_LiteOS/kernel/base/ipc\los_mux.c ****         pstResumedTask = OS_TCB_FROM_PENDLIST(LOS_DL_LIST_FIRST(&(pstMuxPosted->stMuxList))); /*lin
ARM GAS  c:\Users\lenovo\AppData\Local\Temp\ccAXpOqP.s 			page 24


 318:C:/Users/lenovo/Desktop/liteos/Project2/BearPi_LiteOS/kernel/base/ipc\los_mux.c **** 
 319:C:/Users/lenovo/Desktop/liteos/Project2/BearPi_LiteOS/kernel/base/ipc\los_mux.c ****         pstMuxPosted->usMuxCount    = 1;
 320:C:/Users/lenovo/Desktop/liteos/Project2/BearPi_LiteOS/kernel/base/ipc\los_mux.c ****         pstMuxPosted->pstOwner      = pstResumedTask;
 321:C:/Users/lenovo/Desktop/liteos/Project2/BearPi_LiteOS/kernel/base/ipc\los_mux.c ****         pstMuxPosted->usPriority    = pstResumedTask->usPriority;
 322:C:/Users/lenovo/Desktop/liteos/Project2/BearPi_LiteOS/kernel/base/ipc\los_mux.c ****         pstResumedTask->pTaskMux    = NULL;
 323:C:/Users/lenovo/Desktop/liteos/Project2/BearPi_LiteOS/kernel/base/ipc\los_mux.c **** 
 324:C:/Users/lenovo/Desktop/liteos/Project2/BearPi_LiteOS/kernel/base/ipc\los_mux.c ****         osTaskWake(pstResumedTask, OS_TASK_STATUS_PEND);
 325:C:/Users/lenovo/Desktop/liteos/Project2/BearPi_LiteOS/kernel/base/ipc\los_mux.c **** 
 326:C:/Users/lenovo/Desktop/liteos/Project2/BearPi_LiteOS/kernel/base/ipc\los_mux.c ****         (VOID)LOS_IntRestore(uwIntSave);
 327:C:/Users/lenovo/Desktop/liteos/Project2/BearPi_LiteOS/kernel/base/ipc\los_mux.c ****         LOS_Schedule();
 328:C:/Users/lenovo/Desktop/liteos/Project2/BearPi_LiteOS/kernel/base/ipc\los_mux.c ****     }
 329:C:/Users/lenovo/Desktop/liteos/Project2/BearPi_LiteOS/kernel/base/ipc\los_mux.c ****     else
 330:C:/Users/lenovo/Desktop/liteos/Project2/BearPi_LiteOS/kernel/base/ipc\los_mux.c ****     {
 331:C:/Users/lenovo/Desktop/liteos/Project2/BearPi_LiteOS/kernel/base/ipc\los_mux.c ****         (VOID)LOS_IntRestore(uwIntSave);
 332:C:/Users/lenovo/Desktop/liteos/Project2/BearPi_LiteOS/kernel/base/ipc\los_mux.c ****     }
 333:C:/Users/lenovo/Desktop/liteos/Project2/BearPi_LiteOS/kernel/base/ipc\los_mux.c **** 
 334:C:/Users/lenovo/Desktop/liteos/Project2/BearPi_LiteOS/kernel/base/ipc\los_mux.c ****     return LOS_OK;
 335:C:/Users/lenovo/Desktop/liteos/Project2/BearPi_LiteOS/kernel/base/ipc\los_mux.c **** }
 743              		.loc 1 335 0
 744 0062 02B0     		add	sp, sp, #8
 745              	.LCFI15:
 746              		.cfi_remember_state
 747              		.cfi_def_cfa_offset 24
 748              		@ sp needed
 749 0064 BDE8F081 		pop	{r4, r5, r6, r7, r8, pc}
 750              	.LVL90:
 751              	.L59:
 752              	.LCFI16:
 753              		.cfi_restore_state
 304:C:/Users/lenovo/Desktop/liteos/Project2/BearPi_LiteOS/kernel/base/ipc\los_mux.c ****     {
 754              		.loc 1 304 0
 755 0068 013B     		subs	r3, r3, #1
 756 006a 9BB2     		uxth	r3, r3
 757 006c 7380     		strh	r3, [r6, #2]	@ movhi
 758 006e EBB9     		cbnz	r3, .L64
 310:C:/Users/lenovo/Desktop/liteos/Project2/BearPi_LiteOS/kernel/base/ipc\los_mux.c ****     {
 759              		.loc 1 310 0
 760 0070 C388     		ldrh	r3, [r0, #6]
 761 0072 B18A     		ldrh	r1, [r6, #20]
 762 0074 8B42     		cmp	r3, r1
 763 0076 1ED1     		bne	.L65
 764              	.LVL91:
 765              	.L61:
 315:C:/Users/lenovo/Desktop/liteos/Project2/BearPi_LiteOS/kernel/base/ipc\los_mux.c ****     {
 766              		.loc 1 315 0
 767 0078 06F10803 		add	r3, r6, #8
 768              	.LBB38:
 769              	.LBB39:
 770              		.loc 2 215 0
 771 007c F268     		ldr	r2, [r6, #12]
 772              	.LBE39:
 773              	.LBE38:
 315:C:/Users/lenovo/Desktop/liteos/Project2/BearPi_LiteOS/kernel/base/ipc\los_mux.c ****     {
 774              		.loc 1 315 0
 775 007e 9342     		cmp	r3, r2
 776 0080 1CD0     		beq	.L62
 317:C:/Users/lenovo/Desktop/liteos/Project2/BearPi_LiteOS/kernel/base/ipc\los_mux.c **** 
ARM GAS  c:\Users\lenovo\AppData\Local\Temp\ccAXpOqP.s 			page 25


 777              		.loc 1 317 0
 778 0082 A2F12800 		sub	r0, r2, #40
 779              	.LVL92:
 319:C:/Users/lenovo/Desktop/liteos/Project2/BearPi_LiteOS/kernel/base/ipc\los_mux.c ****         pstMuxPosted->pstOwner      = pstResumedTask;
 780              		.loc 1 319 0
 781 0086 0123     		movs	r3, #1
 782 0088 7380     		strh	r3, [r6, #2]	@ movhi
 320:C:/Users/lenovo/Desktop/liteos/Project2/BearPi_LiteOS/kernel/base/ipc\los_mux.c ****         pstMuxPosted->usPriority    = pstResumedTask->usPriority;
 783              		.loc 1 320 0
 784 008a 3061     		str	r0, [r6, #16]
 321:C:/Users/lenovo/Desktop/liteos/Project2/BearPi_LiteOS/kernel/base/ipc\los_mux.c ****         pstResumedTask->pTaskMux    = NULL;
 785              		.loc 1 321 0
 786 008c 32F8223C 		ldrh	r3, [r2, #-34]
 787 0090 B382     		strh	r3, [r6, #20]	@ movhi
 322:C:/Users/lenovo/Desktop/liteos/Project2/BearPi_LiteOS/kernel/base/ipc\los_mux.c **** 
 788              		.loc 1 322 0
 789 0092 0024     		movs	r4, #0
 790              	.LVL93:
 791 0094 42F80C4C 		str	r4, [r2, #-12]
 324:C:/Users/lenovo/Desktop/liteos/Project2/BearPi_LiteOS/kernel/base/ipc\los_mux.c **** 
 792              		.loc 1 324 0
 793 0098 0821     		movs	r1, #8
 794 009a FFF7FEFF 		bl	osTaskWake
 795              	.LVL94:
 326:C:/Users/lenovo/Desktop/liteos/Project2/BearPi_LiteOS/kernel/base/ipc\los_mux.c ****         LOS_Schedule();
 796              		.loc 1 326 0
 797 009e 4046     		mov	r0, r8
 798 00a0 FFF7FEFF 		bl	LOS_IntRestore
 799              	.LVL95:
 327:C:/Users/lenovo/Desktop/liteos/Project2/BearPi_LiteOS/kernel/base/ipc\los_mux.c ****     }
 800              		.loc 1 327 0
 801 00a4 FFF7FEFF 		bl	LOS_Schedule
 802              	.LVL96:
 334:C:/Users/lenovo/Desktop/liteos/Project2/BearPi_LiteOS/kernel/base/ipc\los_mux.c **** }
 803              		.loc 1 334 0
 804 00a8 2046     		mov	r0, r4
 805 00aa DAE7     		b	.L54
 806              	.LVL97:
 807              	.L64:
 306:C:/Users/lenovo/Desktop/liteos/Project2/BearPi_LiteOS/kernel/base/ipc\los_mux.c ****         return LOS_OK;
 808              		.loc 1 306 0
 809 00ac 4046     		mov	r0, r8
 810 00ae FFF7FEFF 		bl	LOS_IntRestore
 811              	.LVL98:
 307:C:/Users/lenovo/Desktop/liteos/Project2/BearPi_LiteOS/kernel/base/ipc\los_mux.c ****     }
 812              		.loc 1 307 0
 813 00b2 0020     		movs	r0, #0
 814 00b4 D5E7     		b	.L54
 815              	.LVL99:
 816              	.L65:
 312:C:/Users/lenovo/Desktop/liteos/Project2/BearPi_LiteOS/kernel/base/ipc\los_mux.c ****     }
 817              		.loc 1 312 0
 818 00b6 FFF7FEFF 		bl	osTaskPriModify
 819              	.LVL100:
 820 00ba DDE7     		b	.L61
 821              	.L62:
 331:C:/Users/lenovo/Desktop/liteos/Project2/BearPi_LiteOS/kernel/base/ipc\los_mux.c ****     }
ARM GAS  c:\Users\lenovo\AppData\Local\Temp\ccAXpOqP.s 			page 26


 822              		.loc 1 331 0
 823 00bc 4046     		mov	r0, r8
 824 00be FFF7FEFF 		bl	LOS_IntRestore
 825              	.LVL101:
 334:C:/Users/lenovo/Desktop/liteos/Project2/BearPi_LiteOS/kernel/base/ipc\los_mux.c **** }
 826              		.loc 1 334 0
 827 00c2 0020     		movs	r0, #0
 828 00c4 CDE7     		b	.L54
 829              	.L67:
 830 00c6 00BF     		.align	2
 831              	.L66:
 832 00c8 00000000 		.word	g_pstAllMux
 833 00cc 00000000 		.word	g_stLosTask
 834 00d0 011D0002 		.word	33561857
 835 00d4 F8C3B2A1 		.word	-1582119944
 836 00d8 00000000 		.word	.LC0
 837              		.cfi_endproc
 838              	.LFE137:
 840              		.comm	g_stUnusedMuxList,8,4
 841              		.comm	g_pstAllMux,4,4
 842              		.section	.rodata.LOS_MuxCreate.str1.4,"aMS",%progbits,1
 843              		.align	2
 844              	.LC0:
 845 0000 6F735F75 		.ascii	"os_unspecific_file\000"
 845      6E737065 
 845      63696669 
 845      635F6669 
 845      6C6500
 846              		.section	.rodata.LOS_MuxPend.str1.4,"aMS",%progbits,1
 847              		.align	2
 848              	.LC1:
 849 0000 5B455252 		.ascii	"[ERR] \000"
 849      5D2000
 850 0007 00       		.space	1
 851              	.LC2:
 852 0008 2121214C 		.ascii	"!!!LOS_ERRNO_MUX_PEND_IN_LOCK!!!\000"
 852      4F535F45 
 852      52524E4F 
 852      5F4D5558 
 852      5F50454E 
 853              		.text
 854              	.Letext0:
 855              		.file 3 "c:\\program files (x86)\\liteos studio\\resources\\arm-none-eabi\\arm-none-eabi\\include\
 856              		.file 4 "c:\\program files (x86)\\liteos studio\\resources\\arm-none-eabi\\arm-none-eabi\\include\
 857              		.file 5 "c:\\program files (x86)\\liteos studio\\resources\\arm-none-eabi\\arm-none-eabi\\include\
 858              		.file 6 "c:\\program files (x86)\\liteos studio\\resources\\arm-none-eabi\\lib\\gcc\\arm-none-eabi
 859              		.file 7 "c:\\program files (x86)\\liteos studio\\resources\\arm-none-eabi\\arm-none-eabi\\include\
 860              		.file 8 "C:/Users/lenovo/Desktop/liteos/Project2/BearPi_LiteOS/kernel/include/los_typedef.h"
 861              		.file 9 "c:\\program files (x86)\\liteos studio\\resources\\arm-none-eabi\\arm-none-eabi\\include\
 862              		.file 10 "C:/Users/lenovo/Desktop/liteos/Project2/BearPi_LiteOS/arch/arm/common/cmsis/core_cm4.h"
 863              		.file 11 "C:/Users/lenovo/Desktop/liteos/Project2/BearPi_LiteOS/targets/STM32L431_BearPi/Inc/syste
 864              		.file 12 "C:/Users/lenovo/Desktop/liteos/Project2/BearPi_LiteOS/arch/arm/arm-m/include/los_hwi.h"
 865              		.file 13 "C:/Users/lenovo/Desktop/liteos/Project2/BearPi_LiteOS/kernel/include/los_event.h"
 866              		.file 14 "C:/Users/lenovo/Desktop/liteos/Project2/BearPi_LiteOS/targets/STM32L431_BearPi/Inc/main.
 867              		.file 15 "C:/Users/lenovo/Desktop/liteos/Project2/BearPi_LiteOS/targets/STM32L431_BearPi/OS_CONFIG
 868              		.file 16 "C:/Users/lenovo/Desktop/liteos/Project2/BearPi_LiteOS/kernel/include/los_config.h"
 869              		.file 17 "C:/Users/lenovo/Desktop/liteos/Project2/BearPi_LiteOS/kernel/include/los_err.h"
ARM GAS  c:\Users\lenovo\AppData\Local\Temp\ccAXpOqP.s 			page 27


 870              		.file 18 "C:/Users/lenovo/Desktop/liteos/Project2/BearPi_LiteOS/kernel/include/los_tick.h"
 871              		.file 19 "C:/Users/lenovo/Desktop/liteos/Project2/BearPi_LiteOS/kernel/include/los_task.h"
 872              		.file 20 "C:/Users/lenovo/Desktop/liteos/Project2/BearPi_LiteOS/kernel/base/include/los_task.ph"
 873              		.file 21 "C:/Users/lenovo/Desktop/liteos/Project2/BearPi_LiteOS/kernel/base/include/los_mux.ph"
 874              		.file 22 "C:/Users/lenovo/Desktop/liteos/Project2/BearPi_LiteOS/kernel/include/los_memory.h"
 875              		.file 23 "C:/Users/lenovo/Desktop/liteos/Project2/BearPi_LiteOS/arch/arm/arm-m/include/los_hw.h"
 876              		.file 24 "c:\\program files (x86)\\liteos studio\\resources\\arm-none-eabi\\arm-none-eabi\\include
 877              		.file 25 "<built-in>"
ARM GAS  c:\Users\lenovo\AppData\Local\Temp\ccAXpOqP.s 			page 28

