ARM GAS  c:\Users\lenovo\AppData\Local\Temp\ccyb3L8f.s 			page 1


   1              		.cpu cortex-m4
   2              		.eabi_attribute 27, 1
   3              		.eabi_attribute 28, 1
   4              		.eabi_attribute 20, 1
   5              		.eabi_attribute 21, 1
   6              		.eabi_attribute 23, 3
   7              		.eabi_attribute 24, 1
   8              		.eabi_attribute 25, 1
   9              		.eabi_attribute 26, 1
  10              		.eabi_attribute 30, 1
  11              		.eabi_attribute 34, 1
  12              		.eabi_attribute 18, 4
  13              		.file	"los_slab.c"
  14              		.text
  15              	.Ltext0:
  16              		.cfi_sections	.debug_frame
  17              		.section	.text.osAtomicBitsetInit,"ax",%progbits
  18              		.align	1
  19              		.global	osAtomicBitsetInit
  20              		.syntax unified
  21              		.thumb
  22              		.thumb_func
  23              		.fpu fpv4-sp-d16
  25              	osAtomicBitsetInit:
  26              	.LFB133:
  27              		.file 1 "C:/Users/lenovo/Desktop/liteos/Project2/BearPi_LiteOS/kernel/base/mem/common/los_slab.c"
   1:C:/Users/lenovo/Desktop/liteos/Project2/BearPi_LiteOS/kernel/base/mem/common\los_slab.c **** /*----------------------------------------------------------------------------
   2:C:/Users/lenovo/Desktop/liteos/Project2/BearPi_LiteOS/kernel/base/mem/common\los_slab.c ****  * Copyright (c) <2013-2017>, <Huawei Technologies Co., Ltd>
   3:C:/Users/lenovo/Desktop/liteos/Project2/BearPi_LiteOS/kernel/base/mem/common\los_slab.c ****  * All rights reserved.
   4:C:/Users/lenovo/Desktop/liteos/Project2/BearPi_LiteOS/kernel/base/mem/common\los_slab.c ****  * Redistribution and use in source and binary forms, with or without modification,
   5:C:/Users/lenovo/Desktop/liteos/Project2/BearPi_LiteOS/kernel/base/mem/common\los_slab.c ****  * are permitted provided that the following conditions are met:
   6:C:/Users/lenovo/Desktop/liteos/Project2/BearPi_LiteOS/kernel/base/mem/common\los_slab.c ****  * 1. Redistributions of source code must retain the above copyright notice, this list of
   7:C:/Users/lenovo/Desktop/liteos/Project2/BearPi_LiteOS/kernel/base/mem/common\los_slab.c ****  * conditions and the following disclaimer.
   8:C:/Users/lenovo/Desktop/liteos/Project2/BearPi_LiteOS/kernel/base/mem/common\los_slab.c ****  * 2. Redistributions in binary form must reproduce the above copyright notice, this list
   9:C:/Users/lenovo/Desktop/liteos/Project2/BearPi_LiteOS/kernel/base/mem/common\los_slab.c ****  * of conditions and the following disclaimer in the documentation and/or other materials
  10:C:/Users/lenovo/Desktop/liteos/Project2/BearPi_LiteOS/kernel/base/mem/common\los_slab.c ****  * provided with the distribution.
  11:C:/Users/lenovo/Desktop/liteos/Project2/BearPi_LiteOS/kernel/base/mem/common\los_slab.c ****  * 3. Neither the name of the copyright holder nor the names of its contributors may be used
  12:C:/Users/lenovo/Desktop/liteos/Project2/BearPi_LiteOS/kernel/base/mem/common\los_slab.c ****  * to endorse or promote products derived from this software without specific prior written
  13:C:/Users/lenovo/Desktop/liteos/Project2/BearPi_LiteOS/kernel/base/mem/common\los_slab.c ****  * permission.
  14:C:/Users/lenovo/Desktop/liteos/Project2/BearPi_LiteOS/kernel/base/mem/common\los_slab.c ****  * THIS SOFTWARE IS PROVIDED BY THE COPYRIGHT HOLDERS AND CONTRIBUTORS
  15:C:/Users/lenovo/Desktop/liteos/Project2/BearPi_LiteOS/kernel/base/mem/common\los_slab.c ****  * "AS IS" AND ANY EXPRESS OR IMPLIED WARRANTIES, INCLUDING, BUT NOT LIMITED TO,
  16:C:/Users/lenovo/Desktop/liteos/Project2/BearPi_LiteOS/kernel/base/mem/common\los_slab.c ****  * THE IMPLIED WARRANTIES OF MERCHANTABILITY AND FITNESS FOR A PARTICULAR
  17:C:/Users/lenovo/Desktop/liteos/Project2/BearPi_LiteOS/kernel/base/mem/common\los_slab.c ****  * PURPOSE ARE DISCLAIMED. IN NO EVENT SHALL THE COPYRIGHT HOLDER OR
  18:C:/Users/lenovo/Desktop/liteos/Project2/BearPi_LiteOS/kernel/base/mem/common\los_slab.c ****  * CONTRIBUTORS BE LIABLE FOR ANY DIRECT, INDIRECT, INCIDENTAL, SPECIAL,
  19:C:/Users/lenovo/Desktop/liteos/Project2/BearPi_LiteOS/kernel/base/mem/common\los_slab.c ****  * EXEMPLARY, OR CONSEQUENTIAL DAMAGES (INCLUDING, BUT NOT LIMITED TO,
  20:C:/Users/lenovo/Desktop/liteos/Project2/BearPi_LiteOS/kernel/base/mem/common\los_slab.c ****  * PROCUREMENT OF SUBSTITUTE GOODS OR SERVICES; LOSS OF USE, DATA, OR PROFITS;
  21:C:/Users/lenovo/Desktop/liteos/Project2/BearPi_LiteOS/kernel/base/mem/common\los_slab.c ****  * OR BUSINESS INTERRUPTION) HOWEVER CAUSED AND ON ANY THEORY OF LIABILITY,
  22:C:/Users/lenovo/Desktop/liteos/Project2/BearPi_LiteOS/kernel/base/mem/common\los_slab.c ****  * WHETHER IN CONTRACT, STRICT LIABILITY, OR TORT (INCLUDING NEGLIGENCE OR
  23:C:/Users/lenovo/Desktop/liteos/Project2/BearPi_LiteOS/kernel/base/mem/common\los_slab.c ****  * OTHERWISE) ARISING IN ANY WAY OUT OF THE USE OF THIS SOFTWARE, EVEN IF
  24:C:/Users/lenovo/Desktop/liteos/Project2/BearPi_LiteOS/kernel/base/mem/common\los_slab.c ****  * ADVISED OF THE POSSIBILITY OF SUCH DAMAGE.
  25:C:/Users/lenovo/Desktop/liteos/Project2/BearPi_LiteOS/kernel/base/mem/common\los_slab.c ****  *---------------------------------------------------------------------------*/
  26:C:/Users/lenovo/Desktop/liteos/Project2/BearPi_LiteOS/kernel/base/mem/common\los_slab.c **** /*----------------------------------------------------------------------------
  27:C:/Users/lenovo/Desktop/liteos/Project2/BearPi_LiteOS/kernel/base/mem/common\los_slab.c ****  * Notice of Export Control Law
  28:C:/Users/lenovo/Desktop/liteos/Project2/BearPi_LiteOS/kernel/base/mem/common\los_slab.c ****  * ===============================================
  29:C:/Users/lenovo/Desktop/liteos/Project2/BearPi_LiteOS/kernel/base/mem/common\los_slab.c ****  * Huawei LiteOS may be subject to applicable export control laws and regulations, which might
  30:C:/Users/lenovo/Desktop/liteos/Project2/BearPi_LiteOS/kernel/base/mem/common\los_slab.c ****  * include those applicable to Huawei LiteOS of U.S. and the country in which you are located.
  31:C:/Users/lenovo/Desktop/liteos/Project2/BearPi_LiteOS/kernel/base/mem/common\los_slab.c ****  * Import, export and usage of Huawei LiteOS in any manner by you shall be in compliance with such
ARM GAS  c:\Users\lenovo\AppData\Local\Temp\ccyb3L8f.s 			page 2


  32:C:/Users/lenovo/Desktop/liteos/Project2/BearPi_LiteOS/kernel/base/mem/common\los_slab.c ****  * applicable export control laws and regulations.
  33:C:/Users/lenovo/Desktop/liteos/Project2/BearPi_LiteOS/kernel/base/mem/common\los_slab.c ****  *---------------------------------------------------------------------------*/
  34:C:/Users/lenovo/Desktop/liteos/Project2/BearPi_LiteOS/kernel/base/mem/common\los_slab.c **** #include <string.h>
  35:C:/Users/lenovo/Desktop/liteos/Project2/BearPi_LiteOS/kernel/base/mem/common\los_slab.c **** #include <stdint.h>
  36:C:/Users/lenovo/Desktop/liteos/Project2/BearPi_LiteOS/kernel/base/mem/common\los_slab.c **** #include <los_slab.ph>
  37:C:/Users/lenovo/Desktop/liteos/Project2/BearPi_LiteOS/kernel/base/mem/common\los_slab.c **** 
  38:C:/Users/lenovo/Desktop/liteos/Project2/BearPi_LiteOS/kernel/base/mem/common\los_slab.c **** extern VOID* osHeapAlloc(VOID *pPool, UINT32 uwSz);
  39:C:/Users/lenovo/Desktop/liteos/Project2/BearPi_LiteOS/kernel/base/mem/common\los_slab.c **** extern BOOL osHeapFree(VOID *pPool, VOID* pPtr);
  40:C:/Users/lenovo/Desktop/liteos/Project2/BearPi_LiteOS/kernel/base/mem/common\los_slab.c **** 
  41:C:/Users/lenovo/Desktop/liteos/Project2/BearPi_LiteOS/kernel/base/mem/common\los_slab.c **** VOID osAtomicBitsetInit(struct AtomicBitset *pstSet, UINT32 uwNumBits)
  42:C:/Users/lenovo/Desktop/liteos/Project2/BearPi_LiteOS/kernel/base/mem/common\los_slab.c **** {
  28              		.loc 1 42 0
  29              		.cfi_startproc
  30              		@ args = 0, pretend = 0, frame = 0
  31              		@ frame_needed = 0, uses_anonymous_args = 0
  32              	.LVL0:
  33 0000 38B5     		push	{r3, r4, r5, lr}
  34              	.LCFI0:
  35              		.cfi_def_cfa_offset 16
  36              		.cfi_offset 3, -16
  37              		.cfi_offset 4, -12
  38              		.cfi_offset 5, -8
  39              		.cfi_offset 14, -4
  40 0002 0546     		mov	r5, r0
  41 0004 0C46     		mov	r4, r1
  43:C:/Users/lenovo/Desktop/liteos/Project2/BearPi_LiteOS/kernel/base/mem/common\los_slab.c ****     pstSet->numBits = uwNumBits;
  42              		.loc 1 43 0
  43 0006 40F8041B 		str	r1, [r0], #4
  44              	.LVL1:
  44:C:/Users/lenovo/Desktop/liteos/Project2/BearPi_LiteOS/kernel/base/mem/common\los_slab.c ****     memset(pstSet->words, 0, (uwNumBits + 31) / 8);
  45              		.loc 1 44 0
  46 000a 01F11F02 		add	r2, r1, #31
  47 000e D208     		lsrs	r2, r2, #3
  48 0010 0021     		movs	r1, #0
  49              	.LVL2:
  50 0012 FFF7FEFF 		bl	memset
  51              	.LVL3:
  45:C:/Users/lenovo/Desktop/liteos/Project2/BearPi_LiteOS/kernel/base/mem/common\los_slab.c ****     if (uwNumBits & 31) //mark all high bits so that osAtomicBitsetFindClearAndSet() is simpler
  52              		.loc 1 45 0
  53 0016 14F01F02 		ands	r2, r4, #31
  54 001a 06D0     		beq	.L1
  46:C:/Users/lenovo/Desktop/liteos/Project2/BearPi_LiteOS/kernel/base/mem/common\los_slab.c ****     {
  47:C:/Users/lenovo/Desktop/liteos/Project2/BearPi_LiteOS/kernel/base/mem/common\los_slab.c ****         pstSet->words[uwNumBits / 32] = ((UINT32)((INT32)-1LL)) << (uwNumBits & 31);
  55              		.loc 1 47 0
  56 001c 6409     		lsrs	r4, r4, #5
  57              	.LVL4:
  58 001e 4FF0FF33 		mov	r3, #-1
  59 0022 9340     		lsls	r3, r3, r2
  60 0024 05EB8404 		add	r4, r5, r4, lsl #2
  61 0028 6360     		str	r3, [r4, #4]
  62              	.L1:
  48:C:/Users/lenovo/Desktop/liteos/Project2/BearPi_LiteOS/kernel/base/mem/common\los_slab.c ****     }
  49:C:/Users/lenovo/Desktop/liteos/Project2/BearPi_LiteOS/kernel/base/mem/common\los_slab.c **** }
  63              		.loc 1 49 0
  64 002a 38BD     		pop	{r3, r4, r5, pc}
  65              		.cfi_endproc
  66              	.LFE133:
ARM GAS  c:\Users\lenovo\AppData\Local\Temp\ccyb3L8f.s 			page 3


  68              		.section	.text.osAtomicBitsetGetNumBits,"ax",%progbits
  69              		.align	1
  70              		.global	osAtomicBitsetGetNumBits
  71              		.syntax unified
  72              		.thumb
  73              		.thumb_func
  74              		.fpu fpv4-sp-d16
  76              	osAtomicBitsetGetNumBits:
  77              	.LFB134:
  50:C:/Users/lenovo/Desktop/liteos/Project2/BearPi_LiteOS/kernel/base/mem/common\los_slab.c **** 
  51:C:/Users/lenovo/Desktop/liteos/Project2/BearPi_LiteOS/kernel/base/mem/common\los_slab.c **** inline UINT32 osAtomicBitsetGetNumBits(const struct AtomicBitset *pstSet)
  52:C:/Users/lenovo/Desktop/liteos/Project2/BearPi_LiteOS/kernel/base/mem/common\los_slab.c **** {
  78              		.loc 1 52 0
  79              		.cfi_startproc
  80              		@ args = 0, pretend = 0, frame = 0
  81              		@ frame_needed = 0, uses_anonymous_args = 0
  82              		@ link register save eliminated.
  83              	.LVL5:
  53:C:/Users/lenovo/Desktop/liteos/Project2/BearPi_LiteOS/kernel/base/mem/common\los_slab.c ****     return pstSet->numBits;
  54:C:/Users/lenovo/Desktop/liteos/Project2/BearPi_LiteOS/kernel/base/mem/common\los_slab.c **** }
  84              		.loc 1 54 0
  85 0000 0068     		ldr	r0, [r0]
  86              	.LVL6:
  87 0002 7047     		bx	lr
  88              		.cfi_endproc
  89              	.LFE134:
  91              		.section	.text.osAtomicBitsetGetBit,"ax",%progbits
  92              		.align	1
  93              		.global	osAtomicBitsetGetBit
  94              		.syntax unified
  95              		.thumb
  96              		.thumb_func
  97              		.fpu fpv4-sp-d16
  99              	osAtomicBitsetGetBit:
 100              	.LFB135:
  55:C:/Users/lenovo/Desktop/liteos/Project2/BearPi_LiteOS/kernel/base/mem/common\los_slab.c **** 
  56:C:/Users/lenovo/Desktop/liteos/Project2/BearPi_LiteOS/kernel/base/mem/common\los_slab.c **** BOOL osAtomicBitsetGetBit(const struct AtomicBitset *pstSet, UINT32 uwNum)
  57:C:/Users/lenovo/Desktop/liteos/Project2/BearPi_LiteOS/kernel/base/mem/common\los_slab.c **** {
 101              		.loc 1 57 0
 102              		.cfi_startproc
 103              		@ args = 0, pretend = 0, frame = 0
 104              		@ frame_needed = 0, uses_anonymous_args = 0
 105              		@ link register save eliminated.
 106              	.LVL7:
  58:C:/Users/lenovo/Desktop/liteos/Project2/BearPi_LiteOS/kernel/base/mem/common\los_slab.c ****     if (uwNum >= pstSet->numBits) /* any value is as good as the next */
 107              		.loc 1 58 0
 108 0000 0368     		ldr	r3, [r0]
 109 0002 8B42     		cmp	r3, r1
 110 0004 09D9     		bls	.L7
  59:C:/Users/lenovo/Desktop/liteos/Project2/BearPi_LiteOS/kernel/base/mem/common\los_slab.c ****     {
  60:C:/Users/lenovo/Desktop/liteos/Project2/BearPi_LiteOS/kernel/base/mem/common\los_slab.c ****         return FALSE;
  61:C:/Users/lenovo/Desktop/liteos/Project2/BearPi_LiteOS/kernel/base/mem/common\los_slab.c ****     }
  62:C:/Users/lenovo/Desktop/liteos/Project2/BearPi_LiteOS/kernel/base/mem/common\los_slab.c ****     return !!((pstSet->words[uwNum / 32]) & (1UL << (uwNum & 31)));
 111              		.loc 1 62 0
 112 0006 4B09     		lsrs	r3, r1, #5
 113 0008 00EB8300 		add	r0, r0, r3, lsl #2
 114              	.LVL8:
ARM GAS  c:\Users\lenovo\AppData\Local\Temp\ccyb3L8f.s 			page 4


 115 000c 4068     		ldr	r0, [r0, #4]
 116 000e 01F01F01 		and	r1, r1, #31
 117              	.LVL9:
 118 0012 C840     		lsrs	r0, r0, r1
 119 0014 00F00100 		and	r0, r0, #1
 120 0018 7047     		bx	lr
 121              	.LVL10:
 122              	.L7:
  60:C:/Users/lenovo/Desktop/liteos/Project2/BearPi_LiteOS/kernel/base/mem/common\los_slab.c ****     }
 123              		.loc 1 60 0
 124 001a 0020     		movs	r0, #0
 125              	.LVL11:
  63:C:/Users/lenovo/Desktop/liteos/Project2/BearPi_LiteOS/kernel/base/mem/common\los_slab.c **** }
 126              		.loc 1 63 0
 127 001c 7047     		bx	lr
 128              		.cfi_endproc
 129              	.LFE135:
 131              		.section	.text.osAtomicBitsetClearBit,"ax",%progbits
 132              		.align	1
 133              		.global	osAtomicBitsetClearBit
 134              		.syntax unified
 135              		.thumb
 136              		.thumb_func
 137              		.fpu fpv4-sp-d16
 139              	osAtomicBitsetClearBit:
 140              	.LFB136:
  64:C:/Users/lenovo/Desktop/liteos/Project2/BearPi_LiteOS/kernel/base/mem/common\los_slab.c **** 
  65:C:/Users/lenovo/Desktop/liteos/Project2/BearPi_LiteOS/kernel/base/mem/common\los_slab.c **** VOID osAtomicBitsetClearBit(struct AtomicBitset *pstSet, UINT32 uwNum)
  66:C:/Users/lenovo/Desktop/liteos/Project2/BearPi_LiteOS/kernel/base/mem/common\los_slab.c **** {
 141              		.loc 1 66 0
 142              		.cfi_startproc
 143              		@ args = 0, pretend = 0, frame = 0
 144              		@ frame_needed = 0, uses_anonymous_args = 0
 145              		@ link register save eliminated.
 146              	.LVL12:
  67:C:/Users/lenovo/Desktop/liteos/Project2/BearPi_LiteOS/kernel/base/mem/common\los_slab.c ****     UINT32 *puwWordPtr = pstSet->words + uwNum / 32;
  68:C:/Users/lenovo/Desktop/liteos/Project2/BearPi_LiteOS/kernel/base/mem/common\los_slab.c **** 
  69:C:/Users/lenovo/Desktop/liteos/Project2/BearPi_LiteOS/kernel/base/mem/common\los_slab.c ****     if (uwNum >= pstSet->numBits)
 147              		.loc 1 69 0
 148 0000 0368     		ldr	r3, [r0]
 149 0002 8B42     		cmp	r3, r1
 150 0004 10D9     		bls	.L11
  66:C:/Users/lenovo/Desktop/liteos/Project2/BearPi_LiteOS/kernel/base/mem/common\los_slab.c ****     UINT32 *puwWordPtr = pstSet->words + uwNum / 32;
 151              		.loc 1 66 0
 152 0006 10B4     		push	{r4}
 153              	.LCFI1:
 154              		.cfi_def_cfa_offset 4
 155              		.cfi_offset 4, -4
 156 0008 021D     		adds	r2, r0, #4
 157              	.LVL13:
 158 000a 4C09     		lsrs	r4, r1, #5
 159              	.LVL14:
  70:C:/Users/lenovo/Desktop/liteos/Project2/BearPi_LiteOS/kernel/base/mem/common\los_slab.c ****     {
  71:C:/Users/lenovo/Desktop/liteos/Project2/BearPi_LiteOS/kernel/base/mem/common\los_slab.c ****         return;
  72:C:/Users/lenovo/Desktop/liteos/Project2/BearPi_LiteOS/kernel/base/mem/common\los_slab.c ****     }
  73:C:/Users/lenovo/Desktop/liteos/Project2/BearPi_LiteOS/kernel/base/mem/common\los_slab.c ****     (*puwWordPtr) &= ~(1UL << (uwNum & 31));
 160              		.loc 1 73 0
ARM GAS  c:\Users\lenovo\AppData\Local\Temp\ccyb3L8f.s 			page 5


 161 000c 01F01F01 		and	r1, r1, #31
 162              	.LVL15:
 163 0010 0123     		movs	r3, #1
 164 0012 03FA01F1 		lsl	r1, r3, r1
 165 0016 52F82430 		ldr	r3, [r2, r4, lsl #2]
 166 001a 23EA0103 		bic	r3, r3, r1
 167 001e 42F82430 		str	r3, [r2, r4, lsl #2]
  74:C:/Users/lenovo/Desktop/liteos/Project2/BearPi_LiteOS/kernel/base/mem/common\los_slab.c **** }
 168              		.loc 1 74 0
 169 0022 5DF8044B 		ldr	r4, [sp], #4
 170              	.LCFI2:
 171              		.cfi_restore 4
 172              		.cfi_def_cfa_offset 0
 173              	.LVL16:
 174 0026 7047     		bx	lr
 175              	.LVL17:
 176              	.L11:
 177 0028 7047     		bx	lr
 178              		.cfi_endproc
 179              	.LFE136:
 181              		.section	.text.osAtomicBitsetFindClearAndSet,"ax",%progbits
 182              		.align	1
 183              		.global	osAtomicBitsetFindClearAndSet
 184              		.syntax unified
 185              		.thumb
 186              		.thumb_func
 187              		.fpu fpv4-sp-d16
 189              	osAtomicBitsetFindClearAndSet:
 190              	.LFB137:
  75:C:/Users/lenovo/Desktop/liteos/Project2/BearPi_LiteOS/kernel/base/mem/common\los_slab.c **** 
  76:C:/Users/lenovo/Desktop/liteos/Project2/BearPi_LiteOS/kernel/base/mem/common\los_slab.c **** /* find from the high bit to high bit£¬return the address of the first available bit */
  77:C:/Users/lenovo/Desktop/liteos/Project2/BearPi_LiteOS/kernel/base/mem/common\los_slab.c **** INT32 osAtomicBitsetFindClearAndSet(struct AtomicBitset *pstSet)
  78:C:/Users/lenovo/Desktop/liteos/Project2/BearPi_LiteOS/kernel/base/mem/common\los_slab.c **** {
 191              		.loc 1 78 0
 192              		.cfi_startproc
 193              		@ args = 0, pretend = 0, frame = 0
 194              		@ frame_needed = 0, uses_anonymous_args = 0
 195              		@ link register save eliminated.
 196              	.LVL18:
 197 0000 30B4     		push	{r4, r5}
 198              	.LCFI3:
 199              		.cfi_def_cfa_offset 8
 200              		.cfi_offset 4, -8
 201              		.cfi_offset 5, -4
  79:C:/Users/lenovo/Desktop/liteos/Project2/BearPi_LiteOS/kernel/base/mem/common\los_slab.c ****     UINT32 uwIdx, uwNumWords = (pstSet->numBits + 31) / 32;
 202              		.loc 1 79 0
 203 0002 50F8043B 		ldr	r3, [r0], #4
 204              	.LVL19:
 205 0006 1F33     		adds	r3, r3, #31
 206 0008 5B09     		lsrs	r3, r3, #5
 207              	.LVL20:
  80:C:/Users/lenovo/Desktop/liteos/Project2/BearPi_LiteOS/kernel/base/mem/common\los_slab.c ****     UINT32 *puwWordPtr = pstSet->words;
  81:C:/Users/lenovo/Desktop/liteos/Project2/BearPi_LiteOS/kernel/base/mem/common\los_slab.c ****     UINT32 uwTmpWord;
  82:C:/Users/lenovo/Desktop/liteos/Project2/BearPi_LiteOS/kernel/base/mem/common\los_slab.c ****     INT32 swCnt = 0;
  83:C:/Users/lenovo/Desktop/liteos/Project2/BearPi_LiteOS/kernel/base/mem/common\los_slab.c **** 
  84:C:/Users/lenovo/Desktop/liteos/Project2/BearPi_LiteOS/kernel/base/mem/common\los_slab.c ****     for (uwIdx = 0; uwIdx < uwNumWords; uwIdx++, puwWordPtr++)
 208              		.loc 1 84 0
ARM GAS  c:\Users\lenovo\AppData\Local\Temp\ccyb3L8f.s 			page 6


 209 000a 0024     		movs	r4, #0
 210              	.LVL21:
 211              	.L15:
 212              		.loc 1 84 0 is_stmt 0 discriminator 1
 213 000c 9C42     		cmp	r4, r3
 214 000e 17D2     		bcs	.L22
  85:C:/Users/lenovo/Desktop/liteos/Project2/BearPi_LiteOS/kernel/base/mem/common\los_slab.c ****     {
  86:C:/Users/lenovo/Desktop/liteos/Project2/BearPi_LiteOS/kernel/base/mem/common\los_slab.c ****         if (*puwWordPtr == 0xFFFFFFFF)
 215              		.loc 1 86 0 is_stmt 1
 216 0010 0168     		ldr	r1, [r0]
 217 0012 B1F1FF3F 		cmp	r1, #-1
 218 0016 02D0     		beq	.L23
  87:C:/Users/lenovo/Desktop/liteos/Project2/BearPi_LiteOS/kernel/base/mem/common\los_slab.c ****         {
  88:C:/Users/lenovo/Desktop/liteos/Project2/BearPi_LiteOS/kernel/base/mem/common\los_slab.c ****             continue;
  89:C:/Users/lenovo/Desktop/liteos/Project2/BearPi_LiteOS/kernel/base/mem/common\los_slab.c ****         }
  90:C:/Users/lenovo/Desktop/liteos/Project2/BearPi_LiteOS/kernel/base/mem/common\los_slab.c **** 
  91:C:/Users/lenovo/Desktop/liteos/Project2/BearPi_LiteOS/kernel/base/mem/common\los_slab.c ****         uwTmpWord = ~(*puwWordPtr);
 219              		.loc 1 91 0
 220 0018 CB43     		mvns	r3, r1
 221              	.LVL22:
  82:C:/Users/lenovo/Desktop/liteos/Project2/BearPi_LiteOS/kernel/base/mem/common\los_slab.c **** 
 222              		.loc 1 82 0
 223 001a 0022     		movs	r2, #0
  92:C:/Users/lenovo/Desktop/liteos/Project2/BearPi_LiteOS/kernel/base/mem/common\los_slab.c **** 
  93:C:/Users/lenovo/Desktop/liteos/Project2/BearPi_LiteOS/kernel/base/mem/common\los_slab.c ****         while(uwTmpWord)
 224              		.loc 1 93 0
 225 001c 04E0     		b	.L17
 226              	.LVL23:
 227              	.L23:
  84:C:/Users/lenovo/Desktop/liteos/Project2/BearPi_LiteOS/kernel/base/mem/common\los_slab.c ****     {
 228              		.loc 1 84 0
 229 001e 0134     		adds	r4, r4, #1
 230              	.LVL24:
 231 0020 0430     		adds	r0, r0, #4
 232              	.LVL25:
 233 0022 F3E7     		b	.L15
 234              	.LVL26:
 235              	.L18:
  94:C:/Users/lenovo/Desktop/liteos/Project2/BearPi_LiteOS/kernel/base/mem/common\los_slab.c ****         {
  95:C:/Users/lenovo/Desktop/liteos/Project2/BearPi_LiteOS/kernel/base/mem/common\los_slab.c ****             uwTmpWord = uwTmpWord >> 1UL;
 236              		.loc 1 95 0
 237 0024 5B08     		lsrs	r3, r3, #1
 238              	.LVL27:
  96:C:/Users/lenovo/Desktop/liteos/Project2/BearPi_LiteOS/kernel/base/mem/common\los_slab.c ****             swCnt++;
 239              		.loc 1 96 0
 240 0026 0132     		adds	r2, r2, #1
 241              	.LVL28:
 242              	.L17:
  93:C:/Users/lenovo/Desktop/liteos/Project2/BearPi_LiteOS/kernel/base/mem/common\los_slab.c ****         {
 243              		.loc 1 93 0
 244 0028 002B     		cmp	r3, #0
 245 002a FBD1     		bne	.L18
  97:C:/Users/lenovo/Desktop/liteos/Project2/BearPi_LiteOS/kernel/base/mem/common\los_slab.c ****         }
  98:C:/Users/lenovo/Desktop/liteos/Project2/BearPi_LiteOS/kernel/base/mem/common\los_slab.c **** 
  99:C:/Users/lenovo/Desktop/liteos/Project2/BearPi_LiteOS/kernel/base/mem/common\los_slab.c ****         *puwWordPtr |= (1UL << (swCnt - 1));
 246              		.loc 1 99 0
 247 002c 551E     		subs	r5, r2, #1
ARM GAS  c:\Users\lenovo\AppData\Local\Temp\ccyb3L8f.s 			page 7


 248 002e 0123     		movs	r3, #1
 249              	.LVL29:
 250 0030 AB40     		lsls	r3, r3, r5
 251 0032 1943     		orrs	r1, r1, r3
 252 0034 0160     		str	r1, [r0]
 253              	.LVL30:
 100:C:/Users/lenovo/Desktop/liteos/Project2/BearPi_LiteOS/kernel/base/mem/common\los_slab.c **** 
 101:C:/Users/lenovo/Desktop/liteos/Project2/BearPi_LiteOS/kernel/base/mem/common\los_slab.c ****         return (INT32)(uwIdx * 32 + swCnt - 1);
 254              		.loc 1 101 0
 255 0036 02EB4410 		add	r0, r2, r4, lsl #5
 256              	.LVL31:
 257 003a 0138     		subs	r0, r0, #1
 258              	.LVL32:
 259              	.L14:
 102:C:/Users/lenovo/Desktop/liteos/Project2/BearPi_LiteOS/kernel/base/mem/common\los_slab.c ****     }
 103:C:/Users/lenovo/Desktop/liteos/Project2/BearPi_LiteOS/kernel/base/mem/common\los_slab.c **** 
 104:C:/Users/lenovo/Desktop/liteos/Project2/BearPi_LiteOS/kernel/base/mem/common\los_slab.c ****     return -1;
 105:C:/Users/lenovo/Desktop/liteos/Project2/BearPi_LiteOS/kernel/base/mem/common\los_slab.c **** }
 260              		.loc 1 105 0
 261 003c 30BC     		pop	{r4, r5}
 262              	.LCFI4:
 263              		.cfi_remember_state
 264              		.cfi_restore 5
 265              		.cfi_restore 4
 266              		.cfi_def_cfa_offset 0
 267              	.LVL33:
 268 003e 7047     		bx	lr
 269              	.LVL34:
 270              	.L22:
 271              	.LCFI5:
 272              		.cfi_restore_state
 104:C:/Users/lenovo/Desktop/liteos/Project2/BearPi_LiteOS/kernel/base/mem/common\los_slab.c **** }
 273              		.loc 1 104 0
 274 0040 4FF0FF30 		mov	r0, #-1
 275              	.LVL35:
 276 0044 FAE7     		b	.L14
 277              		.cfi_endproc
 278              	.LFE137:
 280              		.section	.text.osAtomicBitsetIdxChgToNatural,"ax",%progbits
 281              		.align	1
 282              		.global	osAtomicBitsetIdxChgToNatural
 283              		.syntax unified
 284              		.thumb
 285              		.thumb_func
 286              		.fpu fpv4-sp-d16
 288              	osAtomicBitsetIdxChgToNatural:
 289              	.LFB138:
 106:C:/Users/lenovo/Desktop/liteos/Project2/BearPi_LiteOS/kernel/base/mem/common\los_slab.c **** 
 107:C:/Users/lenovo/Desktop/liteos/Project2/BearPi_LiteOS/kernel/base/mem/common\los_slab.c **** /* change the order of the output idx of osAtomicBitsetFindClearAndSet to order of natural numbers 
 108:C:/Users/lenovo/Desktop/liteos/Project2/BearPi_LiteOS/kernel/base/mem/common\los_slab.c **** INT32 osAtomicBitsetIdxChgToNatural(struct AtomicBitset *pstBitset, INT32 swIdx)
 109:C:/Users/lenovo/Desktop/liteos/Project2/BearPi_LiteOS/kernel/base/mem/common\los_slab.c **** {
 290              		.loc 1 109 0
 291              		.cfi_startproc
 292              		@ args = 0, pretend = 0, frame = 0
 293              		@ frame_needed = 0, uses_anonymous_args = 0
 294              		@ link register save eliminated.
 295              	.LVL36:
ARM GAS  c:\Users\lenovo\AppData\Local\Temp\ccyb3L8f.s 			page 8


 110:C:/Users/lenovo/Desktop/liteos/Project2/BearPi_LiteOS/kernel/base/mem/common\los_slab.c ****     UINT32 uwRet, uwB;
 111:C:/Users/lenovo/Desktop/liteos/Project2/BearPi_LiteOS/kernel/base/mem/common\los_slab.c ****     if (swIdx < 0)
 296              		.loc 1 111 0
 297 0000 0029     		cmp	r1, #0
 298 0002 0ADB     		blt	.L27
 112:C:/Users/lenovo/Desktop/liteos/Project2/BearPi_LiteOS/kernel/base/mem/common\los_slab.c ****     {
 113:C:/Users/lenovo/Desktop/liteos/Project2/BearPi_LiteOS/kernel/base/mem/common\los_slab.c ****         return swIdx;
 114:C:/Users/lenovo/Desktop/liteos/Project2/BearPi_LiteOS/kernel/base/mem/common\los_slab.c ****     }
 115:C:/Users/lenovo/Desktop/liteos/Project2/BearPi_LiteOS/kernel/base/mem/common\los_slab.c ****     uwB = 31 + (swIdx & ~31);
 299              		.loc 1 115 0
 300 0004 41F01F03 		orr	r3, r1, #31
 301              	.LVL37:
 116:C:/Users/lenovo/Desktop/liteos/Project2/BearPi_LiteOS/kernel/base/mem/common\los_slab.c ****     if (uwB > pstBitset->numBits - 1)
 302              		.loc 1 116 0
 303 0008 0068     		ldr	r0, [r0]
 304              	.LVL38:
 305 000a 0138     		subs	r0, r0, #1
 306 000c 9842     		cmp	r0, r3
 307 000e 00D3     		bcc	.L26
 115:C:/Users/lenovo/Desktop/liteos/Project2/BearPi_LiteOS/kernel/base/mem/common\los_slab.c ****     if (uwB > pstBitset->numBits - 1)
 308              		.loc 1 115 0
 309 0010 1846     		mov	r0, r3
 310              	.L26:
 311              	.LVL39:
 117:C:/Users/lenovo/Desktop/liteos/Project2/BearPi_LiteOS/kernel/base/mem/common\los_slab.c ****     {
 118:C:/Users/lenovo/Desktop/liteos/Project2/BearPi_LiteOS/kernel/base/mem/common\los_slab.c ****         uwB = pstBitset->numBits - 1;
 119:C:/Users/lenovo/Desktop/liteos/Project2/BearPi_LiteOS/kernel/base/mem/common\los_slab.c ****     }
 120:C:/Users/lenovo/Desktop/liteos/Project2/BearPi_LiteOS/kernel/base/mem/common\los_slab.c ****     uwRet = uwB - (swIdx & 31);
 312              		.loc 1 120 0
 313 0012 01F01F01 		and	r1, r1, #31
 314              	.LVL40:
 315 0016 401A     		subs	r0, r0, r1
 316              	.LVL41:
 121:C:/Users/lenovo/Desktop/liteos/Project2/BearPi_LiteOS/kernel/base/mem/common\los_slab.c ****     return uwRet;
 317              		.loc 1 121 0
 318 0018 7047     		bx	lr
 319              	.LVL42:
 320              	.L27:
 113:C:/Users/lenovo/Desktop/liteos/Project2/BearPi_LiteOS/kernel/base/mem/common\los_slab.c ****     }
 321              		.loc 1 113 0
 322 001a 0846     		mov	r0, r1
 323              	.LVL43:
 122:C:/Users/lenovo/Desktop/liteos/Project2/BearPi_LiteOS/kernel/base/mem/common\los_slab.c **** }
 324              		.loc 1 122 0
 325 001c 7047     		bx	lr
 326              		.cfi_endproc
 327              	.LFE138:
 329              		.section	.text.osAtomicBitsetEmpty,"ax",%progbits
 330              		.align	1
 331              		.global	osAtomicBitsetEmpty
 332              		.syntax unified
 333              		.thumb
 334              		.thumb_func
 335              		.fpu fpv4-sp-d16
 337              	osAtomicBitsetEmpty:
 338              	.LFB139:
 123:C:/Users/lenovo/Desktop/liteos/Project2/BearPi_LiteOS/kernel/base/mem/common\los_slab.c **** 
ARM GAS  c:\Users\lenovo\AppData\Local\Temp\ccyb3L8f.s 			page 9


 124:C:/Users/lenovo/Desktop/liteos/Project2/BearPi_LiteOS/kernel/base/mem/common\los_slab.c **** BOOL osAtomicBitsetEmpty(struct AtomicBitset *pstBitset)
 125:C:/Users/lenovo/Desktop/liteos/Project2/BearPi_LiteOS/kernel/base/mem/common\los_slab.c **** {
 339              		.loc 1 125 0
 340              		.cfi_startproc
 341              		@ args = 0, pretend = 0, frame = 0
 342              		@ frame_needed = 0, uses_anonymous_args = 0
 343              		@ link register save eliminated.
 344              	.LVL44:
 126:C:/Users/lenovo/Desktop/liteos/Project2/BearPi_LiteOS/kernel/base/mem/common\los_slab.c ****     UINT32 uwIdx = 0;
 127:C:/Users/lenovo/Desktop/liteos/Project2/BearPi_LiteOS/kernel/base/mem/common\los_slab.c ****     for (uwIdx = 0; uwIdx < pstBitset->numBits / 32;)
 345              		.loc 1 127 0
 346 0000 0023     		movs	r3, #0
 347              	.LVL45:
 348              	.L29:
 349              		.loc 1 127 0 is_stmt 0 discriminator 1
 350 0002 0268     		ldr	r2, [r0]
 351 0004 B3EB521F 		cmp	r3, r2, lsr #5
 352 0008 05D2     		bcs	.L35
 128:C:/Users/lenovo/Desktop/liteos/Project2/BearPi_LiteOS/kernel/base/mem/common\los_slab.c ****     {
 129:C:/Users/lenovo/Desktop/liteos/Project2/BearPi_LiteOS/kernel/base/mem/common\los_slab.c ****         if (pstBitset->words[uwIdx] != 0)
 353              		.loc 1 129 0 is_stmt 1
 354 000a 00EB8302 		add	r2, r0, r3, lsl #2
 355 000e 5268     		ldr	r2, [r2, #4]
 356 0010 82B9     		cbnz	r2, .L32
 130:C:/Users/lenovo/Desktop/liteos/Project2/BearPi_LiteOS/kernel/base/mem/common\los_slab.c ****         {
 131:C:/Users/lenovo/Desktop/liteos/Project2/BearPi_LiteOS/kernel/base/mem/common\los_slab.c ****             return FALSE;
 132:C:/Users/lenovo/Desktop/liteos/Project2/BearPi_LiteOS/kernel/base/mem/common\los_slab.c ****         }
 133:C:/Users/lenovo/Desktop/liteos/Project2/BearPi_LiteOS/kernel/base/mem/common\los_slab.c ****         uwIdx++;
 357              		.loc 1 133 0
 358 0012 0133     		adds	r3, r3, #1
 359              	.LVL46:
 360 0014 F5E7     		b	.L29
 361              	.L35:
 134:C:/Users/lenovo/Desktop/liteos/Project2/BearPi_LiteOS/kernel/base/mem/common\los_slab.c ****     }
 135:C:/Users/lenovo/Desktop/liteos/Project2/BearPi_LiteOS/kernel/base/mem/common\los_slab.c ****     if (pstBitset->numBits & 31)
 362              		.loc 1 135 0
 363 0016 12F01F02 		ands	r2, r2, #31
 364 001a 0DD0     		beq	.L33
 136:C:/Users/lenovo/Desktop/liteos/Project2/BearPi_LiteOS/kernel/base/mem/common\los_slab.c ****     {
 137:C:/Users/lenovo/Desktop/liteos/Project2/BearPi_LiteOS/kernel/base/mem/common\los_slab.c ****         if (pstBitset->words[uwIdx] & ~(0xFFFFFFFF << (pstBitset->numBits & 31)))
 365              		.loc 1 137 0
 366 001c 00EB8303 		add	r3, r0, r3, lsl #2
 367              	.LVL47:
 368 0020 5968     		ldr	r1, [r3, #4]
 369 0022 4FF0FF33 		mov	r3, #-1
 370 0026 03FA02F2 		lsl	r2, r3, r2
 371 002a 31EA0203 		bics	r3, r1, r2
 372 002e 05D1     		bne	.L34
 138:C:/Users/lenovo/Desktop/liteos/Project2/BearPi_LiteOS/kernel/base/mem/common\los_slab.c ****         {
 139:C:/Users/lenovo/Desktop/liteos/Project2/BearPi_LiteOS/kernel/base/mem/common\los_slab.c ****             return FALSE;
 140:C:/Users/lenovo/Desktop/liteos/Project2/BearPi_LiteOS/kernel/base/mem/common\los_slab.c ****         }
 141:C:/Users/lenovo/Desktop/liteos/Project2/BearPi_LiteOS/kernel/base/mem/common\los_slab.c ****     }
 142:C:/Users/lenovo/Desktop/liteos/Project2/BearPi_LiteOS/kernel/base/mem/common\los_slab.c ****     return TRUE;
 373              		.loc 1 142 0
 374 0030 0120     		movs	r0, #1
 375              	.LVL48:
 376 0032 7047     		bx	lr
ARM GAS  c:\Users\lenovo\AppData\Local\Temp\ccyb3L8f.s 			page 10


 377              	.LVL49:
 378              	.L32:
 131:C:/Users/lenovo/Desktop/liteos/Project2/BearPi_LiteOS/kernel/base/mem/common\los_slab.c ****         }
 379              		.loc 1 131 0
 380 0034 0020     		movs	r0, #0
 381              	.LVL50:
 382 0036 7047     		bx	lr
 383              	.LVL51:
 384              	.L33:
 385              		.loc 1 142 0
 386 0038 0120     		movs	r0, #1
 387              	.LVL52:
 388 003a 7047     		bx	lr
 389              	.LVL53:
 390              	.L34:
 139:C:/Users/lenovo/Desktop/liteos/Project2/BearPi_LiteOS/kernel/base/mem/common\los_slab.c ****         }
 391              		.loc 1 139 0
 392 003c 0020     		movs	r0, #0
 393              	.LVL54:
 143:C:/Users/lenovo/Desktop/liteos/Project2/BearPi_LiteOS/kernel/base/mem/common\los_slab.c **** }
 394              		.loc 1 143 0
 395 003e 7047     		bx	lr
 396              		.cfi_endproc
 397              	.LFE139:
 399              		.section	.text.osSlabAllocatorNew,"ax",%progbits
 400              		.align	1
 401              		.global	osSlabAllocatorNew
 402              		.syntax unified
 403              		.thumb
 404              		.thumb_func
 405              		.fpu fpv4-sp-d16
 407              	osSlabAllocatorNew:
 408              	.LFB140:
 144:C:/Users/lenovo/Desktop/liteos/Project2/BearPi_LiteOS/kernel/base/mem/common\los_slab.c **** 
 145:C:/Users/lenovo/Desktop/liteos/Project2/BearPi_LiteOS/kernel/base/mem/common\los_slab.c **** OS_SLAB_ALLOCATOR* osSlabAllocatorNew(VOID *pPool, UINT32 uwItemSz, UINT32 uwItemAlign, UINT32 uwNu
 146:C:/Users/lenovo/Desktop/liteos/Project2/BearPi_LiteOS/kernel/base/mem/common\los_slab.c **** {
 409              		.loc 1 146 0
 410              		.cfi_startproc
 411              		@ args = 0, pretend = 0, frame = 0
 412              		@ frame_needed = 0, uses_anonymous_args = 0
 413              	.LVL55:
 414 0000 F8B5     		push	{r3, r4, r5, r6, r7, lr}
 415              	.LCFI6:
 416              		.cfi_def_cfa_offset 24
 417              		.cfi_offset 3, -24
 418              		.cfi_offset 4, -20
 419              		.cfi_offset 5, -16
 420              		.cfi_offset 6, -12
 421              		.cfi_offset 7, -8
 422              		.cfi_offset 14, -4
 423 0002 1D46     		mov	r5, r3
 147:C:/Users/lenovo/Desktop/liteos/Project2/BearPi_LiteOS/kernel/base/mem/common\los_slab.c ****     OS_SLAB_ALLOCATOR *pstAllocator;
 148:C:/Users/lenovo/Desktop/liteos/Project2/BearPi_LiteOS/kernel/base/mem/common\los_slab.c ****     UINT32 uwBitsetSz, uwDataSz;
 149:C:/Users/lenovo/Desktop/liteos/Project2/BearPi_LiteOS/kernel/base/mem/common\los_slab.c **** 
 150:C:/Users/lenovo/Desktop/liteos/Project2/BearPi_LiteOS/kernel/base/mem/common\los_slab.c ****     /* calcualte size */
 151:C:/Users/lenovo/Desktop/liteos/Project2/BearPi_LiteOS/kernel/base/mem/common\los_slab.c ****     uwBitsetSz = ATOMIC_BITSET_SZ(uwNumItems);
 424              		.loc 1 151 0
ARM GAS  c:\Users\lenovo\AppData\Local\Temp\ccyb3L8f.s 			page 11


 425 0004 03F11F04 		add	r4, r3, #31
 426 0008 E408     		lsrs	r4, r4, #3
 427 000a 0434     		adds	r4, r4, #4
 428              	.LVL56:
 152:C:/Users/lenovo/Desktop/liteos/Project2/BearPi_LiteOS/kernel/base/mem/common\los_slab.c **** 
 153:C:/Users/lenovo/Desktop/liteos/Project2/BearPi_LiteOS/kernel/base/mem/common\los_slab.c ****     uwBitsetSz = (uwBitsetSz + uwItemAlign - 1) & ~(uwItemAlign - 1);
 429              		.loc 1 153 0
 430 000c 1444     		add	r4, r4, r2
 431              	.LVL57:
 432 000e 013C     		subs	r4, r4, #1
 433 0010 5342     		negs	r3, r2
 434              	.LVL58:
 435 0012 1C40     		ands	r4, r4, r3
 436              	.LVL59:
 154:C:/Users/lenovo/Desktop/liteos/Project2/BearPi_LiteOS/kernel/base/mem/common\los_slab.c ****     uwItemSz = (uwItemSz + uwItemAlign - 1) & ~(uwItemAlign - 1);
 437              		.loc 1 154 0
 438 0014 1144     		add	r1, r1, r2
 439              	.LVL60:
 440 0016 0139     		subs	r1, r1, #1
 441 0018 03EA0106 		and	r6, r3, r1
 442              	.LVL61:
 155:C:/Users/lenovo/Desktop/liteos/Project2/BearPi_LiteOS/kernel/base/mem/common\los_slab.c ****     uwDataSz = uwItemSz * uwNumItems;
 156:C:/Users/lenovo/Desktop/liteos/Project2/BearPi_LiteOS/kernel/base/mem/common\los_slab.c **** 
 157:C:/Users/lenovo/Desktop/liteos/Project2/BearPi_LiteOS/kernel/base/mem/common\los_slab.c ****     pstAllocator = (OS_SLAB_ALLOCATOR*)osHeapAlloc(pPool, sizeof(OS_SLAB_ALLOCATOR) + uwBitsetSz + 
 443              		.loc 1 157 0
 444 001c 06FB0541 		mla	r1, r6, r5, r4
 445 0020 0C31     		adds	r1, r1, #12
 446 0022 FFF7FEFF 		bl	osHeapAlloc
 447              	.LVL62:
 158:C:/Users/lenovo/Desktop/liteos/Project2/BearPi_LiteOS/kernel/base/mem/common\los_slab.c **** 
 159:C:/Users/lenovo/Desktop/liteos/Project2/BearPi_LiteOS/kernel/base/mem/common\los_slab.c ****     if (pstAllocator)
 448              		.loc 1 159 0
 449 0026 0746     		mov	r7, r0
 450 0028 38B1     		cbz	r0, .L36
 160:C:/Users/lenovo/Desktop/liteos/Project2/BearPi_LiteOS/kernel/base/mem/common\los_slab.c ****     {
 161:C:/Users/lenovo/Desktop/liteos/Project2/BearPi_LiteOS/kernel/base/mem/common\los_slab.c ****         pstAllocator->uwItemSz = uwItemSz;
 451              		.loc 1 161 0
 452 002a 40F80C6B 		str	r6, [r0], #12
 453              	.LVL63:
 162:C:/Users/lenovo/Desktop/liteos/Project2/BearPi_LiteOS/kernel/base/mem/common\los_slab.c **** 
 163:C:/Users/lenovo/Desktop/liteos/Project2/BearPi_LiteOS/kernel/base/mem/common\los_slab.c ****         pstAllocator->bitset = (struct AtomicBitset *)((UINT8*)pstAllocator + sizeof(OS_SLAB_ALLOCA
 454              		.loc 1 163 0
 455 002e B860     		str	r0, [r7, #8]
 164:C:/Users/lenovo/Desktop/liteos/Project2/BearPi_LiteOS/kernel/base/mem/common\los_slab.c ****         pstAllocator->ucDataChunks = ((UINT8*)pstAllocator->bitset) + uwBitsetSz;
 456              		.loc 1 164 0
 457 0030 0444     		add	r4, r4, r0
 458              	.LVL64:
 459 0032 7C60     		str	r4, [r7, #4]
 165:C:/Users/lenovo/Desktop/liteos/Project2/BearPi_LiteOS/kernel/base/mem/common\los_slab.c ****         osAtomicBitsetInit(pstAllocator->bitset, uwNumItems);
 460              		.loc 1 165 0
 461 0034 2946     		mov	r1, r5
 462 0036 FFF7FEFF 		bl	osAtomicBitsetInit
 463              	.LVL65:
 464              	.L36:
 166:C:/Users/lenovo/Desktop/liteos/Project2/BearPi_LiteOS/kernel/base/mem/common\los_slab.c ****     }
 167:C:/Users/lenovo/Desktop/liteos/Project2/BearPi_LiteOS/kernel/base/mem/common\los_slab.c **** 
 168:C:/Users/lenovo/Desktop/liteos/Project2/BearPi_LiteOS/kernel/base/mem/common\los_slab.c ****     return pstAllocator;
ARM GAS  c:\Users\lenovo\AppData\Local\Temp\ccyb3L8f.s 			page 12


 169:C:/Users/lenovo/Desktop/liteos/Project2/BearPi_LiteOS/kernel/base/mem/common\los_slab.c **** }
 465              		.loc 1 169 0
 466 003a 3846     		mov	r0, r7
 467 003c F8BD     		pop	{r3, r4, r5, r6, r7, pc}
 468              		.cfi_endproc
 469              	.LFE140:
 471              		.section	.text.osSlabAllocatorDestroy,"ax",%progbits
 472              		.align	1
 473              		.global	osSlabAllocatorDestroy
 474              		.syntax unified
 475              		.thumb
 476              		.thumb_func
 477              		.fpu fpv4-sp-d16
 479              	osSlabAllocatorDestroy:
 480              	.LFB141:
 170:C:/Users/lenovo/Desktop/liteos/Project2/BearPi_LiteOS/kernel/base/mem/common\los_slab.c **** 
 171:C:/Users/lenovo/Desktop/liteos/Project2/BearPi_LiteOS/kernel/base/mem/common\los_slab.c **** 
 172:C:/Users/lenovo/Desktop/liteos/Project2/BearPi_LiteOS/kernel/base/mem/common\los_slab.c **** VOID osSlabAllocatorDestroy(VOID *pPool, OS_SLAB_ALLOCATOR *pstAllocator)
 173:C:/Users/lenovo/Desktop/liteos/Project2/BearPi_LiteOS/kernel/base/mem/common\los_slab.c **** {
 481              		.loc 1 173 0
 482              		.cfi_startproc
 483              		@ args = 0, pretend = 0, frame = 0
 484              		@ frame_needed = 0, uses_anonymous_args = 0
 485              	.LVL66:
 486 0000 08B5     		push	{r3, lr}
 487              	.LCFI7:
 488              		.cfi_def_cfa_offset 8
 489              		.cfi_offset 3, -8
 490              		.cfi_offset 14, -4
 174:C:/Users/lenovo/Desktop/liteos/Project2/BearPi_LiteOS/kernel/base/mem/common\los_slab.c ****     (VOID)osHeapFree(pPool, pstAllocator);
 491              		.loc 1 174 0
 492 0002 FFF7FEFF 		bl	osHeapFree
 493              	.LVL67:
 175:C:/Users/lenovo/Desktop/liteos/Project2/BearPi_LiteOS/kernel/base/mem/common\los_slab.c **** }
 494              		.loc 1 175 0
 495 0006 08BD     		pop	{r3, pc}
 496              		.cfi_endproc
 497              	.LFE141:
 499              		.section	.text.osSlabAllocatorAlloc,"ax",%progbits
 500              		.align	1
 501              		.global	osSlabAllocatorAlloc
 502              		.syntax unified
 503              		.thumb
 504              		.thumb_func
 505              		.fpu fpv4-sp-d16
 507              	osSlabAllocatorAlloc:
 508              	.LFB142:
 176:C:/Users/lenovo/Desktop/liteos/Project2/BearPi_LiteOS/kernel/base/mem/common\los_slab.c **** 
 177:C:/Users/lenovo/Desktop/liteos/Project2/BearPi_LiteOS/kernel/base/mem/common\los_slab.c **** VOID* osSlabAllocatorAlloc(OS_SLAB_ALLOCATOR *pstAllocator)
 178:C:/Users/lenovo/Desktop/liteos/Project2/BearPi_LiteOS/kernel/base/mem/common\los_slab.c **** {
 509              		.loc 1 178 0
 510              		.cfi_startproc
 511              		@ args = 0, pretend = 0, frame = 0
 512              		@ frame_needed = 0, uses_anonymous_args = 0
 513              	.LVL68:
 514 0000 10B5     		push	{r4, lr}
 515              	.LCFI8:
ARM GAS  c:\Users\lenovo\AppData\Local\Temp\ccyb3L8f.s 			page 13


 516              		.cfi_def_cfa_offset 8
 517              		.cfi_offset 4, -8
 518              		.cfi_offset 14, -4
 519 0002 0446     		mov	r4, r0
 179:C:/Users/lenovo/Desktop/liteos/Project2/BearPi_LiteOS/kernel/base/mem/common\los_slab.c ****     INT32 swItemIdx = osAtomicBitsetFindClearAndSet(pstAllocator->bitset);
 520              		.loc 1 179 0
 521 0004 8068     		ldr	r0, [r0, #8]
 522              	.LVL69:
 523 0006 FFF7FEFF 		bl	osAtomicBitsetFindClearAndSet
 524              	.LVL70:
 180:C:/Users/lenovo/Desktop/liteos/Project2/BearPi_LiteOS/kernel/base/mem/common\los_slab.c ****     if (swItemIdx < 0)
 525              		.loc 1 180 0
 526 000a 0028     		cmp	r0, #0
 527 000c 04DB     		blt	.L43
 181:C:/Users/lenovo/Desktop/liteos/Project2/BearPi_LiteOS/kernel/base/mem/common\los_slab.c ****         return NULL;
 182:C:/Users/lenovo/Desktop/liteos/Project2/BearPi_LiteOS/kernel/base/mem/common\los_slab.c **** 
 183:C:/Users/lenovo/Desktop/liteos/Project2/BearPi_LiteOS/kernel/base/mem/common\los_slab.c ****     return pstAllocator->ucDataChunks + pstAllocator->uwItemSz * swItemIdx;
 528              		.loc 1 183 0
 529 000e 6368     		ldr	r3, [r4, #4]
 530 0010 2268     		ldr	r2, [r4]
 531 0012 02FB0030 		mla	r0, r2, r0, r3
 532              	.LVL71:
 533              	.L41:
 184:C:/Users/lenovo/Desktop/liteos/Project2/BearPi_LiteOS/kernel/base/mem/common\los_slab.c **** }
 534              		.loc 1 184 0
 535 0016 10BD     		pop	{r4, pc}
 536              	.LVL72:
 537              	.L43:
 181:C:/Users/lenovo/Desktop/liteos/Project2/BearPi_LiteOS/kernel/base/mem/common\los_slab.c ****         return NULL;
 538              		.loc 1 181 0
 539 0018 0020     		movs	r0, #0
 540              	.LVL73:
 541 001a FCE7     		b	.L41
 542              		.cfi_endproc
 543              	.LFE142:
 545              		.section	.text.osSlabAllocatorFree,"ax",%progbits
 546              		.align	1
 547              		.global	osSlabAllocatorFree
 548              		.syntax unified
 549              		.thumb
 550              		.thumb_func
 551              		.fpu fpv4-sp-d16
 553              	osSlabAllocatorFree:
 554              	.LFB143:
 185:C:/Users/lenovo/Desktop/liteos/Project2/BearPi_LiteOS/kernel/base/mem/common\los_slab.c **** 
 186:C:/Users/lenovo/Desktop/liteos/Project2/BearPi_LiteOS/kernel/base/mem/common\los_slab.c **** BOOL osSlabAllocatorFree(OS_SLAB_ALLOCATOR *pstAllocator, VOID* ptrP)
 187:C:/Users/lenovo/Desktop/liteos/Project2/BearPi_LiteOS/kernel/base/mem/common\los_slab.c **** {
 555              		.loc 1 187 0
 556              		.cfi_startproc
 557              		@ args = 0, pretend = 0, frame = 0
 558              		@ frame_needed = 0, uses_anonymous_args = 0
 559              	.LVL74:
 560 0000 38B5     		push	{r3, r4, r5, lr}
 561              	.LCFI9:
 562              		.cfi_def_cfa_offset 16
 563              		.cfi_offset 3, -16
 564              		.cfi_offset 4, -12
ARM GAS  c:\Users\lenovo\AppData\Local\Temp\ccyb3L8f.s 			page 14


 565              		.cfi_offset 5, -8
 566              		.cfi_offset 14, -4
 567              	.LVL75:
 188:C:/Users/lenovo/Desktop/liteos/Project2/BearPi_LiteOS/kernel/base/mem/common\los_slab.c ****     UINT8 *ptr = (UINT8*)ptrP;
 189:C:/Users/lenovo/Desktop/liteos/Project2/BearPi_LiteOS/kernel/base/mem/common\los_slab.c ****     UINT32 uwItemOffset = ptr - pstAllocator->ucDataChunks;
 568              		.loc 1 189 0
 569 0002 4368     		ldr	r3, [r0, #4]
 570 0004 C91A     		subs	r1, r1, r3
 571              	.LVL76:
 190:C:/Users/lenovo/Desktop/liteos/Project2/BearPi_LiteOS/kernel/base/mem/common\los_slab.c ****     UINT32 uwItemIdx = uwItemOffset / pstAllocator->uwItemSz;
 572              		.loc 1 190 0
 573 0006 0368     		ldr	r3, [r0]
 574 0008 B1FBF3F4 		udiv	r4, r1, r3
 575              	.LVL77:
 191:C:/Users/lenovo/Desktop/liteos/Project2/BearPi_LiteOS/kernel/base/mem/common\los_slab.c **** 
 192:C:/Users/lenovo/Desktop/liteos/Project2/BearPi_LiteOS/kernel/base/mem/common\los_slab.c ****     //check for invalid inputs
 193:C:/Users/lenovo/Desktop/liteos/Project2/BearPi_LiteOS/kernel/base/mem/common\los_slab.c ****     if ((uwItemOffset % pstAllocator->uwItemSz) || (uwItemIdx >= osAtomicBitsetGetNumBits(pstAlloca
 576              		.loc 1 193 0
 577 000c 03FB1413 		mls	r3, r3, r4, r1
 578 0010 7BB9     		cbnz	r3, .L47
 579              		.loc 1 193 0 is_stmt 0 discriminator 1
 580 0012 8568     		ldr	r5, [r0, #8]
 581              	.LVL78:
 582              	.LBB12:
 583              	.LBB13:
  53:C:/Users/lenovo/Desktop/liteos/Project2/BearPi_LiteOS/kernel/base/mem/common\los_slab.c **** }
 584              		.loc 1 53 0 is_stmt 1 discriminator 1
 585 0014 2B68     		ldr	r3, [r5]
 586              	.LVL79:
 587              	.LBE13:
 588              	.LBE12:
 589              		.loc 1 193 0 discriminator 1
 590 0016 9C42     		cmp	r4, r3
 591 0018 0ED2     		bcs	.L48
 592              		.loc 1 193 0 is_stmt 0 discriminator 2
 593 001a 2146     		mov	r1, r4
 594              	.LVL80:
 595 001c 2846     		mov	r0, r5
 596              	.LVL81:
 597 001e FFF7FEFF 		bl	osAtomicBitsetGetBit
 598              	.LVL82:
 599 0022 0346     		mov	r3, r0
 600 0024 30B1     		cbz	r0, .L45
 194:C:/Users/lenovo/Desktop/liteos/Project2/BearPi_LiteOS/kernel/base/mem/common\los_slab.c ****         return FALSE;
 195:C:/Users/lenovo/Desktop/liteos/Project2/BearPi_LiteOS/kernel/base/mem/common\los_slab.c **** 
 196:C:/Users/lenovo/Desktop/liteos/Project2/BearPi_LiteOS/kernel/base/mem/common\los_slab.c ****     osAtomicBitsetClearBit(pstAllocator->bitset, uwItemIdx);
 601              		.loc 1 196 0 is_stmt 1
 602 0026 2146     		mov	r1, r4
 603 0028 2846     		mov	r0, r5
 604 002a FFF7FEFF 		bl	osAtomicBitsetClearBit
 605              	.LVL83:
 197:C:/Users/lenovo/Desktop/liteos/Project2/BearPi_LiteOS/kernel/base/mem/common\los_slab.c ****     return TRUE;
 606              		.loc 1 197 0
 607 002e 0123     		movs	r3, #1
 608 0030 00E0     		b	.L45
 609              	.LVL84:
 610              	.L47:
ARM GAS  c:\Users\lenovo\AppData\Local\Temp\ccyb3L8f.s 			page 15


 194:C:/Users/lenovo/Desktop/liteos/Project2/BearPi_LiteOS/kernel/base/mem/common\los_slab.c ****         return FALSE;
 611              		.loc 1 194 0
 612 0032 0023     		movs	r3, #0
 613              	.LVL85:
 614              	.L45:
 198:C:/Users/lenovo/Desktop/liteos/Project2/BearPi_LiteOS/kernel/base/mem/common\los_slab.c **** }
 615              		.loc 1 198 0
 616 0034 1846     		mov	r0, r3
 617 0036 38BD     		pop	{r3, r4, r5, pc}
 618              	.LVL86:
 619              	.L48:
 194:C:/Users/lenovo/Desktop/liteos/Project2/BearPi_LiteOS/kernel/base/mem/common\los_slab.c ****         return FALSE;
 620              		.loc 1 194 0
 621 0038 0023     		movs	r3, #0
 622 003a FBE7     		b	.L45
 623              		.cfi_endproc
 624              	.LFE143:
 626              		.section	.text.osSlabAllocatorGetNth,"ax",%progbits
 627              		.align	1
 628              		.global	osSlabAllocatorGetNth
 629              		.syntax unified
 630              		.thumb
 631              		.thumb_func
 632              		.fpu fpv4-sp-d16
 634              	osSlabAllocatorGetNth:
 635              	.LFB144:
 199:C:/Users/lenovo/Desktop/liteos/Project2/BearPi_LiteOS/kernel/base/mem/common\los_slab.c **** 
 200:C:/Users/lenovo/Desktop/liteos/Project2/BearPi_LiteOS/kernel/base/mem/common\los_slab.c **** VOID* osSlabAllocatorGetNth(OS_SLAB_ALLOCATOR *pstAllocator, UINT32 uwIdx)
 201:C:/Users/lenovo/Desktop/liteos/Project2/BearPi_LiteOS/kernel/base/mem/common\los_slab.c **** {
 636              		.loc 1 201 0
 637              		.cfi_startproc
 638              		@ args = 0, pretend = 0, frame = 0
 639              		@ frame_needed = 0, uses_anonymous_args = 0
 640              	.LVL87:
 641 0000 38B5     		push	{r3, r4, r5, lr}
 642              	.LCFI10:
 643              		.cfi_def_cfa_offset 16
 644              		.cfi_offset 3, -16
 645              		.cfi_offset 4, -12
 646              		.cfi_offset 5, -8
 647              		.cfi_offset 14, -4
 648 0002 0446     		mov	r4, r0
 649 0004 0D46     		mov	r5, r1
 202:C:/Users/lenovo/Desktop/liteos/Project2/BearPi_LiteOS/kernel/base/mem/common\los_slab.c ****     if (!osAtomicBitsetGetBit(pstAllocator->bitset, uwIdx))
 650              		.loc 1 202 0
 651 0006 8068     		ldr	r0, [r0, #8]
 652              	.LVL88:
 653 0008 FFF7FEFF 		bl	osAtomicBitsetGetBit
 654              	.LVL89:
 655 000c 20B1     		cbz	r0, .L52
 203:C:/Users/lenovo/Desktop/liteos/Project2/BearPi_LiteOS/kernel/base/mem/common\los_slab.c ****         return NULL;
 204:C:/Users/lenovo/Desktop/liteos/Project2/BearPi_LiteOS/kernel/base/mem/common\los_slab.c **** 
 205:C:/Users/lenovo/Desktop/liteos/Project2/BearPi_LiteOS/kernel/base/mem/common\los_slab.c ****     return pstAllocator->ucDataChunks + pstAllocator->uwItemSz * uwIdx;
 656              		.loc 1 205 0
 657 000e 6368     		ldr	r3, [r4, #4]
 658 0010 2068     		ldr	r0, [r4]
 659 0012 05FB0030 		mla	r0, r5, r0, r3
ARM GAS  c:\Users\lenovo\AppData\Local\Temp\ccyb3L8f.s 			page 16


 660              	.L50:
 206:C:/Users/lenovo/Desktop/liteos/Project2/BearPi_LiteOS/kernel/base/mem/common\los_slab.c **** }
 661              		.loc 1 206 0
 662 0016 38BD     		pop	{r3, r4, r5, pc}
 663              	.LVL90:
 664              	.L52:
 203:C:/Users/lenovo/Desktop/liteos/Project2/BearPi_LiteOS/kernel/base/mem/common\los_slab.c ****         return NULL;
 665              		.loc 1 203 0
 666 0018 0020     		movs	r0, #0
 667 001a FCE7     		b	.L50
 668              		.cfi_endproc
 669              	.LFE144:
 671              		.section	.text.osSlabAllocatorGetIdxP,"ax",%progbits
 672              		.align	1
 673              		.global	osSlabAllocatorGetIdxP
 674              		.syntax unified
 675              		.thumb
 676              		.thumb_func
 677              		.fpu fpv4-sp-d16
 679              	osSlabAllocatorGetIdxP:
 680              	.LFB145:
 207:C:/Users/lenovo/Desktop/liteos/Project2/BearPi_LiteOS/kernel/base/mem/common\los_slab.c **** 
 208:C:/Users/lenovo/Desktop/liteos/Project2/BearPi_LiteOS/kernel/base/mem/common\los_slab.c **** VOID* osSlabAllocatorGetIdxP(OS_SLAB_ALLOCATOR *pstAllocator, UINT32 uwIdx)
 209:C:/Users/lenovo/Desktop/liteos/Project2/BearPi_LiteOS/kernel/base/mem/common\los_slab.c **** {
 681              		.loc 1 209 0
 682              		.cfi_startproc
 683              		@ args = 0, pretend = 0, frame = 0
 684              		@ frame_needed = 0, uses_anonymous_args = 0
 685              		@ link register save eliminated.
 686              	.LVL91:
 210:C:/Users/lenovo/Desktop/liteos/Project2/BearPi_LiteOS/kernel/base/mem/common\los_slab.c ****     return pstAllocator->ucDataChunks + pstAllocator->uwItemSz * uwIdx;
 687              		.loc 1 210 0
 688 0000 4368     		ldr	r3, [r0, #4]
 689 0002 0068     		ldr	r0, [r0]
 690              	.LVL92:
 211:C:/Users/lenovo/Desktop/liteos/Project2/BearPi_LiteOS/kernel/base/mem/common\los_slab.c **** }
 691              		.loc 1 211 0
 692 0004 01FB0030 		mla	r0, r1, r0, r3
 693 0008 7047     		bx	lr
 694              		.cfi_endproc
 695              	.LFE145:
 697              		.section	.text.osSlabAllocatorGetIndex,"ax",%progbits
 698              		.align	1
 699              		.global	osSlabAllocatorGetIndex
 700              		.syntax unified
 701              		.thumb
 702              		.thumb_func
 703              		.fpu fpv4-sp-d16
 705              	osSlabAllocatorGetIndex:
 706              	.LFB146:
 212:C:/Users/lenovo/Desktop/liteos/Project2/BearPi_LiteOS/kernel/base/mem/common\los_slab.c **** 
 213:C:/Users/lenovo/Desktop/liteos/Project2/BearPi_LiteOS/kernel/base/mem/common\los_slab.c **** UINT32 osSlabAllocatorGetIndex(OS_SLAB_ALLOCATOR *pstAllocator, VOID* ptrP)
 214:C:/Users/lenovo/Desktop/liteos/Project2/BearPi_LiteOS/kernel/base/mem/common\los_slab.c **** {
 707              		.loc 1 214 0
 708              		.cfi_startproc
 709              		@ args = 0, pretend = 0, frame = 0
 710              		@ frame_needed = 0, uses_anonymous_args = 0
ARM GAS  c:\Users\lenovo\AppData\Local\Temp\ccyb3L8f.s 			page 17


 711              	.LVL93:
 712 0000 10B5     		push	{r4, lr}
 713              	.LCFI11:
 714              		.cfi_def_cfa_offset 8
 715              		.cfi_offset 4, -8
 716              		.cfi_offset 14, -4
 717              	.LVL94:
 215:C:/Users/lenovo/Desktop/liteos/Project2/BearPi_LiteOS/kernel/base/mem/common\los_slab.c ****     UINT8 *ptr = (UINT8*)ptrP;
 216:C:/Users/lenovo/Desktop/liteos/Project2/BearPi_LiteOS/kernel/base/mem/common\los_slab.c ****     UINT32 uwItemOffset = ptr - pstAllocator->ucDataChunks;
 718              		.loc 1 216 0
 719 0002 4368     		ldr	r3, [r0, #4]
 720 0004 C91A     		subs	r1, r1, r3
 721              	.LVL95:
 217:C:/Users/lenovo/Desktop/liteos/Project2/BearPi_LiteOS/kernel/base/mem/common\los_slab.c ****     UINT32 uwItemIdx = uwItemOffset / pstAllocator->uwItemSz;
 722              		.loc 1 217 0
 723 0006 0368     		ldr	r3, [r0]
 724 0008 B1FBF3F4 		udiv	r4, r1, r3
 725              	.LVL96:
 218:C:/Users/lenovo/Desktop/liteos/Project2/BearPi_LiteOS/kernel/base/mem/common\los_slab.c **** 
 219:C:/Users/lenovo/Desktop/liteos/Project2/BearPi_LiteOS/kernel/base/mem/common\los_slab.c ****     if ((uwItemOffset % pstAllocator->uwItemSz) || (uwItemIdx >= osAtomicBitsetGetNumBits(pstAlloca
 726              		.loc 1 219 0
 727 000c 03FB1413 		mls	r3, r3, r4, r1
 728 0010 4BB9     		cbnz	r3, .L57
 729              		.loc 1 219 0 is_stmt 0 discriminator 1
 730 0012 8068     		ldr	r0, [r0, #8]
 731              	.LVL97:
 732              	.LBB14:
 733              	.LBB15:
  53:C:/Users/lenovo/Desktop/liteos/Project2/BearPi_LiteOS/kernel/base/mem/common\los_slab.c **** }
 734              		.loc 1 53 0 is_stmt 1 discriminator 1
 735 0014 0368     		ldr	r3, [r0]
 736              	.LVL98:
 737              	.LBE15:
 738              	.LBE14:
 739              		.loc 1 219 0 discriminator 1
 740 0016 9C42     		cmp	r4, r3
 741 0018 08D2     		bcs	.L58
 742              		.loc 1 219 0 is_stmt 0 discriminator 2
 743 001a 2146     		mov	r1, r4
 744              	.LVL99:
 745 001c FFF7FEFF 		bl	osAtomicBitsetGetBit
 746              	.LVL100:
 747 0020 38B1     		cbz	r0, .L61
 748              	.LVL101:
 749              	.L55:
 220:C:/Users/lenovo/Desktop/liteos/Project2/BearPi_LiteOS/kernel/base/mem/common\los_slab.c ****         return (UINT32)(-1);
 221:C:/Users/lenovo/Desktop/liteos/Project2/BearPi_LiteOS/kernel/base/mem/common\los_slab.c **** 
 222:C:/Users/lenovo/Desktop/liteos/Project2/BearPi_LiteOS/kernel/base/mem/common\los_slab.c ****     return uwItemIdx;
 223:C:/Users/lenovo/Desktop/liteos/Project2/BearPi_LiteOS/kernel/base/mem/common\los_slab.c **** }
 750              		.loc 1 223 0 is_stmt 1
 751 0022 2046     		mov	r0, r4
 752 0024 10BD     		pop	{r4, pc}
 753              	.LVL102:
 754              	.L57:
 220:C:/Users/lenovo/Desktop/liteos/Project2/BearPi_LiteOS/kernel/base/mem/common\los_slab.c ****         return (UINT32)(-1);
 755              		.loc 1 220 0
 756 0026 4FF0FF34 		mov	r4, #-1
ARM GAS  c:\Users\lenovo\AppData\Local\Temp\ccyb3L8f.s 			page 18


 757              	.LVL103:
 758 002a FAE7     		b	.L55
 759              	.LVL104:
 760              	.L58:
 761 002c 4FF0FF34 		mov	r4, #-1
 762              	.LVL105:
 763 0030 F7E7     		b	.L55
 764              	.LVL106:
 765              	.L61:
 766 0032 4FF0FF34 		mov	r4, #-1
 767              	.LVL107:
 768 0036 F4E7     		b	.L55
 769              		.cfi_endproc
 770              	.LFE146:
 772              		.section	.text.osSlabAllocatorGetNumItems,"ax",%progbits
 773              		.align	1
 774              		.global	osSlabAllocatorGetNumItems
 775              		.syntax unified
 776              		.thumb
 777              		.thumb_func
 778              		.fpu fpv4-sp-d16
 780              	osSlabAllocatorGetNumItems:
 781              	.LFB147:
 224:C:/Users/lenovo/Desktop/liteos/Project2/BearPi_LiteOS/kernel/base/mem/common\los_slab.c **** 
 225:C:/Users/lenovo/Desktop/liteos/Project2/BearPi_LiteOS/kernel/base/mem/common\los_slab.c **** UINT32 osSlabAllocatorGetNumItems(OS_SLAB_ALLOCATOR *pstAllocator)
 226:C:/Users/lenovo/Desktop/liteos/Project2/BearPi_LiteOS/kernel/base/mem/common\los_slab.c **** {
 782              		.loc 1 226 0
 783              		.cfi_startproc
 784              		@ args = 0, pretend = 0, frame = 0
 785              		@ frame_needed = 0, uses_anonymous_args = 0
 786              		@ link register save eliminated.
 787              	.LVL108:
 227:C:/Users/lenovo/Desktop/liteos/Project2/BearPi_LiteOS/kernel/base/mem/common\los_slab.c ****     return osAtomicBitsetGetNumBits(pstAllocator->bitset);
 788              		.loc 1 227 0
 789 0000 8368     		ldr	r3, [r0, #8]
 228:C:/Users/lenovo/Desktop/liteos/Project2/BearPi_LiteOS/kernel/base/mem/common\los_slab.c **** }
 790              		.loc 1 228 0
 791 0002 1868     		ldr	r0, [r3]
 792              	.LVL109:
 793 0004 7047     		bx	lr
 794              		.cfi_endproc
 795              	.LFE147:
 797              		.section	.text.osSlabAllocatorEmpty,"ax",%progbits
 798              		.align	1
 799              		.global	osSlabAllocatorEmpty
 800              		.syntax unified
 801              		.thumb
 802              		.thumb_func
 803              		.fpu fpv4-sp-d16
 805              	osSlabAllocatorEmpty:
 806              	.LFB148:
 229:C:/Users/lenovo/Desktop/liteos/Project2/BearPi_LiteOS/kernel/base/mem/common\los_slab.c **** 
 230:C:/Users/lenovo/Desktop/liteos/Project2/BearPi_LiteOS/kernel/base/mem/common\los_slab.c **** BOOL osSlabAllocatorEmpty(OS_SLAB_ALLOCATOR *pstAllocator)
 231:C:/Users/lenovo/Desktop/liteos/Project2/BearPi_LiteOS/kernel/base/mem/common\los_slab.c **** {
 807              		.loc 1 231 0
 808              		.cfi_startproc
 809              		@ args = 0, pretend = 0, frame = 0
ARM GAS  c:\Users\lenovo\AppData\Local\Temp\ccyb3L8f.s 			page 19


 810              		@ frame_needed = 0, uses_anonymous_args = 0
 811              	.LVL110:
 812 0000 08B5     		push	{r3, lr}
 813              	.LCFI12:
 814              		.cfi_def_cfa_offset 8
 815              		.cfi_offset 3, -8
 816              		.cfi_offset 14, -4
 232:C:/Users/lenovo/Desktop/liteos/Project2/BearPi_LiteOS/kernel/base/mem/common\los_slab.c ****     return osAtomicBitsetEmpty(pstAllocator->bitset);
 817              		.loc 1 232 0
 818 0002 8068     		ldr	r0, [r0, #8]
 819              	.LVL111:
 820 0004 FFF7FEFF 		bl	osAtomicBitsetEmpty
 821              	.LVL112:
 233:C:/Users/lenovo/Desktop/liteos/Project2/BearPi_LiteOS/kernel/base/mem/common\los_slab.c **** }
 822              		.loc 1 233 0
 823 0008 08BD     		pop	{r3, pc}
 824              		.cfi_endproc
 825              	.LFE148:
 827              		.section	.text.osSlabAllocatorGetUsedItemCnt,"ax",%progbits
 828              		.align	1
 829              		.global	osSlabAllocatorGetUsedItemCnt
 830              		.syntax unified
 831              		.thumb
 832              		.thumb_func
 833              		.fpu fpv4-sp-d16
 835              	osSlabAllocatorGetUsedItemCnt:
 836              	.LFB149:
 234:C:/Users/lenovo/Desktop/liteos/Project2/BearPi_LiteOS/kernel/base/mem/common\los_slab.c **** 
 235:C:/Users/lenovo/Desktop/liteos/Project2/BearPi_LiteOS/kernel/base/mem/common\los_slab.c **** UINT32 osSlabAllocatorGetUsedItemCnt(OS_SLAB_ALLOCATOR *pstAllocator)
 236:C:/Users/lenovo/Desktop/liteos/Project2/BearPi_LiteOS/kernel/base/mem/common\los_slab.c **** {
 837              		.loc 1 236 0
 838              		.cfi_startproc
 839              		@ args = 0, pretend = 0, frame = 0
 840              		@ frame_needed = 0, uses_anonymous_args = 0
 841              	.LVL113:
 842 0000 70B5     		push	{r4, r5, r6, lr}
 843              	.LCFI13:
 844              		.cfi_def_cfa_offset 16
 845              		.cfi_offset 4, -16
 846              		.cfi_offset 5, -12
 847              		.cfi_offset 6, -8
 848              		.cfi_offset 14, -4
 237:C:/Users/lenovo/Desktop/liteos/Project2/BearPi_LiteOS/kernel/base/mem/common\los_slab.c ****     UINT32 uwUsed, uwIdx;
 238:C:/Users/lenovo/Desktop/liteos/Project2/BearPi_LiteOS/kernel/base/mem/common\los_slab.c ****     struct AtomicBitset *p_bitset = pstAllocator->bitset;
 849              		.loc 1 238 0
 850 0002 8568     		ldr	r5, [r0, #8]
 851              	.LVL114:
 239:C:/Users/lenovo/Desktop/liteos/Project2/BearPi_LiteOS/kernel/base/mem/common\los_slab.c ****     for (uwUsed = 0, uwIdx = 0; uwIdx < p_bitset->numBits; uwIdx++)
 852              		.loc 1 239 0
 853 0004 0024     		movs	r4, #0
 854 0006 2646     		mov	r6, r4
 855 0008 00E0     		b	.L66
 856              	.LVL115:
 857              	.L67:
 858              		.loc 1 239 0 is_stmt 0 discriminator 2
 859 000a 0134     		adds	r4, r4, #1
 860              	.LVL116:
ARM GAS  c:\Users\lenovo\AppData\Local\Temp\ccyb3L8f.s 			page 20


 861              	.L66:
 862              		.loc 1 239 0 discriminator 1
 863 000c 2B68     		ldr	r3, [r5]
 864 000e A342     		cmp	r3, r4
 865 0010 07D9     		bls	.L70
 240:C:/Users/lenovo/Desktop/liteos/Project2/BearPi_LiteOS/kernel/base/mem/common\los_slab.c ****     {
 241:C:/Users/lenovo/Desktop/liteos/Project2/BearPi_LiteOS/kernel/base/mem/common\los_slab.c ****         if (osAtomicBitsetGetBit(p_bitset, uwIdx))
 866              		.loc 1 241 0 is_stmt 1
 867 0012 2146     		mov	r1, r4
 868 0014 2846     		mov	r0, r5
 869 0016 FFF7FEFF 		bl	osAtomicBitsetGetBit
 870              	.LVL117:
 871 001a 0028     		cmp	r0, #0
 872 001c F5D0     		beq	.L67
 242:C:/Users/lenovo/Desktop/liteos/Project2/BearPi_LiteOS/kernel/base/mem/common\los_slab.c ****         {
 243:C:/Users/lenovo/Desktop/liteos/Project2/BearPi_LiteOS/kernel/base/mem/common\los_slab.c ****             uwUsed ++;
 873              		.loc 1 243 0
 874 001e 0136     		adds	r6, r6, #1
 875              	.LVL118:
 876 0020 F3E7     		b	.L67
 877              	.L70:
 244:C:/Users/lenovo/Desktop/liteos/Project2/BearPi_LiteOS/kernel/base/mem/common\los_slab.c ****         }
 245:C:/Users/lenovo/Desktop/liteos/Project2/BearPi_LiteOS/kernel/base/mem/common\los_slab.c ****     }
 246:C:/Users/lenovo/Desktop/liteos/Project2/BearPi_LiteOS/kernel/base/mem/common\los_slab.c ****     return uwUsed;
 247:C:/Users/lenovo/Desktop/liteos/Project2/BearPi_LiteOS/kernel/base/mem/common\los_slab.c **** }
 878              		.loc 1 247 0
 879 0022 3046     		mov	r0, r6
 880 0024 70BD     		pop	{r4, r5, r6, pc}
 881              		.cfi_endproc
 882              	.LFE149:
 884              		.section	.text.osSlabAllocatorGetSlabInfo,"ax",%progbits
 885              		.align	1
 886              		.global	osSlabAllocatorGetSlabInfo
 887              		.syntax unified
 888              		.thumb
 889              		.thumb_func
 890              		.fpu fpv4-sp-d16
 892              	osSlabAllocatorGetSlabInfo:
 893              	.LFB150:
 248:C:/Users/lenovo/Desktop/liteos/Project2/BearPi_LiteOS/kernel/base/mem/common\los_slab.c **** 
 249:C:/Users/lenovo/Desktop/liteos/Project2/BearPi_LiteOS/kernel/base/mem/common\los_slab.c **** VOID osSlabAllocatorGetSlabInfo(OS_SLAB_ALLOCATOR *pstAllocator, UINT32 *puwItemSz, UINT32 *puwItem
 250:C:/Users/lenovo/Desktop/liteos/Project2/BearPi_LiteOS/kernel/base/mem/common\los_slab.c **** {
 894              		.loc 1 250 0
 895              		.cfi_startproc
 896              		@ args = 0, pretend = 0, frame = 0
 897              		@ frame_needed = 0, uses_anonymous_args = 0
 898              	.LVL119:
 899 0000 38B5     		push	{r3, r4, r5, lr}
 900              	.LCFI14:
 901              		.cfi_def_cfa_offset 16
 902              		.cfi_offset 3, -16
 903              		.cfi_offset 4, -12
 904              		.cfi_offset 5, -8
 905              		.cfi_offset 14, -4
 906 0002 1D46     		mov	r5, r3
 251:C:/Users/lenovo/Desktop/liteos/Project2/BearPi_LiteOS/kernel/base/mem/common\los_slab.c ****     *puwItemSz = pstAllocator->uwItemSz;
 907              		.loc 1 251 0
ARM GAS  c:\Users\lenovo\AppData\Local\Temp\ccyb3L8f.s 			page 21


 908 0004 0368     		ldr	r3, [r0]
 909              	.LVL120:
 910 0006 0B60     		str	r3, [r1]
 252:C:/Users/lenovo/Desktop/liteos/Project2/BearPi_LiteOS/kernel/base/mem/common\los_slab.c ****     *puwItemCnt = osAtomicBitsetGetNumBits(pstAllocator->bitset);
 911              		.loc 1 252 0
 912 0008 8368     		ldr	r3, [r0, #8]
 913              	.LVL121:
 914              	.LBB16:
 915              	.LBB17:
  53:C:/Users/lenovo/Desktop/liteos/Project2/BearPi_LiteOS/kernel/base/mem/common\los_slab.c **** }
 916              		.loc 1 53 0
 917 000a 1B68     		ldr	r3, [r3]
 918              	.LVL122:
 919              	.LBE17:
 920              	.LBE16:
 921              		.loc 1 252 0
 922 000c 1360     		str	r3, [r2]
 253:C:/Users/lenovo/Desktop/liteos/Project2/BearPi_LiteOS/kernel/base/mem/common\los_slab.c ****     *puwCurUsage = osSlabAllocatorGetUsedItemCnt(pstAllocator);
 923              		.loc 1 253 0
 924 000e FFF7FEFF 		bl	osSlabAllocatorGetUsedItemCnt
 925              	.LVL123:
 926 0012 2860     		str	r0, [r5]
 254:C:/Users/lenovo/Desktop/liteos/Project2/BearPi_LiteOS/kernel/base/mem/common\los_slab.c **** }
 927              		.loc 1 254 0
 928 0014 38BD     		pop	{r3, r4, r5, pc}
 929              		.cfi_endproc
 930              	.LFE150:
 932              		.section	.text.osSlabAllocatorCheck,"ax",%progbits
 933              		.align	1
 934              		.global	osSlabAllocatorCheck
 935              		.syntax unified
 936              		.thumb
 937              		.thumb_func
 938              		.fpu fpv4-sp-d16
 940              	osSlabAllocatorCheck:
 941              	.LFB151:
 255:C:/Users/lenovo/Desktop/liteos/Project2/BearPi_LiteOS/kernel/base/mem/common\los_slab.c **** 
 256:C:/Users/lenovo/Desktop/liteos/Project2/BearPi_LiteOS/kernel/base/mem/common\los_slab.c **** BOOL osSlabAllocatorCheck(OS_SLAB_ALLOCATOR *pstAllocator, VOID* ptrP)
 257:C:/Users/lenovo/Desktop/liteos/Project2/BearPi_LiteOS/kernel/base/mem/common\los_slab.c **** {
 942              		.loc 1 257 0
 943              		.cfi_startproc
 944              		@ args = 0, pretend = 0, frame = 0
 945              		@ frame_needed = 0, uses_anonymous_args = 0
 946              	.LVL124:
 947 0000 08B5     		push	{r3, lr}
 948              	.LCFI15:
 949              		.cfi_def_cfa_offset 8
 950              		.cfi_offset 3, -8
 951              		.cfi_offset 14, -4
 952              	.LVL125:
 258:C:/Users/lenovo/Desktop/liteos/Project2/BearPi_LiteOS/kernel/base/mem/common\los_slab.c ****     UINT8 *ptr = (UINT8*)ptrP;
 259:C:/Users/lenovo/Desktop/liteos/Project2/BearPi_LiteOS/kernel/base/mem/common\los_slab.c ****     UINT32 uwItemOffset = ptr - pstAllocator->ucDataChunks;
 953              		.loc 1 259 0
 954 0002 4368     		ldr	r3, [r0, #4]
 955 0004 CA1A     		subs	r2, r1, r3
 956              	.LVL126:
 260:C:/Users/lenovo/Desktop/liteos/Project2/BearPi_LiteOS/kernel/base/mem/common\los_slab.c ****     UINT32 uwItemIdx = uwItemOffset / pstAllocator->uwItemSz;
ARM GAS  c:\Users\lenovo\AppData\Local\Temp\ccyb3L8f.s 			page 22


 957              		.loc 1 260 0
 958 0006 0368     		ldr	r3, [r0]
 959 0008 B2FBF3F1 		udiv	r1, r2, r3
 960              	.LVL127:
 261:C:/Users/lenovo/Desktop/liteos/Project2/BearPi_LiteOS/kernel/base/mem/common\los_slab.c **** 
 262:C:/Users/lenovo/Desktop/liteos/Project2/BearPi_LiteOS/kernel/base/mem/common\los_slab.c ****     //check for invalid inputs
 263:C:/Users/lenovo/Desktop/liteos/Project2/BearPi_LiteOS/kernel/base/mem/common\los_slab.c **** 
 264:C:/Users/lenovo/Desktop/liteos/Project2/BearPi_LiteOS/kernel/base/mem/common\los_slab.c ****     if ((uwItemOffset % pstAllocator->uwItemSz) || (uwItemIdx >= osAtomicBitsetGetNumBits(pstAlloca
 961              		.loc 1 264 0
 962 000c 03FB1123 		mls	r3, r3, r1, r2
 963 0010 4BB9     		cbnz	r3, .L75
 964              		.loc 1 264 0 is_stmt 0 discriminator 1
 965 0012 8068     		ldr	r0, [r0, #8]
 966              	.LVL128:
 967              	.LBB18:
 968              	.LBB19:
  53:C:/Users/lenovo/Desktop/liteos/Project2/BearPi_LiteOS/kernel/base/mem/common\los_slab.c **** }
 969              		.loc 1 53 0 is_stmt 1 discriminator 1
 970 0014 0368     		ldr	r3, [r0]
 971              	.LVL129:
 972              	.LBE19:
 973              	.LBE18:
 974              		.loc 1 264 0 discriminator 1
 975 0016 9942     		cmp	r1, r3
 976 0018 08D2     		bcs	.L76
 265:C:/Users/lenovo/Desktop/liteos/Project2/BearPi_LiteOS/kernel/base/mem/common\los_slab.c ****         || !osAtomicBitsetGetBit(pstAllocator->bitset, uwItemIdx))
 977              		.loc 1 265 0
 978 001a FFF7FEFF 		bl	osAtomicBitsetGetBit
 979              	.LVL130:
 980 001e 0346     		mov	r3, r0
 981 0020 10B1     		cbz	r0, .L73
 266:C:/Users/lenovo/Desktop/liteos/Project2/BearPi_LiteOS/kernel/base/mem/common\los_slab.c ****         return FALSE;
 267:C:/Users/lenovo/Desktop/liteos/Project2/BearPi_LiteOS/kernel/base/mem/common\los_slab.c **** 
 268:C:/Users/lenovo/Desktop/liteos/Project2/BearPi_LiteOS/kernel/base/mem/common\los_slab.c ****     return TRUE;
 982              		.loc 1 268 0
 983 0022 0123     		movs	r3, #1
 984 0024 00E0     		b	.L73
 985              	.LVL131:
 986              	.L75:
 266:C:/Users/lenovo/Desktop/liteos/Project2/BearPi_LiteOS/kernel/base/mem/common\los_slab.c ****         return FALSE;
 987              		.loc 1 266 0
 988 0026 0023     		movs	r3, #0
 989              	.LVL132:
 990              	.L73:
 269:C:/Users/lenovo/Desktop/liteos/Project2/BearPi_LiteOS/kernel/base/mem/common\los_slab.c **** }
 991              		.loc 1 269 0
 992 0028 1846     		mov	r0, r3
 993 002a 08BD     		pop	{r3, pc}
 994              	.LVL133:
 995              	.L76:
 266:C:/Users/lenovo/Desktop/liteos/Project2/BearPi_LiteOS/kernel/base/mem/common\los_slab.c ****         return FALSE;
 996              		.loc 1 266 0
 997 002c 0023     		movs	r3, #0
 998 002e FBE7     		b	.L73
 999              		.cfi_endproc
 1000              	.LFE151:
 1002              		.text
ARM GAS  c:\Users\lenovo\AppData\Local\Temp\ccyb3L8f.s 			page 23


 1003              	.Letext0:
 1004              		.file 2 "c:\\program files (x86)\\liteos studio\\resources\\arm-none-eabi\\arm-none-eabi\\include\
 1005              		.file 3 "c:\\program files (x86)\\liteos studio\\resources\\arm-none-eabi\\arm-none-eabi\\include\
 1006              		.file 4 "c:\\program files (x86)\\liteos studio\\resources\\arm-none-eabi\\arm-none-eabi\\include\
 1007              		.file 5 "c:\\program files (x86)\\liteos studio\\resources\\arm-none-eabi\\lib\\gcc\\arm-none-eabi
 1008              		.file 6 "c:\\program files (x86)\\liteos studio\\resources\\arm-none-eabi\\arm-none-eabi\\include\
 1009              		.file 7 "c:\\program files (x86)\\liteos studio\\resources\\arm-none-eabi\\arm-none-eabi\\include\
 1010              		.file 8 "C:/Users/lenovo/Desktop/liteos/Project2/BearPi_LiteOS/kernel/include/los_typedef.h"
 1011              		.file 9 "C:/Users/lenovo/Desktop/liteos/Project2/BearPi_LiteOS/arch/arm/common/cmsis/core_cm4.h"
 1012              		.file 10 "C:/Users/lenovo/Desktop/liteos/Project2/BearPi_LiteOS/targets/STM32L431_BearPi/Inc/syste
 1013              		.file 11 "C:/Users/lenovo/Desktop/liteos/Project2/BearPi_LiteOS/arch/arm/arm-m/include/los_hwi.h"
 1014              		.file 12 "C:/Users/lenovo/Desktop/liteos/Project2/BearPi_LiteOS/kernel/include/los_list.h"
 1015              		.file 13 "C:/Users/lenovo/Desktop/liteos/Project2/BearPi_LiteOS/kernel/include/los_err.h"
 1016              		.file 14 "C:/Users/lenovo/Desktop/liteos/Project2/BearPi_LiteOS/kernel/include/los_tick.h"
 1017              		.file 15 "C:/Users/lenovo/Desktop/liteos/Project2/BearPi_LiteOS/kernel/include/los_event.h"
 1018              		.file 16 "C:/Users/lenovo/Desktop/liteos/Project2/BearPi_LiteOS/kernel/include/los_task.h"
 1019              		.file 17 "C:/Users/lenovo/Desktop/liteos/Project2/BearPi_LiteOS/kernel/base/include/los_task.ph"
 1020              		.file 18 "C:/Users/lenovo/Desktop/liteos/Project2/BearPi_LiteOS/targets/STM32L431_BearPi/Inc/main.
 1021              		.file 19 "C:/Users/lenovo/Desktop/liteos/Project2/BearPi_LiteOS/targets/STM32L431_BearPi/OS_CONFIG
 1022              		.file 20 "C:/Users/lenovo/Desktop/liteos/Project2/BearPi_LiteOS/kernel/include/los_config.h"
 1023              		.file 21 "C:/Users/lenovo/Desktop/liteos/Project2/BearPi_LiteOS/kernel/base/include/los_slab.ph"
 1024              		.file 22 "<built-in>"
ARM GAS  c:\Users\lenovo\AppData\Local\Temp\ccyb3L8f.s 			page 24

