ARM GAS  c:\Users\lenovo\AppData\Local\Temp\ccgAwqeK.s 			page 1


   1              		.cpu cortex-m4
   2              		.eabi_attribute 27, 1
   3              		.eabi_attribute 28, 1
   4              		.eabi_attribute 20, 1
   5              		.eabi_attribute 21, 1
   6              		.eabi_attribute 23, 3
   7              		.eabi_attribute 24, 1
   8              		.eabi_attribute 25, 1
   9              		.eabi_attribute 26, 1
  10              		.eabi_attribute 30, 1
  11              		.eabi_attribute 34, 1
  12              		.eabi_attribute 18, 4
  13              		.file	"m26.c"
  14              		.text
  15              	.Ltext0:
  16              		.cfi_sections	.debug_frame
  17              		.section	.text.m26_recv_cb,"ax",%progbits
  18              		.align	1
  19              		.global	m26_recv_cb
  20              		.syntax unified
  21              		.thumb
  22              		.thumb_func
  23              		.fpu fpv4-sp-d16
  25              	m26_recv_cb:
  26              	.LFB142:
  27              		.file 1 "C:/Users/lenovo/Desktop/liteos/Project2/BearPi_LiteOS/components/net/at_device/gprs_M26/m
   1:C:/Users/lenovo/Desktop/liteos/Project2/BearPi_LiteOS/components/net/at_device/gprs_M26\m26.c **** /*----------------------------------------------------------------------------
   2:C:/Users/lenovo/Desktop/liteos/Project2/BearPi_LiteOS/components/net/at_device/gprs_M26\m26.c ****  * Copyright (c) <2016-2018>, <Huawei Technologies Co., Ltd>
   3:C:/Users/lenovo/Desktop/liteos/Project2/BearPi_LiteOS/components/net/at_device/gprs_M26\m26.c ****  * All rights reserved.
   4:C:/Users/lenovo/Desktop/liteos/Project2/BearPi_LiteOS/components/net/at_device/gprs_M26\m26.c ****  * Redistribution and use in source and binary forms, with or without modification,
   5:C:/Users/lenovo/Desktop/liteos/Project2/BearPi_LiteOS/components/net/at_device/gprs_M26\m26.c ****  * are permitted provided that the following conditions are met:
   6:C:/Users/lenovo/Desktop/liteos/Project2/BearPi_LiteOS/components/net/at_device/gprs_M26\m26.c ****  * 1. Redistributions of source code must retain the above copyright notice, this list of
   7:C:/Users/lenovo/Desktop/liteos/Project2/BearPi_LiteOS/components/net/at_device/gprs_M26\m26.c ****  * conditions and the following disclaimer.
   8:C:/Users/lenovo/Desktop/liteos/Project2/BearPi_LiteOS/components/net/at_device/gprs_M26\m26.c ****  * 2. Redistributions in binary form must reproduce the above copyright notice, this list
   9:C:/Users/lenovo/Desktop/liteos/Project2/BearPi_LiteOS/components/net/at_device/gprs_M26\m26.c ****  * of conditions and the following disclaimer in the documentation and/or other materials
  10:C:/Users/lenovo/Desktop/liteos/Project2/BearPi_LiteOS/components/net/at_device/gprs_M26\m26.c ****  * provided with the distribution.
  11:C:/Users/lenovo/Desktop/liteos/Project2/BearPi_LiteOS/components/net/at_device/gprs_M26\m26.c ****  * 3. Neither the name of the copyright holder nor the names of its contributors may be used
  12:C:/Users/lenovo/Desktop/liteos/Project2/BearPi_LiteOS/components/net/at_device/gprs_M26\m26.c ****  * to endorse or promote products derived from this software without specific prior written
  13:C:/Users/lenovo/Desktop/liteos/Project2/BearPi_LiteOS/components/net/at_device/gprs_M26\m26.c ****  * permission.
  14:C:/Users/lenovo/Desktop/liteos/Project2/BearPi_LiteOS/components/net/at_device/gprs_M26\m26.c ****  * THIS SOFTWARE IS PROVIDED BY THE COPYRIGHT HOLDERS AND CONTRIBUTORS
  15:C:/Users/lenovo/Desktop/liteos/Project2/BearPi_LiteOS/components/net/at_device/gprs_M26\m26.c ****  * "AS IS" AND ANY EXPRESS OR IMPLIED WARRANTIES, INCLUDING, BUT NOT LIMITED TO,
  16:C:/Users/lenovo/Desktop/liteos/Project2/BearPi_LiteOS/components/net/at_device/gprs_M26\m26.c ****  * THE IMPLIED WARRANTIES OF MERCHANTABILITY AND FITNESS FOR A PARTICULAR
  17:C:/Users/lenovo/Desktop/liteos/Project2/BearPi_LiteOS/components/net/at_device/gprs_M26\m26.c ****  * PURPOSE ARE DISCLAIMED. IN NO EVENT SHALL THE COPYRIGHT HOLDER OR
  18:C:/Users/lenovo/Desktop/liteos/Project2/BearPi_LiteOS/components/net/at_device/gprs_M26\m26.c ****  * CONTRIBUTORS BE LIABLE FOR ANY DIRECT, INDIRECT, INCIDENTAL, SPECIAL,
  19:C:/Users/lenovo/Desktop/liteos/Project2/BearPi_LiteOS/components/net/at_device/gprs_M26\m26.c ****  * EXEMPLARY, OR CONSEQUENTIAL DAMAGES (INCLUDING, BUT NOT LIMITED TO,
  20:C:/Users/lenovo/Desktop/liteos/Project2/BearPi_LiteOS/components/net/at_device/gprs_M26\m26.c ****  * PROCUREMENT OF SUBSTITUTE GOODS OR SERVICES; LOSS OF USE, DATA, OR PROFITS;
  21:C:/Users/lenovo/Desktop/liteos/Project2/BearPi_LiteOS/components/net/at_device/gprs_M26\m26.c ****  * OR BUSINESS INTERRUPTION) HOWEVER CAUSED AND ON ANY THEORY OF LIABILITY,
  22:C:/Users/lenovo/Desktop/liteos/Project2/BearPi_LiteOS/components/net/at_device/gprs_M26\m26.c ****  * WHETHER IN CONTRACT, STRICT LIABILITY, OR TORT (INCLUDING NEGLIGENCE OR
  23:C:/Users/lenovo/Desktop/liteos/Project2/BearPi_LiteOS/components/net/at_device/gprs_M26\m26.c ****  * OTHERWISE) ARISING IN ANY WAY OUT OF THE USE OF THIS SOFTWARE, EVEN IF
  24:C:/Users/lenovo/Desktop/liteos/Project2/BearPi_LiteOS/components/net/at_device/gprs_M26\m26.c ****  * ADVISED OF THE POSSIBILITY OF SUCH DAMAGE.
  25:C:/Users/lenovo/Desktop/liteos/Project2/BearPi_LiteOS/components/net/at_device/gprs_M26\m26.c ****  *---------------------------------------------------------------------------*/
  26:C:/Users/lenovo/Desktop/liteos/Project2/BearPi_LiteOS/components/net/at_device/gprs_M26\m26.c **** /*----------------------------------------------------------------------------
  27:C:/Users/lenovo/Desktop/liteos/Project2/BearPi_LiteOS/components/net/at_device/gprs_M26\m26.c ****  * Notice of Export Control Law
  28:C:/Users/lenovo/Desktop/liteos/Project2/BearPi_LiteOS/components/net/at_device/gprs_M26\m26.c ****  * ===============================================
  29:C:/Users/lenovo/Desktop/liteos/Project2/BearPi_LiteOS/components/net/at_device/gprs_M26\m26.c ****  * Huawei LiteOS may be subject to applicable export control laws and regulations, which might
  30:C:/Users/lenovo/Desktop/liteos/Project2/BearPi_LiteOS/components/net/at_device/gprs_M26\m26.c ****  * include those applicable to Huawei LiteOS of U.S. and the country in which you are located.
  31:C:/Users/lenovo/Desktop/liteos/Project2/BearPi_LiteOS/components/net/at_device/gprs_M26\m26.c ****  * Import, export and usage of Huawei LiteOS in any manner by you shall be in compliance with such
ARM GAS  c:\Users\lenovo\AppData\Local\Temp\ccgAwqeK.s 			page 2


  32:C:/Users/lenovo/Desktop/liteos/Project2/BearPi_LiteOS/components/net/at_device/gprs_M26\m26.c ****  * applicable export control laws and regulations.
  33:C:/Users/lenovo/Desktop/liteos/Project2/BearPi_LiteOS/components/net/at_device/gprs_M26\m26.c ****  *---------------------------------------------------------------------------*/
  34:C:/Users/lenovo/Desktop/liteos/Project2/BearPi_LiteOS/components/net/at_device/gprs_M26\m26.c **** 
  35:C:/Users/lenovo/Desktop/liteos/Project2/BearPi_LiteOS/components/net/at_device/gprs_M26\m26.c **** #if defined(WITH_AT_FRAMEWORK)
  36:C:/Users/lenovo/Desktop/liteos/Project2/BearPi_LiteOS/components/net/at_device/gprs_M26\m26.c **** #include "m26.h"
  37:C:/Users/lenovo/Desktop/liteos/Project2/BearPi_LiteOS/components/net/at_device/gprs_M26\m26.c **** 
  38:C:/Users/lenovo/Desktop/liteos/Project2/BearPi_LiteOS/components/net/at_device/gprs_M26\m26.c **** extern at_task at;
  39:C:/Users/lenovo/Desktop/liteos/Project2/BearPi_LiteOS/components/net/at_device/gprs_M26\m26.c **** at_adaptor_api m26_interface;
  40:C:/Users/lenovo/Desktop/liteos/Project2/BearPi_LiteOS/components/net/at_device/gprs_M26\m26.c **** char prefix_name[15];
  41:C:/Users/lenovo/Desktop/liteos/Project2/BearPi_LiteOS/components/net/at_device/gprs_M26\m26.c **** 
  42:C:/Users/lenovo/Desktop/liteos/Project2/BearPi_LiteOS/components/net/at_device/gprs_M26\m26.c **** int32_t m26_echo_off(void)
  43:C:/Users/lenovo/Desktop/liteos/Project2/BearPi_LiteOS/components/net/at_device/gprs_M26\m26.c **** {
  44:C:/Users/lenovo/Desktop/liteos/Project2/BearPi_LiteOS/components/net/at_device/gprs_M26\m26.c ****     return at.cmd((int8_t *)AT_CMD_ECHO_OFF, strlen(AT_CMD_ECHO_OFF), "OK\r\n", NULL,NULL);
  45:C:/Users/lenovo/Desktop/liteos/Project2/BearPi_LiteOS/components/net/at_device/gprs_M26\m26.c **** }
  46:C:/Users/lenovo/Desktop/liteos/Project2/BearPi_LiteOS/components/net/at_device/gprs_M26\m26.c **** int32_t m26_echo_on(void)
  47:C:/Users/lenovo/Desktop/liteos/Project2/BearPi_LiteOS/components/net/at_device/gprs_M26\m26.c **** {
  48:C:/Users/lenovo/Desktop/liteos/Project2/BearPi_LiteOS/components/net/at_device/gprs_M26\m26.c ****     return at.cmd((int8_t *)AT_CMD_ECHO_ON, strlen(AT_CMD_ECHO_OFF), "OK\r\n", NULL,NULL);
  49:C:/Users/lenovo/Desktop/liteos/Project2/BearPi_LiteOS/components/net/at_device/gprs_M26\m26.c **** }
  50:C:/Users/lenovo/Desktop/liteos/Project2/BearPi_LiteOS/components/net/at_device/gprs_M26\m26.c **** int32_t m26_reset(void)
  51:C:/Users/lenovo/Desktop/liteos/Project2/BearPi_LiteOS/components/net/at_device/gprs_M26\m26.c **** {
  52:C:/Users/lenovo/Desktop/liteos/Project2/BearPi_LiteOS/components/net/at_device/gprs_M26\m26.c ****     int32_t ret = 0;
  53:C:/Users/lenovo/Desktop/liteos/Project2/BearPi_LiteOS/components/net/at_device/gprs_M26\m26.c ****     //at.cmd((int8_t*)AT_CMD_CLOSE,strlen(AT_CMD_CLOSE),"CLOSE OK","ERROR");
  54:C:/Users/lenovo/Desktop/liteos/Project2/BearPi_LiteOS/components/net/at_device/gprs_M26\m26.c ****     ret = at.cmd((int8_t *)AT_CMD_DEACT, strlen(AT_CMD_DEACT), "DEACT OK", NULL,NULL);
  55:C:/Users/lenovo/Desktop/liteos/Project2/BearPi_LiteOS/components/net/at_device/gprs_M26\m26.c ****     return ret;
  56:C:/Users/lenovo/Desktop/liteos/Project2/BearPi_LiteOS/components/net/at_device/gprs_M26\m26.c **** }
  57:C:/Users/lenovo/Desktop/liteos/Project2/BearPi_LiteOS/components/net/at_device/gprs_M26\m26.c **** 
  58:C:/Users/lenovo/Desktop/liteos/Project2/BearPi_LiteOS/components/net/at_device/gprs_M26\m26.c **** int32_t m26_set_mux_mode(int32_t m)
  59:C:/Users/lenovo/Desktop/liteos/Project2/BearPi_LiteOS/components/net/at_device/gprs_M26\m26.c **** {
  60:C:/Users/lenovo/Desktop/liteos/Project2/BearPi_LiteOS/components/net/at_device/gprs_M26\m26.c ****     char cmd[64] = {0};
  61:C:/Users/lenovo/Desktop/liteos/Project2/BearPi_LiteOS/components/net/at_device/gprs_M26\m26.c ****     snprintf(cmd, 64, "%s=%d", AT_CMD_MUX, (int)m);
  62:C:/Users/lenovo/Desktop/liteos/Project2/BearPi_LiteOS/components/net/at_device/gprs_M26\m26.c ****     return at.cmd((int8_t *)cmd, strlen(cmd), "OK", NULL,NULL);
  63:C:/Users/lenovo/Desktop/liteos/Project2/BearPi_LiteOS/components/net/at_device/gprs_M26\m26.c **** }
  64:C:/Users/lenovo/Desktop/liteos/Project2/BearPi_LiteOS/components/net/at_device/gprs_M26\m26.c **** 
  65:C:/Users/lenovo/Desktop/liteos/Project2/BearPi_LiteOS/components/net/at_device/gprs_M26\m26.c **** int32_t m26_connect(const int8_t *host, const int8_t *port, int32_t proto)
  66:C:/Users/lenovo/Desktop/liteos/Project2/BearPi_LiteOS/components/net/at_device/gprs_M26\m26.c **** {
  67:C:/Users/lenovo/Desktop/liteos/Project2/BearPi_LiteOS/components/net/at_device/gprs_M26\m26.c ****     int32_t ret = AT_FAILED;
  68:C:/Users/lenovo/Desktop/liteos/Project2/BearPi_LiteOS/components/net/at_device/gprs_M26\m26.c ****     int32_t id = at.get_id();
  69:C:/Users/lenovo/Desktop/liteos/Project2/BearPi_LiteOS/components/net/at_device/gprs_M26\m26.c ****     m26_reset();
  70:C:/Users/lenovo/Desktop/liteos/Project2/BearPi_LiteOS/components/net/at_device/gprs_M26\m26.c ****     char cmd1[64] = {0};
  71:C:/Users/lenovo/Desktop/liteos/Project2/BearPi_LiteOS/components/net/at_device/gprs_M26\m26.c ****     snprintf(cmd1, 64, "%s=\"B\"", AT_CMD_CLASS);
  72:C:/Users/lenovo/Desktop/liteos/Project2/BearPi_LiteOS/components/net/at_device/gprs_M26\m26.c ****     at.cmd((int8_t *)cmd1, strlen(cmd1), "OK", NULL,NULL);
  73:C:/Users/lenovo/Desktop/liteos/Project2/BearPi_LiteOS/components/net/at_device/gprs_M26\m26.c ****     char cmd2[64] = {0};
  74:C:/Users/lenovo/Desktop/liteos/Project2/BearPi_LiteOS/components/net/at_device/gprs_M26\m26.c ****     snprintf(cmd2, 64, "%s=1,\"IP\",\"CMNET\"", AT_CMD_PDP_CONT);
  75:C:/Users/lenovo/Desktop/liteos/Project2/BearPi_LiteOS/components/net/at_device/gprs_M26\m26.c ****     at.cmd((int8_t *)cmd2, strlen(cmd2), "OK", NULL,NULL);
  76:C:/Users/lenovo/Desktop/liteos/Project2/BearPi_LiteOS/components/net/at_device/gprs_M26\m26.c ****     char cmd3[64] = {0};
  77:C:/Users/lenovo/Desktop/liteos/Project2/BearPi_LiteOS/components/net/at_device/gprs_M26\m26.c ****     snprintf(cmd3, 64, "%s=1", AT_CMD_PDP_ATT);
  78:C:/Users/lenovo/Desktop/liteos/Project2/BearPi_LiteOS/components/net/at_device/gprs_M26\m26.c ****     at.cmd((int8_t *)cmd3, strlen(cmd3), "OK", NULL,NULL);
  79:C:/Users/lenovo/Desktop/liteos/Project2/BearPi_LiteOS/components/net/at_device/gprs_M26\m26.c ****     char cmd4[64] = {0};
  80:C:/Users/lenovo/Desktop/liteos/Project2/BearPi_LiteOS/components/net/at_device/gprs_M26\m26.c ****     snprintf(cmd4, 64, "%s=1", AT_CMD_QIHEAD);
  81:C:/Users/lenovo/Desktop/liteos/Project2/BearPi_LiteOS/components/net/at_device/gprs_M26\m26.c ****     at.cmd((int8_t *)cmd4, strlen(cmd4), "OK", NULL,NULL);
  82:C:/Users/lenovo/Desktop/liteos/Project2/BearPi_LiteOS/components/net/at_device/gprs_M26\m26.c ****     char cmd5[64] = {0};
  83:C:/Users/lenovo/Desktop/liteos/Project2/BearPi_LiteOS/components/net/at_device/gprs_M26\m26.c **** 
  84:C:/Users/lenovo/Desktop/liteos/Project2/BearPi_LiteOS/components/net/at_device/gprs_M26\m26.c ****     AT_LOG_DEBUG("host:%s, port:%s", host, port);
  85:C:/Users/lenovo/Desktop/liteos/Project2/BearPi_LiteOS/components/net/at_device/gprs_M26\m26.c **** 
  86:C:/Users/lenovo/Desktop/liteos/Project2/BearPi_LiteOS/components/net/at_device/gprs_M26\m26.c ****     if (AT_MUXMODE_SINGLE == at.mux_mode)
  87:C:/Users/lenovo/Desktop/liteos/Project2/BearPi_LiteOS/components/net/at_device/gprs_M26\m26.c ****     {
  88:C:/Users/lenovo/Desktop/liteos/Project2/BearPi_LiteOS/components/net/at_device/gprs_M26\m26.c ****         snprintf(cmd5, 64, "%s=\"%s\",\"%s\",%s", AT_CMD_CONN, proto == ATINY_PROTO_UDP ? "UDP" : "
ARM GAS  c:\Users\lenovo\AppData\Local\Temp\ccgAwqeK.s 			page 3


  89:C:/Users/lenovo/Desktop/liteos/Project2/BearPi_LiteOS/components/net/at_device/gprs_M26\m26.c ****     }
  90:C:/Users/lenovo/Desktop/liteos/Project2/BearPi_LiteOS/components/net/at_device/gprs_M26\m26.c ****     else
  91:C:/Users/lenovo/Desktop/liteos/Project2/BearPi_LiteOS/components/net/at_device/gprs_M26\m26.c ****     {
  92:C:/Users/lenovo/Desktop/liteos/Project2/BearPi_LiteOS/components/net/at_device/gprs_M26\m26.c ****         at.cmd((int8_t *)(AT_CMD_PDP_ACT"=1,1"), strlen(AT_CMD_PDP_ACT"=1,1"), "OK", NULL,NULL);
  93:C:/Users/lenovo/Desktop/liteos/Project2/BearPi_LiteOS/components/net/at_device/gprs_M26\m26.c ****         at.cmd((int8_t *)AT_CMD_QIREGAPP, strlen(AT_CMD_QIREGAPP), "OK", NULL,NULL);
  94:C:/Users/lenovo/Desktop/liteos/Project2/BearPi_LiteOS/components/net/at_device/gprs_M26\m26.c ****         at.cmd((int8_t *)AT_CMD_QIACT, strlen(AT_CMD_QIACT), "OK", NULL,NULL);
  95:C:/Users/lenovo/Desktop/liteos/Project2/BearPi_LiteOS/components/net/at_device/gprs_M26\m26.c ****         at.cmd((int8_t *)AT_CMD_QILOCIP, strlen(AT_CMD_QILOCIP), ".", NULL,NULL);
  96:C:/Users/lenovo/Desktop/liteos/Project2/BearPi_LiteOS/components/net/at_device/gprs_M26\m26.c ****         snprintf(cmd5, 64, "%s=%ld,\"%s\",\"%s\",%s", AT_CMD_CONN, id, proto == ATINY_PROTO_UDP ? "
  97:C:/Users/lenovo/Desktop/liteos/Project2/BearPi_LiteOS/components/net/at_device/gprs_M26\m26.c ****     }
  98:C:/Users/lenovo/Desktop/liteos/Project2/BearPi_LiteOS/components/net/at_device/gprs_M26\m26.c ****     if (id < 0 || id >= AT_MAX_LINK_NUM)
  99:C:/Users/lenovo/Desktop/liteos/Project2/BearPi_LiteOS/components/net/at_device/gprs_M26\m26.c ****     {
 100:C:/Users/lenovo/Desktop/liteos/Project2/BearPi_LiteOS/components/net/at_device/gprs_M26\m26.c ****         AT_LOG("no vailed linkid for use(id = %ld)", id);
 101:C:/Users/lenovo/Desktop/liteos/Project2/BearPi_LiteOS/components/net/at_device/gprs_M26\m26.c ****         return -1;
 102:C:/Users/lenovo/Desktop/liteos/Project2/BearPi_LiteOS/components/net/at_device/gprs_M26\m26.c ****     }
 103:C:/Users/lenovo/Desktop/liteos/Project2/BearPi_LiteOS/components/net/at_device/gprs_M26\m26.c ****     ret = LOS_QueueCreate("dataQueue", 16, &at.linkid[id].qid, 0, sizeof(QUEUE_BUFF));
 104:C:/Users/lenovo/Desktop/liteos/Project2/BearPi_LiteOS/components/net/at_device/gprs_M26\m26.c ****     if (ret != LOS_OK)
 105:C:/Users/lenovo/Desktop/liteos/Project2/BearPi_LiteOS/components/net/at_device/gprs_M26\m26.c ****     {
 106:C:/Users/lenovo/Desktop/liteos/Project2/BearPi_LiteOS/components/net/at_device/gprs_M26\m26.c ****         AT_LOG("init dataQueue failed!");
 107:C:/Users/lenovo/Desktop/liteos/Project2/BearPi_LiteOS/components/net/at_device/gprs_M26\m26.c ****         at.linkid[id].usable = AT_LINK_UNUSE;
 108:C:/Users/lenovo/Desktop/liteos/Project2/BearPi_LiteOS/components/net/at_device/gprs_M26\m26.c ****         return  -1;
 109:C:/Users/lenovo/Desktop/liteos/Project2/BearPi_LiteOS/components/net/at_device/gprs_M26\m26.c ****     }
 110:C:/Users/lenovo/Desktop/liteos/Project2/BearPi_LiteOS/components/net/at_device/gprs_M26\m26.c ****     at.cmd((int8_t *)cmd5, strlen(cmd5), "CONNECT OK", NULL,NULL);
 111:C:/Users/lenovo/Desktop/liteos/Project2/BearPi_LiteOS/components/net/at_device/gprs_M26\m26.c ****     return id;
 112:C:/Users/lenovo/Desktop/liteos/Project2/BearPi_LiteOS/components/net/at_device/gprs_M26\m26.c **** }
 113:C:/Users/lenovo/Desktop/liteos/Project2/BearPi_LiteOS/components/net/at_device/gprs_M26\m26.c **** 
 114:C:/Users/lenovo/Desktop/liteos/Project2/BearPi_LiteOS/components/net/at_device/gprs_M26\m26.c **** int32_t m26_recv_timeout(int32_t id, uint8_t *buf, uint32_t len, char* ipaddr,int* port, int32_t ti
 115:C:/Users/lenovo/Desktop/liteos/Project2/BearPi_LiteOS/components/net/at_device/gprs_M26\m26.c **** {
 116:C:/Users/lenovo/Desktop/liteos/Project2/BearPi_LiteOS/components/net/at_device/gprs_M26\m26.c ****     uint32_t qlen = sizeof(QUEUE_BUFF);
 117:C:/Users/lenovo/Desktop/liteos/Project2/BearPi_LiteOS/components/net/at_device/gprs_M26\m26.c ****     uint32_t rxlen = 0;
 118:C:/Users/lenovo/Desktop/liteos/Project2/BearPi_LiteOS/components/net/at_device/gprs_M26\m26.c **** 
 119:C:/Users/lenovo/Desktop/liteos/Project2/BearPi_LiteOS/components/net/at_device/gprs_M26\m26.c ****     (void)ipaddr; //gprs not need remote ip
 120:C:/Users/lenovo/Desktop/liteos/Project2/BearPi_LiteOS/components/net/at_device/gprs_M26\m26.c ****     (void)port;   //gprs not need remote port
 121:C:/Users/lenovo/Desktop/liteos/Project2/BearPi_LiteOS/components/net/at_device/gprs_M26\m26.c **** 
 122:C:/Users/lenovo/Desktop/liteos/Project2/BearPi_LiteOS/components/net/at_device/gprs_M26\m26.c ****     QUEUE_BUFF  qbuf = {0, NULL};
 123:C:/Users/lenovo/Desktop/liteos/Project2/BearPi_LiteOS/components/net/at_device/gprs_M26\m26.c ****     AT_LOG("****at.linkid[id].qid=%d***\n", at.linkid[id].qid);
 124:C:/Users/lenovo/Desktop/liteos/Project2/BearPi_LiteOS/components/net/at_device/gprs_M26\m26.c ****     int ret = LOS_QueueReadCopy(at.linkid[id].qid, (void *)&qbuf, (UINT32 *)&qlen, timeout);
 125:C:/Users/lenovo/Desktop/liteos/Project2/BearPi_LiteOS/components/net/at_device/gprs_M26\m26.c ****     AT_LOG("ret = %x, len = %ld, id = %ld", ret, qbuf.len, id);
 126:C:/Users/lenovo/Desktop/liteos/Project2/BearPi_LiteOS/components/net/at_device/gprs_M26\m26.c ****     if (ret != LOS_OK)
 127:C:/Users/lenovo/Desktop/liteos/Project2/BearPi_LiteOS/components/net/at_device/gprs_M26\m26.c ****     {
 128:C:/Users/lenovo/Desktop/liteos/Project2/BearPi_LiteOS/components/net/at_device/gprs_M26\m26.c ****         return AT_FAILED;
 129:C:/Users/lenovo/Desktop/liteos/Project2/BearPi_LiteOS/components/net/at_device/gprs_M26\m26.c ****     }
 130:C:/Users/lenovo/Desktop/liteos/Project2/BearPi_LiteOS/components/net/at_device/gprs_M26\m26.c **** 
 131:C:/Users/lenovo/Desktop/liteos/Project2/BearPi_LiteOS/components/net/at_device/gprs_M26\m26.c ****     if (qbuf.len)
 132:C:/Users/lenovo/Desktop/liteos/Project2/BearPi_LiteOS/components/net/at_device/gprs_M26\m26.c ****     {
 133:C:/Users/lenovo/Desktop/liteos/Project2/BearPi_LiteOS/components/net/at_device/gprs_M26\m26.c ****         rxlen = (len < qbuf.len) ? len : qbuf.len;
 134:C:/Users/lenovo/Desktop/liteos/Project2/BearPi_LiteOS/components/net/at_device/gprs_M26\m26.c ****         memcpy(buf, qbuf.addr, rxlen);
 135:C:/Users/lenovo/Desktop/liteos/Project2/BearPi_LiteOS/components/net/at_device/gprs_M26\m26.c ****         at_free(qbuf.addr);
 136:C:/Users/lenovo/Desktop/liteos/Project2/BearPi_LiteOS/components/net/at_device/gprs_M26\m26.c ****     }
 137:C:/Users/lenovo/Desktop/liteos/Project2/BearPi_LiteOS/components/net/at_device/gprs_M26\m26.c ****     return rxlen;
 138:C:/Users/lenovo/Desktop/liteos/Project2/BearPi_LiteOS/components/net/at_device/gprs_M26\m26.c **** }
 139:C:/Users/lenovo/Desktop/liteos/Project2/BearPi_LiteOS/components/net/at_device/gprs_M26\m26.c **** 
 140:C:/Users/lenovo/Desktop/liteos/Project2/BearPi_LiteOS/components/net/at_device/gprs_M26\m26.c **** int32_t m26_recv(int32_t id, uint8_t *buf, uint32_t len)
 141:C:/Users/lenovo/Desktop/liteos/Project2/BearPi_LiteOS/components/net/at_device/gprs_M26\m26.c **** {
 142:C:/Users/lenovo/Desktop/liteos/Project2/BearPi_LiteOS/components/net/at_device/gprs_M26\m26.c ****     return m26_recv_timeout(id, buf, len, NULL,NULL,LOS_WAIT_FOREVER);
 143:C:/Users/lenovo/Desktop/liteos/Project2/BearPi_LiteOS/components/net/at_device/gprs_M26\m26.c **** }
 144:C:/Users/lenovo/Desktop/liteos/Project2/BearPi_LiteOS/components/net/at_device/gprs_M26\m26.c **** 
 145:C:/Users/lenovo/Desktop/liteos/Project2/BearPi_LiteOS/components/net/at_device/gprs_M26\m26.c **** int32_t m26_send(int32_t id , const uint8_t  *buf, uint32_t len)
ARM GAS  c:\Users\lenovo\AppData\Local\Temp\ccgAwqeK.s 			page 4


 146:C:/Users/lenovo/Desktop/liteos/Project2/BearPi_LiteOS/components/net/at_device/gprs_M26\m26.c **** {
 147:C:/Users/lenovo/Desktop/liteos/Project2/BearPi_LiteOS/components/net/at_device/gprs_M26\m26.c ****     int32_t ret = -1;
 148:C:/Users/lenovo/Desktop/liteos/Project2/BearPi_LiteOS/components/net/at_device/gprs_M26\m26.c ****     char cmd[64] = {0};
 149:C:/Users/lenovo/Desktop/liteos/Project2/BearPi_LiteOS/components/net/at_device/gprs_M26\m26.c ****     if (AT_MUXMODE_SINGLE == at.mux_mode)
 150:C:/Users/lenovo/Desktop/liteos/Project2/BearPi_LiteOS/components/net/at_device/gprs_M26\m26.c ****     {
 151:C:/Users/lenovo/Desktop/liteos/Project2/BearPi_LiteOS/components/net/at_device/gprs_M26\m26.c ****         snprintf(cmd, 64, "%s=%ld", AT_CMD_SEND, len);
 152:C:/Users/lenovo/Desktop/liteos/Project2/BearPi_LiteOS/components/net/at_device/gprs_M26\m26.c ****     }
 153:C:/Users/lenovo/Desktop/liteos/Project2/BearPi_LiteOS/components/net/at_device/gprs_M26\m26.c ****     else
 154:C:/Users/lenovo/Desktop/liteos/Project2/BearPi_LiteOS/components/net/at_device/gprs_M26\m26.c ****     {
 155:C:/Users/lenovo/Desktop/liteos/Project2/BearPi_LiteOS/components/net/at_device/gprs_M26\m26.c ****         snprintf(cmd, 64, "%s=%ld,%ld", AT_CMD_SEND, id, len);
 156:C:/Users/lenovo/Desktop/liteos/Project2/BearPi_LiteOS/components/net/at_device/gprs_M26\m26.c ****     }
 157:C:/Users/lenovo/Desktop/liteos/Project2/BearPi_LiteOS/components/net/at_device/gprs_M26\m26.c **** 
 158:C:/Users/lenovo/Desktop/liteos/Project2/BearPi_LiteOS/components/net/at_device/gprs_M26\m26.c ****     ret = at.write((int8_t *)cmd, (int8_t *)"SEND OK", (int8_t *)buf, len);
 159:C:/Users/lenovo/Desktop/liteos/Project2/BearPi_LiteOS/components/net/at_device/gprs_M26\m26.c **** 
 160:C:/Users/lenovo/Desktop/liteos/Project2/BearPi_LiteOS/components/net/at_device/gprs_M26\m26.c **** 
 161:C:/Users/lenovo/Desktop/liteos/Project2/BearPi_LiteOS/components/net/at_device/gprs_M26\m26.c ****     return ret;
 162:C:/Users/lenovo/Desktop/liteos/Project2/BearPi_LiteOS/components/net/at_device/gprs_M26\m26.c **** }
 163:C:/Users/lenovo/Desktop/liteos/Project2/BearPi_LiteOS/components/net/at_device/gprs_M26\m26.c **** 
 164:C:/Users/lenovo/Desktop/liteos/Project2/BearPi_LiteOS/components/net/at_device/gprs_M26\m26.c **** void m26_check(void)
 165:C:/Users/lenovo/Desktop/liteos/Project2/BearPi_LiteOS/components/net/at_device/gprs_M26\m26.c **** {
 166:C:/Users/lenovo/Desktop/liteos/Project2/BearPi_LiteOS/components/net/at_device/gprs_M26\m26.c ****     //check module response
 167:C:/Users/lenovo/Desktop/liteos/Project2/BearPi_LiteOS/components/net/at_device/gprs_M26\m26.c ****     while(AT_FAILED == at.cmd((int8_t *)AT_CMD_AT, strlen(AT_CMD_AT), "OK", NULL,NULL))
 168:C:/Users/lenovo/Desktop/liteos/Project2/BearPi_LiteOS/components/net/at_device/gprs_M26\m26.c ****     {
 169:C:/Users/lenovo/Desktop/liteos/Project2/BearPi_LiteOS/components/net/at_device/gprs_M26\m26.c ****         printf("\r\ncheck module response unnormal\r\n");
 170:C:/Users/lenovo/Desktop/liteos/Project2/BearPi_LiteOS/components/net/at_device/gprs_M26\m26.c ****         printf("\r\nplease check the module pin connection and the power switch\r\n");
 171:C:/Users/lenovo/Desktop/liteos/Project2/BearPi_LiteOS/components/net/at_device/gprs_M26\m26.c ****         M26_DELAY(500);
 172:C:/Users/lenovo/Desktop/liteos/Project2/BearPi_LiteOS/components/net/at_device/gprs_M26\m26.c ****     }
 173:C:/Users/lenovo/Desktop/liteos/Project2/BearPi_LiteOS/components/net/at_device/gprs_M26\m26.c ****     if(AT_FAILED != at.cmd((int8_t *)AT_CMD_CPIN, strlen(AT_CMD_CPIN), "OK", NULL,NULL))
 174:C:/Users/lenovo/Desktop/liteos/Project2/BearPi_LiteOS/components/net/at_device/gprs_M26\m26.c ****     {
 175:C:/Users/lenovo/Desktop/liteos/Project2/BearPi_LiteOS/components/net/at_device/gprs_M26\m26.c ****         printf("detected sim card\n");
 176:C:/Users/lenovo/Desktop/liteos/Project2/BearPi_LiteOS/components/net/at_device/gprs_M26\m26.c ****     }
 177:C:/Users/lenovo/Desktop/liteos/Project2/BearPi_LiteOS/components/net/at_device/gprs_M26\m26.c ****     if(AT_FAILED != at.cmd((int8_t *)AT_CMD_COPS, strlen(AT_CMD_COPS), "CHINA MOBILE", NULL,NULL))
 178:C:/Users/lenovo/Desktop/liteos/Project2/BearPi_LiteOS/components/net/at_device/gprs_M26\m26.c ****     {
 179:C:/Users/lenovo/Desktop/liteos/Project2/BearPi_LiteOS/components/net/at_device/gprs_M26\m26.c ****         printf("registerd to the network\n");
 180:C:/Users/lenovo/Desktop/liteos/Project2/BearPi_LiteOS/components/net/at_device/gprs_M26\m26.c ****     }
 181:C:/Users/lenovo/Desktop/liteos/Project2/BearPi_LiteOS/components/net/at_device/gprs_M26\m26.c **** }
 182:C:/Users/lenovo/Desktop/liteos/Project2/BearPi_LiteOS/components/net/at_device/gprs_M26\m26.c **** 
 183:C:/Users/lenovo/Desktop/liteos/Project2/BearPi_LiteOS/components/net/at_device/gprs_M26\m26.c **** int32_t m26_recv_cb(int32_t id)
 184:C:/Users/lenovo/Desktop/liteos/Project2/BearPi_LiteOS/components/net/at_device/gprs_M26\m26.c **** {
  28              		.loc 1 184 0
  29              		.cfi_startproc
  30              		@ args = 0, pretend = 0, frame = 0
  31              		@ frame_needed = 0, uses_anonymous_args = 0
  32              		@ link register save eliminated.
  33              	.LVL0:
 185:C:/Users/lenovo/Desktop/liteos/Project2/BearPi_LiteOS/components/net/at_device/gprs_M26\m26.c ****     return AT_FAILED;
 186:C:/Users/lenovo/Desktop/liteos/Project2/BearPi_LiteOS/components/net/at_device/gprs_M26\m26.c **** }
  34              		.loc 1 186 0
  35 0000 4FF0FF30 		mov	r0, #-1
  36              	.LVL1:
  37 0004 7047     		bx	lr
  38              		.cfi_endproc
  39              	.LFE142:
  41              		.section	.text.m26_send,"ax",%progbits
  42              		.align	1
  43              		.global	m26_send
  44              		.syntax unified
ARM GAS  c:\Users\lenovo\AppData\Local\Temp\ccgAwqeK.s 			page 5


  45              		.thumb
  46              		.thumb_func
  47              		.fpu fpv4-sp-d16
  49              	m26_send:
  50              	.LFB140:
 146:C:/Users/lenovo/Desktop/liteos/Project2/BearPi_LiteOS/components/net/at_device/gprs_M26\m26.c ****     int32_t ret = -1;
  51              		.loc 1 146 0
  52              		.cfi_startproc
  53              		@ args = 0, pretend = 0, frame = 64
  54              		@ frame_needed = 0, uses_anonymous_args = 0
  55              	.LVL2:
  56 0000 70B5     		push	{r4, r5, r6, lr}
  57              	.LCFI0:
  58              		.cfi_def_cfa_offset 16
  59              		.cfi_offset 4, -16
  60              		.cfi_offset 5, -12
  61              		.cfi_offset 6, -8
  62              		.cfi_offset 14, -4
  63 0002 92B0     		sub	sp, sp, #72
  64              	.LCFI1:
  65              		.cfi_def_cfa_offset 88
  66 0004 0546     		mov	r5, r0
  67 0006 0E46     		mov	r6, r1
  68 0008 1446     		mov	r4, r2
  69              	.LVL3:
 148:C:/Users/lenovo/Desktop/liteos/Project2/BearPi_LiteOS/components/net/at_device/gprs_M26\m26.c ****     if (AT_MUXMODE_SINGLE == at.mux_mode)
  70              		.loc 1 148 0
  71 000a 4022     		movs	r2, #64
  72              	.LVL4:
  73 000c 0021     		movs	r1, #0
  74              	.LVL5:
  75 000e 02A8     		add	r0, sp, #8
  76              	.LVL6:
  77 0010 FFF7FEFF 		bl	memset
  78              	.LVL7:
 149:C:/Users/lenovo/Desktop/liteos/Project2/BearPi_LiteOS/components/net/at_device/gprs_M26\m26.c ****     {
  79              		.loc 1 149 0
  80 0014 0D4B     		ldr	r3, .L7
  81 0016 1B6B     		ldr	r3, [r3, #48]
  82 0018 83B1     		cbz	r3, .L6
 155:C:/Users/lenovo/Desktop/liteos/Project2/BearPi_LiteOS/components/net/at_device/gprs_M26\m26.c ****     }
  83              		.loc 1 155 0
  84 001a 0194     		str	r4, [sp, #4]
  85 001c 0095     		str	r5, [sp]
  86 001e 0C4B     		ldr	r3, .L7+4
  87 0020 0C4A     		ldr	r2, .L7+8
  88 0022 4021     		movs	r1, #64
  89 0024 02A8     		add	r0, sp, #8
  90 0026 FFF7FEFF 		bl	snprintf
  91              	.LVL8:
  92              	.L4:
 158:C:/Users/lenovo/Desktop/liteos/Project2/BearPi_LiteOS/components/net/at_device/gprs_M26\m26.c **** 
  93              		.loc 1 158 0
  94 002a 084B     		ldr	r3, .L7
  95 002c DD6C     		ldr	r5, [r3, #76]
  96              	.LVL9:
  97 002e 2346     		mov	r3, r4
ARM GAS  c:\Users\lenovo\AppData\Local\Temp\ccgAwqeK.s 			page 6


  98 0030 3246     		mov	r2, r6
  99 0032 0949     		ldr	r1, .L7+12
 100 0034 02A8     		add	r0, sp, #8
 101 0036 A847     		blx	r5
 102              	.LVL10:
 162:C:/Users/lenovo/Desktop/liteos/Project2/BearPi_LiteOS/components/net/at_device/gprs_M26\m26.c **** 
 103              		.loc 1 162 0
 104 0038 12B0     		add	sp, sp, #72
 105              	.LCFI2:
 106              		.cfi_remember_state
 107              		.cfi_def_cfa_offset 16
 108              		@ sp needed
 109 003a 70BD     		pop	{r4, r5, r6, pc}
 110              	.LVL11:
 111              	.L6:
 112              	.LCFI3:
 113              		.cfi_restore_state
 151:C:/Users/lenovo/Desktop/liteos/Project2/BearPi_LiteOS/components/net/at_device/gprs_M26\m26.c ****     }
 114              		.loc 1 151 0
 115 003c 0094     		str	r4, [sp]
 116 003e 044B     		ldr	r3, .L7+4
 117 0040 064A     		ldr	r2, .L7+16
 118 0042 4021     		movs	r1, #64
 119 0044 02A8     		add	r0, sp, #8
 120 0046 FFF7FEFF 		bl	snprintf
 121              	.LVL12:
 122 004a EEE7     		b	.L4
 123              	.L8:
 124              		.align	2
 125              	.L7:
 126 004c 00000000 		.word	at
 127 0050 00000000 		.word	.LC4
 128 0054 14000000 		.word	.LC6
 129 0058 20000000 		.word	.LC7
 130 005c 0C000000 		.word	.LC5
 131              		.cfi_endproc
 132              	.LFE140:
 134              		.section	.text.m26_recv_timeout,"ax",%progbits
 135              		.align	1
 136              		.global	m26_recv_timeout
 137              		.syntax unified
 138              		.thumb
 139              		.thumb_func
 140              		.fpu fpv4-sp-d16
 142              	m26_recv_timeout:
 143              	.LFB138:
 115:C:/Users/lenovo/Desktop/liteos/Project2/BearPi_LiteOS/components/net/at_device/gprs_M26\m26.c ****     uint32_t qlen = sizeof(QUEUE_BUFF);
 144              		.loc 1 115 0
 145              		.cfi_startproc
 146              		@ args = 8, pretend = 0, frame = 56
 147              		@ frame_needed = 0, uses_anonymous_args = 0
 148              	.LVL13:
 149 0000 2DE9F043 		push	{r4, r5, r6, r7, r8, r9, lr}
 150              	.LCFI4:
 151              		.cfi_def_cfa_offset 28
 152              		.cfi_offset 4, -28
 153              		.cfi_offset 5, -24
ARM GAS  c:\Users\lenovo\AppData\Local\Temp\ccgAwqeK.s 			page 7


 154              		.cfi_offset 6, -20
 155              		.cfi_offset 7, -16
 156              		.cfi_offset 8, -12
 157              		.cfi_offset 9, -8
 158              		.cfi_offset 14, -4
 159 0004 93B0     		sub	sp, sp, #76
 160              	.LCFI5:
 161              		.cfi_def_cfa_offset 104
 162 0006 0746     		mov	r7, r0
 163 0008 8846     		mov	r8, r1
 164 000a 1646     		mov	r6, r2
 116:C:/Users/lenovo/Desktop/liteos/Project2/BearPi_LiteOS/components/net/at_device/gprs_M26\m26.c ****     uint32_t rxlen = 0;
 165              		.loc 1 116 0
 166 000c 3422     		movs	r2, #52
 167              	.LVL14:
 168 000e 1192     		str	r2, [sp, #68]
 169              	.LVL15:
 122:C:/Users/lenovo/Desktop/liteos/Project2/BearPi_LiteOS/components/net/at_device/gprs_M26\m26.c ****     AT_LOG("****at.linkid[id].qid=%d***\n", at.linkid[id].qid);
 170              		.loc 1 122 0
 171 0010 0021     		movs	r1, #0
 172              	.LVL16:
 173 0012 04A8     		add	r0, sp, #16
 174              	.LVL17:
 175 0014 FFF7FEFF 		bl	memset
 176              	.LVL18:
 123:C:/Users/lenovo/Desktop/liteos/Project2/BearPi_LiteOS/components/net/at_device/gprs_M26\m26.c ****     int ret = LOS_QueueReadCopy(at.linkid[id].qid, (void *)&qbuf, (UINT32 *)&qlen, timeout);
 177              		.loc 1 123 0
 178 0018 FFF7FEFF 		bl	at_get_time
 179              	.LVL19:
 180 001c DFF88090 		ldr	r9, .L15+12
 181 0020 D9F83430 		ldr	r3, [r9, #52]
 182 0024 7C01     		lsls	r4, r7, #5
 183 0026 2344     		add	r3, r3, r4
 184 0028 1A4D     		ldr	r5, .L15
 185 002a 5B68     		ldr	r3, [r3, #4]
 186 002c 0093     		str	r3, [sp]
 187 002e 7B23     		movs	r3, #123
 188 0030 2A46     		mov	r2, r5
 189 0032 0146     		mov	r1, r0
 190 0034 1848     		ldr	r0, .L15+4
 191 0036 FFF7FEFF 		bl	printf
 192              	.LVL20:
 124:C:/Users/lenovo/Desktop/liteos/Project2/BearPi_LiteOS/components/net/at_device/gprs_M26\m26.c ****     AT_LOG("ret = %x, len = %ld, id = %ld", ret, qbuf.len, id);
 193              		.loc 1 124 0
 194 003a D9F83400 		ldr	r0, [r9, #52]
 195 003e 2044     		add	r0, r0, r4
 196 0040 1B9B     		ldr	r3, [sp, #108]
 197 0042 11AA     		add	r2, sp, #68
 198 0044 04A9     		add	r1, sp, #16
 199 0046 4068     		ldr	r0, [r0, #4]
 200 0048 FFF7FEFF 		bl	LOS_QueueReadCopy
 201              	.LVL21:
 202 004c 0446     		mov	r4, r0
 203              	.LVL22:
 125:C:/Users/lenovo/Desktop/liteos/Project2/BearPi_LiteOS/components/net/at_device/gprs_M26\m26.c ****     if (ret != LOS_OK)
 204              		.loc 1 125 0
 205 004e FFF7FEFF 		bl	at_get_time
ARM GAS  c:\Users\lenovo\AppData\Local\Temp\ccgAwqeK.s 			page 8


 206              	.LVL23:
 207 0052 0297     		str	r7, [sp, #8]
 208 0054 049B     		ldr	r3, [sp, #16]
 209 0056 0193     		str	r3, [sp, #4]
 210 0058 0094     		str	r4, [sp]
 211 005a 7D23     		movs	r3, #125
 212 005c 2A46     		mov	r2, r5
 213 005e 0146     		mov	r1, r0
 214 0060 0E48     		ldr	r0, .L15+8
 215 0062 FFF7FEFF 		bl	printf
 216              	.LVL24:
 126:C:/Users/lenovo/Desktop/liteos/Project2/BearPi_LiteOS/components/net/at_device/gprs_M26\m26.c ****     {
 217              		.loc 1 126 0
 218 0066 8CB9     		cbnz	r4, .L12
 131:C:/Users/lenovo/Desktop/liteos/Project2/BearPi_LiteOS/components/net/at_device/gprs_M26\m26.c ****     {
 219              		.loc 1 131 0
 220 0068 049C     		ldr	r4, [sp, #16]
 221              	.LVL25:
 222 006a 1CB9     		cbnz	r4, .L14
 223              	.LVL26:
 224              	.L11:
 137:C:/Users/lenovo/Desktop/liteos/Project2/BearPi_LiteOS/components/net/at_device/gprs_M26\m26.c **** }
 225              		.loc 1 137 0
 226 006c 2046     		mov	r0, r4
 227              	.LVL27:
 228              	.L9:
 138:C:/Users/lenovo/Desktop/liteos/Project2/BearPi_LiteOS/components/net/at_device/gprs_M26\m26.c **** 
 229              		.loc 1 138 0
 230 006e 13B0     		add	sp, sp, #76
 231              	.LCFI6:
 232              		.cfi_remember_state
 233              		.cfi_def_cfa_offset 28
 234              		@ sp needed
 235 0070 BDE8F083 		pop	{r4, r5, r6, r7, r8, r9, pc}
 236              	.LVL28:
 237              	.L14:
 238              	.LCFI7:
 239              		.cfi_restore_state
 133:C:/Users/lenovo/Desktop/liteos/Project2/BearPi_LiteOS/components/net/at_device/gprs_M26\m26.c ****         memcpy(buf, qbuf.addr, rxlen);
 240              		.loc 1 133 0
 241 0074 B442     		cmp	r4, r6
 242 0076 28BF     		it	cs
 243 0078 3446     		movcs	r4, r6
 244              	.LVL29:
 134:C:/Users/lenovo/Desktop/liteos/Project2/BearPi_LiteOS/components/net/at_device/gprs_M26\m26.c ****         at_free(qbuf.addr);
 245              		.loc 1 134 0
 246 007a 2246     		mov	r2, r4
 247 007c 0599     		ldr	r1, [sp, #20]
 248 007e 4046     		mov	r0, r8
 249 0080 FFF7FEFF 		bl	memcpy
 250              	.LVL30:
 135:C:/Users/lenovo/Desktop/liteos/Project2/BearPi_LiteOS/components/net/at_device/gprs_M26\m26.c ****     }
 251              		.loc 1 135 0
 252 0084 0598     		ldr	r0, [sp, #20]
 253 0086 FFF7FEFF 		bl	at_free
 254              	.LVL31:
 255 008a EFE7     		b	.L11
ARM GAS  c:\Users\lenovo\AppData\Local\Temp\ccgAwqeK.s 			page 9


 256              	.LVL32:
 257              	.L12:
 128:C:/Users/lenovo/Desktop/liteos/Project2/BearPi_LiteOS/components/net/at_device/gprs_M26\m26.c ****     }
 258              		.loc 1 128 0
 259 008c 4FF0FF30 		mov	r0, #-1
 260 0090 EDE7     		b	.L9
 261              	.L16:
 262 0092 00BF     		.align	2
 263              	.L15:
 264 0094 00000000 		.word	.LANCHOR0
 265 0098 00000000 		.word	.LC8
 266 009c 30000000 		.word	.LC9
 267 00a0 00000000 		.word	at
 268              		.cfi_endproc
 269              	.LFE138:
 271              		.section	.text.m26_recv,"ax",%progbits
 272              		.align	1
 273              		.global	m26_recv
 274              		.syntax unified
 275              		.thumb
 276              		.thumb_func
 277              		.fpu fpv4-sp-d16
 279              	m26_recv:
 280              	.LFB139:
 141:C:/Users/lenovo/Desktop/liteos/Project2/BearPi_LiteOS/components/net/at_device/gprs_M26\m26.c ****     return m26_recv_timeout(id, buf, len, NULL,NULL,LOS_WAIT_FOREVER);
 281              		.loc 1 141 0
 282              		.cfi_startproc
 283              		@ args = 0, pretend = 0, frame = 0
 284              		@ frame_needed = 0, uses_anonymous_args = 0
 285              	.LVL33:
 286 0000 00B5     		push	{lr}
 287              	.LCFI8:
 288              		.cfi_def_cfa_offset 4
 289              		.cfi_offset 14, -4
 290 0002 83B0     		sub	sp, sp, #12
 291              	.LCFI9:
 292              		.cfi_def_cfa_offset 16
 142:C:/Users/lenovo/Desktop/liteos/Project2/BearPi_LiteOS/components/net/at_device/gprs_M26\m26.c **** }
 293              		.loc 1 142 0
 294 0004 4FF0FF33 		mov	r3, #-1
 295 0008 0193     		str	r3, [sp, #4]
 296 000a 0023     		movs	r3, #0
 297 000c 0093     		str	r3, [sp]
 298 000e FFF7FEFF 		bl	m26_recv_timeout
 299              	.LVL34:
 143:C:/Users/lenovo/Desktop/liteos/Project2/BearPi_LiteOS/components/net/at_device/gprs_M26\m26.c **** 
 300              		.loc 1 143 0
 301 0012 03B0     		add	sp, sp, #12
 302              	.LCFI10:
 303              		.cfi_def_cfa_offset 4
 304              		@ sp needed
 305 0014 5DF804FB 		ldr	pc, [sp], #4
 306              		.cfi_endproc
 307              	.LFE139:
 309              		.section	.text.m26_close,"ax",%progbits
 310              		.align	1
 311              		.global	m26_close
ARM GAS  c:\Users\lenovo\AppData\Local\Temp\ccgAwqeK.s 			page 10


 312              		.syntax unified
 313              		.thumb
 314              		.thumb_func
 315              		.fpu fpv4-sp-d16
 317              	m26_close:
 318              	.LFB143:
 187:C:/Users/lenovo/Desktop/liteos/Project2/BearPi_LiteOS/components/net/at_device/gprs_M26\m26.c **** 
 188:C:/Users/lenovo/Desktop/liteos/Project2/BearPi_LiteOS/components/net/at_device/gprs_M26\m26.c **** int32_t m26_close(int32_t id)
 189:C:/Users/lenovo/Desktop/liteos/Project2/BearPi_LiteOS/components/net/at_device/gprs_M26\m26.c **** {
 319              		.loc 1 189 0
 320              		.cfi_startproc
 321              		@ args = 0, pretend = 0, frame = 120
 322              		@ frame_needed = 0, uses_anonymous_args = 0
 323              	.LVL35:
 324 0000 70B5     		push	{r4, r5, r6, lr}
 325              	.LCFI11:
 326              		.cfi_def_cfa_offset 16
 327              		.cfi_offset 4, -16
 328              		.cfi_offset 5, -12
 329              		.cfi_offset 6, -8
 330              		.cfi_offset 14, -4
 331 0002 A0B0     		sub	sp, sp, #128
 332              	.LCFI12:
 333              		.cfi_def_cfa_offset 144
 334 0004 0546     		mov	r5, r0
 190:C:/Users/lenovo/Desktop/liteos/Project2/BearPi_LiteOS/components/net/at_device/gprs_M26\m26.c ****     char cmd[64] = {0};
 335              		.loc 1 190 0
 336 0006 4022     		movs	r2, #64
 337 0008 0021     		movs	r1, #0
 338 000a 0DEB0200 		add	r0, sp, r2
 339              	.LVL36:
 340 000e FFF7FEFF 		bl	memset
 341              	.LVL37:
 191:C:/Users/lenovo/Desktop/liteos/Project2/BearPi_LiteOS/components/net/at_device/gprs_M26\m26.c ****     if (AT_MUXMODE_SINGLE == at.mux_mode)
 342              		.loc 1 191 0
 343 0012 244B     		ldr	r3, .L28
 344 0014 1B6B     		ldr	r3, [r3, #48]
 345 0016 E3B1     		cbz	r3, .L26
 346              	.LBB2:
 192:C:/Users/lenovo/Desktop/liteos/Project2/BearPi_LiteOS/components/net/at_device/gprs_M26\m26.c ****     {
 193:C:/Users/lenovo/Desktop/liteos/Project2/BearPi_LiteOS/components/net/at_device/gprs_M26\m26.c ****         snprintf(cmd, 64, "%s", AT_CMD_CLOSE);
 194:C:/Users/lenovo/Desktop/liteos/Project2/BearPi_LiteOS/components/net/at_device/gprs_M26\m26.c ****     }
 195:C:/Users/lenovo/Desktop/liteos/Project2/BearPi_LiteOS/components/net/at_device/gprs_M26\m26.c ****     else
 196:C:/Users/lenovo/Desktop/liteos/Project2/BearPi_LiteOS/components/net/at_device/gprs_M26\m26.c ****     {
 197:C:/Users/lenovo/Desktop/liteos/Project2/BearPi_LiteOS/components/net/at_device/gprs_M26\m26.c ****         uint32_t qlen = sizeof(QUEUE_BUFF);
 347              		.loc 1 197 0
 348 0018 3422     		movs	r2, #52
 349 001a 0292     		str	r2, [sp, #8]
 198:C:/Users/lenovo/Desktop/liteos/Project2/BearPi_LiteOS/components/net/at_device/gprs_M26\m26.c ****         QUEUE_BUFF  qbuf = {0, NULL};
 350              		.loc 1 198 0
 351 001c 0021     		movs	r1, #0
 352 001e 03A8     		add	r0, sp, #12
 353 0020 FFF7FEFF 		bl	memset
 354              	.LVL38:
 355              	.L23:
 199:C:/Users/lenovo/Desktop/liteos/Project2/BearPi_LiteOS/components/net/at_device/gprs_M26\m26.c ****         while(LOS_OK == LOS_QueueReadCopy(at.linkid[id].qid, (void *)&qbuf, (UINT32 *)&qlen, 10))
 356              		.loc 1 199 0
ARM GAS  c:\Users\lenovo\AppData\Local\Temp\ccgAwqeK.s 			page 11


 357 0024 1F4B     		ldr	r3, .L28
 358 0026 586B     		ldr	r0, [r3, #52]
 359 0028 6C01     		lsls	r4, r5, #5
 360 002a 2044     		add	r0, r0, r4
 361 002c 0A23     		movs	r3, #10
 362 002e 02AA     		add	r2, sp, #8
 363 0030 03A9     		add	r1, sp, #12
 364 0032 4068     		ldr	r0, [r0, #4]
 365 0034 FFF7FEFF 		bl	LOS_QueueReadCopy
 366              	.LVL39:
 367 0038 A0B9     		cbnz	r0, .L27
 200:C:/Users/lenovo/Desktop/liteos/Project2/BearPi_LiteOS/components/net/at_device/gprs_M26\m26.c ****         {
 201:C:/Users/lenovo/Desktop/liteos/Project2/BearPi_LiteOS/components/net/at_device/gprs_M26\m26.c ****             if (qbuf.len)
 368              		.loc 1 201 0
 369 003a 039B     		ldr	r3, [sp, #12]
 370 003c 002B     		cmp	r3, #0
 371 003e F1D0     		beq	.L23
 202:C:/Users/lenovo/Desktop/liteos/Project2/BearPi_LiteOS/components/net/at_device/gprs_M26\m26.c ****             {
 203:C:/Users/lenovo/Desktop/liteos/Project2/BearPi_LiteOS/components/net/at_device/gprs_M26\m26.c ****                 at_free(qbuf.addr);
 372              		.loc 1 203 0
 373 0040 0498     		ldr	r0, [sp, #16]
 374 0042 FFF7FEFF 		bl	at_free
 375              	.LVL40:
 204:C:/Users/lenovo/Desktop/liteos/Project2/BearPi_LiteOS/components/net/at_device/gprs_M26\m26.c ****                 memset(&qbuf, 0, sizeof(QUEUE_BUFF)); // don't use qlen
 376              		.loc 1 204 0
 377 0046 3422     		movs	r2, #52
 378 0048 0021     		movs	r1, #0
 379 004a 03A8     		add	r0, sp, #12
 380 004c FFF7FEFF 		bl	memset
 381              	.LVL41:
 382 0050 E8E7     		b	.L23
 383              	.L26:
 384              	.LBE2:
 193:C:/Users/lenovo/Desktop/liteos/Project2/BearPi_LiteOS/components/net/at_device/gprs_M26\m26.c ****     }
 385              		.loc 1 193 0
 386 0052 154A     		ldr	r2, .L28+4
 387 0054 10AB     		add	r3, sp, #64
 388 0056 07CA     		ldm	r2, {r0, r1, r2}
 389 0058 03C3     		stmia	r3!, {r0, r1}
 390 005a 23F8022B 		strh	r2, [r3], #2	@ movhi
 391 005e 120C     		lsrs	r2, r2, #16
 392 0060 1A70     		strb	r2, [r3]
 393 0062 11E0     		b	.L21
 394              	.L27:
 395              	.LBB3:
 205:C:/Users/lenovo/Desktop/liteos/Project2/BearPi_LiteOS/components/net/at_device/gprs_M26\m26.c ****             }
 206:C:/Users/lenovo/Desktop/liteos/Project2/BearPi_LiteOS/components/net/at_device/gprs_M26\m26.c ****         }
 207:C:/Users/lenovo/Desktop/liteos/Project2/BearPi_LiteOS/components/net/at_device/gprs_M26\m26.c ****         (void)LOS_QueueDelete(at.linkid[id].qid);
 396              		.loc 1 207 0
 397 0064 0F4E     		ldr	r6, .L28
 398 0066 736B     		ldr	r3, [r6, #52]
 399 0068 2344     		add	r3, r3, r4
 400 006a 5868     		ldr	r0, [r3, #4]
 401 006c FFF7FEFF 		bl	LOS_QueueDelete
 402              	.LVL42:
 208:C:/Users/lenovo/Desktop/liteos/Project2/BearPi_LiteOS/components/net/at_device/gprs_M26\m26.c ****         at.linkid[id].usable = 0;
 403              		.loc 1 208 0
ARM GAS  c:\Users\lenovo\AppData\Local\Temp\ccgAwqeK.s 			page 12


 404 0070 736B     		ldr	r3, [r6, #52]
 405 0072 1C44     		add	r4, r4, r3
 406 0074 0023     		movs	r3, #0
 407 0076 A360     		str	r3, [r4, #8]
 209:C:/Users/lenovo/Desktop/liteos/Project2/BearPi_LiteOS/components/net/at_device/gprs_M26\m26.c ****         snprintf(cmd, 64, "%s=%ld", AT_CMD_CLOSE, id);
 408              		.loc 1 209 0
 409 0078 0095     		str	r5, [sp]
 410 007a 0B4B     		ldr	r3, .L28+4
 411 007c 0B4A     		ldr	r2, .L28+8
 412 007e 4021     		movs	r1, #64
 413 0080 0DEB0100 		add	r0, sp, r1
 414 0084 FFF7FEFF 		bl	snprintf
 415              	.LVL43:
 416              	.L21:
 417              	.LBE3:
 210:C:/Users/lenovo/Desktop/liteos/Project2/BearPi_LiteOS/components/net/at_device/gprs_M26\m26.c ****     }
 211:C:/Users/lenovo/Desktop/liteos/Project2/BearPi_LiteOS/components/net/at_device/gprs_M26\m26.c ****     return at.cmd((int8_t *)cmd, strlen(cmd), "OK", NULL,NULL);
 418              		.loc 1 211 0
 419 0088 064B     		ldr	r3, .L28
 420 008a 9C6C     		ldr	r4, [r3, #72]
 421 008c 10A8     		add	r0, sp, #64
 422 008e FFF7FEFF 		bl	strlen
 423              	.LVL44:
 424 0092 0023     		movs	r3, #0
 425 0094 0093     		str	r3, [sp]
 426 0096 064A     		ldr	r2, .L28+12
 427 0098 0146     		mov	r1, r0
 428 009a 10A8     		add	r0, sp, #64
 429 009c A047     		blx	r4
 430              	.LVL45:
 212:C:/Users/lenovo/Desktop/liteos/Project2/BearPi_LiteOS/components/net/at_device/gprs_M26\m26.c **** }
 431              		.loc 1 212 0
 432 009e 20B0     		add	sp, sp, #128
 433              	.LCFI13:
 434              		.cfi_def_cfa_offset 16
 435              		@ sp needed
 436 00a0 70BD     		pop	{r4, r5, r6, pc}
 437              	.LVL46:
 438              	.L29:
 439 00a2 00BF     		.align	2
 440              	.L28:
 441 00a4 00000000 		.word	at
 442 00a8 00000000 		.word	.LC10
 443 00ac 0C000000 		.word	.LC5
 444 00b0 0C000000 		.word	.LC11
 445              		.cfi_endproc
 446              	.LFE143:
 448              		.section	.text.m26_deinit,"ax",%progbits
 449              		.align	1
 450              		.global	m26_deinit
 451              		.syntax unified
 452              		.thumb
 453              		.thumb_func
 454              		.fpu fpv4-sp-d16
 456              	m26_deinit:
 457              	.LFB147:
 213:C:/Users/lenovo/Desktop/liteos/Project2/BearPi_LiteOS/components/net/at_device/gprs_M26\m26.c **** int32_t m26_data_handler(void *arg, int8_t *buf, int32_t len)
ARM GAS  c:\Users\lenovo\AppData\Local\Temp\ccgAwqeK.s 			page 13


 214:C:/Users/lenovo/Desktop/liteos/Project2/BearPi_LiteOS/components/net/at_device/gprs_M26\m26.c **** {
 215:C:/Users/lenovo/Desktop/liteos/Project2/BearPi_LiteOS/components/net/at_device/gprs_M26\m26.c ****     if (NULL == buf || len <= 0)
 216:C:/Users/lenovo/Desktop/liteos/Project2/BearPi_LiteOS/components/net/at_device/gprs_M26\m26.c ****     {
 217:C:/Users/lenovo/Desktop/liteos/Project2/BearPi_LiteOS/components/net/at_device/gprs_M26\m26.c ****         AT_LOG("param invailed!");
 218:C:/Users/lenovo/Desktop/liteos/Project2/BearPi_LiteOS/components/net/at_device/gprs_M26\m26.c ****         return -1;
 219:C:/Users/lenovo/Desktop/liteos/Project2/BearPi_LiteOS/components/net/at_device/gprs_M26\m26.c ****     }
 220:C:/Users/lenovo/Desktop/liteos/Project2/BearPi_LiteOS/components/net/at_device/gprs_M26\m26.c ****     AT_LOG("entry!");
 221:C:/Users/lenovo/Desktop/liteos/Project2/BearPi_LiteOS/components/net/at_device/gprs_M26\m26.c **** 
 222:C:/Users/lenovo/Desktop/liteos/Project2/BearPi_LiteOS/components/net/at_device/gprs_M26\m26.c ****     //process data frame ,like +IPD,linkid,len:data
 223:C:/Users/lenovo/Desktop/liteos/Project2/BearPi_LiteOS/components/net/at_device/gprs_M26\m26.c ****     int32_t ret = 0;
 224:C:/Users/lenovo/Desktop/liteos/Project2/BearPi_LiteOS/components/net/at_device/gprs_M26\m26.c ****     int32_t linkid = 0, data_len = 0;
 225:C:/Users/lenovo/Desktop/liteos/Project2/BearPi_LiteOS/components/net/at_device/gprs_M26\m26.c ****     char *p1, *p2;
 226:C:/Users/lenovo/Desktop/liteos/Project2/BearPi_LiteOS/components/net/at_device/gprs_M26\m26.c ****     QUEUE_BUFF qbuf;
 227:C:/Users/lenovo/Desktop/liteos/Project2/BearPi_LiteOS/components/net/at_device/gprs_M26\m26.c ****     p1 = (char *)buf;
 228:C:/Users/lenovo/Desktop/liteos/Project2/BearPi_LiteOS/components/net/at_device/gprs_M26\m26.c **** 
 229:C:/Users/lenovo/Desktop/liteos/Project2/BearPi_LiteOS/components/net/at_device/gprs_M26\m26.c ****     if (0 == memcmp(p1, prefix_name, strlen(prefix_name)))
 230:C:/Users/lenovo/Desktop/liteos/Project2/BearPi_LiteOS/components/net/at_device/gprs_M26\m26.c ****     {
 231:C:/Users/lenovo/Desktop/liteos/Project2/BearPi_LiteOS/components/net/at_device/gprs_M26\m26.c ****         p2 = strstr(p1, ",");
 232:C:/Users/lenovo/Desktop/liteos/Project2/BearPi_LiteOS/components/net/at_device/gprs_M26\m26.c ****         if (NULL == p2)
 233:C:/Users/lenovo/Desktop/liteos/Project2/BearPi_LiteOS/components/net/at_device/gprs_M26\m26.c ****         {
 234:C:/Users/lenovo/Desktop/liteos/Project2/BearPi_LiteOS/components/net/at_device/gprs_M26\m26.c ****             AT_LOG("got data prefix invailed!");
 235:C:/Users/lenovo/Desktop/liteos/Project2/BearPi_LiteOS/components/net/at_device/gprs_M26\m26.c ****             goto END;
 236:C:/Users/lenovo/Desktop/liteos/Project2/BearPi_LiteOS/components/net/at_device/gprs_M26\m26.c ****         }
 237:C:/Users/lenovo/Desktop/liteos/Project2/BearPi_LiteOS/components/net/at_device/gprs_M26\m26.c **** 
 238:C:/Users/lenovo/Desktop/liteos/Project2/BearPi_LiteOS/components/net/at_device/gprs_M26\m26.c ****         if (AT_MUXMODE_MULTI == at.mux_mode)
 239:C:/Users/lenovo/Desktop/liteos/Project2/BearPi_LiteOS/components/net/at_device/gprs_M26\m26.c ****         {
 240:C:/Users/lenovo/Desktop/liteos/Project2/BearPi_LiteOS/components/net/at_device/gprs_M26\m26.c ****             linkid = 0;
 241:C:/Users/lenovo/Desktop/liteos/Project2/BearPi_LiteOS/components/net/at_device/gprs_M26\m26.c ****             for (p2++; *p2 <= '9' && *p2 >= '0'; p2++)
 242:C:/Users/lenovo/Desktop/liteos/Project2/BearPi_LiteOS/components/net/at_device/gprs_M26\m26.c ****             {
 243:C:/Users/lenovo/Desktop/liteos/Project2/BearPi_LiteOS/components/net/at_device/gprs_M26\m26.c ****                 linkid = linkid * 10 + (*p2 - '0');
 244:C:/Users/lenovo/Desktop/liteos/Project2/BearPi_LiteOS/components/net/at_device/gprs_M26\m26.c ****             }
 245:C:/Users/lenovo/Desktop/liteos/Project2/BearPi_LiteOS/components/net/at_device/gprs_M26\m26.c ****         }
 246:C:/Users/lenovo/Desktop/liteos/Project2/BearPi_LiteOS/components/net/at_device/gprs_M26\m26.c **** 
 247:C:/Users/lenovo/Desktop/liteos/Project2/BearPi_LiteOS/components/net/at_device/gprs_M26\m26.c ****         for (p2++; *p2 <= '9' && *p2 >= '0' ; p2++)
 248:C:/Users/lenovo/Desktop/liteos/Project2/BearPi_LiteOS/components/net/at_device/gprs_M26\m26.c ****         {	
 249:C:/Users/lenovo/Desktop/liteos/Project2/BearPi_LiteOS/components/net/at_device/gprs_M26\m26.c ****             data_len = (data_len * 10 + (*p2 - '0'));
 250:C:/Users/lenovo/Desktop/liteos/Project2/BearPi_LiteOS/components/net/at_device/gprs_M26\m26.c ****         }
 251:C:/Users/lenovo/Desktop/liteos/Project2/BearPi_LiteOS/components/net/at_device/gprs_M26\m26.c ****         p2++; //over ':'
 252:C:/Users/lenovo/Desktop/liteos/Project2/BearPi_LiteOS/components/net/at_device/gprs_M26\m26.c **** 
 253:C:/Users/lenovo/Desktop/liteos/Project2/BearPi_LiteOS/components/net/at_device/gprs_M26\m26.c ****         if (data_len > len)
 254:C:/Users/lenovo/Desktop/liteos/Project2/BearPi_LiteOS/components/net/at_device/gprs_M26\m26.c ****         {
 255:C:/Users/lenovo/Desktop/liteos/Project2/BearPi_LiteOS/components/net/at_device/gprs_M26\m26.c ****             AT_LOG("error !! receive data not complete data_len:%ld len:%ld",data_len,len);
 256:C:/Users/lenovo/Desktop/liteos/Project2/BearPi_LiteOS/components/net/at_device/gprs_M26\m26.c ****             goto END;
 257:C:/Users/lenovo/Desktop/liteos/Project2/BearPi_LiteOS/components/net/at_device/gprs_M26\m26.c ****         }
 258:C:/Users/lenovo/Desktop/liteos/Project2/BearPi_LiteOS/components/net/at_device/gprs_M26\m26.c **** 
 259:C:/Users/lenovo/Desktop/liteos/Project2/BearPi_LiteOS/components/net/at_device/gprs_M26\m26.c ****         qbuf.addr = at_malloc(data_len);
 260:C:/Users/lenovo/Desktop/liteos/Project2/BearPi_LiteOS/components/net/at_device/gprs_M26\m26.c ****         if (NULL == qbuf.addr)
 261:C:/Users/lenovo/Desktop/liteos/Project2/BearPi_LiteOS/components/net/at_device/gprs_M26\m26.c ****         {
 262:C:/Users/lenovo/Desktop/liteos/Project2/BearPi_LiteOS/components/net/at_device/gprs_M26\m26.c ****             AT_LOG("malloc for qbuf failed!");
 263:C:/Users/lenovo/Desktop/liteos/Project2/BearPi_LiteOS/components/net/at_device/gprs_M26\m26.c ****             goto END;
 264:C:/Users/lenovo/Desktop/liteos/Project2/BearPi_LiteOS/components/net/at_device/gprs_M26\m26.c ****         }
 265:C:/Users/lenovo/Desktop/liteos/Project2/BearPi_LiteOS/components/net/at_device/gprs_M26\m26.c **** 
 266:C:/Users/lenovo/Desktop/liteos/Project2/BearPi_LiteOS/components/net/at_device/gprs_M26\m26.c ****         qbuf.len = data_len;
 267:C:/Users/lenovo/Desktop/liteos/Project2/BearPi_LiteOS/components/net/at_device/gprs_M26\m26.c ****         if(AT_MUXMODE_MULTI == at.mux_mode)
 268:C:/Users/lenovo/Desktop/liteos/Project2/BearPi_LiteOS/components/net/at_device/gprs_M26\m26.c ****         {
 269:C:/Users/lenovo/Desktop/liteos/Project2/BearPi_LiteOS/components/net/at_device/gprs_M26\m26.c ****              for (p2++; *p2 !=':';p2++)
 270:C:/Users/lenovo/Desktop/liteos/Project2/BearPi_LiteOS/components/net/at_device/gprs_M26\m26.c ****             {
ARM GAS  c:\Users\lenovo\AppData\Local\Temp\ccgAwqeK.s 			page 14


 271:C:/Users/lenovo/Desktop/liteos/Project2/BearPi_LiteOS/components/net/at_device/gprs_M26\m26.c ****                 
 272:C:/Users/lenovo/Desktop/liteos/Project2/BearPi_LiteOS/components/net/at_device/gprs_M26\m26.c ****             }
 273:C:/Users/lenovo/Desktop/liteos/Project2/BearPi_LiteOS/components/net/at_device/gprs_M26\m26.c **** 						p2++;
 274:C:/Users/lenovo/Desktop/liteos/Project2/BearPi_LiteOS/components/net/at_device/gprs_M26\m26.c **** 					//multi-connect prefix is +RECEIVE,0,13:\r\n+packet content
 275:C:/Users/lenovo/Desktop/liteos/Project2/BearPi_LiteOS/components/net/at_device/gprs_M26\m26.c ****         }
 276:C:/Users/lenovo/Desktop/liteos/Project2/BearPi_LiteOS/components/net/at_device/gprs_M26\m26.c ****         memcpy(qbuf.addr, p2, data_len);
 277:C:/Users/lenovo/Desktop/liteos/Project2/BearPi_LiteOS/components/net/at_device/gprs_M26\m26.c **** 
 278:C:/Users/lenovo/Desktop/liteos/Project2/BearPi_LiteOS/components/net/at_device/gprs_M26\m26.c ****         if (LOS_OK != (ret = LOS_QueueWriteCopy(at.linkid[linkid].qid, &qbuf, sizeof(QUEUE_BUFF), 0
 279:C:/Users/lenovo/Desktop/liteos/Project2/BearPi_LiteOS/components/net/at_device/gprs_M26\m26.c ****         {
 280:C:/Users/lenovo/Desktop/liteos/Project2/BearPi_LiteOS/components/net/at_device/gprs_M26\m26.c ****             AT_LOG("LOS_QueueWriteCopy  failed! ret = %lx", ret);
 281:C:/Users/lenovo/Desktop/liteos/Project2/BearPi_LiteOS/components/net/at_device/gprs_M26\m26.c ****             at_free(qbuf.addr);
 282:C:/Users/lenovo/Desktop/liteos/Project2/BearPi_LiteOS/components/net/at_device/gprs_M26\m26.c ****             goto END;
 283:C:/Users/lenovo/Desktop/liteos/Project2/BearPi_LiteOS/components/net/at_device/gprs_M26\m26.c ****         }
 284:C:/Users/lenovo/Desktop/liteos/Project2/BearPi_LiteOS/components/net/at_device/gprs_M26\m26.c ****         ret = (p2 + data_len - (char *)buf);
 285:C:/Users/lenovo/Desktop/liteos/Project2/BearPi_LiteOS/components/net/at_device/gprs_M26\m26.c ****     }
 286:C:/Users/lenovo/Desktop/liteos/Project2/BearPi_LiteOS/components/net/at_device/gprs_M26\m26.c **** END:
 287:C:/Users/lenovo/Desktop/liteos/Project2/BearPi_LiteOS/components/net/at_device/gprs_M26\m26.c ****     return ret;
 288:C:/Users/lenovo/Desktop/liteos/Project2/BearPi_LiteOS/components/net/at_device/gprs_M26\m26.c **** }
 289:C:/Users/lenovo/Desktop/liteos/Project2/BearPi_LiteOS/components/net/at_device/gprs_M26\m26.c **** 
 290:C:/Users/lenovo/Desktop/liteos/Project2/BearPi_LiteOS/components/net/at_device/gprs_M26\m26.c **** int32_t m26_cmd_match(const char *buf, char* featurestr,int len)
 291:C:/Users/lenovo/Desktop/liteos/Project2/BearPi_LiteOS/components/net/at_device/gprs_M26\m26.c **** {
 292:C:/Users/lenovo/Desktop/liteos/Project2/BearPi_LiteOS/components/net/at_device/gprs_M26\m26.c ****     return memcmp(buf,featurestr,len);
 293:C:/Users/lenovo/Desktop/liteos/Project2/BearPi_LiteOS/components/net/at_device/gprs_M26\m26.c **** }
 294:C:/Users/lenovo/Desktop/liteos/Project2/BearPi_LiteOS/components/net/at_device/gprs_M26\m26.c **** 
 295:C:/Users/lenovo/Desktop/liteos/Project2/BearPi_LiteOS/components/net/at_device/gprs_M26\m26.c **** int32_t m26_ini()
 296:C:/Users/lenovo/Desktop/liteos/Project2/BearPi_LiteOS/components/net/at_device/gprs_M26\m26.c **** {
 297:C:/Users/lenovo/Desktop/liteos/Project2/BearPi_LiteOS/components/net/at_device/gprs_M26\m26.c ****     at_config at_user_conf =
 298:C:/Users/lenovo/Desktop/liteos/Project2/BearPi_LiteOS/components/net/at_device/gprs_M26\m26.c ****     {
 299:C:/Users/lenovo/Desktop/liteos/Project2/BearPi_LiteOS/components/net/at_device/gprs_M26\m26.c ****         .name = AT_MODU_NAME,
 300:C:/Users/lenovo/Desktop/liteos/Project2/BearPi_LiteOS/components/net/at_device/gprs_M26\m26.c ****         .usart_port = AT_USART_PORT,
 301:C:/Users/lenovo/Desktop/liteos/Project2/BearPi_LiteOS/components/net/at_device/gprs_M26\m26.c ****         .buardrate = AT_BUARDRATE,
 302:C:/Users/lenovo/Desktop/liteos/Project2/BearPi_LiteOS/components/net/at_device/gprs_M26\m26.c ****         .linkid_num = AT_MAX_LINK_NUM,
 303:C:/Users/lenovo/Desktop/liteos/Project2/BearPi_LiteOS/components/net/at_device/gprs_M26\m26.c ****         .user_buf_len = MAX_AT_USERDATA_LEN,
 304:C:/Users/lenovo/Desktop/liteos/Project2/BearPi_LiteOS/components/net/at_device/gprs_M26\m26.c ****         .cmd_begin = AT_CMD_BEGIN,
 305:C:/Users/lenovo/Desktop/liteos/Project2/BearPi_LiteOS/components/net/at_device/gprs_M26\m26.c ****         .line_end = AT_LINE_END,
 306:C:/Users/lenovo/Desktop/liteos/Project2/BearPi_LiteOS/components/net/at_device/gprs_M26\m26.c ****         .mux_mode = 1, //support multi connection mode
 307:C:/Users/lenovo/Desktop/liteos/Project2/BearPi_LiteOS/components/net/at_device/gprs_M26\m26.c ****         .timeout = AT_CMD_TIMEOUT,   //  ms
 308:C:/Users/lenovo/Desktop/liteos/Project2/BearPi_LiteOS/components/net/at_device/gprs_M26\m26.c ****     };
 309:C:/Users/lenovo/Desktop/liteos/Project2/BearPi_LiteOS/components/net/at_device/gprs_M26\m26.c ****     at.init(&at_user_conf);
 310:C:/Users/lenovo/Desktop/liteos/Project2/BearPi_LiteOS/components/net/at_device/gprs_M26\m26.c ****     //single and multi connect prefix is different
 311:C:/Users/lenovo/Desktop/liteos/Project2/BearPi_LiteOS/components/net/at_device/gprs_M26\m26.c ****     if (AT_MUXMODE_MULTI == at.mux_mode)
 312:C:/Users/lenovo/Desktop/liteos/Project2/BearPi_LiteOS/components/net/at_device/gprs_M26\m26.c ****     {
 313:C:/Users/lenovo/Desktop/liteos/Project2/BearPi_LiteOS/components/net/at_device/gprs_M26\m26.c ****         memcpy(prefix_name, AT_DATAF_PREFIX_MULTI, sizeof(AT_DATAF_PREFIX_MULTI));
 314:C:/Users/lenovo/Desktop/liteos/Project2/BearPi_LiteOS/components/net/at_device/gprs_M26\m26.c ****     }
 315:C:/Users/lenovo/Desktop/liteos/Project2/BearPi_LiteOS/components/net/at_device/gprs_M26\m26.c ****     else
 316:C:/Users/lenovo/Desktop/liteos/Project2/BearPi_LiteOS/components/net/at_device/gprs_M26\m26.c ****     {
 317:C:/Users/lenovo/Desktop/liteos/Project2/BearPi_LiteOS/components/net/at_device/gprs_M26\m26.c ****         memcpy(prefix_name, AT_DATAF_PREFIX, sizeof(AT_DATAF_PREFIX));
 318:C:/Users/lenovo/Desktop/liteos/Project2/BearPi_LiteOS/components/net/at_device/gprs_M26\m26.c ****     }
 319:C:/Users/lenovo/Desktop/liteos/Project2/BearPi_LiteOS/components/net/at_device/gprs_M26\m26.c ****     at.oob_register((char *)prefix_name, strlen((char *)prefix_name), m26_data_handler,m26_cmd_matc
 320:C:/Users/lenovo/Desktop/liteos/Project2/BearPi_LiteOS/components/net/at_device/gprs_M26\m26.c ****     m26_echo_off();
 321:C:/Users/lenovo/Desktop/liteos/Project2/BearPi_LiteOS/components/net/at_device/gprs_M26\m26.c ****     m26_check();
 322:C:/Users/lenovo/Desktop/liteos/Project2/BearPi_LiteOS/components/net/at_device/gprs_M26\m26.c ****     m26_reset();
 323:C:/Users/lenovo/Desktop/liteos/Project2/BearPi_LiteOS/components/net/at_device/gprs_M26\m26.c ****     m26_set_mux_mode(at.mux_mode);
 324:C:/Users/lenovo/Desktop/liteos/Project2/BearPi_LiteOS/components/net/at_device/gprs_M26\m26.c ****     at.cmd((int8_t *)("AT+QIMUX?"), strlen("AT+QIMUX?"), "OK", NULL,NULL);
 325:C:/Users/lenovo/Desktop/liteos/Project2/BearPi_LiteOS/components/net/at_device/gprs_M26\m26.c ****     return AT_OK;
 326:C:/Users/lenovo/Desktop/liteos/Project2/BearPi_LiteOS/components/net/at_device/gprs_M26\m26.c **** }
 327:C:/Users/lenovo/Desktop/liteos/Project2/BearPi_LiteOS/components/net/at_device/gprs_M26\m26.c **** 
ARM GAS  c:\Users\lenovo\AppData\Local\Temp\ccgAwqeK.s 			page 15


 328:C:/Users/lenovo/Desktop/liteos/Project2/BearPi_LiteOS/components/net/at_device/gprs_M26\m26.c **** int32_t m26_deinit(void)
 329:C:/Users/lenovo/Desktop/liteos/Project2/BearPi_LiteOS/components/net/at_device/gprs_M26\m26.c **** {
 458              		.loc 1 329 0
 459              		.cfi_startproc
 460              		@ args = 0, pretend = 0, frame = 0
 461              		@ frame_needed = 0, uses_anonymous_args = 0
 462 0000 10B5     		push	{r4, lr}
 463              	.LCFI14:
 464              		.cfi_def_cfa_offset 8
 465              		.cfi_offset 4, -8
 466              		.cfi_offset 14, -4
 467 0002 82B0     		sub	sp, sp, #8
 468              	.LCFI15:
 469              		.cfi_def_cfa_offset 16
 470              	.LVL47:
 330:C:/Users/lenovo/Desktop/liteos/Project2/BearPi_LiteOS/components/net/at_device/gprs_M26\m26.c ****     int id = 0;
 331:C:/Users/lenovo/Desktop/liteos/Project2/BearPi_LiteOS/components/net/at_device/gprs_M26\m26.c **** 
 332:C:/Users/lenovo/Desktop/liteos/Project2/BearPi_LiteOS/components/net/at_device/gprs_M26\m26.c ****     if(NULL != at.linkid)
 471              		.loc 1 332 0
 472 0004 124B     		ldr	r3, .L37
 473 0006 5B6B     		ldr	r3, [r3, #52]
 474 0008 DBB1     		cbz	r3, .L32
 333:C:/Users/lenovo/Desktop/liteos/Project2/BearPi_LiteOS/components/net/at_device/gprs_M26\m26.c ****     {
 334:C:/Users/lenovo/Desktop/liteos/Project2/BearPi_LiteOS/components/net/at_device/gprs_M26\m26.c ****         for(id = 0; id < AT_MAX_LINK_NUM; id++)
 475              		.loc 1 334 0
 476 000a 0024     		movs	r4, #0
 477 000c 00E0     		b	.L31
 478              	.LVL48:
 479              	.L33:
 480              		.loc 1 334 0 is_stmt 0 discriminator 2
 481 000e 0134     		adds	r4, r4, #1
 482              	.LVL49:
 483              	.L31:
 484              		.loc 1 334 0 discriminator 1
 485 0010 032C     		cmp	r4, #3
 486 0012 16DC     		bgt	.L32
 335:C:/Users/lenovo/Desktop/liteos/Project2/BearPi_LiteOS/components/net/at_device/gprs_M26\m26.c ****         {
 336:C:/Users/lenovo/Desktop/liteos/Project2/BearPi_LiteOS/components/net/at_device/gprs_M26\m26.c ****             if(AT_LINK_INUSE == at.linkid[id].usable)
 487              		.loc 1 336 0 is_stmt 1
 488 0014 0E4B     		ldr	r3, .L37
 489 0016 5B6B     		ldr	r3, [r3, #52]
 490 0018 03EB4413 		add	r3, r3, r4, lsl #5
 491 001c 9B68     		ldr	r3, [r3, #8]
 492 001e 012B     		cmp	r3, #1
 493 0020 F5D1     		bne	.L33
 337:C:/Users/lenovo/Desktop/liteos/Project2/BearPi_LiteOS/components/net/at_device/gprs_M26\m26.c ****             {
 338:C:/Users/lenovo/Desktop/liteos/Project2/BearPi_LiteOS/components/net/at_device/gprs_M26\m26.c ****                 if(AT_OK != m26_close(id))
 494              		.loc 1 338 0
 495 0022 2046     		mov	r0, r4
 496 0024 FFF7FEFF 		bl	m26_close
 497              	.LVL50:
 498 0028 0028     		cmp	r0, #0
 499 002a F0D0     		beq	.L33
 339:C:/Users/lenovo/Desktop/liteos/Project2/BearPi_LiteOS/components/net/at_device/gprs_M26\m26.c ****                 {
 340:C:/Users/lenovo/Desktop/liteos/Project2/BearPi_LiteOS/components/net/at_device/gprs_M26\m26.c ****                     AT_LOG("m26_close(%d) failed", id);
 500              		.loc 1 340 0
 501 002c FFF7FEFF 		bl	at_get_time
ARM GAS  c:\Users\lenovo\AppData\Local\Temp\ccgAwqeK.s 			page 16


 502              	.LVL51:
 503 0030 0094     		str	r4, [sp]
 504 0032 4FF4AA73 		mov	r3, #340
 505 0036 074A     		ldr	r2, .L37+4
 506 0038 0146     		mov	r1, r0
 507 003a 0748     		ldr	r0, .L37+8
 508 003c FFF7FEFF 		bl	printf
 509              	.LVL52:
 510 0040 E5E7     		b	.L33
 511              	.LVL53:
 512              	.L32:
 341:C:/Users/lenovo/Desktop/liteos/Project2/BearPi_LiteOS/components/net/at_device/gprs_M26\m26.c ****                 }
 342:C:/Users/lenovo/Desktop/liteos/Project2/BearPi_LiteOS/components/net/at_device/gprs_M26\m26.c ****             }
 343:C:/Users/lenovo/Desktop/liteos/Project2/BearPi_LiteOS/components/net/at_device/gprs_M26\m26.c ****         }
 344:C:/Users/lenovo/Desktop/liteos/Project2/BearPi_LiteOS/components/net/at_device/gprs_M26\m26.c ****     }
 345:C:/Users/lenovo/Desktop/liteos/Project2/BearPi_LiteOS/components/net/at_device/gprs_M26\m26.c **** 
 346:C:/Users/lenovo/Desktop/liteos/Project2/BearPi_LiteOS/components/net/at_device/gprs_M26\m26.c ****     at.deinit();
 513              		.loc 1 346 0
 514 0042 034B     		ldr	r3, .L37
 515 0044 9B6D     		ldr	r3, [r3, #88]
 516 0046 9847     		blx	r3
 517              	.LVL54:
 347:C:/Users/lenovo/Desktop/liteos/Project2/BearPi_LiteOS/components/net/at_device/gprs_M26\m26.c ****     return AT_OK;
 348:C:/Users/lenovo/Desktop/liteos/Project2/BearPi_LiteOS/components/net/at_device/gprs_M26\m26.c **** }
 518              		.loc 1 348 0
 519 0048 0020     		movs	r0, #0
 520 004a 02B0     		add	sp, sp, #8
 521              	.LCFI16:
 522              		.cfi_def_cfa_offset 8
 523              		@ sp needed
 524 004c 10BD     		pop	{r4, pc}
 525              	.L38:
 526 004e 00BF     		.align	2
 527              	.L37:
 528 0050 00000000 		.word	at
 529 0054 00000000 		.word	.LANCHOR1
 530 0058 00000000 		.word	.LC12
 531              		.cfi_endproc
 532              	.LFE147:
 534              		.section	.text.m26_cmd_match,"ax",%progbits
 535              		.align	1
 536              		.global	m26_cmd_match
 537              		.syntax unified
 538              		.thumb
 539              		.thumb_func
 540              		.fpu fpv4-sp-d16
 542              	m26_cmd_match:
 543              	.LFB145:
 291:C:/Users/lenovo/Desktop/liteos/Project2/BearPi_LiteOS/components/net/at_device/gprs_M26\m26.c ****     return memcmp(buf,featurestr,len);
 544              		.loc 1 291 0
 545              		.cfi_startproc
 546              		@ args = 0, pretend = 0, frame = 0
 547              		@ frame_needed = 0, uses_anonymous_args = 0
 548              	.LVL55:
 549 0000 08B5     		push	{r3, lr}
 550              	.LCFI17:
 551              		.cfi_def_cfa_offset 8
ARM GAS  c:\Users\lenovo\AppData\Local\Temp\ccgAwqeK.s 			page 17


 552              		.cfi_offset 3, -8
 553              		.cfi_offset 14, -4
 292:C:/Users/lenovo/Desktop/liteos/Project2/BearPi_LiteOS/components/net/at_device/gprs_M26\m26.c **** }
 554              		.loc 1 292 0
 555 0002 FFF7FEFF 		bl	memcmp
 556              	.LVL56:
 293:C:/Users/lenovo/Desktop/liteos/Project2/BearPi_LiteOS/components/net/at_device/gprs_M26\m26.c **** 
 557              		.loc 1 293 0
 558 0006 08BD     		pop	{r3, pc}
 559              		.cfi_endproc
 560              	.LFE145:
 562              		.section	.text.m26_data_handler,"ax",%progbits
 563              		.align	1
 564              		.global	m26_data_handler
 565              		.syntax unified
 566              		.thumb
 567              		.thumb_func
 568              		.fpu fpv4-sp-d16
 570              	m26_data_handler:
 571              	.LFB144:
 214:C:/Users/lenovo/Desktop/liteos/Project2/BearPi_LiteOS/components/net/at_device/gprs_M26\m26.c ****     if (NULL == buf || len <= 0)
 572              		.loc 1 214 0
 573              		.cfi_startproc
 574              		@ args = 0, pretend = 0, frame = 56
 575              		@ frame_needed = 0, uses_anonymous_args = 0
 576              	.LVL57:
 577 0000 2DE9F043 		push	{r4, r5, r6, r7, r8, r9, lr}
 578              	.LCFI18:
 579              		.cfi_def_cfa_offset 28
 580              		.cfi_offset 4, -28
 581              		.cfi_offset 5, -24
 582              		.cfi_offset 6, -20
 583              		.cfi_offset 7, -16
 584              		.cfi_offset 8, -12
 585              		.cfi_offset 9, -8
 586              		.cfi_offset 14, -4
 587 0004 91B0     		sub	sp, sp, #68
 588              	.LCFI19:
 589              		.cfi_def_cfa_offset 96
 215:C:/Users/lenovo/Desktop/liteos/Project2/BearPi_LiteOS/components/net/at_device/gprs_M26\m26.c ****     {
 590              		.loc 1 215 0
 591 0006 29B3     		cbz	r1, .L42
 592 0008 1746     		mov	r7, r2
 593 000a 8846     		mov	r8, r1
 215:C:/Users/lenovo/Desktop/liteos/Project2/BearPi_LiteOS/components/net/at_device/gprs_M26\m26.c ****     {
 594              		.loc 1 215 0 is_stmt 0 discriminator 1
 595 000c 002A     		cmp	r2, #0
 596 000e 21DD     		ble	.L42
 220:C:/Users/lenovo/Desktop/liteos/Project2/BearPi_LiteOS/components/net/at_device/gprs_M26\m26.c **** 
 597              		.loc 1 220 0 is_stmt 1
 598 0010 FFF7FEFF 		bl	at_get_time
 599              	.LVL58:
 600 0014 DC23     		movs	r3, #220
 601 0016 534A     		ldr	r2, .L66
 602 0018 0146     		mov	r1, r0
 603 001a 5348     		ldr	r0, .L66+4
 604 001c FFF7FEFF 		bl	printf
ARM GAS  c:\Users\lenovo\AppData\Local\Temp\ccgAwqeK.s 			page 18


 605              	.LVL59:
 229:C:/Users/lenovo/Desktop/liteos/Project2/BearPi_LiteOS/components/net/at_device/gprs_M26\m26.c ****     {
 606              		.loc 1 229 0
 607 0020 524C     		ldr	r4, .L66+8
 608 0022 2046     		mov	r0, r4
 609 0024 FFF7FEFF 		bl	strlen
 610              	.LVL60:
 611 0028 0246     		mov	r2, r0
 612 002a 2146     		mov	r1, r4
 613 002c 4046     		mov	r0, r8
 614 002e FFF7FEFF 		bl	memcmp
 615              	.LVL61:
 616 0032 0028     		cmp	r0, #0
 617 0034 40F09180 		bne	.L57
 231:C:/Users/lenovo/Desktop/liteos/Project2/BearPi_LiteOS/components/net/at_device/gprs_M26\m26.c ****         if (NULL == p2)
 618              		.loc 1 231 0
 619 0038 2C21     		movs	r1, #44
 620 003a 4046     		mov	r0, r8
 621 003c FFF7FEFF 		bl	strchr
 622              	.LVL62:
 232:C:/Users/lenovo/Desktop/liteos/Project2/BearPi_LiteOS/components/net/at_device/gprs_M26\m26.c ****         {
 623              		.loc 1 232 0
 624 0040 0546     		mov	r5, r0
 625 0042 90B1     		cbz	r0, .L60
 238:C:/Users/lenovo/Desktop/liteos/Project2/BearPi_LiteOS/components/net/at_device/gprs_M26\m26.c ****         {
 626              		.loc 1 238 0
 627 0044 4A4B     		ldr	r3, .L66+12
 628 0046 1B6B     		ldr	r3, [r3, #48]
 629 0048 012B     		cmp	r3, #1
 630 004a 18D0     		beq	.L61
 224:C:/Users/lenovo/Desktop/liteos/Project2/BearPi_LiteOS/components/net/at_device/gprs_M26\m26.c ****     char *p1, *p2;
 631              		.loc 1 224 0
 632 004c 0026     		movs	r6, #0
 633              	.LVL63:
 634              	.L46:
 247:C:/Users/lenovo/Desktop/liteos/Project2/BearPi_LiteOS/components/net/at_device/gprs_M26\m26.c ****         {	
 635              		.loc 1 247 0
 636 004e 0135     		adds	r5, r5, #1
 637              	.LVL64:
 224:C:/Users/lenovo/Desktop/liteos/Project2/BearPi_LiteOS/components/net/at_device/gprs_M26\m26.c ****     char *p1, *p2;
 638              		.loc 1 224 0
 639 0050 0024     		movs	r4, #0
 247:C:/Users/lenovo/Desktop/liteos/Project2/BearPi_LiteOS/components/net/at_device/gprs_M26\m26.c ****         {	
 640              		.loc 1 247 0
 641 0052 2AE0     		b	.L49
 642              	.LVL65:
 643              	.L42:
 217:C:/Users/lenovo/Desktop/liteos/Project2/BearPi_LiteOS/components/net/at_device/gprs_M26\m26.c ****         return -1;
 644              		.loc 1 217 0
 645 0054 FFF7FEFF 		bl	at_get_time
 646              	.LVL66:
 647 0058 D923     		movs	r3, #217
 648 005a 424A     		ldr	r2, .L66
 649 005c 0146     		mov	r1, r0
 650 005e 4548     		ldr	r0, .L66+16
 651 0060 FFF7FEFF 		bl	printf
 652              	.LVL67:
ARM GAS  c:\Users\lenovo\AppData\Local\Temp\ccgAwqeK.s 			page 19


 218:C:/Users/lenovo/Desktop/liteos/Project2/BearPi_LiteOS/components/net/at_device/gprs_M26\m26.c ****     }
 653              		.loc 1 218 0
 654 0064 4FF0FF35 		mov	r5, #-1
 655 0068 78E0     		b	.L41
 656              	.LVL68:
 657              	.L60:
 234:C:/Users/lenovo/Desktop/liteos/Project2/BearPi_LiteOS/components/net/at_device/gprs_M26\m26.c ****             goto END;
 658              		.loc 1 234 0
 659 006a FFF7FEFF 		bl	at_get_time
 660              	.LVL69:
 661 006e EA23     		movs	r3, #234
 662 0070 3C4A     		ldr	r2, .L66
 663 0072 0146     		mov	r1, r0
 664 0074 4048     		ldr	r0, .L66+20
 665 0076 FFF7FEFF 		bl	printf
 666              	.LVL70:
 223:C:/Users/lenovo/Desktop/liteos/Project2/BearPi_LiteOS/components/net/at_device/gprs_M26\m26.c ****     int32_t linkid = 0, data_len = 0;
 667              		.loc 1 223 0
 668 007a 0025     		movs	r5, #0
 669              	.LVL71:
 235:C:/Users/lenovo/Desktop/liteos/Project2/BearPi_LiteOS/components/net/at_device/gprs_M26\m26.c ****         }
 670              		.loc 1 235 0
 671 007c 6EE0     		b	.L41
 672              	.LVL72:
 673              	.L61:
 241:C:/Users/lenovo/Desktop/liteos/Project2/BearPi_LiteOS/components/net/at_device/gprs_M26\m26.c ****             {
 674              		.loc 1 241 0
 675 007e 0135     		adds	r5, r5, #1
 676              	.LVL73:
 240:C:/Users/lenovo/Desktop/liteos/Project2/BearPi_LiteOS/components/net/at_device/gprs_M26\m26.c ****             for (p2++; *p2 <= '9' && *p2 >= '0'; p2++)
 677              		.loc 1 240 0
 678 0080 0026     		movs	r6, #0
 241:C:/Users/lenovo/Desktop/liteos/Project2/BearPi_LiteOS/components/net/at_device/gprs_M26\m26.c ****             {
 679              		.loc 1 241 0
 680 0082 05E0     		b	.L47
 681              	.LVL74:
 682              	.L48:
 243:C:/Users/lenovo/Desktop/liteos/Project2/BearPi_LiteOS/components/net/at_device/gprs_M26\m26.c ****             }
 683              		.loc 1 243 0 discriminator 3
 684 0084 06EB8606 		add	r6, r6, r6, lsl #2
 685              	.LVL75:
 686 0088 7200     		lsls	r2, r6, #1
 687 008a 303B     		subs	r3, r3, #48
 688 008c D618     		adds	r6, r2, r3
 689              	.LVL76:
 241:C:/Users/lenovo/Desktop/liteos/Project2/BearPi_LiteOS/components/net/at_device/gprs_M26\m26.c ****             {
 690              		.loc 1 241 0 discriminator 3
 691 008e 0135     		adds	r5, r5, #1
 692              	.LVL77:
 693              	.L47:
 241:C:/Users/lenovo/Desktop/liteos/Project2/BearPi_LiteOS/components/net/at_device/gprs_M26\m26.c ****             {
 694              		.loc 1 241 0 is_stmt 0 discriminator 1
 695 0090 2B78     		ldrb	r3, [r5]	@ zero_extendqisi2
 696 0092 A3F13002 		sub	r2, r3, #48
 697 0096 D2B2     		uxtb	r2, r2
 698 0098 092A     		cmp	r2, #9
 699 009a F3D9     		bls	.L48
ARM GAS  c:\Users\lenovo\AppData\Local\Temp\ccgAwqeK.s 			page 20


 700 009c D7E7     		b	.L46
 701              	.LVL78:
 702              	.L50:
 249:C:/Users/lenovo/Desktop/liteos/Project2/BearPi_LiteOS/components/net/at_device/gprs_M26\m26.c ****         }
 703              		.loc 1 249 0 is_stmt 1 discriminator 3
 704 009e 04EB8404 		add	r4, r4, r4, lsl #2
 705              	.LVL79:
 706 00a2 6200     		lsls	r2, r4, #1
 707 00a4 303B     		subs	r3, r3, #48
 708 00a6 D418     		adds	r4, r2, r3
 709              	.LVL80:
 247:C:/Users/lenovo/Desktop/liteos/Project2/BearPi_LiteOS/components/net/at_device/gprs_M26\m26.c ****         {	
 710              		.loc 1 247 0 discriminator 3
 711 00a8 0135     		adds	r5, r5, #1
 712              	.LVL81:
 713              	.L49:
 247:C:/Users/lenovo/Desktop/liteos/Project2/BearPi_LiteOS/components/net/at_device/gprs_M26\m26.c ****         {	
 714              		.loc 1 247 0 is_stmt 0 discriminator 1
 715 00aa 2B78     		ldrb	r3, [r5]	@ zero_extendqisi2
 716 00ac A3F13002 		sub	r2, r3, #48
 717 00b0 D2B2     		uxtb	r2, r2
 718 00b2 092A     		cmp	r2, #9
 719 00b4 F3D9     		bls	.L50
 251:C:/Users/lenovo/Desktop/liteos/Project2/BearPi_LiteOS/components/net/at_device/gprs_M26\m26.c **** 
 720              		.loc 1 251 0 is_stmt 1
 721 00b6 05F10109 		add	r9, r5, #1
 722              	.LVL82:
 253:C:/Users/lenovo/Desktop/liteos/Project2/BearPi_LiteOS/components/net/at_device/gprs_M26\m26.c ****         {
 723              		.loc 1 253 0
 724 00ba BC42     		cmp	r4, r7
 725 00bc 1FDC     		bgt	.L62
 259:C:/Users/lenovo/Desktop/liteos/Project2/BearPi_LiteOS/components/net/at_device/gprs_M26\m26.c ****         if (NULL == qbuf.addr)
 726              		.loc 1 259 0
 727 00be 2746     		mov	r7, r4
 728              	.LVL83:
 729 00c0 2046     		mov	r0, r4
 730 00c2 FFF7FEFF 		bl	at_malloc
 731              	.LVL84:
 732 00c6 0490     		str	r0, [sp, #16]
 260:C:/Users/lenovo/Desktop/liteos/Project2/BearPi_LiteOS/components/net/at_device/gprs_M26\m26.c ****         {
 733              		.loc 1 260 0
 734 00c8 28B3     		cbz	r0, .L63
 266:C:/Users/lenovo/Desktop/liteos/Project2/BearPi_LiteOS/components/net/at_device/gprs_M26\m26.c ****         if(AT_MUXMODE_MULTI == at.mux_mode)
 735              		.loc 1 266 0
 736 00ca 0394     		str	r4, [sp, #12]
 267:C:/Users/lenovo/Desktop/liteos/Project2/BearPi_LiteOS/components/net/at_device/gprs_M26\m26.c ****         {
 737              		.loc 1 267 0
 738 00cc 284B     		ldr	r3, .L66+12
 739 00ce 1B6B     		ldr	r3, [r3, #48]
 740 00d0 012B     		cmp	r3, #1
 741 00d2 2BD0     		beq	.L64
 742              	.L53:
 276:C:/Users/lenovo/Desktop/liteos/Project2/BearPi_LiteOS/components/net/at_device/gprs_M26\m26.c **** 
 743              		.loc 1 276 0
 744 00d4 3A46     		mov	r2, r7
 745 00d6 4946     		mov	r1, r9
 746 00d8 FFF7FEFF 		bl	memcpy
ARM GAS  c:\Users\lenovo\AppData\Local\Temp\ccgAwqeK.s 			page 21


 747              	.LVL85:
 278:C:/Users/lenovo/Desktop/liteos/Project2/BearPi_LiteOS/components/net/at_device/gprs_M26\m26.c ****         {
 748              		.loc 1 278 0
 749 00dc 244B     		ldr	r3, .L66+12
 750 00de 5B6B     		ldr	r3, [r3, #52]
 751 00e0 03EB4616 		add	r6, r3, r6, lsl #5
 752              	.LVL86:
 753 00e4 0023     		movs	r3, #0
 754 00e6 3422     		movs	r2, #52
 755 00e8 03A9     		add	r1, sp, #12
 756 00ea 7068     		ldr	r0, [r6, #4]
 757 00ec FFF7FEFF 		bl	LOS_QueueWriteCopy
 758              	.LVL87:
 759 00f0 0546     		mov	r5, r0
 760 00f2 20BB     		cbnz	r0, .L65
 284:C:/Users/lenovo/Desktop/liteos/Project2/BearPi_LiteOS/components/net/at_device/gprs_M26\m26.c ****     }
 761              		.loc 1 284 0
 762 00f4 09EB0705 		add	r5, r9, r7
 763 00f8 A5EB0805 		sub	r5, r5, r8
 764              	.LVL88:
 765 00fc 2EE0     		b	.L41
 766              	.LVL89:
 767              	.L62:
 255:C:/Users/lenovo/Desktop/liteos/Project2/BearPi_LiteOS/components/net/at_device/gprs_M26\m26.c ****             goto END;
 768              		.loc 1 255 0
 769 00fe FFF7FEFF 		bl	at_get_time
 770              	.LVL90:
 771 0102 0197     		str	r7, [sp, #4]
 772 0104 0094     		str	r4, [sp]
 773 0106 FF23     		movs	r3, #255
 774 0108 164A     		ldr	r2, .L66
 775 010a 0146     		mov	r1, r0
 776 010c 1B48     		ldr	r0, .L66+24
 777 010e FFF7FEFF 		bl	printf
 778              	.LVL91:
 223:C:/Users/lenovo/Desktop/liteos/Project2/BearPi_LiteOS/components/net/at_device/gprs_M26\m26.c ****     int32_t linkid = 0, data_len = 0;
 779              		.loc 1 223 0
 780 0112 0025     		movs	r5, #0
 256:C:/Users/lenovo/Desktop/liteos/Project2/BearPi_LiteOS/components/net/at_device/gprs_M26\m26.c ****         }
 781              		.loc 1 256 0
 782 0114 22E0     		b	.L41
 783              	.LVL92:
 784              	.L63:
 262:C:/Users/lenovo/Desktop/liteos/Project2/BearPi_LiteOS/components/net/at_device/gprs_M26\m26.c ****             goto END;
 785              		.loc 1 262 0
 786 0116 FFF7FEFF 		bl	at_get_time
 787              	.LVL93:
 788 011a 4FF48373 		mov	r3, #262
 789 011e 114A     		ldr	r2, .L66
 790 0120 0146     		mov	r1, r0
 791 0122 1748     		ldr	r0, .L66+28
 792 0124 FFF7FEFF 		bl	printf
 793              	.LVL94:
 223:C:/Users/lenovo/Desktop/liteos/Project2/BearPi_LiteOS/components/net/at_device/gprs_M26\m26.c ****     int32_t linkid = 0, data_len = 0;
 794              		.loc 1 223 0
 795 0128 0025     		movs	r5, #0
 263:C:/Users/lenovo/Desktop/liteos/Project2/BearPi_LiteOS/components/net/at_device/gprs_M26\m26.c ****         }
ARM GAS  c:\Users\lenovo\AppData\Local\Temp\ccgAwqeK.s 			page 22


 796              		.loc 1 263 0
 797 012a 17E0     		b	.L41
 798              	.L64:
 269:C:/Users/lenovo/Desktop/liteos/Project2/BearPi_LiteOS/components/net/at_device/gprs_M26\m26.c ****             {
 799              		.loc 1 269 0
 800 012c 0235     		adds	r5, r5, #2
 801              	.LVL95:
 802 012e 00E0     		b	.L54
 803              	.L55:
 269:C:/Users/lenovo/Desktop/liteos/Project2/BearPi_LiteOS/components/net/at_device/gprs_M26\m26.c ****             {
 804              		.loc 1 269 0 is_stmt 0 discriminator 3
 805 0130 0135     		adds	r5, r5, #1
 806              	.LVL96:
 807              	.L54:
 269:C:/Users/lenovo/Desktop/liteos/Project2/BearPi_LiteOS/components/net/at_device/gprs_M26\m26.c ****             {
 808              		.loc 1 269 0 discriminator 1
 809 0132 2B78     		ldrb	r3, [r5]	@ zero_extendqisi2
 810 0134 3A2B     		cmp	r3, #58
 811 0136 FBD1     		bne	.L55
 273:C:/Users/lenovo/Desktop/liteos/Project2/BearPi_LiteOS/components/net/at_device/gprs_M26\m26.c **** 					//multi-connect prefix is +RECEIVE,0,13:\r\n+packet content
 812              		.loc 1 273 0 is_stmt 1
 813 0138 05F10109 		add	r9, r5, #1
 814              	.LVL97:
 815 013c CAE7     		b	.L53
 816              	.LVL98:
 817              	.L65:
 280:C:/Users/lenovo/Desktop/liteos/Project2/BearPi_LiteOS/components/net/at_device/gprs_M26\m26.c ****             at_free(qbuf.addr);
 818              		.loc 1 280 0
 819 013e FFF7FEFF 		bl	at_get_time
 820              	.LVL99:
 821 0142 0095     		str	r5, [sp]
 822 0144 4FF48C73 		mov	r3, #280
 823 0148 064A     		ldr	r2, .L66
 824 014a 0146     		mov	r1, r0
 825 014c 0D48     		ldr	r0, .L66+32
 826 014e FFF7FEFF 		bl	printf
 827              	.LVL100:
 281:C:/Users/lenovo/Desktop/liteos/Project2/BearPi_LiteOS/components/net/at_device/gprs_M26\m26.c ****             goto END;
 828              		.loc 1 281 0
 829 0152 0498     		ldr	r0, [sp, #16]
 830 0154 FFF7FEFF 		bl	at_free
 831              	.LVL101:
 282:C:/Users/lenovo/Desktop/liteos/Project2/BearPi_LiteOS/components/net/at_device/gprs_M26\m26.c ****         }
 832              		.loc 1 282 0
 833 0158 00E0     		b	.L41
 834              	.LVL102:
 835              	.L57:
 223:C:/Users/lenovo/Desktop/liteos/Project2/BearPi_LiteOS/components/net/at_device/gprs_M26\m26.c ****     int32_t linkid = 0, data_len = 0;
 836              		.loc 1 223 0
 837 015a 0025     		movs	r5, #0
 838              	.LVL103:
 839              	.L41:
 288:C:/Users/lenovo/Desktop/liteos/Project2/BearPi_LiteOS/components/net/at_device/gprs_M26\m26.c **** 
 840              		.loc 1 288 0
 841 015c 2846     		mov	r0, r5
 842 015e 11B0     		add	sp, sp, #68
 843              	.LCFI20:
ARM GAS  c:\Users\lenovo\AppData\Local\Temp\ccgAwqeK.s 			page 23


 844              		.cfi_def_cfa_offset 28
 845              		@ sp needed
 846 0160 BDE8F083 		pop	{r4, r5, r6, r7, r8, r9, pc}
 847              	.L67:
 848              		.align	2
 849              	.L66:
 850 0164 00000000 		.word	.LANCHOR2
 851 0168 20000000 		.word	.LC14
 852 016c 00000000 		.word	prefix_name
 853 0170 00000000 		.word	at
 854 0174 00000000 		.word	.LC13
 855 0178 38000000 		.word	.LC15
 856 017c 64000000 		.word	.LC16
 857 0180 AC000000 		.word	.LC17
 858 0184 D4000000 		.word	.LC18
 859              		.cfi_endproc
 860              	.LFE144:
 862              		.section	.text.m26_echo_off,"ax",%progbits
 863              		.align	1
 864              		.global	m26_echo_off
 865              		.syntax unified
 866              		.thumb
 867              		.thumb_func
 868              		.fpu fpv4-sp-d16
 870              	m26_echo_off:
 871              	.LFB133:
  43:C:/Users/lenovo/Desktop/liteos/Project2/BearPi_LiteOS/components/net/at_device/gprs_M26\m26.c ****     return at.cmd((int8_t *)AT_CMD_ECHO_OFF, strlen(AT_CMD_ECHO_OFF), "OK\r\n", NULL,NULL);
 872              		.loc 1 43 0
 873              		.cfi_startproc
 874              		@ args = 0, pretend = 0, frame = 0
 875              		@ frame_needed = 0, uses_anonymous_args = 0
 876 0000 10B5     		push	{r4, lr}
 877              	.LCFI21:
 878              		.cfi_def_cfa_offset 8
 879              		.cfi_offset 4, -8
 880              		.cfi_offset 14, -4
 881 0002 82B0     		sub	sp, sp, #8
 882              	.LCFI22:
 883              		.cfi_def_cfa_offset 16
  44:C:/Users/lenovo/Desktop/liteos/Project2/BearPi_LiteOS/components/net/at_device/gprs_M26\m26.c **** }
 884              		.loc 1 44 0
 885 0004 044B     		ldr	r3, .L70
 886 0006 9C6C     		ldr	r4, [r3, #72]
 887 0008 0023     		movs	r3, #0
 888 000a 0093     		str	r3, [sp]
 889 000c 034A     		ldr	r2, .L70+4
 890 000e 0421     		movs	r1, #4
 891 0010 0348     		ldr	r0, .L70+8
 892 0012 A047     		blx	r4
 893              	.LVL104:
  45:C:/Users/lenovo/Desktop/liteos/Project2/BearPi_LiteOS/components/net/at_device/gprs_M26\m26.c **** int32_t m26_echo_on(void)
 894              		.loc 1 45 0
 895 0014 02B0     		add	sp, sp, #8
 896              	.LCFI23:
 897              		.cfi_def_cfa_offset 8
 898              		@ sp needed
 899 0016 10BD     		pop	{r4, pc}
ARM GAS  c:\Users\lenovo\AppData\Local\Temp\ccgAwqeK.s 			page 24


 900              	.L71:
 901              		.align	2
 902              	.L70:
 903 0018 00000000 		.word	at
 904 001c 00000000 		.word	.LC19
 905 0020 08000000 		.word	.LC20
 906              		.cfi_endproc
 907              	.LFE133:
 909              		.section	.text.m26_echo_on,"ax",%progbits
 910              		.align	1
 911              		.global	m26_echo_on
 912              		.syntax unified
 913              		.thumb
 914              		.thumb_func
 915              		.fpu fpv4-sp-d16
 917              	m26_echo_on:
 918              	.LFB134:
  47:C:/Users/lenovo/Desktop/liteos/Project2/BearPi_LiteOS/components/net/at_device/gprs_M26\m26.c ****     return at.cmd((int8_t *)AT_CMD_ECHO_ON, strlen(AT_CMD_ECHO_OFF), "OK\r\n", NULL,NULL);
 919              		.loc 1 47 0
 920              		.cfi_startproc
 921              		@ args = 0, pretend = 0, frame = 0
 922              		@ frame_needed = 0, uses_anonymous_args = 0
 923 0000 10B5     		push	{r4, lr}
 924              	.LCFI24:
 925              		.cfi_def_cfa_offset 8
 926              		.cfi_offset 4, -8
 927              		.cfi_offset 14, -4
 928 0002 82B0     		sub	sp, sp, #8
 929              	.LCFI25:
 930              		.cfi_def_cfa_offset 16
  48:C:/Users/lenovo/Desktop/liteos/Project2/BearPi_LiteOS/components/net/at_device/gprs_M26\m26.c **** }
 931              		.loc 1 48 0
 932 0004 044B     		ldr	r3, .L74
 933 0006 9C6C     		ldr	r4, [r3, #72]
 934 0008 0023     		movs	r3, #0
 935 000a 0093     		str	r3, [sp]
 936 000c 034A     		ldr	r2, .L74+4
 937 000e 0421     		movs	r1, #4
 938 0010 0348     		ldr	r0, .L74+8
 939 0012 A047     		blx	r4
 940              	.LVL105:
  49:C:/Users/lenovo/Desktop/liteos/Project2/BearPi_LiteOS/components/net/at_device/gprs_M26\m26.c **** int32_t m26_reset(void)
 941              		.loc 1 49 0
 942 0014 02B0     		add	sp, sp, #8
 943              	.LCFI26:
 944              		.cfi_def_cfa_offset 8
 945              		@ sp needed
 946 0016 10BD     		pop	{r4, pc}
 947              	.L75:
 948              		.align	2
 949              	.L74:
 950 0018 00000000 		.word	at
 951 001c 00000000 		.word	.LC19
 952 0020 00000000 		.word	.LC21
 953              		.cfi_endproc
 954              	.LFE134:
 956              		.section	.text.m26_reset,"ax",%progbits
ARM GAS  c:\Users\lenovo\AppData\Local\Temp\ccgAwqeK.s 			page 25


 957              		.align	1
 958              		.global	m26_reset
 959              		.syntax unified
 960              		.thumb
 961              		.thumb_func
 962              		.fpu fpv4-sp-d16
 964              	m26_reset:
 965              	.LFB135:
  51:C:/Users/lenovo/Desktop/liteos/Project2/BearPi_LiteOS/components/net/at_device/gprs_M26\m26.c ****     int32_t ret = 0;
 966              		.loc 1 51 0
 967              		.cfi_startproc
 968              		@ args = 0, pretend = 0, frame = 0
 969              		@ frame_needed = 0, uses_anonymous_args = 0
 970 0000 10B5     		push	{r4, lr}
 971              	.LCFI27:
 972              		.cfi_def_cfa_offset 8
 973              		.cfi_offset 4, -8
 974              		.cfi_offset 14, -4
 975 0002 82B0     		sub	sp, sp, #8
 976              	.LCFI28:
 977              		.cfi_def_cfa_offset 16
 978              	.LVL106:
  54:C:/Users/lenovo/Desktop/liteos/Project2/BearPi_LiteOS/components/net/at_device/gprs_M26\m26.c ****     return ret;
 979              		.loc 1 54 0
 980 0004 044B     		ldr	r3, .L78
 981 0006 9C6C     		ldr	r4, [r3, #72]
 982 0008 0023     		movs	r3, #0
 983 000a 0093     		str	r3, [sp]
 984 000c 034A     		ldr	r2, .L78+4
 985 000e 0A21     		movs	r1, #10
 986 0010 0348     		ldr	r0, .L78+8
 987 0012 A047     		blx	r4
 988              	.LVL107:
  56:C:/Users/lenovo/Desktop/liteos/Project2/BearPi_LiteOS/components/net/at_device/gprs_M26\m26.c **** 
 989              		.loc 1 56 0
 990 0014 02B0     		add	sp, sp, #8
 991              	.LCFI29:
 992              		.cfi_def_cfa_offset 8
 993              		@ sp needed
 994 0016 10BD     		pop	{r4, pc}
 995              	.L79:
 996              		.align	2
 997              	.L78:
 998 0018 00000000 		.word	at
 999 001c 00000000 		.word	.LC22
 1000 0020 0C000000 		.word	.LC23
 1001              		.cfi_endproc
 1002              	.LFE135:
 1004              		.section	.text.m26_connect,"ax",%progbits
 1005              		.align	1
 1006              		.global	m26_connect
 1007              		.syntax unified
 1008              		.thumb
 1009              		.thumb_func
 1010              		.fpu fpv4-sp-d16
 1012              	m26_connect:
 1013              	.LFB137:
ARM GAS  c:\Users\lenovo\AppData\Local\Temp\ccgAwqeK.s 			page 26


  66:C:/Users/lenovo/Desktop/liteos/Project2/BearPi_LiteOS/components/net/at_device/gprs_M26\m26.c ****     int32_t ret = AT_FAILED;
 1014              		.loc 1 66 0
 1015              		.cfi_startproc
 1016              		@ args = 0, pretend = 0, frame = 328
 1017              		@ frame_needed = 0, uses_anonymous_args = 0
 1018              	.LVL108:
 1019 0000 2DE9F04F 		push	{r4, r5, r6, r7, r8, r9, r10, fp, lr}
 1020              	.LCFI30:
 1021              		.cfi_def_cfa_offset 36
 1022              		.cfi_offset 4, -36
 1023              		.cfi_offset 5, -32
 1024              		.cfi_offset 6, -28
 1025              		.cfi_offset 7, -24
 1026              		.cfi_offset 8, -20
 1027              		.cfi_offset 9, -16
 1028              		.cfi_offset 10, -12
 1029              		.cfi_offset 11, -8
 1030              		.cfi_offset 14, -4
 1031 0004 D7B0     		sub	sp, sp, #348
 1032              	.LCFI31:
 1033              		.cfi_def_cfa_offset 384
 1034 0006 8246     		mov	r10, r0
 1035 0008 8946     		mov	r9, r1
 1036 000a 0592     		str	r2, [sp, #20]
 1037              	.LVL109:
  68:C:/Users/lenovo/Desktop/liteos/Project2/BearPi_LiteOS/components/net/at_device/gprs_M26\m26.c ****     m26_reset();
 1038              		.loc 1 68 0
 1039 000c 7A4F     		ldr	r7, .L96
 1040 000e 3B6D     		ldr	r3, [r7, #80]
 1041 0010 9847     		blx	r3
 1042              	.LVL110:
 1043 0012 0546     		mov	r5, r0
 1044              	.LVL111:
  69:C:/Users/lenovo/Desktop/liteos/Project2/BearPi_LiteOS/components/net/at_device/gprs_M26\m26.c ****     char cmd1[64] = {0};
 1045              		.loc 1 69 0
 1046 0014 FFF7FEFF 		bl	m26_reset
 1047              	.LVL112:
  70:C:/Users/lenovo/Desktop/liteos/Project2/BearPi_LiteOS/components/net/at_device/gprs_M26\m26.c ****     snprintf(cmd1, 64, "%s=\"B\"", AT_CMD_CLASS);
 1048              		.loc 1 70 0
 1049 0018 4026     		movs	r6, #64
 1050 001a 3246     		mov	r2, r6
 1051 001c 0021     		movs	r1, #0
 1052 001e 46A8     		add	r0, sp, #280
 1053 0020 FFF7FEFF 		bl	memset
 1054              	.LVL113:
  71:C:/Users/lenovo/Desktop/liteos/Project2/BearPi_LiteOS/components/net/at_device/gprs_M26\m26.c ****     at.cmd((int8_t *)cmd1, strlen(cmd1), "OK", NULL,NULL);
 1055              		.loc 1 71 0
 1056 0024 754B     		ldr	r3, .L96+4
 1057 0026 764A     		ldr	r2, .L96+8
 1058 0028 3146     		mov	r1, r6
 1059 002a 46A8     		add	r0, sp, #280
 1060 002c FFF7FEFF 		bl	snprintf
 1061              	.LVL114:
  72:C:/Users/lenovo/Desktop/liteos/Project2/BearPi_LiteOS/components/net/at_device/gprs_M26\m26.c ****     char cmd2[64] = {0};
 1062              		.loc 1 72 0
 1063 0030 D7F84880 		ldr	r8, [r7, #72]
 1064 0034 46A8     		add	r0, sp, #280
ARM GAS  c:\Users\lenovo\AppData\Local\Temp\ccgAwqeK.s 			page 27


 1065 0036 FFF7FEFF 		bl	strlen
 1066              	.LVL115:
 1067 003a 0024     		movs	r4, #0
 1068 003c 0094     		str	r4, [sp]
 1069 003e 2346     		mov	r3, r4
 1070 0040 704A     		ldr	r2, .L96+12
 1071 0042 0146     		mov	r1, r0
 1072 0044 46A8     		add	r0, sp, #280
 1073 0046 C047     		blx	r8
 1074              	.LVL116:
  73:C:/Users/lenovo/Desktop/liteos/Project2/BearPi_LiteOS/components/net/at_device/gprs_M26\m26.c ****     snprintf(cmd2, 64, "%s=1,\"IP\",\"CMNET\"", AT_CMD_PDP_CONT);
 1075              		.loc 1 73 0
 1076 0048 3246     		mov	r2, r6
 1077 004a 2146     		mov	r1, r4
 1078 004c 36A8     		add	r0, sp, #216
 1079 004e FFF7FEFF 		bl	memset
 1080              	.LVL117:
  74:C:/Users/lenovo/Desktop/liteos/Project2/BearPi_LiteOS/components/net/at_device/gprs_M26\m26.c ****     at.cmd((int8_t *)cmd2, strlen(cmd2), "OK", NULL,NULL);
 1081              		.loc 1 74 0
 1082 0052 6D4B     		ldr	r3, .L96+16
 1083 0054 6D4A     		ldr	r2, .L96+20
 1084 0056 3146     		mov	r1, r6
 1085 0058 36A8     		add	r0, sp, #216
 1086 005a FFF7FEFF 		bl	snprintf
 1087              	.LVL118:
  75:C:/Users/lenovo/Desktop/liteos/Project2/BearPi_LiteOS/components/net/at_device/gprs_M26\m26.c ****     char cmd3[64] = {0};
 1088              		.loc 1 75 0
 1089 005e D7F84880 		ldr	r8, [r7, #72]
 1090 0062 36A8     		add	r0, sp, #216
 1091 0064 FFF7FEFF 		bl	strlen
 1092              	.LVL119:
 1093 0068 0094     		str	r4, [sp]
 1094 006a 2346     		mov	r3, r4
 1095 006c 654A     		ldr	r2, .L96+12
 1096 006e 0146     		mov	r1, r0
 1097 0070 36A8     		add	r0, sp, #216
 1098 0072 C047     		blx	r8
 1099              	.LVL120:
  76:C:/Users/lenovo/Desktop/liteos/Project2/BearPi_LiteOS/components/net/at_device/gprs_M26\m26.c ****     snprintf(cmd3, 64, "%s=1", AT_CMD_PDP_ATT);
 1100              		.loc 1 76 0
 1101 0074 3246     		mov	r2, r6
 1102 0076 2146     		mov	r1, r4
 1103 0078 26A8     		add	r0, sp, #152
 1104 007a FFF7FEFF 		bl	memset
 1105              	.LVL121:
  77:C:/Users/lenovo/Desktop/liteos/Project2/BearPi_LiteOS/components/net/at_device/gprs_M26\m26.c ****     at.cmd((int8_t *)cmd3, strlen(cmd3), "OK", NULL,NULL);
 1106              		.loc 1 77 0
 1107 007e DFF8D881 		ldr	r8, .L96+96
 1108 0082 634B     		ldr	r3, .L96+24
 1109 0084 4246     		mov	r2, r8
 1110 0086 3146     		mov	r1, r6
 1111 0088 26A8     		add	r0, sp, #152
 1112 008a FFF7FEFF 		bl	snprintf
 1113              	.LVL122:
  78:C:/Users/lenovo/Desktop/liteos/Project2/BearPi_LiteOS/components/net/at_device/gprs_M26\m26.c ****     char cmd4[64] = {0};
 1114              		.loc 1 78 0
 1115 008e D7F848B0 		ldr	fp, [r7, #72]
ARM GAS  c:\Users\lenovo\AppData\Local\Temp\ccgAwqeK.s 			page 28


 1116 0092 26A8     		add	r0, sp, #152
 1117 0094 FFF7FEFF 		bl	strlen
 1118              	.LVL123:
 1119 0098 0094     		str	r4, [sp]
 1120 009a 2346     		mov	r3, r4
 1121 009c 594A     		ldr	r2, .L96+12
 1122 009e 0146     		mov	r1, r0
 1123 00a0 26A8     		add	r0, sp, #152
 1124 00a2 D847     		blx	fp
 1125              	.LVL124:
  79:C:/Users/lenovo/Desktop/liteos/Project2/BearPi_LiteOS/components/net/at_device/gprs_M26\m26.c ****     snprintf(cmd4, 64, "%s=1", AT_CMD_QIHEAD);
 1126              		.loc 1 79 0
 1127 00a4 3246     		mov	r2, r6
 1128 00a6 2146     		mov	r1, r4
 1129 00a8 16A8     		add	r0, sp, #88
 1130 00aa FFF7FEFF 		bl	memset
 1131              	.LVL125:
  80:C:/Users/lenovo/Desktop/liteos/Project2/BearPi_LiteOS/components/net/at_device/gprs_M26\m26.c ****     at.cmd((int8_t *)cmd4, strlen(cmd4), "OK", NULL,NULL);
 1132              		.loc 1 80 0
 1133 00ae 594B     		ldr	r3, .L96+28
 1134 00b0 4246     		mov	r2, r8
 1135 00b2 3146     		mov	r1, r6
 1136 00b4 16A8     		add	r0, sp, #88
 1137 00b6 FFF7FEFF 		bl	snprintf
 1138              	.LVL126:
  81:C:/Users/lenovo/Desktop/liteos/Project2/BearPi_LiteOS/components/net/at_device/gprs_M26\m26.c ****     char cmd5[64] = {0};
 1139              		.loc 1 81 0
 1140 00ba D7F84880 		ldr	r8, [r7, #72]
 1141 00be 16A8     		add	r0, sp, #88
 1142 00c0 FFF7FEFF 		bl	strlen
 1143              	.LVL127:
 1144 00c4 0094     		str	r4, [sp]
 1145 00c6 2346     		mov	r3, r4
 1146 00c8 4E4A     		ldr	r2, .L96+12
 1147 00ca 0146     		mov	r1, r0
 1148 00cc 16A8     		add	r0, sp, #88
 1149 00ce C047     		blx	r8
 1150              	.LVL128:
  82:C:/Users/lenovo/Desktop/liteos/Project2/BearPi_LiteOS/components/net/at_device/gprs_M26\m26.c **** 
 1151              		.loc 1 82 0
 1152 00d0 3246     		mov	r2, r6
 1153 00d2 2146     		mov	r1, r4
 1154 00d4 06A8     		add	r0, sp, #24
 1155 00d6 FFF7FEFF 		bl	memset
 1156              	.LVL129:
  84:C:/Users/lenovo/Desktop/liteos/Project2/BearPi_LiteOS/components/net/at_device/gprs_M26\m26.c **** 
 1157              		.loc 1 84 0
 1158 00da FFF7FEFF 		bl	at_get_time
 1159              	.LVL130:
 1160 00de CDF80490 		str	r9, [sp, #4]
 1161 00e2 CDF800A0 		str	r10, [sp]
 1162 00e6 5423     		movs	r3, #84
 1163 00e8 4B4A     		ldr	r2, .L96+32
 1164 00ea 0146     		mov	r1, r0
 1165 00ec 4B48     		ldr	r0, .L96+36
 1166 00ee FFF7FEFF 		bl	printf
 1167              	.LVL131:
ARM GAS  c:\Users\lenovo\AppData\Local\Temp\ccgAwqeK.s 			page 29


  86:C:/Users/lenovo/Desktop/liteos/Project2/BearPi_LiteOS/components/net/at_device/gprs_M26\m26.c ****     {
 1168              		.loc 1 86 0
 1169 00f2 3B6B     		ldr	r3, [r7, #48]
 1170 00f4 002B     		cmp	r3, #0
 1171 00f6 4ED0     		beq	.L91
  92:C:/Users/lenovo/Desktop/liteos/Project2/BearPi_LiteOS/components/net/at_device/gprs_M26\m26.c ****         at.cmd((int8_t *)AT_CMD_QIREGAPP, strlen(AT_CMD_QIREGAPP), "OK", NULL,NULL);
 1172              		.loc 1 92 0
 1173 00f8 3F4E     		ldr	r6, .L96
 1174 00fa DFF80881 		ldr	r8, .L96+12
 1175 00fe 0024     		movs	r4, #0
 1176 0100 0094     		str	r4, [sp]
 1177 0102 2346     		mov	r3, r4
 1178 0104 4246     		mov	r2, r8
 1179 0106 0C21     		movs	r1, #12
 1180 0108 4548     		ldr	r0, .L96+40
 1181 010a B76C     		ldr	r7, [r6, #72]
 1182 010c B847     		blx	r7
 1183              	.LVL132:
  93:C:/Users/lenovo/Desktop/liteos/Project2/BearPi_LiteOS/components/net/at_device/gprs_M26\m26.c ****         at.cmd((int8_t *)AT_CMD_QIACT, strlen(AT_CMD_QIACT), "OK", NULL,NULL);
 1184              		.loc 1 93 0
 1185 010e 0094     		str	r4, [sp]
 1186 0110 2346     		mov	r3, r4
 1187 0112 4246     		mov	r2, r8
 1188 0114 0B21     		movs	r1, #11
 1189 0116 4348     		ldr	r0, .L96+44
 1190 0118 B76C     		ldr	r7, [r6, #72]
 1191 011a B847     		blx	r7
 1192              	.LVL133:
  94:C:/Users/lenovo/Desktop/liteos/Project2/BearPi_LiteOS/components/net/at_device/gprs_M26\m26.c ****         at.cmd((int8_t *)AT_CMD_QILOCIP, strlen(AT_CMD_QILOCIP), ".", NULL,NULL);
 1193              		.loc 1 94 0
 1194 011c 0094     		str	r4, [sp]
 1195 011e 2346     		mov	r3, r4
 1196 0120 4246     		mov	r2, r8
 1197 0122 0821     		movs	r1, #8
 1198 0124 4048     		ldr	r0, .L96+48
 1199 0126 B76C     		ldr	r7, [r6, #72]
 1200 0128 B847     		blx	r7
 1201              	.LVL134:
  95:C:/Users/lenovo/Desktop/liteos/Project2/BearPi_LiteOS/components/net/at_device/gprs_M26\m26.c ****         snprintf(cmd5, 64, "%s=%ld,\"%s\",\"%s\",%s", AT_CMD_CONN, id, proto == ATINY_PROTO_UDP ? "
 1202              		.loc 1 95 0
 1203 012a B66C     		ldr	r6, [r6, #72]
 1204 012c 0094     		str	r4, [sp]
 1205 012e 2346     		mov	r3, r4
 1206 0130 3E4A     		ldr	r2, .L96+52
 1207 0132 0A21     		movs	r1, #10
 1208 0134 3E48     		ldr	r0, .L96+56
 1209 0136 B047     		blx	r6
 1210              	.LVL135:
  96:C:/Users/lenovo/Desktop/liteos/Project2/BearPi_LiteOS/components/net/at_device/gprs_M26\m26.c ****     }
 1211              		.loc 1 96 0
 1212 0138 059B     		ldr	r3, [sp, #20]
 1213 013a 012B     		cmp	r3, #1
 1214 013c 3DD0     		beq	.L92
 1215 013e 3D4B     		ldr	r3, .L96+60
 1216              	.L84:
  96:C:/Users/lenovo/Desktop/liteos/Project2/BearPi_LiteOS/components/net/at_device/gprs_M26\m26.c ****     }
 1217              		.loc 1 96 0 is_stmt 0 discriminator 4
ARM GAS  c:\Users\lenovo\AppData\Local\Temp\ccgAwqeK.s 			page 30


 1218 0140 CDF80C90 		str	r9, [sp, #12]
 1219 0144 CDF808A0 		str	r10, [sp, #8]
 1220 0148 0193     		str	r3, [sp, #4]
 1221 014a 0095     		str	r5, [sp]
 1222 014c 3A4B     		ldr	r3, .L96+64
 1223 014e 3B4A     		ldr	r2, .L96+68
 1224 0150 4021     		movs	r1, #64
 1225 0152 06A8     		add	r0, sp, #24
 1226 0154 FFF7FEFF 		bl	snprintf
 1227              	.LVL136:
 1228              	.L83:
  98:C:/Users/lenovo/Desktop/liteos/Project2/BearPi_LiteOS/components/net/at_device/gprs_M26\m26.c ****     {
 1229              		.loc 1 98 0 is_stmt 1
 1230 0158 032D     		cmp	r5, #3
 1231 015a 30D8     		bhi	.L93
 103:C:/Users/lenovo/Desktop/liteos/Project2/BearPi_LiteOS/components/net/at_device/gprs_M26\m26.c ****     if (ret != LOS_OK)
 1232              		.loc 1 103 0
 1233 015c 264B     		ldr	r3, .L96
 1234 015e 5A6B     		ldr	r2, [r3, #52]
 1235 0160 6C01     		lsls	r4, r5, #5
 1236 0162 2244     		add	r2, r2, r4
 1237 0164 3423     		movs	r3, #52
 1238 0166 0093     		str	r3, [sp]
 1239 0168 0023     		movs	r3, #0
 1240 016a 0432     		adds	r2, r2, #4
 1241 016c 1021     		movs	r1, #16
 1242 016e 3448     		ldr	r0, .L96+72
 1243 0170 FFF7FEFF 		bl	LOS_QueueCreate
 1244              	.LVL137:
 104:C:/Users/lenovo/Desktop/liteos/Project2/BearPi_LiteOS/components/net/at_device/gprs_M26\m26.c ****     {
 1245              		.loc 1 104 0
 1246 0174 0028     		cmp	r0, #0
 1247 0176 2ED1     		bne	.L94
 110:C:/Users/lenovo/Desktop/liteos/Project2/BearPi_LiteOS/components/net/at_device/gprs_M26\m26.c ****     return id;
 1248              		.loc 1 110 0
 1249 0178 1F4B     		ldr	r3, .L96
 1250 017a 9C6C     		ldr	r4, [r3, #72]
 1251 017c 06A8     		add	r0, sp, #24
 1252              	.LVL138:
 1253 017e FFF7FEFF 		bl	strlen
 1254              	.LVL139:
 1255 0182 0023     		movs	r3, #0
 1256 0184 0093     		str	r3, [sp]
 1257 0186 2F4A     		ldr	r2, .L96+76
 1258 0188 0146     		mov	r1, r0
 1259 018a 06A8     		add	r0, sp, #24
 1260 018c A047     		blx	r4
 1261              	.LVL140:
 1262              	.L80:
 112:C:/Users/lenovo/Desktop/liteos/Project2/BearPi_LiteOS/components/net/at_device/gprs_M26\m26.c **** 
 1263              		.loc 1 112 0
 1264 018e 2846     		mov	r0, r5
 1265 0190 57B0     		add	sp, sp, #348
 1266              	.LCFI32:
 1267              		.cfi_remember_state
 1268              		.cfi_def_cfa_offset 36
 1269              		@ sp needed
ARM GAS  c:\Users\lenovo\AppData\Local\Temp\ccgAwqeK.s 			page 31


 1270 0192 BDE8F08F 		pop	{r4, r5, r6, r7, r8, r9, r10, fp, pc}
 1271              	.LVL141:
 1272              	.L91:
 1273              	.LCFI33:
 1274              		.cfi_restore_state
  88:C:/Users/lenovo/Desktop/liteos/Project2/BearPi_LiteOS/components/net/at_device/gprs_M26\m26.c ****     }
 1275              		.loc 1 88 0
 1276 0196 059B     		ldr	r3, [sp, #20]
 1277 0198 012B     		cmp	r3, #1
 1278 019a 0CD0     		beq	.L95
 1279 019c 254B     		ldr	r3, .L96+60
 1280              	.L82:
  88:C:/Users/lenovo/Desktop/liteos/Project2/BearPi_LiteOS/components/net/at_device/gprs_M26\m26.c ****     }
 1281              		.loc 1 88 0 is_stmt 0 discriminator 4
 1282 019e CDF80890 		str	r9, [sp, #8]
 1283 01a2 CDF804A0 		str	r10, [sp, #4]
 1284 01a6 0093     		str	r3, [sp]
 1285 01a8 234B     		ldr	r3, .L96+64
 1286 01aa 274A     		ldr	r2, .L96+80
 1287 01ac 4021     		movs	r1, #64
 1288 01ae 06A8     		add	r0, sp, #24
 1289 01b0 FFF7FEFF 		bl	snprintf
 1290              	.LVL142:
 1291 01b4 D0E7     		b	.L83
 1292              	.L95:
  88:C:/Users/lenovo/Desktop/liteos/Project2/BearPi_LiteOS/components/net/at_device/gprs_M26\m26.c ****     }
 1293              		.loc 1 88 0
 1294 01b6 254B     		ldr	r3, .L96+84
 1295 01b8 F1E7     		b	.L82
 1296              	.L92:
  96:C:/Users/lenovo/Desktop/liteos/Project2/BearPi_LiteOS/components/net/at_device/gprs_M26\m26.c ****     }
 1297              		.loc 1 96 0 is_stmt 1
 1298 01ba 244B     		ldr	r3, .L96+84
 1299 01bc C0E7     		b	.L84
 1300              	.L93:
 100:C:/Users/lenovo/Desktop/liteos/Project2/BearPi_LiteOS/components/net/at_device/gprs_M26\m26.c ****         return -1;
 1301              		.loc 1 100 0
 1302 01be FFF7FEFF 		bl	at_get_time
 1303              	.LVL143:
 1304 01c2 0095     		str	r5, [sp]
 1305 01c4 6423     		movs	r3, #100
 1306 01c6 144A     		ldr	r2, .L96+32
 1307 01c8 0146     		mov	r1, r0
 1308 01ca 2148     		ldr	r0, .L96+88
 1309 01cc FFF7FEFF 		bl	printf
 1310              	.LVL144:
 101:C:/Users/lenovo/Desktop/liteos/Project2/BearPi_LiteOS/components/net/at_device/gprs_M26\m26.c ****     }
 1311              		.loc 1 101 0
 1312 01d0 4FF0FF35 		mov	r5, #-1
 1313              	.LVL145:
 1314 01d4 DBE7     		b	.L80
 1315              	.LVL146:
 1316              	.L94:
 106:C:/Users/lenovo/Desktop/liteos/Project2/BearPi_LiteOS/components/net/at_device/gprs_M26\m26.c ****         at.linkid[id].usable = AT_LINK_UNUSE;
 1317              		.loc 1 106 0
 1318 01d6 FFF7FEFF 		bl	at_get_time
 1319              	.LVL147:
ARM GAS  c:\Users\lenovo\AppData\Local\Temp\ccgAwqeK.s 			page 32


 1320 01da 6A23     		movs	r3, #106
 1321 01dc 0E4A     		ldr	r2, .L96+32
 1322 01de 0146     		mov	r1, r0
 1323 01e0 1C48     		ldr	r0, .L96+92
 1324 01e2 FFF7FEFF 		bl	printf
 1325              	.LVL148:
 107:C:/Users/lenovo/Desktop/liteos/Project2/BearPi_LiteOS/components/net/at_device/gprs_M26\m26.c ****         return  -1;
 1326              		.loc 1 107 0
 1327 01e6 044B     		ldr	r3, .L96
 1328 01e8 5B6B     		ldr	r3, [r3, #52]
 1329 01ea 1C44     		add	r4, r4, r3
 1330 01ec 0023     		movs	r3, #0
 1331 01ee A360     		str	r3, [r4, #8]
 108:C:/Users/lenovo/Desktop/liteos/Project2/BearPi_LiteOS/components/net/at_device/gprs_M26\m26.c ****     }
 1332              		.loc 1 108 0
 1333 01f0 4FF0FF35 		mov	r5, #-1
 1334              	.LVL149:
 1335 01f4 CBE7     		b	.L80
 1336              	.L97:
 1337 01f6 00BF     		.align	2
 1338              	.L96:
 1339 01f8 00000000 		.word	at
 1340 01fc 08000000 		.word	.LC26
 1341 0200 14000000 		.word	.LC27
 1342 0204 0C000000 		.word	.LC11
 1343 0208 1C000000 		.word	.LC28
 1344 020c 28000000 		.word	.LC29
 1345 0210 3C000000 		.word	.LC30
 1346 0214 50000000 		.word	.LC32
 1347 0218 00000000 		.word	.LANCHOR3
 1348 021c 5C000000 		.word	.LC33
 1349 0220 9C000000 		.word	.LC36
 1350 0224 AC000000 		.word	.LC37
 1351 0228 B8000000 		.word	.LC38
 1352 022c C4000000 		.word	.LC39
 1353 0230 C8000000 		.word	.LC40
 1354 0234 04000000 		.word	.LC25
 1355 0238 80000000 		.word	.LC34
 1356 023c D4000000 		.word	.LC41
 1357 0240 1C010000 		.word	.LC43
 1358 0244 50010000 		.word	.LC45
 1359 0248 8C000000 		.word	.LC35
 1360 024c 00000000 		.word	.LC24
 1361 0250 E8000000 		.word	.LC42
 1362 0254 28010000 		.word	.LC44
 1363 0258 48000000 		.word	.LC31
 1364              		.cfi_endproc
 1365              	.LFE137:
 1367              		.section	.text.m26_set_mux_mode,"ax",%progbits
 1368              		.align	1
 1369              		.global	m26_set_mux_mode
 1370              		.syntax unified
 1371              		.thumb
 1372              		.thumb_func
 1373              		.fpu fpv4-sp-d16
 1375              	m26_set_mux_mode:
 1376              	.LFB136:
ARM GAS  c:\Users\lenovo\AppData\Local\Temp\ccgAwqeK.s 			page 33


  59:C:/Users/lenovo/Desktop/liteos/Project2/BearPi_LiteOS/components/net/at_device/gprs_M26\m26.c ****     char cmd[64] = {0};
 1377              		.loc 1 59 0
 1378              		.cfi_startproc
 1379              		@ args = 0, pretend = 0, frame = 64
 1380              		@ frame_needed = 0, uses_anonymous_args = 0
 1381              	.LVL150:
 1382 0000 30B5     		push	{r4, r5, lr}
 1383              	.LCFI34:
 1384              		.cfi_def_cfa_offset 12
 1385              		.cfi_offset 4, -12
 1386              		.cfi_offset 5, -8
 1387              		.cfi_offset 14, -4
 1388 0002 93B0     		sub	sp, sp, #76
 1389              	.LCFI35:
 1390              		.cfi_def_cfa_offset 88
 1391 0004 0546     		mov	r5, r0
  60:C:/Users/lenovo/Desktop/liteos/Project2/BearPi_LiteOS/components/net/at_device/gprs_M26\m26.c ****     snprintf(cmd, 64, "%s=%d", AT_CMD_MUX, (int)m);
 1392              		.loc 1 60 0
 1393 0006 4024     		movs	r4, #64
 1394 0008 2246     		mov	r2, r4
 1395 000a 0021     		movs	r1, #0
 1396 000c 02A8     		add	r0, sp, #8
 1397              	.LVL151:
 1398 000e FFF7FEFF 		bl	memset
 1399              	.LVL152:
  61:C:/Users/lenovo/Desktop/liteos/Project2/BearPi_LiteOS/components/net/at_device/gprs_M26\m26.c ****     return at.cmd((int8_t *)cmd, strlen(cmd), "OK", NULL,NULL);
 1400              		.loc 1 61 0
 1401 0012 0095     		str	r5, [sp]
 1402 0014 094B     		ldr	r3, .L100
 1403 0016 0A4A     		ldr	r2, .L100+4
 1404 0018 2146     		mov	r1, r4
 1405 001a 02A8     		add	r0, sp, #8
 1406 001c FFF7FEFF 		bl	snprintf
 1407              	.LVL153:
  62:C:/Users/lenovo/Desktop/liteos/Project2/BearPi_LiteOS/components/net/at_device/gprs_M26\m26.c **** }
 1408              		.loc 1 62 0
 1409 0020 084B     		ldr	r3, .L100+8
 1410 0022 9C6C     		ldr	r4, [r3, #72]
 1411 0024 02A8     		add	r0, sp, #8
 1412 0026 FFF7FEFF 		bl	strlen
 1413              	.LVL154:
 1414 002a 0023     		movs	r3, #0
 1415 002c 0093     		str	r3, [sp]
 1416 002e 064A     		ldr	r2, .L100+12
 1417 0030 0146     		mov	r1, r0
 1418 0032 02A8     		add	r0, sp, #8
 1419 0034 A047     		blx	r4
 1420              	.LVL155:
  63:C:/Users/lenovo/Desktop/liteos/Project2/BearPi_LiteOS/components/net/at_device/gprs_M26\m26.c **** 
 1421              		.loc 1 63 0
 1422 0036 13B0     		add	sp, sp, #76
 1423              	.LCFI36:
 1424              		.cfi_def_cfa_offset 12
 1425              		@ sp needed
 1426 0038 30BD     		pop	{r4, r5, pc}
 1427              	.LVL156:
 1428              	.L101:
ARM GAS  c:\Users\lenovo\AppData\Local\Temp\ccgAwqeK.s 			page 34


 1429 003a 00BF     		.align	2
 1430              	.L100:
 1431 003c 00000000 		.word	.LC46
 1432 0040 0C000000 		.word	.LC47
 1433 0044 00000000 		.word	at
 1434 0048 0C000000 		.word	.LC11
 1435              		.cfi_endproc
 1436              	.LFE136:
 1438              		.section	.text.m26_check,"ax",%progbits
 1439              		.align	1
 1440              		.global	m26_check
 1441              		.syntax unified
 1442              		.thumb
 1443              		.thumb_func
 1444              		.fpu fpv4-sp-d16
 1446              	m26_check:
 1447              	.LFB141:
 165:C:/Users/lenovo/Desktop/liteos/Project2/BearPi_LiteOS/components/net/at_device/gprs_M26\m26.c ****     //check module response
 1448              		.loc 1 165 0
 1449              		.cfi_startproc
 1450              		@ args = 0, pretend = 0, frame = 0
 1451              		@ frame_needed = 0, uses_anonymous_args = 0
 1452 0000 10B5     		push	{r4, lr}
 1453              	.LCFI37:
 1454              		.cfi_def_cfa_offset 8
 1455              		.cfi_offset 4, -8
 1456              		.cfi_offset 14, -4
 1457 0002 82B0     		sub	sp, sp, #8
 1458              	.LCFI38:
 1459              		.cfi_def_cfa_offset 16
 167:C:/Users/lenovo/Desktop/liteos/Project2/BearPi_LiteOS/components/net/at_device/gprs_M26\m26.c ****     {
 1460              		.loc 1 167 0
 1461 0004 09E0     		b	.L103
 1462              	.L104:
 169:C:/Users/lenovo/Desktop/liteos/Project2/BearPi_LiteOS/components/net/at_device/gprs_M26\m26.c ****         printf("\r\nplease check the module pin connection and the power switch\r\n");
 1463              		.loc 1 169 0
 1464 0006 1A48     		ldr	r0, .L109
 1465 0008 FFF7FEFF 		bl	puts
 1466              	.LVL157:
 170:C:/Users/lenovo/Desktop/liteos/Project2/BearPi_LiteOS/components/net/at_device/gprs_M26\m26.c ****         M26_DELAY(500);
 1467              		.loc 1 170 0
 1468 000c 1948     		ldr	r0, .L109+4
 1469 000e FFF7FEFF 		bl	puts
 1470              	.LVL158:
 171:C:/Users/lenovo/Desktop/liteos/Project2/BearPi_LiteOS/components/net/at_device/gprs_M26\m26.c ****     }
 1471              		.loc 1 171 0
 1472 0012 4FF4FA70 		mov	r0, #500
 1473 0016 FFF7FEFF 		bl	LOS_TaskDelay
 1474              	.LVL159:
 1475              	.L103:
 167:C:/Users/lenovo/Desktop/liteos/Project2/BearPi_LiteOS/components/net/at_device/gprs_M26\m26.c ****     {
 1476              		.loc 1 167 0
 1477 001a 174B     		ldr	r3, .L109+8
 1478 001c 9C6C     		ldr	r4, [r3, #72]
 1479 001e 0023     		movs	r3, #0
 1480 0020 0093     		str	r3, [sp]
 1481 0022 164A     		ldr	r2, .L109+12
ARM GAS  c:\Users\lenovo\AppData\Local\Temp\ccgAwqeK.s 			page 35


 1482 0024 0221     		movs	r1, #2
 1483 0026 1648     		ldr	r0, .L109+16
 1484 0028 A047     		blx	r4
 1485              	.LVL160:
 1486 002a B0F1FF3F 		cmp	r0, #-1
 1487 002e EAD0     		beq	.L104
 173:C:/Users/lenovo/Desktop/liteos/Project2/BearPi_LiteOS/components/net/at_device/gprs_M26\m26.c ****     {
 1488              		.loc 1 173 0
 1489 0030 114B     		ldr	r3, .L109+8
 1490 0032 9C6C     		ldr	r4, [r3, #72]
 1491 0034 0023     		movs	r3, #0
 1492 0036 0093     		str	r3, [sp]
 1493 0038 104A     		ldr	r2, .L109+12
 1494 003a 0821     		movs	r1, #8
 1495 003c 1148     		ldr	r0, .L109+20
 1496 003e A047     		blx	r4
 1497              	.LVL161:
 1498 0040 B0F1FF3F 		cmp	r0, #-1
 1499 0044 0FD1     		bne	.L108
 1500              	.L105:
 177:C:/Users/lenovo/Desktop/liteos/Project2/BearPi_LiteOS/components/net/at_device/gprs_M26\m26.c ****     {
 1501              		.loc 1 177 0
 1502 0046 0C4B     		ldr	r3, .L109+8
 1503 0048 9C6C     		ldr	r4, [r3, #72]
 1504 004a 0023     		movs	r3, #0
 1505 004c 0093     		str	r3, [sp]
 1506 004e 0E4A     		ldr	r2, .L109+24
 1507 0050 0821     		movs	r1, #8
 1508 0052 0E48     		ldr	r0, .L109+28
 1509 0054 A047     		blx	r4
 1510              	.LVL162:
 1511 0056 B0F1FF3F 		cmp	r0, #-1
 1512 005a 02D0     		beq	.L102
 179:C:/Users/lenovo/Desktop/liteos/Project2/BearPi_LiteOS/components/net/at_device/gprs_M26\m26.c ****     }
 1513              		.loc 1 179 0
 1514 005c 0C48     		ldr	r0, .L109+32
 1515 005e FFF7FEFF 		bl	puts
 1516              	.LVL163:
 1517              	.L102:
 181:C:/Users/lenovo/Desktop/liteos/Project2/BearPi_LiteOS/components/net/at_device/gprs_M26\m26.c **** 
 1518              		.loc 1 181 0
 1519 0062 02B0     		add	sp, sp, #8
 1520              	.LCFI39:
 1521              		.cfi_remember_state
 1522              		.cfi_def_cfa_offset 8
 1523              		@ sp needed
 1524 0064 10BD     		pop	{r4, pc}
 1525              	.L108:
 1526              	.LCFI40:
 1527              		.cfi_restore_state
 175:C:/Users/lenovo/Desktop/liteos/Project2/BearPi_LiteOS/components/net/at_device/gprs_M26\m26.c ****     }
 1528              		.loc 1 175 0
 1529 0066 0B48     		ldr	r0, .L109+36
 1530 0068 FFF7FEFF 		bl	puts
 1531              	.LVL164:
 1532 006c EBE7     		b	.L105
 1533              	.L110:
ARM GAS  c:\Users\lenovo\AppData\Local\Temp\ccgAwqeK.s 			page 36


 1534 006e 00BF     		.align	2
 1535              	.L109:
 1536 0070 00000000 		.word	.LC48
 1537 0074 24000000 		.word	.LC49
 1538 0078 00000000 		.word	at
 1539 007c 0C000000 		.word	.LC11
 1540 0080 64000000 		.word	.LC50
 1541 0084 68000000 		.word	.LC51
 1542 0088 88000000 		.word	.LC53
 1543 008c 98000000 		.word	.LC54
 1544 0090 A4000000 		.word	.LC55
 1545 0094 74000000 		.word	.LC52
 1546              		.cfi_endproc
 1547              	.LFE141:
 1549              		.section	.text.m26_ini,"ax",%progbits
 1550              		.align	1
 1551              		.global	m26_ini
 1552              		.syntax unified
 1553              		.thumb
 1554              		.thumb_func
 1555              		.fpu fpv4-sp-d16
 1557              	m26_ini:
 1558              	.LFB146:
 296:C:/Users/lenovo/Desktop/liteos/Project2/BearPi_LiteOS/components/net/at_device/gprs_M26\m26.c ****     at_config at_user_conf =
 1559              		.loc 1 296 0
 1560              		.cfi_startproc
 1561              		@ args = 0, pretend = 0, frame = 40
 1562              		@ frame_needed = 0, uses_anonymous_args = 0
 1563 0000 70B5     		push	{r4, r5, r6, lr}
 1564              	.LCFI41:
 1565              		.cfi_def_cfa_offset 16
 1566              		.cfi_offset 4, -16
 1567              		.cfi_offset 5, -12
 1568              		.cfi_offset 6, -8
 1569              		.cfi_offset 14, -4
 1570 0002 8CB0     		sub	sp, sp, #48
 1571              	.LCFI42:
 1572              		.cfi_def_cfa_offset 64
 297:C:/Users/lenovo/Desktop/liteos/Project2/BearPi_LiteOS/components/net/at_device/gprs_M26\m26.c ****     {
 1573              		.loc 1 297 0
 1574 0004 03AC     		add	r4, sp, #12
 1575 0006 1E4D     		ldr	r5, .L116
 1576 0008 0FCD     		ldmia	r5!, {r0, r1, r2, r3}
 1577 000a 0FC4     		stmia	r4!, {r0, r1, r2, r3}
 1578 000c 0FCD     		ldmia	r5!, {r0, r1, r2, r3}
 1579 000e 0FC4     		stmia	r4!, {r0, r1, r2, r3}
 1580 0010 2B68     		ldr	r3, [r5]
 1581 0012 2360     		str	r3, [r4]
 309:C:/Users/lenovo/Desktop/liteos/Project2/BearPi_LiteOS/components/net/at_device/gprs_M26\m26.c ****     //single and multi connect prefix is different
 1582              		.loc 1 309 0
 1583 0014 1B4C     		ldr	r4, .L116+4
 1584 0016 636C     		ldr	r3, [r4, #68]
 1585 0018 03A8     		add	r0, sp, #12
 1586 001a 9847     		blx	r3
 1587              	.LVL165:
 311:C:/Users/lenovo/Desktop/liteos/Project2/BearPi_LiteOS/components/net/at_device/gprs_M26\m26.c ****     {
 1588              		.loc 1 311 0
ARM GAS  c:\Users\lenovo\AppData\Local\Temp\ccgAwqeK.s 			page 37


 1589 001c 236B     		ldr	r3, [r4, #48]
 1590 001e 012B     		cmp	r3, #1
 1591 0020 24D0     		beq	.L115
 317:C:/Users/lenovo/Desktop/liteos/Project2/BearPi_LiteOS/components/net/at_device/gprs_M26\m26.c ****     }
 1592              		.loc 1 317 0
 1593 0022 194B     		ldr	r3, .L116+8
 1594 0024 194A     		ldr	r2, .L116+12
 1595 0026 1068     		ldr	r0, [r2]
 1596 0028 1860     		str	r0, [r3]	@ unaligned
 1597 002a 9288     		ldrh	r2, [r2, #4]	@ unaligned
 1598 002c 9A80     		strh	r2, [r3, #4]	@ unaligned
 1599              	.L113:
 319:C:/Users/lenovo/Desktop/liteos/Project2/BearPi_LiteOS/components/net/at_device/gprs_M26\m26.c ****     m26_echo_off();
 1600              		.loc 1 319 0
 1601 002e 154C     		ldr	r4, .L116+4
 1602 0030 666D     		ldr	r6, [r4, #84]
 1603 0032 154D     		ldr	r5, .L116+8
 1604 0034 2846     		mov	r0, r5
 1605 0036 FFF7FEFF 		bl	strlen
 1606              	.LVL166:
 1607 003a 154B     		ldr	r3, .L116+16
 1608 003c 154A     		ldr	r2, .L116+20
 1609 003e 0146     		mov	r1, r0
 1610 0040 2846     		mov	r0, r5
 1611 0042 B047     		blx	r6
 1612              	.LVL167:
 320:C:/Users/lenovo/Desktop/liteos/Project2/BearPi_LiteOS/components/net/at_device/gprs_M26\m26.c ****     m26_check();
 1613              		.loc 1 320 0
 1614 0044 FFF7FEFF 		bl	m26_echo_off
 1615              	.LVL168:
 321:C:/Users/lenovo/Desktop/liteos/Project2/BearPi_LiteOS/components/net/at_device/gprs_M26\m26.c ****     m26_reset();
 1616              		.loc 1 321 0
 1617 0048 FFF7FEFF 		bl	m26_check
 1618              	.LVL169:
 322:C:/Users/lenovo/Desktop/liteos/Project2/BearPi_LiteOS/components/net/at_device/gprs_M26\m26.c ****     m26_set_mux_mode(at.mux_mode);
 1619              		.loc 1 322 0
 1620 004c FFF7FEFF 		bl	m26_reset
 1621              	.LVL170:
 323:C:/Users/lenovo/Desktop/liteos/Project2/BearPi_LiteOS/components/net/at_device/gprs_M26\m26.c ****     at.cmd((int8_t *)("AT+QIMUX?"), strlen("AT+QIMUX?"), "OK", NULL,NULL);
 1622              		.loc 1 323 0
 1623 0050 206B     		ldr	r0, [r4, #48]
 1624 0052 FFF7FEFF 		bl	m26_set_mux_mode
 1625              	.LVL171:
 324:C:/Users/lenovo/Desktop/liteos/Project2/BearPi_LiteOS/components/net/at_device/gprs_M26\m26.c ****     return AT_OK;
 1626              		.loc 1 324 0
 1627 0056 A56C     		ldr	r5, [r4, #72]
 1628 0058 0024     		movs	r4, #0
 1629 005a 0094     		str	r4, [sp]
 1630 005c 2346     		mov	r3, r4
 1631 005e 0E4A     		ldr	r2, .L116+24
 1632 0060 0921     		movs	r1, #9
 1633 0062 0E48     		ldr	r0, .L116+28
 1634 0064 A847     		blx	r5
 1635              	.LVL172:
 326:C:/Users/lenovo/Desktop/liteos/Project2/BearPi_LiteOS/components/net/at_device/gprs_M26\m26.c **** 
 1636              		.loc 1 326 0
 1637 0066 2046     		mov	r0, r4
ARM GAS  c:\Users\lenovo\AppData\Local\Temp\ccgAwqeK.s 			page 38


 1638 0068 0CB0     		add	sp, sp, #48
 1639              	.LCFI43:
 1640              		.cfi_remember_state
 1641              		.cfi_def_cfa_offset 16
 1642              		@ sp needed
 1643 006a 70BD     		pop	{r4, r5, r6, pc}
 1644              	.L115:
 1645              	.LCFI44:
 1646              		.cfi_restore_state
 313:C:/Users/lenovo/Desktop/liteos/Project2/BearPi_LiteOS/components/net/at_device/gprs_M26\m26.c ****     }
 1647              		.loc 1 313 0
 1648 006c 064A     		ldr	r2, .L116+8
 1649 006e 0C4B     		ldr	r3, .L116+32
 1650 0070 03CB     		ldmia	r3!, {r0, r1}
 1651 0072 1060     		str	r0, [r2]	@ unaligned
 1652 0074 5160     		str	r1, [r2, #4]	@ unaligned
 1653 0076 1988     		ldrh	r1, [r3]	@ unaligned
 1654 0078 9B78     		ldrb	r3, [r3, #2]	@ zero_extendqisi2
 1655 007a 1181     		strh	r1, [r2, #8]	@ unaligned
 1656 007c 9372     		strb	r3, [r2, #10]
 1657 007e D6E7     		b	.L113
 1658              	.L117:
 1659              		.align	2
 1660              	.L116:
 1661 0080 00000000 		.word	.LANCHOR4
 1662 0084 00000000 		.word	at
 1663 0088 00000000 		.word	prefix_name
 1664 008c 0C000000 		.word	.LC58
 1665 0090 00000000 		.word	m26_cmd_match
 1666 0094 00000000 		.word	m26_data_handler
 1667 0098 0C000000 		.word	.LC11
 1668 009c 14000000 		.word	.LC59
 1669 00a0 00000000 		.word	.LC57
 1670              		.cfi_endproc
 1671              	.LFE146:
 1673              		.comm	prefix_name,15,4
 1674              		.global	m26_interface
 1675              		.section	.rodata
 1676              		.align	2
 1677              		.set	.LANCHOR4,. + 0
 1678              	.LC56:
 1679 0000 00000000 		.word	.LC0
 1680 0004 04000000 		.word	4
 1681 0008 80250000 		.word	9600
 1682 000c 04000000 		.word	4
 1683 0010 00140000 		.word	5120
 1684 0014 04000000 		.word	.LC1
 1685 0018 08000000 		.word	.LC2
 1686 001c 01000000 		.word	1
 1687 0020 10270000 		.word	10000
 1688              		.section	.data.m26_interface,"aw",%progbits
 1689              		.align	2
 1692              	m26_interface:
 1693 0000 00000000 		.word	m26_ini
 1694 0004 00000000 		.space	12
 1694      00000000 
 1694      00000000 
ARM GAS  c:\Users\lenovo\AppData\Local\Temp\ccgAwqeK.s 			page 39


 1695 0010 00000000 		.word	m26_connect
 1696 0014 00000000 		.word	m26_send
 1697 0018 00000000 		.space	4
 1698 001c 00000000 		.word	m26_recv_timeout
 1699 0020 00000000 		.word	m26_recv
 1700 0024 00000000 		.space	4
 1701 0028 00000000 		.word	m26_close
 1702 002c 00000000 		.word	m26_recv_cb
 1703 0030 00000000 		.word	m26_deinit
 1704              		.section	.rodata.__func__.10182,"a",%progbits
 1705              		.align	2
 1706              		.set	.LANCHOR3,. + 0
 1709              	__func__.10182:
 1710 0000 6D32365F 		.ascii	"m26_connect\000"
 1710      636F6E6E 
 1710      65637400 
 1711              		.section	.rodata.__func__.10194,"a",%progbits
 1712              		.align	2
 1713              		.set	.LANCHOR0,. + 0
 1716              	__func__.10194:
 1717 0000 6D32365F 		.ascii	"m26_recv_timeout\000"
 1717      72656376 
 1717      5F74696D 
 1717      656F7574 
 1717      00
 1718              		.section	.rodata.__func__.10231,"a",%progbits
 1719              		.align	2
 1720              		.set	.LANCHOR2,. + 0
 1723              	__func__.10231:
 1724 0000 6D32365F 		.ascii	"m26_data_handler\000"
 1724      64617461 
 1724      5F68616E 
 1724      646C6572 
 1724      00
 1725              		.section	.rodata.__func__.10260,"a",%progbits
 1726              		.align	2
 1727              		.set	.LANCHOR1,. + 0
 1730              	__func__.10260:
 1731 0000 6D32365F 		.ascii	"m26_deinit\000"
 1731      6465696E 
 1731      697400
 1732              		.section	.rodata.m26_check.str1.4,"aMS",%progbits,1
 1733              		.align	2
 1734              	.LC48:
 1735 0000 0D0A6368 		.ascii	"\015\012check module response unnormal\015\000"
 1735      65636B20 
 1735      6D6F6475 
 1735      6C652072 
 1735      6573706F 
 1736 0022 0000     		.space	2
 1737              	.LC49:
 1738 0024 0D0A706C 		.ascii	"\015\012please check the module pin connection and "
 1738      65617365 
 1738      20636865 
 1738      636B2074 
 1738      6865206D 
 1739 0051 74686520 		.ascii	"the power switch\015\000"
ARM GAS  c:\Users\lenovo\AppData\Local\Temp\ccgAwqeK.s 			page 40


 1739      706F7765 
 1739      72207377 
 1739      69746368 
 1739      0D00
 1740 0063 00       		.space	1
 1741              	.LC50:
 1742 0064 415400   		.ascii	"AT\000"
 1743 0067 00       		.space	1
 1744              	.LC51:
 1745 0068 41542B43 		.ascii	"AT+CPIN?\000"
 1745      50494E3F 
 1745      00
 1746 0071 000000   		.space	3
 1747              	.LC52:
 1748 0074 64657465 		.ascii	"detected sim card\000"
 1748      63746564 
 1748      2073696D 
 1748      20636172 
 1748      6400
 1749 0086 0000     		.space	2
 1750              	.LC53:
 1751 0088 4348494E 		.ascii	"CHINA MOBILE\000"
 1751      41204D4F 
 1751      42494C45 
 1751      00
 1752 0095 000000   		.space	3
 1753              	.LC54:
 1754 0098 41542B43 		.ascii	"AT+COPS?\000"
 1754      4F50533F 
 1754      00
 1755 00a1 000000   		.space	3
 1756              	.LC55:
 1757 00a4 72656769 		.ascii	"registerd to the network\000"
 1757      73746572 
 1757      6420746F 
 1757      20746865 
 1757      206E6574 
 1758              		.section	.rodata.m26_close.str1.4,"aMS",%progbits,1
 1759              		.align	2
 1760              	.LC10:
 1761 0000 41542B51 		.ascii	"AT+QICLOSE\000"
 1761      49434C4F 
 1761      534500
 1762 000b 00       		.space	1
 1763              	.LC11:
 1764 000c 4F4B00   		.ascii	"OK\000"
 1765              		.section	.rodata.m26_connect.str1.4,"aMS",%progbits,1
 1766              		.align	2
 1767              	.LC24:
 1768 0000 55445000 		.ascii	"UDP\000"
 1769              	.LC25:
 1770 0004 54435000 		.ascii	"TCP\000"
 1771              	.LC26:
 1772 0008 41542B43 		.ascii	"AT+CGCLASS\000"
 1772      47434C41 
 1772      535300
 1773 0013 00       		.space	1
ARM GAS  c:\Users\lenovo\AppData\Local\Temp\ccgAwqeK.s 			page 41


 1774              	.LC27:
 1775 0014 25733D22 		.ascii	"%s=\"B\"\000"
 1775      422200
 1776 001b 00       		.space	1
 1777              	.LC28:
 1778 001c 41542B43 		.ascii	"AT+CGDCONT\000"
 1778      4744434F 
 1778      4E5400
 1779 0027 00       		.space	1
 1780              	.LC29:
 1781 0028 25733D31 		.ascii	"%s=1,\"IP\",\"CMNET\"\000"
 1781      2C224950 
 1781      222C2243 
 1781      4D4E4554 
 1781      2200
 1782 003a 0000     		.space	2
 1783              	.LC30:
 1784 003c 41542B43 		.ascii	"AT+CGATT\000"
 1784      47415454 
 1784      00
 1785 0045 000000   		.space	3
 1786              	.LC31:
 1787 0048 25733D31 		.ascii	"%s=1\000"
 1787      00
 1788 004d 000000   		.space	3
 1789              	.LC32:
 1790 0050 41542B51 		.ascii	"AT+QIHEAD\000"
 1790      49484541 
 1790      4400
 1791 005a 0000     		.space	2
 1792              	.LC33:
 1793 005c 5B256C75 		.ascii	"[%lu][%s:%d][D]host:%s, port:%s\012\000"
 1793      5D5B2573 
 1793      3A25645D 
 1793      5B445D68 
 1793      6F73743A 
 1794 007d 000000   		.space	3
 1795              	.LC34:
 1796 0080 41542B51 		.ascii	"AT+QIOPEN\000"
 1796      494F5045 
 1796      4E00
 1797 008a 0000     		.space	2
 1798              	.LC35:
 1799 008c 25733D22 		.ascii	"%s=\"%s\",\"%s\",%s\000"
 1799      2573222C 
 1799      22257322 
 1799      2C257300 
 1800              	.LC36:
 1801 009c 41542B43 		.ascii	"AT+CGACT=1,1\000"
 1801      47414354 
 1801      3D312C31 
 1801      00
 1802 00a9 000000   		.space	3
 1803              	.LC37:
 1804 00ac 41542B51 		.ascii	"AT+QIREGAPP\000"
 1804      49524547 
 1804      41505000 
ARM GAS  c:\Users\lenovo\AppData\Local\Temp\ccgAwqeK.s 			page 42


 1805              	.LC38:
 1806 00b8 41542B51 		.ascii	"AT+QIACT\000"
 1806      49414354 
 1806      00
 1807 00c1 000000   		.space	3
 1808              	.LC39:
 1809 00c4 2E00     		.ascii	".\000"
 1810 00c6 0000     		.space	2
 1811              	.LC40:
 1812 00c8 41542B51 		.ascii	"AT+QILOCIP\000"
 1812      494C4F43 
 1812      495000
 1813 00d3 00       		.space	1
 1814              	.LC41:
 1815 00d4 25733D25 		.ascii	"%s=%ld,\"%s\",\"%s\",%s\000"
 1815      6C642C22 
 1815      2573222C 
 1815      22257322 
 1815      2C257300 
 1816              	.LC42:
 1817 00e8 5B256C75 		.ascii	"[%lu][%s:%d][I]no vailed linkid for use(id = %ld)\012"
 1817      5D5B2573 
 1817      3A25645D 
 1817      5B495D6E 
 1817      6F207661 
 1818 011a 00       		.ascii	"\000"
 1819 011b 00       		.space	1
 1820              	.LC43:
 1821 011c 64617461 		.ascii	"dataQueue\000"
 1821      51756575 
 1821      6500
 1822 0126 0000     		.space	2
 1823              	.LC44:
 1824 0128 5B256C75 		.ascii	"[%lu][%s:%d][I]init dataQueue failed!\012\000"
 1824      5D5B2573 
 1824      3A25645D 
 1824      5B495D69 
 1824      6E697420 
 1825 014f 00       		.space	1
 1826              	.LC45:
 1827 0150 434F4E4E 		.ascii	"CONNECT OK\000"
 1827      45435420 
 1827      4F4B00
 1828              		.section	.rodata.m26_data_handler.str1.4,"aMS",%progbits,1
 1829              		.align	2
 1830              	.LC13:
 1831 0000 5B256C75 		.ascii	"[%lu][%s:%d][I]param invailed!\012\000"
 1831      5D5B2573 
 1831      3A25645D 
 1831      5B495D70 
 1831      6172616D 
 1832              	.LC14:
 1833 0020 5B256C75 		.ascii	"[%lu][%s:%d][I]entry!\012\000"
 1833      5D5B2573 
 1833      3A25645D 
 1833      5B495D65 
 1833      6E747279 
ARM GAS  c:\Users\lenovo\AppData\Local\Temp\ccgAwqeK.s 			page 43


 1834 0037 00       		.space	1
 1835              	.LC15:
 1836 0038 5B256C75 		.ascii	"[%lu][%s:%d][I]got data prefix invailed!\012\000"
 1836      5D5B2573 
 1836      3A25645D 
 1836      5B495D67 
 1836      6F742064 
 1837 0062 0000     		.space	2
 1838              	.LC16:
 1839 0064 5B256C75 		.ascii	"[%lu][%s:%d][I]error !! receive data not complete d"
 1839      5D5B2573 
 1839      3A25645D 
 1839      5B495D65 
 1839      72726F72 
 1840 0097 6174615F 		.ascii	"ata_len:%ld len:%ld\012\000"
 1840      6C656E3A 
 1840      256C6420 
 1840      6C656E3A 
 1840      256C640A 
 1841              	.LC17:
 1842 00ac 5B256C75 		.ascii	"[%lu][%s:%d][I]malloc for qbuf failed!\012\000"
 1842      5D5B2573 
 1842      3A25645D 
 1842      5B495D6D 
 1842      616C6C6F 
 1843              	.LC18:
 1844 00d4 5B256C75 		.ascii	"[%lu][%s:%d][I]LOS_QueueWriteCopy  failed! ret = %l"
 1844      5D5B2573 
 1844      3A25645D 
 1844      5B495D4C 
 1844      4F535F51 
 1845 0107 780A00   		.ascii	"x\012\000"
 1846              		.section	.rodata.m26_deinit.str1.4,"aMS",%progbits,1
 1847              		.align	2
 1848              	.LC12:
 1849 0000 5B256C75 		.ascii	"[%lu][%s:%d][I]m26_close(%d) failed\012\000"
 1849      5D5B2573 
 1849      3A25645D 
 1849      5B495D6D 
 1849      32365F63 
 1850              		.section	.rodata.m26_echo_off.str1.4,"aMS",%progbits,1
 1851              		.align	2
 1852              	.LC19:
 1853 0000 4F4B0D0A 		.ascii	"OK\015\012\000"
 1853      00
 1854 0005 000000   		.space	3
 1855              	.LC20:
 1856 0008 41544530 		.ascii	"ATE0\000"
 1856      00
 1857              		.section	.rodata.m26_echo_on.str1.4,"aMS",%progbits,1
 1858              		.align	2
 1859              	.LC21:
 1860 0000 41544531 		.ascii	"ATE1\000"
 1860      00
 1861              		.section	.rodata.m26_ini.str1.4,"aMS",%progbits,1
 1862              		.align	2
 1863              	.LC57:
ARM GAS  c:\Users\lenovo\AppData\Local\Temp\ccgAwqeK.s 			page 44


 1864 0000 0D0A2B52 		.ascii	"\015\012+RECEIVE\000"
 1864      45434549 
 1864      564500
 1865 000b 00       		.space	1
 1866              	.LC58:
 1867 000c 0D0A4950 		.ascii	"\015\012IPD\000"
 1867      4400
 1868 0012 0000     		.space	2
 1869              	.LC59:
 1870 0014 41542B51 		.ascii	"AT+QIMUX?\000"
 1870      494D5558 
 1870      3F00
 1871              		.section	.rodata.m26_recv_timeout.str1.4,"aMS",%progbits,1
 1872              		.align	2
 1873              	.LC8:
 1874 0000 5B256C75 		.ascii	"[%lu][%s:%d][I]****at.linkid[id].qid=%d***\012\012\000"
 1874      5D5B2573 
 1874      3A25645D 
 1874      5B495D2A 
 1874      2A2A2A61 
 1875 002d 000000   		.space	3
 1876              	.LC9:
 1877 0030 5B256C75 		.ascii	"[%lu][%s:%d][I]ret = %x, len = %ld, id = %ld\012\000"
 1877      5D5B2573 
 1877      3A25645D 
 1877      5B495D72 
 1877      6574203D 
 1878              		.section	.rodata.m26_reset.str1.4,"aMS",%progbits,1
 1879              		.align	2
 1880              	.LC22:
 1881 0000 44454143 		.ascii	"DEACT OK\000"
 1881      54204F4B 
 1881      00
 1882 0009 000000   		.space	3
 1883              	.LC23:
 1884 000c 41542B51 		.ascii	"AT+QIDEACT\000"
 1884      49444541 
 1884      435400
 1885              		.section	.rodata.m26_send.str1.4,"aMS",%progbits,1
 1886              		.align	2
 1887              	.LC4:
 1888 0000 41542B51 		.ascii	"AT+QISEND\000"
 1888      4953454E 
 1888      4400
 1889 000a 0000     		.space	2
 1890              	.LC5:
 1891 000c 25733D25 		.ascii	"%s=%ld\000"
 1891      6C6400
 1892 0013 00       		.space	1
 1893              	.LC6:
 1894 0014 25733D25 		.ascii	"%s=%ld,%ld\000"
 1894      6C642C25 
 1894      6C6400
 1895 001f 00       		.space	1
 1896              	.LC7:
 1897 0020 53454E44 		.ascii	"SEND OK\000"
 1897      204F4B00 
ARM GAS  c:\Users\lenovo\AppData\Local\Temp\ccgAwqeK.s 			page 45


 1898              		.section	.rodata.m26_set_mux_mode.str1.4,"aMS",%progbits,1
 1899              		.align	2
 1900              	.LC46:
 1901 0000 41542B51 		.ascii	"AT+QIMUX\000"
 1901      494D5558 
 1901      00
 1902 0009 000000   		.space	3
 1903              	.LC47:
 1904 000c 25733D25 		.ascii	"%s=%d\000"
 1904      6400
 1905              		.section	.rodata.str1.4,"aMS",%progbits,1
 1906              		.align	2
 1907              	.LC0:
 1908 0000 4D323600 		.ascii	"M26\000"
 1909              	.LC1:
 1910 0004 0D0A00   		.ascii	"\015\012\000"
 1911 0007 00       		.space	1
 1912              	.LC2:
 1913 0008 0D00     		.ascii	"\015\000"
 1914              		.text
 1915              	.Letext0:
 1916              		.file 2 "c:\\program files (x86)\\liteos studio\\resources\\arm-none-eabi\\arm-none-eabi\\include\
 1917              		.file 3 "c:\\program files (x86)\\liteos studio\\resources\\arm-none-eabi\\arm-none-eabi\\include\
 1918              		.file 4 "c:\\program files (x86)\\liteos studio\\resources\\arm-none-eabi\\arm-none-eabi\\include\
 1919              		.file 5 "c:\\program files (x86)\\liteos studio\\resources\\arm-none-eabi\\lib\\gcc\\arm-none-eabi
 1920              		.file 6 "c:\\program files (x86)\\liteos studio\\resources\\arm-none-eabi\\arm-none-eabi\\include\
 1921              		.file 7 "C:/Users/lenovo/Desktop/liteos/Project2/BearPi_LiteOS/kernel/include/los_typedef.h"
 1922              		.file 8 "c:\\program files (x86)\\liteos studio\\resources\\arm-none-eabi\\arm-none-eabi\\include\
 1923              		.file 9 "C:/Users/lenovo/Desktop/liteos/Project2/BearPi_LiteOS/arch/arm/common/cmsis/core_cm4.h"
 1924              		.file 10 "C:/Users/lenovo/Desktop/liteos/Project2/BearPi_LiteOS/targets/STM32L431_BearPi/Inc/syste
 1925              		.file 11 "C:/Users/lenovo/Desktop/liteos/Project2/BearPi_LiteOS/arch/arm/arm-m/include/los_hwi.h"
 1926              		.file 12 "C:/Users/lenovo/Desktop/liteos/Project2/BearPi_LiteOS/kernel/include/los_list.h"
 1927              		.file 13 "C:/Users/lenovo/Desktop/liteos/Project2/BearPi_LiteOS/kernel/include/los_err.h"
 1928              		.file 14 "C:/Users/lenovo/Desktop/liteos/Project2/BearPi_LiteOS/kernel/include/los_tick.h"
 1929              		.file 15 "C:/Users/lenovo/Desktop/liteos/Project2/BearPi_LiteOS/kernel/include/los_event.h"
 1930              		.file 16 "C:/Users/lenovo/Desktop/liteos/Project2/BearPi_LiteOS/kernel/include/los_task.h"
 1931              		.file 17 "C:/Users/lenovo/Desktop/liteos/Project2/BearPi_LiteOS/kernel/base/include/los_task.ph"
 1932              		.file 18 "C:/Users/lenovo/Desktop/liteos/Project2/BearPi_LiteOS/targets/STM32L431_BearPi/Inc/main.
 1933              		.file 19 "C:/Users/lenovo/Desktop/liteos/Project2/BearPi_LiteOS/targets/STM32L431_BearPi/OS_CONFIG
 1934              		.file 20 "C:/Users/lenovo/Desktop/liteos/Project2/BearPi_LiteOS/kernel/include/los_config.h"
 1935              		.file 21 "C:/Users/lenovo/Desktop/liteos/Project2/BearPi_LiteOS/include/at_frame/at_api.h"
 1936              		.file 22 "C:/Users/lenovo/Desktop/liteos/Project2/BearPi_LiteOS/include/at_frame/at_main.h"
 1937              		.file 23 "c:\\program files (x86)\\liteos studio\\resources\\arm-none-eabi\\arm-none-eabi\\include
 1938              		.file 24 "c:\\program files (x86)\\liteos studio\\resources\\arm-none-eabi\\arm-none-eabi\\include
 1939              		.file 25 "<built-in>"
 1940              		.file 26 "C:/Users/lenovo/Desktop/liteos/Project2/BearPi_LiteOS/kernel/include/los_queue.h"
ARM GAS  c:\Users\lenovo\AppData\Local\Temp\ccgAwqeK.s 			page 46

