ARM GAS  c:\Users\lenovo\AppData\Local\Temp\ccyyQBE5.s 			page 1


   1              		.cpu cortex-m4
   2              		.eabi_attribute 27, 1
   3              		.eabi_attribute 28, 1
   4              		.eabi_attribute 20, 1
   5              		.eabi_attribute 21, 1
   6              		.eabi_attribute 23, 3
   7              		.eabi_attribute 24, 1
   8              		.eabi_attribute 25, 1
   9              		.eabi_attribute 26, 1
  10              		.eabi_attribute 30, 1
  11              		.eabi_attribute 34, 1
  12              		.eabi_attribute 18, 4
  13              		.file	"management.c"
  14              		.text
  15              	.Ltext0:
  16              		.cfi_sections	.debug_frame
  17              		.global	__aeabi_dcmplt
  18              		.section	.text.prv_readAttributes,"ax",%progbits
  19              		.align	1
  20              		.syntax unified
  21              		.thumb
  22              		.thumb_func
  23              		.fpu fpv4-sp-d16
  25              	prv_readAttributes:
  26              	.LFB142:
  27              		.file 1 "C:/Users/lenovo/Desktop/liteos/Project2/BearPi_LiteOS/components/connectivity/lwm2m/core/
   1:C:/Users/lenovo/Desktop/liteos/Project2/BearPi_LiteOS/components/connectivity/lwm2m/core\management.c **** /*----------------------------------------------------------------------------
   2:C:/Users/lenovo/Desktop/liteos/Project2/BearPi_LiteOS/components/connectivity/lwm2m/core\management.c ****  * Copyright (c) <2016-2018>, <Huawei Technologies Co., Ltd>
   3:C:/Users/lenovo/Desktop/liteos/Project2/BearPi_LiteOS/components/connectivity/lwm2m/core\management.c ****  * All rights reserved.
   4:C:/Users/lenovo/Desktop/liteos/Project2/BearPi_LiteOS/components/connectivity/lwm2m/core\management.c ****  * Redistribution and use in source and binary forms, with or without modification,
   5:C:/Users/lenovo/Desktop/liteos/Project2/BearPi_LiteOS/components/connectivity/lwm2m/core\management.c ****  * are permitted provided that the following conditions are met:
   6:C:/Users/lenovo/Desktop/liteos/Project2/BearPi_LiteOS/components/connectivity/lwm2m/core\management.c ****  * 1. Redistributions of source code must retain the above copyright notice, this list of
   7:C:/Users/lenovo/Desktop/liteos/Project2/BearPi_LiteOS/components/connectivity/lwm2m/core\management.c ****  * conditions and the following disclaimer.
   8:C:/Users/lenovo/Desktop/liteos/Project2/BearPi_LiteOS/components/connectivity/lwm2m/core\management.c ****  * 2. Redistributions in binary form must reproduce the above copyright notice, this list
   9:C:/Users/lenovo/Desktop/liteos/Project2/BearPi_LiteOS/components/connectivity/lwm2m/core\management.c ****  * of conditions and the following disclaimer in the documentation and/or other materials
  10:C:/Users/lenovo/Desktop/liteos/Project2/BearPi_LiteOS/components/connectivity/lwm2m/core\management.c ****  * provided with the distribution.
  11:C:/Users/lenovo/Desktop/liteos/Project2/BearPi_LiteOS/components/connectivity/lwm2m/core\management.c ****  * 3. Neither the name of the copyright holder nor the names of its contributors may be used
  12:C:/Users/lenovo/Desktop/liteos/Project2/BearPi_LiteOS/components/connectivity/lwm2m/core\management.c ****  * to endorse or promote products derived from this software without specific prior written
  13:C:/Users/lenovo/Desktop/liteos/Project2/BearPi_LiteOS/components/connectivity/lwm2m/core\management.c ****  * permission.
  14:C:/Users/lenovo/Desktop/liteos/Project2/BearPi_LiteOS/components/connectivity/lwm2m/core\management.c ****  * THIS SOFTWARE IS PROVIDED BY THE COPYRIGHT HOLDERS AND CONTRIBUTORS
  15:C:/Users/lenovo/Desktop/liteos/Project2/BearPi_LiteOS/components/connectivity/lwm2m/core\management.c ****  * "AS IS" AND ANY EXPRESS OR IMPLIED WARRANTIES, INCLUDING, BUT NOT LIMITED TO,
  16:C:/Users/lenovo/Desktop/liteos/Project2/BearPi_LiteOS/components/connectivity/lwm2m/core\management.c ****  * THE IMPLIED WARRANTIES OF MERCHANTABILITY AND FITNESS FOR A PARTICULAR
  17:C:/Users/lenovo/Desktop/liteos/Project2/BearPi_LiteOS/components/connectivity/lwm2m/core\management.c ****  * PURPOSE ARE DISCLAIMED. IN NO EVENT SHALL THE COPYRIGHT HOLDER OR
  18:C:/Users/lenovo/Desktop/liteos/Project2/BearPi_LiteOS/components/connectivity/lwm2m/core\management.c ****  * CONTRIBUTORS BE LIABLE FOR ANY DIRECT, INDIRECT, INCIDENTAL, SPECIAL,
  19:C:/Users/lenovo/Desktop/liteos/Project2/BearPi_LiteOS/components/connectivity/lwm2m/core\management.c ****  * EXEMPLARY, OR CONSEQUENTIAL DAMAGES (INCLUDING, BUT NOT LIMITED TO,
  20:C:/Users/lenovo/Desktop/liteos/Project2/BearPi_LiteOS/components/connectivity/lwm2m/core\management.c ****  * PROCUREMENT OF SUBSTITUTE GOODS OR SERVICES; LOSS OF USE, DATA, OR PROFITS;
  21:C:/Users/lenovo/Desktop/liteos/Project2/BearPi_LiteOS/components/connectivity/lwm2m/core\management.c ****  * OR BUSINESS INTERRUPTION) HOWEVER CAUSED AND ON ANY THEORY OF LIABILITY,
  22:C:/Users/lenovo/Desktop/liteos/Project2/BearPi_LiteOS/components/connectivity/lwm2m/core\management.c ****  * WHETHER IN CONTRACT, STRICT LIABILITY, OR TORT (INCLUDING NEGLIGENCE OR
  23:C:/Users/lenovo/Desktop/liteos/Project2/BearPi_LiteOS/components/connectivity/lwm2m/core\management.c ****  * OTHERWISE) ARISING IN ANY WAY OUT OF THE USE OF THIS SOFTWARE, EVEN IF
  24:C:/Users/lenovo/Desktop/liteos/Project2/BearPi_LiteOS/components/connectivity/lwm2m/core\management.c ****  * ADVISED OF THE POSSIBILITY OF SUCH DAMAGE.
  25:C:/Users/lenovo/Desktop/liteos/Project2/BearPi_LiteOS/components/connectivity/lwm2m/core\management.c ****  *---------------------------------------------------------------------------*/
  26:C:/Users/lenovo/Desktop/liteos/Project2/BearPi_LiteOS/components/connectivity/lwm2m/core\management.c **** /*----------------------------------------------------------------------------
  27:C:/Users/lenovo/Desktop/liteos/Project2/BearPi_LiteOS/components/connectivity/lwm2m/core\management.c ****  * Notice of Export Control Law
  28:C:/Users/lenovo/Desktop/liteos/Project2/BearPi_LiteOS/components/connectivity/lwm2m/core\management.c ****  * ===============================================
  29:C:/Users/lenovo/Desktop/liteos/Project2/BearPi_LiteOS/components/connectivity/lwm2m/core\management.c ****  * Huawei LiteOS may be subject to applicable export control laws and regulations, which might
  30:C:/Users/lenovo/Desktop/liteos/Project2/BearPi_LiteOS/components/connectivity/lwm2m/core\management.c ****  * include those applicable to Huawei LiteOS of U.S. and the country in which you are located.
  31:C:/Users/lenovo/Desktop/liteos/Project2/BearPi_LiteOS/components/connectivity/lwm2m/core\management.c ****  * Import, export and usage of Huawei LiteOS in any manner by you shall be in compliance with such
ARM GAS  c:\Users\lenovo\AppData\Local\Temp\ccyyQBE5.s 			page 2


  32:C:/Users/lenovo/Desktop/liteos/Project2/BearPi_LiteOS/components/connectivity/lwm2m/core\management.c ****  * applicable export control laws and regulations.
  33:C:/Users/lenovo/Desktop/liteos/Project2/BearPi_LiteOS/components/connectivity/lwm2m/core\management.c ****  *---------------------------------------------------------------------------*/
  34:C:/Users/lenovo/Desktop/liteos/Project2/BearPi_LiteOS/components/connectivity/lwm2m/core\management.c **** 
  35:C:/Users/lenovo/Desktop/liteos/Project2/BearPi_LiteOS/components/connectivity/lwm2m/core\management.c **** /*******************************************************************************
  36:C:/Users/lenovo/Desktop/liteos/Project2/BearPi_LiteOS/components/connectivity/lwm2m/core\management.c ****  *
  37:C:/Users/lenovo/Desktop/liteos/Project2/BearPi_LiteOS/components/connectivity/lwm2m/core\management.c ****  * Copyright (c) 2013, 2014 Intel Corporation and others.
  38:C:/Users/lenovo/Desktop/liteos/Project2/BearPi_LiteOS/components/connectivity/lwm2m/core\management.c ****  * All rights reserved. This program and the accompanying materials
  39:C:/Users/lenovo/Desktop/liteos/Project2/BearPi_LiteOS/components/connectivity/lwm2m/core\management.c ****  * are made available under the terms of the Eclipse Public License v1.0
  40:C:/Users/lenovo/Desktop/liteos/Project2/BearPi_LiteOS/components/connectivity/lwm2m/core\management.c ****  * and Eclipse Distribution License v1.0 which accompany this distribution.
  41:C:/Users/lenovo/Desktop/liteos/Project2/BearPi_LiteOS/components/connectivity/lwm2m/core\management.c ****  *
  42:C:/Users/lenovo/Desktop/liteos/Project2/BearPi_LiteOS/components/connectivity/lwm2m/core\management.c ****  * The Eclipse Public License is available at
  43:C:/Users/lenovo/Desktop/liteos/Project2/BearPi_LiteOS/components/connectivity/lwm2m/core\management.c ****  *    http://www.eclipse.org/legal/epl-v10.html
  44:C:/Users/lenovo/Desktop/liteos/Project2/BearPi_LiteOS/components/connectivity/lwm2m/core\management.c ****  * The Eclipse Distribution License is available at
  45:C:/Users/lenovo/Desktop/liteos/Project2/BearPi_LiteOS/components/connectivity/lwm2m/core\management.c ****  *    http://www.eclipse.org/org/documents/edl-v10.php.
  46:C:/Users/lenovo/Desktop/liteos/Project2/BearPi_LiteOS/components/connectivity/lwm2m/core\management.c ****  *
  47:C:/Users/lenovo/Desktop/liteos/Project2/BearPi_LiteOS/components/connectivity/lwm2m/core\management.c ****  * Contributors:
  48:C:/Users/lenovo/Desktop/liteos/Project2/BearPi_LiteOS/components/connectivity/lwm2m/core\management.c ****  *    David Navarro, Intel Corporation - initial API and implementation
  49:C:/Users/lenovo/Desktop/liteos/Project2/BearPi_LiteOS/components/connectivity/lwm2m/core\management.c ****  *    domedambrosio - Please refer to git log
  50:C:/Users/lenovo/Desktop/liteos/Project2/BearPi_LiteOS/components/connectivity/lwm2m/core\management.c ****  *    Toby Jaffey - Please refer to git log
  51:C:/Users/lenovo/Desktop/liteos/Project2/BearPi_LiteOS/components/connectivity/lwm2m/core\management.c ****  *    Bosch Software Innovations GmbH - Please refer to git log
  52:C:/Users/lenovo/Desktop/liteos/Project2/BearPi_LiteOS/components/connectivity/lwm2m/core\management.c ****  *    Pascal Rieux - Please refer to git log
  53:C:/Users/lenovo/Desktop/liteos/Project2/BearPi_LiteOS/components/connectivity/lwm2m/core\management.c ****  *
  54:C:/Users/lenovo/Desktop/liteos/Project2/BearPi_LiteOS/components/connectivity/lwm2m/core\management.c ****  *******************************************************************************/
  55:C:/Users/lenovo/Desktop/liteos/Project2/BearPi_LiteOS/components/connectivity/lwm2m/core\management.c **** /*
  56:C:/Users/lenovo/Desktop/liteos/Project2/BearPi_LiteOS/components/connectivity/lwm2m/core\management.c ****  Copyright (c) 2013, 2014 Intel Corporation
  57:C:/Users/lenovo/Desktop/liteos/Project2/BearPi_LiteOS/components/connectivity/lwm2m/core\management.c **** 
  58:C:/Users/lenovo/Desktop/liteos/Project2/BearPi_LiteOS/components/connectivity/lwm2m/core\management.c ****  Redistribution and use in source and binary forms, with or without modification,
  59:C:/Users/lenovo/Desktop/liteos/Project2/BearPi_LiteOS/components/connectivity/lwm2m/core\management.c ****  are permitted provided that the following conditions are met:
  60:C:/Users/lenovo/Desktop/liteos/Project2/BearPi_LiteOS/components/connectivity/lwm2m/core\management.c **** 
  61:C:/Users/lenovo/Desktop/liteos/Project2/BearPi_LiteOS/components/connectivity/lwm2m/core\management.c ****      * Redistributions of source code must retain the above copyright notice,
  62:C:/Users/lenovo/Desktop/liteos/Project2/BearPi_LiteOS/components/connectivity/lwm2m/core\management.c ****        this list of conditions and the following disclaimer.
  63:C:/Users/lenovo/Desktop/liteos/Project2/BearPi_LiteOS/components/connectivity/lwm2m/core\management.c ****      * Redistributions in binary form must reproduce the above copyright notice,
  64:C:/Users/lenovo/Desktop/liteos/Project2/BearPi_LiteOS/components/connectivity/lwm2m/core\management.c ****        this list of conditions and the following disclaimer in the documentation
  65:C:/Users/lenovo/Desktop/liteos/Project2/BearPi_LiteOS/components/connectivity/lwm2m/core\management.c ****        and/or other materials provided with the distribution.
  66:C:/Users/lenovo/Desktop/liteos/Project2/BearPi_LiteOS/components/connectivity/lwm2m/core\management.c ****      * Neither the name of Intel Corporation nor the names of its contributors
  67:C:/Users/lenovo/Desktop/liteos/Project2/BearPi_LiteOS/components/connectivity/lwm2m/core\management.c ****        may be used to endorse or promote products derived from this software
  68:C:/Users/lenovo/Desktop/liteos/Project2/BearPi_LiteOS/components/connectivity/lwm2m/core\management.c ****        without specific prior written permission.
  69:C:/Users/lenovo/Desktop/liteos/Project2/BearPi_LiteOS/components/connectivity/lwm2m/core\management.c **** 
  70:C:/Users/lenovo/Desktop/liteos/Project2/BearPi_LiteOS/components/connectivity/lwm2m/core\management.c ****  THIS SOFTWARE IS PROVIDED BY THE COPYRIGHT HOLDERS AND CONTRIBUTORS "AS IS" AND
  71:C:/Users/lenovo/Desktop/liteos/Project2/BearPi_LiteOS/components/connectivity/lwm2m/core\management.c ****  ANY EXPRESS OR IMPLIED WARRANTIES, INCLUDING, BUT NOT LIMITED TO, THE IMPLIED
  72:C:/Users/lenovo/Desktop/liteos/Project2/BearPi_LiteOS/components/connectivity/lwm2m/core\management.c ****  WARRANTIES OF MERCHANTABILITY AND FITNESS FOR A PARTICULAR PURPOSE ARE DISCLAIMED.
  73:C:/Users/lenovo/Desktop/liteos/Project2/BearPi_LiteOS/components/connectivity/lwm2m/core\management.c ****  IN NO EVENT SHALL THE COPYRIGHT OWNER OR CONTRIBUTORS BE LIABLE FOR ANY DIRECT,
  74:C:/Users/lenovo/Desktop/liteos/Project2/BearPi_LiteOS/components/connectivity/lwm2m/core\management.c ****  INDIRECT, INCIDENTAL, SPECIAL, EXEMPLARY, OR CONSEQUENTIAL DAMAGES (INCLUDING,
  75:C:/Users/lenovo/Desktop/liteos/Project2/BearPi_LiteOS/components/connectivity/lwm2m/core\management.c ****  BUT NOT LIMITED TO, PROCUREMENT OF SUBSTITUTE GOODS OR SERVICES; LOSS OF USE,
  76:C:/Users/lenovo/Desktop/liteos/Project2/BearPi_LiteOS/components/connectivity/lwm2m/core\management.c ****  DATA, OR PROFITS; OR BUSINESS INTERRUPTION) HOWEVER CAUSED AND ON ANY THEORY OF
  77:C:/Users/lenovo/Desktop/liteos/Project2/BearPi_LiteOS/components/connectivity/lwm2m/core\management.c ****  LIABILITY, WHETHER IN CONTRACT, STRICT LIABILITY, OR TORT (INCLUDING NEGLIGENCE OR
  78:C:/Users/lenovo/Desktop/liteos/Project2/BearPi_LiteOS/components/connectivity/lwm2m/core\management.c ****  OTHERWISE) ARISING IN ANY WAY OUT OF THE USE OF THIS SOFTWARE, EVEN IF ADVISED OF
  79:C:/Users/lenovo/Desktop/liteos/Project2/BearPi_LiteOS/components/connectivity/lwm2m/core\management.c ****  THE POSSIBILITY OF SUCH DAMAGE.
  80:C:/Users/lenovo/Desktop/liteos/Project2/BearPi_LiteOS/components/connectivity/lwm2m/core\management.c **** 
  81:C:/Users/lenovo/Desktop/liteos/Project2/BearPi_LiteOS/components/connectivity/lwm2m/core\management.c ****  David Navarro <david.navarro@intel.com>
  82:C:/Users/lenovo/Desktop/liteos/Project2/BearPi_LiteOS/components/connectivity/lwm2m/core\management.c **** 
  83:C:/Users/lenovo/Desktop/liteos/Project2/BearPi_LiteOS/components/connectivity/lwm2m/core\management.c **** */
  84:C:/Users/lenovo/Desktop/liteos/Project2/BearPi_LiteOS/components/connectivity/lwm2m/core\management.c **** 
  85:C:/Users/lenovo/Desktop/liteos/Project2/BearPi_LiteOS/components/connectivity/lwm2m/core\management.c **** #include "internals.h"
  86:C:/Users/lenovo/Desktop/liteos/Project2/BearPi_LiteOS/components/connectivity/lwm2m/core\management.c **** #include "object_comm.h"
  87:C:/Users/lenovo/Desktop/liteos/Project2/BearPi_LiteOS/components/connectivity/lwm2m/core\management.c **** #include <stdio.h>
  88:C:/Users/lenovo/Desktop/liteos/Project2/BearPi_LiteOS/components/connectivity/lwm2m/core\management.c **** 
ARM GAS  c:\Users\lenovo\AppData\Local\Temp\ccyyQBE5.s 			page 3


  89:C:/Users/lenovo/Desktop/liteos/Project2/BearPi_LiteOS/components/connectivity/lwm2m/core\management.c **** 
  90:C:/Users/lenovo/Desktop/liteos/Project2/BearPi_LiteOS/components/connectivity/lwm2m/core\management.c **** #ifdef LWM2M_CLIENT_MODE
  91:C:/Users/lenovo/Desktop/liteos/Project2/BearPi_LiteOS/components/connectivity/lwm2m/core\management.c **** static int prv_readAttributes(multi_option_t *query,
  92:C:/Users/lenovo/Desktop/liteos/Project2/BearPi_LiteOS/components/connectivity/lwm2m/core\management.c ****                               lwm2m_attributes_t *attrP)
  93:C:/Users/lenovo/Desktop/liteos/Project2/BearPi_LiteOS/components/connectivity/lwm2m/core\management.c **** {
  28              		.loc 1 93 0
  29              		.cfi_startproc
  30              		@ args = 0, pretend = 0, frame = 16
  31              		@ frame_needed = 0, uses_anonymous_args = 0
  32              	.LVL0:
  33 0000 30B5     		push	{r4, r5, lr}
  34              	.LCFI0:
  35              		.cfi_def_cfa_offset 12
  36              		.cfi_offset 4, -12
  37              		.cfi_offset 5, -8
  38              		.cfi_offset 14, -4
  39 0002 85B0     		sub	sp, sp, #20
  40              	.LCFI1:
  41              		.cfi_def_cfa_offset 32
  42 0004 0446     		mov	r4, r0
  43 0006 0D46     		mov	r5, r1
  94:C:/Users/lenovo/Desktop/liteos/Project2/BearPi_LiteOS/components/connectivity/lwm2m/core\management.c ****     int64_t intValue;
  95:C:/Users/lenovo/Desktop/liteos/Project2/BearPi_LiteOS/components/connectivity/lwm2m/core\management.c ****     double floatValue;
  96:C:/Users/lenovo/Desktop/liteos/Project2/BearPi_LiteOS/components/connectivity/lwm2m/core\management.c **** 
  97:C:/Users/lenovo/Desktop/liteos/Project2/BearPi_LiteOS/components/connectivity/lwm2m/core\management.c ****     memset(attrP, 0, sizeof(lwm2m_attributes_t));
  44              		.loc 1 97 0
  45 0008 2822     		movs	r2, #40
  46 000a 0021     		movs	r1, #0
  47              	.LVL1:
  48 000c 2846     		mov	r0, r5
  49              	.LVL2:
  50 000e FFF7FEFF 		bl	memset
  51              	.LVL3:
  98:C:/Users/lenovo/Desktop/liteos/Project2/BearPi_LiteOS/components/connectivity/lwm2m/core\management.c **** 
  99:C:/Users/lenovo/Desktop/liteos/Project2/BearPi_LiteOS/components/connectivity/lwm2m/core\management.c ****     while (query != NULL)
  52              		.loc 1 99 0
  53 0012 15E0     		b	.L2
  54              	.L3:
 100:C:/Users/lenovo/Desktop/liteos/Project2/BearPi_LiteOS/components/connectivity/lwm2m/core\management.c ****     {
 101:C:/Users/lenovo/Desktop/liteos/Project2/BearPi_LiteOS/components/connectivity/lwm2m/core\management.c ****         if (lwm2m_strncmp((char *)query->data, ATTR_MIN_PERIOD_STR, ATTR_MIN_PERIOD_LEN) == 0)
 102:C:/Users/lenovo/Desktop/liteos/Project2/BearPi_LiteOS/components/connectivity/lwm2m/core\management.c ****         {
 103:C:/Users/lenovo/Desktop/liteos/Project2/BearPi_LiteOS/components/connectivity/lwm2m/core\management.c ****             if (0 != ((attrP->toSet | attrP->toClear) & LWM2M_ATTR_FLAG_MIN_PERIOD)) return -1;
 104:C:/Users/lenovo/Desktop/liteos/Project2/BearPi_LiteOS/components/connectivity/lwm2m/core\management.c ****             if (query->len == ATTR_MIN_PERIOD_LEN) return -1;
 105:C:/Users/lenovo/Desktop/liteos/Project2/BearPi_LiteOS/components/connectivity/lwm2m/core\management.c **** 
 106:C:/Users/lenovo/Desktop/liteos/Project2/BearPi_LiteOS/components/connectivity/lwm2m/core\management.c ****             if (1 != utils_textToInt(query->data + ATTR_MIN_PERIOD_LEN, query->len - ATTR_MIN_PERIO
 107:C:/Users/lenovo/Desktop/liteos/Project2/BearPi_LiteOS/components/connectivity/lwm2m/core\management.c ****             if (intValue < 0) return -1;
 108:C:/Users/lenovo/Desktop/liteos/Project2/BearPi_LiteOS/components/connectivity/lwm2m/core\management.c **** 
 109:C:/Users/lenovo/Desktop/liteos/Project2/BearPi_LiteOS/components/connectivity/lwm2m/core\management.c ****             attrP->toSet |= LWM2M_ATTR_FLAG_MIN_PERIOD;
 110:C:/Users/lenovo/Desktop/liteos/Project2/BearPi_LiteOS/components/connectivity/lwm2m/core\management.c ****             attrP->minPeriod = intValue;
 111:C:/Users/lenovo/Desktop/liteos/Project2/BearPi_LiteOS/components/connectivity/lwm2m/core\management.c ****         }
 112:C:/Users/lenovo/Desktop/liteos/Project2/BearPi_LiteOS/components/connectivity/lwm2m/core\management.c ****         else if (lwm2m_strncmp((char *)query->data, ATTR_MIN_PERIOD_STR, ATTR_MIN_PERIOD_LEN - 1) =
  55              		.loc 1 112 0
  56 0014 0422     		movs	r2, #4
  57 0016 B349     		ldr	r1, .L46
  58 0018 A068     		ldr	r0, [r4, #8]
  59 001a FFF7FEFF 		bl	lwm2m_strncmp
  60              	.LVL4:
ARM GAS  c:\Users\lenovo\AppData\Local\Temp\ccyyQBE5.s 			page 4


  61 001e 0028     		cmp	r0, #0
  62 0020 3AD1     		bne	.L6
 113:C:/Users/lenovo/Desktop/liteos/Project2/BearPi_LiteOS/components/connectivity/lwm2m/core\management.c ****         {
 114:C:/Users/lenovo/Desktop/liteos/Project2/BearPi_LiteOS/components/connectivity/lwm2m/core\management.c ****             if (0 != ((attrP->toSet | attrP->toClear) & LWM2M_ATTR_FLAG_MIN_PERIOD)) return -1;
  63              		.loc 1 114 0
  64 0022 2A78     		ldrb	r2, [r5]	@ zero_extendqisi2
  65 0024 6B78     		ldrb	r3, [r5, #1]	@ zero_extendqisi2
  66 0026 1A43     		orrs	r2, r2, r3
  67 0028 12F0010F 		tst	r2, #1
  68 002c 40F02C81 		bne	.L19
 115:C:/Users/lenovo/Desktop/liteos/Project2/BearPi_LiteOS/components/connectivity/lwm2m/core\management.c ****             if (query->len != ATTR_MIN_PERIOD_LEN - 1) return -1;
  69              		.loc 1 115 0
  70 0030 6279     		ldrb	r2, [r4, #5]	@ zero_extendqisi2
  71 0032 042A     		cmp	r2, #4
  72 0034 40F02B81 		bne	.L20
 116:C:/Users/lenovo/Desktop/liteos/Project2/BearPi_LiteOS/components/connectivity/lwm2m/core\management.c **** 
 117:C:/Users/lenovo/Desktop/liteos/Project2/BearPi_LiteOS/components/connectivity/lwm2m/core\management.c ****             attrP->toClear |= LWM2M_ATTR_FLAG_MIN_PERIOD;
  73              		.loc 1 117 0
  74 0038 43F00103 		orr	r3, r3, #1
  75 003c 6B70     		strb	r3, [r5, #1]
  76              	.L5:
 118:C:/Users/lenovo/Desktop/liteos/Project2/BearPi_LiteOS/components/connectivity/lwm2m/core\management.c ****         }
 119:C:/Users/lenovo/Desktop/liteos/Project2/BearPi_LiteOS/components/connectivity/lwm2m/core\management.c ****         else if (lwm2m_strncmp((char *)query->data, ATTR_MAX_PERIOD_STR, ATTR_MAX_PERIOD_LEN) == 0)
 120:C:/Users/lenovo/Desktop/liteos/Project2/BearPi_LiteOS/components/connectivity/lwm2m/core\management.c ****         {
 121:C:/Users/lenovo/Desktop/liteos/Project2/BearPi_LiteOS/components/connectivity/lwm2m/core\management.c ****             if (0 != ((attrP->toSet | attrP->toClear) & LWM2M_ATTR_FLAG_MAX_PERIOD)) return -1;
 122:C:/Users/lenovo/Desktop/liteos/Project2/BearPi_LiteOS/components/connectivity/lwm2m/core\management.c ****             if (query->len == ATTR_MAX_PERIOD_LEN) return -1;
 123:C:/Users/lenovo/Desktop/liteos/Project2/BearPi_LiteOS/components/connectivity/lwm2m/core\management.c **** 
 124:C:/Users/lenovo/Desktop/liteos/Project2/BearPi_LiteOS/components/connectivity/lwm2m/core\management.c ****             if (1 != utils_textToInt(query->data + ATTR_MAX_PERIOD_LEN, query->len - ATTR_MAX_PERIO
 125:C:/Users/lenovo/Desktop/liteos/Project2/BearPi_LiteOS/components/connectivity/lwm2m/core\management.c ****             if (intValue < 0) return -1;
 126:C:/Users/lenovo/Desktop/liteos/Project2/BearPi_LiteOS/components/connectivity/lwm2m/core\management.c **** 
 127:C:/Users/lenovo/Desktop/liteos/Project2/BearPi_LiteOS/components/connectivity/lwm2m/core\management.c ****             attrP->toSet |= LWM2M_ATTR_FLAG_MAX_PERIOD;
 128:C:/Users/lenovo/Desktop/liteos/Project2/BearPi_LiteOS/components/connectivity/lwm2m/core\management.c ****             attrP->maxPeriod = intValue;
 129:C:/Users/lenovo/Desktop/liteos/Project2/BearPi_LiteOS/components/connectivity/lwm2m/core\management.c ****         }
 130:C:/Users/lenovo/Desktop/liteos/Project2/BearPi_LiteOS/components/connectivity/lwm2m/core\management.c ****         else if (lwm2m_strncmp((char *)query->data, ATTR_MAX_PERIOD_STR, ATTR_MAX_PERIOD_LEN - 1) =
 131:C:/Users/lenovo/Desktop/liteos/Project2/BearPi_LiteOS/components/connectivity/lwm2m/core\management.c ****         {
 132:C:/Users/lenovo/Desktop/liteos/Project2/BearPi_LiteOS/components/connectivity/lwm2m/core\management.c ****             if (0 != ((attrP->toSet | attrP->toClear) & LWM2M_ATTR_FLAG_MAX_PERIOD)) return -1;
 133:C:/Users/lenovo/Desktop/liteos/Project2/BearPi_LiteOS/components/connectivity/lwm2m/core\management.c ****             if (query->len != ATTR_MAX_PERIOD_LEN - 1) return -1;
 134:C:/Users/lenovo/Desktop/liteos/Project2/BearPi_LiteOS/components/connectivity/lwm2m/core\management.c **** 
 135:C:/Users/lenovo/Desktop/liteos/Project2/BearPi_LiteOS/components/connectivity/lwm2m/core\management.c ****             attrP->toClear |= LWM2M_ATTR_FLAG_MAX_PERIOD;
 136:C:/Users/lenovo/Desktop/liteos/Project2/BearPi_LiteOS/components/connectivity/lwm2m/core\management.c ****         }
 137:C:/Users/lenovo/Desktop/liteos/Project2/BearPi_LiteOS/components/connectivity/lwm2m/core\management.c ****         else if (lwm2m_strncmp((char *)query->data, ATTR_GREATER_THAN_STR, ATTR_GREATER_THAN_LEN) =
 138:C:/Users/lenovo/Desktop/liteos/Project2/BearPi_LiteOS/components/connectivity/lwm2m/core\management.c ****         {
 139:C:/Users/lenovo/Desktop/liteos/Project2/BearPi_LiteOS/components/connectivity/lwm2m/core\management.c ****             if (0 != ((attrP->toSet | attrP->toClear) & LWM2M_ATTR_FLAG_GREATER_THAN)) return -1;
 140:C:/Users/lenovo/Desktop/liteos/Project2/BearPi_LiteOS/components/connectivity/lwm2m/core\management.c ****             if (query->len == ATTR_GREATER_THAN_LEN) return -1;
 141:C:/Users/lenovo/Desktop/liteos/Project2/BearPi_LiteOS/components/connectivity/lwm2m/core\management.c **** 
 142:C:/Users/lenovo/Desktop/liteos/Project2/BearPi_LiteOS/components/connectivity/lwm2m/core\management.c ****             if (1 != utils_textToFloat(query->data + ATTR_GREATER_THAN_LEN, query->len - ATTR_GREAT
 143:C:/Users/lenovo/Desktop/liteos/Project2/BearPi_LiteOS/components/connectivity/lwm2m/core\management.c **** 
 144:C:/Users/lenovo/Desktop/liteos/Project2/BearPi_LiteOS/components/connectivity/lwm2m/core\management.c ****             attrP->toSet |= LWM2M_ATTR_FLAG_GREATER_THAN;
 145:C:/Users/lenovo/Desktop/liteos/Project2/BearPi_LiteOS/components/connectivity/lwm2m/core\management.c ****             attrP->greaterThan = floatValue;
 146:C:/Users/lenovo/Desktop/liteos/Project2/BearPi_LiteOS/components/connectivity/lwm2m/core\management.c ****         }
 147:C:/Users/lenovo/Desktop/liteos/Project2/BearPi_LiteOS/components/connectivity/lwm2m/core\management.c ****         else if (lwm2m_strncmp((char *)query->data, ATTR_GREATER_THAN_STR, ATTR_GREATER_THAN_LEN - 
 148:C:/Users/lenovo/Desktop/liteos/Project2/BearPi_LiteOS/components/connectivity/lwm2m/core\management.c ****         {
 149:C:/Users/lenovo/Desktop/liteos/Project2/BearPi_LiteOS/components/connectivity/lwm2m/core\management.c ****             if (0 != ((attrP->toSet | attrP->toClear) & LWM2M_ATTR_FLAG_GREATER_THAN)) return -1;
 150:C:/Users/lenovo/Desktop/liteos/Project2/BearPi_LiteOS/components/connectivity/lwm2m/core\management.c ****             if (query->len != ATTR_GREATER_THAN_LEN - 1) return -1;
 151:C:/Users/lenovo/Desktop/liteos/Project2/BearPi_LiteOS/components/connectivity/lwm2m/core\management.c **** 
 152:C:/Users/lenovo/Desktop/liteos/Project2/BearPi_LiteOS/components/connectivity/lwm2m/core\management.c ****             attrP->toClear |= LWM2M_ATTR_FLAG_GREATER_THAN;
 153:C:/Users/lenovo/Desktop/liteos/Project2/BearPi_LiteOS/components/connectivity/lwm2m/core\management.c ****         }
ARM GAS  c:\Users\lenovo\AppData\Local\Temp\ccyyQBE5.s 			page 5


 154:C:/Users/lenovo/Desktop/liteos/Project2/BearPi_LiteOS/components/connectivity/lwm2m/core\management.c ****         else if (lwm2m_strncmp((char *)query->data, ATTR_LESS_THAN_STR, ATTR_LESS_THAN_LEN) == 0)
 155:C:/Users/lenovo/Desktop/liteos/Project2/BearPi_LiteOS/components/connectivity/lwm2m/core\management.c ****         {
 156:C:/Users/lenovo/Desktop/liteos/Project2/BearPi_LiteOS/components/connectivity/lwm2m/core\management.c ****             if (0 != ((attrP->toSet | attrP->toClear) & LWM2M_ATTR_FLAG_LESS_THAN)) return -1;
 157:C:/Users/lenovo/Desktop/liteos/Project2/BearPi_LiteOS/components/connectivity/lwm2m/core\management.c ****             if (query->len == ATTR_LESS_THAN_LEN) return -1;
 158:C:/Users/lenovo/Desktop/liteos/Project2/BearPi_LiteOS/components/connectivity/lwm2m/core\management.c **** 
 159:C:/Users/lenovo/Desktop/liteos/Project2/BearPi_LiteOS/components/connectivity/lwm2m/core\management.c ****             if (1 != utils_textToFloat(query->data + ATTR_LESS_THAN_LEN, query->len - ATTR_LESS_THA
 160:C:/Users/lenovo/Desktop/liteos/Project2/BearPi_LiteOS/components/connectivity/lwm2m/core\management.c **** 
 161:C:/Users/lenovo/Desktop/liteos/Project2/BearPi_LiteOS/components/connectivity/lwm2m/core\management.c ****             attrP->toSet |= LWM2M_ATTR_FLAG_LESS_THAN;
 162:C:/Users/lenovo/Desktop/liteos/Project2/BearPi_LiteOS/components/connectivity/lwm2m/core\management.c ****             attrP->lessThan = floatValue;
 163:C:/Users/lenovo/Desktop/liteos/Project2/BearPi_LiteOS/components/connectivity/lwm2m/core\management.c ****         }
 164:C:/Users/lenovo/Desktop/liteos/Project2/BearPi_LiteOS/components/connectivity/lwm2m/core\management.c ****         else if (lwm2m_strncmp((char *)query->data, ATTR_LESS_THAN_STR, ATTR_LESS_THAN_LEN - 1) == 
 165:C:/Users/lenovo/Desktop/liteos/Project2/BearPi_LiteOS/components/connectivity/lwm2m/core\management.c ****         {
 166:C:/Users/lenovo/Desktop/liteos/Project2/BearPi_LiteOS/components/connectivity/lwm2m/core\management.c ****             if (0 != ((attrP->toSet | attrP->toClear) & LWM2M_ATTR_FLAG_LESS_THAN)) return -1;
 167:C:/Users/lenovo/Desktop/liteos/Project2/BearPi_LiteOS/components/connectivity/lwm2m/core\management.c ****             if (query->len != ATTR_LESS_THAN_LEN - 1) return -1;
 168:C:/Users/lenovo/Desktop/liteos/Project2/BearPi_LiteOS/components/connectivity/lwm2m/core\management.c **** 
 169:C:/Users/lenovo/Desktop/liteos/Project2/BearPi_LiteOS/components/connectivity/lwm2m/core\management.c ****             attrP->toClear |= LWM2M_ATTR_FLAG_LESS_THAN;
 170:C:/Users/lenovo/Desktop/liteos/Project2/BearPi_LiteOS/components/connectivity/lwm2m/core\management.c ****         }
 171:C:/Users/lenovo/Desktop/liteos/Project2/BearPi_LiteOS/components/connectivity/lwm2m/core\management.c ****         else if (lwm2m_strncmp((char *)query->data, ATTR_STEP_STR, ATTR_STEP_LEN) == 0)
 172:C:/Users/lenovo/Desktop/liteos/Project2/BearPi_LiteOS/components/connectivity/lwm2m/core\management.c ****         {
 173:C:/Users/lenovo/Desktop/liteos/Project2/BearPi_LiteOS/components/connectivity/lwm2m/core\management.c ****             if (0 != ((attrP->toSet | attrP->toClear) & LWM2M_ATTR_FLAG_STEP)) return -1;
 174:C:/Users/lenovo/Desktop/liteos/Project2/BearPi_LiteOS/components/connectivity/lwm2m/core\management.c ****             if (query->len == ATTR_STEP_LEN) return -1;
 175:C:/Users/lenovo/Desktop/liteos/Project2/BearPi_LiteOS/components/connectivity/lwm2m/core\management.c **** 
 176:C:/Users/lenovo/Desktop/liteos/Project2/BearPi_LiteOS/components/connectivity/lwm2m/core\management.c ****             if (1 != utils_textToFloat(query->data + ATTR_STEP_LEN, query->len - ATTR_STEP_LEN, &fl
 177:C:/Users/lenovo/Desktop/liteos/Project2/BearPi_LiteOS/components/connectivity/lwm2m/core\management.c ****             if (floatValue < 0) return -1;
 178:C:/Users/lenovo/Desktop/liteos/Project2/BearPi_LiteOS/components/connectivity/lwm2m/core\management.c **** 
 179:C:/Users/lenovo/Desktop/liteos/Project2/BearPi_LiteOS/components/connectivity/lwm2m/core\management.c ****             attrP->toSet |= LWM2M_ATTR_FLAG_STEP;
 180:C:/Users/lenovo/Desktop/liteos/Project2/BearPi_LiteOS/components/connectivity/lwm2m/core\management.c ****             attrP->step = floatValue;
 181:C:/Users/lenovo/Desktop/liteos/Project2/BearPi_LiteOS/components/connectivity/lwm2m/core\management.c ****         }
 182:C:/Users/lenovo/Desktop/liteos/Project2/BearPi_LiteOS/components/connectivity/lwm2m/core\management.c ****         else if (lwm2m_strncmp((char *)query->data, ATTR_STEP_STR, ATTR_STEP_LEN - 1) == 0)
 183:C:/Users/lenovo/Desktop/liteos/Project2/BearPi_LiteOS/components/connectivity/lwm2m/core\management.c ****         {
 184:C:/Users/lenovo/Desktop/liteos/Project2/BearPi_LiteOS/components/connectivity/lwm2m/core\management.c ****             if (0 != ((attrP->toSet | attrP->toClear) & LWM2M_ATTR_FLAG_STEP)) return -1;
 185:C:/Users/lenovo/Desktop/liteos/Project2/BearPi_LiteOS/components/connectivity/lwm2m/core\management.c ****             if (query->len != ATTR_STEP_LEN - 1) return -1;
 186:C:/Users/lenovo/Desktop/liteos/Project2/BearPi_LiteOS/components/connectivity/lwm2m/core\management.c **** 
 187:C:/Users/lenovo/Desktop/liteos/Project2/BearPi_LiteOS/components/connectivity/lwm2m/core\management.c ****             attrP->toClear |= LWM2M_ATTR_FLAG_STEP;
 188:C:/Users/lenovo/Desktop/liteos/Project2/BearPi_LiteOS/components/connectivity/lwm2m/core\management.c ****         }
 189:C:/Users/lenovo/Desktop/liteos/Project2/BearPi_LiteOS/components/connectivity/lwm2m/core\management.c ****         else return -1;
 190:C:/Users/lenovo/Desktop/liteos/Project2/BearPi_LiteOS/components/connectivity/lwm2m/core\management.c **** 
 191:C:/Users/lenovo/Desktop/liteos/Project2/BearPi_LiteOS/components/connectivity/lwm2m/core\management.c ****         query = query->next;
  77              		.loc 1 191 0
  78 003e 2468     		ldr	r4, [r4]
  79              	.LVL5:
  80              	.L2:
  99:C:/Users/lenovo/Desktop/liteos/Project2/BearPi_LiteOS/components/connectivity/lwm2m/core\management.c ****     {
  81              		.loc 1 99 0
  82 0040 002C     		cmp	r4, #0
  83 0042 00F01281 		beq	.L45
 101:C:/Users/lenovo/Desktop/liteos/Project2/BearPi_LiteOS/components/connectivity/lwm2m/core\management.c ****         {
  84              		.loc 1 101 0
  85 0046 0522     		movs	r2, #5
  86 0048 A649     		ldr	r1, .L46
  87 004a A068     		ldr	r0, [r4, #8]
  88 004c FFF7FEFF 		bl	lwm2m_strncmp
  89              	.LVL6:
  90 0050 0028     		cmp	r0, #0
  91 0052 DFD1     		bne	.L3
 103:C:/Users/lenovo/Desktop/liteos/Project2/BearPi_LiteOS/components/connectivity/lwm2m/core\management.c ****             if (query->len == ATTR_MIN_PERIOD_LEN) return -1;
  92              		.loc 1 103 0
ARM GAS  c:\Users\lenovo\AppData\Local\Temp\ccyyQBE5.s 			page 6


  93 0054 2B78     		ldrb	r3, [r5]	@ zero_extendqisi2
  94 0056 6A78     		ldrb	r2, [r5, #1]	@ zero_extendqisi2
  95 0058 1343     		orrs	r3, r3, r2
  96 005a 13F0010F 		tst	r3, #1
  97 005e 40F00781 		bne	.L15
 104:C:/Users/lenovo/Desktop/liteos/Project2/BearPi_LiteOS/components/connectivity/lwm2m/core\management.c **** 
  98              		.loc 1 104 0
  99 0062 6179     		ldrb	r1, [r4, #5]	@ zero_extendqisi2
 100 0064 0529     		cmp	r1, #5
 101 0066 00F00681 		beq	.L16
 106:C:/Users/lenovo/Desktop/liteos/Project2/BearPi_LiteOS/components/connectivity/lwm2m/core\management.c ****             if (intValue < 0) return -1;
 102              		.loc 1 106 0
 103 006a A068     		ldr	r0, [r4, #8]
 104 006c 02AA     		add	r2, sp, #8
 105 006e 0539     		subs	r1, r1, #5
 106 0070 0530     		adds	r0, r0, #5
 107 0072 FFF7FEFF 		bl	utils_textToInt
 108              	.LVL7:
 109 0076 0128     		cmp	r0, #1
 110 0078 40F00081 		bne	.L17
 107:C:/Users/lenovo/Desktop/liteos/Project2/BearPi_LiteOS/components/connectivity/lwm2m/core\management.c **** 
 111              		.loc 1 107 0
 112 007c DDE90223 		ldrd	r2, [sp, #8]
 113 0080 002A     		cmp	r2, #0
 114 0082 73F10003 		sbcs	r3, r3, #0
 115 0086 C0F2FC80 		blt	.L18
 109:C:/Users/lenovo/Desktop/liteos/Project2/BearPi_LiteOS/components/connectivity/lwm2m/core\management.c ****             attrP->minPeriod = intValue;
 116              		.loc 1 109 0
 117 008a 2B78     		ldrb	r3, [r5]	@ zero_extendqisi2
 118 008c 43F00103 		orr	r3, r3, #1
 119 0090 2B70     		strb	r3, [r5]
 110:C:/Users/lenovo/Desktop/liteos/Project2/BearPi_LiteOS/components/connectivity/lwm2m/core\management.c ****         }
 120              		.loc 1 110 0
 121 0092 029B     		ldr	r3, [sp, #8]
 122 0094 6B60     		str	r3, [r5, #4]
 123 0096 D2E7     		b	.L5
 124              	.L6:
 119:C:/Users/lenovo/Desktop/liteos/Project2/BearPi_LiteOS/components/connectivity/lwm2m/core\management.c ****         {
 125              		.loc 1 119 0
 126 0098 0522     		movs	r2, #5
 127 009a 9349     		ldr	r1, .L46+4
 128 009c A068     		ldr	r0, [r4, #8]
 129 009e FFF7FEFF 		bl	lwm2m_strncmp
 130              	.LVL8:
 131 00a2 08BB     		cbnz	r0, .L7
 121:C:/Users/lenovo/Desktop/liteos/Project2/BearPi_LiteOS/components/connectivity/lwm2m/core\management.c ****             if (query->len == ATTR_MAX_PERIOD_LEN) return -1;
 132              		.loc 1 121 0
 133 00a4 2B78     		ldrb	r3, [r5]	@ zero_extendqisi2
 134 00a6 6A78     		ldrb	r2, [r5, #1]	@ zero_extendqisi2
 135 00a8 1343     		orrs	r3, r3, r2
 136 00aa 13F0020F 		tst	r3, #2
 137 00ae 40F0F180 		bne	.L21
 122:C:/Users/lenovo/Desktop/liteos/Project2/BearPi_LiteOS/components/connectivity/lwm2m/core\management.c **** 
 138              		.loc 1 122 0
 139 00b2 6179     		ldrb	r1, [r4, #5]	@ zero_extendqisi2
 140 00b4 0529     		cmp	r1, #5
 141 00b6 00F0F080 		beq	.L22
ARM GAS  c:\Users\lenovo\AppData\Local\Temp\ccyyQBE5.s 			page 7


 124:C:/Users/lenovo/Desktop/liteos/Project2/BearPi_LiteOS/components/connectivity/lwm2m/core\management.c ****             if (intValue < 0) return -1;
 142              		.loc 1 124 0
 143 00ba A068     		ldr	r0, [r4, #8]
 144 00bc 02AA     		add	r2, sp, #8
 145 00be 0539     		subs	r1, r1, #5
 146 00c0 0530     		adds	r0, r0, #5
 147 00c2 FFF7FEFF 		bl	utils_textToInt
 148              	.LVL9:
 149 00c6 0128     		cmp	r0, #1
 150 00c8 40F0EA80 		bne	.L23
 125:C:/Users/lenovo/Desktop/liteos/Project2/BearPi_LiteOS/components/connectivity/lwm2m/core\management.c **** 
 151              		.loc 1 125 0
 152 00cc DDE90223 		ldrd	r2, [sp, #8]
 153 00d0 002A     		cmp	r2, #0
 154 00d2 73F10003 		sbcs	r3, r3, #0
 155 00d6 C0F2E680 		blt	.L24
 127:C:/Users/lenovo/Desktop/liteos/Project2/BearPi_LiteOS/components/connectivity/lwm2m/core\management.c ****             attrP->maxPeriod = intValue;
 156              		.loc 1 127 0
 157 00da 2B78     		ldrb	r3, [r5]	@ zero_extendqisi2
 158 00dc 43F00203 		orr	r3, r3, #2
 159 00e0 2B70     		strb	r3, [r5]
 128:C:/Users/lenovo/Desktop/liteos/Project2/BearPi_LiteOS/components/connectivity/lwm2m/core\management.c ****         }
 160              		.loc 1 128 0
 161 00e2 029B     		ldr	r3, [sp, #8]
 162 00e4 AB60     		str	r3, [r5, #8]
 163 00e6 AAE7     		b	.L5
 164              	.L7:
 130:C:/Users/lenovo/Desktop/liteos/Project2/BearPi_LiteOS/components/connectivity/lwm2m/core\management.c ****         {
 165              		.loc 1 130 0
 166 00e8 0422     		movs	r2, #4
 167 00ea 7F49     		ldr	r1, .L46+4
 168 00ec A068     		ldr	r0, [r4, #8]
 169 00ee FFF7FEFF 		bl	lwm2m_strncmp
 170              	.LVL10:
 171 00f2 70B9     		cbnz	r0, .L8
 132:C:/Users/lenovo/Desktop/liteos/Project2/BearPi_LiteOS/components/connectivity/lwm2m/core\management.c ****             if (query->len != ATTR_MAX_PERIOD_LEN - 1) return -1;
 172              		.loc 1 132 0
 173 00f4 2A78     		ldrb	r2, [r5]	@ zero_extendqisi2
 174 00f6 6B78     		ldrb	r3, [r5, #1]	@ zero_extendqisi2
 175 00f8 1A43     		orrs	r2, r2, r3
 176 00fa 12F0020F 		tst	r2, #2
 177 00fe 40F0D580 		bne	.L25
 133:C:/Users/lenovo/Desktop/liteos/Project2/BearPi_LiteOS/components/connectivity/lwm2m/core\management.c **** 
 178              		.loc 1 133 0
 179 0102 6279     		ldrb	r2, [r4, #5]	@ zero_extendqisi2
 180 0104 042A     		cmp	r2, #4
 181 0106 40F0D480 		bne	.L26
 135:C:/Users/lenovo/Desktop/liteos/Project2/BearPi_LiteOS/components/connectivity/lwm2m/core\management.c ****         }
 182              		.loc 1 135 0
 183 010a 43F00203 		orr	r3, r3, #2
 184 010e 6B70     		strb	r3, [r5, #1]
 185 0110 95E7     		b	.L5
 186              	.L8:
 137:C:/Users/lenovo/Desktop/liteos/Project2/BearPi_LiteOS/components/connectivity/lwm2m/core\management.c ****         {
 187              		.loc 1 137 0
 188 0112 0322     		movs	r2, #3
 189 0114 7549     		ldr	r1, .L46+8
ARM GAS  c:\Users\lenovo\AppData\Local\Temp\ccyyQBE5.s 			page 8


 190 0116 A068     		ldr	r0, [r4, #8]
 191 0118 FFF7FEFF 		bl	lwm2m_strncmp
 192              	.LVL11:
 193 011c E0B9     		cbnz	r0, .L9
 139:C:/Users/lenovo/Desktop/liteos/Project2/BearPi_LiteOS/components/connectivity/lwm2m/core\management.c ****             if (query->len == ATTR_GREATER_THAN_LEN) return -1;
 194              		.loc 1 139 0
 195 011e 2B78     		ldrb	r3, [r5]	@ zero_extendqisi2
 196 0120 6A78     		ldrb	r2, [r5, #1]	@ zero_extendqisi2
 197 0122 1343     		orrs	r3, r3, r2
 198 0124 13F0040F 		tst	r3, #4
 199 0128 40F0C680 		bne	.L27
 140:C:/Users/lenovo/Desktop/liteos/Project2/BearPi_LiteOS/components/connectivity/lwm2m/core\management.c **** 
 200              		.loc 1 140 0
 201 012c 6179     		ldrb	r1, [r4, #5]	@ zero_extendqisi2
 202 012e 0329     		cmp	r1, #3
 203 0130 00F0C580 		beq	.L28
 142:C:/Users/lenovo/Desktop/liteos/Project2/BearPi_LiteOS/components/connectivity/lwm2m/core\management.c **** 
 204              		.loc 1 142 0
 205 0134 A068     		ldr	r0, [r4, #8]
 206 0136 6A46     		mov	r2, sp
 207 0138 0339     		subs	r1, r1, #3
 208 013a 0330     		adds	r0, r0, #3
 209 013c FFF7FEFF 		bl	utils_textToFloat
 210              	.LVL12:
 211 0140 0128     		cmp	r0, #1
 212 0142 40F0BF80 		bne	.L29
 144:C:/Users/lenovo/Desktop/liteos/Project2/BearPi_LiteOS/components/connectivity/lwm2m/core\management.c ****             attrP->greaterThan = floatValue;
 213              		.loc 1 144 0
 214 0146 2B78     		ldrb	r3, [r5]	@ zero_extendqisi2
 215 0148 43F00403 		orr	r3, r3, #4
 216 014c 2B70     		strb	r3, [r5]
 145:C:/Users/lenovo/Desktop/liteos/Project2/BearPi_LiteOS/components/connectivity/lwm2m/core\management.c ****         }
 217              		.loc 1 145 0
 218 014e DDE90023 		ldrd	r2, [sp]
 219 0152 C5E90423 		strd	r2, [r5, #16]
 220 0156 72E7     		b	.L5
 221              	.L9:
 147:C:/Users/lenovo/Desktop/liteos/Project2/BearPi_LiteOS/components/connectivity/lwm2m/core\management.c ****         {
 222              		.loc 1 147 0
 223 0158 0222     		movs	r2, #2
 224 015a 6449     		ldr	r1, .L46+8
 225 015c A068     		ldr	r0, [r4, #8]
 226 015e FFF7FEFF 		bl	lwm2m_strncmp
 227              	.LVL13:
 228 0162 70B9     		cbnz	r0, .L10
 149:C:/Users/lenovo/Desktop/liteos/Project2/BearPi_LiteOS/components/connectivity/lwm2m/core\management.c ****             if (query->len != ATTR_GREATER_THAN_LEN - 1) return -1;
 229              		.loc 1 149 0
 230 0164 2A78     		ldrb	r2, [r5]	@ zero_extendqisi2
 231 0166 6B78     		ldrb	r3, [r5, #1]	@ zero_extendqisi2
 232 0168 1A43     		orrs	r2, r2, r3
 233 016a 12F0040F 		tst	r2, #4
 234 016e 40F0AC80 		bne	.L30
 150:C:/Users/lenovo/Desktop/liteos/Project2/BearPi_LiteOS/components/connectivity/lwm2m/core\management.c **** 
 235              		.loc 1 150 0
 236 0172 6279     		ldrb	r2, [r4, #5]	@ zero_extendqisi2
 237 0174 022A     		cmp	r2, #2
 238 0176 40F0AB80 		bne	.L31
ARM GAS  c:\Users\lenovo\AppData\Local\Temp\ccyyQBE5.s 			page 9


 152:C:/Users/lenovo/Desktop/liteos/Project2/BearPi_LiteOS/components/connectivity/lwm2m/core\management.c ****         }
 239              		.loc 1 152 0
 240 017a 43F00403 		orr	r3, r3, #4
 241 017e 6B70     		strb	r3, [r5, #1]
 242 0180 5DE7     		b	.L5
 243              	.L10:
 154:C:/Users/lenovo/Desktop/liteos/Project2/BearPi_LiteOS/components/connectivity/lwm2m/core\management.c ****         {
 244              		.loc 1 154 0
 245 0182 0322     		movs	r2, #3
 246 0184 5A49     		ldr	r1, .L46+12
 247 0186 A068     		ldr	r0, [r4, #8]
 248 0188 FFF7FEFF 		bl	lwm2m_strncmp
 249              	.LVL14:
 250 018c E0B9     		cbnz	r0, .L11
 156:C:/Users/lenovo/Desktop/liteos/Project2/BearPi_LiteOS/components/connectivity/lwm2m/core\management.c ****             if (query->len == ATTR_LESS_THAN_LEN) return -1;
 251              		.loc 1 156 0
 252 018e 2B78     		ldrb	r3, [r5]	@ zero_extendqisi2
 253 0190 6A78     		ldrb	r2, [r5, #1]	@ zero_extendqisi2
 254 0192 1343     		orrs	r3, r3, r2
 255 0194 13F0080F 		tst	r3, #8
 256 0198 40F09D80 		bne	.L32
 157:C:/Users/lenovo/Desktop/liteos/Project2/BearPi_LiteOS/components/connectivity/lwm2m/core\management.c **** 
 257              		.loc 1 157 0
 258 019c 6179     		ldrb	r1, [r4, #5]	@ zero_extendqisi2
 259 019e 0329     		cmp	r1, #3
 260 01a0 00F09C80 		beq	.L33
 159:C:/Users/lenovo/Desktop/liteos/Project2/BearPi_LiteOS/components/connectivity/lwm2m/core\management.c **** 
 261              		.loc 1 159 0
 262 01a4 A068     		ldr	r0, [r4, #8]
 263 01a6 6A46     		mov	r2, sp
 264 01a8 0339     		subs	r1, r1, #3
 265 01aa 0330     		adds	r0, r0, #3
 266 01ac FFF7FEFF 		bl	utils_textToFloat
 267              	.LVL15:
 268 01b0 0128     		cmp	r0, #1
 269 01b2 40F0A180 		bne	.L34
 161:C:/Users/lenovo/Desktop/liteos/Project2/BearPi_LiteOS/components/connectivity/lwm2m/core\management.c ****             attrP->lessThan = floatValue;
 270              		.loc 1 161 0
 271 01b6 2B78     		ldrb	r3, [r5]	@ zero_extendqisi2
 272 01b8 43F00803 		orr	r3, r3, #8
 273 01bc 2B70     		strb	r3, [r5]
 162:C:/Users/lenovo/Desktop/liteos/Project2/BearPi_LiteOS/components/connectivity/lwm2m/core\management.c ****         }
 274              		.loc 1 162 0
 275 01be DDE90023 		ldrd	r2, [sp]
 276 01c2 C5E90623 		strd	r2, [r5, #24]
 277 01c6 3AE7     		b	.L5
 278              	.L11:
 164:C:/Users/lenovo/Desktop/liteos/Project2/BearPi_LiteOS/components/connectivity/lwm2m/core\management.c ****         {
 279              		.loc 1 164 0
 280 01c8 0222     		movs	r2, #2
 281 01ca 4949     		ldr	r1, .L46+12
 282 01cc A068     		ldr	r0, [r4, #8]
 283 01ce FFF7FEFF 		bl	lwm2m_strncmp
 284              	.LVL16:
 285 01d2 70B9     		cbnz	r0, .L12
 166:C:/Users/lenovo/Desktop/liteos/Project2/BearPi_LiteOS/components/connectivity/lwm2m/core\management.c ****             if (query->len != ATTR_LESS_THAN_LEN - 1) return -1;
 286              		.loc 1 166 0
ARM GAS  c:\Users\lenovo\AppData\Local\Temp\ccyyQBE5.s 			page 10


 287 01d4 2A78     		ldrb	r2, [r5]	@ zero_extendqisi2
 288 01d6 6B78     		ldrb	r3, [r5, #1]	@ zero_extendqisi2
 289 01d8 1A43     		orrs	r2, r2, r3
 290 01da 12F0080F 		tst	r2, #8
 291 01de 40F08E80 		bne	.L35
 167:C:/Users/lenovo/Desktop/liteos/Project2/BearPi_LiteOS/components/connectivity/lwm2m/core\management.c **** 
 292              		.loc 1 167 0
 293 01e2 6279     		ldrb	r2, [r4, #5]	@ zero_extendqisi2
 294 01e4 022A     		cmp	r2, #2
 295 01e6 40F08D80 		bne	.L36
 169:C:/Users/lenovo/Desktop/liteos/Project2/BearPi_LiteOS/components/connectivity/lwm2m/core\management.c ****         }
 296              		.loc 1 169 0
 297 01ea 43F00803 		orr	r3, r3, #8
 298 01ee 6B70     		strb	r3, [r5, #1]
 299 01f0 25E7     		b	.L5
 300              	.L12:
 171:C:/Users/lenovo/Desktop/liteos/Project2/BearPi_LiteOS/components/connectivity/lwm2m/core\management.c ****         {
 301              		.loc 1 171 0
 302 01f2 0322     		movs	r2, #3
 303 01f4 3F49     		ldr	r1, .L46+16
 304 01f6 A068     		ldr	r0, [r4, #8]
 305 01f8 FFF7FEFF 		bl	lwm2m_strncmp
 306              	.LVL17:
 307 01fc 08BB     		cbnz	r0, .L13
 173:C:/Users/lenovo/Desktop/liteos/Project2/BearPi_LiteOS/components/connectivity/lwm2m/core\management.c ****             if (query->len == ATTR_STEP_LEN) return -1;
 308              		.loc 1 173 0
 309 01fe 2B78     		ldrb	r3, [r5]	@ zero_extendqisi2
 310 0200 6A78     		ldrb	r2, [r5, #1]	@ zero_extendqisi2
 311 0202 1343     		orrs	r3, r3, r2
 312 0204 13F0100F 		tst	r3, #16
 313 0208 7FD1     		bne	.L37
 174:C:/Users/lenovo/Desktop/liteos/Project2/BearPi_LiteOS/components/connectivity/lwm2m/core\management.c **** 
 314              		.loc 1 174 0
 315 020a 6179     		ldrb	r1, [r4, #5]	@ zero_extendqisi2
 316 020c 0329     		cmp	r1, #3
 317 020e 7FD0     		beq	.L38
 176:C:/Users/lenovo/Desktop/liteos/Project2/BearPi_LiteOS/components/connectivity/lwm2m/core\management.c ****             if (floatValue < 0) return -1;
 318              		.loc 1 176 0
 319 0210 A068     		ldr	r0, [r4, #8]
 320 0212 6A46     		mov	r2, sp
 321 0214 0339     		subs	r1, r1, #3
 322 0216 0330     		adds	r0, r0, #3
 323 0218 FFF7FEFF 		bl	utils_textToFloat
 324              	.LVL18:
 325 021c 0128     		cmp	r0, #1
 326 021e 7AD1     		bne	.L39
 177:C:/Users/lenovo/Desktop/liteos/Project2/BearPi_LiteOS/components/connectivity/lwm2m/core\management.c **** 
 327              		.loc 1 177 0
 328 0220 0022     		movs	r2, #0
 329 0222 0023     		movs	r3, #0
 330 0224 DDE90001 		ldrd	r0, [sp]
 331 0228 FFF7FEFF 		bl	__aeabi_dcmplt
 332              	.LVL19:
 333 022c 0028     		cmp	r0, #0
 334 022e 75D1     		bne	.L40
 179:C:/Users/lenovo/Desktop/liteos/Project2/BearPi_LiteOS/components/connectivity/lwm2m/core\management.c ****             attrP->step = floatValue;
 335              		.loc 1 179 0
ARM GAS  c:\Users\lenovo\AppData\Local\Temp\ccyyQBE5.s 			page 11


 336 0230 2B78     		ldrb	r3, [r5]	@ zero_extendqisi2
 337 0232 43F01003 		orr	r3, r3, #16
 338 0236 2B70     		strb	r3, [r5]
 180:C:/Users/lenovo/Desktop/liteos/Project2/BearPi_LiteOS/components/connectivity/lwm2m/core\management.c ****         }
 339              		.loc 1 180 0
 340 0238 DDE90023 		ldrd	r2, [sp]
 341 023c C5E90823 		strd	r2, [r5, #32]
 342 0240 FDE6     		b	.L5
 343              	.L13:
 182:C:/Users/lenovo/Desktop/liteos/Project2/BearPi_LiteOS/components/connectivity/lwm2m/core\management.c ****         {
 344              		.loc 1 182 0
 345 0242 0222     		movs	r2, #2
 346 0244 2B49     		ldr	r1, .L46+16
 347 0246 A068     		ldr	r0, [r4, #8]
 348 0248 FFF7FEFF 		bl	lwm2m_strncmp
 349              	.LVL20:
 350 024c 0028     		cmp	r0, #0
 351 024e 68D1     		bne	.L41
 184:C:/Users/lenovo/Desktop/liteos/Project2/BearPi_LiteOS/components/connectivity/lwm2m/core\management.c ****             if (query->len != ATTR_STEP_LEN - 1) return -1;
 352              		.loc 1 184 0
 353 0250 2A78     		ldrb	r2, [r5]	@ zero_extendqisi2
 354 0252 6B78     		ldrb	r3, [r5, #1]	@ zero_extendqisi2
 355 0254 1A43     		orrs	r2, r2, r3
 356 0256 12F0100F 		tst	r2, #16
 357 025a 65D1     		bne	.L42
 185:C:/Users/lenovo/Desktop/liteos/Project2/BearPi_LiteOS/components/connectivity/lwm2m/core\management.c **** 
 358              		.loc 1 185 0
 359 025c 6279     		ldrb	r2, [r4, #5]	@ zero_extendqisi2
 360 025e 022A     		cmp	r2, #2
 361 0260 65D1     		bne	.L43
 187:C:/Users/lenovo/Desktop/liteos/Project2/BearPi_LiteOS/components/connectivity/lwm2m/core\management.c ****         }
 362              		.loc 1 187 0
 363 0262 43F01003 		orr	r3, r3, #16
 364 0266 6B70     		strb	r3, [r5, #1]
 365 0268 E9E6     		b	.L5
 366              	.L45:
 192:C:/Users/lenovo/Desktop/liteos/Project2/BearPi_LiteOS/components/connectivity/lwm2m/core\management.c ****     }
 193:C:/Users/lenovo/Desktop/liteos/Project2/BearPi_LiteOS/components/connectivity/lwm2m/core\management.c **** 
 194:C:/Users/lenovo/Desktop/liteos/Project2/BearPi_LiteOS/components/connectivity/lwm2m/core\management.c ****     return 0;
 367              		.loc 1 194 0
 368 026a 0020     		movs	r0, #0
 369              	.L1:
 195:C:/Users/lenovo/Desktop/liteos/Project2/BearPi_LiteOS/components/connectivity/lwm2m/core\management.c **** }
 370              		.loc 1 195 0
 371 026c 05B0     		add	sp, sp, #20
 372              	.LCFI2:
 373              		.cfi_remember_state
 374              		.cfi_def_cfa_offset 12
 375              		@ sp needed
 376 026e 30BD     		pop	{r4, r5, pc}
 377              	.LVL21:
 378              	.L15:
 379              	.LCFI3:
 380              		.cfi_restore_state
 103:C:/Users/lenovo/Desktop/liteos/Project2/BearPi_LiteOS/components/connectivity/lwm2m/core\management.c ****             if (query->len == ATTR_MIN_PERIOD_LEN) return -1;
 381              		.loc 1 103 0
 382 0270 4FF0FF30 		mov	r0, #-1
ARM GAS  c:\Users\lenovo\AppData\Local\Temp\ccyyQBE5.s 			page 12


 383 0274 FAE7     		b	.L1
 384              	.L16:
 104:C:/Users/lenovo/Desktop/liteos/Project2/BearPi_LiteOS/components/connectivity/lwm2m/core\management.c **** 
 385              		.loc 1 104 0
 386 0276 4FF0FF30 		mov	r0, #-1
 387 027a F7E7     		b	.L1
 388              	.L17:
 106:C:/Users/lenovo/Desktop/liteos/Project2/BearPi_LiteOS/components/connectivity/lwm2m/core\management.c ****             if (intValue < 0) return -1;
 389              		.loc 1 106 0
 390 027c 4FF0FF30 		mov	r0, #-1
 391 0280 F4E7     		b	.L1
 392              	.L18:
 107:C:/Users/lenovo/Desktop/liteos/Project2/BearPi_LiteOS/components/connectivity/lwm2m/core\management.c **** 
 393              		.loc 1 107 0
 394 0282 4FF0FF30 		mov	r0, #-1
 395 0286 F1E7     		b	.L1
 396              	.L19:
 114:C:/Users/lenovo/Desktop/liteos/Project2/BearPi_LiteOS/components/connectivity/lwm2m/core\management.c ****             if (query->len != ATTR_MIN_PERIOD_LEN - 1) return -1;
 397              		.loc 1 114 0
 398 0288 4FF0FF30 		mov	r0, #-1
 399 028c EEE7     		b	.L1
 400              	.L20:
 115:C:/Users/lenovo/Desktop/liteos/Project2/BearPi_LiteOS/components/connectivity/lwm2m/core\management.c **** 
 401              		.loc 1 115 0
 402 028e 4FF0FF30 		mov	r0, #-1
 403 0292 EBE7     		b	.L1
 404              	.L21:
 121:C:/Users/lenovo/Desktop/liteos/Project2/BearPi_LiteOS/components/connectivity/lwm2m/core\management.c ****             if (query->len == ATTR_MAX_PERIOD_LEN) return -1;
 405              		.loc 1 121 0
 406 0294 4FF0FF30 		mov	r0, #-1
 407 0298 E8E7     		b	.L1
 408              	.L22:
 122:C:/Users/lenovo/Desktop/liteos/Project2/BearPi_LiteOS/components/connectivity/lwm2m/core\management.c **** 
 409              		.loc 1 122 0
 410 029a 4FF0FF30 		mov	r0, #-1
 411 029e E5E7     		b	.L1
 412              	.L23:
 124:C:/Users/lenovo/Desktop/liteos/Project2/BearPi_LiteOS/components/connectivity/lwm2m/core\management.c ****             if (intValue < 0) return -1;
 413              		.loc 1 124 0
 414 02a0 4FF0FF30 		mov	r0, #-1
 415 02a4 E2E7     		b	.L1
 416              	.L24:
 125:C:/Users/lenovo/Desktop/liteos/Project2/BearPi_LiteOS/components/connectivity/lwm2m/core\management.c **** 
 417              		.loc 1 125 0
 418 02a6 4FF0FF30 		mov	r0, #-1
 419 02aa DFE7     		b	.L1
 420              	.L25:
 132:C:/Users/lenovo/Desktop/liteos/Project2/BearPi_LiteOS/components/connectivity/lwm2m/core\management.c ****             if (query->len != ATTR_MAX_PERIOD_LEN - 1) return -1;
 421              		.loc 1 132 0
 422 02ac 4FF0FF30 		mov	r0, #-1
 423 02b0 DCE7     		b	.L1
 424              	.L26:
 133:C:/Users/lenovo/Desktop/liteos/Project2/BearPi_LiteOS/components/connectivity/lwm2m/core\management.c **** 
 425              		.loc 1 133 0
 426 02b2 4FF0FF30 		mov	r0, #-1
 427 02b6 D9E7     		b	.L1
 428              	.L27:
ARM GAS  c:\Users\lenovo\AppData\Local\Temp\ccyyQBE5.s 			page 13


 139:C:/Users/lenovo/Desktop/liteos/Project2/BearPi_LiteOS/components/connectivity/lwm2m/core\management.c ****             if (query->len == ATTR_GREATER_THAN_LEN) return -1;
 429              		.loc 1 139 0
 430 02b8 4FF0FF30 		mov	r0, #-1
 431 02bc D6E7     		b	.L1
 432              	.L28:
 140:C:/Users/lenovo/Desktop/liteos/Project2/BearPi_LiteOS/components/connectivity/lwm2m/core\management.c **** 
 433              		.loc 1 140 0
 434 02be 4FF0FF30 		mov	r0, #-1
 435 02c2 D3E7     		b	.L1
 436              	.L29:
 142:C:/Users/lenovo/Desktop/liteos/Project2/BearPi_LiteOS/components/connectivity/lwm2m/core\management.c **** 
 437              		.loc 1 142 0
 438 02c4 4FF0FF30 		mov	r0, #-1
 439 02c8 D0E7     		b	.L1
 440              	.L30:
 149:C:/Users/lenovo/Desktop/liteos/Project2/BearPi_LiteOS/components/connectivity/lwm2m/core\management.c ****             if (query->len != ATTR_GREATER_THAN_LEN - 1) return -1;
 441              		.loc 1 149 0
 442 02ca 4FF0FF30 		mov	r0, #-1
 443 02ce CDE7     		b	.L1
 444              	.L31:
 150:C:/Users/lenovo/Desktop/liteos/Project2/BearPi_LiteOS/components/connectivity/lwm2m/core\management.c **** 
 445              		.loc 1 150 0
 446 02d0 4FF0FF30 		mov	r0, #-1
 447 02d4 CAE7     		b	.L1
 448              	.L32:
 156:C:/Users/lenovo/Desktop/liteos/Project2/BearPi_LiteOS/components/connectivity/lwm2m/core\management.c ****             if (query->len == ATTR_LESS_THAN_LEN) return -1;
 449              		.loc 1 156 0
 450 02d6 4FF0FF30 		mov	r0, #-1
 451 02da C7E7     		b	.L1
 452              	.L33:
 157:C:/Users/lenovo/Desktop/liteos/Project2/BearPi_LiteOS/components/connectivity/lwm2m/core\management.c **** 
 453              		.loc 1 157 0
 454 02dc 4FF0FF30 		mov	r0, #-1
 455 02e0 C4E7     		b	.L1
 456              	.L47:
 457 02e2 00BF     		.align	2
 458              	.L46:
 459 02e4 00000000 		.word	.LC0
 460 02e8 08000000 		.word	.LC1
 461 02ec 10000000 		.word	.LC2
 462 02f0 14000000 		.word	.LC3
 463 02f4 18000000 		.word	.LC4
 464              	.L34:
 159:C:/Users/lenovo/Desktop/liteos/Project2/BearPi_LiteOS/components/connectivity/lwm2m/core\management.c **** 
 465              		.loc 1 159 0
 466 02f8 4FF0FF30 		mov	r0, #-1
 467 02fc B6E7     		b	.L1
 468              	.L35:
 166:C:/Users/lenovo/Desktop/liteos/Project2/BearPi_LiteOS/components/connectivity/lwm2m/core\management.c ****             if (query->len != ATTR_LESS_THAN_LEN - 1) return -1;
 469              		.loc 1 166 0
 470 02fe 4FF0FF30 		mov	r0, #-1
 471 0302 B3E7     		b	.L1
 472              	.L36:
 167:C:/Users/lenovo/Desktop/liteos/Project2/BearPi_LiteOS/components/connectivity/lwm2m/core\management.c **** 
 473              		.loc 1 167 0
 474 0304 4FF0FF30 		mov	r0, #-1
 475 0308 B0E7     		b	.L1
ARM GAS  c:\Users\lenovo\AppData\Local\Temp\ccyyQBE5.s 			page 14


 476              	.L37:
 173:C:/Users/lenovo/Desktop/liteos/Project2/BearPi_LiteOS/components/connectivity/lwm2m/core\management.c ****             if (query->len == ATTR_STEP_LEN) return -1;
 477              		.loc 1 173 0
 478 030a 4FF0FF30 		mov	r0, #-1
 479 030e ADE7     		b	.L1
 480              	.L38:
 174:C:/Users/lenovo/Desktop/liteos/Project2/BearPi_LiteOS/components/connectivity/lwm2m/core\management.c **** 
 481              		.loc 1 174 0
 482 0310 4FF0FF30 		mov	r0, #-1
 483 0314 AAE7     		b	.L1
 484              	.L39:
 176:C:/Users/lenovo/Desktop/liteos/Project2/BearPi_LiteOS/components/connectivity/lwm2m/core\management.c ****             if (floatValue < 0) return -1;
 485              		.loc 1 176 0
 486 0316 4FF0FF30 		mov	r0, #-1
 487 031a A7E7     		b	.L1
 488              	.L40:
 177:C:/Users/lenovo/Desktop/liteos/Project2/BearPi_LiteOS/components/connectivity/lwm2m/core\management.c **** 
 489              		.loc 1 177 0
 490 031c 4FF0FF30 		mov	r0, #-1
 491 0320 A4E7     		b	.L1
 492              	.L41:
 189:C:/Users/lenovo/Desktop/liteos/Project2/BearPi_LiteOS/components/connectivity/lwm2m/core\management.c **** 
 493              		.loc 1 189 0
 494 0322 4FF0FF30 		mov	r0, #-1
 495 0326 A1E7     		b	.L1
 496              	.L42:
 184:C:/Users/lenovo/Desktop/liteos/Project2/BearPi_LiteOS/components/connectivity/lwm2m/core\management.c ****             if (query->len != ATTR_STEP_LEN - 1) return -1;
 497              		.loc 1 184 0
 498 0328 4FF0FF30 		mov	r0, #-1
 499 032c 9EE7     		b	.L1
 500              	.L43:
 185:C:/Users/lenovo/Desktop/liteos/Project2/BearPi_LiteOS/components/connectivity/lwm2m/core\management.c **** 
 501              		.loc 1 185 0
 502 032e 4FF0FF30 		mov	r0, #-1
 503 0332 9BE7     		b	.L1
 504              		.cfi_endproc
 505              	.LFE142:
 507              		.section	.text.dm_handleRequest,"ax",%progbits
 508              		.align	1
 509              		.global	dm_handleRequest
 510              		.syntax unified
 511              		.thumb
 512              		.thumb_func
 513              		.fpu fpv4-sp-d16
 515              	dm_handleRequest:
 516              	.LFB143:
 196:C:/Users/lenovo/Desktop/liteos/Project2/BearPi_LiteOS/components/connectivity/lwm2m/core\management.c **** 
 197:C:/Users/lenovo/Desktop/liteos/Project2/BearPi_LiteOS/components/connectivity/lwm2m/core\management.c **** uint8_t dm_handleRequest(lwm2m_context_t *contextP,
 198:C:/Users/lenovo/Desktop/liteos/Project2/BearPi_LiteOS/components/connectivity/lwm2m/core\management.c ****                          lwm2m_uri_t *uriP,
 199:C:/Users/lenovo/Desktop/liteos/Project2/BearPi_LiteOS/components/connectivity/lwm2m/core\management.c ****                          lwm2m_server_t *serverP,
 200:C:/Users/lenovo/Desktop/liteos/Project2/BearPi_LiteOS/components/connectivity/lwm2m/core\management.c ****                          coap_packet_t *message,
 201:C:/Users/lenovo/Desktop/liteos/Project2/BearPi_LiteOS/components/connectivity/lwm2m/core\management.c ****                          coap_packet_t *response)
 202:C:/Users/lenovo/Desktop/liteos/Project2/BearPi_LiteOS/components/connectivity/lwm2m/core\management.c **** {
 517              		.loc 1 202 0
 518              		.cfi_startproc
 519              		@ args = 4, pretend = 0, frame = 64
 520              		@ frame_needed = 0, uses_anonymous_args = 0
ARM GAS  c:\Users\lenovo\AppData\Local\Temp\ccyyQBE5.s 			page 15


 521              	.LVL22:
 522 0000 2DE9F041 		push	{r4, r5, r6, r7, r8, lr}
 523              	.LCFI4:
 524              		.cfi_def_cfa_offset 24
 525              		.cfi_offset 4, -24
 526              		.cfi_offset 5, -20
 527              		.cfi_offset 6, -16
 528              		.cfi_offset 7, -12
 529              		.cfi_offset 8, -8
 530              		.cfi_offset 14, -4
 531 0004 96B0     		sub	sp, sp, #88
 532              	.LCFI5:
 533              		.cfi_def_cfa_offset 112
 534 0006 0746     		mov	r7, r0
 535 0008 0C46     		mov	r4, r1
 536 000a 1646     		mov	r6, r2
 537 000c 1D46     		mov	r5, r3
 203:C:/Users/lenovo/Desktop/liteos/Project2/BearPi_LiteOS/components/connectivity/lwm2m/core\management.c ****     uint8_t result;
 204:C:/Users/lenovo/Desktop/liteos/Project2/BearPi_LiteOS/components/connectivity/lwm2m/core\management.c ****     lwm2m_media_type_t format;
 205:C:/Users/lenovo/Desktop/liteos/Project2/BearPi_LiteOS/components/connectivity/lwm2m/core\management.c **** 
 206:C:/Users/lenovo/Desktop/liteos/Project2/BearPi_LiteOS/components/connectivity/lwm2m/core\management.c ****     LOG_ARG("Code: %02X, server status: %s", message->code, STR_STATUS(serverP->status));
 538              		.loc 1 206 0
 539 000e FFF7FEFF 		bl	lwm2m_gettime
 540              	.LVL23:
 541 0012 0146     		mov	r1, r0
 542 0014 AA79     		ldrb	r2, [r5, #6]	@ zero_extendqisi2
 543 0016 96F82030 		ldrb	r3, [r6, #32]	@ zero_extendqisi2
 544 001a FBB1     		cbz	r3, .L83
 545              		.loc 1 206 0 is_stmt 0 discriminator 1
 546 001c 012B     		cmp	r3, #1
 547 001e 54D0     		beq	.L84
 548              		.loc 1 206 0 discriminator 3
 549 0020 022B     		cmp	r3, #2
 550 0022 54D0     		beq	.L85
 551              		.loc 1 206 0 discriminator 5
 552 0024 032B     		cmp	r3, #3
 553 0026 54D0     		beq	.L86
 554              		.loc 1 206 0 discriminator 7
 555 0028 042B     		cmp	r3, #4
 556 002a 54D0     		beq	.L87
 557              		.loc 1 206 0 discriminator 9
 558 002c 052B     		cmp	r3, #5
 559 002e 54D0     		beq	.L88
 560              		.loc 1 206 0 discriminator 11
 561 0030 062B     		cmp	r3, #6
 562 0032 54D0     		beq	.L89
 563              		.loc 1 206 0 discriminator 13
 564 0034 072B     		cmp	r3, #7
 565 0036 54D0     		beq	.L90
 566              		.loc 1 206 0 discriminator 15
 567 0038 082B     		cmp	r3, #8
 568 003a 54D0     		beq	.L91
 569              		.loc 1 206 0 discriminator 17
 570 003c 092B     		cmp	r3, #9
 571 003e 54D0     		beq	.L92
 572              		.loc 1 206 0 discriminator 19
 573 0040 0A2B     		cmp	r3, #10
ARM GAS  c:\Users\lenovo\AppData\Local\Temp\ccyyQBE5.s 			page 16


 574 0042 54D0     		beq	.L93
 575              		.loc 1 206 0 discriminator 21
 576 0044 0C2B     		cmp	r3, #12
 577 0046 54D0     		beq	.L94
 578              		.loc 1 206 0 discriminator 23
 579 0048 0B2B     		cmp	r3, #11
 580 004a 54D0     		beq	.L95
 581              		.loc 1 206 0 discriminator 25
 582 004c 0D2B     		cmp	r3, #13
 583 004e 54D0     		beq	.L96
 584              		.loc 1 206 0 discriminator 27
 585 0050 0E2B     		cmp	r3, #14
 586 0052 01D0     		beq	.L107
 587              		.loc 1 206 0
 588 0054 9E4B     		ldr	r3, .L123
 589 0056 02E0     		b	.L49
 590              	.L107:
 591 0058 9E4B     		ldr	r3, .L123+4
 592 005a 00E0     		b	.L49
 593              	.L83:
 594 005c 9E4B     		ldr	r3, .L123+8
 595              	.L49:
 596              		.loc 1 206 0 discriminator 60
 597 005e 0193     		str	r3, [sp, #4]
 598 0060 0092     		str	r2, [sp]
 599 0062 CE23     		movs	r3, #206
 600 0064 9D4A     		ldr	r2, .L123+12
 601 0066 9E48     		ldr	r0, .L123+16
 602 0068 FFF7FEFF 		bl	atiny_printf
 603              	.LVL24:
 207:C:/Users/lenovo/Desktop/liteos/Project2/BearPi_LiteOS/components/connectivity/lwm2m/core\management.c ****     LOG_URI(uriP);
 604              		.loc 1 207 0 is_stmt 1 discriminator 60
 605 006c 002C     		cmp	r4, #0
 606 006e 46D0     		beq	.L108
 607              		.loc 1 207 0 is_stmt 0 discriminator 2
 608 0070 6388     		ldrh	r3, [r4, #2]
 609 0072 CF22     		movs	r2, #207
 610 0074 9949     		ldr	r1, .L123+12
 611 0076 9B48     		ldr	r0, .L123+20
 612 0078 FFF7FEFF 		bl	atiny_printf
 613              	.LVL25:
 614 007c 2378     		ldrb	r3, [r4]	@ zero_extendqisi2
 615 007e 13F0020F 		tst	r3, #2
 616 0082 42D1     		bne	.L109
 617              	.L52:
 618              		.loc 1 207 0 discriminator 5
 619 0084 2378     		ldrb	r3, [r4]	@ zero_extendqisi2
 620 0086 13F0010F 		tst	r3, #1
 621 008a 43D1     		bne	.L110
 622              	.L53:
 623              		.loc 1 207 0 discriminator 8
 624 008c 9648     		ldr	r0, .L123+24
 625 008e FFF7FEFF 		bl	atiny_printf
 626              	.LVL26:
 627              	.L51:
 208:C:/Users/lenovo/Desktop/liteos/Project2/BearPi_LiteOS/components/connectivity/lwm2m/core\management.c **** 
 209:C:/Users/lenovo/Desktop/liteos/Project2/BearPi_LiteOS/components/connectivity/lwm2m/core\management.c ****     if (IS_OPTION(message, COAP_OPTION_CONTENT_TYPE))
ARM GAS  c:\Users\lenovo\AppData\Local\Temp\ccyyQBE5.s 			page 17


 628              		.loc 1 209 0 is_stmt 1
 629 0092 EB7A     		ldrb	r3, [r5, #11]	@ zero_extendqisi2
 630 0094 13F0100F 		tst	r3, #16
 631 0098 41D1     		bne	.L111
 632              	.LVL27:
 633              	.LBB10:
 634              	.LBB11:
 635              		.file 2 "C:/Users/lenovo/Desktop/liteos/Project2/BearPi_LiteOS/components/connectivity/lwm2m/core/
   1:C:/Users/lenovo/Desktop/liteos/Project2/BearPi_LiteOS/components/connectivity/lwm2m/core\internals.h **** /*----------------------------------------------------------------------------
   2:C:/Users/lenovo/Desktop/liteos/Project2/BearPi_LiteOS/components/connectivity/lwm2m/core\internals.h ****  * Copyright (c) <2016-2018>, <Huawei Technologies Co., Ltd>
   3:C:/Users/lenovo/Desktop/liteos/Project2/BearPi_LiteOS/components/connectivity/lwm2m/core\internals.h ****  * All rights reserved.
   4:C:/Users/lenovo/Desktop/liteos/Project2/BearPi_LiteOS/components/connectivity/lwm2m/core\internals.h ****  * Redistribution and use in source and binary forms, with or without modification,
   5:C:/Users/lenovo/Desktop/liteos/Project2/BearPi_LiteOS/components/connectivity/lwm2m/core\internals.h ****  * are permitted provided that the following conditions are met:
   6:C:/Users/lenovo/Desktop/liteos/Project2/BearPi_LiteOS/components/connectivity/lwm2m/core\internals.h ****  * 1. Redistributions of source code must retain the above copyright notice, this list of
   7:C:/Users/lenovo/Desktop/liteos/Project2/BearPi_LiteOS/components/connectivity/lwm2m/core\internals.h ****  * conditions and the following disclaimer.
   8:C:/Users/lenovo/Desktop/liteos/Project2/BearPi_LiteOS/components/connectivity/lwm2m/core\internals.h ****  * 2. Redistributions in binary form must reproduce the above copyright notice, this list
   9:C:/Users/lenovo/Desktop/liteos/Project2/BearPi_LiteOS/components/connectivity/lwm2m/core\internals.h ****  * of conditions and the following disclaimer in the documentation and/or other materials
  10:C:/Users/lenovo/Desktop/liteos/Project2/BearPi_LiteOS/components/connectivity/lwm2m/core\internals.h ****  * provided with the distribution.
  11:C:/Users/lenovo/Desktop/liteos/Project2/BearPi_LiteOS/components/connectivity/lwm2m/core\internals.h ****  * 3. Neither the name of the copyright holder nor the names of its contributors may be used
  12:C:/Users/lenovo/Desktop/liteos/Project2/BearPi_LiteOS/components/connectivity/lwm2m/core\internals.h ****  * to endorse or promote products derived from this software without specific prior written
  13:C:/Users/lenovo/Desktop/liteos/Project2/BearPi_LiteOS/components/connectivity/lwm2m/core\internals.h ****  * permission.
  14:C:/Users/lenovo/Desktop/liteos/Project2/BearPi_LiteOS/components/connectivity/lwm2m/core\internals.h ****  * THIS SOFTWARE IS PROVIDED BY THE COPYRIGHT HOLDERS AND CONTRIBUTORS
  15:C:/Users/lenovo/Desktop/liteos/Project2/BearPi_LiteOS/components/connectivity/lwm2m/core\internals.h ****  * "AS IS" AND ANY EXPRESS OR IMPLIED WARRANTIES, INCLUDING, BUT NOT LIMITED TO,
  16:C:/Users/lenovo/Desktop/liteos/Project2/BearPi_LiteOS/components/connectivity/lwm2m/core\internals.h ****  * THE IMPLIED WARRANTIES OF MERCHANTABILITY AND FITNESS FOR A PARTICULAR
  17:C:/Users/lenovo/Desktop/liteos/Project2/BearPi_LiteOS/components/connectivity/lwm2m/core\internals.h ****  * PURPOSE ARE DISCLAIMED. IN NO EVENT SHALL THE COPYRIGHT HOLDER OR
  18:C:/Users/lenovo/Desktop/liteos/Project2/BearPi_LiteOS/components/connectivity/lwm2m/core\internals.h ****  * CONTRIBUTORS BE LIABLE FOR ANY DIRECT, INDIRECT, INCIDENTAL, SPECIAL,
  19:C:/Users/lenovo/Desktop/liteos/Project2/BearPi_LiteOS/components/connectivity/lwm2m/core\internals.h ****  * EXEMPLARY, OR CONSEQUENTIAL DAMAGES (INCLUDING, BUT NOT LIMITED TO,
  20:C:/Users/lenovo/Desktop/liteos/Project2/BearPi_LiteOS/components/connectivity/lwm2m/core\internals.h ****  * PROCUREMENT OF SUBSTITUTE GOODS OR SERVICES; LOSS OF USE, DATA, OR PROFITS;
  21:C:/Users/lenovo/Desktop/liteos/Project2/BearPi_LiteOS/components/connectivity/lwm2m/core\internals.h ****  * OR BUSINESS INTERRUPTION) HOWEVER CAUSED AND ON ANY THEORY OF LIABILITY,
  22:C:/Users/lenovo/Desktop/liteos/Project2/BearPi_LiteOS/components/connectivity/lwm2m/core\internals.h ****  * WHETHER IN CONTRACT, STRICT LIABILITY, OR TORT (INCLUDING NEGLIGENCE OR
  23:C:/Users/lenovo/Desktop/liteos/Project2/BearPi_LiteOS/components/connectivity/lwm2m/core\internals.h ****  * OTHERWISE) ARISING IN ANY WAY OUT OF THE USE OF THIS SOFTWARE, EVEN IF
  24:C:/Users/lenovo/Desktop/liteos/Project2/BearPi_LiteOS/components/connectivity/lwm2m/core\internals.h ****  * ADVISED OF THE POSSIBILITY OF SUCH DAMAGE.
  25:C:/Users/lenovo/Desktop/liteos/Project2/BearPi_LiteOS/components/connectivity/lwm2m/core\internals.h ****  *---------------------------------------------------------------------------*/
  26:C:/Users/lenovo/Desktop/liteos/Project2/BearPi_LiteOS/components/connectivity/lwm2m/core\internals.h **** /*----------------------------------------------------------------------------
  27:C:/Users/lenovo/Desktop/liteos/Project2/BearPi_LiteOS/components/connectivity/lwm2m/core\internals.h ****  * Notice of Export Control Law
  28:C:/Users/lenovo/Desktop/liteos/Project2/BearPi_LiteOS/components/connectivity/lwm2m/core\internals.h ****  * ===============================================
  29:C:/Users/lenovo/Desktop/liteos/Project2/BearPi_LiteOS/components/connectivity/lwm2m/core\internals.h ****  * Huawei LiteOS may be subject to applicable export control laws and regulations, which might
  30:C:/Users/lenovo/Desktop/liteos/Project2/BearPi_LiteOS/components/connectivity/lwm2m/core\internals.h ****  * include those applicable to Huawei LiteOS of U.S. and the country in which you are located.
  31:C:/Users/lenovo/Desktop/liteos/Project2/BearPi_LiteOS/components/connectivity/lwm2m/core\internals.h ****  * Import, export and usage of Huawei LiteOS in any manner by you shall be in compliance with such
  32:C:/Users/lenovo/Desktop/liteos/Project2/BearPi_LiteOS/components/connectivity/lwm2m/core\internals.h ****  * applicable export control laws and regulations.
  33:C:/Users/lenovo/Desktop/liteos/Project2/BearPi_LiteOS/components/connectivity/lwm2m/core\internals.h ****  *---------------------------------------------------------------------------*/
  34:C:/Users/lenovo/Desktop/liteos/Project2/BearPi_LiteOS/components/connectivity/lwm2m/core\internals.h **** 
  35:C:/Users/lenovo/Desktop/liteos/Project2/BearPi_LiteOS/components/connectivity/lwm2m/core\internals.h **** /*******************************************************************************
  36:C:/Users/lenovo/Desktop/liteos/Project2/BearPi_LiteOS/components/connectivity/lwm2m/core\internals.h ****  *
  37:C:/Users/lenovo/Desktop/liteos/Project2/BearPi_LiteOS/components/connectivity/lwm2m/core\internals.h ****  * Copyright (c) 2013, 2014 Intel Corporation and others.
  38:C:/Users/lenovo/Desktop/liteos/Project2/BearPi_LiteOS/components/connectivity/lwm2m/core\internals.h ****  * All rights reserved. This program and the accompanying materials
  39:C:/Users/lenovo/Desktop/liteos/Project2/BearPi_LiteOS/components/connectivity/lwm2m/core\internals.h ****  * are made available under the terms of the Eclipse Public License v1.0
  40:C:/Users/lenovo/Desktop/liteos/Project2/BearPi_LiteOS/components/connectivity/lwm2m/core\internals.h ****  * and Eclipse Distribution License v1.0 which accompany this distribution.
  41:C:/Users/lenovo/Desktop/liteos/Project2/BearPi_LiteOS/components/connectivity/lwm2m/core\internals.h ****  *
  42:C:/Users/lenovo/Desktop/liteos/Project2/BearPi_LiteOS/components/connectivity/lwm2m/core\internals.h ****  * The Eclipse Public License is available at
  43:C:/Users/lenovo/Desktop/liteos/Project2/BearPi_LiteOS/components/connectivity/lwm2m/core\internals.h ****  *    http://www.eclipse.org/legal/epl-v10.html
  44:C:/Users/lenovo/Desktop/liteos/Project2/BearPi_LiteOS/components/connectivity/lwm2m/core\internals.h ****  * The Eclipse Distribution License is available at
  45:C:/Users/lenovo/Desktop/liteos/Project2/BearPi_LiteOS/components/connectivity/lwm2m/core\internals.h ****  *    http://www.eclipse.org/org/documents/edl-v10.php.
  46:C:/Users/lenovo/Desktop/liteos/Project2/BearPi_LiteOS/components/connectivity/lwm2m/core\internals.h ****  *
  47:C:/Users/lenovo/Desktop/liteos/Project2/BearPi_LiteOS/components/connectivity/lwm2m/core\internals.h ****  * Contributors:
  48:C:/Users/lenovo/Desktop/liteos/Project2/BearPi_LiteOS/components/connectivity/lwm2m/core\internals.h ****  *    David Navarro, Intel Corporation - initial API and implementation
  49:C:/Users/lenovo/Desktop/liteos/Project2/BearPi_LiteOS/components/connectivity/lwm2m/core\internals.h ****  *    Fabien Fleutot - Please refer to git log
ARM GAS  c:\Users\lenovo\AppData\Local\Temp\ccyyQBE5.s 			page 18


  50:C:/Users/lenovo/Desktop/liteos/Project2/BearPi_LiteOS/components/connectivity/lwm2m/core\internals.h ****  *    Toby Jaffey - Please refer to git log
  51:C:/Users/lenovo/Desktop/liteos/Project2/BearPi_LiteOS/components/connectivity/lwm2m/core\internals.h ****  *    Bosch Software Innovations GmbH - Please refer to git log
  52:C:/Users/lenovo/Desktop/liteos/Project2/BearPi_LiteOS/components/connectivity/lwm2m/core\internals.h ****  *    Pascal Rieux - Please refer to git log
  53:C:/Users/lenovo/Desktop/liteos/Project2/BearPi_LiteOS/components/connectivity/lwm2m/core\internals.h ****  *    Scott Bertin - Please refer to git log
  54:C:/Users/lenovo/Desktop/liteos/Project2/BearPi_LiteOS/components/connectivity/lwm2m/core\internals.h ****  *
  55:C:/Users/lenovo/Desktop/liteos/Project2/BearPi_LiteOS/components/connectivity/lwm2m/core\internals.h ****  *******************************************************************************/
  56:C:/Users/lenovo/Desktop/liteos/Project2/BearPi_LiteOS/components/connectivity/lwm2m/core\internals.h **** /*
  57:C:/Users/lenovo/Desktop/liteos/Project2/BearPi_LiteOS/components/connectivity/lwm2m/core\internals.h ****  Copyright (c) 2013, 2014 Intel Corporation
  58:C:/Users/lenovo/Desktop/liteos/Project2/BearPi_LiteOS/components/connectivity/lwm2m/core\internals.h **** 
  59:C:/Users/lenovo/Desktop/liteos/Project2/BearPi_LiteOS/components/connectivity/lwm2m/core\internals.h ****  Redistribution and use in source and binary forms, with or without modification,
  60:C:/Users/lenovo/Desktop/liteos/Project2/BearPi_LiteOS/components/connectivity/lwm2m/core\internals.h ****  are permitted provided that the following conditions are met:
  61:C:/Users/lenovo/Desktop/liteos/Project2/BearPi_LiteOS/components/connectivity/lwm2m/core\internals.h **** 
  62:C:/Users/lenovo/Desktop/liteos/Project2/BearPi_LiteOS/components/connectivity/lwm2m/core\internals.h ****      * Redistributions of source code must retain the above copyright notice,
  63:C:/Users/lenovo/Desktop/liteos/Project2/BearPi_LiteOS/components/connectivity/lwm2m/core\internals.h ****        this list of conditions and the following disclaimer.
  64:C:/Users/lenovo/Desktop/liteos/Project2/BearPi_LiteOS/components/connectivity/lwm2m/core\internals.h ****      * Redistributions in binary form must reproduce the above copyright notice,
  65:C:/Users/lenovo/Desktop/liteos/Project2/BearPi_LiteOS/components/connectivity/lwm2m/core\internals.h ****        this list of conditions and the following disclaimer in the documentation
  66:C:/Users/lenovo/Desktop/liteos/Project2/BearPi_LiteOS/components/connectivity/lwm2m/core\internals.h ****        and/or other materials provided with the distribution.
  67:C:/Users/lenovo/Desktop/liteos/Project2/BearPi_LiteOS/components/connectivity/lwm2m/core\internals.h ****      * Neither the name of Intel Corporation nor the names of its contributors
  68:C:/Users/lenovo/Desktop/liteos/Project2/BearPi_LiteOS/components/connectivity/lwm2m/core\internals.h ****        may be used to endorse or promote products derived from this software
  69:C:/Users/lenovo/Desktop/liteos/Project2/BearPi_LiteOS/components/connectivity/lwm2m/core\internals.h ****        without specific prior written permission.
  70:C:/Users/lenovo/Desktop/liteos/Project2/BearPi_LiteOS/components/connectivity/lwm2m/core\internals.h **** 
  71:C:/Users/lenovo/Desktop/liteos/Project2/BearPi_LiteOS/components/connectivity/lwm2m/core\internals.h ****  THIS SOFTWARE IS PROVIDED BY THE COPYRIGHT HOLDERS AND CONTRIBUTORS "AS IS" AND
  72:C:/Users/lenovo/Desktop/liteos/Project2/BearPi_LiteOS/components/connectivity/lwm2m/core\internals.h ****  ANY EXPRESS OR IMPLIED WARRANTIES, INCLUDING, BUT NOT LIMITED TO, THE IMPLIED
  73:C:/Users/lenovo/Desktop/liteos/Project2/BearPi_LiteOS/components/connectivity/lwm2m/core\internals.h ****  WARRANTIES OF MERCHANTABILITY AND FITNESS FOR A PARTICULAR PURPOSE ARE DISCLAIMED.
  74:C:/Users/lenovo/Desktop/liteos/Project2/BearPi_LiteOS/components/connectivity/lwm2m/core\internals.h ****  IN NO EVENT SHALL THE COPYRIGHT OWNER OR CONTRIBUTORS BE LIABLE FOR ANY DIRECT,
  75:C:/Users/lenovo/Desktop/liteos/Project2/BearPi_LiteOS/components/connectivity/lwm2m/core\internals.h ****  INDIRECT, INCIDENTAL, SPECIAL, EXEMPLARY, OR CONSEQUENTIAL DAMAGES (INCLUDING,
  76:C:/Users/lenovo/Desktop/liteos/Project2/BearPi_LiteOS/components/connectivity/lwm2m/core\internals.h ****  BUT NOT LIMITED TO, PROCUREMENT OF SUBSTITUTE GOODS OR SERVICES; LOSS OF USE,
  77:C:/Users/lenovo/Desktop/liteos/Project2/BearPi_LiteOS/components/connectivity/lwm2m/core\internals.h ****  DATA, OR PROFITS; OR BUSINESS INTERRUPTION) HOWEVER CAUSED AND ON ANY THEORY OF
  78:C:/Users/lenovo/Desktop/liteos/Project2/BearPi_LiteOS/components/connectivity/lwm2m/core\internals.h ****  LIABILITY, WHETHER IN CONTRACT, STRICT LIABILITY, OR TORT (INCLUDING NEGLIGENCE OR
  79:C:/Users/lenovo/Desktop/liteos/Project2/BearPi_LiteOS/components/connectivity/lwm2m/core\internals.h ****  OTHERWISE) ARISING IN ANY WAY OUT OF THE USE OF THIS SOFTWARE, EVEN IF ADVISED OF
  80:C:/Users/lenovo/Desktop/liteos/Project2/BearPi_LiteOS/components/connectivity/lwm2m/core\internals.h ****  THE POSSIBILITY OF SUCH DAMAGE.
  81:C:/Users/lenovo/Desktop/liteos/Project2/BearPi_LiteOS/components/connectivity/lwm2m/core\internals.h **** 
  82:C:/Users/lenovo/Desktop/liteos/Project2/BearPi_LiteOS/components/connectivity/lwm2m/core\internals.h ****  David Navarro <david.navarro@intel.com>
  83:C:/Users/lenovo/Desktop/liteos/Project2/BearPi_LiteOS/components/connectivity/lwm2m/core\internals.h **** 
  84:C:/Users/lenovo/Desktop/liteos/Project2/BearPi_LiteOS/components/connectivity/lwm2m/core\internals.h **** */
  85:C:/Users/lenovo/Desktop/liteos/Project2/BearPi_LiteOS/components/connectivity/lwm2m/core\internals.h **** 
  86:C:/Users/lenovo/Desktop/liteos/Project2/BearPi_LiteOS/components/connectivity/lwm2m/core\internals.h **** #ifndef _LWM2M_INTERNALS_H_
  87:C:/Users/lenovo/Desktop/liteos/Project2/BearPi_LiteOS/components/connectivity/lwm2m/core\internals.h **** #define _LWM2M_INTERNALS_H_
  88:C:/Users/lenovo/Desktop/liteos/Project2/BearPi_LiteOS/components/connectivity/lwm2m/core\internals.h **** 
  89:C:/Users/lenovo/Desktop/liteos/Project2/BearPi_LiteOS/components/connectivity/lwm2m/core\internals.h **** #include "liblwm2m.h"
  90:C:/Users/lenovo/Desktop/liteos/Project2/BearPi_LiteOS/components/connectivity/lwm2m/core\internals.h **** 
  91:C:/Users/lenovo/Desktop/liteos/Project2/BearPi_LiteOS/components/connectivity/lwm2m/core\internals.h **** #include <stdlib.h>
  92:C:/Users/lenovo/Desktop/liteos/Project2/BearPi_LiteOS/components/connectivity/lwm2m/core\internals.h **** #include <string.h>
  93:C:/Users/lenovo/Desktop/liteos/Project2/BearPi_LiteOS/components/connectivity/lwm2m/core\internals.h **** #include <stdio.h>
  94:C:/Users/lenovo/Desktop/liteos/Project2/BearPi_LiteOS/components/connectivity/lwm2m/core\internals.h **** #include <ctype.h>
  95:C:/Users/lenovo/Desktop/liteos/Project2/BearPi_LiteOS/components/connectivity/lwm2m/core\internals.h **** #include <stdint.h>
  96:C:/Users/lenovo/Desktop/liteos/Project2/BearPi_LiteOS/components/connectivity/lwm2m/core\internals.h **** #include <stddef.h>
  97:C:/Users/lenovo/Desktop/liteos/Project2/BearPi_LiteOS/components/connectivity/lwm2m/core\internals.h **** #include <stdbool.h>
  98:C:/Users/lenovo/Desktop/liteos/Project2/BearPi_LiteOS/components/connectivity/lwm2m/core\internals.h **** 
  99:C:/Users/lenovo/Desktop/liteos/Project2/BearPi_LiteOS/components/connectivity/lwm2m/core\internals.h **** #include "er-coap-13/er-coap-13.h"
 100:C:/Users/lenovo/Desktop/liteos/Project2/BearPi_LiteOS/components/connectivity/lwm2m/core\internals.h **** #include "connection.h"
 101:C:/Users/lenovo/Desktop/liteos/Project2/BearPi_LiteOS/components/connectivity/lwm2m/core\internals.h **** 
 102:C:/Users/lenovo/Desktop/liteos/Project2/BearPi_LiteOS/components/connectivity/lwm2m/core\internals.h **** 
 103:C:/Users/lenovo/Desktop/liteos/Project2/BearPi_LiteOS/components/connectivity/lwm2m/core\internals.h **** #ifdef LWM2M_WITH_LOGS
 104:C:/Users/lenovo/Desktop/liteos/Project2/BearPi_LiteOS/components/connectivity/lwm2m/core\internals.h **** #include <inttypes.h>
 105:C:/Users/lenovo/Desktop/liteos/Project2/BearPi_LiteOS/components/connectivity/lwm2m/core\internals.h **** #define LOG(STR) (void)lwm2m_printf("[%d][%s:%d] " STR "\r\n", (uint32_t)lwm2m_gettime(), __func__ 
 106:C:/Users/lenovo/Desktop/liteos/Project2/BearPi_LiteOS/components/connectivity/lwm2m/core\internals.h **** #define LOG_ARG(FMT, ...) (void)lwm2m_printf("[%d][%s:%d] " FMT "\r\n", (uint32_t)lwm2m_gettime(), 
ARM GAS  c:\Users\lenovo\AppData\Local\Temp\ccyyQBE5.s 			page 19


 107:C:/Users/lenovo/Desktop/liteos/Project2/BearPi_LiteOS/components/connectivity/lwm2m/core\internals.h **** #define LOG_URI(URI)                                                                \
 108:C:/Users/lenovo/Desktop/liteos/Project2/BearPi_LiteOS/components/connectivity/lwm2m/core\internals.h **** {                                                                                   \
 109:C:/Users/lenovo/Desktop/liteos/Project2/BearPi_LiteOS/components/connectivity/lwm2m/core\internals.h ****     if ((URI) == NULL) (void)lwm2m_printf("[%s:%d] NULL\r\n", __func__ , __LINE__);     \
 110:C:/Users/lenovo/Desktop/liteos/Project2/BearPi_LiteOS/components/connectivity/lwm2m/core\internals.h ****     else                                                                            \
 111:C:/Users/lenovo/Desktop/liteos/Project2/BearPi_LiteOS/components/connectivity/lwm2m/core\internals.h ****     {                                                                               \
 112:C:/Users/lenovo/Desktop/liteos/Project2/BearPi_LiteOS/components/connectivity/lwm2m/core\internals.h ****         (void)lwm2m_printf("[%s:%d] /%d", __func__ , __LINE__ , (URI)->objectId);       \
 113:C:/Users/lenovo/Desktop/liteos/Project2/BearPi_LiteOS/components/connectivity/lwm2m/core\internals.h ****         if (LWM2M_URI_IS_SET_INSTANCE(URI)) (void)lwm2m_printf("/%d", (URI)->instanceId); \
 114:C:/Users/lenovo/Desktop/liteos/Project2/BearPi_LiteOS/components/connectivity/lwm2m/core\internals.h ****         if (LWM2M_URI_IS_SET_RESOURCE(URI)) (void)lwm2m_printf("/%d", (URI)->resourceId); \
 115:C:/Users/lenovo/Desktop/liteos/Project2/BearPi_LiteOS/components/connectivity/lwm2m/core\internals.h ****         (void)lwm2m_printf("\r\n");                                                       \
 116:C:/Users/lenovo/Desktop/liteos/Project2/BearPi_LiteOS/components/connectivity/lwm2m/core\internals.h ****     }                                                                               \
 117:C:/Users/lenovo/Desktop/liteos/Project2/BearPi_LiteOS/components/connectivity/lwm2m/core\internals.h **** }
 118:C:/Users/lenovo/Desktop/liteos/Project2/BearPi_LiteOS/components/connectivity/lwm2m/core\internals.h **** #define UNUSEX(x)
 119:C:/Users/lenovo/Desktop/liteos/Project2/BearPi_LiteOS/components/connectivity/lwm2m/core\internals.h **** #define STR_STATUS(S)                                           \
 120:C:/Users/lenovo/Desktop/liteos/Project2/BearPi_LiteOS/components/connectivity/lwm2m/core\internals.h **** ((S) == STATE_DEREGISTERED ? "STATE_DEREGISTERED" :             \
 121:C:/Users/lenovo/Desktop/liteos/Project2/BearPi_LiteOS/components/connectivity/lwm2m/core\internals.h **** ((S) == STATE_REG_PENDING ? "STATE_REG_PENDING" :               \
 122:C:/Users/lenovo/Desktop/liteos/Project2/BearPi_LiteOS/components/connectivity/lwm2m/core\internals.h **** ((S) == STATE_REGISTERED ? "STATE_REGISTERED" :                 \
 123:C:/Users/lenovo/Desktop/liteos/Project2/BearPi_LiteOS/components/connectivity/lwm2m/core\internals.h **** ((S) == STATE_REG_FAILED ? "STATE_REG_FAILED" :                 \
 124:C:/Users/lenovo/Desktop/liteos/Project2/BearPi_LiteOS/components/connectivity/lwm2m/core\internals.h **** ((S) == STATE_REG_UPDATE_PENDING ? "STATE_REG_UPDATE_PENDING" : \
 125:C:/Users/lenovo/Desktop/liteos/Project2/BearPi_LiteOS/components/connectivity/lwm2m/core\internals.h **** ((S) == STATE_REG_UPDATE_NEEDED ? "STATE_REG_UPDATE_NEEDED" :   \
 126:C:/Users/lenovo/Desktop/liteos/Project2/BearPi_LiteOS/components/connectivity/lwm2m/core\internals.h **** ((S) == STATE_REG_FULL_UPDATE_NEEDED ? "STATE_REG_FULL_UPDATE_NEEDED" :   \
 127:C:/Users/lenovo/Desktop/liteos/Project2/BearPi_LiteOS/components/connectivity/lwm2m/core\internals.h **** ((S) == STATE_DEREG_PENDING ? "STATE_DEREG_PENDING" :           \
 128:C:/Users/lenovo/Desktop/liteos/Project2/BearPi_LiteOS/components/connectivity/lwm2m/core\internals.h **** ((S) == STATE_BS_HOLD_OFF ? "STATE_BS_HOLD_OFF" :               \
 129:C:/Users/lenovo/Desktop/liteos/Project2/BearPi_LiteOS/components/connectivity/lwm2m/core\internals.h **** ((S) == STATE_BS_INITIATED ? "STATE_BS_INITIATED" :             \
 130:C:/Users/lenovo/Desktop/liteos/Project2/BearPi_LiteOS/components/connectivity/lwm2m/core\internals.h **** ((S) == STATE_BS_PENDING ? "STATE_BS_PENDING" :                 \
 131:C:/Users/lenovo/Desktop/liteos/Project2/BearPi_LiteOS/components/connectivity/lwm2m/core\internals.h **** ((S) == STATE_BS_FINISHED ? "STATE_BS_FINISHED" :               \
 132:C:/Users/lenovo/Desktop/liteos/Project2/BearPi_LiteOS/components/connectivity/lwm2m/core\internals.h **** ((S) == STATE_BS_FINISHING ? "STATE_BS_FINISHING" :             \
 133:C:/Users/lenovo/Desktop/liteos/Project2/BearPi_LiteOS/components/connectivity/lwm2m/core\internals.h **** ((S) == STATE_BS_FAILING ? "STATE_BS_FAILING" :                 \
 134:C:/Users/lenovo/Desktop/liteos/Project2/BearPi_LiteOS/components/connectivity/lwm2m/core\internals.h **** ((S) == STATE_BS_FAILED ? "STATE_BS_FAILED" :                   \
 135:C:/Users/lenovo/Desktop/liteos/Project2/BearPi_LiteOS/components/connectivity/lwm2m/core\internals.h **** "Unknown")))))))))))))))
 136:C:/Users/lenovo/Desktop/liteos/Project2/BearPi_LiteOS/components/connectivity/lwm2m/core\internals.h **** #define STR_MEDIA_TYPE(M)                                \
 137:C:/Users/lenovo/Desktop/liteos/Project2/BearPi_LiteOS/components/connectivity/lwm2m/core\internals.h **** ((M) == LWM2M_CONTENT_TEXT ? "LWM2M_CONTENT_TEXT" :      \
 138:C:/Users/lenovo/Desktop/liteos/Project2/BearPi_LiteOS/components/connectivity/lwm2m/core\internals.h **** ((M) == LWM2M_CONTENT_LINK ? "LWM2M_CONTENT_LINK" :      \
 139:C:/Users/lenovo/Desktop/liteos/Project2/BearPi_LiteOS/components/connectivity/lwm2m/core\internals.h **** ((M) == LWM2M_CONTENT_OPAQUE ? "LWM2M_CONTENT_OPAQUE" :  \
 140:C:/Users/lenovo/Desktop/liteos/Project2/BearPi_LiteOS/components/connectivity/lwm2m/core\internals.h **** ((M) == LWM2M_CONTENT_TLV ? "LWM2M_CONTENT_TLV" :        \
 141:C:/Users/lenovo/Desktop/liteos/Project2/BearPi_LiteOS/components/connectivity/lwm2m/core\internals.h **** ((M) == LWM2M_CONTENT_JSON ? "LWM2M_CONTENT_JSON" :      \
 142:C:/Users/lenovo/Desktop/liteos/Project2/BearPi_LiteOS/components/connectivity/lwm2m/core\internals.h **** "Unknown")))))
 143:C:/Users/lenovo/Desktop/liteos/Project2/BearPi_LiteOS/components/connectivity/lwm2m/core\internals.h **** #define STR_STATE(S)                                \
 144:C:/Users/lenovo/Desktop/liteos/Project2/BearPi_LiteOS/components/connectivity/lwm2m/core\internals.h **** ((S) == STATE_INITIAL ? "STATE_INITIAL" :      \
 145:C:/Users/lenovo/Desktop/liteos/Project2/BearPi_LiteOS/components/connectivity/lwm2m/core\internals.h **** ((S) == STATE_BOOTSTRAP_REQUIRED ? "STATE_BOOTSTRAP_REQUIRED" :      \
 146:C:/Users/lenovo/Desktop/liteos/Project2/BearPi_LiteOS/components/connectivity/lwm2m/core\internals.h **** ((S) == STATE_BOOTSTRAPPING ? "STATE_BOOTSTRAPPING" :  \
 147:C:/Users/lenovo/Desktop/liteos/Project2/BearPi_LiteOS/components/connectivity/lwm2m/core\internals.h **** ((S) == STATE_REGISTER_REQUIRED ? "STATE_REGISTER_REQUIRED" :        \
 148:C:/Users/lenovo/Desktop/liteos/Project2/BearPi_LiteOS/components/connectivity/lwm2m/core\internals.h **** ((S) == STATE_REGISTERING ? "STATE_REGISTERING" :      \
 149:C:/Users/lenovo/Desktop/liteos/Project2/BearPi_LiteOS/components/connectivity/lwm2m/core\internals.h **** ((S) == STATE_READY ? "STATE_READY" :      \
 150:C:/Users/lenovo/Desktop/liteos/Project2/BearPi_LiteOS/components/connectivity/lwm2m/core\internals.h **** "Unknown"))))))
 151:C:/Users/lenovo/Desktop/liteos/Project2/BearPi_LiteOS/components/connectivity/lwm2m/core\internals.h **** #else
 152:C:/Users/lenovo/Desktop/liteos/Project2/BearPi_LiteOS/components/connectivity/lwm2m/core\internals.h **** #define UNUSEX(x) (x)=(x)
 153:C:/Users/lenovo/Desktop/liteos/Project2/BearPi_LiteOS/components/connectivity/lwm2m/core\internals.h **** #define LOG_ARG(FMT, ...)
 154:C:/Users/lenovo/Desktop/liteos/Project2/BearPi_LiteOS/components/connectivity/lwm2m/core\internals.h **** #define LOG(STR)
 155:C:/Users/lenovo/Desktop/liteos/Project2/BearPi_LiteOS/components/connectivity/lwm2m/core\internals.h **** #define LOG_URI(URI)
 156:C:/Users/lenovo/Desktop/liteos/Project2/BearPi_LiteOS/components/connectivity/lwm2m/core\internals.h **** #endif
 157:C:/Users/lenovo/Desktop/liteos/Project2/BearPi_LiteOS/components/connectivity/lwm2m/core\internals.h **** 
 158:C:/Users/lenovo/Desktop/liteos/Project2/BearPi_LiteOS/components/connectivity/lwm2m/core\internals.h **** #define LWM2M_DEFAULT_LIFETIME  86400
 159:C:/Users/lenovo/Desktop/liteos/Project2/BearPi_LiteOS/components/connectivity/lwm2m/core\internals.h **** 
 160:C:/Users/lenovo/Desktop/liteos/Project2/BearPi_LiteOS/components/connectivity/lwm2m/core\internals.h **** #ifdef LWM2M_SUPPORT_JSON
 161:C:/Users/lenovo/Desktop/liteos/Project2/BearPi_LiteOS/components/connectivity/lwm2m/core\internals.h **** #define REG_LWM2M_RESOURCE_TYPE     ">;rt=\"oma.lwm2m\";ct=11543,"
 162:C:/Users/lenovo/Desktop/liteos/Project2/BearPi_LiteOS/components/connectivity/lwm2m/core\internals.h **** #define REG_LWM2M_RESOURCE_TYPE_LEN 25
 163:C:/Users/lenovo/Desktop/liteos/Project2/BearPi_LiteOS/components/connectivity/lwm2m/core\internals.h **** #else
ARM GAS  c:\Users\lenovo\AppData\Local\Temp\ccyyQBE5.s 			page 20


 164:C:/Users/lenovo/Desktop/liteos/Project2/BearPi_LiteOS/components/connectivity/lwm2m/core\internals.h **** #define REG_LWM2M_RESOURCE_TYPE     ">;rt=\"oma.lwm2m\","
 165:C:/Users/lenovo/Desktop/liteos/Project2/BearPi_LiteOS/components/connectivity/lwm2m/core\internals.h **** #define REG_LWM2M_RESOURCE_TYPE_LEN 17
 166:C:/Users/lenovo/Desktop/liteos/Project2/BearPi_LiteOS/components/connectivity/lwm2m/core\internals.h **** #endif
 167:C:/Users/lenovo/Desktop/liteos/Project2/BearPi_LiteOS/components/connectivity/lwm2m/core\internals.h **** #define REG_START           "<"
 168:C:/Users/lenovo/Desktop/liteos/Project2/BearPi_LiteOS/components/connectivity/lwm2m/core\internals.h **** #define REG_DEFAULT_PATH    "/"
 169:C:/Users/lenovo/Desktop/liteos/Project2/BearPi_LiteOS/components/connectivity/lwm2m/core\internals.h **** 
 170:C:/Users/lenovo/Desktop/liteos/Project2/BearPi_LiteOS/components/connectivity/lwm2m/core\internals.h **** #define REG_OBJECT_MIN_LEN  5   // "</n>,"
 171:C:/Users/lenovo/Desktop/liteos/Project2/BearPi_LiteOS/components/connectivity/lwm2m/core\internals.h **** #define REG_PATH_END        ">,"
 172:C:/Users/lenovo/Desktop/liteos/Project2/BearPi_LiteOS/components/connectivity/lwm2m/core\internals.h **** #define REG_PATH_SEPARATOR  "/"
 173:C:/Users/lenovo/Desktop/liteos/Project2/BearPi_LiteOS/components/connectivity/lwm2m/core\internals.h **** 
 174:C:/Users/lenovo/Desktop/liteos/Project2/BearPi_LiteOS/components/connectivity/lwm2m/core\internals.h **** #define REG_OBJECT_PATH             "<%s/%hu>,"
 175:C:/Users/lenovo/Desktop/liteos/Project2/BearPi_LiteOS/components/connectivity/lwm2m/core\internals.h **** #define REG_OBJECT_INSTANCE_PATH    "<%s/%hu/%hu>,"
 176:C:/Users/lenovo/Desktop/liteos/Project2/BearPi_LiteOS/components/connectivity/lwm2m/core\internals.h **** 
 177:C:/Users/lenovo/Desktop/liteos/Project2/BearPi_LiteOS/components/connectivity/lwm2m/core\internals.h **** #define URI_REGISTRATION_SEGMENT        "rd"
 178:C:/Users/lenovo/Desktop/liteos/Project2/BearPi_LiteOS/components/connectivity/lwm2m/core\internals.h **** #define URI_REGISTRATION_SEGMENT_LEN    2
 179:C:/Users/lenovo/Desktop/liteos/Project2/BearPi_LiteOS/components/connectivity/lwm2m/core\internals.h **** #define URI_BOOTSTRAP_SEGMENT           "bs"
 180:C:/Users/lenovo/Desktop/liteos/Project2/BearPi_LiteOS/components/connectivity/lwm2m/core\internals.h **** #define URI_BOOTSTRAP_SEGMENT_LEN       2
 181:C:/Users/lenovo/Desktop/liteos/Project2/BearPi_LiteOS/components/connectivity/lwm2m/core\internals.h **** 
 182:C:/Users/lenovo/Desktop/liteos/Project2/BearPi_LiteOS/components/connectivity/lwm2m/core\internals.h **** #define QUERY_STARTER       "?"
 183:C:/Users/lenovo/Desktop/liteos/Project2/BearPi_LiteOS/components/connectivity/lwm2m/core\internals.h **** #define QUERY_NAME          "ep="
 184:C:/Users/lenovo/Desktop/liteos/Project2/BearPi_LiteOS/components/connectivity/lwm2m/core\internals.h **** #define QUERY_NAME_LEN      3       // strlen("ep=")
 185:C:/Users/lenovo/Desktop/liteos/Project2/BearPi_LiteOS/components/connectivity/lwm2m/core\internals.h **** #define QUERY_SMS           "sms="
 186:C:/Users/lenovo/Desktop/liteos/Project2/BearPi_LiteOS/components/connectivity/lwm2m/core\internals.h **** #define QUERY_SMS_LEN       4
 187:C:/Users/lenovo/Desktop/liteos/Project2/BearPi_LiteOS/components/connectivity/lwm2m/core\internals.h **** #define QUERY_LIFETIME      "lt="
 188:C:/Users/lenovo/Desktop/liteos/Project2/BearPi_LiteOS/components/connectivity/lwm2m/core\internals.h **** #define QUERY_LIFETIME_LEN  3
 189:C:/Users/lenovo/Desktop/liteos/Project2/BearPi_LiteOS/components/connectivity/lwm2m/core\internals.h **** #define QUERY_VERSION       "lwm2m="
 190:C:/Users/lenovo/Desktop/liteos/Project2/BearPi_LiteOS/components/connectivity/lwm2m/core\internals.h **** #define QUERY_VERSION_LEN   6
 191:C:/Users/lenovo/Desktop/liteos/Project2/BearPi_LiteOS/components/connectivity/lwm2m/core\internals.h **** #define QUERY_BINDING       "b="
 192:C:/Users/lenovo/Desktop/liteos/Project2/BearPi_LiteOS/components/connectivity/lwm2m/core\internals.h **** #define QUERY_BINDING_LEN   2
 193:C:/Users/lenovo/Desktop/liteos/Project2/BearPi_LiteOS/components/connectivity/lwm2m/core\internals.h **** #define QUERY_DELIMITER     "&"
 194:C:/Users/lenovo/Desktop/liteos/Project2/BearPi_LiteOS/components/connectivity/lwm2m/core\internals.h **** 
 195:C:/Users/lenovo/Desktop/liteos/Project2/BearPi_LiteOS/components/connectivity/lwm2m/core\internals.h **** #define LWM2M_VERSION      "1.0"
 196:C:/Users/lenovo/Desktop/liteos/Project2/BearPi_LiteOS/components/connectivity/lwm2m/core\internals.h **** #define LWM2M_VERSION_LEN  3
 197:C:/Users/lenovo/Desktop/liteos/Project2/BearPi_LiteOS/components/connectivity/lwm2m/core\internals.h **** 
 198:C:/Users/lenovo/Desktop/liteos/Project2/BearPi_LiteOS/components/connectivity/lwm2m/core\internals.h **** #define QUERY_VERSION_FULL      QUERY_VERSION LWM2M_VERSION
 199:C:/Users/lenovo/Desktop/liteos/Project2/BearPi_LiteOS/components/connectivity/lwm2m/core\internals.h **** #define QUERY_VERSION_FULL_LEN  QUERY_VERSION_LEN+LWM2M_VERSION_LEN
 200:C:/Users/lenovo/Desktop/liteos/Project2/BearPi_LiteOS/components/connectivity/lwm2m/core\internals.h **** 
 201:C:/Users/lenovo/Desktop/liteos/Project2/BearPi_LiteOS/components/connectivity/lwm2m/core\internals.h **** #define REG_URI_START       '<'
 202:C:/Users/lenovo/Desktop/liteos/Project2/BearPi_LiteOS/components/connectivity/lwm2m/core\internals.h **** #define REG_URI_END         '>'
 203:C:/Users/lenovo/Desktop/liteos/Project2/BearPi_LiteOS/components/connectivity/lwm2m/core\internals.h **** #define REG_DELIMITER       ','
 204:C:/Users/lenovo/Desktop/liteos/Project2/BearPi_LiteOS/components/connectivity/lwm2m/core\internals.h **** #define REG_ATTR_SEPARATOR  ';'
 205:C:/Users/lenovo/Desktop/liteos/Project2/BearPi_LiteOS/components/connectivity/lwm2m/core\internals.h **** #define REG_ATTR_EQUALS     '='
 206:C:/Users/lenovo/Desktop/liteos/Project2/BearPi_LiteOS/components/connectivity/lwm2m/core\internals.h **** #define REG_ATTR_TYPE_KEY           "rt"
 207:C:/Users/lenovo/Desktop/liteos/Project2/BearPi_LiteOS/components/connectivity/lwm2m/core\internals.h **** #define REG_ATTR_TYPE_KEY_LEN       2
 208:C:/Users/lenovo/Desktop/liteos/Project2/BearPi_LiteOS/components/connectivity/lwm2m/core\internals.h **** #define REG_ATTR_TYPE_VALUE         "\"oma.lwm2m\""
 209:C:/Users/lenovo/Desktop/liteos/Project2/BearPi_LiteOS/components/connectivity/lwm2m/core\internals.h **** #define REG_ATTR_TYPE_VALUE_LEN     11
 210:C:/Users/lenovo/Desktop/liteos/Project2/BearPi_LiteOS/components/connectivity/lwm2m/core\internals.h **** #define REG_ATTR_CONTENT_KEY        "ct"
 211:C:/Users/lenovo/Desktop/liteos/Project2/BearPi_LiteOS/components/connectivity/lwm2m/core\internals.h **** #define REG_ATTR_CONTENT_KEY_LEN    2
 212:C:/Users/lenovo/Desktop/liteos/Project2/BearPi_LiteOS/components/connectivity/lwm2m/core\internals.h **** #define REG_ATTR_CONTENT_JSON       "11543"   // Temporary value
 213:C:/Users/lenovo/Desktop/liteos/Project2/BearPi_LiteOS/components/connectivity/lwm2m/core\internals.h **** #define REG_ATTR_CONTENT_JSON_LEN   5
 214:C:/Users/lenovo/Desktop/liteos/Project2/BearPi_LiteOS/components/connectivity/lwm2m/core\internals.h **** 
 215:C:/Users/lenovo/Desktop/liteos/Project2/BearPi_LiteOS/components/connectivity/lwm2m/core\internals.h **** #define ATTR_SERVER_ID_STR       "ep="
 216:C:/Users/lenovo/Desktop/liteos/Project2/BearPi_LiteOS/components/connectivity/lwm2m/core\internals.h **** #define ATTR_SERVER_ID_LEN       3
 217:C:/Users/lenovo/Desktop/liteos/Project2/BearPi_LiteOS/components/connectivity/lwm2m/core\internals.h **** #define ATTR_MIN_PERIOD_STR      "pmin="
 218:C:/Users/lenovo/Desktop/liteos/Project2/BearPi_LiteOS/components/connectivity/lwm2m/core\internals.h **** #define ATTR_MIN_PERIOD_LEN      5
 219:C:/Users/lenovo/Desktop/liteos/Project2/BearPi_LiteOS/components/connectivity/lwm2m/core\internals.h **** #define ATTR_MAX_PERIOD_STR      "pmax="
 220:C:/Users/lenovo/Desktop/liteos/Project2/BearPi_LiteOS/components/connectivity/lwm2m/core\internals.h **** #define ATTR_MAX_PERIOD_LEN      5
ARM GAS  c:\Users\lenovo\AppData\Local\Temp\ccyyQBE5.s 			page 21


 221:C:/Users/lenovo/Desktop/liteos/Project2/BearPi_LiteOS/components/connectivity/lwm2m/core\internals.h **** #define ATTR_GREATER_THAN_STR    "gt="
 222:C:/Users/lenovo/Desktop/liteos/Project2/BearPi_LiteOS/components/connectivity/lwm2m/core\internals.h **** #define ATTR_GREATER_THAN_LEN    3
 223:C:/Users/lenovo/Desktop/liteos/Project2/BearPi_LiteOS/components/connectivity/lwm2m/core\internals.h **** #define ATTR_LESS_THAN_STR       "lt="
 224:C:/Users/lenovo/Desktop/liteos/Project2/BearPi_LiteOS/components/connectivity/lwm2m/core\internals.h **** #define ATTR_LESS_THAN_LEN       3
 225:C:/Users/lenovo/Desktop/liteos/Project2/BearPi_LiteOS/components/connectivity/lwm2m/core\internals.h **** #define ATTR_STEP_STR            "st="
 226:C:/Users/lenovo/Desktop/liteos/Project2/BearPi_LiteOS/components/connectivity/lwm2m/core\internals.h **** #define ATTR_STEP_LEN            3
 227:C:/Users/lenovo/Desktop/liteos/Project2/BearPi_LiteOS/components/connectivity/lwm2m/core\internals.h **** #define ATTR_DIMENSION_STR       "dim="
 228:C:/Users/lenovo/Desktop/liteos/Project2/BearPi_LiteOS/components/connectivity/lwm2m/core\internals.h **** #define ATTR_DIMENSION_LEN       4
 229:C:/Users/lenovo/Desktop/liteos/Project2/BearPi_LiteOS/components/connectivity/lwm2m/core\internals.h **** 
 230:C:/Users/lenovo/Desktop/liteos/Project2/BearPi_LiteOS/components/connectivity/lwm2m/core\internals.h **** #define URI_MAX_STRING_LEN    18      // /65535/65535/65535
 231:C:/Users/lenovo/Desktop/liteos/Project2/BearPi_LiteOS/components/connectivity/lwm2m/core\internals.h **** #define _PRV_64BIT_BUFFER_SIZE 8
 232:C:/Users/lenovo/Desktop/liteos/Project2/BearPi_LiteOS/components/connectivity/lwm2m/core\internals.h **** 
 233:C:/Users/lenovo/Desktop/liteos/Project2/BearPi_LiteOS/components/connectivity/lwm2m/core\internals.h **** #define LINK_ITEM_START             "<"
 234:C:/Users/lenovo/Desktop/liteos/Project2/BearPi_LiteOS/components/connectivity/lwm2m/core\internals.h **** #define LINK_ITEM_START_SIZE        1
 235:C:/Users/lenovo/Desktop/liteos/Project2/BearPi_LiteOS/components/connectivity/lwm2m/core\internals.h **** #define LINK_ITEM_END               ">,"
 236:C:/Users/lenovo/Desktop/liteos/Project2/BearPi_LiteOS/components/connectivity/lwm2m/core\internals.h **** #define LINK_ITEM_END_SIZE          2
 237:C:/Users/lenovo/Desktop/liteos/Project2/BearPi_LiteOS/components/connectivity/lwm2m/core\internals.h **** #define LINK_ITEM_DIM_START         ">;dim="
 238:C:/Users/lenovo/Desktop/liteos/Project2/BearPi_LiteOS/components/connectivity/lwm2m/core\internals.h **** #define LINK_ITEM_DIM_START_SIZE    6
 239:C:/Users/lenovo/Desktop/liteos/Project2/BearPi_LiteOS/components/connectivity/lwm2m/core\internals.h **** #define LINK_ITEM_ATTR_END          ","
 240:C:/Users/lenovo/Desktop/liteos/Project2/BearPi_LiteOS/components/connectivity/lwm2m/core\internals.h **** #define LINK_ITEM_ATTR_END_SIZE     1
 241:C:/Users/lenovo/Desktop/liteos/Project2/BearPi_LiteOS/components/connectivity/lwm2m/core\internals.h **** #define LINK_URI_SEPARATOR          "/"
 242:C:/Users/lenovo/Desktop/liteos/Project2/BearPi_LiteOS/components/connectivity/lwm2m/core\internals.h **** #define LINK_URI_SEPARATOR_SIZE     1
 243:C:/Users/lenovo/Desktop/liteos/Project2/BearPi_LiteOS/components/connectivity/lwm2m/core\internals.h **** #define LINK_ATTR_SEPARATOR         ";"
 244:C:/Users/lenovo/Desktop/liteos/Project2/BearPi_LiteOS/components/connectivity/lwm2m/core\internals.h **** #define LINK_ATTR_SEPARATOR_SIZE    1
 245:C:/Users/lenovo/Desktop/liteos/Project2/BearPi_LiteOS/components/connectivity/lwm2m/core\internals.h **** 
 246:C:/Users/lenovo/Desktop/liteos/Project2/BearPi_LiteOS/components/connectivity/lwm2m/core\internals.h **** #define ATTR_FLAG_NUMERIC (uint8_t)(LWM2M_ATTR_FLAG_LESS_THAN | LWM2M_ATTR_FLAG_GREATER_THAN | LWM2
 247:C:/Users/lenovo/Desktop/liteos/Project2/BearPi_LiteOS/components/connectivity/lwm2m/core\internals.h **** 
 248:C:/Users/lenovo/Desktop/liteos/Project2/BearPi_LiteOS/components/connectivity/lwm2m/core\internals.h **** #define LWM2M_URI_FLAG_DM           (uint8_t)0x00
 249:C:/Users/lenovo/Desktop/liteos/Project2/BearPi_LiteOS/components/connectivity/lwm2m/core\internals.h **** #define LWM2M_URI_FLAG_DELETE_ALL   (uint8_t)0x10
 250:C:/Users/lenovo/Desktop/liteos/Project2/BearPi_LiteOS/components/connectivity/lwm2m/core\internals.h **** #define LWM2M_URI_FLAG_REGISTRATION (uint8_t)0x20
 251:C:/Users/lenovo/Desktop/liteos/Project2/BearPi_LiteOS/components/connectivity/lwm2m/core\internals.h **** #define LWM2M_URI_FLAG_BOOTSTRAP    (uint8_t)0x40
 252:C:/Users/lenovo/Desktop/liteos/Project2/BearPi_LiteOS/components/connectivity/lwm2m/core\internals.h **** 
 253:C:/Users/lenovo/Desktop/liteos/Project2/BearPi_LiteOS/components/connectivity/lwm2m/core\internals.h **** #define LWM2M_URI_MASK_TYPE (uint8_t)0x70
 254:C:/Users/lenovo/Desktop/liteos/Project2/BearPi_LiteOS/components/connectivity/lwm2m/core\internals.h **** #define LWM2M_URI_MASK_ID   (uint8_t)0x07
 255:C:/Users/lenovo/Desktop/liteos/Project2/BearPi_LiteOS/components/connectivity/lwm2m/core\internals.h **** 
 256:C:/Users/lenovo/Desktop/liteos/Project2/BearPi_LiteOS/components/connectivity/lwm2m/core\internals.h **** typedef struct
 257:C:/Users/lenovo/Desktop/liteos/Project2/BearPi_LiteOS/components/connectivity/lwm2m/core\internals.h **** {
 258:C:/Users/lenovo/Desktop/liteos/Project2/BearPi_LiteOS/components/connectivity/lwm2m/core\internals.h ****     uint16_t clientID;
 259:C:/Users/lenovo/Desktop/liteos/Project2/BearPi_LiteOS/components/connectivity/lwm2m/core\internals.h ****     lwm2m_uri_t uri;
 260:C:/Users/lenovo/Desktop/liteos/Project2/BearPi_LiteOS/components/connectivity/lwm2m/core\internals.h ****     lwm2m_result_callback_t callback;
 261:C:/Users/lenovo/Desktop/liteos/Project2/BearPi_LiteOS/components/connectivity/lwm2m/core\internals.h ****     void * userData;
 262:C:/Users/lenovo/Desktop/liteos/Project2/BearPi_LiteOS/components/connectivity/lwm2m/core\internals.h **** } dm_data_t;
 263:C:/Users/lenovo/Desktop/liteos/Project2/BearPi_LiteOS/components/connectivity/lwm2m/core\internals.h **** 
 264:C:/Users/lenovo/Desktop/liteos/Project2/BearPi_LiteOS/components/connectivity/lwm2m/core\internals.h **** typedef enum
 265:C:/Users/lenovo/Desktop/liteos/Project2/BearPi_LiteOS/components/connectivity/lwm2m/core\internals.h **** {
 266:C:/Users/lenovo/Desktop/liteos/Project2/BearPi_LiteOS/components/connectivity/lwm2m/core\internals.h ****     URI_DEPTH_OBJECT,
 267:C:/Users/lenovo/Desktop/liteos/Project2/BearPi_LiteOS/components/connectivity/lwm2m/core\internals.h ****     URI_DEPTH_OBJECT_INSTANCE,
 268:C:/Users/lenovo/Desktop/liteos/Project2/BearPi_LiteOS/components/connectivity/lwm2m/core\internals.h ****     URI_DEPTH_RESOURCE,
 269:C:/Users/lenovo/Desktop/liteos/Project2/BearPi_LiteOS/components/connectivity/lwm2m/core\internals.h ****     URI_DEPTH_RESOURCE_INSTANCE
 270:C:/Users/lenovo/Desktop/liteos/Project2/BearPi_LiteOS/components/connectivity/lwm2m/core\internals.h **** } uri_depth_t;
 271:C:/Users/lenovo/Desktop/liteos/Project2/BearPi_LiteOS/components/connectivity/lwm2m/core\internals.h **** 
 272:C:/Users/lenovo/Desktop/liteos/Project2/BearPi_LiteOS/components/connectivity/lwm2m/core\internals.h **** #ifdef LWM2M_BOOTSTRAP_SERVER_MODE
 273:C:/Users/lenovo/Desktop/liteos/Project2/BearPi_LiteOS/components/connectivity/lwm2m/core\internals.h **** typedef struct
 274:C:/Users/lenovo/Desktop/liteos/Project2/BearPi_LiteOS/components/connectivity/lwm2m/core\internals.h **** {
 275:C:/Users/lenovo/Desktop/liteos/Project2/BearPi_LiteOS/components/connectivity/lwm2m/core\internals.h ****     bool        isUri;
 276:C:/Users/lenovo/Desktop/liteos/Project2/BearPi_LiteOS/components/connectivity/lwm2m/core\internals.h ****     lwm2m_uri_t uri;
 277:C:/Users/lenovo/Desktop/liteos/Project2/BearPi_LiteOS/components/connectivity/lwm2m/core\internals.h ****     lwm2m_bootstrap_callback_t callback;
ARM GAS  c:\Users\lenovo\AppData\Local\Temp\ccyyQBE5.s 			page 22


 278:C:/Users/lenovo/Desktop/liteos/Project2/BearPi_LiteOS/components/connectivity/lwm2m/core\internals.h ****     void *      userData;
 279:C:/Users/lenovo/Desktop/liteos/Project2/BearPi_LiteOS/components/connectivity/lwm2m/core\internals.h **** } bs_data_t;
 280:C:/Users/lenovo/Desktop/liteos/Project2/BearPi_LiteOS/components/connectivity/lwm2m/core\internals.h **** #endif
 281:C:/Users/lenovo/Desktop/liteos/Project2/BearPi_LiteOS/components/connectivity/lwm2m/core\internals.h **** 
 282:C:/Users/lenovo/Desktop/liteos/Project2/BearPi_LiteOS/components/connectivity/lwm2m/core\internals.h **** // defined in uri.c
 283:C:/Users/lenovo/Desktop/liteos/Project2/BearPi_LiteOS/components/connectivity/lwm2m/core\internals.h **** lwm2m_uri_t * uri_decode(char * altPath, multi_option_t *uriPath);
 284:C:/Users/lenovo/Desktop/liteos/Project2/BearPi_LiteOS/components/connectivity/lwm2m/core\internals.h **** int uri_getNumber(uint8_t * uriString, size_t uriLength);
 285:C:/Users/lenovo/Desktop/liteos/Project2/BearPi_LiteOS/components/connectivity/lwm2m/core\internals.h **** int uri_toString(lwm2m_uri_t * uriP, uint8_t * buffer, size_t bufferLen, uri_depth_t * depthP);
 286:C:/Users/lenovo/Desktop/liteos/Project2/BearPi_LiteOS/components/connectivity/lwm2m/core\internals.h **** 
 287:C:/Users/lenovo/Desktop/liteos/Project2/BearPi_LiteOS/components/connectivity/lwm2m/core\internals.h **** // defined in objects.c
 288:C:/Users/lenovo/Desktop/liteos/Project2/BearPi_LiteOS/components/connectivity/lwm2m/core\internals.h **** uint8_t object_readData(lwm2m_context_t * contextP, lwm2m_uri_t * uriP, int * sizeP, lwm2m_data_t *
 289:C:/Users/lenovo/Desktop/liteos/Project2/BearPi_LiteOS/components/connectivity/lwm2m/core\internals.h **** uint8_t object_read(lwm2m_context_t * contextP, lwm2m_uri_t * uriP, lwm2m_media_type_t * formatP, u
 290:C:/Users/lenovo/Desktop/liteos/Project2/BearPi_LiteOS/components/connectivity/lwm2m/core\internals.h **** uint8_t object_write(lwm2m_context_t * contextP, lwm2m_uri_t * uriP, lwm2m_media_type_t format, uin
 291:C:/Users/lenovo/Desktop/liteos/Project2/BearPi_LiteOS/components/connectivity/lwm2m/core\internals.h **** uint8_t object_create(lwm2m_context_t * contextP, lwm2m_uri_t * uriP, lwm2m_media_type_t format, ui
 292:C:/Users/lenovo/Desktop/liteos/Project2/BearPi_LiteOS/components/connectivity/lwm2m/core\internals.h **** uint8_t object_execute(lwm2m_context_t * contextP, lwm2m_uri_t * uriP, uint8_t * buffer, size_t len
 293:C:/Users/lenovo/Desktop/liteos/Project2/BearPi_LiteOS/components/connectivity/lwm2m/core\internals.h **** uint8_t object_delete(lwm2m_context_t * contextP, lwm2m_uri_t * uriP);
 294:C:/Users/lenovo/Desktop/liteos/Project2/BearPi_LiteOS/components/connectivity/lwm2m/core\internals.h **** uint8_t object_discover(lwm2m_context_t * contextP, lwm2m_uri_t * uriP, lwm2m_server_t * serverP, u
 295:C:/Users/lenovo/Desktop/liteos/Project2/BearPi_LiteOS/components/connectivity/lwm2m/core\internals.h **** uint8_t object_checkReadable(lwm2m_context_t * contextP, lwm2m_uri_t * uriP);
 296:C:/Users/lenovo/Desktop/liteos/Project2/BearPi_LiteOS/components/connectivity/lwm2m/core\internals.h **** uint8_t object_checkNumeric(lwm2m_context_t * contextP, lwm2m_uri_t * uriP);
 297:C:/Users/lenovo/Desktop/liteos/Project2/BearPi_LiteOS/components/connectivity/lwm2m/core\internals.h **** bool object_isInstanceNew(lwm2m_context_t * contextP, uint16_t objectId, uint16_t instanceId);
 298:C:/Users/lenovo/Desktop/liteos/Project2/BearPi_LiteOS/components/connectivity/lwm2m/core\internals.h **** int object_getRegisterPayloadBufferLength(lwm2m_context_t * contextP);
 299:C:/Users/lenovo/Desktop/liteos/Project2/BearPi_LiteOS/components/connectivity/lwm2m/core\internals.h **** int object_getRegisterPayload(lwm2m_context_t * contextP, uint8_t * buffer, size_t length);
 300:C:/Users/lenovo/Desktop/liteos/Project2/BearPi_LiteOS/components/connectivity/lwm2m/core\internals.h **** int object_getServers(lwm2m_context_t * contextP, bool checkOnly);
 301:C:/Users/lenovo/Desktop/liteos/Project2/BearPi_LiteOS/components/connectivity/lwm2m/core\internals.h **** uint8_t object_createInstance(lwm2m_context_t * contextP, lwm2m_uri_t * uriP, lwm2m_data_t * dataP)
 302:C:/Users/lenovo/Desktop/liteos/Project2/BearPi_LiteOS/components/connectivity/lwm2m/core\internals.h **** uint8_t object_writeInstance(lwm2m_context_t * contextP, lwm2m_uri_t * uriP, lwm2m_data_t * dataP);
 303:C:/Users/lenovo/Desktop/liteos/Project2/BearPi_LiteOS/components/connectivity/lwm2m/core\internals.h **** 
 304:C:/Users/lenovo/Desktop/liteos/Project2/BearPi_LiteOS/components/connectivity/lwm2m/core\internals.h **** // defined in transaction.c
 305:C:/Users/lenovo/Desktop/liteos/Project2/BearPi_LiteOS/components/connectivity/lwm2m/core\internals.h **** lwm2m_transaction_t * transaction_new(void * sessionH, unsigned char method, char * altPath, lwm2m_
 306:C:/Users/lenovo/Desktop/liteos/Project2/BearPi_LiteOS/components/connectivity/lwm2m/core\internals.h **** int transaction_send(lwm2m_context_t * contextP, lwm2m_transaction_t * transacP);
 307:C:/Users/lenovo/Desktop/liteos/Project2/BearPi_LiteOS/components/connectivity/lwm2m/core\internals.h **** void transaction_free(lwm2m_transaction_t * transacP);
 308:C:/Users/lenovo/Desktop/liteos/Project2/BearPi_LiteOS/components/connectivity/lwm2m/core\internals.h **** void transaction_remove(lwm2m_context_t * contextP, lwm2m_transaction_t * transacP);
 309:C:/Users/lenovo/Desktop/liteos/Project2/BearPi_LiteOS/components/connectivity/lwm2m/core\internals.h **** bool transaction_handleResponse(lwm2m_context_t * contextP, void * fromSessionH, coap_packet_t * me
 310:C:/Users/lenovo/Desktop/liteos/Project2/BearPi_LiteOS/components/connectivity/lwm2m/core\internals.h **** void transaction_step(lwm2m_context_t * contextP, time_t currentTime, time_t * timeoutP);
 311:C:/Users/lenovo/Desktop/liteos/Project2/BearPi_LiteOS/components/connectivity/lwm2m/core\internals.h **** 
 312:C:/Users/lenovo/Desktop/liteos/Project2/BearPi_LiteOS/components/connectivity/lwm2m/core\internals.h **** // defined in management.c
 313:C:/Users/lenovo/Desktop/liteos/Project2/BearPi_LiteOS/components/connectivity/lwm2m/core\internals.h **** uint8_t dm_handleRequest(lwm2m_context_t * contextP, lwm2m_uri_t * uriP, lwm2m_server_t * serverP, 
 314:C:/Users/lenovo/Desktop/liteos/Project2/BearPi_LiteOS/components/connectivity/lwm2m/core\internals.h **** 
 315:C:/Users/lenovo/Desktop/liteos/Project2/BearPi_LiteOS/components/connectivity/lwm2m/core\internals.h **** // defined in observe.c
 316:C:/Users/lenovo/Desktop/liteos/Project2/BearPi_LiteOS/components/connectivity/lwm2m/core\internals.h **** uint8_t observe_handleRequest(lwm2m_context_t * contextP, lwm2m_uri_t * uriP, lwm2m_server_t * serv
 317:C:/Users/lenovo/Desktop/liteos/Project2/BearPi_LiteOS/components/connectivity/lwm2m/core\internals.h **** void observe_cancel(lwm2m_context_t * contextP, uint16_t mid, void * fromSessionH);
 318:C:/Users/lenovo/Desktop/liteos/Project2/BearPi_LiteOS/components/connectivity/lwm2m/core\internals.h **** uint8_t observe_setParameters(lwm2m_context_t * contextP, lwm2m_uri_t * uriP, lwm2m_server_t * serv
 319:C:/Users/lenovo/Desktop/liteos/Project2/BearPi_LiteOS/components/connectivity/lwm2m/core\internals.h **** void observe_step(lwm2m_context_t * contextP, time_t currentTime, time_t * timeoutP);
 320:C:/Users/lenovo/Desktop/liteos/Project2/BearPi_LiteOS/components/connectivity/lwm2m/core\internals.h **** void observe_clear(lwm2m_context_t * contextP, lwm2m_uri_t * uriP);
 321:C:/Users/lenovo/Desktop/liteos/Project2/BearPi_LiteOS/components/connectivity/lwm2m/core\internals.h **** //bool observe_handleNotify(lwm2m_context_t * contextP, void * fromSessionH, coap_packet_t * messag
 322:C:/Users/lenovo/Desktop/liteos/Project2/BearPi_LiteOS/components/connectivity/lwm2m/core\internals.h **** void observe_remove(lwm2m_observation_t * observationP);
 323:C:/Users/lenovo/Desktop/liteos/Project2/BearPi_LiteOS/components/connectivity/lwm2m/core\internals.h **** lwm2m_observed_t * observe_findByUri(lwm2m_context_t * contextP, lwm2m_uri_t * uriP);
 324:C:/Users/lenovo/Desktop/liteos/Project2/BearPi_LiteOS/components/connectivity/lwm2m/core\internals.h **** 
 325:C:/Users/lenovo/Desktop/liteos/Project2/BearPi_LiteOS/components/connectivity/lwm2m/core\internals.h **** // defined in registration.c
 326:C:/Users/lenovo/Desktop/liteos/Project2/BearPi_LiteOS/components/connectivity/lwm2m/core\internals.h **** //uint8_t registration_handleRequest(lwm2m_context_t * contextP, lwm2m_uri_t * uriP, void * fromSes
 327:C:/Users/lenovo/Desktop/liteos/Project2/BearPi_LiteOS/components/connectivity/lwm2m/core\internals.h **** void registration_deregister(lwm2m_context_t * contextP, lwm2m_server_t * serverP);
 328:C:/Users/lenovo/Desktop/liteos/Project2/BearPi_LiteOS/components/connectivity/lwm2m/core\internals.h **** void registration_freeClient(lwm2m_client_t * clientP);
 329:C:/Users/lenovo/Desktop/liteos/Project2/BearPi_LiteOS/components/connectivity/lwm2m/core\internals.h **** uint8_t registration_start(lwm2m_context_t * contextP);
 330:C:/Users/lenovo/Desktop/liteos/Project2/BearPi_LiteOS/components/connectivity/lwm2m/core\internals.h **** void registration_step(lwm2m_context_t * contextP, time_t currentTime, time_t * timeoutP);
 331:C:/Users/lenovo/Desktop/liteos/Project2/BearPi_LiteOS/components/connectivity/lwm2m/core\internals.h **** lwm2m_status_t registration_getStatus(lwm2m_context_t * contextP);
 332:C:/Users/lenovo/Desktop/liteos/Project2/BearPi_LiteOS/components/connectivity/lwm2m/core\internals.h **** void registration_reset(lwm2m_context_t * contextP, lwm2m_server_t * serverP);
 333:C:/Users/lenovo/Desktop/liteos/Project2/BearPi_LiteOS/components/connectivity/lwm2m/core\internals.h **** 
 334:C:/Users/lenovo/Desktop/liteos/Project2/BearPi_LiteOS/components/connectivity/lwm2m/core\internals.h **** // defined in packet.c
ARM GAS  c:\Users\lenovo\AppData\Local\Temp\ccyyQBE5.s 			page 23


 335:C:/Users/lenovo/Desktop/liteos/Project2/BearPi_LiteOS/components/connectivity/lwm2m/core\internals.h **** uint8_t message_send(lwm2m_context_t * contextP, coap_packet_t * message, void * sessionH);
 336:C:/Users/lenovo/Desktop/liteos/Project2/BearPi_LiteOS/components/connectivity/lwm2m/core\internals.h **** 
 337:C:/Users/lenovo/Desktop/liteos/Project2/BearPi_LiteOS/components/connectivity/lwm2m/core\internals.h **** // defined in bootstrap.c
 338:C:/Users/lenovo/Desktop/liteos/Project2/BearPi_LiteOS/components/connectivity/lwm2m/core\internals.h **** void bootstrap_step(lwm2m_context_t * contextP, uint32_t currentTime, time_t* timeoutP);
 339:C:/Users/lenovo/Desktop/liteos/Project2/BearPi_LiteOS/components/connectivity/lwm2m/core\internals.h **** uint8_t bootstrap_handleCommand(lwm2m_context_t * contextP, lwm2m_uri_t * uriP, lwm2m_server_t * se
 340:C:/Users/lenovo/Desktop/liteos/Project2/BearPi_LiteOS/components/connectivity/lwm2m/core\internals.h **** uint8_t bootstrap_handleDeleteAll(lwm2m_context_t * context, void * fromSessionH);
 341:C:/Users/lenovo/Desktop/liteos/Project2/BearPi_LiteOS/components/connectivity/lwm2m/core\internals.h **** uint8_t bootstrap_handleFinish(lwm2m_context_t * context, void * fromSessionH);
 342:C:/Users/lenovo/Desktop/liteos/Project2/BearPi_LiteOS/components/connectivity/lwm2m/core\internals.h **** uint8_t bootstrap_handleRequest(lwm2m_context_t * contextP, lwm2m_uri_t * uriP, void * fromSessionH
 343:C:/Users/lenovo/Desktop/liteos/Project2/BearPi_LiteOS/components/connectivity/lwm2m/core\internals.h **** void bootstrap_start(lwm2m_context_t * contextP);
 344:C:/Users/lenovo/Desktop/liteos/Project2/BearPi_LiteOS/components/connectivity/lwm2m/core\internals.h **** lwm2m_status_t bootstrap_getStatus(lwm2m_context_t * contextP);
 345:C:/Users/lenovo/Desktop/liteos/Project2/BearPi_LiteOS/components/connectivity/lwm2m/core\internals.h **** bool bootstrap_isBsServerIpValid(const lwm2m_context_t *contextP);
 346:C:/Users/lenovo/Desktop/liteos/Project2/BearPi_LiteOS/components/connectivity/lwm2m/core\internals.h **** 
 347:C:/Users/lenovo/Desktop/liteos/Project2/BearPi_LiteOS/components/connectivity/lwm2m/core\internals.h **** 
 348:C:/Users/lenovo/Desktop/liteos/Project2/BearPi_LiteOS/components/connectivity/lwm2m/core\internals.h **** // defined in tlv.c
 349:C:/Users/lenovo/Desktop/liteos/Project2/BearPi_LiteOS/components/connectivity/lwm2m/core\internals.h **** int tlv_parse(uint8_t * buffer, size_t bufferLen, lwm2m_data_t ** dataP);
 350:C:/Users/lenovo/Desktop/liteos/Project2/BearPi_LiteOS/components/connectivity/lwm2m/core\internals.h **** int tlv_serialize(bool isResourceInstance, int size, lwm2m_data_t * dataP, uint8_t ** bufferP);
 351:C:/Users/lenovo/Desktop/liteos/Project2/BearPi_LiteOS/components/connectivity/lwm2m/core\internals.h **** 
 352:C:/Users/lenovo/Desktop/liteos/Project2/BearPi_LiteOS/components/connectivity/lwm2m/core\internals.h **** // defined in json.c
 353:C:/Users/lenovo/Desktop/liteos/Project2/BearPi_LiteOS/components/connectivity/lwm2m/core\internals.h **** #ifdef LWM2M_SUPPORT_JSON
 354:C:/Users/lenovo/Desktop/liteos/Project2/BearPi_LiteOS/components/connectivity/lwm2m/core\internals.h **** int json_parse(lwm2m_uri_t * uriP, uint8_t * buffer, size_t bufferLen, lwm2m_data_t ** dataP);
 355:C:/Users/lenovo/Desktop/liteos/Project2/BearPi_LiteOS/components/connectivity/lwm2m/core\internals.h **** int json_serialize(lwm2m_uri_t * uriP, int size, lwm2m_data_t * tlvP, uint8_t ** bufferP);
 356:C:/Users/lenovo/Desktop/liteos/Project2/BearPi_LiteOS/components/connectivity/lwm2m/core\internals.h **** #endif
 357:C:/Users/lenovo/Desktop/liteos/Project2/BearPi_LiteOS/components/connectivity/lwm2m/core\internals.h **** 
 358:C:/Users/lenovo/Desktop/liteos/Project2/BearPi_LiteOS/components/connectivity/lwm2m/core\internals.h **** // defined in discover.c
 359:C:/Users/lenovo/Desktop/liteos/Project2/BearPi_LiteOS/components/connectivity/lwm2m/core\internals.h **** int discover_serialize(lwm2m_context_t * contextP, lwm2m_uri_t * uriP, lwm2m_server_t * serverP, in
 360:C:/Users/lenovo/Desktop/liteos/Project2/BearPi_LiteOS/components/connectivity/lwm2m/core\internals.h **** 
 361:C:/Users/lenovo/Desktop/liteos/Project2/BearPi_LiteOS/components/connectivity/lwm2m/core\internals.h **** // defined in block1.c
 362:C:/Users/lenovo/Desktop/liteos/Project2/BearPi_LiteOS/components/connectivity/lwm2m/core\internals.h **** uint8_t coap_block1_handler(lwm2m_block1_data_t ** block1Data, uint16_t mid, uint8_t * buffer, size
 363:C:/Users/lenovo/Desktop/liteos/Project2/BearPi_LiteOS/components/connectivity/lwm2m/core\internals.h **** void free_block1_buffer(lwm2m_block1_data_t * block1Data);
 364:C:/Users/lenovo/Desktop/liteos/Project2/BearPi_LiteOS/components/connectivity/lwm2m/core\internals.h **** 
 365:C:/Users/lenovo/Desktop/liteos/Project2/BearPi_LiteOS/components/connectivity/lwm2m/core\internals.h **** // defined in utils.c
 366:C:/Users/lenovo/Desktop/liteos/Project2/BearPi_LiteOS/components/connectivity/lwm2m/core\internals.h **** lwm2m_data_type_t utils_depthToDatatype(uri_depth_t depth);
 367:C:/Users/lenovo/Desktop/liteos/Project2/BearPi_LiteOS/components/connectivity/lwm2m/core\internals.h **** lwm2m_binding_t utils_stringToBinding(uint8_t *buffer, size_t length);
 368:C:/Users/lenovo/Desktop/liteos/Project2/BearPi_LiteOS/components/connectivity/lwm2m/core\internals.h **** lwm2m_media_type_t utils_convertMediaType(coap_content_type_t type);
 369:C:/Users/lenovo/Desktop/liteos/Project2/BearPi_LiteOS/components/connectivity/lwm2m/core\internals.h **** int utils_isAltPathValid(const char * altPath);
 370:C:/Users/lenovo/Desktop/liteos/Project2/BearPi_LiteOS/components/connectivity/lwm2m/core\internals.h **** int utils_stringCopy(char * buffer, size_t length, const char * str);
 371:C:/Users/lenovo/Desktop/liteos/Project2/BearPi_LiteOS/components/connectivity/lwm2m/core\internals.h **** size_t utils_intToText(int64_t data, uint8_t * string, size_t length);
 372:C:/Users/lenovo/Desktop/liteos/Project2/BearPi_LiteOS/components/connectivity/lwm2m/core\internals.h **** size_t utils_floatToText(double data, uint8_t * string, size_t length);
 373:C:/Users/lenovo/Desktop/liteos/Project2/BearPi_LiteOS/components/connectivity/lwm2m/core\internals.h **** int utils_textToInt(uint8_t * buffer, int length, int64_t * dataP);
 374:C:/Users/lenovo/Desktop/liteos/Project2/BearPi_LiteOS/components/connectivity/lwm2m/core\internals.h **** int utils_textToFloat(uint8_t * buffer, int length, double * dataP);
 375:C:/Users/lenovo/Desktop/liteos/Project2/BearPi_LiteOS/components/connectivity/lwm2m/core\internals.h **** void utils_copyValue(void * dst, const void * src, size_t len);
 376:C:/Users/lenovo/Desktop/liteos/Project2/BearPi_LiteOS/components/connectivity/lwm2m/core\internals.h **** size_t utils_base64GetSize(size_t dataLen);
 377:C:/Users/lenovo/Desktop/liteos/Project2/BearPi_LiteOS/components/connectivity/lwm2m/core\internals.h **** size_t utils_base64Encode(uint8_t * dataP, size_t dataLen, uint8_t * bufferP, size_t bufferLen);
 378:C:/Users/lenovo/Desktop/liteos/Project2/BearPi_LiteOS/components/connectivity/lwm2m/core\internals.h **** #ifdef LWM2M_CLIENT_MODE
 379:C:/Users/lenovo/Desktop/liteos/Project2/BearPi_LiteOS/components/connectivity/lwm2m/core\internals.h **** lwm2m_server_t * utils_findServer(lwm2m_context_t * contextP, void * fromSessionH);
 380:C:/Users/lenovo/Desktop/liteos/Project2/BearPi_LiteOS/components/connectivity/lwm2m/core\internals.h **** lwm2m_server_t * utils_findBootstrapServer(lwm2m_context_t * contextP, void * fromSessionH);
 381:C:/Users/lenovo/Desktop/liteos/Project2/BearPi_LiteOS/components/connectivity/lwm2m/core\internals.h **** #endif
 382:C:/Users/lenovo/Desktop/liteos/Project2/BearPi_LiteOS/components/connectivity/lwm2m/core\internals.h **** static inline int dm_isUriOpaqueHandle(const lwm2m_uri_t * uriP)
 383:C:/Users/lenovo/Desktop/liteos/Project2/BearPi_LiteOS/components/connectivity/lwm2m/core\internals.h **** {
 384:C:/Users/lenovo/Desktop/liteos/Project2/BearPi_LiteOS/components/connectivity/lwm2m/core\internals.h ****     return (19 == uriP->objectId);
 636              		.loc 2 384 0
 637 009a 6388     		ldrh	r3, [r4, #2]
 638              	.LVL28:
 639              	.LBE11:
 640              	.LBE10:
 210:C:/Users/lenovo/Desktop/liteos/Project2/BearPi_LiteOS/components/connectivity/lwm2m/core\management.c ****     {
 211:C:/Users/lenovo/Desktop/liteos/Project2/BearPi_LiteOS/components/connectivity/lwm2m/core\management.c ****         format = utils_convertMediaType(message->content_type);
ARM GAS  c:\Users\lenovo\AppData\Local\Temp\ccyyQBE5.s 			page 24


 212:C:/Users/lenovo/Desktop/liteos/Project2/BearPi_LiteOS/components/connectivity/lwm2m/core\management.c ****     }
 213:C:/Users/lenovo/Desktop/liteos/Project2/BearPi_LiteOS/components/connectivity/lwm2m/core\management.c ****     else
 214:C:/Users/lenovo/Desktop/liteos/Project2/BearPi_LiteOS/components/connectivity/lwm2m/core\management.c ****     {
 215:C:/Users/lenovo/Desktop/liteos/Project2/BearPi_LiteOS/components/connectivity/lwm2m/core\management.c ****         format = (dm_isUriOpaqueHandle(uriP) ? LWM2M_CONTENT_OPAQUE : LWM2M_CONTENT_TLV);
 641              		.loc 1 215 0
 642 009c 132B     		cmp	r3, #19
 643 009e 44D0     		beq	.L112
 644 00a0 42F61653 		movw	r3, #11542
 645              	.L56:
 646              		.loc 1 215 0 is_stmt 0 discriminator 4
 647 00a4 ADF85630 		strh	r3, [sp, #86]	@ movhi
 648              	.L55:
 216:C:/Users/lenovo/Desktop/liteos/Project2/BearPi_LiteOS/components/connectivity/lwm2m/core\management.c **** 
 217:C:/Users/lenovo/Desktop/liteos/Project2/BearPi_LiteOS/components/connectivity/lwm2m/core\management.c ****     }
 218:C:/Users/lenovo/Desktop/liteos/Project2/BearPi_LiteOS/components/connectivity/lwm2m/core\management.c **** 
 219:C:/Users/lenovo/Desktop/liteos/Project2/BearPi_LiteOS/components/connectivity/lwm2m/core\management.c ****     if (uriP->objectId == LWM2M_SECURITY_OBJECT_ID)
 649              		.loc 1 219 0 is_stmt 1
 650 00a8 6388     		ldrh	r3, [r4, #2]
 651 00aa 002B     		cmp	r3, #0
 652 00ac 00F0FD81 		beq	.L99
 220:C:/Users/lenovo/Desktop/liteos/Project2/BearPi_LiteOS/components/connectivity/lwm2m/core\management.c ****     {
 221:C:/Users/lenovo/Desktop/liteos/Project2/BearPi_LiteOS/components/connectivity/lwm2m/core\management.c ****         return COAP_404_NOT_FOUND;
 222:C:/Users/lenovo/Desktop/liteos/Project2/BearPi_LiteOS/components/connectivity/lwm2m/core\management.c ****     }
 223:C:/Users/lenovo/Desktop/liteos/Project2/BearPi_LiteOS/components/connectivity/lwm2m/core\management.c **** 
 224:C:/Users/lenovo/Desktop/liteos/Project2/BearPi_LiteOS/components/connectivity/lwm2m/core\management.c ****     if (serverP->status != STATE_REGISTERED
 653              		.loc 1 224 0
 654 00b0 96F82030 		ldrb	r3, [r6, #32]	@ zero_extendqisi2
 655 00b4 022B     		cmp	r3, #2
 656 00b6 3AD0     		beq	.L58
 225:C:/Users/lenovo/Desktop/liteos/Project2/BearPi_LiteOS/components/connectivity/lwm2m/core\management.c ****             && serverP->status != STATE_REG_UPDATE_NEEDED
 657              		.loc 1 225 0
 658 00b8 052B     		cmp	r3, #5
 659 00ba 38D0     		beq	.L58
 226:C:/Users/lenovo/Desktop/liteos/Project2/BearPi_LiteOS/components/connectivity/lwm2m/core\management.c ****             && serverP->status != STATE_REG_FULL_UPDATE_NEEDED
 660              		.loc 1 226 0
 661 00bc 062B     		cmp	r3, #6
 662 00be 36D0     		beq	.L58
 227:C:/Users/lenovo/Desktop/liteos/Project2/BearPi_LiteOS/components/connectivity/lwm2m/core\management.c ****             && serverP->status != STATE_REG_UPDATE_PENDING)
 663              		.loc 1 227 0
 664 00c0 042B     		cmp	r3, #4
 665 00c2 34D0     		beq	.L58
 228:C:/Users/lenovo/Desktop/liteos/Project2/BearPi_LiteOS/components/connectivity/lwm2m/core\management.c ****     {
 229:C:/Users/lenovo/Desktop/liteos/Project2/BearPi_LiteOS/components/connectivity/lwm2m/core\management.c ****         return COAP_IGNORE;
 666              		.loc 1 229 0
 667 00c4 4FF00108 		mov	r8, #1
 668 00c8 F1E1     		b	.L57
 669              	.L84:
 206:C:/Users/lenovo/Desktop/liteos/Project2/BearPi_LiteOS/components/connectivity/lwm2m/core\management.c ****     LOG_URI(uriP);
 670              		.loc 1 206 0
 671 00ca 884B     		ldr	r3, .L123+28
 672 00cc C7E7     		b	.L49
 673              	.L85:
 674 00ce 884B     		ldr	r3, .L123+32
 675 00d0 C5E7     		b	.L49
 676              	.L86:
 677 00d2 884B     		ldr	r3, .L123+36
 678 00d4 C3E7     		b	.L49
ARM GAS  c:\Users\lenovo\AppData\Local\Temp\ccyyQBE5.s 			page 25


 679              	.L87:
 680 00d6 884B     		ldr	r3, .L123+40
 681 00d8 C1E7     		b	.L49
 682              	.L88:
 683 00da 884B     		ldr	r3, .L123+44
 684 00dc BFE7     		b	.L49
 685              	.L89:
 686 00de 884B     		ldr	r3, .L123+48
 687 00e0 BDE7     		b	.L49
 688              	.L90:
 689 00e2 884B     		ldr	r3, .L123+52
 690 00e4 BBE7     		b	.L49
 691              	.L91:
 692 00e6 884B     		ldr	r3, .L123+56
 693 00e8 B9E7     		b	.L49
 694              	.L92:
 695 00ea 884B     		ldr	r3, .L123+60
 696 00ec B7E7     		b	.L49
 697              	.L93:
 698 00ee 884B     		ldr	r3, .L123+64
 699 00f0 B5E7     		b	.L49
 700              	.L94:
 701 00f2 884B     		ldr	r3, .L123+68
 702 00f4 B3E7     		b	.L49
 703              	.L95:
 704 00f6 884B     		ldr	r3, .L123+72
 705 00f8 B1E7     		b	.L49
 706              	.L96:
 707 00fa 884B     		ldr	r3, .L123+76
 708 00fc AFE7     		b	.L49
 709              	.L108:
 207:C:/Users/lenovo/Desktop/liteos/Project2/BearPi_LiteOS/components/connectivity/lwm2m/core\management.c **** 
 710              		.loc 1 207 0 discriminator 1
 711 00fe CF22     		movs	r2, #207
 712 0100 7649     		ldr	r1, .L123+12
 713 0102 8748     		ldr	r0, .L123+80
 714 0104 FFF7FEFF 		bl	atiny_printf
 715              	.LVL29:
 716 0108 C3E7     		b	.L51
 717              	.L109:
 207:C:/Users/lenovo/Desktop/liteos/Project2/BearPi_LiteOS/components/connectivity/lwm2m/core\management.c **** 
 718              		.loc 1 207 0 is_stmt 0 discriminator 3
 719 010a A188     		ldrh	r1, [r4, #4]
 720 010c 8548     		ldr	r0, .L123+84
 721 010e FFF7FEFF 		bl	atiny_printf
 722              	.LVL30:
 723 0112 B7E7     		b	.L52
 724              	.L110:
 207:C:/Users/lenovo/Desktop/liteos/Project2/BearPi_LiteOS/components/connectivity/lwm2m/core\management.c **** 
 725              		.loc 1 207 0 discriminator 6
 726 0114 E188     		ldrh	r1, [r4, #6]
 727 0116 8348     		ldr	r0, .L123+84
 728 0118 FFF7FEFF 		bl	atiny_printf
 729              	.LVL31:
 730 011c B6E7     		b	.L53
 731              	.L111:
 211:C:/Users/lenovo/Desktop/liteos/Project2/BearPi_LiteOS/components/connectivity/lwm2m/core\management.c ****     }
ARM GAS  c:\Users\lenovo\AppData\Local\Temp\ccyyQBE5.s 			page 26


 732              		.loc 1 211 0 is_stmt 1
 733 011e 288A     		ldrh	r0, [r5, #16]
 734 0120 FFF7FEFF 		bl	utils_convertMediaType
 735              	.LVL32:
 736 0124 ADF85600 		strh	r0, [sp, #86]	@ movhi
 737 0128 BEE7     		b	.L55
 738              	.L112:
 215:C:/Users/lenovo/Desktop/liteos/Project2/BearPi_LiteOS/components/connectivity/lwm2m/core\management.c **** 
 739              		.loc 1 215 0
 740 012a 2A23     		movs	r3, #42
 741 012c BAE7     		b	.L56
 742              	.L58:
 230:C:/Users/lenovo/Desktop/liteos/Project2/BearPi_LiteOS/components/connectivity/lwm2m/core\management.c ****     }
 231:C:/Users/lenovo/Desktop/liteos/Project2/BearPi_LiteOS/components/connectivity/lwm2m/core\management.c **** 
 232:C:/Users/lenovo/Desktop/liteos/Project2/BearPi_LiteOS/components/connectivity/lwm2m/core\management.c ****     switch (message->code)
 743              		.loc 1 232 0
 744 012e AB79     		ldrb	r3, [r5, #6]	@ zero_extendqisi2
 745 0130 013B     		subs	r3, r3, #1
 746 0132 032B     		cmp	r3, #3
 747 0134 00F2BF81 		bhi	.L101
 748 0138 DFE813F0 		tbh	[pc, r3, lsl #1]
 749              	.L60:
 750 013c 0400     		.2byte	(.L59-.L60)/2
 751 013e FA00     		.2byte	(.L61-.L60)/2
 752 0140 6301     		.2byte	(.L62-.L60)/2
 753 0142 9A01     		.2byte	(.L63-.L60)/2
 754              		.p2align 1
 755              	.L59:
 756              	.LBB12:
 233:C:/Users/lenovo/Desktop/liteos/Project2/BearPi_LiteOS/components/connectivity/lwm2m/core\management.c ****     {
 234:C:/Users/lenovo/Desktop/liteos/Project2/BearPi_LiteOS/components/connectivity/lwm2m/core\management.c ****     case COAP_GET:
 235:C:/Users/lenovo/Desktop/liteos/Project2/BearPi_LiteOS/components/connectivity/lwm2m/core\management.c ****     {
 236:C:/Users/lenovo/Desktop/liteos/Project2/BearPi_LiteOS/components/connectivity/lwm2m/core\management.c ****         uint8_t *buffer = NULL;
 757              		.loc 1 236 0
 758 0144 0023     		movs	r3, #0
 759 0146 0793     		str	r3, [sp, #28]
 237:C:/Users/lenovo/Desktop/liteos/Project2/BearPi_LiteOS/components/connectivity/lwm2m/core\management.c ****         size_t length = 0;
 760              		.loc 1 237 0
 761 0148 0893     		str	r3, [sp, #32]
 238:C:/Users/lenovo/Desktop/liteos/Project2/BearPi_LiteOS/components/connectivity/lwm2m/core\management.c ****         int res;
 239:C:/Users/lenovo/Desktop/liteos/Project2/BearPi_LiteOS/components/connectivity/lwm2m/core\management.c **** 
 240:C:/Users/lenovo/Desktop/liteos/Project2/BearPi_LiteOS/components/connectivity/lwm2m/core\management.c ****         if (IS_OPTION(message, COAP_OPTION_OBSERVE))
 762              		.loc 1 240 0
 763 014a AB7A     		ldrb	r3, [r5, #10]	@ zero_extendqisi2
 764 014c 13F0400F 		tst	r3, #64
 765 0150 2DD1     		bne	.L113
 241:C:/Users/lenovo/Desktop/liteos/Project2/BearPi_LiteOS/components/connectivity/lwm2m/core\management.c ****         {
 242:C:/Users/lenovo/Desktop/liteos/Project2/BearPi_LiteOS/components/connectivity/lwm2m/core\management.c ****             lwm2m_data_t *dataP = NULL;
 243:C:/Users/lenovo/Desktop/liteos/Project2/BearPi_LiteOS/components/connectivity/lwm2m/core\management.c ****             int size = 0;
 244:C:/Users/lenovo/Desktop/liteos/Project2/BearPi_LiteOS/components/connectivity/lwm2m/core\management.c **** 
 245:C:/Users/lenovo/Desktop/liteos/Project2/BearPi_LiteOS/components/connectivity/lwm2m/core\management.c ****             if ((result = acc_auth_operate(contextP, uriP, OBJ_ACC_OBSERVE, serverP->shortID)) != C
 246:C:/Users/lenovo/Desktop/liteos/Project2/BearPi_LiteOS/components/connectivity/lwm2m/core\management.c ****             {
 247:C:/Users/lenovo/Desktop/liteos/Project2/BearPi_LiteOS/components/connectivity/lwm2m/core\management.c ****                 return result;
 248:C:/Users/lenovo/Desktop/liteos/Project2/BearPi_LiteOS/components/connectivity/lwm2m/core\management.c ****             }
 249:C:/Users/lenovo/Desktop/liteos/Project2/BearPi_LiteOS/components/connectivity/lwm2m/core\management.c **** 
 250:C:/Users/lenovo/Desktop/liteos/Project2/BearPi_LiteOS/components/connectivity/lwm2m/core\management.c ****             result = object_readData(contextP, uriP, &size, &dataP, NULL, serverP->shortID);
 251:C:/Users/lenovo/Desktop/liteos/Project2/BearPi_LiteOS/components/connectivity/lwm2m/core\management.c ****             if (COAP_205_CONTENT == result)
ARM GAS  c:\Users\lenovo\AppData\Local\Temp\ccyyQBE5.s 			page 27


 252:C:/Users/lenovo/Desktop/liteos/Project2/BearPi_LiteOS/components/connectivity/lwm2m/core\management.c ****             {
 253:C:/Users/lenovo/Desktop/liteos/Project2/BearPi_LiteOS/components/connectivity/lwm2m/core\management.c ****                 result = observe_handleRequest(contextP, uriP, serverP, size, dataP, message, respo
 254:C:/Users/lenovo/Desktop/liteos/Project2/BearPi_LiteOS/components/connectivity/lwm2m/core\management.c ****                 if (COAP_205_CONTENT == result)
 255:C:/Users/lenovo/Desktop/liteos/Project2/BearPi_LiteOS/components/connectivity/lwm2m/core\management.c ****                 {
 256:C:/Users/lenovo/Desktop/liteos/Project2/BearPi_LiteOS/components/connectivity/lwm2m/core\management.c ****                     if (IS_OPTION(message, COAP_OPTION_ACCEPT))
 257:C:/Users/lenovo/Desktop/liteos/Project2/BearPi_LiteOS/components/connectivity/lwm2m/core\management.c ****                     {
 258:C:/Users/lenovo/Desktop/liteos/Project2/BearPi_LiteOS/components/connectivity/lwm2m/core\management.c ****                         format = utils_convertMediaType((coap_content_type_t)message->accept[0]);
 259:C:/Users/lenovo/Desktop/liteos/Project2/BearPi_LiteOS/components/connectivity/lwm2m/core\management.c ****                     }
 260:C:/Users/lenovo/Desktop/liteos/Project2/BearPi_LiteOS/components/connectivity/lwm2m/core\management.c ****                     else
 261:C:/Users/lenovo/Desktop/liteos/Project2/BearPi_LiteOS/components/connectivity/lwm2m/core\management.c ****                     {
 262:C:/Users/lenovo/Desktop/liteos/Project2/BearPi_LiteOS/components/connectivity/lwm2m/core\management.c ****                         format = LWM2M_CONTENT_TLV;
 263:C:/Users/lenovo/Desktop/liteos/Project2/BearPi_LiteOS/components/connectivity/lwm2m/core\management.c ****                     }
 264:C:/Users/lenovo/Desktop/liteos/Project2/BearPi_LiteOS/components/connectivity/lwm2m/core\management.c **** 
 265:C:/Users/lenovo/Desktop/liteos/Project2/BearPi_LiteOS/components/connectivity/lwm2m/core\management.c ****                     if(dm_isUriOpaqueHandle(uriP))
 266:C:/Users/lenovo/Desktop/liteos/Project2/BearPi_LiteOS/components/connectivity/lwm2m/core\management.c ****                     {
 267:C:/Users/lenovo/Desktop/liteos/Project2/BearPi_LiteOS/components/connectivity/lwm2m/core\management.c ****                         buffer = NULL;
 268:C:/Users/lenovo/Desktop/liteos/Project2/BearPi_LiteOS/components/connectivity/lwm2m/core\management.c ****                         length = 0;
 269:C:/Users/lenovo/Desktop/liteos/Project2/BearPi_LiteOS/components/connectivity/lwm2m/core\management.c ****                         format = LWM2M_CONTENT_OPAQUE;
 270:C:/Users/lenovo/Desktop/liteos/Project2/BearPi_LiteOS/components/connectivity/lwm2m/core\management.c ****                     }
 271:C:/Users/lenovo/Desktop/liteos/Project2/BearPi_LiteOS/components/connectivity/lwm2m/core\management.c ****                     else
 272:C:/Users/lenovo/Desktop/liteos/Project2/BearPi_LiteOS/components/connectivity/lwm2m/core\management.c ****                     {
 273:C:/Users/lenovo/Desktop/liteos/Project2/BearPi_LiteOS/components/connectivity/lwm2m/core\management.c ****                         res = lwm2m_data_serialize(uriP, size, dataP, &format, &buffer);
 274:C:/Users/lenovo/Desktop/liteos/Project2/BearPi_LiteOS/components/connectivity/lwm2m/core\management.c ****                         if (res < 0)
 275:C:/Users/lenovo/Desktop/liteos/Project2/BearPi_LiteOS/components/connectivity/lwm2m/core\management.c ****                         {
 276:C:/Users/lenovo/Desktop/liteos/Project2/BearPi_LiteOS/components/connectivity/lwm2m/core\management.c ****                             result = COAP_500_INTERNAL_SERVER_ERROR;
 277:C:/Users/lenovo/Desktop/liteos/Project2/BearPi_LiteOS/components/connectivity/lwm2m/core\management.c ****                         }
 278:C:/Users/lenovo/Desktop/liteos/Project2/BearPi_LiteOS/components/connectivity/lwm2m/core\management.c ****                         else
 279:C:/Users/lenovo/Desktop/liteos/Project2/BearPi_LiteOS/components/connectivity/lwm2m/core\management.c ****                         {
 280:C:/Users/lenovo/Desktop/liteos/Project2/BearPi_LiteOS/components/connectivity/lwm2m/core\management.c ****                             length = (size_t)res;
 281:C:/Users/lenovo/Desktop/liteos/Project2/BearPi_LiteOS/components/connectivity/lwm2m/core\management.c ****                             LOG_ARG("Observe Request[/%d/%d/%d]: %.*s\n", uriP->objectId, uriP->ins
 282:C:/Users/lenovo/Desktop/liteos/Project2/BearPi_LiteOS/components/connectivity/lwm2m/core\management.c ****                         }
 283:C:/Users/lenovo/Desktop/liteos/Project2/BearPi_LiteOS/components/connectivity/lwm2m/core\management.c ****                     }
 284:C:/Users/lenovo/Desktop/liteos/Project2/BearPi_LiteOS/components/connectivity/lwm2m/core\management.c ****                 }
 285:C:/Users/lenovo/Desktop/liteos/Project2/BearPi_LiteOS/components/connectivity/lwm2m/core\management.c ****                 lwm2m_data_free(size, dataP);
 286:C:/Users/lenovo/Desktop/liteos/Project2/BearPi_LiteOS/components/connectivity/lwm2m/core\management.c ****             }
 287:C:/Users/lenovo/Desktop/liteos/Project2/BearPi_LiteOS/components/connectivity/lwm2m/core\management.c ****         }
 288:C:/Users/lenovo/Desktop/liteos/Project2/BearPi_LiteOS/components/connectivity/lwm2m/core\management.c ****         else if (IS_OPTION(message, COAP_OPTION_ACCEPT)
 766              		.loc 1 288 0
 767 0152 2B7B     		ldrb	r3, [r5, #12]	@ zero_extendqisi2
 768 0154 13F0020F 		tst	r3, #2
 769 0158 06D0     		beq	.L73
 289:C:/Users/lenovo/Desktop/liteos/Project2/BearPi_LiteOS/components/connectivity/lwm2m/core\management.c ****                  && message->accept_num == 1
 290:C:/Users/lenovo/Desktop/liteos/Project2/BearPi_LiteOS/components/connectivity/lwm2m/core\management.c ****                  && message->accept[0] == APPLICATION_LINK_FORMAT)
 770              		.loc 1 290 0
 771 015a 6B6D     		ldr	r3, [r5, #84]
 772 015c 23F0FF03 		bic	r3, r3, #255
 773 0160 714A     		ldr	r2, .L123+88
 774 0162 9342     		cmp	r3, r2
 775 0164 00F08B80 		beq	.L114
 776              	.L73:
 291:C:/Users/lenovo/Desktop/liteos/Project2/BearPi_LiteOS/components/connectivity/lwm2m/core\management.c ****         {
 292:C:/Users/lenovo/Desktop/liteos/Project2/BearPi_LiteOS/components/connectivity/lwm2m/core\management.c ****             if ((result = acc_auth_operate(contextP, uriP, OBJ_ACC_DISCOVER, serverP->shortID)) != 
 293:C:/Users/lenovo/Desktop/liteos/Project2/BearPi_LiteOS/components/connectivity/lwm2m/core\management.c ****             {
 294:C:/Users/lenovo/Desktop/liteos/Project2/BearPi_LiteOS/components/connectivity/lwm2m/core\management.c ****                 return result;
 295:C:/Users/lenovo/Desktop/liteos/Project2/BearPi_LiteOS/components/connectivity/lwm2m/core\management.c ****             }
 296:C:/Users/lenovo/Desktop/liteos/Project2/BearPi_LiteOS/components/connectivity/lwm2m/core\management.c ****             format = LWM2M_CONTENT_LINK;
 297:C:/Users/lenovo/Desktop/liteos/Project2/BearPi_LiteOS/components/connectivity/lwm2m/core\management.c ****             result = object_discover(contextP, uriP, serverP, &buffer, &length);
ARM GAS  c:\Users\lenovo\AppData\Local\Temp\ccyyQBE5.s 			page 28


 298:C:/Users/lenovo/Desktop/liteos/Project2/BearPi_LiteOS/components/connectivity/lwm2m/core\management.c ****         }
 299:C:/Users/lenovo/Desktop/liteos/Project2/BearPi_LiteOS/components/connectivity/lwm2m/core\management.c ****         else
 300:C:/Users/lenovo/Desktop/liteos/Project2/BearPi_LiteOS/components/connectivity/lwm2m/core\management.c ****         {
 301:C:/Users/lenovo/Desktop/liteos/Project2/BearPi_LiteOS/components/connectivity/lwm2m/core\management.c ****             if ((result = acc_auth_operate(contextP, uriP, OBJ_ACC_READ, serverP->shortID)) != COAP
 777              		.loc 1 301 0
 778 0168 F388     		ldrh	r3, [r6, #6]
 779 016a 0022     		movs	r2, #0
 780 016c 2146     		mov	r1, r4
 781 016e 3846     		mov	r0, r7
 782 0170 FFF7FEFF 		bl	acc_auth_operate
 783              	.LVL33:
 784 0174 8046     		mov	r8, r0
 785 0176 0028     		cmp	r0, #0
 786 0178 40F09981 		bne	.L57
 302:C:/Users/lenovo/Desktop/liteos/Project2/BearPi_LiteOS/components/connectivity/lwm2m/core\management.c ****             {
 303:C:/Users/lenovo/Desktop/liteos/Project2/BearPi_LiteOS/components/connectivity/lwm2m/core\management.c ****                 return result;
 304:C:/Users/lenovo/Desktop/liteos/Project2/BearPi_LiteOS/components/connectivity/lwm2m/core\management.c ****             }
 305:C:/Users/lenovo/Desktop/liteos/Project2/BearPi_LiteOS/components/connectivity/lwm2m/core\management.c ****             if (IS_OPTION(message, COAP_OPTION_ACCEPT))
 787              		.loc 1 305 0
 788 017c 2B7B     		ldrb	r3, [r5, #12]	@ zero_extendqisi2
 789 017e 13F0020F 		tst	r3, #2
 790 0182 40F09380 		bne	.L115
 791              	.LVL34:
 792              	.L74:
 306:C:/Users/lenovo/Desktop/liteos/Project2/BearPi_LiteOS/components/connectivity/lwm2m/core\management.c ****             {
 307:C:/Users/lenovo/Desktop/liteos/Project2/BearPi_LiteOS/components/connectivity/lwm2m/core\management.c ****                 format = utils_convertMediaType((coap_content_type_t)message->accept[0]);
 308:C:/Users/lenovo/Desktop/liteos/Project2/BearPi_LiteOS/components/connectivity/lwm2m/core\management.c ****             }
 309:C:/Users/lenovo/Desktop/liteos/Project2/BearPi_LiteOS/components/connectivity/lwm2m/core\management.c **** 
 310:C:/Users/lenovo/Desktop/liteos/Project2/BearPi_LiteOS/components/connectivity/lwm2m/core\management.c ****             result = object_read(contextP, uriP, &format, &buffer, &length, serverP->shortID);
 793              		.loc 1 310 0
 794 0186 F388     		ldrh	r3, [r6, #6]
 795 0188 0193     		str	r3, [sp, #4]
 796 018a 08AB     		add	r3, sp, #32
 797 018c 0093     		str	r3, [sp]
 798 018e 07AB     		add	r3, sp, #28
 799 0190 0DF15602 		add	r2, sp, #86
 800 0194 2146     		mov	r1, r4
 801 0196 3846     		mov	r0, r7
 802 0198 FFF7FEFF 		bl	object_read
 803              	.LVL35:
 804 019c 8046     		mov	r8, r0
 805              	.LVL36:
 806              	.L72:
 311:C:/Users/lenovo/Desktop/liteos/Project2/BearPi_LiteOS/components/connectivity/lwm2m/core\management.c ****         }
 312:C:/Users/lenovo/Desktop/liteos/Project2/BearPi_LiteOS/components/connectivity/lwm2m/core\management.c ****         if (COAP_205_CONTENT == result)
 807              		.loc 1 312 0
 808 019e B8F1450F 		cmp	r8, #69
 809 01a2 00F08A80 		beq	.L116
 313:C:/Users/lenovo/Desktop/liteos/Project2/BearPi_LiteOS/components/connectivity/lwm2m/core\management.c ****         {
 314:C:/Users/lenovo/Desktop/liteos/Project2/BearPi_LiteOS/components/connectivity/lwm2m/core\management.c ****             coap_set_header_content_type(response, format);
 315:C:/Users/lenovo/Desktop/liteos/Project2/BearPi_LiteOS/components/connectivity/lwm2m/core\management.c ****             coap_set_payload(response, buffer, length);
 316:C:/Users/lenovo/Desktop/liteos/Project2/BearPi_LiteOS/components/connectivity/lwm2m/core\management.c ****             // lwm2m_handle_packet will free buffer
 317:C:/Users/lenovo/Desktop/liteos/Project2/BearPi_LiteOS/components/connectivity/lwm2m/core\management.c ****         }
 318:C:/Users/lenovo/Desktop/liteos/Project2/BearPi_LiteOS/components/connectivity/lwm2m/core\management.c ****         else
 319:C:/Users/lenovo/Desktop/liteos/Project2/BearPi_LiteOS/components/connectivity/lwm2m/core\management.c ****         {
 320:C:/Users/lenovo/Desktop/liteos/Project2/BearPi_LiteOS/components/connectivity/lwm2m/core\management.c ****             lwm2m_free(buffer);
 810              		.loc 1 320 0
ARM GAS  c:\Users\lenovo\AppData\Local\Temp\ccyyQBE5.s 			page 29


 811 01a6 0798     		ldr	r0, [sp, #28]
 812 01a8 FFF7FEFF 		bl	lwm2m_free
 813              	.LVL37:
 814              	.LBE12:
 321:C:/Users/lenovo/Desktop/liteos/Project2/BearPi_LiteOS/components/connectivity/lwm2m/core\management.c ****         }
 322:C:/Users/lenovo/Desktop/liteos/Project2/BearPi_LiteOS/components/connectivity/lwm2m/core\management.c ****     }
 323:C:/Users/lenovo/Desktop/liteos/Project2/BearPi_LiteOS/components/connectivity/lwm2m/core\management.c ****     break;
 815              		.loc 1 323 0
 816 01ac 7FE1     		b	.L57
 817              	.LVL38:
 818              	.L113:
 819              	.LBB16:
 820              	.LBB13:
 242:C:/Users/lenovo/Desktop/liteos/Project2/BearPi_LiteOS/components/connectivity/lwm2m/core\management.c ****             int size = 0;
 821              		.loc 1 242 0
 822 01ae 0022     		movs	r2, #0
 823 01b0 0992     		str	r2, [sp, #36]
 243:C:/Users/lenovo/Desktop/liteos/Project2/BearPi_LiteOS/components/connectivity/lwm2m/core\management.c **** 
 824              		.loc 1 243 0
 825 01b2 0A92     		str	r2, [sp, #40]
 245:C:/Users/lenovo/Desktop/liteos/Project2/BearPi_LiteOS/components/connectivity/lwm2m/core\management.c ****             {
 826              		.loc 1 245 0
 827 01b4 F388     		ldrh	r3, [r6, #6]
 828 01b6 2146     		mov	r1, r4
 829 01b8 3846     		mov	r0, r7
 830 01ba FFF7FEFF 		bl	acc_auth_operate
 831              	.LVL39:
 832 01be 8046     		mov	r8, r0
 833 01c0 0028     		cmp	r0, #0
 834 01c2 40F07481 		bne	.L57
 250:C:/Users/lenovo/Desktop/liteos/Project2/BearPi_LiteOS/components/connectivity/lwm2m/core\management.c ****             if (COAP_205_CONTENT == result)
 835              		.loc 1 250 0
 836 01c6 F388     		ldrh	r3, [r6, #6]
 837 01c8 0193     		str	r3, [sp, #4]
 838 01ca 0023     		movs	r3, #0
 839 01cc 0093     		str	r3, [sp]
 840 01ce 09AB     		add	r3, sp, #36
 841 01d0 0AAA     		add	r2, sp, #40
 842 01d2 2146     		mov	r1, r4
 843 01d4 3846     		mov	r0, r7
 844              	.LVL40:
 845 01d6 FFF7FEFF 		bl	object_readData
 846              	.LVL41:
 847 01da 8046     		mov	r8, r0
 848              	.LVL42:
 251:C:/Users/lenovo/Desktop/liteos/Project2/BearPi_LiteOS/components/connectivity/lwm2m/core\management.c ****             {
 849              		.loc 1 251 0
 850 01dc 4528     		cmp	r0, #69
 851 01de DED1     		bne	.L72
 253:C:/Users/lenovo/Desktop/liteos/Project2/BearPi_LiteOS/components/connectivity/lwm2m/core\management.c ****                 if (COAP_205_CONTENT == result)
 852              		.loc 1 253 0
 853 01e0 1C9B     		ldr	r3, [sp, #112]
 854 01e2 0293     		str	r3, [sp, #8]
 855 01e4 0195     		str	r5, [sp, #4]
 856 01e6 099B     		ldr	r3, [sp, #36]
 857 01e8 0093     		str	r3, [sp]
 858 01ea 0A9B     		ldr	r3, [sp, #40]
ARM GAS  c:\Users\lenovo\AppData\Local\Temp\ccyyQBE5.s 			page 30


 859 01ec 3246     		mov	r2, r6
 860 01ee 2146     		mov	r1, r4
 861 01f0 3846     		mov	r0, r7
 862              	.LVL43:
 863 01f2 FFF7FEFF 		bl	observe_handleRequest
 864              	.LVL44:
 865 01f6 8046     		mov	r8, r0
 866              	.LVL45:
 254:C:/Users/lenovo/Desktop/liteos/Project2/BearPi_LiteOS/components/connectivity/lwm2m/core\management.c ****                 {
 867              		.loc 1 254 0
 868 01f8 4528     		cmp	r0, #69
 869 01fa 04D0     		beq	.L117
 870              	.LVL46:
 871              	.L68:
 285:C:/Users/lenovo/Desktop/liteos/Project2/BearPi_LiteOS/components/connectivity/lwm2m/core\management.c ****             }
 872              		.loc 1 285 0
 873 01fc 0999     		ldr	r1, [sp, #36]
 874 01fe 0A98     		ldr	r0, [sp, #40]
 875 0200 FFF7FEFF 		bl	lwm2m_data_free
 876              	.LVL47:
 877 0204 CBE7     		b	.L72
 878              	.LVL48:
 879              	.L117:
 256:C:/Users/lenovo/Desktop/liteos/Project2/BearPi_LiteOS/components/connectivity/lwm2m/core\management.c ****                     {
 880              		.loc 1 256 0
 881 0206 2B7B     		ldrb	r3, [r5, #12]	@ zero_extendqisi2
 882 0208 13F0020F 		tst	r3, #2
 883 020c 0DD1     		bne	.L118
 262:C:/Users/lenovo/Desktop/liteos/Project2/BearPi_LiteOS/components/connectivity/lwm2m/core\management.c ****                     }
 884              		.loc 1 262 0
 885 020e 42F61653 		movw	r3, #11542
 886 0212 ADF85630 		strh	r3, [sp, #86]	@ movhi
 887              	.LVL49:
 888              	.L70:
 889              	.LBB14:
 890              	.LBB15:
 891              		.loc 2 384 0
 892 0216 6388     		ldrh	r3, [r4, #2]
 893              	.LVL50:
 894              	.LBE15:
 895              	.LBE14:
 265:C:/Users/lenovo/Desktop/liteos/Project2/BearPi_LiteOS/components/connectivity/lwm2m/core\management.c ****                     {
 896              		.loc 1 265 0
 897 0218 132B     		cmp	r3, #19
 898 021a 0DD1     		bne	.L71
 267:C:/Users/lenovo/Desktop/liteos/Project2/BearPi_LiteOS/components/connectivity/lwm2m/core\management.c ****                         length = 0;
 899              		.loc 1 267 0
 900 021c 0023     		movs	r3, #0
 901 021e 0793     		str	r3, [sp, #28]
 268:C:/Users/lenovo/Desktop/liteos/Project2/BearPi_LiteOS/components/connectivity/lwm2m/core\management.c ****                         format = LWM2M_CONTENT_OPAQUE;
 902              		.loc 1 268 0
 903 0220 0893     		str	r3, [sp, #32]
 269:C:/Users/lenovo/Desktop/liteos/Project2/BearPi_LiteOS/components/connectivity/lwm2m/core\management.c ****                     }
 904              		.loc 1 269 0
 905 0222 2A23     		movs	r3, #42
 906 0224 ADF85630 		strh	r3, [sp, #86]	@ movhi
 907 0228 E8E7     		b	.L68
ARM GAS  c:\Users\lenovo\AppData\Local\Temp\ccyyQBE5.s 			page 31


 908              	.LVL51:
 909              	.L118:
 258:C:/Users/lenovo/Desktop/liteos/Project2/BearPi_LiteOS/components/connectivity/lwm2m/core\management.c ****                     }
 910              		.loc 1 258 0
 911 022a B5F85600 		ldrh	r0, [r5, #86]
 912              	.LVL52:
 913 022e FFF7FEFF 		bl	utils_convertMediaType
 914              	.LVL53:
 915 0232 ADF85600 		strh	r0, [sp, #86]	@ movhi
 916 0236 EEE7     		b	.L70
 917              	.L71:
 273:C:/Users/lenovo/Desktop/liteos/Project2/BearPi_LiteOS/components/connectivity/lwm2m/core\management.c ****                         if (res < 0)
 918              		.loc 1 273 0
 919 0238 07AB     		add	r3, sp, #28
 920 023a 0093     		str	r3, [sp]
 921 023c 0DF15603 		add	r3, sp, #86
 922 0240 099A     		ldr	r2, [sp, #36]
 923 0242 0A99     		ldr	r1, [sp, #40]
 924 0244 2046     		mov	r0, r4
 925 0246 FFF7FEFF 		bl	lwm2m_data_serialize
 926              	.LVL54:
 274:C:/Users/lenovo/Desktop/liteos/Project2/BearPi_LiteOS/components/connectivity/lwm2m/core\management.c ****                         {
 927              		.loc 1 274 0
 928 024a 0028     		cmp	r0, #0
 929 024c 14DB     		blt	.L102
 280:C:/Users/lenovo/Desktop/liteos/Project2/BearPi_LiteOS/components/connectivity/lwm2m/core\management.c ****                             LOG_ARG("Observe Request[/%d/%d/%d]: %.*s\n", uriP->objectId, uriP->ins
 930              		.loc 1 280 0
 931 024e 0890     		str	r0, [sp, #32]
 281:C:/Users/lenovo/Desktop/liteos/Project2/BearPi_LiteOS/components/connectivity/lwm2m/core\management.c ****                         }
 932              		.loc 1 281 0
 933 0250 FFF7FEFF 		bl	lwm2m_gettime
 934              	.LVL55:
 935 0254 6388     		ldrh	r3, [r4, #2]
 936 0256 A288     		ldrh	r2, [r4, #4]
 937 0258 E188     		ldrh	r1, [r4, #6]
 938 025a 079C     		ldr	r4, [sp, #28]
 939              	.LVL56:
 940 025c 0494     		str	r4, [sp, #16]
 941 025e 089C     		ldr	r4, [sp, #32]
 942 0260 0394     		str	r4, [sp, #12]
 943 0262 0291     		str	r1, [sp, #8]
 944 0264 0192     		str	r2, [sp, #4]
 945 0266 0093     		str	r3, [sp]
 946 0268 40F21913 		movw	r3, #281
 947 026c 1B4A     		ldr	r2, .L123+12
 948 026e 0146     		mov	r1, r0
 949 0270 2E48     		ldr	r0, .L123+92
 950 0272 FFF7FEFF 		bl	atiny_printf
 951              	.LVL57:
 952 0276 C1E7     		b	.L68
 953              	.LVL58:
 954              	.L102:
 276:C:/Users/lenovo/Desktop/liteos/Project2/BearPi_LiteOS/components/connectivity/lwm2m/core\management.c ****                         }
 955              		.loc 1 276 0
 956 0278 4FF0A008 		mov	r8, #160
 957 027c BEE7     		b	.L68
 958              	.LVL59:
ARM GAS  c:\Users\lenovo\AppData\Local\Temp\ccyyQBE5.s 			page 32


 959              	.L114:
 960              	.LBE13:
 292:C:/Users/lenovo/Desktop/liteos/Project2/BearPi_LiteOS/components/connectivity/lwm2m/core\management.c ****             {
 961              		.loc 1 292 0
 962 027e F388     		ldrh	r3, [r6, #6]
 963 0280 0522     		movs	r2, #5
 964 0282 2146     		mov	r1, r4
 965 0284 3846     		mov	r0, r7
 966 0286 FFF7FEFF 		bl	acc_auth_operate
 967              	.LVL60:
 968 028a 8046     		mov	r8, r0
 969 028c 0028     		cmp	r0, #0
 970 028e 40F00E81 		bne	.L57
 296:C:/Users/lenovo/Desktop/liteos/Project2/BearPi_LiteOS/components/connectivity/lwm2m/core\management.c ****             result = object_discover(contextP, uriP, serverP, &buffer, &length);
 971              		.loc 1 296 0
 972 0292 2823     		movs	r3, #40
 973 0294 ADF85630 		strh	r3, [sp, #86]	@ movhi
 297:C:/Users/lenovo/Desktop/liteos/Project2/BearPi_LiteOS/components/connectivity/lwm2m/core\management.c ****         }
 974              		.loc 1 297 0
 975 0298 08AB     		add	r3, sp, #32
 976 029a 0093     		str	r3, [sp]
 977 029c 07AB     		add	r3, sp, #28
 978 029e 3246     		mov	r2, r6
 979 02a0 2146     		mov	r1, r4
 980 02a2 3846     		mov	r0, r7
 981              	.LVL61:
 982 02a4 FFF7FEFF 		bl	object_discover
 983              	.LVL62:
 984 02a8 8046     		mov	r8, r0
 985              	.LVL63:
 986 02aa 78E7     		b	.L72
 987              	.LVL64:
 988              	.L115:
 307:C:/Users/lenovo/Desktop/liteos/Project2/BearPi_LiteOS/components/connectivity/lwm2m/core\management.c ****             }
 989              		.loc 1 307 0
 990 02ac B5F85600 		ldrh	r0, [r5, #86]
 991              	.LVL65:
 992 02b0 FFF7FEFF 		bl	utils_convertMediaType
 993              	.LVL66:
 994 02b4 ADF85600 		strh	r0, [sp, #86]	@ movhi
 995 02b8 65E7     		b	.L74
 996              	.LVL67:
 997              	.L116:
 314:C:/Users/lenovo/Desktop/liteos/Project2/BearPi_LiteOS/components/connectivity/lwm2m/core\management.c ****             coap_set_payload(response, buffer, length);
 998              		.loc 1 314 0
 999 02ba BDF85610 		ldrh	r1, [sp, #86]
 1000 02be 1C98     		ldr	r0, [sp, #112]
 1001 02c0 FFF7FEFF 		bl	coap_set_header_content_type
 1002              	.LVL68:
 315:C:/Users/lenovo/Desktop/liteos/Project2/BearPi_LiteOS/components/connectivity/lwm2m/core\management.c ****             // lwm2m_handle_packet will free buffer
 1003              		.loc 1 315 0
 1004 02c4 089A     		ldr	r2, [sp, #32]
 1005 02c6 0799     		ldr	r1, [sp, #28]
 1006 02c8 1C98     		ldr	r0, [sp, #112]
 1007 02ca FFF7FEFF 		bl	coap_set_payload
 1008              	.LVL69:
 1009 02ce EEE0     		b	.L57
ARM GAS  c:\Users\lenovo\AppData\Local\Temp\ccyyQBE5.s 			page 33


 1010              	.L124:
 1011              		.align	2
 1012              	.L123:
 1013 02d0 30010000 		.word	.LC19
 1014 02d4 38010000 		.word	.LC20
 1015 02d8 14000000 		.word	.LC6
 1016 02dc 00000000 		.word	.LANCHOR0
 1017 02e0 48010000 		.word	.LC21
 1018 02e4 84010000 		.word	.LC23
 1019 02e8 94010000 		.word	.LC25
 1020 02ec 00000000 		.word	.LC5
 1021 02f0 28000000 		.word	.LC7
 1022 02f4 3C000000 		.word	.LC8
 1023 02f8 50000000 		.word	.LC9
 1024 02fc 6C000000 		.word	.LC10
 1025 0300 84000000 		.word	.LC11
 1026 0304 A4000000 		.word	.LC12
 1027 0308 B8000000 		.word	.LC13
 1028 030c CC000000 		.word	.LC14
 1029 0310 E0000000 		.word	.LC15
 1030 0314 F4000000 		.word	.LC16
 1031 0318 08010000 		.word	.LC17
 1032 031c 1C010000 		.word	.LC18
 1033 0320 74010000 		.word	.LC22
 1034 0324 90010000 		.word	.LC24
 1035 0328 00012800 		.word	2621696
 1036 032c 98010000 		.word	.LC26
 1037              	.LVL70:
 1038              	.L61:
 1039              	.LBE16:
 324:C:/Users/lenovo/Desktop/liteos/Project2/BearPi_LiteOS/components/connectivity/lwm2m/core\management.c **** 
 325:C:/Users/lenovo/Desktop/liteos/Project2/BearPi_LiteOS/components/connectivity/lwm2m/core\management.c ****     case COAP_POST:
 326:C:/Users/lenovo/Desktop/liteos/Project2/BearPi_LiteOS/components/connectivity/lwm2m/core\management.c ****     {
 327:C:/Users/lenovo/Desktop/liteos/Project2/BearPi_LiteOS/components/connectivity/lwm2m/core\management.c ****         if (!LWM2M_URI_IS_SET_INSTANCE(uriP))
 1040              		.loc 1 327 0
 1041 0330 2378     		ldrb	r3, [r4]	@ zero_extendqisi2
 1042 0332 13F0020F 		tst	r3, #2
 1043 0336 19D0     		beq	.L119
 328:C:/Users/lenovo/Desktop/liteos/Project2/BearPi_LiteOS/components/connectivity/lwm2m/core\management.c ****         {
 329:C:/Users/lenovo/Desktop/liteos/Project2/BearPi_LiteOS/components/connectivity/lwm2m/core\management.c ****             if ((result = acc_auth_operate(contextP, uriP, OBJ_ACC_CREATE, serverP->shortID)) != CO
 330:C:/Users/lenovo/Desktop/liteos/Project2/BearPi_LiteOS/components/connectivity/lwm2m/core\management.c ****             {
 331:C:/Users/lenovo/Desktop/liteos/Project2/BearPi_LiteOS/components/connectivity/lwm2m/core\management.c ****                 return result;
 332:C:/Users/lenovo/Desktop/liteos/Project2/BearPi_LiteOS/components/connectivity/lwm2m/core\management.c ****             }
 333:C:/Users/lenovo/Desktop/liteos/Project2/BearPi_LiteOS/components/connectivity/lwm2m/core\management.c ****             result = object_create(contextP, uriP, format, message->payload, message->payload_len);
 334:C:/Users/lenovo/Desktop/liteos/Project2/BearPi_LiteOS/components/connectivity/lwm2m/core\management.c ****             if (result == COAP_201_CREATED)
 335:C:/Users/lenovo/Desktop/liteos/Project2/BearPi_LiteOS/components/connectivity/lwm2m/core\management.c ****             {
 336:C:/Users/lenovo/Desktop/liteos/Project2/BearPi_LiteOS/components/connectivity/lwm2m/core\management.c ****                 //longest uri is /65535/65535 = 12 + 1 (null) chars
 337:C:/Users/lenovo/Desktop/liteos/Project2/BearPi_LiteOS/components/connectivity/lwm2m/core\management.c ****                 char location_path[13] = "";
 338:C:/Users/lenovo/Desktop/liteos/Project2/BearPi_LiteOS/components/connectivity/lwm2m/core\management.c ****                 //instanceId expected
 339:C:/Users/lenovo/Desktop/liteos/Project2/BearPi_LiteOS/components/connectivity/lwm2m/core\management.c ****                 if ((uriP->flag & LWM2M_URI_FLAG_INSTANCE_ID) == 0)
 340:C:/Users/lenovo/Desktop/liteos/Project2/BearPi_LiteOS/components/connectivity/lwm2m/core\management.c ****                 {
 341:C:/Users/lenovo/Desktop/liteos/Project2/BearPi_LiteOS/components/connectivity/lwm2m/core\management.c ****                     result = COAP_500_INTERNAL_SERVER_ERROR;
 342:C:/Users/lenovo/Desktop/liteos/Project2/BearPi_LiteOS/components/connectivity/lwm2m/core\management.c ****                     break;
 343:C:/Users/lenovo/Desktop/liteos/Project2/BearPi_LiteOS/components/connectivity/lwm2m/core\management.c ****                 }
 344:C:/Users/lenovo/Desktop/liteos/Project2/BearPi_LiteOS/components/connectivity/lwm2m/core\management.c **** 
 345:C:/Users/lenovo/Desktop/liteos/Project2/BearPi_LiteOS/components/connectivity/lwm2m/core\management.c ****                 if (sprintf(location_path, "/%d/%d", uriP->objectId, uriP->instanceId) < 0)
 346:C:/Users/lenovo/Desktop/liteos/Project2/BearPi_LiteOS/components/connectivity/lwm2m/core\management.c ****                 {
ARM GAS  c:\Users\lenovo\AppData\Local\Temp\ccyyQBE5.s 			page 34


 347:C:/Users/lenovo/Desktop/liteos/Project2/BearPi_LiteOS/components/connectivity/lwm2m/core\management.c ****                     result = COAP_500_INTERNAL_SERVER_ERROR;
 348:C:/Users/lenovo/Desktop/liteos/Project2/BearPi_LiteOS/components/connectivity/lwm2m/core\management.c ****                     break;
 349:C:/Users/lenovo/Desktop/liteos/Project2/BearPi_LiteOS/components/connectivity/lwm2m/core\management.c ****                 }
 350:C:/Users/lenovo/Desktop/liteos/Project2/BearPi_LiteOS/components/connectivity/lwm2m/core\management.c ****                 coap_set_header_location_path(response, location_path);
 351:C:/Users/lenovo/Desktop/liteos/Project2/BearPi_LiteOS/components/connectivity/lwm2m/core\management.c **** 
 352:C:/Users/lenovo/Desktop/liteos/Project2/BearPi_LiteOS/components/connectivity/lwm2m/core\management.c ****                 lwm2m_update_registration(contextP, 0, true);
 353:C:/Users/lenovo/Desktop/liteos/Project2/BearPi_LiteOS/components/connectivity/lwm2m/core\management.c ****             }
 354:C:/Users/lenovo/Desktop/liteos/Project2/BearPi_LiteOS/components/connectivity/lwm2m/core\management.c ****         }
 355:C:/Users/lenovo/Desktop/liteos/Project2/BearPi_LiteOS/components/connectivity/lwm2m/core\management.c ****         else if (!LWM2M_URI_IS_SET_RESOURCE(uriP))
 1044              		.loc 1 355 0
 1045 0338 13F0010F 		tst	r3, #1
 1046 033c 4ED1     		bne	.L79
 356:C:/Users/lenovo/Desktop/liteos/Project2/BearPi_LiteOS/components/connectivity/lwm2m/core\management.c ****         {
 357:C:/Users/lenovo/Desktop/liteos/Project2/BearPi_LiteOS/components/connectivity/lwm2m/core\management.c ****             if ((result = acc_auth_operate(contextP, uriP, OBJ_ACC_WRITE, serverP->shortID)) != COA
 1047              		.loc 1 357 0
 1048 033e F388     		ldrh	r3, [r6, #6]
 1049 0340 0122     		movs	r2, #1
 1050 0342 2146     		mov	r1, r4
 1051 0344 3846     		mov	r0, r7
 1052 0346 FFF7FEFF 		bl	acc_auth_operate
 1053              	.LVL71:
 1054 034a 8046     		mov	r8, r0
 1055 034c 0028     		cmp	r0, #0
 1056 034e 40F0AE80 		bne	.L57
 358:C:/Users/lenovo/Desktop/liteos/Project2/BearPi_LiteOS/components/connectivity/lwm2m/core\management.c ****             {
 359:C:/Users/lenovo/Desktop/liteos/Project2/BearPi_LiteOS/components/connectivity/lwm2m/core\management.c ****                 return result;
 360:C:/Users/lenovo/Desktop/liteos/Project2/BearPi_LiteOS/components/connectivity/lwm2m/core\management.c ****             }
 361:C:/Users/lenovo/Desktop/liteos/Project2/BearPi_LiteOS/components/connectivity/lwm2m/core\management.c ****             result = object_write(contextP, uriP, format, message->payload, message->payload_len);
 1057              		.loc 1 361 0
 1058 0352 BDF85620 		ldrh	r2, [sp, #86]
 1059 0356 D5F88830 		ldr	r3, [r5, #136]
 1060 035a B5F88610 		ldrh	r1, [r5, #134]
 1061 035e 0091     		str	r1, [sp]
 1062 0360 2146     		mov	r1, r4
 1063 0362 3846     		mov	r0, r7
 1064              	.LVL72:
 1065 0364 FFF7FEFF 		bl	object_write
 1066              	.LVL73:
 1067 0368 8046     		mov	r8, r0
 1068              	.LVL74:
 1069 036a A0E0     		b	.L57
 1070              	.LVL75:
 1071              	.L119:
 329:C:/Users/lenovo/Desktop/liteos/Project2/BearPi_LiteOS/components/connectivity/lwm2m/core\management.c ****             {
 1072              		.loc 1 329 0
 1073 036c F388     		ldrh	r3, [r6, #6]
 1074 036e 0422     		movs	r2, #4
 1075 0370 2146     		mov	r1, r4
 1076 0372 3846     		mov	r0, r7
 1077 0374 FFF7FEFF 		bl	acc_auth_operate
 1078              	.LVL76:
 1079 0378 8046     		mov	r8, r0
 1080 037a 0028     		cmp	r0, #0
 1081 037c 40F09780 		bne	.L57
 333:C:/Users/lenovo/Desktop/liteos/Project2/BearPi_LiteOS/components/connectivity/lwm2m/core\management.c ****             if (result == COAP_201_CREATED)
 1082              		.loc 1 333 0
 1083 0380 BDF85620 		ldrh	r2, [sp, #86]
ARM GAS  c:\Users\lenovo\AppData\Local\Temp\ccyyQBE5.s 			page 35


 1084 0384 D5F88830 		ldr	r3, [r5, #136]
 1085 0388 B5F88610 		ldrh	r1, [r5, #134]
 1086 038c 0091     		str	r1, [sp]
 1087 038e 2146     		mov	r1, r4
 1088 0390 3846     		mov	r0, r7
 1089              	.LVL77:
 1090 0392 FFF7FEFF 		bl	object_create
 1091              	.LVL78:
 1092 0396 8046     		mov	r8, r0
 1093              	.LVL79:
 334:C:/Users/lenovo/Desktop/liteos/Project2/BearPi_LiteOS/components/connectivity/lwm2m/core\management.c ****             {
 1094              		.loc 1 334 0
 1095 0398 4128     		cmp	r0, #65
 1096 039a 40F08880 		bne	.L57
 1097              	.LBB17:
 337:C:/Users/lenovo/Desktop/liteos/Project2/BearPi_LiteOS/components/connectivity/lwm2m/core\management.c ****                 //instanceId expected
 1098              		.loc 1 337 0
 1099 039e 0023     		movs	r3, #0
 1100 03a0 0A93     		str	r3, [sp, #40]
 1101 03a2 0B93     		str	r3, [sp, #44]
 1102 03a4 0C93     		str	r3, [sp, #48]
 1103 03a6 8DF83430 		strb	r3, [sp, #52]
 339:C:/Users/lenovo/Desktop/liteos/Project2/BearPi_LiteOS/components/connectivity/lwm2m/core\management.c ****                 {
 1104              		.loc 1 339 0
 1105 03aa 2378     		ldrb	r3, [r4]	@ zero_extendqisi2
 1106 03ac 13F0020F 		tst	r3, #2
 1107 03b0 11D0     		beq	.L78
 345:C:/Users/lenovo/Desktop/liteos/Project2/BearPi_LiteOS/components/connectivity/lwm2m/core\management.c ****                 {
 1108              		.loc 1 345 0
 1109 03b2 A388     		ldrh	r3, [r4, #4]
 1110 03b4 6288     		ldrh	r2, [r4, #2]
 1111 03b6 4349     		ldr	r1, .L125
 1112 03b8 0AA8     		add	r0, sp, #40
 1113              	.LVL80:
 1114 03ba FFF7FEFF 		bl	sprintf
 1115              	.LVL81:
 1116 03be 0028     		cmp	r0, #0
 1117 03c0 09DB     		blt	.L78
 350:C:/Users/lenovo/Desktop/liteos/Project2/BearPi_LiteOS/components/connectivity/lwm2m/core\management.c **** 
 1118              		.loc 1 350 0
 1119 03c2 0AA9     		add	r1, sp, #40
 1120 03c4 1C98     		ldr	r0, [sp, #112]
 1121 03c6 FFF7FEFF 		bl	coap_set_header_location_path
 1122              	.LVL82:
 352:C:/Users/lenovo/Desktop/liteos/Project2/BearPi_LiteOS/components/connectivity/lwm2m/core\management.c ****             }
 1123              		.loc 1 352 0
 1124 03ca 0122     		movs	r2, #1
 1125 03cc 0021     		movs	r1, #0
 1126 03ce 3846     		mov	r0, r7
 1127 03d0 FFF7FEFF 		bl	lwm2m_update_registration
 1128              	.LVL83:
 1129 03d4 6BE0     		b	.L57
 1130              	.L78:
 1131              	.LVL84:
 342:C:/Users/lenovo/Desktop/liteos/Project2/BearPi_LiteOS/components/connectivity/lwm2m/core\management.c ****                 }
 1132              		.loc 1 342 0
 1133 03d6 4FF0A008 		mov	r8, #160
ARM GAS  c:\Users\lenovo\AppData\Local\Temp\ccyyQBE5.s 			page 36


 1134 03da 68E0     		b	.L57
 1135              	.LVL85:
 1136              	.L79:
 1137              	.LBE17:
 362:C:/Users/lenovo/Desktop/liteos/Project2/BearPi_LiteOS/components/connectivity/lwm2m/core\management.c ****         }
 363:C:/Users/lenovo/Desktop/liteos/Project2/BearPi_LiteOS/components/connectivity/lwm2m/core\management.c ****         else
 364:C:/Users/lenovo/Desktop/liteos/Project2/BearPi_LiteOS/components/connectivity/lwm2m/core\management.c ****         {
 365:C:/Users/lenovo/Desktop/liteos/Project2/BearPi_LiteOS/components/connectivity/lwm2m/core\management.c ****             if ((result = acc_auth_operate(contextP, uriP, OBJ_ACC_EXCUTE, serverP->shortID)) != CO
 1138              		.loc 1 365 0
 1139 03dc F388     		ldrh	r3, [r6, #6]
 1140 03de 0222     		movs	r2, #2
 1141 03e0 2146     		mov	r1, r4
 1142 03e2 3846     		mov	r0, r7
 1143 03e4 FFF7FEFF 		bl	acc_auth_operate
 1144              	.LVL86:
 1145 03e8 8046     		mov	r8, r0
 1146 03ea 0028     		cmp	r0, #0
 1147 03ec 5FD1     		bne	.L57
 366:C:/Users/lenovo/Desktop/liteos/Project2/BearPi_LiteOS/components/connectivity/lwm2m/core\management.c ****             {
 367:C:/Users/lenovo/Desktop/liteos/Project2/BearPi_LiteOS/components/connectivity/lwm2m/core\management.c ****                 return result;
 368:C:/Users/lenovo/Desktop/liteos/Project2/BearPi_LiteOS/components/connectivity/lwm2m/core\management.c ****             }
 369:C:/Users/lenovo/Desktop/liteos/Project2/BearPi_LiteOS/components/connectivity/lwm2m/core\management.c ****             result = object_execute(contextP, uriP, message->payload, message->payload_len);
 1148              		.loc 1 369 0
 1149 03ee B5F88630 		ldrh	r3, [r5, #134]
 1150 03f2 D5F88820 		ldr	r2, [r5, #136]
 1151 03f6 2146     		mov	r1, r4
 1152 03f8 3846     		mov	r0, r7
 1153              	.LVL87:
 1154 03fa FFF7FEFF 		bl	object_execute
 1155              	.LVL88:
 1156 03fe 8046     		mov	r8, r0
 1157              	.LVL89:
 1158 0400 55E0     		b	.L57
 1159              	.LVL90:
 1160              	.L62:
 370:C:/Users/lenovo/Desktop/liteos/Project2/BearPi_LiteOS/components/connectivity/lwm2m/core\management.c ****         }
 371:C:/Users/lenovo/Desktop/liteos/Project2/BearPi_LiteOS/components/connectivity/lwm2m/core\management.c **** 
 372:C:/Users/lenovo/Desktop/liteos/Project2/BearPi_LiteOS/components/connectivity/lwm2m/core\management.c ****     }
 373:C:/Users/lenovo/Desktop/liteos/Project2/BearPi_LiteOS/components/connectivity/lwm2m/core\management.c ****     break;
 374:C:/Users/lenovo/Desktop/liteos/Project2/BearPi_LiteOS/components/connectivity/lwm2m/core\management.c **** 
 375:C:/Users/lenovo/Desktop/liteos/Project2/BearPi_LiteOS/components/connectivity/lwm2m/core\management.c ****     case COAP_PUT:
 376:C:/Users/lenovo/Desktop/liteos/Project2/BearPi_LiteOS/components/connectivity/lwm2m/core\management.c ****     {
 377:C:/Users/lenovo/Desktop/liteos/Project2/BearPi_LiteOS/components/connectivity/lwm2m/core\management.c ****         if (IS_OPTION(message, COAP_OPTION_URI_QUERY))
 1161              		.loc 1 377 0
 1162 0402 95F90B30 		ldrsb	r3, [r5, #11]
 1163 0406 002B     		cmp	r3, #0
 1164 0408 19DB     		blt	.L120
 378:C:/Users/lenovo/Desktop/liteos/Project2/BearPi_LiteOS/components/connectivity/lwm2m/core\management.c ****         {
 379:C:/Users/lenovo/Desktop/liteos/Project2/BearPi_LiteOS/components/connectivity/lwm2m/core\management.c ****             lwm2m_attributes_t attr;
 380:C:/Users/lenovo/Desktop/liteos/Project2/BearPi_LiteOS/components/connectivity/lwm2m/core\management.c **** 
 381:C:/Users/lenovo/Desktop/liteos/Project2/BearPi_LiteOS/components/connectivity/lwm2m/core\management.c ****             if ((result = acc_auth_operate(contextP, uriP, OBJ_ACC_WRITE_ATTR, serverP->shortID)) !
 382:C:/Users/lenovo/Desktop/liteos/Project2/BearPi_LiteOS/components/connectivity/lwm2m/core\management.c ****             {
 383:C:/Users/lenovo/Desktop/liteos/Project2/BearPi_LiteOS/components/connectivity/lwm2m/core\management.c ****                 return result;
 384:C:/Users/lenovo/Desktop/liteos/Project2/BearPi_LiteOS/components/connectivity/lwm2m/core\management.c ****             }
 385:C:/Users/lenovo/Desktop/liteos/Project2/BearPi_LiteOS/components/connectivity/lwm2m/core\management.c ****             if (0 != prv_readAttributes(message->uri_query, &attr))
 386:C:/Users/lenovo/Desktop/liteos/Project2/BearPi_LiteOS/components/connectivity/lwm2m/core\management.c ****             {
 387:C:/Users/lenovo/Desktop/liteos/Project2/BearPi_LiteOS/components/connectivity/lwm2m/core\management.c ****                 result = COAP_400_BAD_REQUEST;
ARM GAS  c:\Users\lenovo\AppData\Local\Temp\ccyyQBE5.s 			page 37


 388:C:/Users/lenovo/Desktop/liteos/Project2/BearPi_LiteOS/components/connectivity/lwm2m/core\management.c ****             }
 389:C:/Users/lenovo/Desktop/liteos/Project2/BearPi_LiteOS/components/connectivity/lwm2m/core\management.c ****             else
 390:C:/Users/lenovo/Desktop/liteos/Project2/BearPi_LiteOS/components/connectivity/lwm2m/core\management.c ****             {
 391:C:/Users/lenovo/Desktop/liteos/Project2/BearPi_LiteOS/components/connectivity/lwm2m/core\management.c ****                 result = observe_setParameters(contextP, uriP, serverP, &attr);
 392:C:/Users/lenovo/Desktop/liteos/Project2/BearPi_LiteOS/components/connectivity/lwm2m/core\management.c ****             }
 393:C:/Users/lenovo/Desktop/liteos/Project2/BearPi_LiteOS/components/connectivity/lwm2m/core\management.c ****         }
 394:C:/Users/lenovo/Desktop/liteos/Project2/BearPi_LiteOS/components/connectivity/lwm2m/core\management.c ****         else if (LWM2M_URI_IS_SET_INSTANCE(uriP))
 1165              		.loc 1 394 0
 1166 040a 2378     		ldrb	r3, [r4]	@ zero_extendqisi2
 1167 040c 13F0020F 		tst	r3, #2
 1168 0410 54D0     		beq	.L104
 395:C:/Users/lenovo/Desktop/liteos/Project2/BearPi_LiteOS/components/connectivity/lwm2m/core\management.c ****         {
 396:C:/Users/lenovo/Desktop/liteos/Project2/BearPi_LiteOS/components/connectivity/lwm2m/core\management.c ****             if ((result = acc_auth_operate(contextP, uriP, OBJ_ACC_WRITE, serverP->shortID)) != COA
 1169              		.loc 1 396 0
 1170 0412 F388     		ldrh	r3, [r6, #6]
 1171 0414 0122     		movs	r2, #1
 1172 0416 2146     		mov	r1, r4
 1173 0418 3846     		mov	r0, r7
 1174 041a FFF7FEFF 		bl	acc_auth_operate
 1175              	.LVL91:
 1176 041e 8046     		mov	r8, r0
 1177 0420 0028     		cmp	r0, #0
 1178 0422 44D1     		bne	.L57
 397:C:/Users/lenovo/Desktop/liteos/Project2/BearPi_LiteOS/components/connectivity/lwm2m/core\management.c ****             {
 398:C:/Users/lenovo/Desktop/liteos/Project2/BearPi_LiteOS/components/connectivity/lwm2m/core\management.c ****                 return result;
 399:C:/Users/lenovo/Desktop/liteos/Project2/BearPi_LiteOS/components/connectivity/lwm2m/core\management.c ****             }
 400:C:/Users/lenovo/Desktop/liteos/Project2/BearPi_LiteOS/components/connectivity/lwm2m/core\management.c ****             result = object_write(contextP, uriP, format, message->payload, message->payload_len);
 1179              		.loc 1 400 0
 1180 0424 BDF85620 		ldrh	r2, [sp, #86]
 1181 0428 D5F88830 		ldr	r3, [r5, #136]
 1182 042c B5F88610 		ldrh	r1, [r5, #134]
 1183 0430 0091     		str	r1, [sp]
 1184 0432 2146     		mov	r1, r4
 1185 0434 3846     		mov	r0, r7
 1186              	.LVL92:
 1187 0436 FFF7FEFF 		bl	object_write
 1188              	.LVL93:
 1189 043a 8046     		mov	r8, r0
 1190              	.LVL94:
 1191 043c 37E0     		b	.L57
 1192              	.LVL95:
 1193              	.L120:
 1194              	.LBB18:
 381:C:/Users/lenovo/Desktop/liteos/Project2/BearPi_LiteOS/components/connectivity/lwm2m/core\management.c ****             {
 1195              		.loc 1 381 0
 1196 043e F388     		ldrh	r3, [r6, #6]
 1197 0440 0022     		movs	r2, #0
 1198 0442 2146     		mov	r1, r4
 1199 0444 3846     		mov	r0, r7
 1200 0446 FFF7FEFF 		bl	acc_auth_operate
 1201              	.LVL96:
 1202 044a 8046     		mov	r8, r0
 1203 044c 78BB     		cbnz	r0, .L57
 385:C:/Users/lenovo/Desktop/liteos/Project2/BearPi_LiteOS/components/connectivity/lwm2m/core\management.c ****             {
 1204              		.loc 1 385 0
 1205 044e 0AA9     		add	r1, sp, #40
 1206 0450 D5F88000 		ldr	r0, [r5, #128]
ARM GAS  c:\Users\lenovo\AppData\Local\Temp\ccyyQBE5.s 			page 38


 1207              	.LVL97:
 1208 0454 FFF7FEFF 		bl	prv_readAttributes
 1209              	.LVL98:
 1210 0458 10B1     		cbz	r0, .L121
 387:C:/Users/lenovo/Desktop/liteos/Project2/BearPi_LiteOS/components/connectivity/lwm2m/core\management.c ****             }
 1211              		.loc 1 387 0
 1212 045a 4FF08008 		mov	r8, #128
 1213              	.LVL99:
 1214 045e 26E0     		b	.L57
 1215              	.LVL100:
 1216              	.L121:
 391:C:/Users/lenovo/Desktop/liteos/Project2/BearPi_LiteOS/components/connectivity/lwm2m/core\management.c ****             }
 1217              		.loc 1 391 0
 1218 0460 0AAB     		add	r3, sp, #40
 1219 0462 3246     		mov	r2, r6
 1220 0464 2146     		mov	r1, r4
 1221 0466 3846     		mov	r0, r7
 1222 0468 FFF7FEFF 		bl	observe_setParameters
 1223              	.LVL101:
 1224 046c 8046     		mov	r8, r0
 1225              	.LVL102:
 1226 046e 1EE0     		b	.L57
 1227              	.LVL103:
 1228              	.L63:
 1229              	.LBE18:
 401:C:/Users/lenovo/Desktop/liteos/Project2/BearPi_LiteOS/components/connectivity/lwm2m/core\management.c ****         }
 402:C:/Users/lenovo/Desktop/liteos/Project2/BearPi_LiteOS/components/connectivity/lwm2m/core\management.c ****         else
 403:C:/Users/lenovo/Desktop/liteos/Project2/BearPi_LiteOS/components/connectivity/lwm2m/core\management.c ****         {
 404:C:/Users/lenovo/Desktop/liteos/Project2/BearPi_LiteOS/components/connectivity/lwm2m/core\management.c ****             result = COAP_400_BAD_REQUEST;
 405:C:/Users/lenovo/Desktop/liteos/Project2/BearPi_LiteOS/components/connectivity/lwm2m/core\management.c ****         }
 406:C:/Users/lenovo/Desktop/liteos/Project2/BearPi_LiteOS/components/connectivity/lwm2m/core\management.c ****     }
 407:C:/Users/lenovo/Desktop/liteos/Project2/BearPi_LiteOS/components/connectivity/lwm2m/core\management.c ****     break;
 408:C:/Users/lenovo/Desktop/liteos/Project2/BearPi_LiteOS/components/connectivity/lwm2m/core\management.c **** 
 409:C:/Users/lenovo/Desktop/liteos/Project2/BearPi_LiteOS/components/connectivity/lwm2m/core\management.c ****     case COAP_DELETE:
 410:C:/Users/lenovo/Desktop/liteos/Project2/BearPi_LiteOS/components/connectivity/lwm2m/core\management.c ****     {
 411:C:/Users/lenovo/Desktop/liteos/Project2/BearPi_LiteOS/components/connectivity/lwm2m/core\management.c ****         if (!LWM2M_URI_IS_SET_INSTANCE(uriP) || LWM2M_URI_IS_SET_RESOURCE(uriP))
 1230              		.loc 1 411 0
 1231 0470 2378     		ldrb	r3, [r4]	@ zero_extendqisi2
 1232 0472 03F00303 		and	r3, r3, #3
 1233 0476 022B     		cmp	r3, #2
 1234 0478 02D0     		beq	.L122
 412:C:/Users/lenovo/Desktop/liteos/Project2/BearPi_LiteOS/components/connectivity/lwm2m/core\management.c ****         {
 413:C:/Users/lenovo/Desktop/liteos/Project2/BearPi_LiteOS/components/connectivity/lwm2m/core\management.c ****             result = COAP_400_BAD_REQUEST;
 1235              		.loc 1 413 0
 1236 047a 4FF08008 		mov	r8, #128
 1237 047e 16E0     		b	.L57
 1238              	.L122:
 414:C:/Users/lenovo/Desktop/liteos/Project2/BearPi_LiteOS/components/connectivity/lwm2m/core\management.c ****         }
 415:C:/Users/lenovo/Desktop/liteos/Project2/BearPi_LiteOS/components/connectivity/lwm2m/core\management.c ****         else
 416:C:/Users/lenovo/Desktop/liteos/Project2/BearPi_LiteOS/components/connectivity/lwm2m/core\management.c ****         {
 417:C:/Users/lenovo/Desktop/liteos/Project2/BearPi_LiteOS/components/connectivity/lwm2m/core\management.c ****             if ((result = acc_auth_operate(contextP, uriP, OBJ_ACC_DELETE, serverP->shortID)) != CO
 1239              		.loc 1 417 0
 1240 0480 F388     		ldrh	r3, [r6, #6]
 1241 0482 0322     		movs	r2, #3
 1242 0484 2146     		mov	r1, r4
 1243 0486 3846     		mov	r0, r7
 1244 0488 FFF7FEFF 		bl	acc_auth_operate
ARM GAS  c:\Users\lenovo\AppData\Local\Temp\ccyyQBE5.s 			page 39


 1245              	.LVL104:
 1246 048c 8046     		mov	r8, r0
 1247 048e 70B9     		cbnz	r0, .L57
 418:C:/Users/lenovo/Desktop/liteos/Project2/BearPi_LiteOS/components/connectivity/lwm2m/core\management.c ****             {
 419:C:/Users/lenovo/Desktop/liteos/Project2/BearPi_LiteOS/components/connectivity/lwm2m/core\management.c ****                 return result;
 420:C:/Users/lenovo/Desktop/liteos/Project2/BearPi_LiteOS/components/connectivity/lwm2m/core\management.c ****             }
 421:C:/Users/lenovo/Desktop/liteos/Project2/BearPi_LiteOS/components/connectivity/lwm2m/core\management.c ****             result = object_delete(contextP, uriP);
 1248              		.loc 1 421 0
 1249 0490 2146     		mov	r1, r4
 1250 0492 3846     		mov	r0, r7
 1251              	.LVL105:
 1252 0494 FFF7FEFF 		bl	object_delete
 1253              	.LVL106:
 1254 0498 8046     		mov	r8, r0
 1255              	.LVL107:
 422:C:/Users/lenovo/Desktop/liteos/Project2/BearPi_LiteOS/components/connectivity/lwm2m/core\management.c ****             if (result == COAP_202_DELETED)
 1256              		.loc 1 422 0
 1257 049a 4228     		cmp	r0, #66
 1258 049c 07D1     		bne	.L57
 423:C:/Users/lenovo/Desktop/liteos/Project2/BearPi_LiteOS/components/connectivity/lwm2m/core\management.c ****             {
 424:C:/Users/lenovo/Desktop/liteos/Project2/BearPi_LiteOS/components/connectivity/lwm2m/core\management.c ****                 lwm2m_update_registration(contextP, 0, true);
 1259              		.loc 1 424 0
 1260 049e 0122     		movs	r2, #1
 1261 04a0 0021     		movs	r1, #0
 1262 04a2 3846     		mov	r0, r7
 1263              	.LVL108:
 1264 04a4 FFF7FEFF 		bl	lwm2m_update_registration
 1265              	.LVL109:
 1266 04a8 01E0     		b	.L57
 1267              	.L99:
 221:C:/Users/lenovo/Desktop/liteos/Project2/BearPi_LiteOS/components/connectivity/lwm2m/core\management.c ****     }
 1268              		.loc 1 221 0
 1269 04aa 4FF08408 		mov	r8, #132
 1270              	.LVL110:
 1271              	.L57:
 425:C:/Users/lenovo/Desktop/liteos/Project2/BearPi_LiteOS/components/connectivity/lwm2m/core\management.c ****             }
 426:C:/Users/lenovo/Desktop/liteos/Project2/BearPi_LiteOS/components/connectivity/lwm2m/core\management.c ****         }
 427:C:/Users/lenovo/Desktop/liteos/Project2/BearPi_LiteOS/components/connectivity/lwm2m/core\management.c ****     }
 428:C:/Users/lenovo/Desktop/liteos/Project2/BearPi_LiteOS/components/connectivity/lwm2m/core\management.c ****     break;
 429:C:/Users/lenovo/Desktop/liteos/Project2/BearPi_LiteOS/components/connectivity/lwm2m/core\management.c **** 
 430:C:/Users/lenovo/Desktop/liteos/Project2/BearPi_LiteOS/components/connectivity/lwm2m/core\management.c ****     default:
 431:C:/Users/lenovo/Desktop/liteos/Project2/BearPi_LiteOS/components/connectivity/lwm2m/core\management.c ****         result = COAP_400_BAD_REQUEST;
 432:C:/Users/lenovo/Desktop/liteos/Project2/BearPi_LiteOS/components/connectivity/lwm2m/core\management.c ****         break;
 433:C:/Users/lenovo/Desktop/liteos/Project2/BearPi_LiteOS/components/connectivity/lwm2m/core\management.c ****     }
 434:C:/Users/lenovo/Desktop/liteos/Project2/BearPi_LiteOS/components/connectivity/lwm2m/core\management.c **** 
 435:C:/Users/lenovo/Desktop/liteos/Project2/BearPi_LiteOS/components/connectivity/lwm2m/core\management.c ****     return result;
 436:C:/Users/lenovo/Desktop/liteos/Project2/BearPi_LiteOS/components/connectivity/lwm2m/core\management.c **** }
 1272              		.loc 1 436 0 discriminator 3
 1273 04ae 4046     		mov	r0, r8
 1274 04b0 16B0     		add	sp, sp, #88
 1275              	.LCFI6:
 1276              		.cfi_remember_state
 1277              		.cfi_def_cfa_offset 24
 1278              		@ sp needed
 1279 04b2 BDE8F081 		pop	{r4, r5, r6, r7, r8, pc}
 1280              	.LVL111:
 1281              	.L101:
ARM GAS  c:\Users\lenovo\AppData\Local\Temp\ccyyQBE5.s 			page 40


 431:C:/Users/lenovo/Desktop/liteos/Project2/BearPi_LiteOS/components/connectivity/lwm2m/core\management.c ****         break;
 1282              		.loc 1 431 0
 1283 04b6 4FF08008 		mov	r8, #128
 1284 04ba F8E7     		b	.L57
 1285              	.L104:
 1286              	.LCFI7:
 1287              		.cfi_restore_state
 404:C:/Users/lenovo/Desktop/liteos/Project2/BearPi_LiteOS/components/connectivity/lwm2m/core\management.c ****         }
 1288              		.loc 1 404 0
 1289 04bc 4FF08008 		mov	r8, #128
 1290 04c0 F5E7     		b	.L57
 1291              	.L126:
 1292 04c2 00BF     		.align	2
 1293              	.L125:
 1294 04c4 C8010000 		.word	.LC27
 1295              		.cfi_endproc
 1296              	.LFE143:
 1298              		.section	.rodata.__func__.11947,"a",%progbits
 1299              		.align	2
 1300              		.set	.LANCHOR0,. + 0
 1303              	__func__.11947:
 1304 0000 646D5F68 		.ascii	"dm_handleRequest\000"
 1304      616E646C 
 1304      65526571 
 1304      75657374 
 1304      00
 1305              		.section	.rodata.dm_handleRequest.str1.4,"aMS",%progbits,1
 1306              		.align	2
 1307              	.LC5:
 1308 0000 53544154 		.ascii	"STATE_REG_PENDING\000"
 1308      455F5245 
 1308      475F5045 
 1308      4E44494E 
 1308      4700
 1309 0012 0000     		.space	2
 1310              	.LC6:
 1311 0014 53544154 		.ascii	"STATE_DEREGISTERED\000"
 1311      455F4445 
 1311      52454749 
 1311      53544552 
 1311      454400
 1312 0027 00       		.space	1
 1313              	.LC7:
 1314 0028 53544154 		.ascii	"STATE_REGISTERED\000"
 1314      455F5245 
 1314      47495354 
 1314      45524544 
 1314      00
 1315 0039 000000   		.space	3
 1316              	.LC8:
 1317 003c 53544154 		.ascii	"STATE_REG_FAILED\000"
 1317      455F5245 
 1317      475F4641 
 1317      494C4544 
 1317      00
 1318 004d 000000   		.space	3
 1319              	.LC9:
ARM GAS  c:\Users\lenovo\AppData\Local\Temp\ccyyQBE5.s 			page 41


 1320 0050 53544154 		.ascii	"STATE_REG_UPDATE_PENDING\000"
 1320      455F5245 
 1320      475F5550 
 1320      44415445 
 1320      5F50454E 
 1321 0069 000000   		.space	3
 1322              	.LC10:
 1323 006c 53544154 		.ascii	"STATE_REG_UPDATE_NEEDED\000"
 1323      455F5245 
 1323      475F5550 
 1323      44415445 
 1323      5F4E4545 
 1324              	.LC11:
 1325 0084 53544154 		.ascii	"STATE_REG_FULL_UPDATE_NEEDED\000"
 1325      455F5245 
 1325      475F4655 
 1325      4C4C5F55 
 1325      50444154 
 1326 00a1 000000   		.space	3
 1327              	.LC12:
 1328 00a4 53544154 		.ascii	"STATE_DEREG_PENDING\000"
 1328      455F4445 
 1328      5245475F 
 1328      50454E44 
 1328      494E4700 
 1329              	.LC13:
 1330 00b8 53544154 		.ascii	"STATE_BS_HOLD_OFF\000"
 1330      455F4253 
 1330      5F484F4C 
 1330      445F4F46 
 1330      4600
 1331 00ca 0000     		.space	2
 1332              	.LC14:
 1333 00cc 53544154 		.ascii	"STATE_BS_INITIATED\000"
 1333      455F4253 
 1333      5F494E49 
 1333      54494154 
 1333      454400
 1334 00df 00       		.space	1
 1335              	.LC15:
 1336 00e0 53544154 		.ascii	"STATE_BS_PENDING\000"
 1336      455F4253 
 1336      5F50454E 
 1336      44494E47 
 1336      00
 1337 00f1 000000   		.space	3
 1338              	.LC16:
 1339 00f4 53544154 		.ascii	"STATE_BS_FINISHED\000"
 1339      455F4253 
 1339      5F46494E 
 1339      49534845 
 1339      4400
 1340 0106 0000     		.space	2
 1341              	.LC17:
 1342 0108 53544154 		.ascii	"STATE_BS_FINISHING\000"
 1342      455F4253 
 1342      5F46494E 
ARM GAS  c:\Users\lenovo\AppData\Local\Temp\ccyyQBE5.s 			page 42


 1342      49534849 
 1342      4E4700
 1343 011b 00       		.space	1
 1344              	.LC18:
 1345 011c 53544154 		.ascii	"STATE_BS_FAILING\000"
 1345      455F4253 
 1345      5F464149 
 1345      4C494E47 
 1345      00
 1346 012d 000000   		.space	3
 1347              	.LC19:
 1348 0130 556E6B6E 		.ascii	"Unknown\000"
 1348      6F776E00 
 1349              	.LC20:
 1350 0138 53544154 		.ascii	"STATE_BS_FAILED\000"
 1350      455F4253 
 1350      5F464149 
 1350      4C454400 
 1351              	.LC21:
 1352 0148 5B25645D 		.ascii	"[%d][%s:%d] Code: %02X, server status: %s\015\012\000"
 1352      5B25733A 
 1352      25645D20 
 1352      436F6465 
 1352      3A202530 
 1353              	.LC22:
 1354 0174 5B25733A 		.ascii	"[%s:%d] NULL\015\012\000"
 1354      25645D20 
 1354      4E554C4C 
 1354      0D0A00
 1355 0183 00       		.space	1
 1356              	.LC23:
 1357 0184 5B25733A 		.ascii	"[%s:%d] /%d\000"
 1357      25645D20 
 1357      2F256400 
 1358              	.LC24:
 1359 0190 2F256400 		.ascii	"/%d\000"
 1360              	.LC25:
 1361 0194 0D0A00   		.ascii	"\015\012\000"
 1362 0197 00       		.space	1
 1363              	.LC26:
 1364 0198 5B25645D 		.ascii	"[%d][%s:%d] Observe Request[/%d/%d/%d]: %.*s\012\015"
 1364      5B25733A 
 1364      25645D20 
 1364      4F627365 
 1364      72766520 
 1365 01c6 0A00     		.ascii	"\012\000"
 1366              	.LC27:
 1367 01c8 2F25642F 		.ascii	"/%d/%d\000"
 1367      256400
 1368              		.section	.rodata.prv_readAttributes.str1.4,"aMS",%progbits,1
 1369              		.align	2
 1370              	.LC0:
 1371 0000 706D696E 		.ascii	"pmin=\000"
 1371      3D00
 1372 0006 0000     		.space	2
 1373              	.LC1:
 1374 0008 706D6178 		.ascii	"pmax=\000"
ARM GAS  c:\Users\lenovo\AppData\Local\Temp\ccyyQBE5.s 			page 43


 1374      3D00
 1375 000e 0000     		.space	2
 1376              	.LC2:
 1377 0010 67743D00 		.ascii	"gt=\000"
 1378              	.LC3:
 1379 0014 6C743D00 		.ascii	"lt=\000"
 1380              	.LC4:
 1381 0018 73743D00 		.ascii	"st=\000"
 1382              		.text
 1383              	.Letext0:
 1384              		.file 3 "c:\\program files (x86)\\liteos studio\\resources\\arm-none-eabi\\arm-none-eabi\\include\
 1385              		.file 4 "c:\\program files (x86)\\liteos studio\\resources\\arm-none-eabi\\arm-none-eabi\\include\
 1386              		.file 5 "C:/Users/lenovo/Desktop/liteos/Project2/BearPi_LiteOS/components/connectivity/lwm2m/core/
 1387              		.file 6 "c:\\program files (x86)\\liteos studio\\resources\\arm-none-eabi\\lib\\gcc\\arm-none-eabi
 1388              		.file 7 "c:\\program files (x86)\\liteos studio\\resources\\arm-none-eabi\\arm-none-eabi\\include\
 1389              		.file 8 "c:\\program files (x86)\\liteos studio\\resources\\arm-none-eabi\\arm-none-eabi\\include\
 1390              		.file 9 "c:\\program files (x86)\\liteos studio\\resources\\arm-none-eabi\\arm-none-eabi\\include\
 1391              		.file 10 "c:\\program files (x86)\\liteos studio\\resources\\arm-none-eabi\\arm-none-eabi\\include
 1392              		.file 11 "c:\\program files (x86)\\liteos studio\\resources\\arm-none-eabi\\arm-none-eabi\\include
 1393              		.file 12 "C:/Users/lenovo/Desktop/liteos/Project2/BearPi_LiteOS/components/connectivity/lwm2m/core
 1394              		.file 13 "C:/Users/lenovo/Desktop/liteos/Project2/BearPi_LiteOS/kernel/include/los_typedef.h"
 1395              		.file 14 "C:/Users/lenovo/Desktop/liteos/Project2/BearPi_LiteOS/arch/arm/common/cmsis/core_cm4.h"
 1396              		.file 15 "C:/Users/lenovo/Desktop/liteos/Project2/BearPi_LiteOS/targets/STM32L431_BearPi/Inc/syste
 1397              		.file 16 "C:/Users/lenovo/Desktop/liteos/Project2/BearPi_LiteOS/kernel/include/los_list.h"
 1398              		.file 17 "C:/Users/lenovo/Desktop/liteos/Project2/BearPi_LiteOS/kernel/include/los_err.h"
 1399              		.file 18 "C:/Users/lenovo/Desktop/liteos/Project2/BearPi_LiteOS/arch/arm/arm-m/include/los_hwi.h"
 1400              		.file 19 "C:/Users/lenovo/Desktop/liteos/Project2/BearPi_LiteOS/kernel/include/los_tick.h"
 1401              		.file 20 "C:/Users/lenovo/Desktop/liteos/Project2/BearPi_LiteOS/kernel/include/los_event.h"
 1402              		.file 21 "C:/Users/lenovo/Desktop/liteos/Project2/BearPi_LiteOS/kernel/include/los_task.h"
 1403              		.file 22 "C:/Users/lenovo/Desktop/liteos/Project2/BearPi_LiteOS/kernel/base/include/los_task.ph"
 1404              		.file 23 "C:/Users/lenovo/Desktop/liteos/Project2/BearPi_LiteOS/targets/STM32L431_BearPi/Inc/main.
 1405              		.file 24 "C:/Users/lenovo/Desktop/liteos/Project2/BearPi_LiteOS/targets/STM32L431_BearPi/OS_CONFIG
 1406              		.file 25 "C:/Users/lenovo/Desktop/liteos/Project2/BearPi_LiteOS/kernel/include/los_config.h"
 1407              		.file 26 "C:/Users/lenovo/Desktop/liteos/Project2/BearPi_LiteOS/components/connectivity/lwm2m/core
 1408              		.file 27 "c:\\program files (x86)\\liteos studio\\resources\\arm-none-eabi\\arm-none-eabi\\include
 1409              		.file 28 "c:\\program files (x86)\\liteos studio\\resources\\arm-none-eabi\\arm-none-eabi\\include
 1410              		.file 29 "C:/Users/lenovo/Desktop/liteos/Project2/BearPi_LiteOS/components/connectivity/agent_tiny
 1411              		.file 30 "C:/Users/lenovo/Desktop/liteos/Project2/BearPi_LiteOS/include/osdepends/atiny_osdep.h"
 1412              		.file 31 "c:\\program files (x86)\\liteos studio\\resources\\arm-none-eabi\\arm-none-eabi\\include
 1413              		.file 32 "<built-in>"
ARM GAS  c:\Users\lenovo\AppData\Local\Temp\ccyyQBE5.s 			page 44

