ARM GAS  c:\Users\lenovo\AppData\Local\Temp\ccdS8TBd.s 			page 1


   1              		.cpu cortex-m4
   2              		.eabi_attribute 27, 1
   3              		.eabi_attribute 28, 1
   4              		.eabi_attribute 20, 1
   5              		.eabi_attribute 21, 1
   6              		.eabi_attribute 23, 3
   7              		.eabi_attribute 24, 1
   8              		.eabi_attribute 25, 1
   9              		.eabi_attribute 26, 1
  10              		.eabi_attribute 30, 1
  11              		.eabi_attribute 34, 1
  12              		.eabi_attribute 18, 4
  13              		.file	"objects.c"
  14              		.text
  15              	.Ltext0:
  16              		.cfi_sections	.debug_frame
  17              		.section	.text.prv_init_forbidden,"ax",%progbits
  18              		.align	1
  19              		.syntax unified
  20              		.thumb
  21              		.thumb_func
  22              		.fpu fpv4-sp-d16
  24              	prv_init_forbidden:
  25              	.LFB144:
  26              		.file 1 "C:/Users/lenovo/Desktop/liteos/Project2/BearPi_LiteOS/components/connectivity/lwm2m/core/
   1:C:/Users/lenovo/Desktop/liteos/Project2/BearPi_LiteOS/components/connectivity/lwm2m/core\objects.c **** /*----------------------------------------------------------------------------
   2:C:/Users/lenovo/Desktop/liteos/Project2/BearPi_LiteOS/components/connectivity/lwm2m/core\objects.c ****  * Copyright (c) <2016-2018>, <Huawei Technologies Co., Ltd>
   3:C:/Users/lenovo/Desktop/liteos/Project2/BearPi_LiteOS/components/connectivity/lwm2m/core\objects.c ****  * All rights reserved.
   4:C:/Users/lenovo/Desktop/liteos/Project2/BearPi_LiteOS/components/connectivity/lwm2m/core\objects.c ****  * Redistribution and use in source and binary forms, with or without modification,
   5:C:/Users/lenovo/Desktop/liteos/Project2/BearPi_LiteOS/components/connectivity/lwm2m/core\objects.c ****  * are permitted provided that the following conditions are met:
   6:C:/Users/lenovo/Desktop/liteos/Project2/BearPi_LiteOS/components/connectivity/lwm2m/core\objects.c ****  * 1. Redistributions of source code must retain the above copyright notice, this list of
   7:C:/Users/lenovo/Desktop/liteos/Project2/BearPi_LiteOS/components/connectivity/lwm2m/core\objects.c ****  * conditions and the following disclaimer.
   8:C:/Users/lenovo/Desktop/liteos/Project2/BearPi_LiteOS/components/connectivity/lwm2m/core\objects.c ****  * 2. Redistributions in binary form must reproduce the above copyright notice, this list
   9:C:/Users/lenovo/Desktop/liteos/Project2/BearPi_LiteOS/components/connectivity/lwm2m/core\objects.c ****  * of conditions and the following disclaimer in the documentation and/or other materials
  10:C:/Users/lenovo/Desktop/liteos/Project2/BearPi_LiteOS/components/connectivity/lwm2m/core\objects.c ****  * provided with the distribution.
  11:C:/Users/lenovo/Desktop/liteos/Project2/BearPi_LiteOS/components/connectivity/lwm2m/core\objects.c ****  * 3. Neither the name of the copyright holder nor the names of its contributors may be used
  12:C:/Users/lenovo/Desktop/liteos/Project2/BearPi_LiteOS/components/connectivity/lwm2m/core\objects.c ****  * to endorse or promote products derived from this software without specific prior written
  13:C:/Users/lenovo/Desktop/liteos/Project2/BearPi_LiteOS/components/connectivity/lwm2m/core\objects.c ****  * permission.
  14:C:/Users/lenovo/Desktop/liteos/Project2/BearPi_LiteOS/components/connectivity/lwm2m/core\objects.c ****  * THIS SOFTWARE IS PROVIDED BY THE COPYRIGHT HOLDERS AND CONTRIBUTORS
  15:C:/Users/lenovo/Desktop/liteos/Project2/BearPi_LiteOS/components/connectivity/lwm2m/core\objects.c ****  * "AS IS" AND ANY EXPRESS OR IMPLIED WARRANTIES, INCLUDING, BUT NOT LIMITED TO,
  16:C:/Users/lenovo/Desktop/liteos/Project2/BearPi_LiteOS/components/connectivity/lwm2m/core\objects.c ****  * THE IMPLIED WARRANTIES OF MERCHANTABILITY AND FITNESS FOR A PARTICULAR
  17:C:/Users/lenovo/Desktop/liteos/Project2/BearPi_LiteOS/components/connectivity/lwm2m/core\objects.c ****  * PURPOSE ARE DISCLAIMED. IN NO EVENT SHALL THE COPYRIGHT HOLDER OR
  18:C:/Users/lenovo/Desktop/liteos/Project2/BearPi_LiteOS/components/connectivity/lwm2m/core\objects.c ****  * CONTRIBUTORS BE LIABLE FOR ANY DIRECT, INDIRECT, INCIDENTAL, SPECIAL,
  19:C:/Users/lenovo/Desktop/liteos/Project2/BearPi_LiteOS/components/connectivity/lwm2m/core\objects.c ****  * EXEMPLARY, OR CONSEQUENTIAL DAMAGES (INCLUDING, BUT NOT LIMITED TO,
  20:C:/Users/lenovo/Desktop/liteos/Project2/BearPi_LiteOS/components/connectivity/lwm2m/core\objects.c ****  * PROCUREMENT OF SUBSTITUTE GOODS OR SERVICES; LOSS OF USE, DATA, OR PROFITS;
  21:C:/Users/lenovo/Desktop/liteos/Project2/BearPi_LiteOS/components/connectivity/lwm2m/core\objects.c ****  * OR BUSINESS INTERRUPTION) HOWEVER CAUSED AND ON ANY THEORY OF LIABILITY,
  22:C:/Users/lenovo/Desktop/liteos/Project2/BearPi_LiteOS/components/connectivity/lwm2m/core\objects.c ****  * WHETHER IN CONTRACT, STRICT LIABILITY, OR TORT (INCLUDING NEGLIGENCE OR
  23:C:/Users/lenovo/Desktop/liteos/Project2/BearPi_LiteOS/components/connectivity/lwm2m/core\objects.c ****  * OTHERWISE) ARISING IN ANY WAY OUT OF THE USE OF THIS SOFTWARE, EVEN IF
  24:C:/Users/lenovo/Desktop/liteos/Project2/BearPi_LiteOS/components/connectivity/lwm2m/core\objects.c ****  * ADVISED OF THE POSSIBILITY OF SUCH DAMAGE.
  25:C:/Users/lenovo/Desktop/liteos/Project2/BearPi_LiteOS/components/connectivity/lwm2m/core\objects.c ****  *---------------------------------------------------------------------------*/
  26:C:/Users/lenovo/Desktop/liteos/Project2/BearPi_LiteOS/components/connectivity/lwm2m/core\objects.c **** /*----------------------------------------------------------------------------
  27:C:/Users/lenovo/Desktop/liteos/Project2/BearPi_LiteOS/components/connectivity/lwm2m/core\objects.c ****  * Notice of Export Control Law
  28:C:/Users/lenovo/Desktop/liteos/Project2/BearPi_LiteOS/components/connectivity/lwm2m/core\objects.c ****  * ===============================================
  29:C:/Users/lenovo/Desktop/liteos/Project2/BearPi_LiteOS/components/connectivity/lwm2m/core\objects.c ****  * Huawei LiteOS may be subject to applicable export control laws and regulations, which might
  30:C:/Users/lenovo/Desktop/liteos/Project2/BearPi_LiteOS/components/connectivity/lwm2m/core\objects.c ****  * include those applicable to Huawei LiteOS of U.S. and the country in which you are located.
  31:C:/Users/lenovo/Desktop/liteos/Project2/BearPi_LiteOS/components/connectivity/lwm2m/core\objects.c ****  * Import, export and usage of Huawei LiteOS in any manner by you shall be in compliance with such
  32:C:/Users/lenovo/Desktop/liteos/Project2/BearPi_LiteOS/components/connectivity/lwm2m/core\objects.c ****  * applicable export control laws and regulations.
ARM GAS  c:\Users\lenovo\AppData\Local\Temp\ccdS8TBd.s 			page 2


  33:C:/Users/lenovo/Desktop/liteos/Project2/BearPi_LiteOS/components/connectivity/lwm2m/core\objects.c ****  *---------------------------------------------------------------------------*/
  34:C:/Users/lenovo/Desktop/liteos/Project2/BearPi_LiteOS/components/connectivity/lwm2m/core\objects.c **** 
  35:C:/Users/lenovo/Desktop/liteos/Project2/BearPi_LiteOS/components/connectivity/lwm2m/core\objects.c **** /*******************************************************************************
  36:C:/Users/lenovo/Desktop/liteos/Project2/BearPi_LiteOS/components/connectivity/lwm2m/core\objects.c ****  *
  37:C:/Users/lenovo/Desktop/liteos/Project2/BearPi_LiteOS/components/connectivity/lwm2m/core\objects.c ****  * Copyright (c) 2013, 2014 Intel Corporation and others.
  38:C:/Users/lenovo/Desktop/liteos/Project2/BearPi_LiteOS/components/connectivity/lwm2m/core\objects.c ****  * All rights reserved. This program and the accompanying materials
  39:C:/Users/lenovo/Desktop/liteos/Project2/BearPi_LiteOS/components/connectivity/lwm2m/core\objects.c ****  * are made available under the terms of the Eclipse Public License v1.0
  40:C:/Users/lenovo/Desktop/liteos/Project2/BearPi_LiteOS/components/connectivity/lwm2m/core\objects.c ****  * and Eclipse Distribution License v1.0 which accompany this distribution.
  41:C:/Users/lenovo/Desktop/liteos/Project2/BearPi_LiteOS/components/connectivity/lwm2m/core\objects.c ****  *
  42:C:/Users/lenovo/Desktop/liteos/Project2/BearPi_LiteOS/components/connectivity/lwm2m/core\objects.c ****  * The Eclipse Public License is available at
  43:C:/Users/lenovo/Desktop/liteos/Project2/BearPi_LiteOS/components/connectivity/lwm2m/core\objects.c ****  *    http://www.eclipse.org/legal/epl-v10.html
  44:C:/Users/lenovo/Desktop/liteos/Project2/BearPi_LiteOS/components/connectivity/lwm2m/core\objects.c ****  * The Eclipse Distribution License is available at
  45:C:/Users/lenovo/Desktop/liteos/Project2/BearPi_LiteOS/components/connectivity/lwm2m/core\objects.c ****  *    http://www.eclipse.org/org/documents/edl-v10.php.
  46:C:/Users/lenovo/Desktop/liteos/Project2/BearPi_LiteOS/components/connectivity/lwm2m/core\objects.c ****  *
  47:C:/Users/lenovo/Desktop/liteos/Project2/BearPi_LiteOS/components/connectivity/lwm2m/core\objects.c ****  * Contributors:
  48:C:/Users/lenovo/Desktop/liteos/Project2/BearPi_LiteOS/components/connectivity/lwm2m/core\objects.c ****  *    David Navarro, Intel Corporation - initial API and implementation
  49:C:/Users/lenovo/Desktop/liteos/Project2/BearPi_LiteOS/components/connectivity/lwm2m/core\objects.c ****  *    Fabien Fleutot - Please refer to git log
  50:C:/Users/lenovo/Desktop/liteos/Project2/BearPi_LiteOS/components/connectivity/lwm2m/core\objects.c ****  *    Toby Jaffey - Please refer to git log
  51:C:/Users/lenovo/Desktop/liteos/Project2/BearPi_LiteOS/components/connectivity/lwm2m/core\objects.c ****  *    Benjamin Cabe? - Please refer to git log
  52:C:/Users/lenovo/Desktop/liteos/Project2/BearPi_LiteOS/components/connectivity/lwm2m/core\objects.c ****  *    Bosch Software Innovations GmbH - Please refer to git log
  53:C:/Users/lenovo/Desktop/liteos/Project2/BearPi_LiteOS/components/connectivity/lwm2m/core\objects.c ****  *    Pascal Rieux - Please refer to git log
  54:C:/Users/lenovo/Desktop/liteos/Project2/BearPi_LiteOS/components/connectivity/lwm2m/core\objects.c ****  *    Scott Bertin - Please refer to git log
  55:C:/Users/lenovo/Desktop/liteos/Project2/BearPi_LiteOS/components/connectivity/lwm2m/core\objects.c ****  *
  56:C:/Users/lenovo/Desktop/liteos/Project2/BearPi_LiteOS/components/connectivity/lwm2m/core\objects.c ****  *******************************************************************************/
  57:C:/Users/lenovo/Desktop/liteos/Project2/BearPi_LiteOS/components/connectivity/lwm2m/core\objects.c **** 
  58:C:/Users/lenovo/Desktop/liteos/Project2/BearPi_LiteOS/components/connectivity/lwm2m/core\objects.c **** /*
  59:C:/Users/lenovo/Desktop/liteos/Project2/BearPi_LiteOS/components/connectivity/lwm2m/core\objects.c ****  Copyright (c) 2013, 2014 Intel Corporation
  60:C:/Users/lenovo/Desktop/liteos/Project2/BearPi_LiteOS/components/connectivity/lwm2m/core\objects.c **** 
  61:C:/Users/lenovo/Desktop/liteos/Project2/BearPi_LiteOS/components/connectivity/lwm2m/core\objects.c ****  Redistribution and use in source and binary forms, with or without modification,
  62:C:/Users/lenovo/Desktop/liteos/Project2/BearPi_LiteOS/components/connectivity/lwm2m/core\objects.c ****  are permitted provided that the following conditions are met:
  63:C:/Users/lenovo/Desktop/liteos/Project2/BearPi_LiteOS/components/connectivity/lwm2m/core\objects.c **** 
  64:C:/Users/lenovo/Desktop/liteos/Project2/BearPi_LiteOS/components/connectivity/lwm2m/core\objects.c ****      * Redistributions of source code must retain the above copyright notice,
  65:C:/Users/lenovo/Desktop/liteos/Project2/BearPi_LiteOS/components/connectivity/lwm2m/core\objects.c ****        this list of conditions and the following disclaimer.
  66:C:/Users/lenovo/Desktop/liteos/Project2/BearPi_LiteOS/components/connectivity/lwm2m/core\objects.c ****      * Redistributions in binary form must reproduce the above copyright notice,
  67:C:/Users/lenovo/Desktop/liteos/Project2/BearPi_LiteOS/components/connectivity/lwm2m/core\objects.c ****        this list of conditions and the following disclaimer in the documentation
  68:C:/Users/lenovo/Desktop/liteos/Project2/BearPi_LiteOS/components/connectivity/lwm2m/core\objects.c ****        and/or other materials provided with the distribution.
  69:C:/Users/lenovo/Desktop/liteos/Project2/BearPi_LiteOS/components/connectivity/lwm2m/core\objects.c ****      * Neither the name of Intel Corporation nor the names of its contributors
  70:C:/Users/lenovo/Desktop/liteos/Project2/BearPi_LiteOS/components/connectivity/lwm2m/core\objects.c ****        may be used to endorse or promote products derived from this software
  71:C:/Users/lenovo/Desktop/liteos/Project2/BearPi_LiteOS/components/connectivity/lwm2m/core\objects.c ****        without specific prior written permission.
  72:C:/Users/lenovo/Desktop/liteos/Project2/BearPi_LiteOS/components/connectivity/lwm2m/core\objects.c **** 
  73:C:/Users/lenovo/Desktop/liteos/Project2/BearPi_LiteOS/components/connectivity/lwm2m/core\objects.c ****  THIS SOFTWARE IS PROVIDED BY THE COPYRIGHT HOLDERS AND CONTRIBUTORS "AS IS" AND
  74:C:/Users/lenovo/Desktop/liteos/Project2/BearPi_LiteOS/components/connectivity/lwm2m/core\objects.c ****  ANY EXPRESS OR IMPLIED WARRANTIES, INCLUDING, BUT NOT LIMITED TO, THE IMPLIED
  75:C:/Users/lenovo/Desktop/liteos/Project2/BearPi_LiteOS/components/connectivity/lwm2m/core\objects.c ****  WARRANTIES OF MERCHANTABILITY AND FITNESS FOR A PARTICULAR PURPOSE ARE DISCLAIMED.
  76:C:/Users/lenovo/Desktop/liteos/Project2/BearPi_LiteOS/components/connectivity/lwm2m/core\objects.c ****  IN NO EVENT SHALL THE COPYRIGHT OWNER OR CONTRIBUTORS BE LIABLE FOR ANY DIRECT,
  77:C:/Users/lenovo/Desktop/liteos/Project2/BearPi_LiteOS/components/connectivity/lwm2m/core\objects.c ****  INDIRECT, INCIDENTAL, SPECIAL, EXEMPLARY, OR CONSEQUENTIAL DAMAGES (INCLUDING,
  78:C:/Users/lenovo/Desktop/liteos/Project2/BearPi_LiteOS/components/connectivity/lwm2m/core\objects.c ****  BUT NOT LIMITED TO, PROCUREMENT OF SUBSTITUTE GOODS OR SERVICES; LOSS OF USE,
  79:C:/Users/lenovo/Desktop/liteos/Project2/BearPi_LiteOS/components/connectivity/lwm2m/core\objects.c ****  DATA, OR PROFITS; OR BUSINESS INTERRUPTION) HOWEVER CAUSED AND ON ANY THEORY OF
  80:C:/Users/lenovo/Desktop/liteos/Project2/BearPi_LiteOS/components/connectivity/lwm2m/core\objects.c ****  LIABILITY, WHETHER IN CONTRACT, STRICT LIABILITY, OR TORT (INCLUDING NEGLIGENCE OR
  81:C:/Users/lenovo/Desktop/liteos/Project2/BearPi_LiteOS/components/connectivity/lwm2m/core\objects.c ****  OTHERWISE) ARISING IN ANY WAY OUT OF THE USE OF THIS SOFTWARE, EVEN IF ADVISED OF
  82:C:/Users/lenovo/Desktop/liteos/Project2/BearPi_LiteOS/components/connectivity/lwm2m/core\objects.c ****  THE POSSIBILITY OF SUCH DAMAGE.
  83:C:/Users/lenovo/Desktop/liteos/Project2/BearPi_LiteOS/components/connectivity/lwm2m/core\objects.c **** 
  84:C:/Users/lenovo/Desktop/liteos/Project2/BearPi_LiteOS/components/connectivity/lwm2m/core\objects.c ****  David Navarro <david.navarro@intel.com>
  85:C:/Users/lenovo/Desktop/liteos/Project2/BearPi_LiteOS/components/connectivity/lwm2m/core\objects.c **** 
  86:C:/Users/lenovo/Desktop/liteos/Project2/BearPi_LiteOS/components/connectivity/lwm2m/core\objects.c **** */
  87:C:/Users/lenovo/Desktop/liteos/Project2/BearPi_LiteOS/components/connectivity/lwm2m/core\objects.c **** #include "internals.h"
  88:C:/Users/lenovo/Desktop/liteos/Project2/BearPi_LiteOS/components/connectivity/lwm2m/core\objects.c **** 
  89:C:/Users/lenovo/Desktop/liteos/Project2/BearPi_LiteOS/components/connectivity/lwm2m/core\objects.c **** #ifdef LWM2M_CLIENT_MODE
ARM GAS  c:\Users\lenovo\AppData\Local\Temp\ccdS8TBd.s 			page 3


  90:C:/Users/lenovo/Desktop/liteos/Project2/BearPi_LiteOS/components/connectivity/lwm2m/core\objects.c **** 
  91:C:/Users/lenovo/Desktop/liteos/Project2/BearPi_LiteOS/components/connectivity/lwm2m/core\objects.c **** 
  92:C:/Users/lenovo/Desktop/liteos/Project2/BearPi_LiteOS/components/connectivity/lwm2m/core\objects.c **** #include <stdlib.h>
  93:C:/Users/lenovo/Desktop/liteos/Project2/BearPi_LiteOS/components/connectivity/lwm2m/core\objects.c **** #include <string.h>
  94:C:/Users/lenovo/Desktop/liteos/Project2/BearPi_LiteOS/components/connectivity/lwm2m/core\objects.c **** #include <stdio.h>
  95:C:/Users/lenovo/Desktop/liteos/Project2/BearPi_LiteOS/components/connectivity/lwm2m/core\objects.c **** #include "object_comm.h"
  96:C:/Users/lenovo/Desktop/liteos/Project2/BearPi_LiteOS/components/connectivity/lwm2m/core\objects.c **** 
  97:C:/Users/lenovo/Desktop/liteos/Project2/BearPi_LiteOS/components/connectivity/lwm2m/core\objects.c **** uint8_t object_checkReadable(lwm2m_context_t *contextP,
  98:C:/Users/lenovo/Desktop/liteos/Project2/BearPi_LiteOS/components/connectivity/lwm2m/core\objects.c ****                              lwm2m_uri_t *uriP)
  99:C:/Users/lenovo/Desktop/liteos/Project2/BearPi_LiteOS/components/connectivity/lwm2m/core\objects.c **** {
 100:C:/Users/lenovo/Desktop/liteos/Project2/BearPi_LiteOS/components/connectivity/lwm2m/core\objects.c ****     uint8_t result;
 101:C:/Users/lenovo/Desktop/liteos/Project2/BearPi_LiteOS/components/connectivity/lwm2m/core\objects.c ****     lwm2m_object_t *targetP;
 102:C:/Users/lenovo/Desktop/liteos/Project2/BearPi_LiteOS/components/connectivity/lwm2m/core\objects.c ****     lwm2m_data_t *dataP = NULL;
 103:C:/Users/lenovo/Desktop/liteos/Project2/BearPi_LiteOS/components/connectivity/lwm2m/core\objects.c ****     int size;
 104:C:/Users/lenovo/Desktop/liteos/Project2/BearPi_LiteOS/components/connectivity/lwm2m/core\objects.c **** 
 105:C:/Users/lenovo/Desktop/liteos/Project2/BearPi_LiteOS/components/connectivity/lwm2m/core\objects.c ****     LOG_URI(uriP);
 106:C:/Users/lenovo/Desktop/liteos/Project2/BearPi_LiteOS/components/connectivity/lwm2m/core\objects.c ****     targetP = (lwm2m_object_t *)LWM2M_LIST_FIND(contextP->objectList, uriP->objectId);
 107:C:/Users/lenovo/Desktop/liteos/Project2/BearPi_LiteOS/components/connectivity/lwm2m/core\objects.c ****     if (NULL == targetP) return COAP_404_NOT_FOUND;
 108:C:/Users/lenovo/Desktop/liteos/Project2/BearPi_LiteOS/components/connectivity/lwm2m/core\objects.c ****     if (NULL == targetP->readFunc) return COAP_405_METHOD_NOT_ALLOWED;
 109:C:/Users/lenovo/Desktop/liteos/Project2/BearPi_LiteOS/components/connectivity/lwm2m/core\objects.c **** 
 110:C:/Users/lenovo/Desktop/liteos/Project2/BearPi_LiteOS/components/connectivity/lwm2m/core\objects.c ****     if (!LWM2M_URI_IS_SET_INSTANCE(uriP)) return COAP_205_CONTENT;
 111:C:/Users/lenovo/Desktop/liteos/Project2/BearPi_LiteOS/components/connectivity/lwm2m/core\objects.c **** 
 112:C:/Users/lenovo/Desktop/liteos/Project2/BearPi_LiteOS/components/connectivity/lwm2m/core\objects.c ****     if (NULL == lwm2m_list_find(targetP->instanceList, uriP->instanceId)) return COAP_404_NOT_FOUND
 113:C:/Users/lenovo/Desktop/liteos/Project2/BearPi_LiteOS/components/connectivity/lwm2m/core\objects.c **** 
 114:C:/Users/lenovo/Desktop/liteos/Project2/BearPi_LiteOS/components/connectivity/lwm2m/core\objects.c ****     if (!LWM2M_URI_IS_SET_RESOURCE(uriP)) return COAP_205_CONTENT;
 115:C:/Users/lenovo/Desktop/liteos/Project2/BearPi_LiteOS/components/connectivity/lwm2m/core\objects.c **** 
 116:C:/Users/lenovo/Desktop/liteos/Project2/BearPi_LiteOS/components/connectivity/lwm2m/core\objects.c ****     size = 1;
 117:C:/Users/lenovo/Desktop/liteos/Project2/BearPi_LiteOS/components/connectivity/lwm2m/core\objects.c ****     dataP = lwm2m_data_new(1);
 118:C:/Users/lenovo/Desktop/liteos/Project2/BearPi_LiteOS/components/connectivity/lwm2m/core\objects.c ****     if (dataP == NULL) return COAP_500_INTERNAL_SERVER_ERROR;
 119:C:/Users/lenovo/Desktop/liteos/Project2/BearPi_LiteOS/components/connectivity/lwm2m/core\objects.c **** 
 120:C:/Users/lenovo/Desktop/liteos/Project2/BearPi_LiteOS/components/connectivity/lwm2m/core\objects.c ****     dataP->id = uriP->resourceId;
 121:C:/Users/lenovo/Desktop/liteos/Project2/BearPi_LiteOS/components/connectivity/lwm2m/core\objects.c **** 
 122:C:/Users/lenovo/Desktop/liteos/Project2/BearPi_LiteOS/components/connectivity/lwm2m/core\objects.c ****     result = targetP->readFunc(uriP->instanceId, &size, &dataP, NULL, targetP);
 123:C:/Users/lenovo/Desktop/liteos/Project2/BearPi_LiteOS/components/connectivity/lwm2m/core\objects.c ****     lwm2m_data_free(1, dataP);
 124:C:/Users/lenovo/Desktop/liteos/Project2/BearPi_LiteOS/components/connectivity/lwm2m/core\objects.c **** 
 125:C:/Users/lenovo/Desktop/liteos/Project2/BearPi_LiteOS/components/connectivity/lwm2m/core\objects.c ****     return result;
 126:C:/Users/lenovo/Desktop/liteos/Project2/BearPi_LiteOS/components/connectivity/lwm2m/core\objects.c **** }
 127:C:/Users/lenovo/Desktop/liteos/Project2/BearPi_LiteOS/components/connectivity/lwm2m/core\objects.c **** 
 128:C:/Users/lenovo/Desktop/liteos/Project2/BearPi_LiteOS/components/connectivity/lwm2m/core\objects.c **** uint8_t object_checkNumeric(lwm2m_context_t *contextP,
 129:C:/Users/lenovo/Desktop/liteos/Project2/BearPi_LiteOS/components/connectivity/lwm2m/core\objects.c ****                             lwm2m_uri_t *uriP)
 130:C:/Users/lenovo/Desktop/liteos/Project2/BearPi_LiteOS/components/connectivity/lwm2m/core\objects.c **** {
 131:C:/Users/lenovo/Desktop/liteos/Project2/BearPi_LiteOS/components/connectivity/lwm2m/core\objects.c ****     uint8_t result;
 132:C:/Users/lenovo/Desktop/liteos/Project2/BearPi_LiteOS/components/connectivity/lwm2m/core\objects.c ****     lwm2m_object_t *targetP;
 133:C:/Users/lenovo/Desktop/liteos/Project2/BearPi_LiteOS/components/connectivity/lwm2m/core\objects.c ****     lwm2m_data_t *dataP = NULL;
 134:C:/Users/lenovo/Desktop/liteos/Project2/BearPi_LiteOS/components/connectivity/lwm2m/core\objects.c ****     int size;
 135:C:/Users/lenovo/Desktop/liteos/Project2/BearPi_LiteOS/components/connectivity/lwm2m/core\objects.c **** 
 136:C:/Users/lenovo/Desktop/liteos/Project2/BearPi_LiteOS/components/connectivity/lwm2m/core\objects.c ****     LOG_URI(uriP);
 137:C:/Users/lenovo/Desktop/liteos/Project2/BearPi_LiteOS/components/connectivity/lwm2m/core\objects.c ****     if (!LWM2M_URI_IS_SET_RESOURCE(uriP)) return COAP_405_METHOD_NOT_ALLOWED;
 138:C:/Users/lenovo/Desktop/liteos/Project2/BearPi_LiteOS/components/connectivity/lwm2m/core\objects.c **** 
 139:C:/Users/lenovo/Desktop/liteos/Project2/BearPi_LiteOS/components/connectivity/lwm2m/core\objects.c ****     targetP = (lwm2m_object_t *)LWM2M_LIST_FIND(contextP->objectList, uriP->objectId);
 140:C:/Users/lenovo/Desktop/liteos/Project2/BearPi_LiteOS/components/connectivity/lwm2m/core\objects.c ****     if (NULL == targetP) return COAP_404_NOT_FOUND;
 141:C:/Users/lenovo/Desktop/liteos/Project2/BearPi_LiteOS/components/connectivity/lwm2m/core\objects.c ****     if (NULL == targetP->readFunc) return COAP_405_METHOD_NOT_ALLOWED;
 142:C:/Users/lenovo/Desktop/liteos/Project2/BearPi_LiteOS/components/connectivity/lwm2m/core\objects.c **** 
 143:C:/Users/lenovo/Desktop/liteos/Project2/BearPi_LiteOS/components/connectivity/lwm2m/core\objects.c ****     size = 1;
 144:C:/Users/lenovo/Desktop/liteos/Project2/BearPi_LiteOS/components/connectivity/lwm2m/core\objects.c ****     dataP = lwm2m_data_new(1);
 145:C:/Users/lenovo/Desktop/liteos/Project2/BearPi_LiteOS/components/connectivity/lwm2m/core\objects.c ****     if (dataP == NULL) return COAP_500_INTERNAL_SERVER_ERROR;
 146:C:/Users/lenovo/Desktop/liteos/Project2/BearPi_LiteOS/components/connectivity/lwm2m/core\objects.c **** 
ARM GAS  c:\Users\lenovo\AppData\Local\Temp\ccdS8TBd.s 			page 4


 147:C:/Users/lenovo/Desktop/liteos/Project2/BearPi_LiteOS/components/connectivity/lwm2m/core\objects.c ****     dataP->id = uriP->resourceId;
 148:C:/Users/lenovo/Desktop/liteos/Project2/BearPi_LiteOS/components/connectivity/lwm2m/core\objects.c **** 
 149:C:/Users/lenovo/Desktop/liteos/Project2/BearPi_LiteOS/components/connectivity/lwm2m/core\objects.c ****     result = targetP->readFunc(uriP->instanceId, &size, &dataP, NULL, targetP);
 150:C:/Users/lenovo/Desktop/liteos/Project2/BearPi_LiteOS/components/connectivity/lwm2m/core\objects.c ****     if (result == COAP_205_CONTENT)
 151:C:/Users/lenovo/Desktop/liteos/Project2/BearPi_LiteOS/components/connectivity/lwm2m/core\objects.c ****     {
 152:C:/Users/lenovo/Desktop/liteos/Project2/BearPi_LiteOS/components/connectivity/lwm2m/core\objects.c ****         switch (dataP->type)
 153:C:/Users/lenovo/Desktop/liteos/Project2/BearPi_LiteOS/components/connectivity/lwm2m/core\objects.c ****         {
 154:C:/Users/lenovo/Desktop/liteos/Project2/BearPi_LiteOS/components/connectivity/lwm2m/core\objects.c ****         case LWM2M_TYPE_INTEGER:
 155:C:/Users/lenovo/Desktop/liteos/Project2/BearPi_LiteOS/components/connectivity/lwm2m/core\objects.c ****         case LWM2M_TYPE_FLOAT:
 156:C:/Users/lenovo/Desktop/liteos/Project2/BearPi_LiteOS/components/connectivity/lwm2m/core\objects.c ****             break;
 157:C:/Users/lenovo/Desktop/liteos/Project2/BearPi_LiteOS/components/connectivity/lwm2m/core\objects.c ****         default:
 158:C:/Users/lenovo/Desktop/liteos/Project2/BearPi_LiteOS/components/connectivity/lwm2m/core\objects.c ****             result = COAP_405_METHOD_NOT_ALLOWED;
 159:C:/Users/lenovo/Desktop/liteos/Project2/BearPi_LiteOS/components/connectivity/lwm2m/core\objects.c ****         }
 160:C:/Users/lenovo/Desktop/liteos/Project2/BearPi_LiteOS/components/connectivity/lwm2m/core\objects.c ****     }
 161:C:/Users/lenovo/Desktop/liteos/Project2/BearPi_LiteOS/components/connectivity/lwm2m/core\objects.c **** 
 162:C:/Users/lenovo/Desktop/liteos/Project2/BearPi_LiteOS/components/connectivity/lwm2m/core\objects.c ****     lwm2m_data_free(1, dataP);
 163:C:/Users/lenovo/Desktop/liteos/Project2/BearPi_LiteOS/components/connectivity/lwm2m/core\objects.c **** 
 164:C:/Users/lenovo/Desktop/liteos/Project2/BearPi_LiteOS/components/connectivity/lwm2m/core\objects.c ****     return result;
 165:C:/Users/lenovo/Desktop/liteos/Project2/BearPi_LiteOS/components/connectivity/lwm2m/core\objects.c **** }
 166:C:/Users/lenovo/Desktop/liteos/Project2/BearPi_LiteOS/components/connectivity/lwm2m/core\objects.c **** 
 167:C:/Users/lenovo/Desktop/liteos/Project2/BearPi_LiteOS/components/connectivity/lwm2m/core\objects.c **** static uint8_t prv_init_forbidden(lwm2m_context_t *contextP,
 168:C:/Users/lenovo/Desktop/liteos/Project2/BearPi_LiteOS/components/connectivity/lwm2m/core\objects.c ****                                   lwm2m_object_t *targetP,
 169:C:/Users/lenovo/Desktop/liteos/Project2/BearPi_LiteOS/components/connectivity/lwm2m/core\objects.c ****                                   uint16_t objId,
 170:C:/Users/lenovo/Desktop/liteos/Project2/BearPi_LiteOS/components/connectivity/lwm2m/core\objects.c ****                                   uint16_t serverId,
 171:C:/Users/lenovo/Desktop/liteos/Project2/BearPi_LiteOS/components/connectivity/lwm2m/core\objects.c ****                                   int *sizeP,
 172:C:/Users/lenovo/Desktop/liteos/Project2/BearPi_LiteOS/components/connectivity/lwm2m/core\objects.c ****                                   uint8_t **forbidden)
 173:C:/Users/lenovo/Desktop/liteos/Project2/BearPi_LiteOS/components/connectivity/lwm2m/core\objects.c **** {
  27              		.loc 1 173 0
  28              		.cfi_startproc
  29              		@ args = 8, pretend = 0, frame = 8
  30              		@ frame_needed = 0, uses_anonymous_args = 0
  31              	.LVL0:
  32 0000 2DE9F043 		push	{r4, r5, r6, r7, r8, r9, lr}
  33              	.LCFI0:
  34              		.cfi_def_cfa_offset 28
  35              		.cfi_offset 4, -28
  36              		.cfi_offset 5, -24
  37              		.cfi_offset 6, -20
  38              		.cfi_offset 7, -16
  39              		.cfi_offset 8, -12
  40              		.cfi_offset 9, -8
  41              		.cfi_offset 14, -4
  42 0004 83B0     		sub	sp, sp, #12
  43              	.LCFI1:
  44              		.cfi_def_cfa_offset 40
  45 0006 0746     		mov	r7, r0
  46 0008 0C46     		mov	r4, r1
  47 000a 9846     		mov	r8, r3
  48 000c 0A9E     		ldr	r6, [sp, #40]
  49 000e DDF82C90 		ldr	r9, [sp, #44]
 174:C:/Users/lenovo/Desktop/liteos/Project2/BearPi_LiteOS/components/connectivity/lwm2m/core\objects.c ****     lwm2m_list_t *instanceP;
 175:C:/Users/lenovo/Desktop/liteos/Project2/BearPi_LiteOS/components/connectivity/lwm2m/core\objects.c ****     lwm2m_uri_t uriP;
 176:C:/Users/lenovo/Desktop/liteos/Project2/BearPi_LiteOS/components/connectivity/lwm2m/core\objects.c ****     int i;
 177:C:/Users/lenovo/Desktop/liteos/Project2/BearPi_LiteOS/components/connectivity/lwm2m/core\objects.c **** 
 178:C:/Users/lenovo/Desktop/liteos/Project2/BearPi_LiteOS/components/connectivity/lwm2m/core\objects.c ****     uriP.flag = LWM2M_URI_FLAG_INSTANCE_ID;
  50              		.loc 1 178 0
  51 0012 0223     		movs	r3, #2
ARM GAS  c:\Users\lenovo\AppData\Local\Temp\ccdS8TBd.s 			page 5


  52              	.LVL1:
  53 0014 8DF80030 		strb	r3, [sp]
 179:C:/Users/lenovo/Desktop/liteos/Project2/BearPi_LiteOS/components/connectivity/lwm2m/core\objects.c ****     uriP.objectId = objId;
  54              		.loc 1 179 0
  55 0018 ADF80220 		strh	r2, [sp, #2]	@ movhi
  56              	.LVL2:
 180:C:/Users/lenovo/Desktop/liteos/Project2/BearPi_LiteOS/components/connectivity/lwm2m/core\objects.c **** 
 181:C:/Users/lenovo/Desktop/liteos/Project2/BearPi_LiteOS/components/connectivity/lwm2m/core\objects.c ****     i = 0;
 182:C:/Users/lenovo/Desktop/liteos/Project2/BearPi_LiteOS/components/connectivity/lwm2m/core\objects.c ****     *forbidden = (uint8_t *)lwm2m_malloc(*sizeP);
  57              		.loc 1 182 0
  58 001c 3068     		ldr	r0, [r6]
  59              	.LVL3:
  60 001e FFF7FEFF 		bl	lwm2m_malloc
  61              	.LVL4:
  62 0022 C9F80000 		str	r0, [r9]
 183:C:/Users/lenovo/Desktop/liteos/Project2/BearPi_LiteOS/components/connectivity/lwm2m/core\objects.c ****     if (*forbidden == NULL)
  63              		.loc 1 183 0
  64 0026 40B3     		cbz	r0, .L6
 184:C:/Users/lenovo/Desktop/liteos/Project2/BearPi_LiteOS/components/connectivity/lwm2m/core\objects.c ****     {
 185:C:/Users/lenovo/Desktop/liteos/Project2/BearPi_LiteOS/components/connectivity/lwm2m/core\objects.c ****         return COAP_500_INTERNAL_SERVER_ERROR;
 186:C:/Users/lenovo/Desktop/liteos/Project2/BearPi_LiteOS/components/connectivity/lwm2m/core\objects.c ****     }
 187:C:/Users/lenovo/Desktop/liteos/Project2/BearPi_LiteOS/components/connectivity/lwm2m/core\objects.c ****     memset(*forbidden, 0, *sizeP);
  65              		.loc 1 187 0
  66 0028 3268     		ldr	r2, [r6]
  67 002a 0021     		movs	r1, #0
  68 002c FFF7FEFF 		bl	memset
  69              	.LVL5:
 188:C:/Users/lenovo/Desktop/liteos/Project2/BearPi_LiteOS/components/connectivity/lwm2m/core\objects.c ****     for (instanceP = targetP->instanceList; instanceP != NULL ; instanceP = instanceP->next)
  70              		.loc 1 188 0
  71 0030 A468     		ldr	r4, [r4, #8]
  72              	.LVL6:
 181:C:/Users/lenovo/Desktop/liteos/Project2/BearPi_LiteOS/components/connectivity/lwm2m/core\objects.c ****     *forbidden = (uint8_t *)lwm2m_malloc(*sizeP);
  73              		.loc 1 181 0
  74 0032 0025     		movs	r5, #0
  75              		.loc 1 188 0
  76 0034 01E0     		b	.L3
  77              	.LVL7:
  78              	.L4:
 189:C:/Users/lenovo/Desktop/liteos/Project2/BearPi_LiteOS/components/connectivity/lwm2m/core\objects.c ****     {
 190:C:/Users/lenovo/Desktop/liteos/Project2/BearPi_LiteOS/components/connectivity/lwm2m/core\objects.c ****         uriP.instanceId = instanceP->id;
 191:C:/Users/lenovo/Desktop/liteos/Project2/BearPi_LiteOS/components/connectivity/lwm2m/core\objects.c ****         if (acc_auth_operate(contextP, &uriP, OBJ_ACC_READ, serverId) != COAP_NO_ERROR)
 192:C:/Users/lenovo/Desktop/liteos/Project2/BearPi_LiteOS/components/connectivity/lwm2m/core\objects.c ****         {
 193:C:/Users/lenovo/Desktop/liteos/Project2/BearPi_LiteOS/components/connectivity/lwm2m/core\objects.c ****             (*sizeP)--;
 194:C:/Users/lenovo/Desktop/liteos/Project2/BearPi_LiteOS/components/connectivity/lwm2m/core\objects.c ****             (*forbidden)[i] = 1;
 195:C:/Users/lenovo/Desktop/liteos/Project2/BearPi_LiteOS/components/connectivity/lwm2m/core\objects.c ****         }
 196:C:/Users/lenovo/Desktop/liteos/Project2/BearPi_LiteOS/components/connectivity/lwm2m/core\objects.c ****         ++i;
  79              		.loc 1 196 0 discriminator 2
  80 0036 0135     		adds	r5, r5, #1
  81              	.LVL8:
 188:C:/Users/lenovo/Desktop/liteos/Project2/BearPi_LiteOS/components/connectivity/lwm2m/core\objects.c ****     {
  82              		.loc 1 188 0 discriminator 2
  83 0038 2468     		ldr	r4, [r4]
  84              	.LVL9:
  85              	.L3:
 188:C:/Users/lenovo/Desktop/liteos/Project2/BearPi_LiteOS/components/connectivity/lwm2m/core\objects.c ****     {
  86              		.loc 1 188 0 is_stmt 0 discriminator 1
  87 003a 94B1     		cbz	r4, .L9
ARM GAS  c:\Users\lenovo\AppData\Local\Temp\ccdS8TBd.s 			page 6


 190:C:/Users/lenovo/Desktop/liteos/Project2/BearPi_LiteOS/components/connectivity/lwm2m/core\objects.c ****         if (acc_auth_operate(contextP, &uriP, OBJ_ACC_READ, serverId) != COAP_NO_ERROR)
  88              		.loc 1 190 0 is_stmt 1
  89 003c A388     		ldrh	r3, [r4, #4]
  90 003e ADF80430 		strh	r3, [sp, #4]	@ movhi
 191:C:/Users/lenovo/Desktop/liteos/Project2/BearPi_LiteOS/components/connectivity/lwm2m/core\objects.c ****         {
  91              		.loc 1 191 0
  92 0042 4346     		mov	r3, r8
  93 0044 0022     		movs	r2, #0
  94 0046 6946     		mov	r1, sp
  95 0048 3846     		mov	r0, r7
  96 004a FFF7FEFF 		bl	acc_auth_operate
  97              	.LVL10:
  98 004e 0028     		cmp	r0, #0
  99 0050 F1D0     		beq	.L4
 193:C:/Users/lenovo/Desktop/liteos/Project2/BearPi_LiteOS/components/connectivity/lwm2m/core\objects.c ****             (*forbidden)[i] = 1;
 100              		.loc 1 193 0
 101 0052 3368     		ldr	r3, [r6]
 102 0054 013B     		subs	r3, r3, #1
 103 0056 3360     		str	r3, [r6]
 194:C:/Users/lenovo/Desktop/liteos/Project2/BearPi_LiteOS/components/connectivity/lwm2m/core\objects.c ****         }
 104              		.loc 1 194 0
 105 0058 D9F80030 		ldr	r3, [r9]
 106 005c 0122     		movs	r2, #1
 107 005e 5A55     		strb	r2, [r3, r5]
 108 0060 E9E7     		b	.L4
 109              	.L9:
 197:C:/Users/lenovo/Desktop/liteos/Project2/BearPi_LiteOS/components/connectivity/lwm2m/core\objects.c ****     }
 198:C:/Users/lenovo/Desktop/liteos/Project2/BearPi_LiteOS/components/connectivity/lwm2m/core\objects.c **** 
 199:C:/Users/lenovo/Desktop/liteos/Project2/BearPi_LiteOS/components/connectivity/lwm2m/core\objects.c ****     if (*sizeP == 0)
 110              		.loc 1 199 0
 111 0062 3368     		ldr	r3, [r6]
 112 0064 1BB1     		cbz	r3, .L10
 200:C:/Users/lenovo/Desktop/liteos/Project2/BearPi_LiteOS/components/connectivity/lwm2m/core\objects.c ****     {
 201:C:/Users/lenovo/Desktop/liteos/Project2/BearPi_LiteOS/components/connectivity/lwm2m/core\objects.c ****         lwm2m_free(*forbidden);
 202:C:/Users/lenovo/Desktop/liteos/Project2/BearPi_LiteOS/components/connectivity/lwm2m/core\objects.c ****         return COAP_500_INTERNAL_SERVER_ERROR;
 203:C:/Users/lenovo/Desktop/liteos/Project2/BearPi_LiteOS/components/connectivity/lwm2m/core\objects.c ****     }
 204:C:/Users/lenovo/Desktop/liteos/Project2/BearPi_LiteOS/components/connectivity/lwm2m/core\objects.c **** 
 205:C:/Users/lenovo/Desktop/liteos/Project2/BearPi_LiteOS/components/connectivity/lwm2m/core\objects.c ****     return COAP_NO_ERROR;
 113              		.loc 1 205 0
 114 0066 0020     		movs	r0, #0
 115              	.LVL11:
 116              	.L2:
 206:C:/Users/lenovo/Desktop/liteos/Project2/BearPi_LiteOS/components/connectivity/lwm2m/core\objects.c **** }
 117              		.loc 1 206 0
 118 0068 03B0     		add	sp, sp, #12
 119              	.LCFI2:
 120              		.cfi_remember_state
 121              		.cfi_def_cfa_offset 28
 122              		@ sp needed
 123 006a BDE8F083 		pop	{r4, r5, r6, r7, r8, r9, pc}
 124              	.LVL12:
 125              	.L10:
 126              	.LCFI3:
 127              		.cfi_restore_state
 201:C:/Users/lenovo/Desktop/liteos/Project2/BearPi_LiteOS/components/connectivity/lwm2m/core\objects.c ****         return COAP_500_INTERNAL_SERVER_ERROR;
 128              		.loc 1 201 0
 129 006e D9F80000 		ldr	r0, [r9]
ARM GAS  c:\Users\lenovo\AppData\Local\Temp\ccdS8TBd.s 			page 7


 130 0072 FFF7FEFF 		bl	lwm2m_free
 131              	.LVL13:
 202:C:/Users/lenovo/Desktop/liteos/Project2/BearPi_LiteOS/components/connectivity/lwm2m/core\objects.c ****     }
 132              		.loc 1 202 0
 133 0076 A020     		movs	r0, #160
 134 0078 F6E7     		b	.L2
 135              	.LVL14:
 136              	.L6:
 185:C:/Users/lenovo/Desktop/liteos/Project2/BearPi_LiteOS/components/connectivity/lwm2m/core\objects.c ****     }
 137              		.loc 1 185 0
 138 007a A020     		movs	r0, #160
 139 007c F4E7     		b	.L2
 140              		.cfi_endproc
 141              	.LFE144:
 143              		.section	.text.prv_getObjectTemplate,"ax",%progbits
 144              		.align	1
 145              		.syntax unified
 146              		.thumb
 147              		.thumb_func
 148              		.fpu fpv4-sp-d16
 150              	prv_getObjectTemplate:
 151              	.LFB153:
 207:C:/Users/lenovo/Desktop/liteos/Project2/BearPi_LiteOS/components/connectivity/lwm2m/core\objects.c **** 
 208:C:/Users/lenovo/Desktop/liteos/Project2/BearPi_LiteOS/components/connectivity/lwm2m/core\objects.c **** uint8_t object_readData(lwm2m_context_t *contextP,
 209:C:/Users/lenovo/Desktop/liteos/Project2/BearPi_LiteOS/components/connectivity/lwm2m/core\objects.c ****                         lwm2m_uri_t *uriP,
 210:C:/Users/lenovo/Desktop/liteos/Project2/BearPi_LiteOS/components/connectivity/lwm2m/core\objects.c ****                         int *sizeP,
 211:C:/Users/lenovo/Desktop/liteos/Project2/BearPi_LiteOS/components/connectivity/lwm2m/core\objects.c ****                         lwm2m_data_t **dataP,
 212:C:/Users/lenovo/Desktop/liteos/Project2/BearPi_LiteOS/components/connectivity/lwm2m/core\objects.c ****                         lwm2m_data_cfg_t *cfg,
 213:C:/Users/lenovo/Desktop/liteos/Project2/BearPi_LiteOS/components/connectivity/lwm2m/core\objects.c ****                         uint16_t serverId)
 214:C:/Users/lenovo/Desktop/liteos/Project2/BearPi_LiteOS/components/connectivity/lwm2m/core\objects.c **** {
 215:C:/Users/lenovo/Desktop/liteos/Project2/BearPi_LiteOS/components/connectivity/lwm2m/core\objects.c ****     uint8_t result;
 216:C:/Users/lenovo/Desktop/liteos/Project2/BearPi_LiteOS/components/connectivity/lwm2m/core\objects.c ****     lwm2m_object_t *targetP;
 217:C:/Users/lenovo/Desktop/liteos/Project2/BearPi_LiteOS/components/connectivity/lwm2m/core\objects.c **** 
 218:C:/Users/lenovo/Desktop/liteos/Project2/BearPi_LiteOS/components/connectivity/lwm2m/core\objects.c ****     LOG_URI(uriP);
 219:C:/Users/lenovo/Desktop/liteos/Project2/BearPi_LiteOS/components/connectivity/lwm2m/core\objects.c ****     targetP = (lwm2m_object_t *)LWM2M_LIST_FIND(contextP->objectList, uriP->objectId);
 220:C:/Users/lenovo/Desktop/liteos/Project2/BearPi_LiteOS/components/connectivity/lwm2m/core\objects.c ****     if (NULL == targetP) return COAP_404_NOT_FOUND;
 221:C:/Users/lenovo/Desktop/liteos/Project2/BearPi_LiteOS/components/connectivity/lwm2m/core\objects.c ****     if (NULL == targetP->readFunc) return COAP_405_METHOD_NOT_ALLOWED;
 222:C:/Users/lenovo/Desktop/liteos/Project2/BearPi_LiteOS/components/connectivity/lwm2m/core\objects.c **** 
 223:C:/Users/lenovo/Desktop/liteos/Project2/BearPi_LiteOS/components/connectivity/lwm2m/core\objects.c ****     if (LWM2M_URI_IS_SET_INSTANCE(uriP))
 224:C:/Users/lenovo/Desktop/liteos/Project2/BearPi_LiteOS/components/connectivity/lwm2m/core\objects.c ****     {
 225:C:/Users/lenovo/Desktop/liteos/Project2/BearPi_LiteOS/components/connectivity/lwm2m/core\objects.c ****         if (NULL == lwm2m_list_find(targetP->instanceList, uriP->instanceId)) return COAP_404_NOT_F
 226:C:/Users/lenovo/Desktop/liteos/Project2/BearPi_LiteOS/components/connectivity/lwm2m/core\objects.c **** 
 227:C:/Users/lenovo/Desktop/liteos/Project2/BearPi_LiteOS/components/connectivity/lwm2m/core\objects.c ****         // single instance read
 228:C:/Users/lenovo/Desktop/liteos/Project2/BearPi_LiteOS/components/connectivity/lwm2m/core\objects.c ****         if (LWM2M_URI_IS_SET_RESOURCE(uriP))
 229:C:/Users/lenovo/Desktop/liteos/Project2/BearPi_LiteOS/components/connectivity/lwm2m/core\objects.c ****         {
 230:C:/Users/lenovo/Desktop/liteos/Project2/BearPi_LiteOS/components/connectivity/lwm2m/core\objects.c ****             *sizeP = 1;
 231:C:/Users/lenovo/Desktop/liteos/Project2/BearPi_LiteOS/components/connectivity/lwm2m/core\objects.c ****             *dataP = lwm2m_data_new(*sizeP);
 232:C:/Users/lenovo/Desktop/liteos/Project2/BearPi_LiteOS/components/connectivity/lwm2m/core\objects.c ****             if (*dataP == NULL) return COAP_500_INTERNAL_SERVER_ERROR;
 233:C:/Users/lenovo/Desktop/liteos/Project2/BearPi_LiteOS/components/connectivity/lwm2m/core\objects.c **** 
 234:C:/Users/lenovo/Desktop/liteos/Project2/BearPi_LiteOS/components/connectivity/lwm2m/core\objects.c ****             (*dataP)->id = uriP->resourceId;
 235:C:/Users/lenovo/Desktop/liteos/Project2/BearPi_LiteOS/components/connectivity/lwm2m/core\objects.c ****         }
 236:C:/Users/lenovo/Desktop/liteos/Project2/BearPi_LiteOS/components/connectivity/lwm2m/core\objects.c **** 
 237:C:/Users/lenovo/Desktop/liteos/Project2/BearPi_LiteOS/components/connectivity/lwm2m/core\objects.c ****         result = targetP->readFunc(uriP->instanceId, sizeP, dataP, cfg, targetP);
 238:C:/Users/lenovo/Desktop/liteos/Project2/BearPi_LiteOS/components/connectivity/lwm2m/core\objects.c ****     }
 239:C:/Users/lenovo/Desktop/liteos/Project2/BearPi_LiteOS/components/connectivity/lwm2m/core\objects.c ****     else
 240:C:/Users/lenovo/Desktop/liteos/Project2/BearPi_LiteOS/components/connectivity/lwm2m/core\objects.c ****     {
 241:C:/Users/lenovo/Desktop/liteos/Project2/BearPi_LiteOS/components/connectivity/lwm2m/core\objects.c ****         // multiple object instances read
ARM GAS  c:\Users\lenovo\AppData\Local\Temp\ccdS8TBd.s 			page 8


 242:C:/Users/lenovo/Desktop/liteos/Project2/BearPi_LiteOS/components/connectivity/lwm2m/core\objects.c ****         lwm2m_list_t *instanceP;
 243:C:/Users/lenovo/Desktop/liteos/Project2/BearPi_LiteOS/components/connectivity/lwm2m/core\objects.c ****         uint8_t *forbidden = NULL;
 244:C:/Users/lenovo/Desktop/liteos/Project2/BearPi_LiteOS/components/connectivity/lwm2m/core\objects.c ****         int i;
 245:C:/Users/lenovo/Desktop/liteos/Project2/BearPi_LiteOS/components/connectivity/lwm2m/core\objects.c ****         int j;
 246:C:/Users/lenovo/Desktop/liteos/Project2/BearPi_LiteOS/components/connectivity/lwm2m/core\objects.c **** 
 247:C:/Users/lenovo/Desktop/liteos/Project2/BearPi_LiteOS/components/connectivity/lwm2m/core\objects.c ****         result = COAP_205_CONTENT;
 248:C:/Users/lenovo/Desktop/liteos/Project2/BearPi_LiteOS/components/connectivity/lwm2m/core\objects.c **** 
 249:C:/Users/lenovo/Desktop/liteos/Project2/BearPi_LiteOS/components/connectivity/lwm2m/core\objects.c ****         *sizeP = 0;
 250:C:/Users/lenovo/Desktop/liteos/Project2/BearPi_LiteOS/components/connectivity/lwm2m/core\objects.c ****         for (instanceP = targetP->instanceList; instanceP != NULL ; instanceP = instanceP->next)
 251:C:/Users/lenovo/Desktop/liteos/Project2/BearPi_LiteOS/components/connectivity/lwm2m/core\objects.c ****         {
 252:C:/Users/lenovo/Desktop/liteos/Project2/BearPi_LiteOS/components/connectivity/lwm2m/core\objects.c ****             (*sizeP)++;
 253:C:/Users/lenovo/Desktop/liteos/Project2/BearPi_LiteOS/components/connectivity/lwm2m/core\objects.c ****         }
 254:C:/Users/lenovo/Desktop/liteos/Project2/BearPi_LiteOS/components/connectivity/lwm2m/core\objects.c **** 
 255:C:/Users/lenovo/Desktop/liteos/Project2/BearPi_LiteOS/components/connectivity/lwm2m/core\objects.c ****         if (*sizeP == 0)
 256:C:/Users/lenovo/Desktop/liteos/Project2/BearPi_LiteOS/components/connectivity/lwm2m/core\objects.c ****         {
 257:C:/Users/lenovo/Desktop/liteos/Project2/BearPi_LiteOS/components/connectivity/lwm2m/core\objects.c ****             *dataP = NULL;
 258:C:/Users/lenovo/Desktop/liteos/Project2/BearPi_LiteOS/components/connectivity/lwm2m/core\objects.c ****         }
 259:C:/Users/lenovo/Desktop/liteos/Project2/BearPi_LiteOS/components/connectivity/lwm2m/core\objects.c ****         else
 260:C:/Users/lenovo/Desktop/liteos/Project2/BearPi_LiteOS/components/connectivity/lwm2m/core\objects.c ****         {
 261:C:/Users/lenovo/Desktop/liteos/Project2/BearPi_LiteOS/components/connectivity/lwm2m/core\objects.c ****             if ((result = prv_init_forbidden(contextP, targetP,
 262:C:/Users/lenovo/Desktop/liteos/Project2/BearPi_LiteOS/components/connectivity/lwm2m/core\objects.c ****                                              uriP->objectId, serverId, sizeP, &forbidden)) != COAP_
 263:C:/Users/lenovo/Desktop/liteos/Project2/BearPi_LiteOS/components/connectivity/lwm2m/core\objects.c ****             {
 264:C:/Users/lenovo/Desktop/liteos/Project2/BearPi_LiteOS/components/connectivity/lwm2m/core\objects.c ****                 *dataP = NULL;
 265:C:/Users/lenovo/Desktop/liteos/Project2/BearPi_LiteOS/components/connectivity/lwm2m/core\objects.c ****                 return result;
 266:C:/Users/lenovo/Desktop/liteos/Project2/BearPi_LiteOS/components/connectivity/lwm2m/core\objects.c ****             }
 267:C:/Users/lenovo/Desktop/liteos/Project2/BearPi_LiteOS/components/connectivity/lwm2m/core\objects.c **** 
 268:C:/Users/lenovo/Desktop/liteos/Project2/BearPi_LiteOS/components/connectivity/lwm2m/core\objects.c ****             *dataP = lwm2m_data_new(*sizeP);
 269:C:/Users/lenovo/Desktop/liteos/Project2/BearPi_LiteOS/components/connectivity/lwm2m/core\objects.c ****             if (*dataP == NULL)
 270:C:/Users/lenovo/Desktop/liteos/Project2/BearPi_LiteOS/components/connectivity/lwm2m/core\objects.c ****             {
 271:C:/Users/lenovo/Desktop/liteos/Project2/BearPi_LiteOS/components/connectivity/lwm2m/core\objects.c ****                 if (forbidden != NULL)
 272:C:/Users/lenovo/Desktop/liteos/Project2/BearPi_LiteOS/components/connectivity/lwm2m/core\objects.c ****                 {
 273:C:/Users/lenovo/Desktop/liteos/Project2/BearPi_LiteOS/components/connectivity/lwm2m/core\objects.c ****                     lwm2m_free(forbidden);
 274:C:/Users/lenovo/Desktop/liteos/Project2/BearPi_LiteOS/components/connectivity/lwm2m/core\objects.c ****                 }
 275:C:/Users/lenovo/Desktop/liteos/Project2/BearPi_LiteOS/components/connectivity/lwm2m/core\objects.c ****                 return COAP_500_INTERNAL_SERVER_ERROR;
 276:C:/Users/lenovo/Desktop/liteos/Project2/BearPi_LiteOS/components/connectivity/lwm2m/core\objects.c ****             }
 277:C:/Users/lenovo/Desktop/liteos/Project2/BearPi_LiteOS/components/connectivity/lwm2m/core\objects.c **** 
 278:C:/Users/lenovo/Desktop/liteos/Project2/BearPi_LiteOS/components/connectivity/lwm2m/core\objects.c ****             instanceP = targetP->instanceList;
 279:C:/Users/lenovo/Desktop/liteos/Project2/BearPi_LiteOS/components/connectivity/lwm2m/core\objects.c ****             i = 0;
 280:C:/Users/lenovo/Desktop/liteos/Project2/BearPi_LiteOS/components/connectivity/lwm2m/core\objects.c ****             j = 0;
 281:C:/Users/lenovo/Desktop/liteos/Project2/BearPi_LiteOS/components/connectivity/lwm2m/core\objects.c ****             while (instanceP != NULL && result == COAP_205_CONTENT)
 282:C:/Users/lenovo/Desktop/liteos/Project2/BearPi_LiteOS/components/connectivity/lwm2m/core\objects.c ****             {
 283:C:/Users/lenovo/Desktop/liteos/Project2/BearPi_LiteOS/components/connectivity/lwm2m/core\objects.c ****                 if (forbidden[i] == 0)
 284:C:/Users/lenovo/Desktop/liteos/Project2/BearPi_LiteOS/components/connectivity/lwm2m/core\objects.c ****                 {
 285:C:/Users/lenovo/Desktop/liteos/Project2/BearPi_LiteOS/components/connectivity/lwm2m/core\objects.c ****                     result = targetP->readFunc(instanceP->id, (int *) & ((*dataP)[j].value.asChildr
 286:C:/Users/lenovo/Desktop/liteos/Project2/BearPi_LiteOS/components/connectivity/lwm2m/core\objects.c ****                     (*dataP)[j].type = LWM2M_TYPE_OBJECT_INSTANCE;
 287:C:/Users/lenovo/Desktop/liteos/Project2/BearPi_LiteOS/components/connectivity/lwm2m/core\objects.c ****                     (*dataP)[j].id = instanceP->id;
 288:C:/Users/lenovo/Desktop/liteos/Project2/BearPi_LiteOS/components/connectivity/lwm2m/core\objects.c ****                     j++;
 289:C:/Users/lenovo/Desktop/liteos/Project2/BearPi_LiteOS/components/connectivity/lwm2m/core\objects.c ****                 }
 290:C:/Users/lenovo/Desktop/liteos/Project2/BearPi_LiteOS/components/connectivity/lwm2m/core\objects.c ****                 instanceP = instanceP->next;
 291:C:/Users/lenovo/Desktop/liteos/Project2/BearPi_LiteOS/components/connectivity/lwm2m/core\objects.c ****                 i++;
 292:C:/Users/lenovo/Desktop/liteos/Project2/BearPi_LiteOS/components/connectivity/lwm2m/core\objects.c ****             }
 293:C:/Users/lenovo/Desktop/liteos/Project2/BearPi_LiteOS/components/connectivity/lwm2m/core\objects.c ****         }
 294:C:/Users/lenovo/Desktop/liteos/Project2/BearPi_LiteOS/components/connectivity/lwm2m/core\objects.c ****         if (forbidden != NULL)
 295:C:/Users/lenovo/Desktop/liteos/Project2/BearPi_LiteOS/components/connectivity/lwm2m/core\objects.c ****         {
 296:C:/Users/lenovo/Desktop/liteos/Project2/BearPi_LiteOS/components/connectivity/lwm2m/core\objects.c ****             lwm2m_free(forbidden);
 297:C:/Users/lenovo/Desktop/liteos/Project2/BearPi_LiteOS/components/connectivity/lwm2m/core\objects.c ****         }
 298:C:/Users/lenovo/Desktop/liteos/Project2/BearPi_LiteOS/components/connectivity/lwm2m/core\objects.c ****     }
ARM GAS  c:\Users\lenovo\AppData\Local\Temp\ccdS8TBd.s 			page 9


 299:C:/Users/lenovo/Desktop/liteos/Project2/BearPi_LiteOS/components/connectivity/lwm2m/core\objects.c **** 
 300:C:/Users/lenovo/Desktop/liteos/Project2/BearPi_LiteOS/components/connectivity/lwm2m/core\objects.c ****     LOG_ARG("result: %u.%2u, size: %d", (result & 0xFF) >> 5, (result & 0x1F), *sizeP);
 301:C:/Users/lenovo/Desktop/liteos/Project2/BearPi_LiteOS/components/connectivity/lwm2m/core\objects.c ****     return result;
 302:C:/Users/lenovo/Desktop/liteos/Project2/BearPi_LiteOS/components/connectivity/lwm2m/core\objects.c **** }
 303:C:/Users/lenovo/Desktop/liteos/Project2/BearPi_LiteOS/components/connectivity/lwm2m/core\objects.c **** 
 304:C:/Users/lenovo/Desktop/liteos/Project2/BearPi_LiteOS/components/connectivity/lwm2m/core\objects.c **** 
 305:C:/Users/lenovo/Desktop/liteos/Project2/BearPi_LiteOS/components/connectivity/lwm2m/core\objects.c **** uint8_t object_read(lwm2m_context_t *contextP,
 306:C:/Users/lenovo/Desktop/liteos/Project2/BearPi_LiteOS/components/connectivity/lwm2m/core\objects.c ****                     lwm2m_uri_t *uriP,
 307:C:/Users/lenovo/Desktop/liteos/Project2/BearPi_LiteOS/components/connectivity/lwm2m/core\objects.c ****                     lwm2m_media_type_t *formatP,
 308:C:/Users/lenovo/Desktop/liteos/Project2/BearPi_LiteOS/components/connectivity/lwm2m/core\objects.c ****                     uint8_t **bufferP,
 309:C:/Users/lenovo/Desktop/liteos/Project2/BearPi_LiteOS/components/connectivity/lwm2m/core\objects.c ****                     size_t *lengthP,
 310:C:/Users/lenovo/Desktop/liteos/Project2/BearPi_LiteOS/components/connectivity/lwm2m/core\objects.c ****                     uint16_t serverId)
 311:C:/Users/lenovo/Desktop/liteos/Project2/BearPi_LiteOS/components/connectivity/lwm2m/core\objects.c **** {
 312:C:/Users/lenovo/Desktop/liteos/Project2/BearPi_LiteOS/components/connectivity/lwm2m/core\objects.c ****     uint8_t result;
 313:C:/Users/lenovo/Desktop/liteos/Project2/BearPi_LiteOS/components/connectivity/lwm2m/core\objects.c ****     lwm2m_data_t *dataP = NULL;
 314:C:/Users/lenovo/Desktop/liteos/Project2/BearPi_LiteOS/components/connectivity/lwm2m/core\objects.c ****     int size = 0;
 315:C:/Users/lenovo/Desktop/liteos/Project2/BearPi_LiteOS/components/connectivity/lwm2m/core\objects.c ****     int res;
 316:C:/Users/lenovo/Desktop/liteos/Project2/BearPi_LiteOS/components/connectivity/lwm2m/core\objects.c **** 
 317:C:/Users/lenovo/Desktop/liteos/Project2/BearPi_LiteOS/components/connectivity/lwm2m/core\objects.c ****     LOG_URI(uriP);
 318:C:/Users/lenovo/Desktop/liteos/Project2/BearPi_LiteOS/components/connectivity/lwm2m/core\objects.c ****     result = object_readData(contextP, uriP, &size, &dataP, NULL, serverId);
 319:C:/Users/lenovo/Desktop/liteos/Project2/BearPi_LiteOS/components/connectivity/lwm2m/core\objects.c **** 
 320:C:/Users/lenovo/Desktop/liteos/Project2/BearPi_LiteOS/components/connectivity/lwm2m/core\objects.c ****     if (result == COAP_205_CONTENT)
 321:C:/Users/lenovo/Desktop/liteos/Project2/BearPi_LiteOS/components/connectivity/lwm2m/core\objects.c ****     {
 322:C:/Users/lenovo/Desktop/liteos/Project2/BearPi_LiteOS/components/connectivity/lwm2m/core\objects.c ****         res = lwm2m_data_serialize(uriP, size, dataP, formatP, bufferP);
 323:C:/Users/lenovo/Desktop/liteos/Project2/BearPi_LiteOS/components/connectivity/lwm2m/core\objects.c ****         if (res < 0)
 324:C:/Users/lenovo/Desktop/liteos/Project2/BearPi_LiteOS/components/connectivity/lwm2m/core\objects.c ****         {
 325:C:/Users/lenovo/Desktop/liteos/Project2/BearPi_LiteOS/components/connectivity/lwm2m/core\objects.c ****             result = COAP_500_INTERNAL_SERVER_ERROR;
 326:C:/Users/lenovo/Desktop/liteos/Project2/BearPi_LiteOS/components/connectivity/lwm2m/core\objects.c ****         }
 327:C:/Users/lenovo/Desktop/liteos/Project2/BearPi_LiteOS/components/connectivity/lwm2m/core\objects.c ****         else
 328:C:/Users/lenovo/Desktop/liteos/Project2/BearPi_LiteOS/components/connectivity/lwm2m/core\objects.c ****         {
 329:C:/Users/lenovo/Desktop/liteos/Project2/BearPi_LiteOS/components/connectivity/lwm2m/core\objects.c ****             *lengthP = (size_t)res;
 330:C:/Users/lenovo/Desktop/liteos/Project2/BearPi_LiteOS/components/connectivity/lwm2m/core\objects.c ****         }
 331:C:/Users/lenovo/Desktop/liteos/Project2/BearPi_LiteOS/components/connectivity/lwm2m/core\objects.c ****     }
 332:C:/Users/lenovo/Desktop/liteos/Project2/BearPi_LiteOS/components/connectivity/lwm2m/core\objects.c ****     lwm2m_data_free(size, dataP);
 333:C:/Users/lenovo/Desktop/liteos/Project2/BearPi_LiteOS/components/connectivity/lwm2m/core\objects.c **** 
 334:C:/Users/lenovo/Desktop/liteos/Project2/BearPi_LiteOS/components/connectivity/lwm2m/core\objects.c ****     LOG_ARG("result: %u.%2u, length: %d", (result & 0xFF) >> 5, (result & 0x1F), *lengthP);
 335:C:/Users/lenovo/Desktop/liteos/Project2/BearPi_LiteOS/components/connectivity/lwm2m/core\objects.c **** 
 336:C:/Users/lenovo/Desktop/liteos/Project2/BearPi_LiteOS/components/connectivity/lwm2m/core\objects.c ****     return result;
 337:C:/Users/lenovo/Desktop/liteos/Project2/BearPi_LiteOS/components/connectivity/lwm2m/core\objects.c **** }
 338:C:/Users/lenovo/Desktop/liteos/Project2/BearPi_LiteOS/components/connectivity/lwm2m/core\objects.c **** 
 339:C:/Users/lenovo/Desktop/liteos/Project2/BearPi_LiteOS/components/connectivity/lwm2m/core\objects.c **** uint8_t object_write(lwm2m_context_t *contextP,
 340:C:/Users/lenovo/Desktop/liteos/Project2/BearPi_LiteOS/components/connectivity/lwm2m/core\objects.c ****                      lwm2m_uri_t *uriP,
 341:C:/Users/lenovo/Desktop/liteos/Project2/BearPi_LiteOS/components/connectivity/lwm2m/core\objects.c ****                      lwm2m_media_type_t format,
 342:C:/Users/lenovo/Desktop/liteos/Project2/BearPi_LiteOS/components/connectivity/lwm2m/core\objects.c ****                      uint8_t *buffer,
 343:C:/Users/lenovo/Desktop/liteos/Project2/BearPi_LiteOS/components/connectivity/lwm2m/core\objects.c ****                      size_t length)
 344:C:/Users/lenovo/Desktop/liteos/Project2/BearPi_LiteOS/components/connectivity/lwm2m/core\objects.c **** {
 345:C:/Users/lenovo/Desktop/liteos/Project2/BearPi_LiteOS/components/connectivity/lwm2m/core\objects.c ****     uint8_t result = NO_ERROR;
 346:C:/Users/lenovo/Desktop/liteos/Project2/BearPi_LiteOS/components/connectivity/lwm2m/core\objects.c ****     lwm2m_object_t *targetP;
 347:C:/Users/lenovo/Desktop/liteos/Project2/BearPi_LiteOS/components/connectivity/lwm2m/core\objects.c ****     lwm2m_data_t *dataP = NULL;
 348:C:/Users/lenovo/Desktop/liteos/Project2/BearPi_LiteOS/components/connectivity/lwm2m/core\objects.c ****     int size = 0;
 349:C:/Users/lenovo/Desktop/liteos/Project2/BearPi_LiteOS/components/connectivity/lwm2m/core\objects.c **** 
 350:C:/Users/lenovo/Desktop/liteos/Project2/BearPi_LiteOS/components/connectivity/lwm2m/core\objects.c ****     LOG_URI(uriP);
 351:C:/Users/lenovo/Desktop/liteos/Project2/BearPi_LiteOS/components/connectivity/lwm2m/core\objects.c ****     targetP = (lwm2m_object_t *)LWM2M_LIST_FIND(contextP->objectList, uriP->objectId);
 352:C:/Users/lenovo/Desktop/liteos/Project2/BearPi_LiteOS/components/connectivity/lwm2m/core\objects.c ****     if (NULL == targetP)
 353:C:/Users/lenovo/Desktop/liteos/Project2/BearPi_LiteOS/components/connectivity/lwm2m/core\objects.c ****     {
 354:C:/Users/lenovo/Desktop/liteos/Project2/BearPi_LiteOS/components/connectivity/lwm2m/core\objects.c ****         result = COAP_404_NOT_FOUND;
 355:C:/Users/lenovo/Desktop/liteos/Project2/BearPi_LiteOS/components/connectivity/lwm2m/core\objects.c ****     }
ARM GAS  c:\Users\lenovo\AppData\Local\Temp\ccdS8TBd.s 			page 10


 356:C:/Users/lenovo/Desktop/liteos/Project2/BearPi_LiteOS/components/connectivity/lwm2m/core\objects.c ****     else if (NULL == targetP->writeFunc)
 357:C:/Users/lenovo/Desktop/liteos/Project2/BearPi_LiteOS/components/connectivity/lwm2m/core\objects.c ****     {
 358:C:/Users/lenovo/Desktop/liteos/Project2/BearPi_LiteOS/components/connectivity/lwm2m/core\objects.c ****         result = COAP_405_METHOD_NOT_ALLOWED;
 359:C:/Users/lenovo/Desktop/liteos/Project2/BearPi_LiteOS/components/connectivity/lwm2m/core\objects.c ****     }
 360:C:/Users/lenovo/Desktop/liteos/Project2/BearPi_LiteOS/components/connectivity/lwm2m/core\objects.c ****     else
 361:C:/Users/lenovo/Desktop/liteos/Project2/BearPi_LiteOS/components/connectivity/lwm2m/core\objects.c ****     {
 362:C:/Users/lenovo/Desktop/liteos/Project2/BearPi_LiteOS/components/connectivity/lwm2m/core\objects.c ****         size = lwm2m_data_parse(uriP, buffer, length, format, &dataP);
 363:C:/Users/lenovo/Desktop/liteos/Project2/BearPi_LiteOS/components/connectivity/lwm2m/core\objects.c ****         if (size == 0)
 364:C:/Users/lenovo/Desktop/liteos/Project2/BearPi_LiteOS/components/connectivity/lwm2m/core\objects.c ****         {
 365:C:/Users/lenovo/Desktop/liteos/Project2/BearPi_LiteOS/components/connectivity/lwm2m/core\objects.c ****             result = COAP_406_NOT_ACCEPTABLE;
 366:C:/Users/lenovo/Desktop/liteos/Project2/BearPi_LiteOS/components/connectivity/lwm2m/core\objects.c ****         }
 367:C:/Users/lenovo/Desktop/liteos/Project2/BearPi_LiteOS/components/connectivity/lwm2m/core\objects.c ****     }
 368:C:/Users/lenovo/Desktop/liteos/Project2/BearPi_LiteOS/components/connectivity/lwm2m/core\objects.c ****     if (result == NO_ERROR)
 369:C:/Users/lenovo/Desktop/liteos/Project2/BearPi_LiteOS/components/connectivity/lwm2m/core\objects.c ****     {
 370:C:/Users/lenovo/Desktop/liteos/Project2/BearPi_LiteOS/components/connectivity/lwm2m/core\objects.c ****         result = targetP->writeFunc(uriP->instanceId, size, dataP, targetP);
 371:C:/Users/lenovo/Desktop/liteos/Project2/BearPi_LiteOS/components/connectivity/lwm2m/core\objects.c ****         lwm2m_data_free(size, dataP);
 372:C:/Users/lenovo/Desktop/liteos/Project2/BearPi_LiteOS/components/connectivity/lwm2m/core\objects.c ****     }
 373:C:/Users/lenovo/Desktop/liteos/Project2/BearPi_LiteOS/components/connectivity/lwm2m/core\objects.c **** 
 374:C:/Users/lenovo/Desktop/liteos/Project2/BearPi_LiteOS/components/connectivity/lwm2m/core\objects.c ****     LOG_ARG("result: %u.%2u", (result & 0xFF) >> 5, (result & 0x1F));
 375:C:/Users/lenovo/Desktop/liteos/Project2/BearPi_LiteOS/components/connectivity/lwm2m/core\objects.c **** 
 376:C:/Users/lenovo/Desktop/liteos/Project2/BearPi_LiteOS/components/connectivity/lwm2m/core\objects.c ****     return result;
 377:C:/Users/lenovo/Desktop/liteos/Project2/BearPi_LiteOS/components/connectivity/lwm2m/core\objects.c **** }
 378:C:/Users/lenovo/Desktop/liteos/Project2/BearPi_LiteOS/components/connectivity/lwm2m/core\objects.c **** 
 379:C:/Users/lenovo/Desktop/liteos/Project2/BearPi_LiteOS/components/connectivity/lwm2m/core\objects.c **** uint8_t object_execute(lwm2m_context_t *contextP,
 380:C:/Users/lenovo/Desktop/liteos/Project2/BearPi_LiteOS/components/connectivity/lwm2m/core\objects.c ****                        lwm2m_uri_t *uriP,
 381:C:/Users/lenovo/Desktop/liteos/Project2/BearPi_LiteOS/components/connectivity/lwm2m/core\objects.c ****                        uint8_t *buffer,
 382:C:/Users/lenovo/Desktop/liteos/Project2/BearPi_LiteOS/components/connectivity/lwm2m/core\objects.c ****                        size_t length)
 383:C:/Users/lenovo/Desktop/liteos/Project2/BearPi_LiteOS/components/connectivity/lwm2m/core\objects.c **** {
 384:C:/Users/lenovo/Desktop/liteos/Project2/BearPi_LiteOS/components/connectivity/lwm2m/core\objects.c ****     lwm2m_object_t *targetP;
 385:C:/Users/lenovo/Desktop/liteos/Project2/BearPi_LiteOS/components/connectivity/lwm2m/core\objects.c **** 
 386:C:/Users/lenovo/Desktop/liteos/Project2/BearPi_LiteOS/components/connectivity/lwm2m/core\objects.c ****     LOG_URI(uriP);
 387:C:/Users/lenovo/Desktop/liteos/Project2/BearPi_LiteOS/components/connectivity/lwm2m/core\objects.c ****     targetP = (lwm2m_object_t *)LWM2M_LIST_FIND(contextP->objectList, uriP->objectId);
 388:C:/Users/lenovo/Desktop/liteos/Project2/BearPi_LiteOS/components/connectivity/lwm2m/core\objects.c ****     if (NULL == targetP) return COAP_404_NOT_FOUND;
 389:C:/Users/lenovo/Desktop/liteos/Project2/BearPi_LiteOS/components/connectivity/lwm2m/core\objects.c ****     if (NULL == targetP->executeFunc) return COAP_405_METHOD_NOT_ALLOWED;
 390:C:/Users/lenovo/Desktop/liteos/Project2/BearPi_LiteOS/components/connectivity/lwm2m/core\objects.c ****     if (NULL == lwm2m_list_find(targetP->instanceList, uriP->instanceId)) return COAP_404_NOT_FOUND
 391:C:/Users/lenovo/Desktop/liteos/Project2/BearPi_LiteOS/components/connectivity/lwm2m/core\objects.c **** 
 392:C:/Users/lenovo/Desktop/liteos/Project2/BearPi_LiteOS/components/connectivity/lwm2m/core\objects.c ****     return targetP->executeFunc(uriP->instanceId, uriP->resourceId, buffer, length, targetP);
 393:C:/Users/lenovo/Desktop/liteos/Project2/BearPi_LiteOS/components/connectivity/lwm2m/core\objects.c **** }
 394:C:/Users/lenovo/Desktop/liteos/Project2/BearPi_LiteOS/components/connectivity/lwm2m/core\objects.c **** 
 395:C:/Users/lenovo/Desktop/liteos/Project2/BearPi_LiteOS/components/connectivity/lwm2m/core\objects.c **** uint8_t object_create(lwm2m_context_t *contextP,
 396:C:/Users/lenovo/Desktop/liteos/Project2/BearPi_LiteOS/components/connectivity/lwm2m/core\objects.c ****                       lwm2m_uri_t *uriP,
 397:C:/Users/lenovo/Desktop/liteos/Project2/BearPi_LiteOS/components/connectivity/lwm2m/core\objects.c ****                       lwm2m_media_type_t format,
 398:C:/Users/lenovo/Desktop/liteos/Project2/BearPi_LiteOS/components/connectivity/lwm2m/core\objects.c ****                       uint8_t *buffer,
 399:C:/Users/lenovo/Desktop/liteos/Project2/BearPi_LiteOS/components/connectivity/lwm2m/core\objects.c ****                       size_t length)
 400:C:/Users/lenovo/Desktop/liteos/Project2/BearPi_LiteOS/components/connectivity/lwm2m/core\objects.c **** {
 401:C:/Users/lenovo/Desktop/liteos/Project2/BearPi_LiteOS/components/connectivity/lwm2m/core\objects.c ****     lwm2m_object_t *targetP;
 402:C:/Users/lenovo/Desktop/liteos/Project2/BearPi_LiteOS/components/connectivity/lwm2m/core\objects.c ****     lwm2m_data_t *dataP = NULL;
 403:C:/Users/lenovo/Desktop/liteos/Project2/BearPi_LiteOS/components/connectivity/lwm2m/core\objects.c ****     int size = 0;
 404:C:/Users/lenovo/Desktop/liteos/Project2/BearPi_LiteOS/components/connectivity/lwm2m/core\objects.c ****     uint8_t result;
 405:C:/Users/lenovo/Desktop/liteos/Project2/BearPi_LiteOS/components/connectivity/lwm2m/core\objects.c **** 
 406:C:/Users/lenovo/Desktop/liteos/Project2/BearPi_LiteOS/components/connectivity/lwm2m/core\objects.c ****     LOG_URI(uriP);
 407:C:/Users/lenovo/Desktop/liteos/Project2/BearPi_LiteOS/components/connectivity/lwm2m/core\objects.c **** 
 408:C:/Users/lenovo/Desktop/liteos/Project2/BearPi_LiteOS/components/connectivity/lwm2m/core\objects.c ****     if (length == 0 || buffer == 0)
 409:C:/Users/lenovo/Desktop/liteos/Project2/BearPi_LiteOS/components/connectivity/lwm2m/core\objects.c ****     {
 410:C:/Users/lenovo/Desktop/liteos/Project2/BearPi_LiteOS/components/connectivity/lwm2m/core\objects.c ****         return COAP_400_BAD_REQUEST;
 411:C:/Users/lenovo/Desktop/liteos/Project2/BearPi_LiteOS/components/connectivity/lwm2m/core\objects.c ****     }
 412:C:/Users/lenovo/Desktop/liteos/Project2/BearPi_LiteOS/components/connectivity/lwm2m/core\objects.c **** 
ARM GAS  c:\Users\lenovo\AppData\Local\Temp\ccdS8TBd.s 			page 11


 413:C:/Users/lenovo/Desktop/liteos/Project2/BearPi_LiteOS/components/connectivity/lwm2m/core\objects.c ****     targetP = (lwm2m_object_t *)LWM2M_LIST_FIND(contextP->objectList, uriP->objectId);
 414:C:/Users/lenovo/Desktop/liteos/Project2/BearPi_LiteOS/components/connectivity/lwm2m/core\objects.c ****     if (NULL == targetP) return COAP_404_NOT_FOUND;
 415:C:/Users/lenovo/Desktop/liteos/Project2/BearPi_LiteOS/components/connectivity/lwm2m/core\objects.c ****     if (NULL == targetP->createFunc) return COAP_405_METHOD_NOT_ALLOWED;
 416:C:/Users/lenovo/Desktop/liteos/Project2/BearPi_LiteOS/components/connectivity/lwm2m/core\objects.c **** 
 417:C:/Users/lenovo/Desktop/liteos/Project2/BearPi_LiteOS/components/connectivity/lwm2m/core\objects.c ****     size = lwm2m_data_parse(uriP, buffer, length, format, &dataP);
 418:C:/Users/lenovo/Desktop/liteos/Project2/BearPi_LiteOS/components/connectivity/lwm2m/core\objects.c ****     if (size <= 0) return COAP_400_BAD_REQUEST;
 419:C:/Users/lenovo/Desktop/liteos/Project2/BearPi_LiteOS/components/connectivity/lwm2m/core\objects.c **** 
 420:C:/Users/lenovo/Desktop/liteos/Project2/BearPi_LiteOS/components/connectivity/lwm2m/core\objects.c ****     switch (dataP[0].type)
 421:C:/Users/lenovo/Desktop/liteos/Project2/BearPi_LiteOS/components/connectivity/lwm2m/core\objects.c ****     {
 422:C:/Users/lenovo/Desktop/liteos/Project2/BearPi_LiteOS/components/connectivity/lwm2m/core\objects.c ****     case LWM2M_TYPE_OBJECT:
 423:C:/Users/lenovo/Desktop/liteos/Project2/BearPi_LiteOS/components/connectivity/lwm2m/core\objects.c ****         result = COAP_400_BAD_REQUEST;
 424:C:/Users/lenovo/Desktop/liteos/Project2/BearPi_LiteOS/components/connectivity/lwm2m/core\objects.c ****         goto exit;
 425:C:/Users/lenovo/Desktop/liteos/Project2/BearPi_LiteOS/components/connectivity/lwm2m/core\objects.c **** 
 426:C:/Users/lenovo/Desktop/liteos/Project2/BearPi_LiteOS/components/connectivity/lwm2m/core\objects.c ****     case LWM2M_TYPE_OBJECT_INSTANCE:
 427:C:/Users/lenovo/Desktop/liteos/Project2/BearPi_LiteOS/components/connectivity/lwm2m/core\objects.c ****         if (size != 1)
 428:C:/Users/lenovo/Desktop/liteos/Project2/BearPi_LiteOS/components/connectivity/lwm2m/core\objects.c ****         {
 429:C:/Users/lenovo/Desktop/liteos/Project2/BearPi_LiteOS/components/connectivity/lwm2m/core\objects.c ****             result = COAP_400_BAD_REQUEST;
 430:C:/Users/lenovo/Desktop/liteos/Project2/BearPi_LiteOS/components/connectivity/lwm2m/core\objects.c ****             goto exit;
 431:C:/Users/lenovo/Desktop/liteos/Project2/BearPi_LiteOS/components/connectivity/lwm2m/core\objects.c ****         }
 432:C:/Users/lenovo/Desktop/liteos/Project2/BearPi_LiteOS/components/connectivity/lwm2m/core\objects.c ****         if (NULL != lwm2m_list_find(targetP->instanceList, dataP[0].id))
 433:C:/Users/lenovo/Desktop/liteos/Project2/BearPi_LiteOS/components/connectivity/lwm2m/core\objects.c ****         {
 434:C:/Users/lenovo/Desktop/liteos/Project2/BearPi_LiteOS/components/connectivity/lwm2m/core\objects.c ****             // Instance already exists
 435:C:/Users/lenovo/Desktop/liteos/Project2/BearPi_LiteOS/components/connectivity/lwm2m/core\objects.c ****             result = COAP_406_NOT_ACCEPTABLE;
 436:C:/Users/lenovo/Desktop/liteos/Project2/BearPi_LiteOS/components/connectivity/lwm2m/core\objects.c ****             goto exit;
 437:C:/Users/lenovo/Desktop/liteos/Project2/BearPi_LiteOS/components/connectivity/lwm2m/core\objects.c ****         }
 438:C:/Users/lenovo/Desktop/liteos/Project2/BearPi_LiteOS/components/connectivity/lwm2m/core\objects.c ****         result = targetP->createFunc(dataP[0].id, dataP[0].value.asChildren.count, dataP[0].value.a
 439:C:/Users/lenovo/Desktop/liteos/Project2/BearPi_LiteOS/components/connectivity/lwm2m/core\objects.c ****         uriP->instanceId = dataP[0].id;
 440:C:/Users/lenovo/Desktop/liteos/Project2/BearPi_LiteOS/components/connectivity/lwm2m/core\objects.c ****         uriP->flag |= LWM2M_URI_FLAG_INSTANCE_ID;
 441:C:/Users/lenovo/Desktop/liteos/Project2/BearPi_LiteOS/components/connectivity/lwm2m/core\objects.c ****         break;
 442:C:/Users/lenovo/Desktop/liteos/Project2/BearPi_LiteOS/components/connectivity/lwm2m/core\objects.c **** 
 443:C:/Users/lenovo/Desktop/liteos/Project2/BearPi_LiteOS/components/connectivity/lwm2m/core\objects.c ****     default:
 444:C:/Users/lenovo/Desktop/liteos/Project2/BearPi_LiteOS/components/connectivity/lwm2m/core\objects.c ****         if (!LWM2M_URI_IS_SET_INSTANCE(uriP))
 445:C:/Users/lenovo/Desktop/liteos/Project2/BearPi_LiteOS/components/connectivity/lwm2m/core\objects.c ****         {
 446:C:/Users/lenovo/Desktop/liteos/Project2/BearPi_LiteOS/components/connectivity/lwm2m/core\objects.c ****             uriP->instanceId = lwm2m_list_newId(targetP->instanceList);
 447:C:/Users/lenovo/Desktop/liteos/Project2/BearPi_LiteOS/components/connectivity/lwm2m/core\objects.c ****             uriP->flag |= LWM2M_URI_FLAG_INSTANCE_ID;
 448:C:/Users/lenovo/Desktop/liteos/Project2/BearPi_LiteOS/components/connectivity/lwm2m/core\objects.c ****         }
 449:C:/Users/lenovo/Desktop/liteos/Project2/BearPi_LiteOS/components/connectivity/lwm2m/core\objects.c ****         result = targetP->createFunc(uriP->instanceId, size, dataP, targetP);
 450:C:/Users/lenovo/Desktop/liteos/Project2/BearPi_LiteOS/components/connectivity/lwm2m/core\objects.c ****         break;
 451:C:/Users/lenovo/Desktop/liteos/Project2/BearPi_LiteOS/components/connectivity/lwm2m/core\objects.c ****     }
 452:C:/Users/lenovo/Desktop/liteos/Project2/BearPi_LiteOS/components/connectivity/lwm2m/core\objects.c **** 
 453:C:/Users/lenovo/Desktop/liteos/Project2/BearPi_LiteOS/components/connectivity/lwm2m/core\objects.c **** exit:
 454:C:/Users/lenovo/Desktop/liteos/Project2/BearPi_LiteOS/components/connectivity/lwm2m/core\objects.c ****     lwm2m_data_free(size, dataP);
 455:C:/Users/lenovo/Desktop/liteos/Project2/BearPi_LiteOS/components/connectivity/lwm2m/core\objects.c **** 
 456:C:/Users/lenovo/Desktop/liteos/Project2/BearPi_LiteOS/components/connectivity/lwm2m/core\objects.c ****     LOG_ARG("result: %u.%2u", (result & 0xFF) >> 5, (result & 0x1F));
 457:C:/Users/lenovo/Desktop/liteos/Project2/BearPi_LiteOS/components/connectivity/lwm2m/core\objects.c **** 
 458:C:/Users/lenovo/Desktop/liteos/Project2/BearPi_LiteOS/components/connectivity/lwm2m/core\objects.c ****     return result;
 459:C:/Users/lenovo/Desktop/liteos/Project2/BearPi_LiteOS/components/connectivity/lwm2m/core\objects.c **** }
 460:C:/Users/lenovo/Desktop/liteos/Project2/BearPi_LiteOS/components/connectivity/lwm2m/core\objects.c **** 
 461:C:/Users/lenovo/Desktop/liteos/Project2/BearPi_LiteOS/components/connectivity/lwm2m/core\objects.c **** uint8_t object_delete(lwm2m_context_t *contextP,
 462:C:/Users/lenovo/Desktop/liteos/Project2/BearPi_LiteOS/components/connectivity/lwm2m/core\objects.c ****                       lwm2m_uri_t *uriP)
 463:C:/Users/lenovo/Desktop/liteos/Project2/BearPi_LiteOS/components/connectivity/lwm2m/core\objects.c **** {
 464:C:/Users/lenovo/Desktop/liteos/Project2/BearPi_LiteOS/components/connectivity/lwm2m/core\objects.c ****     lwm2m_object_t *objectP;
 465:C:/Users/lenovo/Desktop/liteos/Project2/BearPi_LiteOS/components/connectivity/lwm2m/core\objects.c ****     uint8_t result;
 466:C:/Users/lenovo/Desktop/liteos/Project2/BearPi_LiteOS/components/connectivity/lwm2m/core\objects.c **** 
 467:C:/Users/lenovo/Desktop/liteos/Project2/BearPi_LiteOS/components/connectivity/lwm2m/core\objects.c ****     LOG_URI(uriP);
 468:C:/Users/lenovo/Desktop/liteos/Project2/BearPi_LiteOS/components/connectivity/lwm2m/core\objects.c ****     objectP = (lwm2m_object_t *)LWM2M_LIST_FIND(contextP->objectList, uriP->objectId);
 469:C:/Users/lenovo/Desktop/liteos/Project2/BearPi_LiteOS/components/connectivity/lwm2m/core\objects.c ****     if (NULL == objectP) return COAP_404_NOT_FOUND;
ARM GAS  c:\Users\lenovo\AppData\Local\Temp\ccdS8TBd.s 			page 12


 470:C:/Users/lenovo/Desktop/liteos/Project2/BearPi_LiteOS/components/connectivity/lwm2m/core\objects.c ****     if (NULL == objectP->deleteFunc) return COAP_405_METHOD_NOT_ALLOWED;
 471:C:/Users/lenovo/Desktop/liteos/Project2/BearPi_LiteOS/components/connectivity/lwm2m/core\objects.c **** 
 472:C:/Users/lenovo/Desktop/liteos/Project2/BearPi_LiteOS/components/connectivity/lwm2m/core\objects.c ****     LOG("Entering");
 473:C:/Users/lenovo/Desktop/liteos/Project2/BearPi_LiteOS/components/connectivity/lwm2m/core\objects.c **** 
 474:C:/Users/lenovo/Desktop/liteos/Project2/BearPi_LiteOS/components/connectivity/lwm2m/core\objects.c ****     if (LWM2M_URI_IS_SET_INSTANCE(uriP))
 475:C:/Users/lenovo/Desktop/liteos/Project2/BearPi_LiteOS/components/connectivity/lwm2m/core\objects.c ****     {
 476:C:/Users/lenovo/Desktop/liteos/Project2/BearPi_LiteOS/components/connectivity/lwm2m/core\objects.c ****         result = objectP->deleteFunc(uriP->instanceId, objectP);
 477:C:/Users/lenovo/Desktop/liteos/Project2/BearPi_LiteOS/components/connectivity/lwm2m/core\objects.c ****         if (result == COAP_202_DELETED)
 478:C:/Users/lenovo/Desktop/liteos/Project2/BearPi_LiteOS/components/connectivity/lwm2m/core\objects.c ****         {
 479:C:/Users/lenovo/Desktop/liteos/Project2/BearPi_LiteOS/components/connectivity/lwm2m/core\objects.c ****             observe_clear(contextP, uriP);
 480:C:/Users/lenovo/Desktop/liteos/Project2/BearPi_LiteOS/components/connectivity/lwm2m/core\objects.c ****         }
 481:C:/Users/lenovo/Desktop/liteos/Project2/BearPi_LiteOS/components/connectivity/lwm2m/core\objects.c ****     }
 482:C:/Users/lenovo/Desktop/liteos/Project2/BearPi_LiteOS/components/connectivity/lwm2m/core\objects.c ****     else
 483:C:/Users/lenovo/Desktop/liteos/Project2/BearPi_LiteOS/components/connectivity/lwm2m/core\objects.c ****     {
 484:C:/Users/lenovo/Desktop/liteos/Project2/BearPi_LiteOS/components/connectivity/lwm2m/core\objects.c ****         lwm2m_list_t *instanceP;
 485:C:/Users/lenovo/Desktop/liteos/Project2/BearPi_LiteOS/components/connectivity/lwm2m/core\objects.c **** 
 486:C:/Users/lenovo/Desktop/liteos/Project2/BearPi_LiteOS/components/connectivity/lwm2m/core\objects.c ****         result = COAP_202_DELETED;
 487:C:/Users/lenovo/Desktop/liteos/Project2/BearPi_LiteOS/components/connectivity/lwm2m/core\objects.c ****         instanceP = objectP->instanceList;
 488:C:/Users/lenovo/Desktop/liteos/Project2/BearPi_LiteOS/components/connectivity/lwm2m/core\objects.c ****         while (NULL != instanceP
 489:C:/Users/lenovo/Desktop/liteos/Project2/BearPi_LiteOS/components/connectivity/lwm2m/core\objects.c ****                 && result == COAP_202_DELETED)
 490:C:/Users/lenovo/Desktop/liteos/Project2/BearPi_LiteOS/components/connectivity/lwm2m/core\objects.c ****         {
 491:C:/Users/lenovo/Desktop/liteos/Project2/BearPi_LiteOS/components/connectivity/lwm2m/core\objects.c ****             uriP->instanceId = instanceP->id;
 492:C:/Users/lenovo/Desktop/liteos/Project2/BearPi_LiteOS/components/connectivity/lwm2m/core\objects.c ****             result = objectP->deleteFunc(instanceP->id, objectP);
 493:C:/Users/lenovo/Desktop/liteos/Project2/BearPi_LiteOS/components/connectivity/lwm2m/core\objects.c ****             if (result == COAP_202_DELETED)
 494:C:/Users/lenovo/Desktop/liteos/Project2/BearPi_LiteOS/components/connectivity/lwm2m/core\objects.c ****             {
 495:C:/Users/lenovo/Desktop/liteos/Project2/BearPi_LiteOS/components/connectivity/lwm2m/core\objects.c ****                 uriP->flag |= LWM2M_URI_FLAG_INSTANCE_ID;
 496:C:/Users/lenovo/Desktop/liteos/Project2/BearPi_LiteOS/components/connectivity/lwm2m/core\objects.c ****                 observe_clear(contextP, uriP);
 497:C:/Users/lenovo/Desktop/liteos/Project2/BearPi_LiteOS/components/connectivity/lwm2m/core\objects.c ****                 uriP->flag &= ~LWM2M_URI_FLAG_INSTANCE_ID;
 498:C:/Users/lenovo/Desktop/liteos/Project2/BearPi_LiteOS/components/connectivity/lwm2m/core\objects.c ****             }
 499:C:/Users/lenovo/Desktop/liteos/Project2/BearPi_LiteOS/components/connectivity/lwm2m/core\objects.c ****             instanceP = objectP->instanceList;
 500:C:/Users/lenovo/Desktop/liteos/Project2/BearPi_LiteOS/components/connectivity/lwm2m/core\objects.c ****         }
 501:C:/Users/lenovo/Desktop/liteos/Project2/BearPi_LiteOS/components/connectivity/lwm2m/core\objects.c ****     }
 502:C:/Users/lenovo/Desktop/liteos/Project2/BearPi_LiteOS/components/connectivity/lwm2m/core\objects.c **** 
 503:C:/Users/lenovo/Desktop/liteos/Project2/BearPi_LiteOS/components/connectivity/lwm2m/core\objects.c ****     LOG_ARG("result: %u.%2u", (result & 0xFF) >> 5, (result & 0x1F));
 504:C:/Users/lenovo/Desktop/liteos/Project2/BearPi_LiteOS/components/connectivity/lwm2m/core\objects.c **** 
 505:C:/Users/lenovo/Desktop/liteos/Project2/BearPi_LiteOS/components/connectivity/lwm2m/core\objects.c ****     return result;
 506:C:/Users/lenovo/Desktop/liteos/Project2/BearPi_LiteOS/components/connectivity/lwm2m/core\objects.c **** }
 507:C:/Users/lenovo/Desktop/liteos/Project2/BearPi_LiteOS/components/connectivity/lwm2m/core\objects.c **** 
 508:C:/Users/lenovo/Desktop/liteos/Project2/BearPi_LiteOS/components/connectivity/lwm2m/core\objects.c **** uint8_t object_discover(lwm2m_context_t *contextP,
 509:C:/Users/lenovo/Desktop/liteos/Project2/BearPi_LiteOS/components/connectivity/lwm2m/core\objects.c ****                         lwm2m_uri_t *uriP,
 510:C:/Users/lenovo/Desktop/liteos/Project2/BearPi_LiteOS/components/connectivity/lwm2m/core\objects.c ****                         lwm2m_server_t *serverP,
 511:C:/Users/lenovo/Desktop/liteos/Project2/BearPi_LiteOS/components/connectivity/lwm2m/core\objects.c ****                         uint8_t **bufferP,
 512:C:/Users/lenovo/Desktop/liteos/Project2/BearPi_LiteOS/components/connectivity/lwm2m/core\objects.c ****                         size_t *lengthP)
 513:C:/Users/lenovo/Desktop/liteos/Project2/BearPi_LiteOS/components/connectivity/lwm2m/core\objects.c **** {
 514:C:/Users/lenovo/Desktop/liteos/Project2/BearPi_LiteOS/components/connectivity/lwm2m/core\objects.c ****     uint8_t result;
 515:C:/Users/lenovo/Desktop/liteos/Project2/BearPi_LiteOS/components/connectivity/lwm2m/core\objects.c ****     lwm2m_object_t *targetP;
 516:C:/Users/lenovo/Desktop/liteos/Project2/BearPi_LiteOS/components/connectivity/lwm2m/core\objects.c ****     lwm2m_data_t *dataP = NULL;
 517:C:/Users/lenovo/Desktop/liteos/Project2/BearPi_LiteOS/components/connectivity/lwm2m/core\objects.c ****     int size = 0;
 518:C:/Users/lenovo/Desktop/liteos/Project2/BearPi_LiteOS/components/connectivity/lwm2m/core\objects.c **** 
 519:C:/Users/lenovo/Desktop/liteos/Project2/BearPi_LiteOS/components/connectivity/lwm2m/core\objects.c ****     LOG_URI(uriP);
 520:C:/Users/lenovo/Desktop/liteos/Project2/BearPi_LiteOS/components/connectivity/lwm2m/core\objects.c ****     targetP = (lwm2m_object_t *)LWM2M_LIST_FIND(contextP->objectList, uriP->objectId);
 521:C:/Users/lenovo/Desktop/liteos/Project2/BearPi_LiteOS/components/connectivity/lwm2m/core\objects.c ****     if (NULL == targetP) return COAP_404_NOT_FOUND;
 522:C:/Users/lenovo/Desktop/liteos/Project2/BearPi_LiteOS/components/connectivity/lwm2m/core\objects.c ****     if (NULL == targetP->discoverFunc) return COAP_501_NOT_IMPLEMENTED;
 523:C:/Users/lenovo/Desktop/liteos/Project2/BearPi_LiteOS/components/connectivity/lwm2m/core\objects.c **** 
 524:C:/Users/lenovo/Desktop/liteos/Project2/BearPi_LiteOS/components/connectivity/lwm2m/core\objects.c ****     if (LWM2M_URI_IS_SET_INSTANCE(uriP))
 525:C:/Users/lenovo/Desktop/liteos/Project2/BearPi_LiteOS/components/connectivity/lwm2m/core\objects.c ****     {
 526:C:/Users/lenovo/Desktop/liteos/Project2/BearPi_LiteOS/components/connectivity/lwm2m/core\objects.c ****         if (NULL == lwm2m_list_find(targetP->instanceList, uriP->instanceId)) return COAP_404_NOT_F
ARM GAS  c:\Users\lenovo\AppData\Local\Temp\ccdS8TBd.s 			page 13


 527:C:/Users/lenovo/Desktop/liteos/Project2/BearPi_LiteOS/components/connectivity/lwm2m/core\objects.c **** 
 528:C:/Users/lenovo/Desktop/liteos/Project2/BearPi_LiteOS/components/connectivity/lwm2m/core\objects.c ****         // single instance read
 529:C:/Users/lenovo/Desktop/liteos/Project2/BearPi_LiteOS/components/connectivity/lwm2m/core\objects.c ****         if (LWM2M_URI_IS_SET_RESOURCE(uriP))
 530:C:/Users/lenovo/Desktop/liteos/Project2/BearPi_LiteOS/components/connectivity/lwm2m/core\objects.c ****         {
 531:C:/Users/lenovo/Desktop/liteos/Project2/BearPi_LiteOS/components/connectivity/lwm2m/core\objects.c ****             size = 1;
 532:C:/Users/lenovo/Desktop/liteos/Project2/BearPi_LiteOS/components/connectivity/lwm2m/core\objects.c ****             dataP = lwm2m_data_new(size);
 533:C:/Users/lenovo/Desktop/liteos/Project2/BearPi_LiteOS/components/connectivity/lwm2m/core\objects.c ****             if (dataP == NULL) return COAP_500_INTERNAL_SERVER_ERROR;
 534:C:/Users/lenovo/Desktop/liteos/Project2/BearPi_LiteOS/components/connectivity/lwm2m/core\objects.c **** 
 535:C:/Users/lenovo/Desktop/liteos/Project2/BearPi_LiteOS/components/connectivity/lwm2m/core\objects.c ****             dataP->id = uriP->resourceId;
 536:C:/Users/lenovo/Desktop/liteos/Project2/BearPi_LiteOS/components/connectivity/lwm2m/core\objects.c ****         }
 537:C:/Users/lenovo/Desktop/liteos/Project2/BearPi_LiteOS/components/connectivity/lwm2m/core\objects.c **** 
 538:C:/Users/lenovo/Desktop/liteos/Project2/BearPi_LiteOS/components/connectivity/lwm2m/core\objects.c ****         result = targetP->discoverFunc(uriP->instanceId, &size, &dataP, targetP);
 539:C:/Users/lenovo/Desktop/liteos/Project2/BearPi_LiteOS/components/connectivity/lwm2m/core\objects.c ****     }
 540:C:/Users/lenovo/Desktop/liteos/Project2/BearPi_LiteOS/components/connectivity/lwm2m/core\objects.c ****     else
 541:C:/Users/lenovo/Desktop/liteos/Project2/BearPi_LiteOS/components/connectivity/lwm2m/core\objects.c ****     {
 542:C:/Users/lenovo/Desktop/liteos/Project2/BearPi_LiteOS/components/connectivity/lwm2m/core\objects.c ****         // multiple object instances read
 543:C:/Users/lenovo/Desktop/liteos/Project2/BearPi_LiteOS/components/connectivity/lwm2m/core\objects.c ****         lwm2m_list_t *instanceP;
 544:C:/Users/lenovo/Desktop/liteos/Project2/BearPi_LiteOS/components/connectivity/lwm2m/core\objects.c ****         int i;
 545:C:/Users/lenovo/Desktop/liteos/Project2/BearPi_LiteOS/components/connectivity/lwm2m/core\objects.c **** 
 546:C:/Users/lenovo/Desktop/liteos/Project2/BearPi_LiteOS/components/connectivity/lwm2m/core\objects.c ****         result = COAP_205_CONTENT;
 547:C:/Users/lenovo/Desktop/liteos/Project2/BearPi_LiteOS/components/connectivity/lwm2m/core\objects.c **** 
 548:C:/Users/lenovo/Desktop/liteos/Project2/BearPi_LiteOS/components/connectivity/lwm2m/core\objects.c ****         size = 0;
 549:C:/Users/lenovo/Desktop/liteos/Project2/BearPi_LiteOS/components/connectivity/lwm2m/core\objects.c ****         for (instanceP = targetP->instanceList; instanceP != NULL ; instanceP = instanceP->next)
 550:C:/Users/lenovo/Desktop/liteos/Project2/BearPi_LiteOS/components/connectivity/lwm2m/core\objects.c ****         {
 551:C:/Users/lenovo/Desktop/liteos/Project2/BearPi_LiteOS/components/connectivity/lwm2m/core\objects.c ****             size++;
 552:C:/Users/lenovo/Desktop/liteos/Project2/BearPi_LiteOS/components/connectivity/lwm2m/core\objects.c ****         }
 553:C:/Users/lenovo/Desktop/liteos/Project2/BearPi_LiteOS/components/connectivity/lwm2m/core\objects.c **** 
 554:C:/Users/lenovo/Desktop/liteos/Project2/BearPi_LiteOS/components/connectivity/lwm2m/core\objects.c ****         if (size != 0)
 555:C:/Users/lenovo/Desktop/liteos/Project2/BearPi_LiteOS/components/connectivity/lwm2m/core\objects.c ****         {
 556:C:/Users/lenovo/Desktop/liteos/Project2/BearPi_LiteOS/components/connectivity/lwm2m/core\objects.c ****             dataP = lwm2m_data_new(size);
 557:C:/Users/lenovo/Desktop/liteos/Project2/BearPi_LiteOS/components/connectivity/lwm2m/core\objects.c ****             if (dataP == NULL) return COAP_500_INTERNAL_SERVER_ERROR;
 558:C:/Users/lenovo/Desktop/liteos/Project2/BearPi_LiteOS/components/connectivity/lwm2m/core\objects.c **** 
 559:C:/Users/lenovo/Desktop/liteos/Project2/BearPi_LiteOS/components/connectivity/lwm2m/core\objects.c ****             instanceP = targetP->instanceList;
 560:C:/Users/lenovo/Desktop/liteos/Project2/BearPi_LiteOS/components/connectivity/lwm2m/core\objects.c ****             i = 0;
 561:C:/Users/lenovo/Desktop/liteos/Project2/BearPi_LiteOS/components/connectivity/lwm2m/core\objects.c ****             while (instanceP != NULL && result == COAP_205_CONTENT)
 562:C:/Users/lenovo/Desktop/liteos/Project2/BearPi_LiteOS/components/connectivity/lwm2m/core\objects.c ****             {
 563:C:/Users/lenovo/Desktop/liteos/Project2/BearPi_LiteOS/components/connectivity/lwm2m/core\objects.c ****                 result = targetP->discoverFunc(instanceP->id, (int *) & (dataP[i].value.asChildren.
 564:C:/Users/lenovo/Desktop/liteos/Project2/BearPi_LiteOS/components/connectivity/lwm2m/core\objects.c ****                 dataP[i].type = LWM2M_TYPE_OBJECT_INSTANCE;
 565:C:/Users/lenovo/Desktop/liteos/Project2/BearPi_LiteOS/components/connectivity/lwm2m/core\objects.c ****                 dataP[i].id = instanceP->id;
 566:C:/Users/lenovo/Desktop/liteos/Project2/BearPi_LiteOS/components/connectivity/lwm2m/core\objects.c ****                 i++;
 567:C:/Users/lenovo/Desktop/liteos/Project2/BearPi_LiteOS/components/connectivity/lwm2m/core\objects.c ****                 instanceP = instanceP->next;
 568:C:/Users/lenovo/Desktop/liteos/Project2/BearPi_LiteOS/components/connectivity/lwm2m/core\objects.c ****             }
 569:C:/Users/lenovo/Desktop/liteos/Project2/BearPi_LiteOS/components/connectivity/lwm2m/core\objects.c ****         }
 570:C:/Users/lenovo/Desktop/liteos/Project2/BearPi_LiteOS/components/connectivity/lwm2m/core\objects.c ****     }
 571:C:/Users/lenovo/Desktop/liteos/Project2/BearPi_LiteOS/components/connectivity/lwm2m/core\objects.c **** 
 572:C:/Users/lenovo/Desktop/liteos/Project2/BearPi_LiteOS/components/connectivity/lwm2m/core\objects.c ****     if (result == COAP_205_CONTENT)
 573:C:/Users/lenovo/Desktop/liteos/Project2/BearPi_LiteOS/components/connectivity/lwm2m/core\objects.c ****     {
 574:C:/Users/lenovo/Desktop/liteos/Project2/BearPi_LiteOS/components/connectivity/lwm2m/core\objects.c ****         int len;
 575:C:/Users/lenovo/Desktop/liteos/Project2/BearPi_LiteOS/components/connectivity/lwm2m/core\objects.c **** 
 576:C:/Users/lenovo/Desktop/liteos/Project2/BearPi_LiteOS/components/connectivity/lwm2m/core\objects.c ****         len = discover_serialize(contextP, uriP, serverP, size, dataP, bufferP);
 577:C:/Users/lenovo/Desktop/liteos/Project2/BearPi_LiteOS/components/connectivity/lwm2m/core\objects.c ****         if (len <= 0) result = COAP_500_INTERNAL_SERVER_ERROR;
 578:C:/Users/lenovo/Desktop/liteos/Project2/BearPi_LiteOS/components/connectivity/lwm2m/core\objects.c ****         else *lengthP = len;
 579:C:/Users/lenovo/Desktop/liteos/Project2/BearPi_LiteOS/components/connectivity/lwm2m/core\objects.c ****     }
 580:C:/Users/lenovo/Desktop/liteos/Project2/BearPi_LiteOS/components/connectivity/lwm2m/core\objects.c ****     lwm2m_data_free(size, dataP);
 581:C:/Users/lenovo/Desktop/liteos/Project2/BearPi_LiteOS/components/connectivity/lwm2m/core\objects.c **** 
 582:C:/Users/lenovo/Desktop/liteos/Project2/BearPi_LiteOS/components/connectivity/lwm2m/core\objects.c ****     LOG_ARG("result: %u.%2u", (result & 0xFF) >> 5, (result & 0x1F));
 583:C:/Users/lenovo/Desktop/liteos/Project2/BearPi_LiteOS/components/connectivity/lwm2m/core\objects.c **** 
ARM GAS  c:\Users\lenovo\AppData\Local\Temp\ccdS8TBd.s 			page 14


 584:C:/Users/lenovo/Desktop/liteos/Project2/BearPi_LiteOS/components/connectivity/lwm2m/core\objects.c ****     return result;
 585:C:/Users/lenovo/Desktop/liteos/Project2/BearPi_LiteOS/components/connectivity/lwm2m/core\objects.c **** }
 586:C:/Users/lenovo/Desktop/liteos/Project2/BearPi_LiteOS/components/connectivity/lwm2m/core\objects.c **** 
 587:C:/Users/lenovo/Desktop/liteos/Project2/BearPi_LiteOS/components/connectivity/lwm2m/core\objects.c **** bool object_isInstanceNew(lwm2m_context_t *contextP,
 588:C:/Users/lenovo/Desktop/liteos/Project2/BearPi_LiteOS/components/connectivity/lwm2m/core\objects.c ****                           uint16_t objectId,
 589:C:/Users/lenovo/Desktop/liteos/Project2/BearPi_LiteOS/components/connectivity/lwm2m/core\objects.c ****                           uint16_t instanceId)
 590:C:/Users/lenovo/Desktop/liteos/Project2/BearPi_LiteOS/components/connectivity/lwm2m/core\objects.c **** {
 591:C:/Users/lenovo/Desktop/liteos/Project2/BearPi_LiteOS/components/connectivity/lwm2m/core\objects.c ****     lwm2m_object_t *targetP;
 592:C:/Users/lenovo/Desktop/liteos/Project2/BearPi_LiteOS/components/connectivity/lwm2m/core\objects.c **** 
 593:C:/Users/lenovo/Desktop/liteos/Project2/BearPi_LiteOS/components/connectivity/lwm2m/core\objects.c ****     LOG("Entering");
 594:C:/Users/lenovo/Desktop/liteos/Project2/BearPi_LiteOS/components/connectivity/lwm2m/core\objects.c ****     targetP = (lwm2m_object_t *)LWM2M_LIST_FIND(contextP->objectList, objectId);
 595:C:/Users/lenovo/Desktop/liteos/Project2/BearPi_LiteOS/components/connectivity/lwm2m/core\objects.c ****     if (targetP != NULL)
 596:C:/Users/lenovo/Desktop/liteos/Project2/BearPi_LiteOS/components/connectivity/lwm2m/core\objects.c ****     {
 597:C:/Users/lenovo/Desktop/liteos/Project2/BearPi_LiteOS/components/connectivity/lwm2m/core\objects.c ****         if (NULL != lwm2m_list_find(targetP->instanceList, instanceId))
 598:C:/Users/lenovo/Desktop/liteos/Project2/BearPi_LiteOS/components/connectivity/lwm2m/core\objects.c ****         {
 599:C:/Users/lenovo/Desktop/liteos/Project2/BearPi_LiteOS/components/connectivity/lwm2m/core\objects.c ****             return false;
 600:C:/Users/lenovo/Desktop/liteos/Project2/BearPi_LiteOS/components/connectivity/lwm2m/core\objects.c ****         }
 601:C:/Users/lenovo/Desktop/liteos/Project2/BearPi_LiteOS/components/connectivity/lwm2m/core\objects.c ****     }
 602:C:/Users/lenovo/Desktop/liteos/Project2/BearPi_LiteOS/components/connectivity/lwm2m/core\objects.c **** 
 603:C:/Users/lenovo/Desktop/liteos/Project2/BearPi_LiteOS/components/connectivity/lwm2m/core\objects.c ****     return true;
 604:C:/Users/lenovo/Desktop/liteos/Project2/BearPi_LiteOS/components/connectivity/lwm2m/core\objects.c **** }
 605:C:/Users/lenovo/Desktop/liteos/Project2/BearPi_LiteOS/components/connectivity/lwm2m/core\objects.c **** 
 606:C:/Users/lenovo/Desktop/liteos/Project2/BearPi_LiteOS/components/connectivity/lwm2m/core\objects.c **** static int prv_getObjectTemplate(uint8_t *buffer,
 607:C:/Users/lenovo/Desktop/liteos/Project2/BearPi_LiteOS/components/connectivity/lwm2m/core\objects.c ****                                  size_t length,
 608:C:/Users/lenovo/Desktop/liteos/Project2/BearPi_LiteOS/components/connectivity/lwm2m/core\objects.c ****                                  uint16_t id)
 609:C:/Users/lenovo/Desktop/liteos/Project2/BearPi_LiteOS/components/connectivity/lwm2m/core\objects.c **** {
 152              		.loc 1 609 0
 153              		.cfi_startproc
 154              		@ args = 0, pretend = 0, frame = 0
 155              		@ frame_needed = 0, uses_anonymous_args = 0
 156              	.LVL15:
 610:C:/Users/lenovo/Desktop/liteos/Project2/BearPi_LiteOS/components/connectivity/lwm2m/core\objects.c ****     int index;
 611:C:/Users/lenovo/Desktop/liteos/Project2/BearPi_LiteOS/components/connectivity/lwm2m/core\objects.c ****     int result;
 612:C:/Users/lenovo/Desktop/liteos/Project2/BearPi_LiteOS/components/connectivity/lwm2m/core\objects.c **** 
 613:C:/Users/lenovo/Desktop/liteos/Project2/BearPi_LiteOS/components/connectivity/lwm2m/core\objects.c ****     if (length < REG_OBJECT_MIN_LEN) return -1;
 157              		.loc 1 613 0
 158 0000 0429     		cmp	r1, #4
 159 0002 16D9     		bls	.L13
 609:C:/Users/lenovo/Desktop/liteos/Project2/BearPi_LiteOS/components/connectivity/lwm2m/core\objects.c ****     int index;
 160              		.loc 1 609 0
 161 0004 70B5     		push	{r4, r5, r6, lr}
 162              	.LCFI4:
 163              		.cfi_def_cfa_offset 16
 164              		.cfi_offset 4, -16
 165              		.cfi_offset 5, -12
 166              		.cfi_offset 6, -8
 167              		.cfi_offset 14, -4
 168 0006 1646     		mov	r6, r2
 169 0008 0C46     		mov	r4, r1
 170 000a 0546     		mov	r5, r0
 614:C:/Users/lenovo/Desktop/liteos/Project2/BearPi_LiteOS/components/connectivity/lwm2m/core\objects.c **** 
 615:C:/Users/lenovo/Desktop/liteos/Project2/BearPi_LiteOS/components/connectivity/lwm2m/core\objects.c ****     buffer[0] = '<';
 171              		.loc 1 615 0
 172 000c 3C23     		movs	r3, #60
 173 000e 0370     		strb	r3, [r0]
 616:C:/Users/lenovo/Desktop/liteos/Project2/BearPi_LiteOS/components/connectivity/lwm2m/core\objects.c ****     buffer[1] = '/';
 174              		.loc 1 616 0
ARM GAS  c:\Users\lenovo\AppData\Local\Temp\ccdS8TBd.s 			page 15


 175 0010 2F23     		movs	r3, #47
 176 0012 4370     		strb	r3, [r0, #1]
 177              	.LVL16:
 617:C:/Users/lenovo/Desktop/liteos/Project2/BearPi_LiteOS/components/connectivity/lwm2m/core\objects.c ****     index = 2;
 618:C:/Users/lenovo/Desktop/liteos/Project2/BearPi_LiteOS/components/connectivity/lwm2m/core\objects.c **** 
 619:C:/Users/lenovo/Desktop/liteos/Project2/BearPi_LiteOS/components/connectivity/lwm2m/core\objects.c ****     result = utils_intToText(id, buffer + index, length - index);
 178              		.loc 1 619 0
 179 0014 8B1E     		subs	r3, r1, #2
 180 0016 821C     		adds	r2, r0, #2
 181              	.LVL17:
 182 0018 B0B2     		uxth	r0, r6
 183              	.LVL18:
 184 001a 0021     		movs	r1, #0
 185              	.LVL19:
 186 001c FFF7FEFF 		bl	utils_intToText
 187              	.LVL20:
 620:C:/Users/lenovo/Desktop/liteos/Project2/BearPi_LiteOS/components/connectivity/lwm2m/core\objects.c ****     if (result == 0) return -1;
 188              		.loc 1 620 0
 189 0020 50B1     		cbz	r0, .L14
 621:C:/Users/lenovo/Desktop/liteos/Project2/BearPi_LiteOS/components/connectivity/lwm2m/core\objects.c ****     index += result;
 190              		.loc 1 621 0
 191 0022 821C     		adds	r2, r0, #2
 192              	.LVL21:
 622:C:/Users/lenovo/Desktop/liteos/Project2/BearPi_LiteOS/components/connectivity/lwm2m/core\objects.c **** 
 623:C:/Users/lenovo/Desktop/liteos/Project2/BearPi_LiteOS/components/connectivity/lwm2m/core\objects.c ****     if (length - index < REG_OBJECT_MIN_LEN - 3) return -1;
 193              		.loc 1 623 0
 194 0024 A11A     		subs	r1, r4, r2
 195 0026 0129     		cmp	r1, #1
 196 0028 09D9     		bls	.L15
 624:C:/Users/lenovo/Desktop/liteos/Project2/BearPi_LiteOS/components/connectivity/lwm2m/core\objects.c ****     buffer[index] = '/';
 197              		.loc 1 624 0
 198 002a 2F21     		movs	r1, #47
 199 002c A954     		strb	r1, [r5, r2]
 625:C:/Users/lenovo/Desktop/liteos/Project2/BearPi_LiteOS/components/connectivity/lwm2m/core\objects.c ****     index++;
 200              		.loc 1 625 0
 201 002e 0330     		adds	r0, r0, #3
 202              	.LVL22:
 203              	.L11:
 626:C:/Users/lenovo/Desktop/liteos/Project2/BearPi_LiteOS/components/connectivity/lwm2m/core\objects.c **** 
 627:C:/Users/lenovo/Desktop/liteos/Project2/BearPi_LiteOS/components/connectivity/lwm2m/core\objects.c ****     return index;
 628:C:/Users/lenovo/Desktop/liteos/Project2/BearPi_LiteOS/components/connectivity/lwm2m/core\objects.c **** }
 204              		.loc 1 628 0
 205 0030 70BD     		pop	{r4, r5, r6, pc}
 206              	.LVL23:
 207              	.L13:
 208              	.LCFI5:
 209              		.cfi_def_cfa_offset 0
 210              		.cfi_restore 4
 211              		.cfi_restore 5
 212              		.cfi_restore 6
 213              		.cfi_restore 14
 613:C:/Users/lenovo/Desktop/liteos/Project2/BearPi_LiteOS/components/connectivity/lwm2m/core\objects.c **** 
 214              		.loc 1 613 0
 215 0032 4FF0FF30 		mov	r0, #-1
 216              	.LVL24:
 217              		.loc 1 628 0
 218 0036 7047     		bx	lr
ARM GAS  c:\Users\lenovo\AppData\Local\Temp\ccdS8TBd.s 			page 16


 219              	.LVL25:
 220              	.L14:
 221              	.LCFI6:
 222              		.cfi_def_cfa_offset 16
 223              		.cfi_offset 4, -16
 224              		.cfi_offset 5, -12
 225              		.cfi_offset 6, -8
 226              		.cfi_offset 14, -4
 620:C:/Users/lenovo/Desktop/liteos/Project2/BearPi_LiteOS/components/connectivity/lwm2m/core\objects.c ****     index += result;
 227              		.loc 1 620 0
 228 0038 4FF0FF30 		mov	r0, #-1
 229              	.LVL26:
 230 003c F8E7     		b	.L11
 231              	.LVL27:
 232              	.L15:
 623:C:/Users/lenovo/Desktop/liteos/Project2/BearPi_LiteOS/components/connectivity/lwm2m/core\objects.c ****     buffer[index] = '/';
 233              		.loc 1 623 0
 234 003e 4FF0FF30 		mov	r0, #-1
 235              	.LVL28:
 236 0042 F5E7     		b	.L11
 237              		.cfi_endproc
 238              	.LFE153:
 240              		.section	.text.prv_findServerInstance,"ax",%progbits
 241              		.align	1
 242              		.syntax unified
 243              		.thumb
 244              		.thumb_func
 245              		.fpu fpv4-sp-d16
 247              	prv_findServerInstance:
 248              	.LFB156:
 629:C:/Users/lenovo/Desktop/liteos/Project2/BearPi_LiteOS/components/connectivity/lwm2m/core\objects.c **** 
 630:C:/Users/lenovo/Desktop/liteos/Project2/BearPi_LiteOS/components/connectivity/lwm2m/core\objects.c **** int object_getRegisterPayloadBufferLength(lwm2m_context_t *contextP)
 631:C:/Users/lenovo/Desktop/liteos/Project2/BearPi_LiteOS/components/connectivity/lwm2m/core\objects.c **** {
 632:C:/Users/lenovo/Desktop/liteos/Project2/BearPi_LiteOS/components/connectivity/lwm2m/core\objects.c ****     size_t index;
 633:C:/Users/lenovo/Desktop/liteos/Project2/BearPi_LiteOS/components/connectivity/lwm2m/core\objects.c ****     int result;
 634:C:/Users/lenovo/Desktop/liteos/Project2/BearPi_LiteOS/components/connectivity/lwm2m/core\objects.c ****     lwm2m_object_t *objectP;
 635:C:/Users/lenovo/Desktop/liteos/Project2/BearPi_LiteOS/components/connectivity/lwm2m/core\objects.c ****     char buffer[REG_OBJECT_MIN_LEN + 5];
 636:C:/Users/lenovo/Desktop/liteos/Project2/BearPi_LiteOS/components/connectivity/lwm2m/core\objects.c **** 
 637:C:/Users/lenovo/Desktop/liteos/Project2/BearPi_LiteOS/components/connectivity/lwm2m/core\objects.c ****     LOG("Entering");
 638:C:/Users/lenovo/Desktop/liteos/Project2/BearPi_LiteOS/components/connectivity/lwm2m/core\objects.c ****     index = strlen(REG_START);
 639:C:/Users/lenovo/Desktop/liteos/Project2/BearPi_LiteOS/components/connectivity/lwm2m/core\objects.c **** 
 640:C:/Users/lenovo/Desktop/liteos/Project2/BearPi_LiteOS/components/connectivity/lwm2m/core\objects.c ****     if ((contextP->altPath != NULL)
 641:C:/Users/lenovo/Desktop/liteos/Project2/BearPi_LiteOS/components/connectivity/lwm2m/core\objects.c ****             && (contextP->altPath[0] != 0))
 642:C:/Users/lenovo/Desktop/liteos/Project2/BearPi_LiteOS/components/connectivity/lwm2m/core\objects.c ****     {
 643:C:/Users/lenovo/Desktop/liteos/Project2/BearPi_LiteOS/components/connectivity/lwm2m/core\objects.c ****         index += strlen(contextP->altPath);
 644:C:/Users/lenovo/Desktop/liteos/Project2/BearPi_LiteOS/components/connectivity/lwm2m/core\objects.c ****     }
 645:C:/Users/lenovo/Desktop/liteos/Project2/BearPi_LiteOS/components/connectivity/lwm2m/core\objects.c ****     else
 646:C:/Users/lenovo/Desktop/liteos/Project2/BearPi_LiteOS/components/connectivity/lwm2m/core\objects.c ****     {
 647:C:/Users/lenovo/Desktop/liteos/Project2/BearPi_LiteOS/components/connectivity/lwm2m/core\objects.c ****         index += strlen(REG_DEFAULT_PATH); // "/"
 648:C:/Users/lenovo/Desktop/liteos/Project2/BearPi_LiteOS/components/connectivity/lwm2m/core\objects.c ****     }
 649:C:/Users/lenovo/Desktop/liteos/Project2/BearPi_LiteOS/components/connectivity/lwm2m/core\objects.c **** 
 650:C:/Users/lenovo/Desktop/liteos/Project2/BearPi_LiteOS/components/connectivity/lwm2m/core\objects.c ****     index += strlen(REG_LWM2M_RESOURCE_TYPE);//">;rt=\"oma.lwm2m\";ct=11543,"
 651:C:/Users/lenovo/Desktop/liteos/Project2/BearPi_LiteOS/components/connectivity/lwm2m/core\objects.c **** 
 652:C:/Users/lenovo/Desktop/liteos/Project2/BearPi_LiteOS/components/connectivity/lwm2m/core\objects.c ****     for (objectP = contextP->objectList; objectP != NULL; objectP = objectP->next)
 653:C:/Users/lenovo/Desktop/liteos/Project2/BearPi_LiteOS/components/connectivity/lwm2m/core\objects.c ****     {
 654:C:/Users/lenovo/Desktop/liteos/Project2/BearPi_LiteOS/components/connectivity/lwm2m/core\objects.c ****         size_t start;
 655:C:/Users/lenovo/Desktop/liteos/Project2/BearPi_LiteOS/components/connectivity/lwm2m/core\objects.c ****         size_t length;
ARM GAS  c:\Users\lenovo\AppData\Local\Temp\ccdS8TBd.s 			page 17


 656:C:/Users/lenovo/Desktop/liteos/Project2/BearPi_LiteOS/components/connectivity/lwm2m/core\objects.c **** 
 657:C:/Users/lenovo/Desktop/liteos/Project2/BearPi_LiteOS/components/connectivity/lwm2m/core\objects.c ****         if (objectP->objID == LWM2M_SECURITY_OBJECT_ID) continue;
 658:C:/Users/lenovo/Desktop/liteos/Project2/BearPi_LiteOS/components/connectivity/lwm2m/core\objects.c **** 
 659:C:/Users/lenovo/Desktop/liteos/Project2/BearPi_LiteOS/components/connectivity/lwm2m/core\objects.c ****         start = index;
 660:C:/Users/lenovo/Desktop/liteos/Project2/BearPi_LiteOS/components/connectivity/lwm2m/core\objects.c ****         result = prv_getObjectTemplate((uint8_t *)buffer, sizeof(buffer), objectP->objID);
 661:C:/Users/lenovo/Desktop/liteos/Project2/BearPi_LiteOS/components/connectivity/lwm2m/core\objects.c ****         if (result < 0) return 0;
 662:C:/Users/lenovo/Desktop/liteos/Project2/BearPi_LiteOS/components/connectivity/lwm2m/core\objects.c ****         length = result;
 663:C:/Users/lenovo/Desktop/liteos/Project2/BearPi_LiteOS/components/connectivity/lwm2m/core\objects.c ****         index += length;
 664:C:/Users/lenovo/Desktop/liteos/Project2/BearPi_LiteOS/components/connectivity/lwm2m/core\objects.c **** 
 665:C:/Users/lenovo/Desktop/liteos/Project2/BearPi_LiteOS/components/connectivity/lwm2m/core\objects.c ****         if (objectP->instanceList == NULL)
 666:C:/Users/lenovo/Desktop/liteos/Project2/BearPi_LiteOS/components/connectivity/lwm2m/core\objects.c ****         {
 667:C:/Users/lenovo/Desktop/liteos/Project2/BearPi_LiteOS/components/connectivity/lwm2m/core\objects.c ****             index -= 1;
 668:C:/Users/lenovo/Desktop/liteos/Project2/BearPi_LiteOS/components/connectivity/lwm2m/core\objects.c ****             index += strlen(REG_PATH_END); //">,"
 669:C:/Users/lenovo/Desktop/liteos/Project2/BearPi_LiteOS/components/connectivity/lwm2m/core\objects.c ****         }
 670:C:/Users/lenovo/Desktop/liteos/Project2/BearPi_LiteOS/components/connectivity/lwm2m/core\objects.c ****         else
 671:C:/Users/lenovo/Desktop/liteos/Project2/BearPi_LiteOS/components/connectivity/lwm2m/core\objects.c ****         {
 672:C:/Users/lenovo/Desktop/liteos/Project2/BearPi_LiteOS/components/connectivity/lwm2m/core\objects.c ****             lwm2m_list_t *targetP;
 673:C:/Users/lenovo/Desktop/liteos/Project2/BearPi_LiteOS/components/connectivity/lwm2m/core\objects.c ****             for (targetP = objectP->instanceList ; targetP != NULL ; targetP = targetP->next)
 674:C:/Users/lenovo/Desktop/liteos/Project2/BearPi_LiteOS/components/connectivity/lwm2m/core\objects.c ****             {
 675:C:/Users/lenovo/Desktop/liteos/Project2/BearPi_LiteOS/components/connectivity/lwm2m/core\objects.c ****                 if (index != start + length)
 676:C:/Users/lenovo/Desktop/liteos/Project2/BearPi_LiteOS/components/connectivity/lwm2m/core\objects.c ****                 {
 677:C:/Users/lenovo/Desktop/liteos/Project2/BearPi_LiteOS/components/connectivity/lwm2m/core\objects.c ****                     index += length;
 678:C:/Users/lenovo/Desktop/liteos/Project2/BearPi_LiteOS/components/connectivity/lwm2m/core\objects.c ****                 }
 679:C:/Users/lenovo/Desktop/liteos/Project2/BearPi_LiteOS/components/connectivity/lwm2m/core\objects.c **** 
 680:C:/Users/lenovo/Desktop/liteos/Project2/BearPi_LiteOS/components/connectivity/lwm2m/core\objects.c ****                 result = utils_intToText(targetP->id, (uint8_t *)buffer, sizeof(buffer));
 681:C:/Users/lenovo/Desktop/liteos/Project2/BearPi_LiteOS/components/connectivity/lwm2m/core\objects.c ****                 if (result == 0) return 0;
 682:C:/Users/lenovo/Desktop/liteos/Project2/BearPi_LiteOS/components/connectivity/lwm2m/core\objects.c ****                 index += result;
 683:C:/Users/lenovo/Desktop/liteos/Project2/BearPi_LiteOS/components/connectivity/lwm2m/core\objects.c **** 
 684:C:/Users/lenovo/Desktop/liteos/Project2/BearPi_LiteOS/components/connectivity/lwm2m/core\objects.c ****                 index += strlen(REG_PATH_END);
 685:C:/Users/lenovo/Desktop/liteos/Project2/BearPi_LiteOS/components/connectivity/lwm2m/core\objects.c ****             }
 686:C:/Users/lenovo/Desktop/liteos/Project2/BearPi_LiteOS/components/connectivity/lwm2m/core\objects.c ****         }
 687:C:/Users/lenovo/Desktop/liteos/Project2/BearPi_LiteOS/components/connectivity/lwm2m/core\objects.c ****     }
 688:C:/Users/lenovo/Desktop/liteos/Project2/BearPi_LiteOS/components/connectivity/lwm2m/core\objects.c **** 
 689:C:/Users/lenovo/Desktop/liteos/Project2/BearPi_LiteOS/components/connectivity/lwm2m/core\objects.c ****     index += 1;  // account for trailing null
 690:C:/Users/lenovo/Desktop/liteos/Project2/BearPi_LiteOS/components/connectivity/lwm2m/core\objects.c **** 
 691:C:/Users/lenovo/Desktop/liteos/Project2/BearPi_LiteOS/components/connectivity/lwm2m/core\objects.c ****     // Note that object_getRegisterPayload() has REG_PATH_END added after each
 692:C:/Users/lenovo/Desktop/liteos/Project2/BearPi_LiteOS/components/connectivity/lwm2m/core\objects.c ****     // object or instance, and then the trailing comma is replaced by null. The
 693:C:/Users/lenovo/Desktop/liteos/Project2/BearPi_LiteOS/components/connectivity/lwm2m/core\objects.c ****     // trailing nulls are not counted as part of the payload length, so this
 694:C:/Users/lenovo/Desktop/liteos/Project2/BearPi_LiteOS/components/connectivity/lwm2m/core\objects.c ****     // will return a size two bytes greater than what
 695:C:/Users/lenovo/Desktop/liteos/Project2/BearPi_LiteOS/components/connectivity/lwm2m/core\objects.c ****     // object_getRegisterPayload() returns.
 696:C:/Users/lenovo/Desktop/liteos/Project2/BearPi_LiteOS/components/connectivity/lwm2m/core\objects.c **** 
 697:C:/Users/lenovo/Desktop/liteos/Project2/BearPi_LiteOS/components/connectivity/lwm2m/core\objects.c ****     return index;
 698:C:/Users/lenovo/Desktop/liteos/Project2/BearPi_LiteOS/components/connectivity/lwm2m/core\objects.c **** }
 699:C:/Users/lenovo/Desktop/liteos/Project2/BearPi_LiteOS/components/connectivity/lwm2m/core\objects.c **** 
 700:C:/Users/lenovo/Desktop/liteos/Project2/BearPi_LiteOS/components/connectivity/lwm2m/core\objects.c **** int object_getRegisterPayload(lwm2m_context_t *contextP,
 701:C:/Users/lenovo/Desktop/liteos/Project2/BearPi_LiteOS/components/connectivity/lwm2m/core\objects.c ****                               uint8_t *buffer,
 702:C:/Users/lenovo/Desktop/liteos/Project2/BearPi_LiteOS/components/connectivity/lwm2m/core\objects.c ****                               size_t bufferLen)
 703:C:/Users/lenovo/Desktop/liteos/Project2/BearPi_LiteOS/components/connectivity/lwm2m/core\objects.c **** {
 704:C:/Users/lenovo/Desktop/liteos/Project2/BearPi_LiteOS/components/connectivity/lwm2m/core\objects.c ****     size_t index;
 705:C:/Users/lenovo/Desktop/liteos/Project2/BearPi_LiteOS/components/connectivity/lwm2m/core\objects.c ****     int result;
 706:C:/Users/lenovo/Desktop/liteos/Project2/BearPi_LiteOS/components/connectivity/lwm2m/core\objects.c ****     lwm2m_object_t *objectP;
 707:C:/Users/lenovo/Desktop/liteos/Project2/BearPi_LiteOS/components/connectivity/lwm2m/core\objects.c **** 
 708:C:/Users/lenovo/Desktop/liteos/Project2/BearPi_LiteOS/components/connectivity/lwm2m/core\objects.c ****     LOG("Entering");
 709:C:/Users/lenovo/Desktop/liteos/Project2/BearPi_LiteOS/components/connectivity/lwm2m/core\objects.c ****     // index can not be greater than bufferLen
 710:C:/Users/lenovo/Desktop/liteos/Project2/BearPi_LiteOS/components/connectivity/lwm2m/core\objects.c ****     index = 0;
 711:C:/Users/lenovo/Desktop/liteos/Project2/BearPi_LiteOS/components/connectivity/lwm2m/core\objects.c **** 
 712:C:/Users/lenovo/Desktop/liteos/Project2/BearPi_LiteOS/components/connectivity/lwm2m/core\objects.c ****     result = utils_stringCopy((char *)buffer, bufferLen, REG_START);
ARM GAS  c:\Users\lenovo\AppData\Local\Temp\ccdS8TBd.s 			page 18


 713:C:/Users/lenovo/Desktop/liteos/Project2/BearPi_LiteOS/components/connectivity/lwm2m/core\objects.c ****     if (result < 0) return 0;
 714:C:/Users/lenovo/Desktop/liteos/Project2/BearPi_LiteOS/components/connectivity/lwm2m/core\objects.c ****     index += result;
 715:C:/Users/lenovo/Desktop/liteos/Project2/BearPi_LiteOS/components/connectivity/lwm2m/core\objects.c **** 
 716:C:/Users/lenovo/Desktop/liteos/Project2/BearPi_LiteOS/components/connectivity/lwm2m/core\objects.c ****     if ((contextP->altPath != NULL)
 717:C:/Users/lenovo/Desktop/liteos/Project2/BearPi_LiteOS/components/connectivity/lwm2m/core\objects.c ****             && (contextP->altPath[0] != 0))
 718:C:/Users/lenovo/Desktop/liteos/Project2/BearPi_LiteOS/components/connectivity/lwm2m/core\objects.c ****     {
 719:C:/Users/lenovo/Desktop/liteos/Project2/BearPi_LiteOS/components/connectivity/lwm2m/core\objects.c ****         result = utils_stringCopy((char *)buffer + index, bufferLen - index, contextP->altPath);
 720:C:/Users/lenovo/Desktop/liteos/Project2/BearPi_LiteOS/components/connectivity/lwm2m/core\objects.c ****     }
 721:C:/Users/lenovo/Desktop/liteos/Project2/BearPi_LiteOS/components/connectivity/lwm2m/core\objects.c ****     else
 722:C:/Users/lenovo/Desktop/liteos/Project2/BearPi_LiteOS/components/connectivity/lwm2m/core\objects.c ****     {
 723:C:/Users/lenovo/Desktop/liteos/Project2/BearPi_LiteOS/components/connectivity/lwm2m/core\objects.c ****         result = utils_stringCopy((char *)buffer + index, bufferLen - index, REG_DEFAULT_PATH);
 724:C:/Users/lenovo/Desktop/liteos/Project2/BearPi_LiteOS/components/connectivity/lwm2m/core\objects.c ****     }
 725:C:/Users/lenovo/Desktop/liteos/Project2/BearPi_LiteOS/components/connectivity/lwm2m/core\objects.c ****     if (result < 0) return 0;
 726:C:/Users/lenovo/Desktop/liteos/Project2/BearPi_LiteOS/components/connectivity/lwm2m/core\objects.c ****     index += result;
 727:C:/Users/lenovo/Desktop/liteos/Project2/BearPi_LiteOS/components/connectivity/lwm2m/core\objects.c **** 
 728:C:/Users/lenovo/Desktop/liteos/Project2/BearPi_LiteOS/components/connectivity/lwm2m/core\objects.c ****     result = utils_stringCopy((char *)buffer + index, bufferLen - index, REG_LWM2M_RESOURCE_TYPE);
 729:C:/Users/lenovo/Desktop/liteos/Project2/BearPi_LiteOS/components/connectivity/lwm2m/core\objects.c ****     if (result < 0) return 0;
 730:C:/Users/lenovo/Desktop/liteos/Project2/BearPi_LiteOS/components/connectivity/lwm2m/core\objects.c ****     index += result;
 731:C:/Users/lenovo/Desktop/liteos/Project2/BearPi_LiteOS/components/connectivity/lwm2m/core\objects.c **** 
 732:C:/Users/lenovo/Desktop/liteos/Project2/BearPi_LiteOS/components/connectivity/lwm2m/core\objects.c ****     for (objectP = contextP->objectList; objectP != NULL; objectP = objectP->next)
 733:C:/Users/lenovo/Desktop/liteos/Project2/BearPi_LiteOS/components/connectivity/lwm2m/core\objects.c ****     {
 734:C:/Users/lenovo/Desktop/liteos/Project2/BearPi_LiteOS/components/connectivity/lwm2m/core\objects.c ****         size_t start;
 735:C:/Users/lenovo/Desktop/liteos/Project2/BearPi_LiteOS/components/connectivity/lwm2m/core\objects.c ****         size_t length;
 736:C:/Users/lenovo/Desktop/liteos/Project2/BearPi_LiteOS/components/connectivity/lwm2m/core\objects.c **** 
 737:C:/Users/lenovo/Desktop/liteos/Project2/BearPi_LiteOS/components/connectivity/lwm2m/core\objects.c ****         if (objectP->objID == LWM2M_SECURITY_OBJECT_ID) continue;
 738:C:/Users/lenovo/Desktop/liteos/Project2/BearPi_LiteOS/components/connectivity/lwm2m/core\objects.c **** 
 739:C:/Users/lenovo/Desktop/liteos/Project2/BearPi_LiteOS/components/connectivity/lwm2m/core\objects.c ****         start = index;
 740:C:/Users/lenovo/Desktop/liteos/Project2/BearPi_LiteOS/components/connectivity/lwm2m/core\objects.c ****         result = prv_getObjectTemplate(buffer + index, bufferLen - index, objectP->objID);
 741:C:/Users/lenovo/Desktop/liteos/Project2/BearPi_LiteOS/components/connectivity/lwm2m/core\objects.c ****         if (result < 0) return 0;
 742:C:/Users/lenovo/Desktop/liteos/Project2/BearPi_LiteOS/components/connectivity/lwm2m/core\objects.c ****         length = result;
 743:C:/Users/lenovo/Desktop/liteos/Project2/BearPi_LiteOS/components/connectivity/lwm2m/core\objects.c ****         index += length;
 744:C:/Users/lenovo/Desktop/liteos/Project2/BearPi_LiteOS/components/connectivity/lwm2m/core\objects.c **** 
 745:C:/Users/lenovo/Desktop/liteos/Project2/BearPi_LiteOS/components/connectivity/lwm2m/core\objects.c ****         if (objectP->instanceList == NULL)
 746:C:/Users/lenovo/Desktop/liteos/Project2/BearPi_LiteOS/components/connectivity/lwm2m/core\objects.c ****         {
 747:C:/Users/lenovo/Desktop/liteos/Project2/BearPi_LiteOS/components/connectivity/lwm2m/core\objects.c ****             index--;
 748:C:/Users/lenovo/Desktop/liteos/Project2/BearPi_LiteOS/components/connectivity/lwm2m/core\objects.c ****             result = utils_stringCopy((char *)buffer + index, bufferLen - index, REG_PATH_END);
 749:C:/Users/lenovo/Desktop/liteos/Project2/BearPi_LiteOS/components/connectivity/lwm2m/core\objects.c ****             if (result < 0) return 0;
 750:C:/Users/lenovo/Desktop/liteos/Project2/BearPi_LiteOS/components/connectivity/lwm2m/core\objects.c ****             index += result;
 751:C:/Users/lenovo/Desktop/liteos/Project2/BearPi_LiteOS/components/connectivity/lwm2m/core\objects.c ****         }
 752:C:/Users/lenovo/Desktop/liteos/Project2/BearPi_LiteOS/components/connectivity/lwm2m/core\objects.c ****         else
 753:C:/Users/lenovo/Desktop/liteos/Project2/BearPi_LiteOS/components/connectivity/lwm2m/core\objects.c ****         {
 754:C:/Users/lenovo/Desktop/liteos/Project2/BearPi_LiteOS/components/connectivity/lwm2m/core\objects.c ****             lwm2m_list_t *targetP;
 755:C:/Users/lenovo/Desktop/liteos/Project2/BearPi_LiteOS/components/connectivity/lwm2m/core\objects.c ****             for (targetP = objectP->instanceList ; targetP != NULL ; targetP = targetP->next)
 756:C:/Users/lenovo/Desktop/liteos/Project2/BearPi_LiteOS/components/connectivity/lwm2m/core\objects.c ****             {
 757:C:/Users/lenovo/Desktop/liteos/Project2/BearPi_LiteOS/components/connectivity/lwm2m/core\objects.c ****                 if (index != start + length)
 758:C:/Users/lenovo/Desktop/liteos/Project2/BearPi_LiteOS/components/connectivity/lwm2m/core\objects.c ****                 {
 759:C:/Users/lenovo/Desktop/liteos/Project2/BearPi_LiteOS/components/connectivity/lwm2m/core\objects.c ****                     if (bufferLen - index <= length) return 0;
 760:C:/Users/lenovo/Desktop/liteos/Project2/BearPi_LiteOS/components/connectivity/lwm2m/core\objects.c ****                     memcpy(buffer + index, buffer + start, length);
 761:C:/Users/lenovo/Desktop/liteos/Project2/BearPi_LiteOS/components/connectivity/lwm2m/core\objects.c ****                     index += length;
 762:C:/Users/lenovo/Desktop/liteos/Project2/BearPi_LiteOS/components/connectivity/lwm2m/core\objects.c ****                 }
 763:C:/Users/lenovo/Desktop/liteos/Project2/BearPi_LiteOS/components/connectivity/lwm2m/core\objects.c **** 
 764:C:/Users/lenovo/Desktop/liteos/Project2/BearPi_LiteOS/components/connectivity/lwm2m/core\objects.c ****                 result = utils_intToText(targetP->id, buffer + index, bufferLen - index);
 765:C:/Users/lenovo/Desktop/liteos/Project2/BearPi_LiteOS/components/connectivity/lwm2m/core\objects.c ****                 if (result == 0) return 0;
 766:C:/Users/lenovo/Desktop/liteos/Project2/BearPi_LiteOS/components/connectivity/lwm2m/core\objects.c ****                 index += result;
 767:C:/Users/lenovo/Desktop/liteos/Project2/BearPi_LiteOS/components/connectivity/lwm2m/core\objects.c **** 
 768:C:/Users/lenovo/Desktop/liteos/Project2/BearPi_LiteOS/components/connectivity/lwm2m/core\objects.c ****                 result = utils_stringCopy((char *)buffer + index, bufferLen - index, REG_PATH_END);
 769:C:/Users/lenovo/Desktop/liteos/Project2/BearPi_LiteOS/components/connectivity/lwm2m/core\objects.c ****                 if (result < 0) return 0;
ARM GAS  c:\Users\lenovo\AppData\Local\Temp\ccdS8TBd.s 			page 19


 770:C:/Users/lenovo/Desktop/liteos/Project2/BearPi_LiteOS/components/connectivity/lwm2m/core\objects.c ****                 index += result;
 771:C:/Users/lenovo/Desktop/liteos/Project2/BearPi_LiteOS/components/connectivity/lwm2m/core\objects.c ****             }
 772:C:/Users/lenovo/Desktop/liteos/Project2/BearPi_LiteOS/components/connectivity/lwm2m/core\objects.c ****         }
 773:C:/Users/lenovo/Desktop/liteos/Project2/BearPi_LiteOS/components/connectivity/lwm2m/core\objects.c ****     }
 774:C:/Users/lenovo/Desktop/liteos/Project2/BearPi_LiteOS/components/connectivity/lwm2m/core\objects.c **** 
 775:C:/Users/lenovo/Desktop/liteos/Project2/BearPi_LiteOS/components/connectivity/lwm2m/core\objects.c ****     if (index > 0)
 776:C:/Users/lenovo/Desktop/liteos/Project2/BearPi_LiteOS/components/connectivity/lwm2m/core\objects.c ****     {
 777:C:/Users/lenovo/Desktop/liteos/Project2/BearPi_LiteOS/components/connectivity/lwm2m/core\objects.c ****         index = index - 1;  // remove trailing ','
 778:C:/Users/lenovo/Desktop/liteos/Project2/BearPi_LiteOS/components/connectivity/lwm2m/core\objects.c ****     }
 779:C:/Users/lenovo/Desktop/liteos/Project2/BearPi_LiteOS/components/connectivity/lwm2m/core\objects.c **** 
 780:C:/Users/lenovo/Desktop/liteos/Project2/BearPi_LiteOS/components/connectivity/lwm2m/core\objects.c ****     buffer[index] = 0;
 781:C:/Users/lenovo/Desktop/liteos/Project2/BearPi_LiteOS/components/connectivity/lwm2m/core\objects.c **** 
 782:C:/Users/lenovo/Desktop/liteos/Project2/BearPi_LiteOS/components/connectivity/lwm2m/core\objects.c ****     return index;
 783:C:/Users/lenovo/Desktop/liteos/Project2/BearPi_LiteOS/components/connectivity/lwm2m/core\objects.c **** }
 784:C:/Users/lenovo/Desktop/liteos/Project2/BearPi_LiteOS/components/connectivity/lwm2m/core\objects.c **** 
 785:C:/Users/lenovo/Desktop/liteos/Project2/BearPi_LiteOS/components/connectivity/lwm2m/core\objects.c **** static lwm2m_list_t *prv_findServerInstance(lwm2m_object_t *objectP,
 786:C:/Users/lenovo/Desktop/liteos/Project2/BearPi_LiteOS/components/connectivity/lwm2m/core\objects.c ****         uint16_t shortID)
 787:C:/Users/lenovo/Desktop/liteos/Project2/BearPi_LiteOS/components/connectivity/lwm2m/core\objects.c **** {
 249              		.loc 1 787 0
 250              		.cfi_startproc
 251              		@ args = 0, pretend = 0, frame = 16
 252              		@ frame_needed = 0, uses_anonymous_args = 0
 253              	.LVL29:
 254 0000 F0B5     		push	{r4, r5, r6, r7, lr}
 255              	.LCFI7:
 256              		.cfi_def_cfa_offset 20
 257              		.cfi_offset 4, -20
 258              		.cfi_offset 5, -16
 259              		.cfi_offset 6, -12
 260              		.cfi_offset 7, -8
 261              		.cfi_offset 14, -4
 262 0002 87B0     		sub	sp, sp, #28
 263              	.LCFI8:
 264              		.cfi_def_cfa_offset 48
 265 0004 0546     		mov	r5, r0
 266 0006 0F46     		mov	r7, r1
 788:C:/Users/lenovo/Desktop/liteos/Project2/BearPi_LiteOS/components/connectivity/lwm2m/core\objects.c ****     lwm2m_list_t *instanceP;
 789:C:/Users/lenovo/Desktop/liteos/Project2/BearPi_LiteOS/components/connectivity/lwm2m/core\objects.c **** 
 790:C:/Users/lenovo/Desktop/liteos/Project2/BearPi_LiteOS/components/connectivity/lwm2m/core\objects.c ****     instanceP = objectP->instanceList;
 267              		.loc 1 790 0
 268 0008 8468     		ldr	r4, [r0, #8]
 269              	.LVL30:
 791:C:/Users/lenovo/Desktop/liteos/Project2/BearPi_LiteOS/components/connectivity/lwm2m/core\objects.c ****     while (NULL != instanceP)
 270              		.loc 1 791 0
 271 000a 0CE0     		b	.L21
 272              	.LVL31:
 273              	.L28:
 274              	.LBB2:
 792:C:/Users/lenovo/Desktop/liteos/Project2/BearPi_LiteOS/components/connectivity/lwm2m/core\objects.c ****     {
 793:C:/Users/lenovo/Desktop/liteos/Project2/BearPi_LiteOS/components/connectivity/lwm2m/core\objects.c ****         int64_t value;
 794:C:/Users/lenovo/Desktop/liteos/Project2/BearPi_LiteOS/components/connectivity/lwm2m/core\objects.c ****         lwm2m_data_t *dataP;
 795:C:/Users/lenovo/Desktop/liteos/Project2/BearPi_LiteOS/components/connectivity/lwm2m/core\objects.c ****         int size;
 796:C:/Users/lenovo/Desktop/liteos/Project2/BearPi_LiteOS/components/connectivity/lwm2m/core\objects.c **** 
 797:C:/Users/lenovo/Desktop/liteos/Project2/BearPi_LiteOS/components/connectivity/lwm2m/core\objects.c ****         size = 1;
 798:C:/Users/lenovo/Desktop/liteos/Project2/BearPi_LiteOS/components/connectivity/lwm2m/core\objects.c ****         dataP = lwm2m_data_new(size);
 799:C:/Users/lenovo/Desktop/liteos/Project2/BearPi_LiteOS/components/connectivity/lwm2m/core\objects.c ****         if (dataP == NULL) return NULL;
 800:C:/Users/lenovo/Desktop/liteos/Project2/BearPi_LiteOS/components/connectivity/lwm2m/core\objects.c ****         dataP->id = LWM2M_SERVER_SHORT_ID_ID;
ARM GAS  c:\Users\lenovo\AppData\Local\Temp\ccdS8TBd.s 			page 20


 801:C:/Users/lenovo/Desktop/liteos/Project2/BearPi_LiteOS/components/connectivity/lwm2m/core\objects.c **** 
 802:C:/Users/lenovo/Desktop/liteos/Project2/BearPi_LiteOS/components/connectivity/lwm2m/core\objects.c ****         if (objectP->readFunc(instanceP->id, &size, &dataP, NULL, objectP) != COAP_205_CONTENT)
 803:C:/Users/lenovo/Desktop/liteos/Project2/BearPi_LiteOS/components/connectivity/lwm2m/core\objects.c ****         {
 804:C:/Users/lenovo/Desktop/liteos/Project2/BearPi_LiteOS/components/connectivity/lwm2m/core\objects.c ****             lwm2m_data_free(size, dataP);
 275              		.loc 1 804 0
 276 000c 0299     		ldr	r1, [sp, #8]
 277 000e 0398     		ldr	r0, [sp, #12]
 278 0010 FFF7FEFF 		bl	lwm2m_data_free
 279              	.LVL32:
 280              	.L22:
 799:C:/Users/lenovo/Desktop/liteos/Project2/BearPi_LiteOS/components/connectivity/lwm2m/core\objects.c ****         dataP->id = LWM2M_SERVER_SHORT_ID_ID;
 281              		.loc 1 799 0 discriminator 2
 282 0014 0024     		movs	r4, #0
 283              	.LVL33:
 284              	.L20:
 285              	.LBE2:
 805:C:/Users/lenovo/Desktop/liteos/Project2/BearPi_LiteOS/components/connectivity/lwm2m/core\objects.c ****             return NULL;
 806:C:/Users/lenovo/Desktop/liteos/Project2/BearPi_LiteOS/components/connectivity/lwm2m/core\objects.c ****         }
 807:C:/Users/lenovo/Desktop/liteos/Project2/BearPi_LiteOS/components/connectivity/lwm2m/core\objects.c **** 
 808:C:/Users/lenovo/Desktop/liteos/Project2/BearPi_LiteOS/components/connectivity/lwm2m/core\objects.c ****         if (1 == lwm2m_data_decode_int(dataP, &value))
 809:C:/Users/lenovo/Desktop/liteos/Project2/BearPi_LiteOS/components/connectivity/lwm2m/core\objects.c ****         {
 810:C:/Users/lenovo/Desktop/liteos/Project2/BearPi_LiteOS/components/connectivity/lwm2m/core\objects.c ****             if (value == shortID)
 811:C:/Users/lenovo/Desktop/liteos/Project2/BearPi_LiteOS/components/connectivity/lwm2m/core\objects.c ****             {
 812:C:/Users/lenovo/Desktop/liteos/Project2/BearPi_LiteOS/components/connectivity/lwm2m/core\objects.c ****                 lwm2m_data_free(size, dataP);
 813:C:/Users/lenovo/Desktop/liteos/Project2/BearPi_LiteOS/components/connectivity/lwm2m/core\objects.c ****                 break;
 814:C:/Users/lenovo/Desktop/liteos/Project2/BearPi_LiteOS/components/connectivity/lwm2m/core\objects.c ****             }
 815:C:/Users/lenovo/Desktop/liteos/Project2/BearPi_LiteOS/components/connectivity/lwm2m/core\objects.c ****         }
 816:C:/Users/lenovo/Desktop/liteos/Project2/BearPi_LiteOS/components/connectivity/lwm2m/core\objects.c ****         lwm2m_data_free(size, dataP);
 817:C:/Users/lenovo/Desktop/liteos/Project2/BearPi_LiteOS/components/connectivity/lwm2m/core\objects.c ****         instanceP = instanceP->next;
 818:C:/Users/lenovo/Desktop/liteos/Project2/BearPi_LiteOS/components/connectivity/lwm2m/core\objects.c ****     }
 819:C:/Users/lenovo/Desktop/liteos/Project2/BearPi_LiteOS/components/connectivity/lwm2m/core\objects.c **** 
 820:C:/Users/lenovo/Desktop/liteos/Project2/BearPi_LiteOS/components/connectivity/lwm2m/core\objects.c ****     return instanceP;
 821:C:/Users/lenovo/Desktop/liteos/Project2/BearPi_LiteOS/components/connectivity/lwm2m/core\objects.c **** }
 286              		.loc 1 821 0
 287 0016 2046     		mov	r0, r4
 288 0018 07B0     		add	sp, sp, #28
 289              	.LCFI9:
 290              		.cfi_remember_state
 291              		.cfi_def_cfa_offset 20
 292              		@ sp needed
 293 001a F0BD     		pop	{r4, r5, r6, r7, pc}
 294              	.LVL34:
 295              	.L24:
 296              	.LCFI10:
 297              		.cfi_restore_state
 298              	.LBB3:
 816:C:/Users/lenovo/Desktop/liteos/Project2/BearPi_LiteOS/components/connectivity/lwm2m/core\objects.c ****         instanceP = instanceP->next;
 299              		.loc 1 816 0
 300 001c 0299     		ldr	r1, [sp, #8]
 301 001e 0398     		ldr	r0, [sp, #12]
 302 0020 FFF7FEFF 		bl	lwm2m_data_free
 303              	.LVL35:
 817:C:/Users/lenovo/Desktop/liteos/Project2/BearPi_LiteOS/components/connectivity/lwm2m/core\objects.c ****     }
 304              		.loc 1 817 0
 305 0024 2468     		ldr	r4, [r4]
 306              	.LVL36:
 307              	.L21:
ARM GAS  c:\Users\lenovo\AppData\Local\Temp\ccdS8TBd.s 			page 21


 308              	.LBE3:
 791:C:/Users/lenovo/Desktop/liteos/Project2/BearPi_LiteOS/components/connectivity/lwm2m/core\objects.c ****     {
 309              		.loc 1 791 0
 310 0026 002C     		cmp	r4, #0
 311 0028 F5D0     		beq	.L20
 312              	.LBB4:
 797:C:/Users/lenovo/Desktop/liteos/Project2/BearPi_LiteOS/components/connectivity/lwm2m/core\objects.c ****         dataP = lwm2m_data_new(size);
 313              		.loc 1 797 0
 314 002a 0120     		movs	r0, #1
 315 002c 0390     		str	r0, [sp, #12]
 798:C:/Users/lenovo/Desktop/liteos/Project2/BearPi_LiteOS/components/connectivity/lwm2m/core\objects.c ****         if (dataP == NULL) return NULL;
 316              		.loc 1 798 0
 317 002e FFF7FEFF 		bl	lwm2m_data_new
 318              	.LVL37:
 319 0032 0290     		str	r0, [sp, #8]
 799:C:/Users/lenovo/Desktop/liteos/Project2/BearPi_LiteOS/components/connectivity/lwm2m/core\objects.c ****         dataP->id = LWM2M_SERVER_SHORT_ID_ID;
 320              		.loc 1 799 0
 321 0034 0028     		cmp	r0, #0
 322 0036 EDD0     		beq	.L22
 800:C:/Users/lenovo/Desktop/liteos/Project2/BearPi_LiteOS/components/connectivity/lwm2m/core\objects.c **** 
 323              		.loc 1 800 0
 324 0038 0023     		movs	r3, #0
 325 003a 4380     		strh	r3, [r0, #2]	@ movhi
 802:C:/Users/lenovo/Desktop/liteos/Project2/BearPi_LiteOS/components/connectivity/lwm2m/core\objects.c ****         {
 326              		.loc 1 802 0
 327 003c EE68     		ldr	r6, [r5, #12]
 328 003e A088     		ldrh	r0, [r4, #4]
 329 0040 0095     		str	r5, [sp]
 330 0042 02AA     		add	r2, sp, #8
 331 0044 03A9     		add	r1, sp, #12
 332 0046 B047     		blx	r6
 333              	.LVL38:
 334 0048 4528     		cmp	r0, #69
 335 004a DFD1     		bne	.L28
 808:C:/Users/lenovo/Desktop/liteos/Project2/BearPi_LiteOS/components/connectivity/lwm2m/core\objects.c ****         {
 336              		.loc 1 808 0
 337 004c 04A9     		add	r1, sp, #16
 338 004e 0298     		ldr	r0, [sp, #8]
 339 0050 FFF7FEFF 		bl	lwm2m_data_decode_int
 340              	.LVL39:
 341 0054 0128     		cmp	r0, #1
 342 0056 E1D1     		bne	.L24
 810:C:/Users/lenovo/Desktop/liteos/Project2/BearPi_LiteOS/components/connectivity/lwm2m/core\objects.c ****             {
 343              		.loc 1 810 0
 344 0058 DDE90423 		ldrd	r2, [sp, #16]
 345 005c B8B2     		uxth	r0, r7
 346 005e 0021     		movs	r1, #0
 347 0060 9942     		cmp	r1, r3
 348 0062 08BF     		it	eq
 349 0064 9042     		cmpeq	r0, r2
 350 0066 D9D1     		bne	.L24
 812:C:/Users/lenovo/Desktop/liteos/Project2/BearPi_LiteOS/components/connectivity/lwm2m/core\objects.c ****                 break;
 351              		.loc 1 812 0
 352 0068 0299     		ldr	r1, [sp, #8]
 353 006a 0398     		ldr	r0, [sp, #12]
 354 006c FFF7FEFF 		bl	lwm2m_data_free
 355              	.LVL40:
ARM GAS  c:\Users\lenovo\AppData\Local\Temp\ccdS8TBd.s 			page 22


 356 0070 D1E7     		b	.L20
 357              	.LBE4:
 358              		.cfi_endproc
 359              	.LFE156:
 361              		.section	.text.prv_getMandatoryInfo,"ax",%progbits
 362              		.align	1
 363              		.syntax unified
 364              		.thumb
 365              		.thumb_func
 366              		.fpu fpv4-sp-d16
 368              	prv_getMandatoryInfo:
 369              	.LFB157:
 822:C:/Users/lenovo/Desktop/liteos/Project2/BearPi_LiteOS/components/connectivity/lwm2m/core\objects.c **** 
 823:C:/Users/lenovo/Desktop/liteos/Project2/BearPi_LiteOS/components/connectivity/lwm2m/core\objects.c **** static int prv_getMandatoryInfo(lwm2m_object_t *objectP,
 824:C:/Users/lenovo/Desktop/liteos/Project2/BearPi_LiteOS/components/connectivity/lwm2m/core\objects.c ****                                 uint16_t instanceID,
 825:C:/Users/lenovo/Desktop/liteos/Project2/BearPi_LiteOS/components/connectivity/lwm2m/core\objects.c ****                                 lwm2m_server_t *targetP)
 826:C:/Users/lenovo/Desktop/liteos/Project2/BearPi_LiteOS/components/connectivity/lwm2m/core\objects.c **** {
 370              		.loc 1 826 0
 371              		.cfi_startproc
 372              		@ args = 0, pretend = 0, frame = 16
 373              		@ frame_needed = 0, uses_anonymous_args = 0
 374              	.LVL41:
 375 0000 F0B5     		push	{r4, r5, r6, r7, lr}
 376              	.LCFI11:
 377              		.cfi_def_cfa_offset 20
 378              		.cfi_offset 4, -20
 379              		.cfi_offset 5, -16
 380              		.cfi_offset 6, -12
 381              		.cfi_offset 7, -8
 382              		.cfi_offset 14, -4
 383 0002 87B0     		sub	sp, sp, #28
 384              	.LCFI12:
 385              		.cfi_def_cfa_offset 48
 386 0004 0546     		mov	r5, r0
 387 0006 0E46     		mov	r6, r1
 388 0008 1446     		mov	r4, r2
 827:C:/Users/lenovo/Desktop/liteos/Project2/BearPi_LiteOS/components/connectivity/lwm2m/core\objects.c ****     lwm2m_data_t *dataP;
 828:C:/Users/lenovo/Desktop/liteos/Project2/BearPi_LiteOS/components/connectivity/lwm2m/core\objects.c ****     int size;
 829:C:/Users/lenovo/Desktop/liteos/Project2/BearPi_LiteOS/components/connectivity/lwm2m/core\objects.c ****     int64_t value;
 830:C:/Users/lenovo/Desktop/liteos/Project2/BearPi_LiteOS/components/connectivity/lwm2m/core\objects.c **** 
 831:C:/Users/lenovo/Desktop/liteos/Project2/BearPi_LiteOS/components/connectivity/lwm2m/core\objects.c ****     size = 2;
 389              		.loc 1 831 0
 390 000a 0220     		movs	r0, #2
 391              	.LVL42:
 392 000c 0490     		str	r0, [sp, #16]
 832:C:/Users/lenovo/Desktop/liteos/Project2/BearPi_LiteOS/components/connectivity/lwm2m/core\objects.c ****     dataP = lwm2m_data_new(size);
 393              		.loc 1 832 0
 394 000e FFF7FEFF 		bl	lwm2m_data_new
 395              	.LVL43:
 396 0012 0590     		str	r0, [sp, #20]
 833:C:/Users/lenovo/Desktop/liteos/Project2/BearPi_LiteOS/components/connectivity/lwm2m/core\objects.c ****     if (dataP == NULL) return -1;
 397              		.loc 1 833 0
 398 0014 0028     		cmp	r0, #0
 399 0016 3FD0     		beq	.L34
 834:C:/Users/lenovo/Desktop/liteos/Project2/BearPi_LiteOS/components/connectivity/lwm2m/core\objects.c ****     dataP[0].id = LWM2M_SERVER_LIFETIME_ID;
 400              		.loc 1 834 0
 401 0018 0123     		movs	r3, #1
ARM GAS  c:\Users\lenovo\AppData\Local\Temp\ccdS8TBd.s 			page 23


 402 001a 4380     		strh	r3, [r0, #2]	@ movhi
 835:C:/Users/lenovo/Desktop/liteos/Project2/BearPi_LiteOS/components/connectivity/lwm2m/core\objects.c ****     dataP[1].id = LWM2M_SERVER_BINDING_ID;
 403              		.loc 1 835 0
 404 001c 06AA     		add	r2, sp, #24
 405 001e 52F8043D 		ldr	r3, [r2, #-4]!
 406 0022 0721     		movs	r1, #7
 407 0024 5982     		strh	r1, [r3, #18]	@ movhi
 836:C:/Users/lenovo/Desktop/liteos/Project2/BearPi_LiteOS/components/connectivity/lwm2m/core\objects.c **** 
 837:C:/Users/lenovo/Desktop/liteos/Project2/BearPi_LiteOS/components/connectivity/lwm2m/core\objects.c ****     if (objectP->readFunc(instanceID, &size, &dataP, NULL, objectP) != COAP_205_CONTENT)
 408              		.loc 1 837 0
 409 0026 EF68     		ldr	r7, [r5, #12]
 410 0028 0095     		str	r5, [sp]
 411 002a 0023     		movs	r3, #0
 412 002c 04A9     		add	r1, sp, #16
 413 002e 3046     		mov	r0, r6
 414 0030 B847     		blx	r7
 415              	.LVL44:
 416 0032 4528     		cmp	r0, #69
 417 0034 1FD1     		bne	.L37
 838:C:/Users/lenovo/Desktop/liteos/Project2/BearPi_LiteOS/components/connectivity/lwm2m/core\objects.c ****     {
 839:C:/Users/lenovo/Desktop/liteos/Project2/BearPi_LiteOS/components/connectivity/lwm2m/core\objects.c ****         lwm2m_data_free(size, dataP);
 840:C:/Users/lenovo/Desktop/liteos/Project2/BearPi_LiteOS/components/connectivity/lwm2m/core\objects.c ****         return -1;
 841:C:/Users/lenovo/Desktop/liteos/Project2/BearPi_LiteOS/components/connectivity/lwm2m/core\objects.c ****     }
 842:C:/Users/lenovo/Desktop/liteos/Project2/BearPi_LiteOS/components/connectivity/lwm2m/core\objects.c **** 
 843:C:/Users/lenovo/Desktop/liteos/Project2/BearPi_LiteOS/components/connectivity/lwm2m/core\objects.c ****     if (0 == lwm2m_data_decode_int(dataP, &value)
 418              		.loc 1 843 0
 419 0036 02A9     		add	r1, sp, #8
 420 0038 0598     		ldr	r0, [sp, #20]
 421 003a FFF7FEFF 		bl	lwm2m_data_decode_int
 422              	.LVL45:
 423 003e 08B3     		cbz	r0, .L32
 844:C:/Users/lenovo/Desktop/liteos/Project2/BearPi_LiteOS/components/connectivity/lwm2m/core\objects.c ****             || value < 0 || value > 0xFFFFFFFF)            // This is an implementation limit
 424              		.loc 1 844 0
 425 0040 DDE90223 		ldrd	r2, [sp, #8]
 426 0044 002A     		cmp	r2, #0
 427 0046 73F10001 		sbcs	r1, r3, #0
 428 004a 1BDB     		blt	.L32
 429              		.loc 1 844 0 is_stmt 0 discriminator 1
 430 004c 002A     		cmp	r2, #0
 431 004e 73F10101 		sbcs	r1, r3, #1
 432 0052 17DA     		bge	.L32
 845:C:/Users/lenovo/Desktop/liteos/Project2/BearPi_LiteOS/components/connectivity/lwm2m/core\objects.c ****     {
 846:C:/Users/lenovo/Desktop/liteos/Project2/BearPi_LiteOS/components/connectivity/lwm2m/core\objects.c ****         lwm2m_data_free(size, dataP);
 847:C:/Users/lenovo/Desktop/liteos/Project2/BearPi_LiteOS/components/connectivity/lwm2m/core\objects.c ****         return -1;
 848:C:/Users/lenovo/Desktop/liteos/Project2/BearPi_LiteOS/components/connectivity/lwm2m/core\objects.c ****     }
 849:C:/Users/lenovo/Desktop/liteos/Project2/BearPi_LiteOS/components/connectivity/lwm2m/core\objects.c ****     targetP->lifetime = value;
 433              		.loc 1 849 0 is_stmt 1
 434 0054 C4E90223 		strd	r2, [r4, #8]
 850:C:/Users/lenovo/Desktop/liteos/Project2/BearPi_LiteOS/components/connectivity/lwm2m/core\objects.c **** 
 851:C:/Users/lenovo/Desktop/liteos/Project2/BearPi_LiteOS/components/connectivity/lwm2m/core\objects.c ****     targetP->binding = utils_stringToBinding(dataP[1].value.asBuffer.buffer, dataP[1].value.asBuffe
 435              		.loc 1 851 0
 436 0058 059B     		ldr	r3, [sp, #20]
 437 005a 9969     		ldr	r1, [r3, #24]
 438 005c D869     		ldr	r0, [r3, #28]
 439 005e FFF7FEFF 		bl	utils_stringToBinding
 440              	.LVL46:
 441 0062 2076     		strb	r0, [r4, #24]
ARM GAS  c:\Users\lenovo\AppData\Local\Temp\ccdS8TBd.s 			page 24


 852:C:/Users/lenovo/Desktop/liteos/Project2/BearPi_LiteOS/components/connectivity/lwm2m/core\objects.c **** 
 853:C:/Users/lenovo/Desktop/liteos/Project2/BearPi_LiteOS/components/connectivity/lwm2m/core\objects.c ****     lwm2m_data_free(size, dataP);
 442              		.loc 1 853 0
 443 0064 0599     		ldr	r1, [sp, #20]
 444 0066 0498     		ldr	r0, [sp, #16]
 445 0068 FFF7FEFF 		bl	lwm2m_data_free
 446              	.LVL47:
 854:C:/Users/lenovo/Desktop/liteos/Project2/BearPi_LiteOS/components/connectivity/lwm2m/core\objects.c **** 
 855:C:/Users/lenovo/Desktop/liteos/Project2/BearPi_LiteOS/components/connectivity/lwm2m/core\objects.c ****     if (targetP->binding == BINDING_UNKNOWN)
 447              		.loc 1 855 0
 448 006c 237E     		ldrb	r3, [r4, #24]	@ zero_extendqisi2
 449 006e 83B1     		cbz	r3, .L38
 856:C:/Users/lenovo/Desktop/liteos/Project2/BearPi_LiteOS/components/connectivity/lwm2m/core\objects.c ****     {
 857:C:/Users/lenovo/Desktop/liteos/Project2/BearPi_LiteOS/components/connectivity/lwm2m/core\objects.c ****         return -1;
 858:C:/Users/lenovo/Desktop/liteos/Project2/BearPi_LiteOS/components/connectivity/lwm2m/core\objects.c ****     }
 859:C:/Users/lenovo/Desktop/liteos/Project2/BearPi_LiteOS/components/connectivity/lwm2m/core\objects.c **** 
 860:C:/Users/lenovo/Desktop/liteos/Project2/BearPi_LiteOS/components/connectivity/lwm2m/core\objects.c ****     return 0;
 450              		.loc 1 860 0
 451 0070 0020     		movs	r0, #0
 452              	.L29:
 861:C:/Users/lenovo/Desktop/liteos/Project2/BearPi_LiteOS/components/connectivity/lwm2m/core\objects.c **** }
 453              		.loc 1 861 0
 454 0072 07B0     		add	sp, sp, #28
 455              	.LCFI13:
 456              		.cfi_remember_state
 457              		.cfi_def_cfa_offset 20
 458              		@ sp needed
 459 0074 F0BD     		pop	{r4, r5, r6, r7, pc}
 460              	.LVL48:
 461              	.L37:
 462              	.LCFI14:
 463              		.cfi_restore_state
 839:C:/Users/lenovo/Desktop/liteos/Project2/BearPi_LiteOS/components/connectivity/lwm2m/core\objects.c ****         return -1;
 464              		.loc 1 839 0
 465 0076 0599     		ldr	r1, [sp, #20]
 466 0078 0498     		ldr	r0, [sp, #16]
 467 007a FFF7FEFF 		bl	lwm2m_data_free
 468              	.LVL49:
 840:C:/Users/lenovo/Desktop/liteos/Project2/BearPi_LiteOS/components/connectivity/lwm2m/core\objects.c ****     }
 469              		.loc 1 840 0
 470 007e 4FF0FF30 		mov	r0, #-1
 471 0082 F6E7     		b	.L29
 472              	.L32:
 846:C:/Users/lenovo/Desktop/liteos/Project2/BearPi_LiteOS/components/connectivity/lwm2m/core\objects.c ****         return -1;
 473              		.loc 1 846 0
 474 0084 0599     		ldr	r1, [sp, #20]
 475 0086 0498     		ldr	r0, [sp, #16]
 476 0088 FFF7FEFF 		bl	lwm2m_data_free
 477              	.LVL50:
 847:C:/Users/lenovo/Desktop/liteos/Project2/BearPi_LiteOS/components/connectivity/lwm2m/core\objects.c ****     }
 478              		.loc 1 847 0
 479 008c 4FF0FF30 		mov	r0, #-1
 480 0090 EFE7     		b	.L29
 481              	.L38:
 857:C:/Users/lenovo/Desktop/liteos/Project2/BearPi_LiteOS/components/connectivity/lwm2m/core\objects.c ****     }
 482              		.loc 1 857 0
 483 0092 4FF0FF30 		mov	r0, #-1
ARM GAS  c:\Users\lenovo\AppData\Local\Temp\ccdS8TBd.s 			page 25


 484 0096 ECE7     		b	.L29
 485              	.L34:
 833:C:/Users/lenovo/Desktop/liteos/Project2/BearPi_LiteOS/components/connectivity/lwm2m/core\objects.c ****     dataP[0].id = LWM2M_SERVER_LIFETIME_ID;
 486              		.loc 1 833 0
 487 0098 4FF0FF30 		mov	r0, #-1
 488 009c E9E7     		b	.L29
 489              		.cfi_endproc
 490              	.LFE157:
 492              		.section	.text.object_checkReadable,"ax",%progbits
 493              		.align	1
 494              		.global	object_checkReadable
 495              		.syntax unified
 496              		.thumb
 497              		.thumb_func
 498              		.fpu fpv4-sp-d16
 500              	object_checkReadable:
 501              	.LFB142:
  99:C:/Users/lenovo/Desktop/liteos/Project2/BearPi_LiteOS/components/connectivity/lwm2m/core\objects.c ****     uint8_t result;
 502              		.loc 1 99 0
 503              		.cfi_startproc
 504              		@ args = 0, pretend = 0, frame = 8
 505              		@ frame_needed = 0, uses_anonymous_args = 0
 506              	.LVL51:
 507 0000 70B5     		push	{r4, r5, r6, lr}
 508              	.LCFI15:
 509              		.cfi_def_cfa_offset 16
 510              		.cfi_offset 4, -16
 511              		.cfi_offset 5, -12
 512              		.cfi_offset 6, -8
 513              		.cfi_offset 14, -4
 514 0002 84B0     		sub	sp, sp, #16
 515              	.LCFI16:
 516              		.cfi_def_cfa_offset 32
 517 0004 0546     		mov	r5, r0
 102:C:/Users/lenovo/Desktop/liteos/Project2/BearPi_LiteOS/components/connectivity/lwm2m/core\objects.c ****     int size;
 518              		.loc 1 102 0
 519 0006 0023     		movs	r3, #0
 520 0008 0393     		str	r3, [sp, #12]
 105:C:/Users/lenovo/Desktop/liteos/Project2/BearPi_LiteOS/components/connectivity/lwm2m/core\objects.c ****     targetP = (lwm2m_object_t *)LWM2M_LIST_FIND(contextP->objectList, uriP->objectId);
 521              		.loc 1 105 0
 522 000a 0C46     		mov	r4, r1
 523 000c 0029     		cmp	r1, #0
 524 000e 3DD0     		beq	.L52
 105:C:/Users/lenovo/Desktop/liteos/Project2/BearPi_LiteOS/components/connectivity/lwm2m/core\objects.c ****     targetP = (lwm2m_object_t *)LWM2M_LIST_FIND(contextP->objectList, uriP->objectId);
 525              		.loc 1 105 0 is_stmt 0 discriminator 2
 526 0010 4B88     		ldrh	r3, [r1, #2]
 527 0012 6922     		movs	r2, #105
 528 0014 2C49     		ldr	r1, .L55
 529              	.LVL52:
 530 0016 2D48     		ldr	r0, .L55+4
 531              	.LVL53:
 532 0018 FFF7FEFF 		bl	atiny_printf
 533              	.LVL54:
 534 001c 2378     		ldrb	r3, [r4]	@ zero_extendqisi2
 535 001e 13F0020F 		tst	r3, #2
 536 0022 39D1     		bne	.L53
 537              	.L42:
ARM GAS  c:\Users\lenovo\AppData\Local\Temp\ccdS8TBd.s 			page 26


 105:C:/Users/lenovo/Desktop/liteos/Project2/BearPi_LiteOS/components/connectivity/lwm2m/core\objects.c ****     targetP = (lwm2m_object_t *)LWM2M_LIST_FIND(contextP->objectList, uriP->objectId);
 538              		.loc 1 105 0 discriminator 5
 539 0024 2378     		ldrb	r3, [r4]	@ zero_extendqisi2
 540 0026 13F0010F 		tst	r3, #1
 541 002a 3AD1     		bne	.L54
 542              	.L43:
 105:C:/Users/lenovo/Desktop/liteos/Project2/BearPi_LiteOS/components/connectivity/lwm2m/core\objects.c ****     targetP = (lwm2m_object_t *)LWM2M_LIST_FIND(contextP->objectList, uriP->objectId);
 543              		.loc 1 105 0 discriminator 8
 544 002c 2848     		ldr	r0, .L55+8
 545 002e FFF7FEFF 		bl	atiny_printf
 546              	.LVL55:
 547              	.L41:
 106:C:/Users/lenovo/Desktop/liteos/Project2/BearPi_LiteOS/components/connectivity/lwm2m/core\objects.c ****     if (NULL == targetP) return COAP_404_NOT_FOUND;
 548              		.loc 1 106 0 is_stmt 1
 549 0032 6188     		ldrh	r1, [r4, #2]
 550 0034 A869     		ldr	r0, [r5, #24]
 551 0036 FFF7FEFF 		bl	lwm2m_list_find
 552              	.LVL56:
 107:C:/Users/lenovo/Desktop/liteos/Project2/BearPi_LiteOS/components/connectivity/lwm2m/core\objects.c ****     if (NULL == targetP->readFunc) return COAP_405_METHOD_NOT_ALLOWED;
 553              		.loc 1 107 0
 554 003a 0546     		mov	r5, r0
 555              	.LVL57:
 556 003c 0028     		cmp	r0, #0
 557 003e 35D0     		beq	.L45
 108:C:/Users/lenovo/Desktop/liteos/Project2/BearPi_LiteOS/components/connectivity/lwm2m/core\objects.c **** 
 558              		.loc 1 108 0
 559 0040 C368     		ldr	r3, [r0, #12]
 560 0042 002B     		cmp	r3, #0
 561 0044 34D0     		beq	.L46
 110:C:/Users/lenovo/Desktop/liteos/Project2/BearPi_LiteOS/components/connectivity/lwm2m/core\objects.c **** 
 562              		.loc 1 110 0
 563 0046 2378     		ldrb	r3, [r4]	@ zero_extendqisi2
 564 0048 13F0020F 		tst	r3, #2
 565 004c 32D0     		beq	.L47
 112:C:/Users/lenovo/Desktop/liteos/Project2/BearPi_LiteOS/components/connectivity/lwm2m/core\objects.c **** 
 566              		.loc 1 112 0
 567 004e A188     		ldrh	r1, [r4, #4]
 568 0050 8068     		ldr	r0, [r0, #8]
 569              	.LVL58:
 570 0052 FFF7FEFF 		bl	lwm2m_list_find
 571              	.LVL59:
 572 0056 0028     		cmp	r0, #0
 573 0058 30D0     		beq	.L48
 114:C:/Users/lenovo/Desktop/liteos/Project2/BearPi_LiteOS/components/connectivity/lwm2m/core\objects.c **** 
 574              		.loc 1 114 0
 575 005a 2378     		ldrb	r3, [r4]	@ zero_extendqisi2
 576 005c 13F0010F 		tst	r3, #1
 577 0060 2ED0     		beq	.L49
 116:C:/Users/lenovo/Desktop/liteos/Project2/BearPi_LiteOS/components/connectivity/lwm2m/core\objects.c ****     dataP = lwm2m_data_new(1);
 578              		.loc 1 116 0
 579 0062 0120     		movs	r0, #1
 580 0064 0290     		str	r0, [sp, #8]
 117:C:/Users/lenovo/Desktop/liteos/Project2/BearPi_LiteOS/components/connectivity/lwm2m/core\objects.c ****     if (dataP == NULL) return COAP_500_INTERNAL_SERVER_ERROR;
 581              		.loc 1 117 0
 582 0066 FFF7FEFF 		bl	lwm2m_data_new
 583              	.LVL60:
 584 006a 0390     		str	r0, [sp, #12]
ARM GAS  c:\Users\lenovo\AppData\Local\Temp\ccdS8TBd.s 			page 27


 118:C:/Users/lenovo/Desktop/liteos/Project2/BearPi_LiteOS/components/connectivity/lwm2m/core\objects.c **** 
 585              		.loc 1 118 0
 586 006c 50B3     		cbz	r0, .L50
 120:C:/Users/lenovo/Desktop/liteos/Project2/BearPi_LiteOS/components/connectivity/lwm2m/core\objects.c **** 
 587              		.loc 1 120 0
 588 006e E388     		ldrh	r3, [r4, #6]
 589 0070 4380     		strh	r3, [r0, #2]	@ movhi
 122:C:/Users/lenovo/Desktop/liteos/Project2/BearPi_LiteOS/components/connectivity/lwm2m/core\objects.c ****     lwm2m_data_free(1, dataP);
 590              		.loc 1 122 0
 591 0072 EE68     		ldr	r6, [r5, #12]
 592 0074 A088     		ldrh	r0, [r4, #4]
 593 0076 0095     		str	r5, [sp]
 594 0078 0023     		movs	r3, #0
 595 007a 03AA     		add	r2, sp, #12
 596 007c 02A9     		add	r1, sp, #8
 597 007e B047     		blx	r6
 598              	.LVL61:
 599 0080 0446     		mov	r4, r0
 600              	.LVL62:
 123:C:/Users/lenovo/Desktop/liteos/Project2/BearPi_LiteOS/components/connectivity/lwm2m/core\objects.c **** 
 601              		.loc 1 123 0
 602 0082 0399     		ldr	r1, [sp, #12]
 603 0084 0120     		movs	r0, #1
 604 0086 FFF7FEFF 		bl	lwm2m_data_free
 605              	.LVL63:
 125:C:/Users/lenovo/Desktop/liteos/Project2/BearPi_LiteOS/components/connectivity/lwm2m/core\objects.c **** }
 606              		.loc 1 125 0
 607 008a 14E0     		b	.L44
 608              	.LVL64:
 609              	.L52:
 105:C:/Users/lenovo/Desktop/liteos/Project2/BearPi_LiteOS/components/connectivity/lwm2m/core\objects.c ****     targetP = (lwm2m_object_t *)LWM2M_LIST_FIND(contextP->objectList, uriP->objectId);
 610              		.loc 1 105 0 discriminator 1
 611 008c 6922     		movs	r2, #105
 612 008e 0E49     		ldr	r1, .L55
 613              	.LVL65:
 614 0090 1048     		ldr	r0, .L55+12
 615              	.LVL66:
 616 0092 FFF7FEFF 		bl	atiny_printf
 617              	.LVL67:
 618 0096 CCE7     		b	.L41
 619              	.L53:
 105:C:/Users/lenovo/Desktop/liteos/Project2/BearPi_LiteOS/components/connectivity/lwm2m/core\objects.c ****     targetP = (lwm2m_object_t *)LWM2M_LIST_FIND(contextP->objectList, uriP->objectId);
 620              		.loc 1 105 0 is_stmt 0 discriminator 3
 621 0098 A188     		ldrh	r1, [r4, #4]
 622 009a 0F48     		ldr	r0, .L55+16
 623 009c FFF7FEFF 		bl	atiny_printf
 624              	.LVL68:
 625 00a0 C0E7     		b	.L42
 626              	.L54:
 105:C:/Users/lenovo/Desktop/liteos/Project2/BearPi_LiteOS/components/connectivity/lwm2m/core\objects.c ****     targetP = (lwm2m_object_t *)LWM2M_LIST_FIND(contextP->objectList, uriP->objectId);
 627              		.loc 1 105 0 discriminator 6
 628 00a2 E188     		ldrh	r1, [r4, #6]
 629 00a4 0C48     		ldr	r0, .L55+16
 630 00a6 FFF7FEFF 		bl	atiny_printf
 631              	.LVL69:
 632 00aa BFE7     		b	.L43
 633              	.LVL70:
ARM GAS  c:\Users\lenovo\AppData\Local\Temp\ccdS8TBd.s 			page 28


 634              	.L45:
 107:C:/Users/lenovo/Desktop/liteos/Project2/BearPi_LiteOS/components/connectivity/lwm2m/core\objects.c ****     if (NULL == targetP->readFunc) return COAP_405_METHOD_NOT_ALLOWED;
 635              		.loc 1 107 0 is_stmt 1
 636 00ac 8424     		movs	r4, #132
 637              	.LVL71:
 638 00ae 02E0     		b	.L44
 639              	.LVL72:
 640              	.L46:
 108:C:/Users/lenovo/Desktop/liteos/Project2/BearPi_LiteOS/components/connectivity/lwm2m/core\objects.c **** 
 641              		.loc 1 108 0
 642 00b0 8524     		movs	r4, #133
 643              	.LVL73:
 644 00b2 00E0     		b	.L44
 645              	.LVL74:
 646              	.L47:
 110:C:/Users/lenovo/Desktop/liteos/Project2/BearPi_LiteOS/components/connectivity/lwm2m/core\objects.c **** 
 647              		.loc 1 110 0
 648 00b4 4524     		movs	r4, #69
 649              	.LVL75:
 650              	.L44:
 126:C:/Users/lenovo/Desktop/liteos/Project2/BearPi_LiteOS/components/connectivity/lwm2m/core\objects.c **** 
 651              		.loc 1 126 0
 652 00b6 2046     		mov	r0, r4
 653 00b8 04B0     		add	sp, sp, #16
 654              	.LCFI17:
 655              		.cfi_remember_state
 656              		.cfi_def_cfa_offset 16
 657              		@ sp needed
 658 00ba 70BD     		pop	{r4, r5, r6, pc}
 659              	.LVL76:
 660              	.L48:
 661              	.LCFI18:
 662              		.cfi_restore_state
 112:C:/Users/lenovo/Desktop/liteos/Project2/BearPi_LiteOS/components/connectivity/lwm2m/core\objects.c **** 
 663              		.loc 1 112 0
 664 00bc 8424     		movs	r4, #132
 665              	.LVL77:
 666 00be FAE7     		b	.L44
 667              	.LVL78:
 668              	.L49:
 114:C:/Users/lenovo/Desktop/liteos/Project2/BearPi_LiteOS/components/connectivity/lwm2m/core\objects.c **** 
 669              		.loc 1 114 0
 670 00c0 4524     		movs	r4, #69
 671              	.LVL79:
 672 00c2 F8E7     		b	.L44
 673              	.LVL80:
 674              	.L50:
 118:C:/Users/lenovo/Desktop/liteos/Project2/BearPi_LiteOS/components/connectivity/lwm2m/core\objects.c **** 
 675              		.loc 1 118 0
 676 00c4 A024     		movs	r4, #160
 677              	.LVL81:
 678 00c6 F6E7     		b	.L44
 679              	.L56:
 680              		.align	2
 681              	.L55:
 682 00c8 00000000 		.word	.LANCHOR0
 683 00cc 10000000 		.word	.LC1
ARM GAS  c:\Users\lenovo\AppData\Local\Temp\ccdS8TBd.s 			page 29


 684 00d0 20000000 		.word	.LC3
 685 00d4 00000000 		.word	.LC0
 686 00d8 1C000000 		.word	.LC2
 687              		.cfi_endproc
 688              	.LFE142:
 690              		.section	.text.object_checkNumeric,"ax",%progbits
 691              		.align	1
 692              		.global	object_checkNumeric
 693              		.syntax unified
 694              		.thumb
 695              		.thumb_func
 696              		.fpu fpv4-sp-d16
 698              	object_checkNumeric:
 699              	.LFB143:
 130:C:/Users/lenovo/Desktop/liteos/Project2/BearPi_LiteOS/components/connectivity/lwm2m/core\objects.c ****     uint8_t result;
 700              		.loc 1 130 0
 701              		.cfi_startproc
 702              		@ args = 0, pretend = 0, frame = 8
 703              		@ frame_needed = 0, uses_anonymous_args = 0
 704              	.LVL82:
 705 0000 70B5     		push	{r4, r5, r6, lr}
 706              	.LCFI19:
 707              		.cfi_def_cfa_offset 16
 708              		.cfi_offset 4, -16
 709              		.cfi_offset 5, -12
 710              		.cfi_offset 6, -8
 711              		.cfi_offset 14, -4
 712 0002 84B0     		sub	sp, sp, #16
 713              	.LCFI20:
 714              		.cfi_def_cfa_offset 32
 715 0004 0546     		mov	r5, r0
 133:C:/Users/lenovo/Desktop/liteos/Project2/BearPi_LiteOS/components/connectivity/lwm2m/core\objects.c ****     int size;
 716              		.loc 1 133 0
 717 0006 0023     		movs	r3, #0
 718 0008 0393     		str	r3, [sp, #12]
 136:C:/Users/lenovo/Desktop/liteos/Project2/BearPi_LiteOS/components/connectivity/lwm2m/core\objects.c ****     if (!LWM2M_URI_IS_SET_RESOURCE(uriP)) return COAP_405_METHOD_NOT_ALLOWED;
 719              		.loc 1 136 0
 720 000a 0C46     		mov	r4, r1
 721 000c 0029     		cmp	r1, #0
 722 000e 36D0     		beq	.L71
 136:C:/Users/lenovo/Desktop/liteos/Project2/BearPi_LiteOS/components/connectivity/lwm2m/core\objects.c ****     if (!LWM2M_URI_IS_SET_RESOURCE(uriP)) return COAP_405_METHOD_NOT_ALLOWED;
 723              		.loc 1 136 0 is_stmt 0 discriminator 2
 724 0010 4B88     		ldrh	r3, [r1, #2]
 725 0012 8822     		movs	r2, #136
 726 0014 2A49     		ldr	r1, .L75
 727              	.LVL83:
 728 0016 2B48     		ldr	r0, .L75+4
 729              	.LVL84:
 730 0018 FFF7FEFF 		bl	atiny_printf
 731              	.LVL85:
 732 001c 2378     		ldrb	r3, [r4]	@ zero_extendqisi2
 733 001e 13F0020F 		tst	r3, #2
 734 0022 32D1     		bne	.L72
 735              	.L60:
 136:C:/Users/lenovo/Desktop/liteos/Project2/BearPi_LiteOS/components/connectivity/lwm2m/core\objects.c ****     if (!LWM2M_URI_IS_SET_RESOURCE(uriP)) return COAP_405_METHOD_NOT_ALLOWED;
 736              		.loc 1 136 0 discriminator 5
 737 0024 2378     		ldrb	r3, [r4]	@ zero_extendqisi2
ARM GAS  c:\Users\lenovo\AppData\Local\Temp\ccdS8TBd.s 			page 30


 738 0026 13F0010F 		tst	r3, #1
 739 002a 33D1     		bne	.L73
 740              	.L61:
 136:C:/Users/lenovo/Desktop/liteos/Project2/BearPi_LiteOS/components/connectivity/lwm2m/core\objects.c ****     if (!LWM2M_URI_IS_SET_RESOURCE(uriP)) return COAP_405_METHOD_NOT_ALLOWED;
 741              		.loc 1 136 0 discriminator 8
 742 002c 2648     		ldr	r0, .L75+8
 743 002e FFF7FEFF 		bl	atiny_printf
 744              	.LVL86:
 745              	.L59:
 137:C:/Users/lenovo/Desktop/liteos/Project2/BearPi_LiteOS/components/connectivity/lwm2m/core\objects.c **** 
 746              		.loc 1 137 0 is_stmt 1
 747 0032 2378     		ldrb	r3, [r4]	@ zero_extendqisi2
 748 0034 13F0010F 		tst	r3, #1
 749 0038 38D0     		beq	.L65
 139:C:/Users/lenovo/Desktop/liteos/Project2/BearPi_LiteOS/components/connectivity/lwm2m/core\objects.c ****     if (NULL == targetP) return COAP_404_NOT_FOUND;
 750              		.loc 1 139 0
 751 003a 6188     		ldrh	r1, [r4, #2]
 752 003c A869     		ldr	r0, [r5, #24]
 753 003e FFF7FEFF 		bl	lwm2m_list_find
 754              	.LVL87:
 140:C:/Users/lenovo/Desktop/liteos/Project2/BearPi_LiteOS/components/connectivity/lwm2m/core\objects.c ****     if (NULL == targetP->readFunc) return COAP_405_METHOD_NOT_ALLOWED;
 755              		.loc 1 140 0
 756 0042 0546     		mov	r5, r0
 757              	.LVL88:
 758 0044 0028     		cmp	r0, #0
 759 0046 35D0     		beq	.L66
 141:C:/Users/lenovo/Desktop/liteos/Project2/BearPi_LiteOS/components/connectivity/lwm2m/core\objects.c **** 
 760              		.loc 1 141 0
 761 0048 C368     		ldr	r3, [r0, #12]
 762 004a 002B     		cmp	r3, #0
 763 004c 34D0     		beq	.L67
 143:C:/Users/lenovo/Desktop/liteos/Project2/BearPi_LiteOS/components/connectivity/lwm2m/core\objects.c ****     dataP = lwm2m_data_new(1);
 764              		.loc 1 143 0
 765 004e 0120     		movs	r0, #1
 766              	.LVL89:
 767 0050 0290     		str	r0, [sp, #8]
 144:C:/Users/lenovo/Desktop/liteos/Project2/BearPi_LiteOS/components/connectivity/lwm2m/core\objects.c ****     if (dataP == NULL) return COAP_500_INTERNAL_SERVER_ERROR;
 768              		.loc 1 144 0
 769 0052 FFF7FEFF 		bl	lwm2m_data_new
 770              	.LVL90:
 771 0056 0390     		str	r0, [sp, #12]
 145:C:/Users/lenovo/Desktop/liteos/Project2/BearPi_LiteOS/components/connectivity/lwm2m/core\objects.c **** 
 772              		.loc 1 145 0
 773 0058 0028     		cmp	r0, #0
 774 005a 2FD0     		beq	.L68
 147:C:/Users/lenovo/Desktop/liteos/Project2/BearPi_LiteOS/components/connectivity/lwm2m/core\objects.c **** 
 775              		.loc 1 147 0
 776 005c E388     		ldrh	r3, [r4, #6]
 777 005e 4380     		strh	r3, [r0, #2]	@ movhi
 149:C:/Users/lenovo/Desktop/liteos/Project2/BearPi_LiteOS/components/connectivity/lwm2m/core\objects.c ****     if (result == COAP_205_CONTENT)
 778              		.loc 1 149 0
 779 0060 EE68     		ldr	r6, [r5, #12]
 780 0062 A088     		ldrh	r0, [r4, #4]
 781 0064 0095     		str	r5, [sp]
 782 0066 0023     		movs	r3, #0
 783 0068 03AA     		add	r2, sp, #12
 784 006a 02A9     		add	r1, sp, #8
ARM GAS  c:\Users\lenovo\AppData\Local\Temp\ccdS8TBd.s 			page 31


 785 006c B047     		blx	r6
 786              	.LVL91:
 787 006e 0446     		mov	r4, r0
 788              	.LVL92:
 150:C:/Users/lenovo/Desktop/liteos/Project2/BearPi_LiteOS/components/connectivity/lwm2m/core\objects.c ****     {
 789              		.loc 1 150 0
 790 0070 4528     		cmp	r0, #69
 791 0072 14D0     		beq	.L74
 792              	.L63:
 793              	.LVL93:
 162:C:/Users/lenovo/Desktop/liteos/Project2/BearPi_LiteOS/components/connectivity/lwm2m/core\objects.c **** 
 794              		.loc 1 162 0
 795 0074 0399     		ldr	r1, [sp, #12]
 796 0076 0120     		movs	r0, #1
 797 0078 FFF7FEFF 		bl	lwm2m_data_free
 798              	.LVL94:
 164:C:/Users/lenovo/Desktop/liteos/Project2/BearPi_LiteOS/components/connectivity/lwm2m/core\objects.c **** }
 799              		.loc 1 164 0
 800 007c 17E0     		b	.L62
 801              	.LVL95:
 802              	.L71:
 136:C:/Users/lenovo/Desktop/liteos/Project2/BearPi_LiteOS/components/connectivity/lwm2m/core\objects.c ****     if (!LWM2M_URI_IS_SET_RESOURCE(uriP)) return COAP_405_METHOD_NOT_ALLOWED;
 803              		.loc 1 136 0 discriminator 1
 804 007e 8822     		movs	r2, #136
 805 0080 0F49     		ldr	r1, .L75
 806              	.LVL96:
 807 0082 1248     		ldr	r0, .L75+12
 808              	.LVL97:
 809 0084 FFF7FEFF 		bl	atiny_printf
 810              	.LVL98:
 811 0088 D3E7     		b	.L59
 812              	.L72:
 136:C:/Users/lenovo/Desktop/liteos/Project2/BearPi_LiteOS/components/connectivity/lwm2m/core\objects.c ****     if (!LWM2M_URI_IS_SET_RESOURCE(uriP)) return COAP_405_METHOD_NOT_ALLOWED;
 813              		.loc 1 136 0 is_stmt 0 discriminator 3
 814 008a A188     		ldrh	r1, [r4, #4]
 815 008c 1048     		ldr	r0, .L75+16
 816 008e FFF7FEFF 		bl	atiny_printf
 817              	.LVL99:
 818 0092 C7E7     		b	.L60
 819              	.L73:
 136:C:/Users/lenovo/Desktop/liteos/Project2/BearPi_LiteOS/components/connectivity/lwm2m/core\objects.c ****     if (!LWM2M_URI_IS_SET_RESOURCE(uriP)) return COAP_405_METHOD_NOT_ALLOWED;
 820              		.loc 1 136 0 discriminator 6
 821 0094 E188     		ldrh	r1, [r4, #6]
 822 0096 0E48     		ldr	r0, .L75+16
 823 0098 FFF7FEFF 		bl	atiny_printf
 824              	.LVL100:
 825 009c C6E7     		b	.L61
 826              	.LVL101:
 827              	.L74:
 152:C:/Users/lenovo/Desktop/liteos/Project2/BearPi_LiteOS/components/connectivity/lwm2m/core\objects.c ****         {
 828              		.loc 1 152 0 is_stmt 1
 829 009e 039B     		ldr	r3, [sp, #12]
 830 00a0 1B78     		ldrb	r3, [r3]	@ zero_extendqisi2
 831 00a2 063B     		subs	r3, r3, #6
 832 00a4 012B     		cmp	r3, #1
 833 00a6 E5D9     		bls	.L63
 158:C:/Users/lenovo/Desktop/liteos/Project2/BearPi_LiteOS/components/connectivity/lwm2m/core\objects.c ****         }
ARM GAS  c:\Users\lenovo\AppData\Local\Temp\ccdS8TBd.s 			page 32


 834              		.loc 1 158 0
 835 00a8 8524     		movs	r4, #133
 836 00aa E3E7     		b	.L63
 837              	.LVL102:
 838              	.L65:
 137:C:/Users/lenovo/Desktop/liteos/Project2/BearPi_LiteOS/components/connectivity/lwm2m/core\objects.c **** 
 839              		.loc 1 137 0
 840 00ac 8524     		movs	r4, #133
 841              	.LVL103:
 842              	.L62:
 165:C:/Users/lenovo/Desktop/liteos/Project2/BearPi_LiteOS/components/connectivity/lwm2m/core\objects.c **** 
 843              		.loc 1 165 0
 844 00ae 2046     		mov	r0, r4
 845 00b0 04B0     		add	sp, sp, #16
 846              	.LCFI21:
 847              		.cfi_remember_state
 848              		.cfi_def_cfa_offset 16
 849              		@ sp needed
 850 00b2 70BD     		pop	{r4, r5, r6, pc}
 851              	.LVL104:
 852              	.L66:
 853              	.LCFI22:
 854              		.cfi_restore_state
 140:C:/Users/lenovo/Desktop/liteos/Project2/BearPi_LiteOS/components/connectivity/lwm2m/core\objects.c ****     if (NULL == targetP->readFunc) return COAP_405_METHOD_NOT_ALLOWED;
 855              		.loc 1 140 0
 856 00b4 8424     		movs	r4, #132
 857              	.LVL105:
 858 00b6 FAE7     		b	.L62
 859              	.LVL106:
 860              	.L67:
 141:C:/Users/lenovo/Desktop/liteos/Project2/BearPi_LiteOS/components/connectivity/lwm2m/core\objects.c **** 
 861              		.loc 1 141 0
 862 00b8 8524     		movs	r4, #133
 863              	.LVL107:
 864 00ba F8E7     		b	.L62
 865              	.LVL108:
 866              	.L68:
 145:C:/Users/lenovo/Desktop/liteos/Project2/BearPi_LiteOS/components/connectivity/lwm2m/core\objects.c **** 
 867              		.loc 1 145 0
 868 00bc A024     		movs	r4, #160
 869              	.LVL109:
 870 00be F6E7     		b	.L62
 871              	.L76:
 872              		.align	2
 873              	.L75:
 874 00c0 00000000 		.word	.LANCHOR1
 875 00c4 10000000 		.word	.LC1
 876 00c8 20000000 		.word	.LC3
 877 00cc 00000000 		.word	.LC0
 878 00d0 1C000000 		.word	.LC2
 879              		.cfi_endproc
 880              	.LFE143:
 882              		.section	.text.object_readData,"ax",%progbits
 883              		.align	1
 884              		.global	object_readData
 885              		.syntax unified
 886              		.thumb
ARM GAS  c:\Users\lenovo\AppData\Local\Temp\ccdS8TBd.s 			page 33


 887              		.thumb_func
 888              		.fpu fpv4-sp-d16
 890              	object_readData:
 891              	.LFB145:
 214:C:/Users/lenovo/Desktop/liteos/Project2/BearPi_LiteOS/components/connectivity/lwm2m/core\objects.c ****     uint8_t result;
 892              		.loc 1 214 0
 893              		.cfi_startproc
 894              		@ args = 8, pretend = 0, frame = 8
 895              		@ frame_needed = 0, uses_anonymous_args = 0
 896              	.LVL110:
 897 0000 2DE9F04F 		push	{r4, r5, r6, r7, r8, r9, r10, fp, lr}
 898              	.LCFI23:
 899              		.cfi_def_cfa_offset 36
 900              		.cfi_offset 4, -36
 901              		.cfi_offset 5, -32
 902              		.cfi_offset 6, -28
 903              		.cfi_offset 7, -24
 904              		.cfi_offset 8, -20
 905              		.cfi_offset 9, -16
 906              		.cfi_offset 10, -12
 907              		.cfi_offset 11, -8
 908              		.cfi_offset 14, -4
 909 0004 87B0     		sub	sp, sp, #28
 910              	.LCFI24:
 911              		.cfi_def_cfa_offset 64
 912 0006 8046     		mov	r8, r0
 913 0008 1446     		mov	r4, r2
 914 000a 1F46     		mov	r7, r3
 218:C:/Users/lenovo/Desktop/liteos/Project2/BearPi_LiteOS/components/connectivity/lwm2m/core\objects.c ****     targetP = (lwm2m_object_t *)LWM2M_LIST_FIND(contextP->objectList, uriP->objectId);
 915              		.loc 1 218 0
 916 000c 0D46     		mov	r5, r1
 917 000e 31B3     		cbz	r1, .L103
 218:C:/Users/lenovo/Desktop/liteos/Project2/BearPi_LiteOS/components/connectivity/lwm2m/core\objects.c ****     targetP = (lwm2m_object_t *)LWM2M_LIST_FIND(contextP->objectList, uriP->objectId);
 918              		.loc 1 218 0 is_stmt 0 discriminator 2
 919 0010 4B88     		ldrh	r3, [r1, #2]
 920              	.LVL111:
 921 0012 DA22     		movs	r2, #218
 922              	.LVL112:
 923 0014 6449     		ldr	r1, .L109
 924              	.LVL113:
 925 0016 6548     		ldr	r0, .L109+4
 926              	.LVL114:
 927 0018 FFF7FEFF 		bl	atiny_printf
 928              	.LVL115:
 929 001c 2B78     		ldrb	r3, [r5]	@ zero_extendqisi2
 930 001e 13F0020F 		tst	r3, #2
 931 0022 22D1     		bne	.L104
 932              	.L80:
 218:C:/Users/lenovo/Desktop/liteos/Project2/BearPi_LiteOS/components/connectivity/lwm2m/core\objects.c ****     targetP = (lwm2m_object_t *)LWM2M_LIST_FIND(contextP->objectList, uriP->objectId);
 933              		.loc 1 218 0 discriminator 5
 934 0024 2B78     		ldrb	r3, [r5]	@ zero_extendqisi2
 935 0026 13F0010F 		tst	r3, #1
 936 002a 23D1     		bne	.L105
 937              	.L81:
 218:C:/Users/lenovo/Desktop/liteos/Project2/BearPi_LiteOS/components/connectivity/lwm2m/core\objects.c ****     targetP = (lwm2m_object_t *)LWM2M_LIST_FIND(contextP->objectList, uriP->objectId);
 938              		.loc 1 218 0 discriminator 8
 939 002c 6048     		ldr	r0, .L109+8
ARM GAS  c:\Users\lenovo\AppData\Local\Temp\ccdS8TBd.s 			page 34


 940 002e FFF7FEFF 		bl	atiny_printf
 941              	.LVL116:
 942              	.L79:
 219:C:/Users/lenovo/Desktop/liteos/Project2/BearPi_LiteOS/components/connectivity/lwm2m/core\objects.c ****     if (NULL == targetP) return COAP_404_NOT_FOUND;
 943              		.loc 1 219 0 is_stmt 1
 944 0032 6988     		ldrh	r1, [r5, #2]
 945 0034 D8F81800 		ldr	r0, [r8, #24]
 946 0038 FFF7FEFF 		bl	lwm2m_list_find
 947              	.LVL117:
 220:C:/Users/lenovo/Desktop/liteos/Project2/BearPi_LiteOS/components/connectivity/lwm2m/core\objects.c ****     if (NULL == targetP->readFunc) return COAP_405_METHOD_NOT_ALLOWED;
 948              		.loc 1 220 0
 949 003c 0646     		mov	r6, r0
 950 003e 0028     		cmp	r0, #0
 951 0040 00F0AA80 		beq	.L97
 221:C:/Users/lenovo/Desktop/liteos/Project2/BearPi_LiteOS/components/connectivity/lwm2m/core\objects.c **** 
 952              		.loc 1 221 0
 953 0044 C368     		ldr	r3, [r0, #12]
 954 0046 002B     		cmp	r3, #0
 955 0048 00F0A880 		beq	.L98
 223:C:/Users/lenovo/Desktop/liteos/Project2/BearPi_LiteOS/components/connectivity/lwm2m/core\objects.c ****     {
 956              		.loc 1 223 0
 957 004c 2B78     		ldrb	r3, [r5]	@ zero_extendqisi2
 958 004e 13F0020F 		tst	r3, #2
 959 0052 14D1     		bne	.L106
 960              	.LBB5:
 243:C:/Users/lenovo/Desktop/liteos/Project2/BearPi_LiteOS/components/connectivity/lwm2m/core\objects.c ****         int i;
 961              		.loc 1 243 0
 962 0054 0023     		movs	r3, #0
 963 0056 0593     		str	r3, [sp, #20]
 964              	.LVL118:
 249:C:/Users/lenovo/Desktop/liteos/Project2/BearPi_LiteOS/components/connectivity/lwm2m/core\objects.c ****         for (instanceP = targetP->instanceList; instanceP != NULL ; instanceP = instanceP->next)
 965              		.loc 1 249 0
 966 0058 2360     		str	r3, [r4]
 250:C:/Users/lenovo/Desktop/liteos/Project2/BearPi_LiteOS/components/connectivity/lwm2m/core\objects.c ****         {
 967              		.loc 1 250 0
 968 005a 8268     		ldr	r2, [r0, #8]
 969              	.LVL119:
 970 005c 46E0     		b	.L86
 971              	.LVL120:
 972              	.L103:
 973              	.LBE5:
 218:C:/Users/lenovo/Desktop/liteos/Project2/BearPi_LiteOS/components/connectivity/lwm2m/core\objects.c ****     targetP = (lwm2m_object_t *)LWM2M_LIST_FIND(contextP->objectList, uriP->objectId);
 974              		.loc 1 218 0 discriminator 1
 975 005e DA22     		movs	r2, #218
 976              	.LVL121:
 977 0060 5149     		ldr	r1, .L109
 978              	.LVL122:
 979 0062 5448     		ldr	r0, .L109+12
 980              	.LVL123:
 981 0064 FFF7FEFF 		bl	atiny_printf
 982              	.LVL124:
 983 0068 E3E7     		b	.L79
 984              	.L104:
 218:C:/Users/lenovo/Desktop/liteos/Project2/BearPi_LiteOS/components/connectivity/lwm2m/core\objects.c ****     targetP = (lwm2m_object_t *)LWM2M_LIST_FIND(contextP->objectList, uriP->objectId);
 985              		.loc 1 218 0 is_stmt 0 discriminator 3
 986 006a A988     		ldrh	r1, [r5, #4]
 987 006c 5248     		ldr	r0, .L109+16
ARM GAS  c:\Users\lenovo\AppData\Local\Temp\ccdS8TBd.s 			page 35


 988 006e FFF7FEFF 		bl	atiny_printf
 989              	.LVL125:
 990 0072 D7E7     		b	.L80
 991              	.L105:
 218:C:/Users/lenovo/Desktop/liteos/Project2/BearPi_LiteOS/components/connectivity/lwm2m/core\objects.c ****     targetP = (lwm2m_object_t *)LWM2M_LIST_FIND(contextP->objectList, uriP->objectId);
 992              		.loc 1 218 0 discriminator 6
 993 0074 E988     		ldrh	r1, [r5, #6]
 994 0076 5048     		ldr	r0, .L109+16
 995 0078 FFF7FEFF 		bl	atiny_printf
 996              	.LVL126:
 997 007c D6E7     		b	.L81
 998              	.LVL127:
 999              	.L106:
 225:C:/Users/lenovo/Desktop/liteos/Project2/BearPi_LiteOS/components/connectivity/lwm2m/core\objects.c **** 
 1000              		.loc 1 225 0 is_stmt 1
 1001 007e A988     		ldrh	r1, [r5, #4]
 1002 0080 8068     		ldr	r0, [r0, #8]
 1003              	.LVL128:
 1004 0082 FFF7FEFF 		bl	lwm2m_list_find
 1005              	.LVL129:
 1006 0086 0028     		cmp	r0, #0
 1007 0088 00F08A80 		beq	.L99
 228:C:/Users/lenovo/Desktop/liteos/Project2/BearPi_LiteOS/components/connectivity/lwm2m/core\objects.c ****         {
 1008              		.loc 1 228 0
 1009 008c 2B78     		ldrb	r3, [r5]	@ zero_extendqisi2
 1010 008e 13F0010F 		tst	r3, #1
 1011 0092 1DD1     		bne	.L107
 1012              	.L84:
 237:C:/Users/lenovo/Desktop/liteos/Project2/BearPi_LiteOS/components/connectivity/lwm2m/core\objects.c ****     }
 1013              		.loc 1 237 0
 1014 0094 D6F80C80 		ldr	r8, [r6, #12]
 1015              	.LVL130:
 1016 0098 A888     		ldrh	r0, [r5, #4]
 1017 009a 0096     		str	r6, [sp]
 1018 009c 109B     		ldr	r3, [sp, #64]
 1019 009e 3A46     		mov	r2, r7
 1020 00a0 2146     		mov	r1, r4
 1021 00a2 C047     		blx	r8
 1022              	.LVL131:
 1023 00a4 0546     		mov	r5, r0
 1024              	.LVL132:
 1025              	.L85:
 300:C:/Users/lenovo/Desktop/liteos/Project2/BearPi_LiteOS/components/connectivity/lwm2m/core\objects.c ****     return result;
 1026              		.loc 1 300 0
 1027 00a6 FFF7FEFF 		bl	lwm2m_gettime
 1028              	.LVL133:
 1029 00aa C5F34713 		ubfx	r3, r5, #5, #8
 1030 00ae 05F01F02 		and	r2, r5, #31
 1031 00b2 2168     		ldr	r1, [r4]
 1032 00b4 0291     		str	r1, [sp, #8]
 1033 00b6 0192     		str	r2, [sp, #4]
 1034 00b8 0093     		str	r3, [sp]
 1035 00ba 4FF49673 		mov	r3, #300
 1036 00be 3A4A     		ldr	r2, .L109
 1037 00c0 0146     		mov	r1, r0
 1038 00c2 3E48     		ldr	r0, .L109+20
 1039 00c4 FFF7FEFF 		bl	atiny_printf
ARM GAS  c:\Users\lenovo\AppData\Local\Temp\ccdS8TBd.s 			page 36


 1040              	.LVL134:
 1041              	.L82:
 302:C:/Users/lenovo/Desktop/liteos/Project2/BearPi_LiteOS/components/connectivity/lwm2m/core\objects.c **** 
 1042              		.loc 1 302 0
 1043 00c8 2846     		mov	r0, r5
 1044 00ca 07B0     		add	sp, sp, #28
 1045              	.LCFI25:
 1046              		.cfi_remember_state
 1047              		.cfi_def_cfa_offset 36
 1048              		@ sp needed
 1049 00cc BDE8F08F 		pop	{r4, r5, r6, r7, r8, r9, r10, fp, pc}
 1050              	.LVL135:
 1051              	.L107:
 1052              	.LCFI26:
 1053              		.cfi_restore_state
 230:C:/Users/lenovo/Desktop/liteos/Project2/BearPi_LiteOS/components/connectivity/lwm2m/core\objects.c ****             *dataP = lwm2m_data_new(*sizeP);
 1054              		.loc 1 230 0
 1055 00d0 0120     		movs	r0, #1
 1056 00d2 2060     		str	r0, [r4]
 231:C:/Users/lenovo/Desktop/liteos/Project2/BearPi_LiteOS/components/connectivity/lwm2m/core\objects.c ****             if (*dataP == NULL) return COAP_500_INTERNAL_SERVER_ERROR;
 1057              		.loc 1 231 0
 1058 00d4 FFF7FEFF 		bl	lwm2m_data_new
 1059              	.LVL136:
 1060 00d8 3860     		str	r0, [r7]
 232:C:/Users/lenovo/Desktop/liteos/Project2/BearPi_LiteOS/components/connectivity/lwm2m/core\objects.c **** 
 1061              		.loc 1 232 0
 1062 00da 0028     		cmp	r0, #0
 1063 00dc 62D0     		beq	.L100
 234:C:/Users/lenovo/Desktop/liteos/Project2/BearPi_LiteOS/components/connectivity/lwm2m/core\objects.c ****         }
 1064              		.loc 1 234 0
 1065 00de EB88     		ldrh	r3, [r5, #6]
 1066 00e0 4380     		strh	r3, [r0, #2]	@ movhi
 1067 00e2 D7E7     		b	.L84
 1068              	.LVL137:
 1069              	.L87:
 1070              	.LBB6:
 252:C:/Users/lenovo/Desktop/liteos/Project2/BearPi_LiteOS/components/connectivity/lwm2m/core\objects.c ****         }
 1071              		.loc 1 252 0 discriminator 3
 1072 00e4 2368     		ldr	r3, [r4]
 1073 00e6 0133     		adds	r3, r3, #1
 1074 00e8 2360     		str	r3, [r4]
 250:C:/Users/lenovo/Desktop/liteos/Project2/BearPi_LiteOS/components/connectivity/lwm2m/core\objects.c ****         {
 1075              		.loc 1 250 0 discriminator 3
 1076 00ea 1268     		ldr	r2, [r2]
 1077              	.LVL138:
 1078              	.L86:
 250:C:/Users/lenovo/Desktop/liteos/Project2/BearPi_LiteOS/components/connectivity/lwm2m/core\objects.c ****         {
 1079              		.loc 1 250 0 is_stmt 0 discriminator 1
 1080 00ec 002A     		cmp	r2, #0
 1081 00ee F9D1     		bne	.L87
 255:C:/Users/lenovo/Desktop/liteos/Project2/BearPi_LiteOS/components/connectivity/lwm2m/core\objects.c ****         {
 1082              		.loc 1 255 0 is_stmt 1
 1083 00f0 2368     		ldr	r3, [r4]
 1084 00f2 3BB9     		cbnz	r3, .L88
 257:C:/Users/lenovo/Desktop/liteos/Project2/BearPi_LiteOS/components/connectivity/lwm2m/core\objects.c ****         }
 1085              		.loc 1 257 0
 1086 00f4 3B60     		str	r3, [r7]
ARM GAS  c:\Users\lenovo\AppData\Local\Temp\ccdS8TBd.s 			page 37


 247:C:/Users/lenovo/Desktop/liteos/Project2/BearPi_LiteOS/components/connectivity/lwm2m/core\objects.c **** 
 1087              		.loc 1 247 0
 1088 00f6 4525     		movs	r5, #69
 1089              	.LVL139:
 1090              	.L89:
 294:C:/Users/lenovo/Desktop/liteos/Project2/BearPi_LiteOS/components/connectivity/lwm2m/core\objects.c ****         {
 1091              		.loc 1 294 0
 1092 00f8 0598     		ldr	r0, [sp, #20]
 1093 00fa 0028     		cmp	r0, #0
 1094 00fc D3D0     		beq	.L85
 296:C:/Users/lenovo/Desktop/liteos/Project2/BearPi_LiteOS/components/connectivity/lwm2m/core\objects.c ****         }
 1095              		.loc 1 296 0
 1096 00fe FFF7FEFF 		bl	lwm2m_free
 1097              	.LVL140:
 1098 0102 D0E7     		b	.L85
 1099              	.LVL141:
 1100              	.L88:
 261:C:/Users/lenovo/Desktop/liteos/Project2/BearPi_LiteOS/components/connectivity/lwm2m/core\objects.c ****                                              uriP->objectId, serverId, sizeP, &forbidden)) != COAP_
 1101              		.loc 1 261 0
 1102 0104 6A88     		ldrh	r2, [r5, #2]
 1103              	.LVL142:
 1104 0106 05AB     		add	r3, sp, #20
 1105 0108 0193     		str	r3, [sp, #4]
 1106 010a 0094     		str	r4, [sp]
 1107 010c BDF84430 		ldrh	r3, [sp, #68]
 1108 0110 3146     		mov	r1, r6
 1109 0112 4046     		mov	r0, r8
 1110              	.LVL143:
 1111 0114 FFF7FEFF 		bl	prv_init_forbidden
 1112              	.LVL144:
 1113 0118 0546     		mov	r5, r0
 1114              	.LVL145:
 1115 011a 10B1     		cbz	r0, .L90
 264:C:/Users/lenovo/Desktop/liteos/Project2/BearPi_LiteOS/components/connectivity/lwm2m/core\objects.c ****                 return result;
 1116              		.loc 1 264 0
 1117 011c 0023     		movs	r3, #0
 1118 011e 3B60     		str	r3, [r7]
 265:C:/Users/lenovo/Desktop/liteos/Project2/BearPi_LiteOS/components/connectivity/lwm2m/core\objects.c ****             }
 1119              		.loc 1 265 0
 1120 0120 D2E7     		b	.L82
 1121              	.L90:
 268:C:/Users/lenovo/Desktop/liteos/Project2/BearPi_LiteOS/components/connectivity/lwm2m/core\objects.c ****             if (*dataP == NULL)
 1122              		.loc 1 268 0
 1123 0122 2068     		ldr	r0, [r4]
 1124              	.LVL146:
 1125 0124 FFF7FEFF 		bl	lwm2m_data_new
 1126              	.LVL147:
 1127 0128 3860     		str	r0, [r7]
 269:C:/Users/lenovo/Desktop/liteos/Project2/BearPi_LiteOS/components/connectivity/lwm2m/core\objects.c ****             {
 1128              		.loc 1 269 0
 1129 012a 28B1     		cbz	r0, .L108
 278:C:/Users/lenovo/Desktop/liteos/Project2/BearPi_LiteOS/components/connectivity/lwm2m/core\objects.c ****             i = 0;
 1130              		.loc 1 278 0
 1131 012c D6F80880 		ldr	r8, [r6, #8]
 1132              	.LVL148:
 280:C:/Users/lenovo/Desktop/liteos/Project2/BearPi_LiteOS/components/connectivity/lwm2m/core\objects.c ****             while (instanceP != NULL && result == COAP_205_CONTENT)
 1133              		.loc 1 280 0
ARM GAS  c:\Users\lenovo\AppData\Local\Temp\ccdS8TBd.s 			page 38


 1134 0130 4FF0000B 		mov	fp, #0
 279:C:/Users/lenovo/Desktop/liteos/Project2/BearPi_LiteOS/components/connectivity/lwm2m/core\objects.c ****             j = 0;
 1135              		.loc 1 279 0
 1136 0134 DA46     		mov	r10, fp
 281:C:/Users/lenovo/Desktop/liteos/Project2/BearPi_LiteOS/components/connectivity/lwm2m/core\objects.c ****             {
 1137              		.loc 1 281 0
 1138 0136 09E0     		b	.L93
 1139              	.LVL149:
 1140              	.L108:
 271:C:/Users/lenovo/Desktop/liteos/Project2/BearPi_LiteOS/components/connectivity/lwm2m/core\objects.c ****                 {
 1141              		.loc 1 271 0
 1142 0138 0598     		ldr	r0, [sp, #20]
 1143 013a 58B3     		cbz	r0, .L101
 273:C:/Users/lenovo/Desktop/liteos/Project2/BearPi_LiteOS/components/connectivity/lwm2m/core\objects.c ****                 }
 1144              		.loc 1 273 0
 1145 013c FFF7FEFF 		bl	lwm2m_free
 1146              	.LVL150:
 275:C:/Users/lenovo/Desktop/liteos/Project2/BearPi_LiteOS/components/connectivity/lwm2m/core\objects.c ****             }
 1147              		.loc 1 275 0
 1148 0140 A025     		movs	r5, #160
 1149 0142 C1E7     		b	.L82
 1150              	.LVL151:
 1151              	.L94:
 290:C:/Users/lenovo/Desktop/liteos/Project2/BearPi_LiteOS/components/connectivity/lwm2m/core\objects.c ****                 i++;
 1152              		.loc 1 290 0
 1153 0144 D8F80080 		ldr	r8, [r8]
 1154              	.LVL152:
 291:C:/Users/lenovo/Desktop/liteos/Project2/BearPi_LiteOS/components/connectivity/lwm2m/core\objects.c ****             }
 1155              		.loc 1 291 0
 1156 0148 0AF1010A 		add	r10, r10, #1
 1157              	.LVL153:
 1158              	.L93:
 281:C:/Users/lenovo/Desktop/liteos/Project2/BearPi_LiteOS/components/connectivity/lwm2m/core\objects.c ****             {
 1159              		.loc 1 281 0
 1160 014c B8F1000F 		cmp	r8, #0
 1161 0150 D2D0     		beq	.L89
 281:C:/Users/lenovo/Desktop/liteos/Project2/BearPi_LiteOS/components/connectivity/lwm2m/core\objects.c ****             {
 1162              		.loc 1 281 0 is_stmt 0 discriminator 1
 1163 0152 452D     		cmp	r5, #69
 1164 0154 D0D1     		bne	.L89
 283:C:/Users/lenovo/Desktop/liteos/Project2/BearPi_LiteOS/components/connectivity/lwm2m/core\objects.c ****                 {
 1165              		.loc 1 283 0 is_stmt 1
 1166 0156 059B     		ldr	r3, [sp, #20]
 1167 0158 13F80A30 		ldrb	r3, [r3, r10]	@ zero_extendqisi2
 1168 015c 002B     		cmp	r3, #0
 1169 015e F1D1     		bne	.L94
 285:C:/Users/lenovo/Desktop/liteos/Project2/BearPi_LiteOS/components/connectivity/lwm2m/core\objects.c ****                     (*dataP)[j].type = LWM2M_TYPE_OBJECT_INSTANCE;
 1170              		.loc 1 285 0
 1171 0160 F568     		ldr	r5, [r6, #12]
 1172              	.LVL154:
 1173 0162 B8F80400 		ldrh	r0, [r8, #4]
 1174 0166 3968     		ldr	r1, [r7]
 1175 0168 4FEA0B19 		lsl	r9, fp, #4
 1176 016c 4944     		add	r1, r1, r9
 1177 016e 0096     		str	r6, [sp]
 1178 0170 109B     		ldr	r3, [sp, #64]
 1179 0172 01F10C02 		add	r2, r1, #12
ARM GAS  c:\Users\lenovo\AppData\Local\Temp\ccdS8TBd.s 			page 39


 1180 0176 0831     		adds	r1, r1, #8
 1181 0178 A847     		blx	r5
 1182              	.LVL155:
 1183 017a 0546     		mov	r5, r0
 1184              	.LVL156:
 286:C:/Users/lenovo/Desktop/liteos/Project2/BearPi_LiteOS/components/connectivity/lwm2m/core\objects.c ****                     (*dataP)[j].id = instanceP->id;
 1185              		.loc 1 286 0
 1186 017c 3B68     		ldr	r3, [r7]
 1187 017e 0222     		movs	r2, #2
 1188 0180 03F80920 		strb	r2, [r3, r9]
 287:C:/Users/lenovo/Desktop/liteos/Project2/BearPi_LiteOS/components/connectivity/lwm2m/core\objects.c ****                     j++;
 1189              		.loc 1 287 0
 1190 0184 3B68     		ldr	r3, [r7]
 1191 0186 4B44     		add	r3, r3, r9
 1192 0188 B8F80420 		ldrh	r2, [r8, #4]
 1193 018c 5A80     		strh	r2, [r3, #2]	@ movhi
 288:C:/Users/lenovo/Desktop/liteos/Project2/BearPi_LiteOS/components/connectivity/lwm2m/core\objects.c ****                 }
 1194              		.loc 1 288 0
 1195 018e 0BF1010B 		add	fp, fp, #1
 1196              	.LVL157:
 1197 0192 D7E7     		b	.L94
 1198              	.LVL158:
 1199              	.L101:
 275:C:/Users/lenovo/Desktop/liteos/Project2/BearPi_LiteOS/components/connectivity/lwm2m/core\objects.c ****             }
 1200              		.loc 1 275 0
 1201 0194 A025     		movs	r5, #160
 1202 0196 97E7     		b	.L82
 1203              	.LVL159:
 1204              	.L97:
 1205              	.LBE6:
 220:C:/Users/lenovo/Desktop/liteos/Project2/BearPi_LiteOS/components/connectivity/lwm2m/core\objects.c ****     if (NULL == targetP->readFunc) return COAP_405_METHOD_NOT_ALLOWED;
 1206              		.loc 1 220 0
 1207 0198 8425     		movs	r5, #132
 1208              	.LVL160:
 1209 019a 95E7     		b	.L82
 1210              	.LVL161:
 1211              	.L98:
 221:C:/Users/lenovo/Desktop/liteos/Project2/BearPi_LiteOS/components/connectivity/lwm2m/core\objects.c **** 
 1212              		.loc 1 221 0
 1213 019c 8525     		movs	r5, #133
 1214              	.LVL162:
 1215 019e 93E7     		b	.L82
 1216              	.LVL163:
 1217              	.L99:
 225:C:/Users/lenovo/Desktop/liteos/Project2/BearPi_LiteOS/components/connectivity/lwm2m/core\objects.c **** 
 1218              		.loc 1 225 0
 1219 01a0 8425     		movs	r5, #132
 1220              	.LVL164:
 1221 01a2 91E7     		b	.L82
 1222              	.LVL165:
 1223              	.L100:
 232:C:/Users/lenovo/Desktop/liteos/Project2/BearPi_LiteOS/components/connectivity/lwm2m/core\objects.c **** 
 1224              		.loc 1 232 0
 1225 01a4 A025     		movs	r5, #160
 1226              	.LVL166:
 1227 01a6 8FE7     		b	.L82
 1228              	.L110:
ARM GAS  c:\Users\lenovo\AppData\Local\Temp\ccdS8TBd.s 			page 40


 1229              		.align	2
 1230              	.L109:
 1231 01a8 00000000 		.word	.LANCHOR2
 1232 01ac 10000000 		.word	.LC1
 1233 01b0 20000000 		.word	.LC3
 1234 01b4 00000000 		.word	.LC0
 1235 01b8 1C000000 		.word	.LC2
 1236 01bc 00000000 		.word	.LC4
 1237              		.cfi_endproc
 1238              	.LFE145:
 1240              		.section	.text.object_read,"ax",%progbits
 1241              		.align	1
 1242              		.global	object_read
 1243              		.syntax unified
 1244              		.thumb
 1245              		.thumb_func
 1246              		.fpu fpv4-sp-d16
 1248              	object_read:
 1249              	.LFB146:
 311:C:/Users/lenovo/Desktop/liteos/Project2/BearPi_LiteOS/components/connectivity/lwm2m/core\objects.c ****     uint8_t result;
 1250              		.loc 1 311 0
 1251              		.cfi_startproc
 1252              		@ args = 8, pretend = 0, frame = 8
 1253              		@ frame_needed = 0, uses_anonymous_args = 0
 1254              	.LVL167:
 1255 0000 2DE9F041 		push	{r4, r5, r6, r7, r8, lr}
 1256              	.LCFI27:
 1257              		.cfi_def_cfa_offset 24
 1258              		.cfi_offset 4, -24
 1259              		.cfi_offset 5, -20
 1260              		.cfi_offset 6, -16
 1261              		.cfi_offset 7, -12
 1262              		.cfi_offset 8, -8
 1263              		.cfi_offset 14, -4
 1264 0004 86B0     		sub	sp, sp, #24
 1265              	.LCFI28:
 1266              		.cfi_def_cfa_offset 48
 1267 0006 0446     		mov	r4, r0
 1268 0008 1746     		mov	r7, r2
 1269 000a 9846     		mov	r8, r3
 1270 000c 0C9E     		ldr	r6, [sp, #48]
 313:C:/Users/lenovo/Desktop/liteos/Project2/BearPi_LiteOS/components/connectivity/lwm2m/core\objects.c ****     int size = 0;
 1271              		.loc 1 313 0
 1272 000e 0023     		movs	r3, #0
 1273              	.LVL168:
 1274 0010 0593     		str	r3, [sp, #20]
 314:C:/Users/lenovo/Desktop/liteos/Project2/BearPi_LiteOS/components/connectivity/lwm2m/core\objects.c ****     int res;
 1275              		.loc 1 314 0
 1276 0012 0493     		str	r3, [sp, #16]
 317:C:/Users/lenovo/Desktop/liteos/Project2/BearPi_LiteOS/components/connectivity/lwm2m/core\objects.c ****     result = object_readData(contextP, uriP, &size, &dataP, NULL, serverId);
 1277              		.loc 1 317 0
 1278 0014 0D46     		mov	r5, r1
 1279 0016 0029     		cmp	r1, #0
 1280 0018 38D0     		beq	.L119
 317:C:/Users/lenovo/Desktop/liteos/Project2/BearPi_LiteOS/components/connectivity/lwm2m/core\objects.c ****     result = object_readData(contextP, uriP, &size, &dataP, NULL, serverId);
 1281              		.loc 1 317 0 is_stmt 0 discriminator 2
 1282 001a 4B88     		ldrh	r3, [r1, #2]
ARM GAS  c:\Users\lenovo\AppData\Local\Temp\ccdS8TBd.s 			page 41


 1283 001c 40F23D12 		movw	r2, #317
 1284              	.LVL169:
 1285 0020 2A49     		ldr	r1, .L123
 1286              	.LVL170:
 1287 0022 2B48     		ldr	r0, .L123+4
 1288              	.LVL171:
 1289 0024 FFF7FEFF 		bl	atiny_printf
 1290              	.LVL172:
 1291 0028 2B78     		ldrb	r3, [r5]	@ zero_extendqisi2
 1292 002a 13F0020F 		tst	r3, #2
 1293 002e 34D1     		bne	.L120
 1294              	.L114:
 317:C:/Users/lenovo/Desktop/liteos/Project2/BearPi_LiteOS/components/connectivity/lwm2m/core\objects.c ****     result = object_readData(contextP, uriP, &size, &dataP, NULL, serverId);
 1295              		.loc 1 317 0 discriminator 5
 1296 0030 2B78     		ldrb	r3, [r5]	@ zero_extendqisi2
 1297 0032 13F0010F 		tst	r3, #1
 1298 0036 35D1     		bne	.L121
 1299              	.L115:
 317:C:/Users/lenovo/Desktop/liteos/Project2/BearPi_LiteOS/components/connectivity/lwm2m/core\objects.c ****     result = object_readData(contextP, uriP, &size, &dataP, NULL, serverId);
 1300              		.loc 1 317 0 discriminator 8
 1301 0038 2648     		ldr	r0, .L123+8
 1302 003a FFF7FEFF 		bl	atiny_printf
 1303              	.LVL173:
 1304              	.L113:
 318:C:/Users/lenovo/Desktop/liteos/Project2/BearPi_LiteOS/components/connectivity/lwm2m/core\objects.c **** 
 1305              		.loc 1 318 0 is_stmt 1
 1306 003e BDF83430 		ldrh	r3, [sp, #52]
 1307 0042 0193     		str	r3, [sp, #4]
 1308 0044 0023     		movs	r3, #0
 1309 0046 0093     		str	r3, [sp]
 1310 0048 05AB     		add	r3, sp, #20
 1311 004a 04AA     		add	r2, sp, #16
 1312 004c 2946     		mov	r1, r5
 1313 004e 2046     		mov	r0, r4
 1314 0050 FFF7FEFF 		bl	object_readData
 1315              	.LVL174:
 1316 0054 0446     		mov	r4, r0
 1317              	.LVL175:
 320:C:/Users/lenovo/Desktop/liteos/Project2/BearPi_LiteOS/components/connectivity/lwm2m/core\objects.c ****     {
 1318              		.loc 1 320 0
 1319 0056 4528     		cmp	r0, #69
 1320 0058 29D0     		beq	.L122
 1321              	.LVL176:
 1322              	.L116:
 332:C:/Users/lenovo/Desktop/liteos/Project2/BearPi_LiteOS/components/connectivity/lwm2m/core\objects.c **** 
 1323              		.loc 1 332 0
 1324 005a 0599     		ldr	r1, [sp, #20]
 1325 005c 0498     		ldr	r0, [sp, #16]
 1326 005e FFF7FEFF 		bl	lwm2m_data_free
 1327              	.LVL177:
 334:C:/Users/lenovo/Desktop/liteos/Project2/BearPi_LiteOS/components/connectivity/lwm2m/core\objects.c **** 
 1328              		.loc 1 334 0
 1329 0062 FFF7FEFF 		bl	lwm2m_gettime
 1330              	.LVL178:
 1331 0066 C4F34713 		ubfx	r3, r4, #5, #8
 1332 006a 04F01F02 		and	r2, r4, #31
 1333 006e 3168     		ldr	r1, [r6]
ARM GAS  c:\Users\lenovo\AppData\Local\Temp\ccdS8TBd.s 			page 42


 1334 0070 0291     		str	r1, [sp, #8]
 1335 0072 0192     		str	r2, [sp, #4]
 1336 0074 0093     		str	r3, [sp]
 1337 0076 4FF4A773 		mov	r3, #334
 1338 007a 144A     		ldr	r2, .L123
 1339 007c 0146     		mov	r1, r0
 1340 007e 1648     		ldr	r0, .L123+12
 1341 0080 FFF7FEFF 		bl	atiny_printf
 1342              	.LVL179:
 337:C:/Users/lenovo/Desktop/liteos/Project2/BearPi_LiteOS/components/connectivity/lwm2m/core\objects.c **** 
 1343              		.loc 1 337 0
 1344 0084 2046     		mov	r0, r4
 1345 0086 06B0     		add	sp, sp, #24
 1346              	.LCFI29:
 1347              		.cfi_remember_state
 1348              		.cfi_def_cfa_offset 24
 1349              		@ sp needed
 1350 0088 BDE8F081 		pop	{r4, r5, r6, r7, r8, pc}
 1351              	.LVL180:
 1352              	.L119:
 1353              	.LCFI30:
 1354              		.cfi_restore_state
 317:C:/Users/lenovo/Desktop/liteos/Project2/BearPi_LiteOS/components/connectivity/lwm2m/core\objects.c ****     result = object_readData(contextP, uriP, &size, &dataP, NULL, serverId);
 1355              		.loc 1 317 0 discriminator 1
 1356 008c 40F23D12 		movw	r2, #317
 1357              	.LVL181:
 1358 0090 0E49     		ldr	r1, .L123
 1359              	.LVL182:
 1360 0092 1248     		ldr	r0, .L123+16
 1361              	.LVL183:
 1362 0094 FFF7FEFF 		bl	atiny_printf
 1363              	.LVL184:
 1364 0098 D1E7     		b	.L113
 1365              	.L120:
 317:C:/Users/lenovo/Desktop/liteos/Project2/BearPi_LiteOS/components/connectivity/lwm2m/core\objects.c ****     result = object_readData(contextP, uriP, &size, &dataP, NULL, serverId);
 1366              		.loc 1 317 0 is_stmt 0 discriminator 3
 1367 009a A988     		ldrh	r1, [r5, #4]
 1368 009c 1048     		ldr	r0, .L123+20
 1369 009e FFF7FEFF 		bl	atiny_printf
 1370              	.LVL185:
 1371 00a2 C5E7     		b	.L114
 1372              	.L121:
 317:C:/Users/lenovo/Desktop/liteos/Project2/BearPi_LiteOS/components/connectivity/lwm2m/core\objects.c ****     result = object_readData(contextP, uriP, &size, &dataP, NULL, serverId);
 1373              		.loc 1 317 0 discriminator 6
 1374 00a4 E988     		ldrh	r1, [r5, #6]
 1375 00a6 0E48     		ldr	r0, .L123+20
 1376 00a8 FFF7FEFF 		bl	atiny_printf
 1377              	.LVL186:
 1378 00ac C4E7     		b	.L115
 1379              	.LVL187:
 1380              	.L122:
 322:C:/Users/lenovo/Desktop/liteos/Project2/BearPi_LiteOS/components/connectivity/lwm2m/core\objects.c ****         if (res < 0)
 1381              		.loc 1 322 0 is_stmt 1
 1382 00ae CDF80080 		str	r8, [sp]
 1383 00b2 3B46     		mov	r3, r7
 1384 00b4 059A     		ldr	r2, [sp, #20]
 1385 00b6 0499     		ldr	r1, [sp, #16]
ARM GAS  c:\Users\lenovo\AppData\Local\Temp\ccdS8TBd.s 			page 43


 1386 00b8 2846     		mov	r0, r5
 1387              	.LVL188:
 1388 00ba FFF7FEFF 		bl	lwm2m_data_serialize
 1389              	.LVL189:
 323:C:/Users/lenovo/Desktop/liteos/Project2/BearPi_LiteOS/components/connectivity/lwm2m/core\objects.c ****         {
 1390              		.loc 1 323 0
 1391 00be 0028     		cmp	r0, #0
 1392 00c0 01DB     		blt	.L117
 329:C:/Users/lenovo/Desktop/liteos/Project2/BearPi_LiteOS/components/connectivity/lwm2m/core\objects.c ****         }
 1393              		.loc 1 329 0
 1394 00c2 3060     		str	r0, [r6]
 1395 00c4 C9E7     		b	.L116
 1396              	.L117:
 325:C:/Users/lenovo/Desktop/liteos/Project2/BearPi_LiteOS/components/connectivity/lwm2m/core\objects.c ****         }
 1397              		.loc 1 325 0
 1398 00c6 A024     		movs	r4, #160
 1399 00c8 C7E7     		b	.L116
 1400              	.L124:
 1401 00ca 00BF     		.align	2
 1402              	.L123:
 1403 00cc 00000000 		.word	.LANCHOR3
 1404 00d0 10000000 		.word	.LC1
 1405 00d4 20000000 		.word	.LC3
 1406 00d8 00000000 		.word	.LC5
 1407 00dc 00000000 		.word	.LC0
 1408 00e0 1C000000 		.word	.LC2
 1409              		.cfi_endproc
 1410              	.LFE146:
 1412              		.section	.text.object_write,"ax",%progbits
 1413              		.align	1
 1414              		.global	object_write
 1415              		.syntax unified
 1416              		.thumb
 1417              		.thumb_func
 1418              		.fpu fpv4-sp-d16
 1420              	object_write:
 1421              	.LFB147:
 344:C:/Users/lenovo/Desktop/liteos/Project2/BearPi_LiteOS/components/connectivity/lwm2m/core\objects.c ****     uint8_t result = NO_ERROR;
 1422              		.loc 1 344 0
 1423              		.cfi_startproc
 1424              		@ args = 4, pretend = 0, frame = 8
 1425              		@ frame_needed = 0, uses_anonymous_args = 0
 1426              	.LVL190:
 1427 0000 F0B5     		push	{r4, r5, r6, r7, lr}
 1428              	.LCFI31:
 1429              		.cfi_def_cfa_offset 20
 1430              		.cfi_offset 4, -20
 1431              		.cfi_offset 5, -16
 1432              		.cfi_offset 6, -12
 1433              		.cfi_offset 7, -8
 1434              		.cfi_offset 14, -4
 1435 0002 85B0     		sub	sp, sp, #20
 1436              	.LCFI32:
 1437              		.cfi_def_cfa_offset 40
 1438 0004 0546     		mov	r5, r0
 1439 0006 1746     		mov	r7, r2
 1440 0008 1E46     		mov	r6, r3
ARM GAS  c:\Users\lenovo\AppData\Local\Temp\ccdS8TBd.s 			page 44


 1441              	.LVL191:
 347:C:/Users/lenovo/Desktop/liteos/Project2/BearPi_LiteOS/components/connectivity/lwm2m/core\objects.c ****     int size = 0;
 1442              		.loc 1 347 0
 1443 000a 0023     		movs	r3, #0
 1444              	.LVL192:
 1445 000c 0393     		str	r3, [sp, #12]
 1446              	.LVL193:
 350:C:/Users/lenovo/Desktop/liteos/Project2/BearPi_LiteOS/components/connectivity/lwm2m/core\objects.c ****     targetP = (lwm2m_object_t *)LWM2M_LIST_FIND(contextP->objectList, uriP->objectId);
 1447              		.loc 1 350 0
 1448 000e 0C46     		mov	r4, r1
 1449 0010 0029     		cmp	r1, #0
 1450 0012 43D0     		beq	.L135
 350:C:/Users/lenovo/Desktop/liteos/Project2/BearPi_LiteOS/components/connectivity/lwm2m/core\objects.c ****     targetP = (lwm2m_object_t *)LWM2M_LIST_FIND(contextP->objectList, uriP->objectId);
 1451              		.loc 1 350 0 is_stmt 0 discriminator 2
 1452 0014 4B88     		ldrh	r3, [r1, #2]
 1453 0016 4FF4AF72 		mov	r2, #350
 1454              	.LVL194:
 1455 001a 2C49     		ldr	r1, .L138
 1456              	.LVL195:
 1457 001c 2C48     		ldr	r0, .L138+4
 1458              	.LVL196:
 1459 001e FFF7FEFF 		bl	atiny_printf
 1460              	.LVL197:
 1461 0022 2378     		ldrb	r3, [r4]	@ zero_extendqisi2
 1462 0024 13F0020F 		tst	r3, #2
 1463 0028 3FD1     		bne	.L136
 1464              	.L128:
 350:C:/Users/lenovo/Desktop/liteos/Project2/BearPi_LiteOS/components/connectivity/lwm2m/core\objects.c ****     targetP = (lwm2m_object_t *)LWM2M_LIST_FIND(contextP->objectList, uriP->objectId);
 1465              		.loc 1 350 0 discriminator 5
 1466 002a 2378     		ldrb	r3, [r4]	@ zero_extendqisi2
 1467 002c 13F0010F 		tst	r3, #1
 1468 0030 40D1     		bne	.L137
 1469              	.L129:
 350:C:/Users/lenovo/Desktop/liteos/Project2/BearPi_LiteOS/components/connectivity/lwm2m/core\objects.c ****     targetP = (lwm2m_object_t *)LWM2M_LIST_FIND(contextP->objectList, uriP->objectId);
 1470              		.loc 1 350 0 discriminator 8
 1471 0032 2848     		ldr	r0, .L138+8
 1472 0034 FFF7FEFF 		bl	atiny_printf
 1473              	.LVL198:
 1474              	.L127:
 351:C:/Users/lenovo/Desktop/liteos/Project2/BearPi_LiteOS/components/connectivity/lwm2m/core\objects.c ****     if (NULL == targetP)
 1475              		.loc 1 351 0 is_stmt 1
 1476 0038 6188     		ldrh	r1, [r4, #2]
 1477 003a A869     		ldr	r0, [r5, #24]
 1478 003c FFF7FEFF 		bl	lwm2m_list_find
 1479              	.LVL199:
 352:C:/Users/lenovo/Desktop/liteos/Project2/BearPi_LiteOS/components/connectivity/lwm2m/core\objects.c ****     {
 1480              		.loc 1 352 0
 1481 0040 0546     		mov	r5, r0
 1482              	.LVL200:
 1483 0042 0028     		cmp	r0, #0
 1484 0044 3BD0     		beq	.L131
 356:C:/Users/lenovo/Desktop/liteos/Project2/BearPi_LiteOS/components/connectivity/lwm2m/core\objects.c ****     {
 1485              		.loc 1 356 0
 1486 0046 0369     		ldr	r3, [r0, #16]
 1487 0048 002B     		cmp	r3, #0
 1488 004a 3AD0     		beq	.L132
 362:C:/Users/lenovo/Desktop/liteos/Project2/BearPi_LiteOS/components/connectivity/lwm2m/core\objects.c ****         if (size == 0)
ARM GAS  c:\Users\lenovo\AppData\Local\Temp\ccdS8TBd.s 			page 45


 1489              		.loc 1 362 0
 1490 004c 03AB     		add	r3, sp, #12
 1491 004e 0093     		str	r3, [sp]
 1492 0050 3B46     		mov	r3, r7
 1493 0052 0A9A     		ldr	r2, [sp, #40]
 1494 0054 3146     		mov	r1, r6
 1495 0056 2046     		mov	r0, r4
 1496              	.LVL201:
 1497 0058 FFF7FEFF 		bl	lwm2m_data_parse
 1498              	.LVL202:
 363:C:/Users/lenovo/Desktop/liteos/Project2/BearPi_LiteOS/components/connectivity/lwm2m/core\objects.c ****         {
 1499              		.loc 1 363 0
 1500 005c 0646     		mov	r6, r0
 1501              	.LVL203:
 1502 005e 0028     		cmp	r0, #0
 1503 0060 31D0     		beq	.L133
 370:C:/Users/lenovo/Desktop/liteos/Project2/BearPi_LiteOS/components/connectivity/lwm2m/core\objects.c ****         lwm2m_data_free(size, dataP);
 1504              		.loc 1 370 0
 1505 0062 2F69     		ldr	r7, [r5, #16]
 1506 0064 2B46     		mov	r3, r5
 1507 0066 039A     		ldr	r2, [sp, #12]
 1508 0068 0146     		mov	r1, r0
 1509 006a A088     		ldrh	r0, [r4, #4]
 1510              	.LVL204:
 1511 006c B847     		blx	r7
 1512              	.LVL205:
 1513 006e 0446     		mov	r4, r0
 1514              	.LVL206:
 371:C:/Users/lenovo/Desktop/liteos/Project2/BearPi_LiteOS/components/connectivity/lwm2m/core\objects.c ****     }
 1515              		.loc 1 371 0
 1516 0070 0399     		ldr	r1, [sp, #12]
 1517 0072 3046     		mov	r0, r6
 1518 0074 FFF7FEFF 		bl	lwm2m_data_free
 1519              	.LVL207:
 1520              	.L130:
 374:C:/Users/lenovo/Desktop/liteos/Project2/BearPi_LiteOS/components/connectivity/lwm2m/core\objects.c **** 
 1521              		.loc 1 374 0
 1522 0078 FFF7FEFF 		bl	lwm2m_gettime
 1523              	.LVL208:
 1524 007c C4F34713 		ubfx	r3, r4, #5, #8
 1525 0080 04F01F02 		and	r2, r4, #31
 1526 0084 0192     		str	r2, [sp, #4]
 1527 0086 0093     		str	r3, [sp]
 1528 0088 4FF4BB73 		mov	r3, #374
 1529 008c 0F4A     		ldr	r2, .L138
 1530 008e 0146     		mov	r1, r0
 1531 0090 1148     		ldr	r0, .L138+12
 1532 0092 FFF7FEFF 		bl	atiny_printf
 1533              	.LVL209:
 377:C:/Users/lenovo/Desktop/liteos/Project2/BearPi_LiteOS/components/connectivity/lwm2m/core\objects.c **** 
 1534              		.loc 1 377 0
 1535 0096 2046     		mov	r0, r4
 1536 0098 05B0     		add	sp, sp, #20
 1537              	.LCFI33:
 1538              		.cfi_remember_state
 1539              		.cfi_def_cfa_offset 20
 1540              		@ sp needed
ARM GAS  c:\Users\lenovo\AppData\Local\Temp\ccdS8TBd.s 			page 46


 1541 009a F0BD     		pop	{r4, r5, r6, r7, pc}
 1542              	.LVL210:
 1543              	.L135:
 1544              	.LCFI34:
 1545              		.cfi_restore_state
 350:C:/Users/lenovo/Desktop/liteos/Project2/BearPi_LiteOS/components/connectivity/lwm2m/core\objects.c ****     targetP = (lwm2m_object_t *)LWM2M_LIST_FIND(contextP->objectList, uriP->objectId);
 1546              		.loc 1 350 0 discriminator 1
 1547 009c 4FF4AF72 		mov	r2, #350
 1548              	.LVL211:
 1549 00a0 0A49     		ldr	r1, .L138
 1550              	.LVL212:
 1551 00a2 0E48     		ldr	r0, .L138+16
 1552              	.LVL213:
 1553 00a4 FFF7FEFF 		bl	atiny_printf
 1554              	.LVL214:
 1555 00a8 C6E7     		b	.L127
 1556              	.L136:
 350:C:/Users/lenovo/Desktop/liteos/Project2/BearPi_LiteOS/components/connectivity/lwm2m/core\objects.c ****     targetP = (lwm2m_object_t *)LWM2M_LIST_FIND(contextP->objectList, uriP->objectId);
 1557              		.loc 1 350 0 is_stmt 0 discriminator 3
 1558 00aa A188     		ldrh	r1, [r4, #4]
 1559 00ac 0C48     		ldr	r0, .L138+20
 1560 00ae FFF7FEFF 		bl	atiny_printf
 1561              	.LVL215:
 1562 00b2 BAE7     		b	.L128
 1563              	.L137:
 350:C:/Users/lenovo/Desktop/liteos/Project2/BearPi_LiteOS/components/connectivity/lwm2m/core\objects.c ****     targetP = (lwm2m_object_t *)LWM2M_LIST_FIND(contextP->objectList, uriP->objectId);
 1564              		.loc 1 350 0 discriminator 6
 1565 00b4 E188     		ldrh	r1, [r4, #6]
 1566 00b6 0A48     		ldr	r0, .L138+20
 1567 00b8 FFF7FEFF 		bl	atiny_printf
 1568              	.LVL216:
 1569 00bc B9E7     		b	.L129
 1570              	.LVL217:
 1571              	.L131:
 354:C:/Users/lenovo/Desktop/liteos/Project2/BearPi_LiteOS/components/connectivity/lwm2m/core\objects.c ****     }
 1572              		.loc 1 354 0 is_stmt 1
 1573 00be 8424     		movs	r4, #132
 1574              	.LVL218:
 1575 00c0 DAE7     		b	.L130
 1576              	.LVL219:
 1577              	.L132:
 358:C:/Users/lenovo/Desktop/liteos/Project2/BearPi_LiteOS/components/connectivity/lwm2m/core\objects.c ****     }
 1578              		.loc 1 358 0
 1579 00c2 8524     		movs	r4, #133
 1580              	.LVL220:
 1581 00c4 D8E7     		b	.L130
 1582              	.LVL221:
 1583              	.L133:
 365:C:/Users/lenovo/Desktop/liteos/Project2/BearPi_LiteOS/components/connectivity/lwm2m/core\objects.c ****         }
 1584              		.loc 1 365 0
 1585 00c6 8624     		movs	r4, #134
 1586              	.LVL222:
 1587 00c8 D6E7     		b	.L130
 1588              	.L139:
 1589 00ca 00BF     		.align	2
 1590              	.L138:
 1591 00cc 00000000 		.word	.LANCHOR4
ARM GAS  c:\Users\lenovo\AppData\Local\Temp\ccdS8TBd.s 			page 47


 1592 00d0 10000000 		.word	.LC1
 1593 00d4 20000000 		.word	.LC3
 1594 00d8 00000000 		.word	.LC6
 1595 00dc 00000000 		.word	.LC0
 1596 00e0 1C000000 		.word	.LC2
 1597              		.cfi_endproc
 1598              	.LFE147:
 1600              		.section	.text.object_execute,"ax",%progbits
 1601              		.align	1
 1602              		.global	object_execute
 1603              		.syntax unified
 1604              		.thumb
 1605              		.thumb_func
 1606              		.fpu fpv4-sp-d16
 1608              	object_execute:
 1609              	.LFB148:
 383:C:/Users/lenovo/Desktop/liteos/Project2/BearPi_LiteOS/components/connectivity/lwm2m/core\objects.c ****     lwm2m_object_t *targetP;
 1610              		.loc 1 383 0
 1611              		.cfi_startproc
 1612              		@ args = 0, pretend = 0, frame = 0
 1613              		@ frame_needed = 0, uses_anonymous_args = 0
 1614              	.LVL223:
 1615 0000 2DE9F041 		push	{r4, r5, r6, r7, r8, lr}
 1616              	.LCFI35:
 1617              		.cfi_def_cfa_offset 24
 1618              		.cfi_offset 4, -24
 1619              		.cfi_offset 5, -20
 1620              		.cfi_offset 6, -16
 1621              		.cfi_offset 7, -12
 1622              		.cfi_offset 8, -8
 1623              		.cfi_offset 14, -4
 1624 0004 82B0     		sub	sp, sp, #8
 1625              	.LCFI36:
 1626              		.cfi_def_cfa_offset 32
 1627 0006 0546     		mov	r5, r0
 1628 0008 9046     		mov	r8, r2
 1629 000a 1F46     		mov	r7, r3
 386:C:/Users/lenovo/Desktop/liteos/Project2/BearPi_LiteOS/components/connectivity/lwm2m/core\objects.c ****     targetP = (lwm2m_object_t *)LWM2M_LIST_FIND(contextP->objectList, uriP->objectId);
 1630              		.loc 1 386 0
 1631 000c 0C46     		mov	r4, r1
 1632 000e 41B3     		cbz	r1, .L150
 386:C:/Users/lenovo/Desktop/liteos/Project2/BearPi_LiteOS/components/connectivity/lwm2m/core\objects.c ****     targetP = (lwm2m_object_t *)LWM2M_LIST_FIND(contextP->objectList, uriP->objectId);
 1633              		.loc 1 386 0 is_stmt 0 discriminator 2
 1634 0010 4B88     		ldrh	r3, [r1, #2]
 1635              	.LVL224:
 1636 0012 4FF4C172 		mov	r2, #386
 1637              	.LVL225:
 1638 0016 1E49     		ldr	r1, .L153
 1639              	.LVL226:
 1640 0018 1E48     		ldr	r0, .L153+4
 1641              	.LVL227:
 1642 001a FFF7FEFF 		bl	atiny_printf
 1643              	.LVL228:
 1644 001e 2378     		ldrb	r3, [r4]	@ zero_extendqisi2
 1645 0020 13F0020F 		tst	r3, #2
 1646 0024 24D1     		bne	.L151
 1647              	.L143:
ARM GAS  c:\Users\lenovo\AppData\Local\Temp\ccdS8TBd.s 			page 48


 386:C:/Users/lenovo/Desktop/liteos/Project2/BearPi_LiteOS/components/connectivity/lwm2m/core\objects.c ****     targetP = (lwm2m_object_t *)LWM2M_LIST_FIND(contextP->objectList, uriP->objectId);
 1648              		.loc 1 386 0 discriminator 5
 1649 0026 2378     		ldrb	r3, [r4]	@ zero_extendqisi2
 1650 0028 13F0010F 		tst	r3, #1
 1651 002c 25D1     		bne	.L152
 1652              	.L144:
 386:C:/Users/lenovo/Desktop/liteos/Project2/BearPi_LiteOS/components/connectivity/lwm2m/core\objects.c ****     targetP = (lwm2m_object_t *)LWM2M_LIST_FIND(contextP->objectList, uriP->objectId);
 1653              		.loc 1 386 0 discriminator 8
 1654 002e 1A48     		ldr	r0, .L153+8
 1655 0030 FFF7FEFF 		bl	atiny_printf
 1656              	.LVL229:
 1657              	.L142:
 387:C:/Users/lenovo/Desktop/liteos/Project2/BearPi_LiteOS/components/connectivity/lwm2m/core\objects.c ****     if (NULL == targetP) return COAP_404_NOT_FOUND;
 1658              		.loc 1 387 0 is_stmt 1
 1659 0034 6188     		ldrh	r1, [r4, #2]
 1660 0036 A869     		ldr	r0, [r5, #24]
 1661 0038 FFF7FEFF 		bl	lwm2m_list_find
 1662              	.LVL230:
 388:C:/Users/lenovo/Desktop/liteos/Project2/BearPi_LiteOS/components/connectivity/lwm2m/core\objects.c ****     if (NULL == targetP->executeFunc) return COAP_405_METHOD_NOT_ALLOWED;
 1663              		.loc 1 388 0
 1664 003c 0546     		mov	r5, r0
 1665              	.LVL231:
 1666 003e 08B3     		cbz	r0, .L146
 389:C:/Users/lenovo/Desktop/liteos/Project2/BearPi_LiteOS/components/connectivity/lwm2m/core\objects.c ****     if (NULL == lwm2m_list_find(targetP->instanceList, uriP->instanceId)) return COAP_404_NOT_FOUND
 1667              		.loc 1 389 0
 1668 0040 4369     		ldr	r3, [r0, #20]
 1669 0042 0BB3     		cbz	r3, .L147
 390:C:/Users/lenovo/Desktop/liteos/Project2/BearPi_LiteOS/components/connectivity/lwm2m/core\objects.c **** 
 1670              		.loc 1 390 0
 1671 0044 A188     		ldrh	r1, [r4, #4]
 1672 0046 8068     		ldr	r0, [r0, #8]
 1673              	.LVL232:
 1674 0048 FFF7FEFF 		bl	lwm2m_list_find
 1675              	.LVL233:
 1676 004c F0B1     		cbz	r0, .L148
 392:C:/Users/lenovo/Desktop/liteos/Project2/BearPi_LiteOS/components/connectivity/lwm2m/core\objects.c **** }
 1677              		.loc 1 392 0
 1678 004e 6E69     		ldr	r6, [r5, #20]
 1679 0050 E188     		ldrh	r1, [r4, #6]
 1680 0052 A088     		ldrh	r0, [r4, #4]
 1681 0054 0095     		str	r5, [sp]
 1682 0056 3B46     		mov	r3, r7
 1683 0058 4246     		mov	r2, r8
 1684 005a B047     		blx	r6
 1685              	.LVL234:
 1686              	.L145:
 393:C:/Users/lenovo/Desktop/liteos/Project2/BearPi_LiteOS/components/connectivity/lwm2m/core\objects.c **** 
 1687              		.loc 1 393 0
 1688 005c 02B0     		add	sp, sp, #8
 1689              	.LCFI37:
 1690              		.cfi_remember_state
 1691              		.cfi_def_cfa_offset 24
 1692              		@ sp needed
 1693 005e BDE8F081 		pop	{r4, r5, r6, r7, r8, pc}
 1694              	.LVL235:
 1695              	.L150:
 1696              	.LCFI38:
ARM GAS  c:\Users\lenovo\AppData\Local\Temp\ccdS8TBd.s 			page 49


 1697              		.cfi_restore_state
 386:C:/Users/lenovo/Desktop/liteos/Project2/BearPi_LiteOS/components/connectivity/lwm2m/core\objects.c ****     targetP = (lwm2m_object_t *)LWM2M_LIST_FIND(contextP->objectList, uriP->objectId);
 1698              		.loc 1 386 0 discriminator 1
 1699 0062 4FF4C172 		mov	r2, #386
 1700              	.LVL236:
 1701 0066 0A49     		ldr	r1, .L153
 1702              	.LVL237:
 1703 0068 0C48     		ldr	r0, .L153+12
 1704              	.LVL238:
 1705 006a FFF7FEFF 		bl	atiny_printf
 1706              	.LVL239:
 1707 006e E1E7     		b	.L142
 1708              	.L151:
 386:C:/Users/lenovo/Desktop/liteos/Project2/BearPi_LiteOS/components/connectivity/lwm2m/core\objects.c ****     targetP = (lwm2m_object_t *)LWM2M_LIST_FIND(contextP->objectList, uriP->objectId);
 1709              		.loc 1 386 0 is_stmt 0 discriminator 3
 1710 0070 A188     		ldrh	r1, [r4, #4]
 1711 0072 0B48     		ldr	r0, .L153+16
 1712 0074 FFF7FEFF 		bl	atiny_printf
 1713              	.LVL240:
 1714 0078 D5E7     		b	.L143
 1715              	.L152:
 386:C:/Users/lenovo/Desktop/liteos/Project2/BearPi_LiteOS/components/connectivity/lwm2m/core\objects.c ****     targetP = (lwm2m_object_t *)LWM2M_LIST_FIND(contextP->objectList, uriP->objectId);
 1716              		.loc 1 386 0 discriminator 6
 1717 007a E188     		ldrh	r1, [r4, #6]
 1718 007c 0848     		ldr	r0, .L153+16
 1719 007e FFF7FEFF 		bl	atiny_printf
 1720              	.LVL241:
 1721 0082 D4E7     		b	.L144
 1722              	.LVL242:
 1723              	.L146:
 388:C:/Users/lenovo/Desktop/liteos/Project2/BearPi_LiteOS/components/connectivity/lwm2m/core\objects.c ****     if (NULL == targetP->executeFunc) return COAP_405_METHOD_NOT_ALLOWED;
 1724              		.loc 1 388 0 is_stmt 1
 1725 0084 8420     		movs	r0, #132
 1726              	.LVL243:
 1727 0086 E9E7     		b	.L145
 1728              	.LVL244:
 1729              	.L147:
 389:C:/Users/lenovo/Desktop/liteos/Project2/BearPi_LiteOS/components/connectivity/lwm2m/core\objects.c ****     if (NULL == lwm2m_list_find(targetP->instanceList, uriP->instanceId)) return COAP_404_NOT_FOUND
 1730              		.loc 1 389 0
 1731 0088 8520     		movs	r0, #133
 1732              	.LVL245:
 1733 008a E7E7     		b	.L145
 1734              	.L148:
 390:C:/Users/lenovo/Desktop/liteos/Project2/BearPi_LiteOS/components/connectivity/lwm2m/core\objects.c **** 
 1735              		.loc 1 390 0
 1736 008c 8420     		movs	r0, #132
 1737 008e E5E7     		b	.L145
 1738              	.L154:
 1739              		.align	2
 1740              	.L153:
 1741 0090 00000000 		.word	.LANCHOR5
 1742 0094 10000000 		.word	.LC1
 1743 0098 20000000 		.word	.LC3
 1744 009c 00000000 		.word	.LC0
 1745 00a0 1C000000 		.word	.LC2
 1746              		.cfi_endproc
 1747              	.LFE148:
ARM GAS  c:\Users\lenovo\AppData\Local\Temp\ccdS8TBd.s 			page 50


 1749              		.section	.text.object_create,"ax",%progbits
 1750              		.align	1
 1751              		.global	object_create
 1752              		.syntax unified
 1753              		.thumb
 1754              		.thumb_func
 1755              		.fpu fpv4-sp-d16
 1757              	object_create:
 1758              	.LFB149:
 400:C:/Users/lenovo/Desktop/liteos/Project2/BearPi_LiteOS/components/connectivity/lwm2m/core\objects.c ****     lwm2m_object_t *targetP;
 1759              		.loc 1 400 0
 1760              		.cfi_startproc
 1761              		@ args = 4, pretend = 0, frame = 8
 1762              		@ frame_needed = 0, uses_anonymous_args = 0
 1763              	.LVL246:
 1764 0000 2DE9F041 		push	{r4, r5, r6, r7, r8, lr}
 1765              	.LCFI39:
 1766              		.cfi_def_cfa_offset 24
 1767              		.cfi_offset 4, -24
 1768              		.cfi_offset 5, -20
 1769              		.cfi_offset 6, -16
 1770              		.cfi_offset 7, -12
 1771              		.cfi_offset 8, -8
 1772              		.cfi_offset 14, -4
 1773 0004 84B0     		sub	sp, sp, #16
 1774              	.LCFI40:
 1775              		.cfi_def_cfa_offset 40
 1776 0006 0746     		mov	r7, r0
 1777 0008 9046     		mov	r8, r2
 1778 000a 1E46     		mov	r6, r3
 1779 000c 0A9D     		ldr	r5, [sp, #40]
 402:C:/Users/lenovo/Desktop/liteos/Project2/BearPi_LiteOS/components/connectivity/lwm2m/core\objects.c ****     int size = 0;
 1780              		.loc 1 402 0
 1781 000e 0023     		movs	r3, #0
 1782              	.LVL247:
 1783 0010 0393     		str	r3, [sp, #12]
 1784              	.LVL248:
 406:C:/Users/lenovo/Desktop/liteos/Project2/BearPi_LiteOS/components/connectivity/lwm2m/core\objects.c **** 
 1785              		.loc 1 406 0
 1786 0012 0C46     		mov	r4, r1
 1787 0014 0029     		cmp	r1, #0
 1788 0016 33D0     		beq	.L175
 406:C:/Users/lenovo/Desktop/liteos/Project2/BearPi_LiteOS/components/connectivity/lwm2m/core\objects.c **** 
 1789              		.loc 1 406 0 is_stmt 0 discriminator 2
 1790 0018 4B88     		ldrh	r3, [r1, #2]
 1791 001a 4FF4CB72 		mov	r2, #406
 1792              	.LVL249:
 1793 001e 4849     		ldr	r1, .L180
 1794              	.LVL250:
 1795 0020 4848     		ldr	r0, .L180+4
 1796              	.LVL251:
 1797 0022 FFF7FEFF 		bl	atiny_printf
 1798              	.LVL252:
 1799 0026 2378     		ldrb	r3, [r4]	@ zero_extendqisi2
 1800 0028 13F0020F 		tst	r3, #2
 1801 002c 2FD1     		bne	.L176
 1802              	.L158:
ARM GAS  c:\Users\lenovo\AppData\Local\Temp\ccdS8TBd.s 			page 51


 406:C:/Users/lenovo/Desktop/liteos/Project2/BearPi_LiteOS/components/connectivity/lwm2m/core\objects.c **** 
 1803              		.loc 1 406 0 discriminator 5
 1804 002e 2378     		ldrb	r3, [r4]	@ zero_extendqisi2
 1805 0030 13F0010F 		tst	r3, #1
 1806 0034 30D1     		bne	.L177
 1807              	.L159:
 406:C:/Users/lenovo/Desktop/liteos/Project2/BearPi_LiteOS/components/connectivity/lwm2m/core\objects.c **** 
 1808              		.loc 1 406 0 discriminator 8
 1809 0036 4448     		ldr	r0, .L180+8
 1810 0038 FFF7FEFF 		bl	atiny_printf
 1811              	.LVL253:
 1812              	.L157:
 408:C:/Users/lenovo/Desktop/liteos/Project2/BearPi_LiteOS/components/connectivity/lwm2m/core\objects.c ****     {
 1813              		.loc 1 408 0 is_stmt 1
 1814 003c 002D     		cmp	r5, #0
 1815 003e 72D0     		beq	.L165
 408:C:/Users/lenovo/Desktop/liteos/Project2/BearPi_LiteOS/components/connectivity/lwm2m/core\objects.c ****     {
 1816              		.loc 1 408 0 is_stmt 0 discriminator 1
 1817 0040 002E     		cmp	r6, #0
 1818 0042 75D0     		beq	.L166
 413:C:/Users/lenovo/Desktop/liteos/Project2/BearPi_LiteOS/components/connectivity/lwm2m/core\objects.c ****     if (NULL == targetP) return COAP_404_NOT_FOUND;
 1819              		.loc 1 413 0 is_stmt 1
 1820 0044 6188     		ldrh	r1, [r4, #2]
 1821 0046 B869     		ldr	r0, [r7, #24]
 1822 0048 FFF7FEFF 		bl	lwm2m_list_find
 1823              	.LVL254:
 414:C:/Users/lenovo/Desktop/liteos/Project2/BearPi_LiteOS/components/connectivity/lwm2m/core\objects.c ****     if (NULL == targetP->createFunc) return COAP_405_METHOD_NOT_ALLOWED;
 1824              		.loc 1 414 0
 1825 004c 0746     		mov	r7, r0
 1826              	.LVL255:
 1827 004e 0028     		cmp	r0, #0
 1828 0050 70D0     		beq	.L167
 415:C:/Users/lenovo/Desktop/liteos/Project2/BearPi_LiteOS/components/connectivity/lwm2m/core\objects.c **** 
 1829              		.loc 1 415 0
 1830 0052 C369     		ldr	r3, [r0, #28]
 1831 0054 002B     		cmp	r3, #0
 1832 0056 6FD0     		beq	.L168
 417:C:/Users/lenovo/Desktop/liteos/Project2/BearPi_LiteOS/components/connectivity/lwm2m/core\objects.c ****     if (size <= 0) return COAP_400_BAD_REQUEST;
 1833              		.loc 1 417 0
 1834 0058 03AB     		add	r3, sp, #12
 1835 005a 0093     		str	r3, [sp]
 1836 005c 4346     		mov	r3, r8
 1837 005e 2A46     		mov	r2, r5
 1838 0060 3146     		mov	r1, r6
 1839 0062 2046     		mov	r0, r4
 1840              	.LVL256:
 1841 0064 FFF7FEFF 		bl	lwm2m_data_parse
 1842              	.LVL257:
 418:C:/Users/lenovo/Desktop/liteos/Project2/BearPi_LiteOS/components/connectivity/lwm2m/core\objects.c **** 
 1843              		.loc 1 418 0
 1844 0068 061E     		subs	r6, r0, #0
 1845              	.LVL258:
 1846 006a 67DD     		ble	.L169
 420:C:/Users/lenovo/Desktop/liteos/Project2/BearPi_LiteOS/components/connectivity/lwm2m/core\objects.c ****     {
 1847              		.loc 1 420 0
 1848 006c 039A     		ldr	r2, [sp, #12]
 1849 006e 1378     		ldrb	r3, [r2]	@ zero_extendqisi2
ARM GAS  c:\Users\lenovo\AppData\Local\Temp\ccdS8TBd.s 			page 52


 1850 0070 012B     		cmp	r3, #1
 1851 0072 54D0     		beq	.L170
 1852 0074 022B     		cmp	r3, #2
 1853 0076 2AD1     		bne	.L173
 427:C:/Users/lenovo/Desktop/liteos/Project2/BearPi_LiteOS/components/connectivity/lwm2m/core\objects.c ****         {
 1854              		.loc 1 427 0
 1855 0078 012E     		cmp	r6, #1
 1856 007a 12D0     		beq	.L178
 429:C:/Users/lenovo/Desktop/liteos/Project2/BearPi_LiteOS/components/connectivity/lwm2m/core\objects.c ****             goto exit;
 1857              		.loc 1 429 0
 1858 007c 8025     		movs	r5, #128
 1859 007e 31E0     		b	.L162
 1860              	.LVL259:
 1861              	.L175:
 406:C:/Users/lenovo/Desktop/liteos/Project2/BearPi_LiteOS/components/connectivity/lwm2m/core\objects.c **** 
 1862              		.loc 1 406 0 discriminator 1
 1863 0080 4FF4CB72 		mov	r2, #406
 1864              	.LVL260:
 1865 0084 2E49     		ldr	r1, .L180
 1866              	.LVL261:
 1867 0086 3148     		ldr	r0, .L180+12
 1868              	.LVL262:
 1869 0088 FFF7FEFF 		bl	atiny_printf
 1870              	.LVL263:
 1871 008c D6E7     		b	.L157
 1872              	.L176:
 406:C:/Users/lenovo/Desktop/liteos/Project2/BearPi_LiteOS/components/connectivity/lwm2m/core\objects.c **** 
 1873              		.loc 1 406 0 is_stmt 0 discriminator 3
 1874 008e A188     		ldrh	r1, [r4, #4]
 1875 0090 2F48     		ldr	r0, .L180+16
 1876 0092 FFF7FEFF 		bl	atiny_printf
 1877              	.LVL264:
 1878 0096 CAE7     		b	.L158
 1879              	.L177:
 406:C:/Users/lenovo/Desktop/liteos/Project2/BearPi_LiteOS/components/connectivity/lwm2m/core\objects.c **** 
 1880              		.loc 1 406 0 discriminator 6
 1881 0098 E188     		ldrh	r1, [r4, #6]
 1882 009a 2D48     		ldr	r0, .L180+16
 1883 009c FFF7FEFF 		bl	atiny_printf
 1884              	.LVL265:
 1885 00a0 C9E7     		b	.L159
 1886              	.LVL266:
 1887              	.L178:
 432:C:/Users/lenovo/Desktop/liteos/Project2/BearPi_LiteOS/components/connectivity/lwm2m/core\objects.c ****         {
 1888              		.loc 1 432 0 is_stmt 1
 1889 00a2 5188     		ldrh	r1, [r2, #2]
 1890 00a4 B868     		ldr	r0, [r7, #8]
 1891              	.LVL267:
 1892 00a6 FFF7FEFF 		bl	lwm2m_list_find
 1893              	.LVL268:
 1894 00aa 0028     		cmp	r0, #0
 1895 00ac 39D1     		bne	.L172
 438:C:/Users/lenovo/Desktop/liteos/Project2/BearPi_LiteOS/components/connectivity/lwm2m/core\objects.c ****         uriP->instanceId = dataP[0].id;
 1896              		.loc 1 438 0
 1897 00ae FD69     		ldr	r5, [r7, #28]
 1898 00b0 0398     		ldr	r0, [sp, #12]
 1899 00b2 3B46     		mov	r3, r7
ARM GAS  c:\Users\lenovo\AppData\Local\Temp\ccdS8TBd.s 			page 53


 1900 00b4 C268     		ldr	r2, [r0, #12]
 1901 00b6 8168     		ldr	r1, [r0, #8]
 1902 00b8 4088     		ldrh	r0, [r0, #2]
 1903 00ba A847     		blx	r5
 1904              	.LVL269:
 1905 00bc 0546     		mov	r5, r0
 1906              	.LVL270:
 439:C:/Users/lenovo/Desktop/liteos/Project2/BearPi_LiteOS/components/connectivity/lwm2m/core\objects.c ****         uriP->flag |= LWM2M_URI_FLAG_INSTANCE_ID;
 1907              		.loc 1 439 0
 1908 00be 039B     		ldr	r3, [sp, #12]
 1909 00c0 5B88     		ldrh	r3, [r3, #2]
 1910 00c2 A380     		strh	r3, [r4, #4]	@ movhi
 440:C:/Users/lenovo/Desktop/liteos/Project2/BearPi_LiteOS/components/connectivity/lwm2m/core\objects.c ****         break;
 1911              		.loc 1 440 0
 1912 00c4 2378     		ldrb	r3, [r4]	@ zero_extendqisi2
 1913 00c6 43F00203 		orr	r3, r3, #2
 1914 00ca 2370     		strb	r3, [r4]
 441:C:/Users/lenovo/Desktop/liteos/Project2/BearPi_LiteOS/components/connectivity/lwm2m/core\objects.c **** 
 1915              		.loc 1 441 0
 1916 00cc 0AE0     		b	.L162
 1917              	.LVL271:
 1918              	.L173:
 444:C:/Users/lenovo/Desktop/liteos/Project2/BearPi_LiteOS/components/connectivity/lwm2m/core\objects.c ****         {
 1919              		.loc 1 444 0
 1920 00ce 2378     		ldrb	r3, [r4]	@ zero_extendqisi2
 1921 00d0 13F0020F 		tst	r3, #2
 1922 00d4 1AD0     		beq	.L179
 1923              	.LVL272:
 1924              	.L164:
 449:C:/Users/lenovo/Desktop/liteos/Project2/BearPi_LiteOS/components/connectivity/lwm2m/core\objects.c ****         break;
 1925              		.loc 1 449 0
 1926 00d6 FD69     		ldr	r5, [r7, #28]
 1927 00d8 3B46     		mov	r3, r7
 1928 00da 039A     		ldr	r2, [sp, #12]
 1929 00dc 3146     		mov	r1, r6
 1930 00de A088     		ldrh	r0, [r4, #4]
 1931 00e0 A847     		blx	r5
 1932              	.LVL273:
 1933 00e2 0546     		mov	r5, r0
 1934              	.LVL274:
 1935              	.L162:
 454:C:/Users/lenovo/Desktop/liteos/Project2/BearPi_LiteOS/components/connectivity/lwm2m/core\objects.c **** 
 1936              		.loc 1 454 0
 1937 00e4 0399     		ldr	r1, [sp, #12]
 1938 00e6 3046     		mov	r0, r6
 1939 00e8 FFF7FEFF 		bl	lwm2m_data_free
 1940              	.LVL275:
 456:C:/Users/lenovo/Desktop/liteos/Project2/BearPi_LiteOS/components/connectivity/lwm2m/core\objects.c **** 
 1941              		.loc 1 456 0
 1942 00ec FFF7FEFF 		bl	lwm2m_gettime
 1943              	.LVL276:
 1944 00f0 C5F34713 		ubfx	r3, r5, #5, #8
 1945 00f4 05F01F02 		and	r2, r5, #31
 1946 00f8 0192     		str	r2, [sp, #4]
 1947 00fa 0093     		str	r3, [sp]
 1948 00fc 4FF4E473 		mov	r3, #456
 1949 0100 0F4A     		ldr	r2, .L180
ARM GAS  c:\Users\lenovo\AppData\Local\Temp\ccdS8TBd.s 			page 54


 1950 0102 0146     		mov	r1, r0
 1951 0104 1348     		ldr	r0, .L180+20
 1952 0106 FFF7FEFF 		bl	atiny_printf
 1953              	.LVL277:
 458:C:/Users/lenovo/Desktop/liteos/Project2/BearPi_LiteOS/components/connectivity/lwm2m/core\objects.c **** }
 1954              		.loc 1 458 0
 1955 010a 0DE0     		b	.L160
 1956              	.LVL278:
 1957              	.L179:
 446:C:/Users/lenovo/Desktop/liteos/Project2/BearPi_LiteOS/components/connectivity/lwm2m/core\objects.c ****             uriP->flag |= LWM2M_URI_FLAG_INSTANCE_ID;
 1958              		.loc 1 446 0
 1959 010c B868     		ldr	r0, [r7, #8]
 1960              	.LVL279:
 1961 010e FFF7FEFF 		bl	lwm2m_list_newId
 1962              	.LVL280:
 1963 0112 A080     		strh	r0, [r4, #4]	@ movhi
 447:C:/Users/lenovo/Desktop/liteos/Project2/BearPi_LiteOS/components/connectivity/lwm2m/core\objects.c ****         }
 1964              		.loc 1 447 0
 1965 0114 2378     		ldrb	r3, [r4]	@ zero_extendqisi2
 1966 0116 43F00203 		orr	r3, r3, #2
 1967 011a 2370     		strb	r3, [r4]
 1968 011c DBE7     		b	.L164
 1969              	.LVL281:
 1970              	.L170:
 423:C:/Users/lenovo/Desktop/liteos/Project2/BearPi_LiteOS/components/connectivity/lwm2m/core\objects.c ****         goto exit;
 1971              		.loc 1 423 0
 1972 011e 8025     		movs	r5, #128
 1973 0120 E0E7     		b	.L162
 1974              	.LVL282:
 1975              	.L172:
 435:C:/Users/lenovo/Desktop/liteos/Project2/BearPi_LiteOS/components/connectivity/lwm2m/core\objects.c ****             goto exit;
 1976              		.loc 1 435 0
 1977 0122 8625     		movs	r5, #134
 1978 0124 DEE7     		b	.L162
 1979              	.LVL283:
 1980              	.L165:
 410:C:/Users/lenovo/Desktop/liteos/Project2/BearPi_LiteOS/components/connectivity/lwm2m/core\objects.c ****     }
 1981              		.loc 1 410 0
 1982 0126 8025     		movs	r5, #128
 1983              	.LVL284:
 1984              	.L160:
 459:C:/Users/lenovo/Desktop/liteos/Project2/BearPi_LiteOS/components/connectivity/lwm2m/core\objects.c **** 
 1985              		.loc 1 459 0
 1986 0128 2846     		mov	r0, r5
 1987 012a 04B0     		add	sp, sp, #16
 1988              	.LCFI41:
 1989              		.cfi_remember_state
 1990              		.cfi_def_cfa_offset 24
 1991              		@ sp needed
 1992 012c BDE8F081 		pop	{r4, r5, r6, r7, r8, pc}
 1993              	.LVL285:
 1994              	.L166:
 1995              	.LCFI42:
 1996              		.cfi_restore_state
 410:C:/Users/lenovo/Desktop/liteos/Project2/BearPi_LiteOS/components/connectivity/lwm2m/core\objects.c ****     }
 1997              		.loc 1 410 0
 1998 0130 8025     		movs	r5, #128
ARM GAS  c:\Users\lenovo\AppData\Local\Temp\ccdS8TBd.s 			page 55


 1999 0132 F9E7     		b	.L160
 2000              	.LVL286:
 2001              	.L167:
 414:C:/Users/lenovo/Desktop/liteos/Project2/BearPi_LiteOS/components/connectivity/lwm2m/core\objects.c ****     if (NULL == targetP->createFunc) return COAP_405_METHOD_NOT_ALLOWED;
 2002              		.loc 1 414 0
 2003 0134 8425     		movs	r5, #132
 2004 0136 F7E7     		b	.L160
 2005              	.L168:
 415:C:/Users/lenovo/Desktop/liteos/Project2/BearPi_LiteOS/components/connectivity/lwm2m/core\objects.c **** 
 2006              		.loc 1 415 0
 2007 0138 8525     		movs	r5, #133
 2008 013a F5E7     		b	.L160
 2009              	.LVL287:
 2010              	.L169:
 418:C:/Users/lenovo/Desktop/liteos/Project2/BearPi_LiteOS/components/connectivity/lwm2m/core\objects.c **** 
 2011              		.loc 1 418 0
 2012 013c 8025     		movs	r5, #128
 2013 013e F3E7     		b	.L160
 2014              	.L181:
 2015              		.align	2
 2016              	.L180:
 2017 0140 00000000 		.word	.LANCHOR6
 2018 0144 10000000 		.word	.LC1
 2019 0148 20000000 		.word	.LC3
 2020 014c 00000000 		.word	.LC0
 2021 0150 1C000000 		.word	.LC2
 2022 0154 00000000 		.word	.LC6
 2023              		.cfi_endproc
 2024              	.LFE149:
 2026              		.section	.text.object_delete,"ax",%progbits
 2027              		.align	1
 2028              		.global	object_delete
 2029              		.syntax unified
 2030              		.thumb
 2031              		.thumb_func
 2032              		.fpu fpv4-sp-d16
 2034              	object_delete:
 2035              	.LFB150:
 463:C:/Users/lenovo/Desktop/liteos/Project2/BearPi_LiteOS/components/connectivity/lwm2m/core\objects.c ****     lwm2m_object_t *objectP;
 2036              		.loc 1 463 0
 2037              		.cfi_startproc
 2038              		@ args = 0, pretend = 0, frame = 0
 2039              		@ frame_needed = 0, uses_anonymous_args = 0
 2040              	.LVL288:
 2041 0000 F0B5     		push	{r4, r5, r6, r7, lr}
 2042              	.LCFI43:
 2043              		.cfi_def_cfa_offset 20
 2044              		.cfi_offset 4, -20
 2045              		.cfi_offset 5, -16
 2046              		.cfi_offset 6, -12
 2047              		.cfi_offset 7, -8
 2048              		.cfi_offset 14, -4
 2049 0002 83B0     		sub	sp, sp, #12
 2050              	.LCFI44:
 2051              		.cfi_def_cfa_offset 32
 2052 0004 0746     		mov	r7, r0
 467:C:/Users/lenovo/Desktop/liteos/Project2/BearPi_LiteOS/components/connectivity/lwm2m/core\objects.c ****     objectP = (lwm2m_object_t *)LWM2M_LIST_FIND(contextP->objectList, uriP->objectId);
ARM GAS  c:\Users\lenovo\AppData\Local\Temp\ccdS8TBd.s 			page 56


 2053              		.loc 1 467 0
 2054 0006 0C46     		mov	r4, r1
 2055 0008 0029     		cmp	r1, #0
 2056 000a 41D0     		beq	.L196
 467:C:/Users/lenovo/Desktop/liteos/Project2/BearPi_LiteOS/components/connectivity/lwm2m/core\objects.c ****     objectP = (lwm2m_object_t *)LWM2M_LIST_FIND(contextP->objectList, uriP->objectId);
 2057              		.loc 1 467 0 is_stmt 0 discriminator 2
 2058 000c 4B88     		ldrh	r3, [r1, #2]
 2059 000e 40F2D312 		movw	r2, #467
 2060 0012 3B49     		ldr	r1, .L200
 2061              	.LVL289:
 2062 0014 3B48     		ldr	r0, .L200+4
 2063              	.LVL290:
 2064 0016 FFF7FEFF 		bl	atiny_printf
 2065              	.LVL291:
 2066 001a 2378     		ldrb	r3, [r4]	@ zero_extendqisi2
 2067 001c 13F0020F 		tst	r3, #2
 2068 0020 3DD1     		bne	.L197
 2069              	.L185:
 467:C:/Users/lenovo/Desktop/liteos/Project2/BearPi_LiteOS/components/connectivity/lwm2m/core\objects.c ****     objectP = (lwm2m_object_t *)LWM2M_LIST_FIND(contextP->objectList, uriP->objectId);
 2070              		.loc 1 467 0 discriminator 5
 2071 0022 2378     		ldrb	r3, [r4]	@ zero_extendqisi2
 2072 0024 13F0010F 		tst	r3, #1
 2073 0028 3ED1     		bne	.L198
 2074              	.L186:
 467:C:/Users/lenovo/Desktop/liteos/Project2/BearPi_LiteOS/components/connectivity/lwm2m/core\objects.c ****     objectP = (lwm2m_object_t *)LWM2M_LIST_FIND(contextP->objectList, uriP->objectId);
 2075              		.loc 1 467 0 discriminator 8
 2076 002a 3748     		ldr	r0, .L200+8
 2077 002c FFF7FEFF 		bl	atiny_printf
 2078              	.LVL292:
 2079              	.L184:
 468:C:/Users/lenovo/Desktop/liteos/Project2/BearPi_LiteOS/components/connectivity/lwm2m/core\objects.c ****     if (NULL == objectP) return COAP_404_NOT_FOUND;
 2080              		.loc 1 468 0 is_stmt 1
 2081 0030 6188     		ldrh	r1, [r4, #2]
 2082 0032 B869     		ldr	r0, [r7, #24]
 2083 0034 FFF7FEFF 		bl	lwm2m_list_find
 2084              	.LVL293:
 469:C:/Users/lenovo/Desktop/liteos/Project2/BearPi_LiteOS/components/connectivity/lwm2m/core\objects.c ****     if (NULL == objectP->deleteFunc) return COAP_405_METHOD_NOT_ALLOWED;
 2085              		.loc 1 469 0
 2086 0038 0646     		mov	r6, r0
 2087 003a 0028     		cmp	r0, #0
 2088 003c 5CD0     		beq	.L193
 470:C:/Users/lenovo/Desktop/liteos/Project2/BearPi_LiteOS/components/connectivity/lwm2m/core\objects.c **** 
 2089              		.loc 1 470 0
 2090 003e 036A     		ldr	r3, [r0, #32]
 2091 0040 002B     		cmp	r3, #0
 2092 0042 5BD0     		beq	.L194
 472:C:/Users/lenovo/Desktop/liteos/Project2/BearPi_LiteOS/components/connectivity/lwm2m/core\objects.c **** 
 2093              		.loc 1 472 0
 2094 0044 FFF7FEFF 		bl	lwm2m_gettime
 2095              	.LVL294:
 2096 0048 4FF4EC73 		mov	r3, #472
 2097 004c 2C4A     		ldr	r2, .L200
 2098 004e 0146     		mov	r1, r0
 2099 0050 2E48     		ldr	r0, .L200+12
 2100 0052 FFF7FEFF 		bl	atiny_printf
 2101              	.LVL295:
 474:C:/Users/lenovo/Desktop/liteos/Project2/BearPi_LiteOS/components/connectivity/lwm2m/core\objects.c ****     {
ARM GAS  c:\Users\lenovo\AppData\Local\Temp\ccdS8TBd.s 			page 57


 2102              		.loc 1 474 0
 2103 0056 2378     		ldrb	r3, [r4]	@ zero_extendqisi2
 2104 0058 13F0020F 		tst	r3, #2
 2105 005c 2ED0     		beq	.L188
 476:C:/Users/lenovo/Desktop/liteos/Project2/BearPi_LiteOS/components/connectivity/lwm2m/core\objects.c ****         if (result == COAP_202_DELETED)
 2106              		.loc 1 476 0
 2107 005e 336A     		ldr	r3, [r6, #32]
 2108 0060 3146     		mov	r1, r6
 2109 0062 A088     		ldrh	r0, [r4, #4]
 2110 0064 9847     		blx	r3
 2111              	.LVL296:
 2112 0066 0546     		mov	r5, r0
 2113              	.LVL297:
 477:C:/Users/lenovo/Desktop/liteos/Project2/BearPi_LiteOS/components/connectivity/lwm2m/core\objects.c ****         {
 2114              		.loc 1 477 0
 2115 0068 4228     		cmp	r0, #66
 2116 006a 22D0     		beq	.L199
 2117              	.LVL298:
 2118              	.L189:
 503:C:/Users/lenovo/Desktop/liteos/Project2/BearPi_LiteOS/components/connectivity/lwm2m/core\objects.c **** 
 2119              		.loc 1 503 0
 2120 006c FFF7FEFF 		bl	lwm2m_gettime
 2121              	.LVL299:
 2122 0070 C5F34713 		ubfx	r3, r5, #5, #8
 2123 0074 05F01F02 		and	r2, r5, #31
 2124 0078 0192     		str	r2, [sp, #4]
 2125 007a 0093     		str	r3, [sp]
 2126 007c 40F2F713 		movw	r3, #503
 2127 0080 1F4A     		ldr	r2, .L200
 2128 0082 0146     		mov	r1, r0
 2129 0084 2248     		ldr	r0, .L200+16
 2130 0086 FFF7FEFF 		bl	atiny_printf
 2131              	.LVL300:
 2132              	.L187:
 506:C:/Users/lenovo/Desktop/liteos/Project2/BearPi_LiteOS/components/connectivity/lwm2m/core\objects.c **** 
 2133              		.loc 1 506 0
 2134 008a 2846     		mov	r0, r5
 2135 008c 03B0     		add	sp, sp, #12
 2136              	.LCFI45:
 2137              		.cfi_remember_state
 2138              		.cfi_def_cfa_offset 20
 2139              		@ sp needed
 2140 008e F0BD     		pop	{r4, r5, r6, r7, pc}
 2141              	.LVL301:
 2142              	.L196:
 2143              	.LCFI46:
 2144              		.cfi_restore_state
 467:C:/Users/lenovo/Desktop/liteos/Project2/BearPi_LiteOS/components/connectivity/lwm2m/core\objects.c ****     objectP = (lwm2m_object_t *)LWM2M_LIST_FIND(contextP->objectList, uriP->objectId);
 2145              		.loc 1 467 0 discriminator 1
 2146 0090 40F2D312 		movw	r2, #467
 2147 0094 1A49     		ldr	r1, .L200
 2148              	.LVL302:
 2149 0096 1F48     		ldr	r0, .L200+20
 2150              	.LVL303:
 2151 0098 FFF7FEFF 		bl	atiny_printf
 2152              	.LVL304:
 2153 009c C8E7     		b	.L184
ARM GAS  c:\Users\lenovo\AppData\Local\Temp\ccdS8TBd.s 			page 58


 2154              	.L197:
 467:C:/Users/lenovo/Desktop/liteos/Project2/BearPi_LiteOS/components/connectivity/lwm2m/core\objects.c ****     objectP = (lwm2m_object_t *)LWM2M_LIST_FIND(contextP->objectList, uriP->objectId);
 2155              		.loc 1 467 0 is_stmt 0 discriminator 3
 2156 009e A188     		ldrh	r1, [r4, #4]
 2157 00a0 1D48     		ldr	r0, .L200+24
 2158 00a2 FFF7FEFF 		bl	atiny_printf
 2159              	.LVL305:
 2160 00a6 BCE7     		b	.L185
 2161              	.L198:
 467:C:/Users/lenovo/Desktop/liteos/Project2/BearPi_LiteOS/components/connectivity/lwm2m/core\objects.c ****     objectP = (lwm2m_object_t *)LWM2M_LIST_FIND(contextP->objectList, uriP->objectId);
 2162              		.loc 1 467 0 discriminator 6
 2163 00a8 E188     		ldrh	r1, [r4, #6]
 2164 00aa 1B48     		ldr	r0, .L200+24
 2165 00ac FFF7FEFF 		bl	atiny_printf
 2166              	.LVL306:
 2167 00b0 BBE7     		b	.L186
 2168              	.LVL307:
 2169              	.L199:
 479:C:/Users/lenovo/Desktop/liteos/Project2/BearPi_LiteOS/components/connectivity/lwm2m/core\objects.c ****         }
 2170              		.loc 1 479 0 is_stmt 1
 2171 00b2 2146     		mov	r1, r4
 2172 00b4 3846     		mov	r0, r7
 2173              	.LVL308:
 2174 00b6 FFF7FEFF 		bl	observe_clear
 2175              	.LVL309:
 2176 00ba D7E7     		b	.L189
 2177              	.L188:
 2178              	.LVL310:
 2179              	.LBB7:
 487:C:/Users/lenovo/Desktop/liteos/Project2/BearPi_LiteOS/components/connectivity/lwm2m/core\objects.c ****         while (NULL != instanceP
 2180              		.loc 1 487 0
 2181 00bc B368     		ldr	r3, [r6, #8]
 2182              	.LVL311:
 486:C:/Users/lenovo/Desktop/liteos/Project2/BearPi_LiteOS/components/connectivity/lwm2m/core\objects.c ****         instanceP = objectP->instanceList;
 2183              		.loc 1 486 0
 2184 00be 4225     		movs	r5, #66
 488:C:/Users/lenovo/Desktop/liteos/Project2/BearPi_LiteOS/components/connectivity/lwm2m/core\objects.c ****                 && result == COAP_202_DELETED)
 2185              		.loc 1 488 0
 2186 00c0 00E0     		b	.L190
 2187              	.LVL312:
 2188              	.L191:
 499:C:/Users/lenovo/Desktop/liteos/Project2/BearPi_LiteOS/components/connectivity/lwm2m/core\objects.c ****         }
 2189              		.loc 1 499 0
 2190 00c2 B368     		ldr	r3, [r6, #8]
 2191              	.LVL313:
 2192              	.L190:
 488:C:/Users/lenovo/Desktop/liteos/Project2/BearPi_LiteOS/components/connectivity/lwm2m/core\objects.c ****                 && result == COAP_202_DELETED)
 2193              		.loc 1 488 0
 2194 00c4 002B     		cmp	r3, #0
 2195 00c6 D1D0     		beq	.L189
 489:C:/Users/lenovo/Desktop/liteos/Project2/BearPi_LiteOS/components/connectivity/lwm2m/core\objects.c ****         {
 2196              		.loc 1 489 0
 2197 00c8 422D     		cmp	r5, #66
 2198 00ca CFD1     		bne	.L189
 491:C:/Users/lenovo/Desktop/liteos/Project2/BearPi_LiteOS/components/connectivity/lwm2m/core\objects.c ****             result = objectP->deleteFunc(instanceP->id, objectP);
 2199              		.loc 1 491 0
 2200 00cc 9A88     		ldrh	r2, [r3, #4]
ARM GAS  c:\Users\lenovo\AppData\Local\Temp\ccdS8TBd.s 			page 59


 2201 00ce A280     		strh	r2, [r4, #4]	@ movhi
 492:C:/Users/lenovo/Desktop/liteos/Project2/BearPi_LiteOS/components/connectivity/lwm2m/core\objects.c ****             if (result == COAP_202_DELETED)
 2202              		.loc 1 492 0
 2203 00d0 326A     		ldr	r2, [r6, #32]
 2204 00d2 3146     		mov	r1, r6
 2205 00d4 9888     		ldrh	r0, [r3, #4]
 2206 00d6 9047     		blx	r2
 2207              	.LVL314:
 2208 00d8 0546     		mov	r5, r0
 2209              	.LVL315:
 493:C:/Users/lenovo/Desktop/liteos/Project2/BearPi_LiteOS/components/connectivity/lwm2m/core\objects.c ****             {
 2210              		.loc 1 493 0
 2211 00da 4228     		cmp	r0, #66
 2212 00dc F1D1     		bne	.L191
 495:C:/Users/lenovo/Desktop/liteos/Project2/BearPi_LiteOS/components/connectivity/lwm2m/core\objects.c ****                 observe_clear(contextP, uriP);
 2213              		.loc 1 495 0
 2214 00de 2378     		ldrb	r3, [r4]	@ zero_extendqisi2
 2215 00e0 43F00203 		orr	r3, r3, #2
 2216 00e4 2370     		strb	r3, [r4]
 496:C:/Users/lenovo/Desktop/liteos/Project2/BearPi_LiteOS/components/connectivity/lwm2m/core\objects.c ****                 uriP->flag &= ~LWM2M_URI_FLAG_INSTANCE_ID;
 2217              		.loc 1 496 0
 2218 00e6 2146     		mov	r1, r4
 2219 00e8 3846     		mov	r0, r7
 2220              	.LVL316:
 2221 00ea FFF7FEFF 		bl	observe_clear
 2222              	.LVL317:
 497:C:/Users/lenovo/Desktop/liteos/Project2/BearPi_LiteOS/components/connectivity/lwm2m/core\objects.c ****             }
 2223              		.loc 1 497 0
 2224 00ee 2378     		ldrb	r3, [r4]	@ zero_extendqisi2
 2225 00f0 23F00203 		bic	r3, r3, #2
 2226 00f4 2370     		strb	r3, [r4]
 2227 00f6 E4E7     		b	.L191
 2228              	.LVL318:
 2229              	.L193:
 2230              	.LBE7:
 469:C:/Users/lenovo/Desktop/liteos/Project2/BearPi_LiteOS/components/connectivity/lwm2m/core\objects.c ****     if (NULL == objectP->deleteFunc) return COAP_405_METHOD_NOT_ALLOWED;
 2231              		.loc 1 469 0
 2232 00f8 8425     		movs	r5, #132
 2233 00fa C6E7     		b	.L187
 2234              	.L194:
 470:C:/Users/lenovo/Desktop/liteos/Project2/BearPi_LiteOS/components/connectivity/lwm2m/core\objects.c **** 
 2235              		.loc 1 470 0
 2236 00fc 8525     		movs	r5, #133
 2237 00fe C4E7     		b	.L187
 2238              	.L201:
 2239              		.align	2
 2240              	.L200:
 2241 0100 00000000 		.word	.LANCHOR7
 2242 0104 10000000 		.word	.LC1
 2243 0108 20000000 		.word	.LC3
 2244 010c 00000000 		.word	.LC7
 2245 0110 00000000 		.word	.LC6
 2246 0114 00000000 		.word	.LC0
 2247 0118 1C000000 		.word	.LC2
 2248              		.cfi_endproc
 2249              	.LFE150:
 2251              		.section	.text.object_discover,"ax",%progbits
ARM GAS  c:\Users\lenovo\AppData\Local\Temp\ccdS8TBd.s 			page 60


 2252              		.align	1
 2253              		.global	object_discover
 2254              		.syntax unified
 2255              		.thumb
 2256              		.thumb_func
 2257              		.fpu fpv4-sp-d16
 2259              	object_discover:
 2260              	.LFB151:
 513:C:/Users/lenovo/Desktop/liteos/Project2/BearPi_LiteOS/components/connectivity/lwm2m/core\objects.c ****     uint8_t result;
 2261              		.loc 1 513 0
 2262              		.cfi_startproc
 2263              		@ args = 4, pretend = 0, frame = 16
 2264              		@ frame_needed = 0, uses_anonymous_args = 0
 2265              	.LVL319:
 2266 0000 2DE9F04F 		push	{r4, r5, r6, r7, r8, r9, r10, fp, lr}
 2267              	.LCFI47:
 2268              		.cfi_def_cfa_offset 36
 2269              		.cfi_offset 4, -36
 2270              		.cfi_offset 5, -32
 2271              		.cfi_offset 6, -28
 2272              		.cfi_offset 7, -24
 2273              		.cfi_offset 8, -20
 2274              		.cfi_offset 9, -16
 2275              		.cfi_offset 10, -12
 2276              		.cfi_offset 11, -8
 2277              		.cfi_offset 14, -4
 2278 0004 87B0     		sub	sp, sp, #28
 2279              	.LCFI48:
 2280              		.cfi_def_cfa_offset 64
 2281 0006 8246     		mov	r10, r0
 2282 0008 0392     		str	r2, [sp, #12]
 2283 000a 9B46     		mov	fp, r3
 516:C:/Users/lenovo/Desktop/liteos/Project2/BearPi_LiteOS/components/connectivity/lwm2m/core\objects.c ****     int size = 0;
 2284              		.loc 1 516 0
 2285 000c 0023     		movs	r3, #0
 2286              	.LVL320:
 2287 000e 0593     		str	r3, [sp, #20]
 517:C:/Users/lenovo/Desktop/liteos/Project2/BearPi_LiteOS/components/connectivity/lwm2m/core\objects.c **** 
 2288              		.loc 1 517 0
 2289 0010 0493     		str	r3, [sp, #16]
 519:C:/Users/lenovo/Desktop/liteos/Project2/BearPi_LiteOS/components/connectivity/lwm2m/core\objects.c ****     targetP = (lwm2m_object_t *)LWM2M_LIST_FIND(contextP->objectList, uriP->objectId);
 2290              		.loc 1 519 0
 2291 0012 0C46     		mov	r4, r1
 2292 0014 31B3     		cbz	r1, .L226
 519:C:/Users/lenovo/Desktop/liteos/Project2/BearPi_LiteOS/components/connectivity/lwm2m/core\objects.c ****     targetP = (lwm2m_object_t *)LWM2M_LIST_FIND(contextP->objectList, uriP->objectId);
 2293              		.loc 1 519 0 is_stmt 0 discriminator 2
 2294 0016 4B88     		ldrh	r3, [r1, #2]
 2295 0018 40F20722 		movw	r2, #519
 2296              	.LVL321:
 2297 001c 5A49     		ldr	r1, .L232
 2298              	.LVL322:
 2299 001e 5B48     		ldr	r0, .L232+4
 2300              	.LVL323:
 2301 0020 FFF7FEFF 		bl	atiny_printf
 2302              	.LVL324:
 2303 0024 2378     		ldrb	r3, [r4]	@ zero_extendqisi2
 2304 0026 13F0020F 		tst	r3, #2
ARM GAS  c:\Users\lenovo\AppData\Local\Temp\ccdS8TBd.s 			page 61


 2305 002a 22D1     		bne	.L227
 2306              	.L205:
 519:C:/Users/lenovo/Desktop/liteos/Project2/BearPi_LiteOS/components/connectivity/lwm2m/core\objects.c ****     targetP = (lwm2m_object_t *)LWM2M_LIST_FIND(contextP->objectList, uriP->objectId);
 2307              		.loc 1 519 0 discriminator 5
 2308 002c 2378     		ldrb	r3, [r4]	@ zero_extendqisi2
 2309 002e 13F0010F 		tst	r3, #1
 2310 0032 23D1     		bne	.L228
 2311              	.L206:
 519:C:/Users/lenovo/Desktop/liteos/Project2/BearPi_LiteOS/components/connectivity/lwm2m/core\objects.c ****     targetP = (lwm2m_object_t *)LWM2M_LIST_FIND(contextP->objectList, uriP->objectId);
 2312              		.loc 1 519 0 discriminator 8
 2313 0034 5648     		ldr	r0, .L232+8
 2314 0036 FFF7FEFF 		bl	atiny_printf
 2315              	.LVL325:
 2316              	.L204:
 520:C:/Users/lenovo/Desktop/liteos/Project2/BearPi_LiteOS/components/connectivity/lwm2m/core\objects.c ****     if (NULL == targetP) return COAP_404_NOT_FOUND;
 2317              		.loc 1 520 0 is_stmt 1
 2318 003a 6188     		ldrh	r1, [r4, #2]
 2319 003c DAF81800 		ldr	r0, [r10, #24]
 2320 0040 FFF7FEFF 		bl	lwm2m_list_find
 2321              	.LVL326:
 521:C:/Users/lenovo/Desktop/liteos/Project2/BearPi_LiteOS/components/connectivity/lwm2m/core\objects.c ****     if (NULL == targetP->discoverFunc) return COAP_501_NOT_IMPLEMENTED;
 2322              		.loc 1 521 0
 2323 0044 0646     		mov	r6, r0
 2324 0046 0028     		cmp	r0, #0
 2325 0048 00F09480 		beq	.L217
 522:C:/Users/lenovo/Desktop/liteos/Project2/BearPi_LiteOS/components/connectivity/lwm2m/core\objects.c **** 
 2326              		.loc 1 522 0
 2327 004c 436A     		ldr	r3, [r0, #36]
 2328 004e 002B     		cmp	r3, #0
 2329 0050 00F09280 		beq	.L218
 524:C:/Users/lenovo/Desktop/liteos/Project2/BearPi_LiteOS/components/connectivity/lwm2m/core\objects.c ****     {
 2330              		.loc 1 524 0
 2331 0054 2378     		ldrb	r3, [r4]	@ zero_extendqisi2
 2332 0056 13F0020F 		tst	r3, #2
 2333 005a 14D1     		bne	.L229
 2334              	.LVL327:
 2335              	.LBB8:
 548:C:/Users/lenovo/Desktop/liteos/Project2/BearPi_LiteOS/components/connectivity/lwm2m/core\objects.c ****         for (instanceP = targetP->instanceList; instanceP != NULL ; instanceP = instanceP->next)
 2336              		.loc 1 548 0
 2337 005c 0023     		movs	r3, #0
 2338 005e 0493     		str	r3, [sp, #16]
 549:C:/Users/lenovo/Desktop/liteos/Project2/BearPi_LiteOS/components/connectivity/lwm2m/core\objects.c ****         {
 2339              		.loc 1 549 0
 2340 0060 8268     		ldr	r2, [r0, #8]
 2341              	.LVL328:
 2342 0062 32E0     		b	.L211
 2343              	.LVL329:
 2344              	.L226:
 2345              	.LBE8:
 519:C:/Users/lenovo/Desktop/liteos/Project2/BearPi_LiteOS/components/connectivity/lwm2m/core\objects.c ****     targetP = (lwm2m_object_t *)LWM2M_LIST_FIND(contextP->objectList, uriP->objectId);
 2346              		.loc 1 519 0 discriminator 1
 2347 0064 40F20722 		movw	r2, #519
 2348              	.LVL330:
 2349 0068 4749     		ldr	r1, .L232
 2350              	.LVL331:
 2351 006a 4A48     		ldr	r0, .L232+12
 2352              	.LVL332:
ARM GAS  c:\Users\lenovo\AppData\Local\Temp\ccdS8TBd.s 			page 62


 2353 006c FFF7FEFF 		bl	atiny_printf
 2354              	.LVL333:
 2355 0070 E3E7     		b	.L204
 2356              	.L227:
 519:C:/Users/lenovo/Desktop/liteos/Project2/BearPi_LiteOS/components/connectivity/lwm2m/core\objects.c ****     targetP = (lwm2m_object_t *)LWM2M_LIST_FIND(contextP->objectList, uriP->objectId);
 2357              		.loc 1 519 0 is_stmt 0 discriminator 3
 2358 0072 A188     		ldrh	r1, [r4, #4]
 2359 0074 4848     		ldr	r0, .L232+16
 2360 0076 FFF7FEFF 		bl	atiny_printf
 2361              	.LVL334:
 2362 007a D7E7     		b	.L205
 2363              	.L228:
 519:C:/Users/lenovo/Desktop/liteos/Project2/BearPi_LiteOS/components/connectivity/lwm2m/core\objects.c ****     targetP = (lwm2m_object_t *)LWM2M_LIST_FIND(contextP->objectList, uriP->objectId);
 2364              		.loc 1 519 0 discriminator 6
 2365 007c E188     		ldrh	r1, [r4, #6]
 2366 007e 4648     		ldr	r0, .L232+16
 2367 0080 FFF7FEFF 		bl	atiny_printf
 2368              	.LVL335:
 2369 0084 D6E7     		b	.L206
 2370              	.LVL336:
 2371              	.L229:
 526:C:/Users/lenovo/Desktop/liteos/Project2/BearPi_LiteOS/components/connectivity/lwm2m/core\objects.c **** 
 2372              		.loc 1 526 0 is_stmt 1
 2373 0086 A188     		ldrh	r1, [r4, #4]
 2374 0088 8068     		ldr	r0, [r0, #8]
 2375              	.LVL337:
 2376 008a FFF7FEFF 		bl	lwm2m_list_find
 2377              	.LVL338:
 2378 008e 0028     		cmp	r0, #0
 2379 0090 74D0     		beq	.L219
 529:C:/Users/lenovo/Desktop/liteos/Project2/BearPi_LiteOS/components/connectivity/lwm2m/core\objects.c ****         {
 2380              		.loc 1 529 0
 2381 0092 2378     		ldrb	r3, [r4]	@ zero_extendqisi2
 2382 0094 13F0010F 		tst	r3, #1
 2383 0098 09D1     		bne	.L230
 2384              	.L209:
 538:C:/Users/lenovo/Desktop/liteos/Project2/BearPi_LiteOS/components/connectivity/lwm2m/core\objects.c ****     }
 2385              		.loc 1 538 0
 2386 009a 756A     		ldr	r5, [r6, #36]
 2387 009c 3346     		mov	r3, r6
 2388 009e 05AA     		add	r2, sp, #20
 2389 00a0 04A9     		add	r1, sp, #16
 2390 00a2 A088     		ldrh	r0, [r4, #4]
 2391 00a4 A847     		blx	r5
 2392              	.LVL339:
 2393 00a6 0746     		mov	r7, r0
 2394              	.LVL340:
 2395              	.L210:
 572:C:/Users/lenovo/Desktop/liteos/Project2/BearPi_LiteOS/components/connectivity/lwm2m/core\objects.c ****     {
 2396              		.loc 1 572 0
 2397 00a8 452F     		cmp	r7, #69
 2398 00aa 21D1     		bne	.L216
 2399 00ac 12E0     		b	.L213
 2400              	.LVL341:
 2401              	.L230:
 531:C:/Users/lenovo/Desktop/liteos/Project2/BearPi_LiteOS/components/connectivity/lwm2m/core\objects.c ****             dataP = lwm2m_data_new(size);
 2402              		.loc 1 531 0
ARM GAS  c:\Users\lenovo\AppData\Local\Temp\ccdS8TBd.s 			page 63


 2403 00ae 0120     		movs	r0, #1
 2404 00b0 0490     		str	r0, [sp, #16]
 532:C:/Users/lenovo/Desktop/liteos/Project2/BearPi_LiteOS/components/connectivity/lwm2m/core\objects.c ****             if (dataP == NULL) return COAP_500_INTERNAL_SERVER_ERROR;
 2405              		.loc 1 532 0
 2406 00b2 FFF7FEFF 		bl	lwm2m_data_new
 2407              	.LVL342:
 2408 00b6 0590     		str	r0, [sp, #20]
 533:C:/Users/lenovo/Desktop/liteos/Project2/BearPi_LiteOS/components/connectivity/lwm2m/core\objects.c **** 
 2409              		.loc 1 533 0
 2410 00b8 0028     		cmp	r0, #0
 2411 00ba 61D0     		beq	.L220
 535:C:/Users/lenovo/Desktop/liteos/Project2/BearPi_LiteOS/components/connectivity/lwm2m/core\objects.c ****         }
 2412              		.loc 1 535 0
 2413 00bc E388     		ldrh	r3, [r4, #6]
 2414 00be 4380     		strh	r3, [r0, #2]	@ movhi
 2415 00c0 EBE7     		b	.L209
 2416              	.LVL343:
 2417              	.L212:
 2418              	.LBB9:
 551:C:/Users/lenovo/Desktop/liteos/Project2/BearPi_LiteOS/components/connectivity/lwm2m/core\objects.c ****         }
 2419              		.loc 1 551 0 discriminator 3
 2420 00c2 049B     		ldr	r3, [sp, #16]
 2421 00c4 0133     		adds	r3, r3, #1
 2422 00c6 0493     		str	r3, [sp, #16]
 549:C:/Users/lenovo/Desktop/liteos/Project2/BearPi_LiteOS/components/connectivity/lwm2m/core\objects.c ****         {
 2423              		.loc 1 549 0 discriminator 3
 2424 00c8 1268     		ldr	r2, [r2]
 2425              	.LVL344:
 2426              	.L211:
 549:C:/Users/lenovo/Desktop/liteos/Project2/BearPi_LiteOS/components/connectivity/lwm2m/core\objects.c ****         {
 2427              		.loc 1 549 0 is_stmt 0 discriminator 1
 2428 00ca 002A     		cmp	r2, #0
 2429 00cc F9D1     		bne	.L212
 554:C:/Users/lenovo/Desktop/liteos/Project2/BearPi_LiteOS/components/connectivity/lwm2m/core\objects.c ****         {
 2430              		.loc 1 554 0 is_stmt 1
 2431 00ce 0498     		ldr	r0, [sp, #16]
 2432              	.LVL345:
 2433 00d0 28BB     		cbnz	r0, .L231
 546:C:/Users/lenovo/Desktop/liteos/Project2/BearPi_LiteOS/components/connectivity/lwm2m/core\objects.c **** 
 2434              		.loc 1 546 0
 2435 00d2 4527     		movs	r7, #69
 2436              	.LVL346:
 2437              	.L213:
 2438              	.LBE9:
 2439              	.LBB10:
 576:C:/Users/lenovo/Desktop/liteos/Project2/BearPi_LiteOS/components/connectivity/lwm2m/core\objects.c ****         if (len <= 0) result = COAP_500_INTERNAL_SERVER_ERROR;
 2440              		.loc 1 576 0
 2441 00d4 CDF804B0 		str	fp, [sp, #4]
 2442 00d8 059B     		ldr	r3, [sp, #20]
 2443 00da 0093     		str	r3, [sp]
 2444 00dc 049B     		ldr	r3, [sp, #16]
 2445 00de 039A     		ldr	r2, [sp, #12]
 2446 00e0 2146     		mov	r1, r4
 2447 00e2 5046     		mov	r0, r10
 2448 00e4 FFF7FEFF 		bl	discover_serialize
 2449              	.LVL347:
 577:C:/Users/lenovo/Desktop/liteos/Project2/BearPi_LiteOS/components/connectivity/lwm2m/core\objects.c ****         else *lengthP = len;
ARM GAS  c:\Users\lenovo\AppData\Local\Temp\ccdS8TBd.s 			page 64


 2450              		.loc 1 577 0
 2451 00e8 0028     		cmp	r0, #0
 2452 00ea 41DD     		ble	.L223
 578:C:/Users/lenovo/Desktop/liteos/Project2/BearPi_LiteOS/components/connectivity/lwm2m/core\objects.c ****     }
 2453              		.loc 1 578 0
 2454 00ec 109B     		ldr	r3, [sp, #64]
 2455 00ee 1860     		str	r0, [r3]
 2456              	.LVL348:
 2457              	.L216:
 2458              	.LBE10:
 580:C:/Users/lenovo/Desktop/liteos/Project2/BearPi_LiteOS/components/connectivity/lwm2m/core\objects.c **** 
 2459              		.loc 1 580 0
 2460 00f0 0599     		ldr	r1, [sp, #20]
 2461 00f2 0498     		ldr	r0, [sp, #16]
 2462 00f4 FFF7FEFF 		bl	lwm2m_data_free
 2463              	.LVL349:
 582:C:/Users/lenovo/Desktop/liteos/Project2/BearPi_LiteOS/components/connectivity/lwm2m/core\objects.c **** 
 2464              		.loc 1 582 0
 2465 00f8 FFF7FEFF 		bl	lwm2m_gettime
 2466              	.LVL350:
 2467 00fc C7F34713 		ubfx	r3, r7, #5, #8
 2468 0100 07F01F02 		and	r2, r7, #31
 2469 0104 0192     		str	r2, [sp, #4]
 2470 0106 0093     		str	r3, [sp]
 2471 0108 40F24623 		movw	r3, #582
 2472 010c 1E4A     		ldr	r2, .L232
 2473 010e 0146     		mov	r1, r0
 2474 0110 2248     		ldr	r0, .L232+20
 2475 0112 FFF7FEFF 		bl	atiny_printf
 2476              	.LVL351:
 2477              	.L207:
 585:C:/Users/lenovo/Desktop/liteos/Project2/BearPi_LiteOS/components/connectivity/lwm2m/core\objects.c **** 
 2478              		.loc 1 585 0
 2479 0116 3846     		mov	r0, r7
 2480 0118 07B0     		add	sp, sp, #28
 2481              	.LCFI49:
 2482              		.cfi_remember_state
 2483              		.cfi_def_cfa_offset 36
 2484              		@ sp needed
 2485 011a BDE8F08F 		pop	{r4, r5, r6, r7, r8, r9, r10, fp, pc}
 2486              	.LVL352:
 2487              	.L231:
 2488              	.LCFI50:
 2489              		.cfi_restore_state
 2490              	.LBB11:
 556:C:/Users/lenovo/Desktop/liteos/Project2/BearPi_LiteOS/components/connectivity/lwm2m/core\objects.c ****             if (dataP == NULL) return COAP_500_INTERNAL_SERVER_ERROR;
 2491              		.loc 1 556 0
 2492 011e FFF7FEFF 		bl	lwm2m_data_new
 2493              	.LVL353:
 2494 0122 0590     		str	r0, [sp, #20]
 557:C:/Users/lenovo/Desktop/liteos/Project2/BearPi_LiteOS/components/connectivity/lwm2m/core\objects.c **** 
 2495              		.loc 1 557 0
 2496 0124 70B3     		cbz	r0, .L222
 559:C:/Users/lenovo/Desktop/liteos/Project2/BearPi_LiteOS/components/connectivity/lwm2m/core\objects.c ****             i = 0;
 2497              		.loc 1 559 0
 2498 0126 D6F80880 		ldr	r8, [r6, #8]
 2499              	.LVL354:
ARM GAS  c:\Users\lenovo\AppData\Local\Temp\ccdS8TBd.s 			page 65


 560:C:/Users/lenovo/Desktop/liteos/Project2/BearPi_LiteOS/components/connectivity/lwm2m/core\objects.c ****             while (instanceP != NULL && result == COAP_205_CONTENT)
 2500              		.loc 1 560 0
 2501 012a 4FF00009 		mov	r9, #0
 546:C:/Users/lenovo/Desktop/liteos/Project2/BearPi_LiteOS/components/connectivity/lwm2m/core\objects.c **** 
 2502              		.loc 1 546 0
 2503 012e 4527     		movs	r7, #69
 2504 0130 4546     		mov	r5, r8
 2505 0132 3846     		mov	r0, r7
 561:C:/Users/lenovo/Desktop/liteos/Project2/BearPi_LiteOS/components/connectivity/lwm2m/core\objects.c ****             {
 2506              		.loc 1 561 0
 2507 0134 15E0     		b	.L214
 2508              	.LVL355:
 2509              	.L215:
 563:C:/Users/lenovo/Desktop/liteos/Project2/BearPi_LiteOS/components/connectivity/lwm2m/core\objects.c ****                 dataP[i].type = LWM2M_TYPE_OBJECT_INSTANCE;
 2510              		.loc 1 563 0
 2511 0136 776A     		ldr	r7, [r6, #36]
 2512 0138 4FEA0918 		lsl	r8, r9, #4
 2513 013c 0599     		ldr	r1, [sp, #20]
 2514 013e 4144     		add	r1, r1, r8
 2515 0140 3346     		mov	r3, r6
 2516 0142 01F10C02 		add	r2, r1, #12
 2517 0146 0831     		adds	r1, r1, #8
 2518 0148 A888     		ldrh	r0, [r5, #4]
 2519              	.LVL356:
 2520 014a B847     		blx	r7
 2521              	.LVL357:
 564:C:/Users/lenovo/Desktop/liteos/Project2/BearPi_LiteOS/components/connectivity/lwm2m/core\objects.c ****                 dataP[i].id = instanceP->id;
 2522              		.loc 1 564 0
 2523 014c 059B     		ldr	r3, [sp, #20]
 2524 014e 0222     		movs	r2, #2
 2525 0150 03F80820 		strb	r2, [r3, r8]
 565:C:/Users/lenovo/Desktop/liteos/Project2/BearPi_LiteOS/components/connectivity/lwm2m/core\objects.c ****                 i++;
 2526              		.loc 1 565 0
 2527 0154 059B     		ldr	r3, [sp, #20]
 2528 0156 4344     		add	r3, r3, r8
 2529 0158 AA88     		ldrh	r2, [r5, #4]
 2530 015a 5A80     		strh	r2, [r3, #2]	@ movhi
 566:C:/Users/lenovo/Desktop/liteos/Project2/BearPi_LiteOS/components/connectivity/lwm2m/core\objects.c ****                 instanceP = instanceP->next;
 2531              		.loc 1 566 0
 2532 015c 09F10109 		add	r9, r9, #1
 2533              	.LVL358:
 567:C:/Users/lenovo/Desktop/liteos/Project2/BearPi_LiteOS/components/connectivity/lwm2m/core\objects.c ****             }
 2534              		.loc 1 567 0
 2535 0160 2D68     		ldr	r5, [r5]
 2536              	.LVL359:
 2537              	.L214:
 561:C:/Users/lenovo/Desktop/liteos/Project2/BearPi_LiteOS/components/connectivity/lwm2m/core\objects.c ****             {
 2538              		.loc 1 561 0
 2539 0162 1DB1     		cbz	r5, .L224
 561:C:/Users/lenovo/Desktop/liteos/Project2/BearPi_LiteOS/components/connectivity/lwm2m/core\objects.c ****             {
 2540              		.loc 1 561 0 is_stmt 0 discriminator 1
 2541 0164 4528     		cmp	r0, #69
 2542 0166 E6D0     		beq	.L215
 2543 0168 0746     		mov	r7, r0
 2544 016a 9DE7     		b	.L210
 2545              	.L224:
 2546 016c 0746     		mov	r7, r0
ARM GAS  c:\Users\lenovo\AppData\Local\Temp\ccdS8TBd.s 			page 66


 2547 016e 9BE7     		b	.L210
 2548              	.LVL360:
 2549              	.L223:
 2550              	.LBE11:
 2551              	.LBB12:
 577:C:/Users/lenovo/Desktop/liteos/Project2/BearPi_LiteOS/components/connectivity/lwm2m/core\objects.c ****         else *lengthP = len;
 2552              		.loc 1 577 0 is_stmt 1
 2553 0170 A027     		movs	r7, #160
 2554 0172 BDE7     		b	.L216
 2555              	.LVL361:
 2556              	.L217:
 2557              	.LBE12:
 521:C:/Users/lenovo/Desktop/liteos/Project2/BearPi_LiteOS/components/connectivity/lwm2m/core\objects.c ****     if (NULL == targetP->discoverFunc) return COAP_501_NOT_IMPLEMENTED;
 2558              		.loc 1 521 0
 2559 0174 8427     		movs	r7, #132
 2560 0176 CEE7     		b	.L207
 2561              	.L218:
 522:C:/Users/lenovo/Desktop/liteos/Project2/BearPi_LiteOS/components/connectivity/lwm2m/core\objects.c **** 
 2562              		.loc 1 522 0
 2563 0178 A127     		movs	r7, #161
 2564 017a CCE7     		b	.L207
 2565              	.LVL362:
 2566              	.L219:
 526:C:/Users/lenovo/Desktop/liteos/Project2/BearPi_LiteOS/components/connectivity/lwm2m/core\objects.c **** 
 2567              		.loc 1 526 0
 2568 017c 8427     		movs	r7, #132
 2569 017e CAE7     		b	.L207
 2570              	.L220:
 533:C:/Users/lenovo/Desktop/liteos/Project2/BearPi_LiteOS/components/connectivity/lwm2m/core\objects.c **** 
 2571              		.loc 1 533 0
 2572 0180 A027     		movs	r7, #160
 2573 0182 C8E7     		b	.L207
 2574              	.LVL363:
 2575              	.L222:
 2576              	.LBB13:
 557:C:/Users/lenovo/Desktop/liteos/Project2/BearPi_LiteOS/components/connectivity/lwm2m/core\objects.c **** 
 2577              		.loc 1 557 0
 2578 0184 A027     		movs	r7, #160
 2579 0186 C6E7     		b	.L207
 2580              	.L233:
 2581              		.align	2
 2582              	.L232:
 2583 0188 00000000 		.word	.LANCHOR8
 2584 018c 10000000 		.word	.LC1
 2585 0190 20000000 		.word	.LC3
 2586 0194 00000000 		.word	.LC0
 2587 0198 1C000000 		.word	.LC2
 2588 019c 00000000 		.word	.LC6
 2589              	.LBE13:
 2590              		.cfi_endproc
 2591              	.LFE151:
 2593              		.section	.text.object_isInstanceNew,"ax",%progbits
 2594              		.align	1
 2595              		.global	object_isInstanceNew
 2596              		.syntax unified
 2597              		.thumb
 2598              		.thumb_func
ARM GAS  c:\Users\lenovo\AppData\Local\Temp\ccdS8TBd.s 			page 67


 2599              		.fpu fpv4-sp-d16
 2601              	object_isInstanceNew:
 2602              	.LFB152:
 590:C:/Users/lenovo/Desktop/liteos/Project2/BearPi_LiteOS/components/connectivity/lwm2m/core\objects.c ****     lwm2m_object_t *targetP;
 2603              		.loc 1 590 0
 2604              		.cfi_startproc
 2605              		@ args = 0, pretend = 0, frame = 0
 2606              		@ frame_needed = 0, uses_anonymous_args = 0
 2607              	.LVL364:
 2608 0000 70B5     		push	{r4, r5, r6, lr}
 2609              	.LCFI51:
 2610              		.cfi_def_cfa_offset 16
 2611              		.cfi_offset 4, -16
 2612              		.cfi_offset 5, -12
 2613              		.cfi_offset 6, -8
 2614              		.cfi_offset 14, -4
 2615 0002 0446     		mov	r4, r0
 2616 0004 0D46     		mov	r5, r1
 2617 0006 1646     		mov	r6, r2
 593:C:/Users/lenovo/Desktop/liteos/Project2/BearPi_LiteOS/components/connectivity/lwm2m/core\objects.c ****     targetP = (lwm2m_object_t *)LWM2M_LIST_FIND(contextP->objectList, objectId);
 2618              		.loc 1 593 0
 2619 0008 FFF7FEFF 		bl	lwm2m_gettime
 2620              	.LVL365:
 2621 000c 40F25123 		movw	r3, #593
 2622 0010 0A4A     		ldr	r2, .L239
 2623 0012 0146     		mov	r1, r0
 2624 0014 0A48     		ldr	r0, .L239+4
 2625 0016 FFF7FEFF 		bl	atiny_printf
 2626              	.LVL366:
 594:C:/Users/lenovo/Desktop/liteos/Project2/BearPi_LiteOS/components/connectivity/lwm2m/core\objects.c ****     if (targetP != NULL)
 2627              		.loc 1 594 0
 2628 001a 2946     		mov	r1, r5
 2629 001c A069     		ldr	r0, [r4, #24]
 2630 001e FFF7FEFF 		bl	lwm2m_list_find
 2631              	.LVL367:
 595:C:/Users/lenovo/Desktop/liteos/Project2/BearPi_LiteOS/components/connectivity/lwm2m/core\objects.c ****     {
 2632              		.loc 1 595 0
 2633 0022 30B1     		cbz	r0, .L236
 597:C:/Users/lenovo/Desktop/liteos/Project2/BearPi_LiteOS/components/connectivity/lwm2m/core\objects.c ****         {
 2634              		.loc 1 597 0
 2635 0024 3146     		mov	r1, r6
 2636 0026 8068     		ldr	r0, [r0, #8]
 2637              	.LVL368:
 2638 0028 FFF7FEFF 		bl	lwm2m_list_find
 2639              	.LVL369:
 2640 002c 18B1     		cbz	r0, .L237
 599:C:/Users/lenovo/Desktop/liteos/Project2/BearPi_LiteOS/components/connectivity/lwm2m/core\objects.c ****         }
 2641              		.loc 1 599 0
 2642 002e 0020     		movs	r0, #0
 2643 0030 00E0     		b	.L235
 2644              	.LVL370:
 2645              	.L236:
 603:C:/Users/lenovo/Desktop/liteos/Project2/BearPi_LiteOS/components/connectivity/lwm2m/core\objects.c **** }
 2646              		.loc 1 603 0
 2647 0032 0120     		movs	r0, #1
 2648              	.LVL371:
 2649              	.L235:
ARM GAS  c:\Users\lenovo\AppData\Local\Temp\ccdS8TBd.s 			page 68


 604:C:/Users/lenovo/Desktop/liteos/Project2/BearPi_LiteOS/components/connectivity/lwm2m/core\objects.c **** 
 2650              		.loc 1 604 0
 2651 0034 70BD     		pop	{r4, r5, r6, pc}
 2652              	.LVL372:
 2653              	.L237:
 603:C:/Users/lenovo/Desktop/liteos/Project2/BearPi_LiteOS/components/connectivity/lwm2m/core\objects.c **** }
 2654              		.loc 1 603 0
 2655 0036 0120     		movs	r0, #1
 2656 0038 FCE7     		b	.L235
 2657              	.L240:
 2658 003a 00BF     		.align	2
 2659              	.L239:
 2660 003c 00000000 		.word	.LANCHOR9
 2661 0040 00000000 		.word	.LC7
 2662              		.cfi_endproc
 2663              	.LFE152:
 2665              		.section	.text.object_getRegisterPayloadBufferLength,"ax",%progbits
 2666              		.align	1
 2667              		.global	object_getRegisterPayloadBufferLength
 2668              		.syntax unified
 2669              		.thumb
 2670              		.thumb_func
 2671              		.fpu fpv4-sp-d16
 2673              	object_getRegisterPayloadBufferLength:
 2674              	.LFB154:
 631:C:/Users/lenovo/Desktop/liteos/Project2/BearPi_LiteOS/components/connectivity/lwm2m/core\objects.c ****     size_t index;
 2675              		.loc 1 631 0
 2676              		.cfi_startproc
 2677              		@ args = 0, pretend = 0, frame = 16
 2678              		@ frame_needed = 0, uses_anonymous_args = 0
 2679              	.LVL373:
 2680 0000 2DE9F041 		push	{r4, r5, r6, r7, r8, lr}
 2681              	.LCFI52:
 2682              		.cfi_def_cfa_offset 24
 2683              		.cfi_offset 4, -24
 2684              		.cfi_offset 5, -20
 2685              		.cfi_offset 6, -16
 2686              		.cfi_offset 7, -12
 2687              		.cfi_offset 8, -8
 2688              		.cfi_offset 14, -4
 2689 0004 84B0     		sub	sp, sp, #16
 2690              	.LCFI53:
 2691              		.cfi_def_cfa_offset 40
 2692 0006 0546     		mov	r5, r0
 637:C:/Users/lenovo/Desktop/liteos/Project2/BearPi_LiteOS/components/connectivity/lwm2m/core\objects.c ****     index = strlen(REG_START);
 2693              		.loc 1 637 0
 2694 0008 FFF7FEFF 		bl	lwm2m_gettime
 2695              	.LVL374:
 2696 000c 40F27D23 		movw	r3, #637
 2697 0010 1E4A     		ldr	r2, .L258
 2698 0012 0146     		mov	r1, r0
 2699 0014 1E48     		ldr	r0, .L258+4
 2700 0016 FFF7FEFF 		bl	atiny_printf
 2701              	.LVL375:
 640:C:/Users/lenovo/Desktop/liteos/Project2/BearPi_LiteOS/components/connectivity/lwm2m/core\objects.c ****             && (contextP->altPath[0] != 0))
 2702              		.loc 1 640 0
 2703 001a E868     		ldr	r0, [r5, #12]
ARM GAS  c:\Users\lenovo\AppData\Local\Temp\ccdS8TBd.s 			page 69


 2704 001c 38B1     		cbz	r0, .L250
 641:C:/Users/lenovo/Desktop/liteos/Project2/BearPi_LiteOS/components/connectivity/lwm2m/core\objects.c ****     {
 2705              		.loc 1 641 0
 2706 001e 0378     		ldrb	r3, [r0]	@ zero_extendqisi2
 2707 0020 3BB1     		cbz	r3, .L251
 643:C:/Users/lenovo/Desktop/liteos/Project2/BearPi_LiteOS/components/connectivity/lwm2m/core\objects.c ****     }
 2708              		.loc 1 643 0
 2709 0022 FFF7FEFF 		bl	strlen
 2710              	.LVL376:
 2711 0026 441C     		adds	r4, r0, #1
 2712              	.LVL377:
 2713              	.L242:
 650:C:/Users/lenovo/Desktop/liteos/Project2/BearPi_LiteOS/components/connectivity/lwm2m/core\objects.c **** 
 2714              		.loc 1 650 0
 2715 0028 1134     		adds	r4, r4, #17
 2716              	.LVL378:
 652:C:/Users/lenovo/Desktop/liteos/Project2/BearPi_LiteOS/components/connectivity/lwm2m/core\objects.c ****     {
 2717              		.loc 1 652 0
 2718 002a AE69     		ldr	r6, [r5, #24]
 2719              	.LVL379:
 2720 002c 05E0     		b	.L243
 2721              	.LVL380:
 2722              	.L250:
 647:C:/Users/lenovo/Desktop/liteos/Project2/BearPi_LiteOS/components/connectivity/lwm2m/core\objects.c ****     }
 2723              		.loc 1 647 0
 2724 002e 0224     		movs	r4, #2
 2725 0030 FAE7     		b	.L242
 2726              	.L251:
 2727 0032 0224     		movs	r4, #2
 2728 0034 F8E7     		b	.L242
 2729              	.LVL381:
 2730              	.L257:
 2731              	.LBB14:
 668:C:/Users/lenovo/Desktop/liteos/Project2/BearPi_LiteOS/components/connectivity/lwm2m/core\objects.c ****         }
 2732              		.loc 1 668 0
 2733 0036 7C1C     		adds	r4, r7, #1
 2734              	.LVL382:
 2735              	.L244:
 2736              	.LBE14:
 652:C:/Users/lenovo/Desktop/liteos/Project2/BearPi_LiteOS/components/connectivity/lwm2m/core\objects.c ****     {
 2737              		.loc 1 652 0 discriminator 2
 2738 0038 3668     		ldr	r6, [r6]
 2739              	.LVL383:
 2740              	.L243:
 652:C:/Users/lenovo/Desktop/liteos/Project2/BearPi_LiteOS/components/connectivity/lwm2m/core\objects.c ****     {
 2741              		.loc 1 652 0 is_stmt 0 discriminator 1
 2742 003a FEB1     		cbz	r6, .L256
 2743              	.LBB17:
 657:C:/Users/lenovo/Desktop/liteos/Project2/BearPi_LiteOS/components/connectivity/lwm2m/core\objects.c **** 
 2744              		.loc 1 657 0 is_stmt 1
 2745 003c B288     		ldrh	r2, [r6, #4]
 2746 003e 002A     		cmp	r2, #0
 2747 0040 FAD0     		beq	.L244
 2748              	.LVL384:
 660:C:/Users/lenovo/Desktop/liteos/Project2/BearPi_LiteOS/components/connectivity/lwm2m/core\objects.c ****         if (result < 0) return 0;
 2749              		.loc 1 660 0
 2750 0042 0A21     		movs	r1, #10
ARM GAS  c:\Users\lenovo\AppData\Local\Temp\ccdS8TBd.s 			page 70


 2751 0044 01A8     		add	r0, sp, #4
 2752 0046 FFF7FEFF 		bl	prv_getObjectTemplate
 2753              	.LVL385:
 661:C:/Users/lenovo/Desktop/liteos/Project2/BearPi_LiteOS/components/connectivity/lwm2m/core\objects.c ****         length = result;
 2754              		.loc 1 661 0
 2755 004a 0028     		cmp	r0, #0
 2756 004c 18DB     		blt	.L252
 662:C:/Users/lenovo/Desktop/liteos/Project2/BearPi_LiteOS/components/connectivity/lwm2m/core\objects.c ****         index += length;
 2757              		.loc 1 662 0
 2758 004e 8046     		mov	r8, r0
 2759              	.LVL386:
 663:C:/Users/lenovo/Desktop/liteos/Project2/BearPi_LiteOS/components/connectivity/lwm2m/core\objects.c **** 
 2760              		.loc 1 663 0
 2761 0050 2718     		adds	r7, r4, r0
 2762              	.LVL387:
 665:C:/Users/lenovo/Desktop/liteos/Project2/BearPi_LiteOS/components/connectivity/lwm2m/core\objects.c ****         {
 2763              		.loc 1 665 0
 2764 0052 B568     		ldr	r5, [r6, #8]
 2765 0054 002D     		cmp	r5, #0
 2766 0056 EED0     		beq	.L257
 663:C:/Users/lenovo/Desktop/liteos/Project2/BearPi_LiteOS/components/connectivity/lwm2m/core\objects.c **** 
 2767              		.loc 1 663 0
 2768 0058 3C46     		mov	r4, r7
 2769              	.LVL388:
 2770 005a 09E0     		b	.L246
 2771              	.LVL389:
 2772              	.L247:
 2773              	.LBB15:
 680:C:/Users/lenovo/Desktop/liteos/Project2/BearPi_LiteOS/components/connectivity/lwm2m/core\objects.c ****                 if (result == 0) return 0;
 2774              		.loc 1 680 0
 2775 005c 0A23     		movs	r3, #10
 2776 005e 01AA     		add	r2, sp, #4
 2777 0060 A888     		ldrh	r0, [r5, #4]
 2778              	.LVL390:
 2779 0062 0021     		movs	r1, #0
 2780 0064 FFF7FEFF 		bl	utils_intToText
 2781              	.LVL391:
 681:C:/Users/lenovo/Desktop/liteos/Project2/BearPi_LiteOS/components/connectivity/lwm2m/core\objects.c ****                 index += result;
 2782              		.loc 1 681 0
 2783 0068 60B1     		cbz	r0, .L254
 682:C:/Users/lenovo/Desktop/liteos/Project2/BearPi_LiteOS/components/connectivity/lwm2m/core\objects.c **** 
 2784              		.loc 1 682 0 discriminator 2
 2785 006a 0444     		add	r4, r4, r0
 2786              	.LVL392:
 684:C:/Users/lenovo/Desktop/liteos/Project2/BearPi_LiteOS/components/connectivity/lwm2m/core\objects.c ****             }
 2787              		.loc 1 684 0 discriminator 2
 2788 006c 0234     		adds	r4, r4, #2
 2789              	.LVL393:
 673:C:/Users/lenovo/Desktop/liteos/Project2/BearPi_LiteOS/components/connectivity/lwm2m/core\objects.c ****             {
 2790              		.loc 1 673 0 discriminator 2
 2791 006e 2D68     		ldr	r5, [r5]
 2792              	.LVL394:
 2793              	.L246:
 673:C:/Users/lenovo/Desktop/liteos/Project2/BearPi_LiteOS/components/connectivity/lwm2m/core\objects.c ****             {
 2794              		.loc 1 673 0 is_stmt 0 discriminator 1
 2795 0070 002D     		cmp	r5, #0
 2796 0072 E1D0     		beq	.L244
ARM GAS  c:\Users\lenovo\AppData\Local\Temp\ccdS8TBd.s 			page 71


 675:C:/Users/lenovo/Desktop/liteos/Project2/BearPi_LiteOS/components/connectivity/lwm2m/core\objects.c ****                 {
 2797              		.loc 1 675 0 is_stmt 1
 2798 0074 BC42     		cmp	r4, r7
 2799 0076 F1D0     		beq	.L247
 677:C:/Users/lenovo/Desktop/liteos/Project2/BearPi_LiteOS/components/connectivity/lwm2m/core\objects.c ****                 }
 2800              		.loc 1 677 0
 2801 0078 4444     		add	r4, r4, r8
 2802              	.LVL395:
 2803 007a EFE7     		b	.L247
 2804              	.LVL396:
 2805              	.L256:
 2806              	.LBE15:
 2807              	.LBE17:
 689:C:/Users/lenovo/Desktop/liteos/Project2/BearPi_LiteOS/components/connectivity/lwm2m/core\objects.c **** 
 2808              		.loc 1 689 0
 2809 007c 601C     		adds	r0, r4, #1
 2810              	.LVL397:
 697:C:/Users/lenovo/Desktop/liteos/Project2/BearPi_LiteOS/components/connectivity/lwm2m/core\objects.c **** }
 2811              		.loc 1 697 0
 2812 007e 02E0     		b	.L241
 2813              	.LVL398:
 2814              	.L252:
 2815              	.LBB18:
 661:C:/Users/lenovo/Desktop/liteos/Project2/BearPi_LiteOS/components/connectivity/lwm2m/core\objects.c ****         length = result;
 2816              		.loc 1 661 0
 2817 0080 0020     		movs	r0, #0
 2818              	.LVL399:
 2819 0082 00E0     		b	.L241
 2820              	.LVL400:
 2821              	.L254:
 2822              	.LBB16:
 681:C:/Users/lenovo/Desktop/liteos/Project2/BearPi_LiteOS/components/connectivity/lwm2m/core\objects.c ****                 index += result;
 2823              		.loc 1 681 0
 2824 0084 0020     		movs	r0, #0
 2825              	.LVL401:
 2826              	.L241:
 2827              	.LBE16:
 2828              	.LBE18:
 698:C:/Users/lenovo/Desktop/liteos/Project2/BearPi_LiteOS/components/connectivity/lwm2m/core\objects.c **** 
 2829              		.loc 1 698 0
 2830 0086 04B0     		add	sp, sp, #16
 2831              	.LCFI54:
 2832              		.cfi_def_cfa_offset 24
 2833              		@ sp needed
 2834 0088 BDE8F081 		pop	{r4, r5, r6, r7, r8, pc}
 2835              	.LVL402:
 2836              	.L259:
 2837              		.align	2
 2838              	.L258:
 2839 008c 00000000 		.word	.LANCHOR10
 2840 0090 00000000 		.word	.LC7
 2841              		.cfi_endproc
 2842              	.LFE154:
 2844              		.section	.text.object_getRegisterPayload,"ax",%progbits
 2845              		.align	1
 2846              		.global	object_getRegisterPayload
 2847              		.syntax unified
ARM GAS  c:\Users\lenovo\AppData\Local\Temp\ccdS8TBd.s 			page 72


 2848              		.thumb
 2849              		.thumb_func
 2850              		.fpu fpv4-sp-d16
 2852              	object_getRegisterPayload:
 2853              	.LFB155:
 703:C:/Users/lenovo/Desktop/liteos/Project2/BearPi_LiteOS/components/connectivity/lwm2m/core\objects.c ****     size_t index;
 2854              		.loc 1 703 0
 2855              		.cfi_startproc
 2856              		@ args = 0, pretend = 0, frame = 0
 2857              		@ frame_needed = 0, uses_anonymous_args = 0
 2858              	.LVL403:
 2859 0000 2DE9F84F 		push	{r3, r4, r5, r6, r7, r8, r9, r10, fp, lr}
 2860              	.LCFI55:
 2861              		.cfi_def_cfa_offset 40
 2862              		.cfi_offset 3, -40
 2863              		.cfi_offset 4, -36
 2864              		.cfi_offset 5, -32
 2865              		.cfi_offset 6, -28
 2866              		.cfi_offset 7, -24
 2867              		.cfi_offset 8, -20
 2868              		.cfi_offset 9, -16
 2869              		.cfi_offset 10, -12
 2870              		.cfi_offset 11, -8
 2871              		.cfi_offset 14, -4
 2872 0004 0746     		mov	r7, r0
 2873 0006 0E46     		mov	r6, r1
 2874 0008 1546     		mov	r5, r2
 708:C:/Users/lenovo/Desktop/liteos/Project2/BearPi_LiteOS/components/connectivity/lwm2m/core\objects.c ****     // index can not be greater than bufferLen
 2875              		.loc 1 708 0
 2876 000a FFF7FEFF 		bl	lwm2m_gettime
 2877              	.LVL404:
 2878 000e 4FF43173 		mov	r3, #708
 2879 0012 424A     		ldr	r2, .L284
 2880 0014 0146     		mov	r1, r0
 2881 0016 4248     		ldr	r0, .L284+4
 2882 0018 FFF7FEFF 		bl	atiny_printf
 2883              	.LVL405:
 712:C:/Users/lenovo/Desktop/liteos/Project2/BearPi_LiteOS/components/connectivity/lwm2m/core\objects.c ****     if (result < 0) return 0;
 2884              		.loc 1 712 0
 2885 001c 414A     		ldr	r2, .L284+8
 2886 001e 2946     		mov	r1, r5
 2887 0020 3046     		mov	r0, r6
 2888 0022 FFF7FEFF 		bl	utils_stringCopy
 2889              	.LVL406:
 713:C:/Users/lenovo/Desktop/liteos/Project2/BearPi_LiteOS/components/connectivity/lwm2m/core\objects.c ****     index += result;
 2890              		.loc 1 713 0
 2891 0026 041E     		subs	r4, r0, #0
 2892 0028 67DB     		blt	.L271
 2893              	.LVL407:
 716:C:/Users/lenovo/Desktop/liteos/Project2/BearPi_LiteOS/components/connectivity/lwm2m/core\objects.c ****             && (contextP->altPath[0] != 0))
 2894              		.loc 1 716 0
 2895 002a FA68     		ldr	r2, [r7, #12]
 2896 002c 0AB1     		cbz	r2, .L262
 717:C:/Users/lenovo/Desktop/liteos/Project2/BearPi_LiteOS/components/connectivity/lwm2m/core\objects.c ****     {
 2897              		.loc 1 717 0
 2898 002e 1378     		ldrb	r3, [r2]	@ zero_extendqisi2
 2899 0030 93B9     		cbnz	r3, .L281
ARM GAS  c:\Users\lenovo\AppData\Local\Temp\ccdS8TBd.s 			page 73


 2900              	.L262:
 723:C:/Users/lenovo/Desktop/liteos/Project2/BearPi_LiteOS/components/connectivity/lwm2m/core\objects.c ****     }
 2901              		.loc 1 723 0
 2902 0032 3D4A     		ldr	r2, .L284+12
 2903 0034 291B     		subs	r1, r5, r4
 2904 0036 3019     		adds	r0, r6, r4
 2905              	.LVL408:
 2906 0038 FFF7FEFF 		bl	utils_stringCopy
 2907              	.LVL409:
 2908              	.L263:
 725:C:/Users/lenovo/Desktop/liteos/Project2/BearPi_LiteOS/components/connectivity/lwm2m/core\objects.c ****     index += result;
 2909              		.loc 1 725 0
 2910 003c 0028     		cmp	r0, #0
 2911 003e 5EDB     		blt	.L272
 726:C:/Users/lenovo/Desktop/liteos/Project2/BearPi_LiteOS/components/connectivity/lwm2m/core\objects.c **** 
 2912              		.loc 1 726 0
 2913 0040 0444     		add	r4, r4, r0
 2914              	.LVL410:
 728:C:/Users/lenovo/Desktop/liteos/Project2/BearPi_LiteOS/components/connectivity/lwm2m/core\objects.c ****     if (result < 0) return 0;
 2915              		.loc 1 728 0
 2916 0042 3A4A     		ldr	r2, .L284+16
 2917 0044 291B     		subs	r1, r5, r4
 2918 0046 3019     		adds	r0, r6, r4
 2919              	.LVL411:
 2920 0048 FFF7FEFF 		bl	utils_stringCopy
 2921              	.LVL412:
 729:C:/Users/lenovo/Desktop/liteos/Project2/BearPi_LiteOS/components/connectivity/lwm2m/core\objects.c ****     index += result;
 2922              		.loc 1 729 0
 2923 004c 0028     		cmp	r0, #0
 2924 004e 59DB     		blt	.L273
 730:C:/Users/lenovo/Desktop/liteos/Project2/BearPi_LiteOS/components/connectivity/lwm2m/core\objects.c **** 
 2925              		.loc 1 730 0
 2926 0050 0444     		add	r4, r4, r0
 2927              	.LVL413:
 732:C:/Users/lenovo/Desktop/liteos/Project2/BearPi_LiteOS/components/connectivity/lwm2m/core\objects.c ****     {
 2928              		.loc 1 732 0
 2929 0052 D7F818A0 		ldr	r10, [r7, #24]
 2930              	.LVL414:
 2931 0056 13E0     		b	.L264
 2932              	.LVL415:
 2933              	.L281:
 719:C:/Users/lenovo/Desktop/liteos/Project2/BearPi_LiteOS/components/connectivity/lwm2m/core\objects.c ****     }
 2934              		.loc 1 719 0
 2935 0058 291B     		subs	r1, r5, r4
 2936 005a 3019     		adds	r0, r6, r4
 2937              	.LVL416:
 2938 005c FFF7FEFF 		bl	utils_stringCopy
 2939              	.LVL417:
 2940 0060 ECE7     		b	.L263
 2941              	.LVL418:
 2942              	.L283:
 2943              	.LBB19:
 747:C:/Users/lenovo/Desktop/liteos/Project2/BearPi_LiteOS/components/connectivity/lwm2m/core\objects.c ****             result = utils_stringCopy((char *)buffer + index, bufferLen - index, REG_PATH_END);
 2944              		.loc 1 747 0
 2945 0062 09F1FF39 		add	r9, r9, #-1
 2946              	.LVL419:
 748:C:/Users/lenovo/Desktop/liteos/Project2/BearPi_LiteOS/components/connectivity/lwm2m/core\objects.c ****             if (result < 0) return 0;
ARM GAS  c:\Users\lenovo\AppData\Local\Temp\ccdS8TBd.s 			page 74


 2947              		.loc 1 748 0
 2948 0066 324A     		ldr	r2, .L284+20
 2949 0068 A5EB0901 		sub	r1, r5, r9
 2950 006c 06EB0900 		add	r0, r6, r9
 2951              	.LVL420:
 2952 0070 FFF7FEFF 		bl	utils_stringCopy
 2953              	.LVL421:
 749:C:/Users/lenovo/Desktop/liteos/Project2/BearPi_LiteOS/components/connectivity/lwm2m/core\objects.c ****             index += result;
 2954              		.loc 1 749 0
 2955 0074 0028     		cmp	r0, #0
 2956 0076 49DB     		blt	.L276
 750:C:/Users/lenovo/Desktop/liteos/Project2/BearPi_LiteOS/components/connectivity/lwm2m/core\objects.c ****         }
 2957              		.loc 1 750 0
 2958 0078 00EB0904 		add	r4, r0, r9
 2959              	.LVL422:
 2960              	.L265:
 2961              	.LBE19:
 732:C:/Users/lenovo/Desktop/liteos/Project2/BearPi_LiteOS/components/connectivity/lwm2m/core\objects.c ****     {
 2962              		.loc 1 732 0 discriminator 2
 2963 007c DAF800A0 		ldr	r10, [r10]
 2964              	.LVL423:
 2965              	.L264:
 732:C:/Users/lenovo/Desktop/liteos/Project2/BearPi_LiteOS/components/connectivity/lwm2m/core\objects.c ****     {
 2966              		.loc 1 732 0 is_stmt 0 discriminator 1
 2967 0080 BAF1000F 		cmp	r10, #0
 2968 0084 33D0     		beq	.L282
 2969              	.LBB22:
 737:C:/Users/lenovo/Desktop/liteos/Project2/BearPi_LiteOS/components/connectivity/lwm2m/core\objects.c **** 
 2970              		.loc 1 737 0 is_stmt 1
 2971 0086 BAF80420 		ldrh	r2, [r10, #4]
 2972 008a 002A     		cmp	r2, #0
 2973 008c F6D0     		beq	.L265
 2974              	.LVL424:
 740:C:/Users/lenovo/Desktop/liteos/Project2/BearPi_LiteOS/components/connectivity/lwm2m/core\objects.c ****         if (result < 0) return 0;
 2975              		.loc 1 740 0
 2976 008e 06EB040B 		add	fp, r6, r4
 2977 0092 291B     		subs	r1, r5, r4
 2978 0094 5846     		mov	r0, fp
 2979              	.LVL425:
 2980 0096 FFF7FEFF 		bl	prv_getObjectTemplate
 2981              	.LVL426:
 741:C:/Users/lenovo/Desktop/liteos/Project2/BearPi_LiteOS/components/connectivity/lwm2m/core\objects.c ****         length = result;
 2982              		.loc 1 741 0
 2983 009a 0028     		cmp	r0, #0
 2984 009c 34DB     		blt	.L274
 742:C:/Users/lenovo/Desktop/liteos/Project2/BearPi_LiteOS/components/connectivity/lwm2m/core\objects.c ****         index += length;
 2985              		.loc 1 742 0
 2986 009e 8046     		mov	r8, r0
 2987              	.LVL427:
 743:C:/Users/lenovo/Desktop/liteos/Project2/BearPi_LiteOS/components/connectivity/lwm2m/core\objects.c **** 
 2988              		.loc 1 743 0
 2989 00a0 04EB0009 		add	r9, r4, r0
 2990              	.LVL428:
 745:C:/Users/lenovo/Desktop/liteos/Project2/BearPi_LiteOS/components/connectivity/lwm2m/core\objects.c ****         {
 2991              		.loc 1 745 0
 2992 00a4 DAF80870 		ldr	r7, [r10, #8]
 2993 00a8 002F     		cmp	r7, #0
ARM GAS  c:\Users\lenovo\AppData\Local\Temp\ccdS8TBd.s 			page 75


 2994 00aa DAD0     		beq	.L283
 743:C:/Users/lenovo/Desktop/liteos/Project2/BearPi_LiteOS/components/connectivity/lwm2m/core\objects.c **** 
 2995              		.loc 1 743 0
 2996 00ac 4C46     		mov	r4, r9
 2997              	.LVL429:
 2998 00ae 10E0     		b	.L266
 2999              	.LVL430:
 3000              	.L267:
 3001              	.LBB20:
 764:C:/Users/lenovo/Desktop/liteos/Project2/BearPi_LiteOS/components/connectivity/lwm2m/core\objects.c ****                 if (result == 0) return 0;
 3002              		.loc 1 764 0
 3003 00b0 2B1B     		subs	r3, r5, r4
 3004 00b2 3219     		adds	r2, r6, r4
 3005 00b4 B888     		ldrh	r0, [r7, #4]
 3006 00b6 0021     		movs	r1, #0
 3007 00b8 FFF7FEFF 		bl	utils_intToText
 3008              	.LVL431:
 765:C:/Users/lenovo/Desktop/liteos/Project2/BearPi_LiteOS/components/connectivity/lwm2m/core\objects.c ****                 index += result;
 3009              		.loc 1 765 0
 3010 00bc 50B3     		cbz	r0, .L278
 766:C:/Users/lenovo/Desktop/liteos/Project2/BearPi_LiteOS/components/connectivity/lwm2m/core\objects.c **** 
 3011              		.loc 1 766 0
 3012 00be 0444     		add	r4, r4, r0
 3013              	.LVL432:
 768:C:/Users/lenovo/Desktop/liteos/Project2/BearPi_LiteOS/components/connectivity/lwm2m/core\objects.c ****                 if (result < 0) return 0;
 3014              		.loc 1 768 0
 3015 00c0 1B4A     		ldr	r2, .L284+20
 3016 00c2 291B     		subs	r1, r5, r4
 3017 00c4 3019     		adds	r0, r6, r4
 3018              	.LVL433:
 3019 00c6 FFF7FEFF 		bl	utils_stringCopy
 3020              	.LVL434:
 769:C:/Users/lenovo/Desktop/liteos/Project2/BearPi_LiteOS/components/connectivity/lwm2m/core\objects.c ****                 index += result;
 3021              		.loc 1 769 0
 3022 00ca 0028     		cmp	r0, #0
 3023 00cc 24DB     		blt	.L279
 770:C:/Users/lenovo/Desktop/liteos/Project2/BearPi_LiteOS/components/connectivity/lwm2m/core\objects.c ****             }
 3024              		.loc 1 770 0 discriminator 2
 3025 00ce 0444     		add	r4, r4, r0
 3026              	.LVL435:
 755:C:/Users/lenovo/Desktop/liteos/Project2/BearPi_LiteOS/components/connectivity/lwm2m/core\objects.c ****             {
 3027              		.loc 1 755 0 discriminator 2
 3028 00d0 3F68     		ldr	r7, [r7]
 3029              	.LVL436:
 3030              	.L266:
 755:C:/Users/lenovo/Desktop/liteos/Project2/BearPi_LiteOS/components/connectivity/lwm2m/core\objects.c ****             {
 3031              		.loc 1 755 0 is_stmt 0 discriminator 1
 3032 00d2 002F     		cmp	r7, #0
 3033 00d4 D2D0     		beq	.L265
 757:C:/Users/lenovo/Desktop/liteos/Project2/BearPi_LiteOS/components/connectivity/lwm2m/core\objects.c ****                 {
 3034              		.loc 1 757 0 is_stmt 1
 3035 00d6 4C45     		cmp	r4, r9
 3036 00d8 EAD0     		beq	.L267
 759:C:/Users/lenovo/Desktop/liteos/Project2/BearPi_LiteOS/components/connectivity/lwm2m/core\objects.c ****                     memcpy(buffer + index, buffer + start, length);
 3037              		.loc 1 759 0
 3038 00da 2B1B     		subs	r3, r5, r4
 3039 00dc 4345     		cmp	r3, r8
ARM GAS  c:\Users\lenovo\AppData\Local\Temp\ccdS8TBd.s 			page 76


 3040 00de 17D9     		bls	.L277
 760:C:/Users/lenovo/Desktop/liteos/Project2/BearPi_LiteOS/components/connectivity/lwm2m/core\objects.c ****                     index += length;
 3041              		.loc 1 760 0
 3042 00e0 4246     		mov	r2, r8
 3043 00e2 5946     		mov	r1, fp
 3044 00e4 3019     		adds	r0, r6, r4
 3045              	.LVL437:
 3046 00e6 FFF7FEFF 		bl	memcpy
 3047              	.LVL438:
 761:C:/Users/lenovo/Desktop/liteos/Project2/BearPi_LiteOS/components/connectivity/lwm2m/core\objects.c ****                 }
 3048              		.loc 1 761 0
 3049 00ea 4444     		add	r4, r4, r8
 3050              	.LVL439:
 3051 00ec E0E7     		b	.L267
 3052              	.LVL440:
 3053              	.L282:
 3054              	.LBE20:
 3055              	.LBE22:
 775:C:/Users/lenovo/Desktop/liteos/Project2/BearPi_LiteOS/components/connectivity/lwm2m/core\objects.c ****     {
 3056              		.loc 1 775 0
 3057 00ee 04B1     		cbz	r4, .L270
 777:C:/Users/lenovo/Desktop/liteos/Project2/BearPi_LiteOS/components/connectivity/lwm2m/core\objects.c ****     }
 3058              		.loc 1 777 0
 3059 00f0 013C     		subs	r4, r4, #1
 3060              	.LVL441:
 3061              	.L270:
 780:C:/Users/lenovo/Desktop/liteos/Project2/BearPi_LiteOS/components/connectivity/lwm2m/core\objects.c **** 
 3062              		.loc 1 780 0
 3063 00f2 0023     		movs	r3, #0
 3064 00f4 3355     		strb	r3, [r6, r4]
 782:C:/Users/lenovo/Desktop/liteos/Project2/BearPi_LiteOS/components/connectivity/lwm2m/core\objects.c **** }
 3065              		.loc 1 782 0
 3066 00f6 2046     		mov	r0, r4
 3067              	.LVL442:
 3068 00f8 02E0     		b	.L260
 3069              	.LVL443:
 3070              	.L271:
 713:C:/Users/lenovo/Desktop/liteos/Project2/BearPi_LiteOS/components/connectivity/lwm2m/core\objects.c ****     index += result;
 3071              		.loc 1 713 0
 3072 00fa 0020     		movs	r0, #0
 3073              	.LVL444:
 3074 00fc 00E0     		b	.L260
 3075              	.LVL445:
 3076              	.L272:
 725:C:/Users/lenovo/Desktop/liteos/Project2/BearPi_LiteOS/components/connectivity/lwm2m/core\objects.c ****     index += result;
 3077              		.loc 1 725 0
 3078 00fe 0020     		movs	r0, #0
 3079              	.LVL446:
 3080              	.L260:
 783:C:/Users/lenovo/Desktop/liteos/Project2/BearPi_LiteOS/components/connectivity/lwm2m/core\objects.c **** 
 3081              		.loc 1 783 0
 3082 0100 BDE8F88F 		pop	{r3, r4, r5, r6, r7, r8, r9, r10, fp, pc}
 3083              	.LVL447:
 3084              	.L273:
 729:C:/Users/lenovo/Desktop/liteos/Project2/BearPi_LiteOS/components/connectivity/lwm2m/core\objects.c ****     index += result;
 3085              		.loc 1 729 0
 3086 0104 0020     		movs	r0, #0
ARM GAS  c:\Users\lenovo\AppData\Local\Temp\ccdS8TBd.s 			page 77


 3087              	.LVL448:
 3088 0106 FBE7     		b	.L260
 3089              	.LVL449:
 3090              	.L274:
 3091              	.LBB23:
 741:C:/Users/lenovo/Desktop/liteos/Project2/BearPi_LiteOS/components/connectivity/lwm2m/core\objects.c ****         length = result;
 3092              		.loc 1 741 0
 3093 0108 0020     		movs	r0, #0
 3094              	.LVL450:
 3095 010a F9E7     		b	.L260
 3096              	.LVL451:
 3097              	.L276:
 749:C:/Users/lenovo/Desktop/liteos/Project2/BearPi_LiteOS/components/connectivity/lwm2m/core\objects.c ****             index += result;
 3098              		.loc 1 749 0
 3099 010c 0020     		movs	r0, #0
 3100              	.LVL452:
 3101 010e F7E7     		b	.L260
 3102              	.LVL453:
 3103              	.L277:
 3104              	.LBB21:
 759:C:/Users/lenovo/Desktop/liteos/Project2/BearPi_LiteOS/components/connectivity/lwm2m/core\objects.c ****                     memcpy(buffer + index, buffer + start, length);
 3105              		.loc 1 759 0
 3106 0110 0020     		movs	r0, #0
 3107              	.LVL454:
 3108 0112 F5E7     		b	.L260
 3109              	.LVL455:
 3110              	.L278:
 765:C:/Users/lenovo/Desktop/liteos/Project2/BearPi_LiteOS/components/connectivity/lwm2m/core\objects.c ****                 index += result;
 3111              		.loc 1 765 0
 3112 0114 0020     		movs	r0, #0
 3113              	.LVL456:
 3114 0116 F3E7     		b	.L260
 3115              	.LVL457:
 3116              	.L279:
 769:C:/Users/lenovo/Desktop/liteos/Project2/BearPi_LiteOS/components/connectivity/lwm2m/core\objects.c ****                 index += result;
 3117              		.loc 1 769 0
 3118 0118 0020     		movs	r0, #0
 3119              	.LVL458:
 3120 011a F1E7     		b	.L260
 3121              	.L285:
 3122              		.align	2
 3123              	.L284:
 3124 011c 00000000 		.word	.LANCHOR11
 3125 0120 00000000 		.word	.LC7
 3126 0124 00000000 		.word	.LC8
 3127 0128 04000000 		.word	.LC9
 3128 012c 08000000 		.word	.LC10
 3129 0130 1C000000 		.word	.LC11
 3130              	.LBE21:
 3131              	.LBE23:
 3132              		.cfi_endproc
 3133              	.LFE155:
 3135              		.section	.text.object_getServers,"ax",%progbits
 3136              		.align	1
 3137              		.global	object_getServers
 3138              		.syntax unified
 3139              		.thumb
ARM GAS  c:\Users\lenovo\AppData\Local\Temp\ccdS8TBd.s 			page 78


 3140              		.thumb_func
 3141              		.fpu fpv4-sp-d16
 3143              	object_getServers:
 3144              	.LFB158:
 862:C:/Users/lenovo/Desktop/liteos/Project2/BearPi_LiteOS/components/connectivity/lwm2m/core\objects.c **** 
 863:C:/Users/lenovo/Desktop/liteos/Project2/BearPi_LiteOS/components/connectivity/lwm2m/core\objects.c **** int object_getServers(lwm2m_context_t *contextP, bool checkOnly)
 864:C:/Users/lenovo/Desktop/liteos/Project2/BearPi_LiteOS/components/connectivity/lwm2m/core\objects.c **** {
 3145              		.loc 1 864 0
 3146              		.cfi_startproc
 3147              		@ args = 0, pretend = 0, frame = 24
 3148              		@ frame_needed = 0, uses_anonymous_args = 0
 3149              	.LVL459:
 3150 0000 2DE9F043 		push	{r4, r5, r6, r7, r8, r9, lr}
 3151              	.LCFI56:
 3152              		.cfi_def_cfa_offset 28
 3153              		.cfi_offset 4, -28
 3154              		.cfi_offset 5, -24
 3155              		.cfi_offset 6, -20
 3156              		.cfi_offset 7, -16
 3157              		.cfi_offset 8, -12
 3158              		.cfi_offset 9, -8
 3159              		.cfi_offset 14, -4
 3160 0004 89B0     		sub	sp, sp, #36
 3161              	.LCFI57:
 3162              		.cfi_def_cfa_offset 64
 3163 0006 0546     		mov	r5, r0
 3164 0008 8946     		mov	r9, r1
 3165              	.LVL460:
 865:C:/Users/lenovo/Desktop/liteos/Project2/BearPi_LiteOS/components/connectivity/lwm2m/core\objects.c ****     lwm2m_object_t *objectP;
 866:C:/Users/lenovo/Desktop/liteos/Project2/BearPi_LiteOS/components/connectivity/lwm2m/core\objects.c ****     lwm2m_object_t *securityObjP = NULL;
 867:C:/Users/lenovo/Desktop/liteos/Project2/BearPi_LiteOS/components/connectivity/lwm2m/core\objects.c ****     lwm2m_object_t *serverObjP = NULL;
 868:C:/Users/lenovo/Desktop/liteos/Project2/BearPi_LiteOS/components/connectivity/lwm2m/core\objects.c ****     lwm2m_list_t *securityInstP;    // instanceID of the server in the LWM2M Security Object
 869:C:/Users/lenovo/Desktop/liteos/Project2/BearPi_LiteOS/components/connectivity/lwm2m/core\objects.c **** 
 870:C:/Users/lenovo/Desktop/liteos/Project2/BearPi_LiteOS/components/connectivity/lwm2m/core\objects.c ****     LOG("Entering");
 3166              		.loc 1 870 0
 3167 000a FFF7FEFF 		bl	lwm2m_gettime
 3168              	.LVL461:
 3169 000e 40F26633 		movw	r3, #870
 3170 0012 9A4A     		ldr	r2, .L319
 3171 0014 0146     		mov	r1, r0
 3172 0016 9A48     		ldr	r0, .L319+4
 3173 0018 FFF7FEFF 		bl	atiny_printf
 3174              	.LVL462:
 871:C:/Users/lenovo/Desktop/liteos/Project2/BearPi_LiteOS/components/connectivity/lwm2m/core\objects.c **** 
 872:C:/Users/lenovo/Desktop/liteos/Project2/BearPi_LiteOS/components/connectivity/lwm2m/core\objects.c ****     for (objectP = contextP->objectList; objectP != NULL; objectP = objectP->next)
 3175              		.loc 1 872 0
 3176 001c AB69     		ldr	r3, [r5, #24]
 3177              	.LVL463:
 867:C:/Users/lenovo/Desktop/liteos/Project2/BearPi_LiteOS/components/connectivity/lwm2m/core\objects.c ****     lwm2m_list_t *securityInstP;    // instanceID of the server in the LWM2M Security Object
 3178              		.loc 1 867 0
 3179 001e 4FF00008 		mov	r8, #0
 866:C:/Users/lenovo/Desktop/liteos/Project2/BearPi_LiteOS/components/connectivity/lwm2m/core\objects.c ****     lwm2m_object_t *serverObjP = NULL;
 3180              		.loc 1 866 0
 3181 0022 4646     		mov	r6, r8
 3182              		.loc 1 872 0
 3183 0024 01E0     		b	.L287
 3184              	.LVL464:
ARM GAS  c:\Users\lenovo\AppData\Local\Temp\ccdS8TBd.s 			page 79


 3185              	.L308:
 873:C:/Users/lenovo/Desktop/liteos/Project2/BearPi_LiteOS/components/connectivity/lwm2m/core\objects.c ****     {
 874:C:/Users/lenovo/Desktop/liteos/Project2/BearPi_LiteOS/components/connectivity/lwm2m/core\objects.c ****         if (objectP->objID == LWM2M_SECURITY_OBJECT_ID)
 875:C:/Users/lenovo/Desktop/liteos/Project2/BearPi_LiteOS/components/connectivity/lwm2m/core\objects.c ****         {
 876:C:/Users/lenovo/Desktop/liteos/Project2/BearPi_LiteOS/components/connectivity/lwm2m/core\objects.c ****             securityObjP = objectP;
 3186              		.loc 1 876 0
 3187 0026 1E46     		mov	r6, r3
 3188              	.LVL465:
 3189              	.L288:
 872:C:/Users/lenovo/Desktop/liteos/Project2/BearPi_LiteOS/components/connectivity/lwm2m/core\objects.c ****     {
 3190              		.loc 1 872 0 discriminator 2
 3191 0028 1B68     		ldr	r3, [r3]
 3192              	.LVL466:
 3193              	.L287:
 872:C:/Users/lenovo/Desktop/liteos/Project2/BearPi_LiteOS/components/connectivity/lwm2m/core\objects.c ****     {
 3194              		.loc 1 872 0 is_stmt 0 discriminator 1
 3195 002a 33B1     		cbz	r3, .L312
 874:C:/Users/lenovo/Desktop/liteos/Project2/BearPi_LiteOS/components/connectivity/lwm2m/core\objects.c ****         {
 3196              		.loc 1 874 0 is_stmt 1
 3197 002c 9A88     		ldrh	r2, [r3, #4]
 3198 002e 002A     		cmp	r2, #0
 3199 0030 F9D0     		beq	.L308
 877:C:/Users/lenovo/Desktop/liteos/Project2/BearPi_LiteOS/components/connectivity/lwm2m/core\objects.c ****         }
 878:C:/Users/lenovo/Desktop/liteos/Project2/BearPi_LiteOS/components/connectivity/lwm2m/core\objects.c ****         else if (objectP->objID == LWM2M_SERVER_OBJECT_ID)
 3200              		.loc 1 878 0
 3201 0032 012A     		cmp	r2, #1
 3202 0034 F8D1     		bne	.L288
 879:C:/Users/lenovo/Desktop/liteos/Project2/BearPi_LiteOS/components/connectivity/lwm2m/core\objects.c ****         {
 880:C:/Users/lenovo/Desktop/liteos/Project2/BearPi_LiteOS/components/connectivity/lwm2m/core\objects.c ****             serverObjP = objectP;
 3203              		.loc 1 880 0
 3204 0036 9846     		mov	r8, r3
 3205              	.LVL467:
 3206 0038 F6E7     		b	.L288
 3207              	.LVL468:
 3208              	.L312:
 881:C:/Users/lenovo/Desktop/liteos/Project2/BearPi_LiteOS/components/connectivity/lwm2m/core\objects.c ****         }
 882:C:/Users/lenovo/Desktop/liteos/Project2/BearPi_LiteOS/components/connectivity/lwm2m/core\objects.c ****     }
 883:C:/Users/lenovo/Desktop/liteos/Project2/BearPi_LiteOS/components/connectivity/lwm2m/core\objects.c **** 
 884:C:/Users/lenovo/Desktop/liteos/Project2/BearPi_LiteOS/components/connectivity/lwm2m/core\objects.c ****     if (NULL == securityObjP) return -1;
 3209              		.loc 1 884 0
 3210 003a 002E     		cmp	r6, #0
 3211 003c 00F01A81 		beq	.L310
 885:C:/Users/lenovo/Desktop/liteos/Project2/BearPi_LiteOS/components/connectivity/lwm2m/core\objects.c **** 
 886:C:/Users/lenovo/Desktop/liteos/Project2/BearPi_LiteOS/components/connectivity/lwm2m/core\objects.c ****     securityInstP = securityObjP->instanceList;
 3212              		.loc 1 886 0
 3213 0040 B468     		ldr	r4, [r6, #8]
 3214              	.LVL469:
 887:C:/Users/lenovo/Desktop/liteos/Project2/BearPi_LiteOS/components/connectivity/lwm2m/core\objects.c ****     while (securityInstP != NULL)
 3215              		.loc 1 887 0
 3216 0042 64E0     		b	.L291
 3217              	.LVL470:
 3218              	.L314:
 3219              	.LBB24:
 888:C:/Users/lenovo/Desktop/liteos/Project2/BearPi_LiteOS/components/connectivity/lwm2m/core\objects.c ****     {
 889:C:/Users/lenovo/Desktop/liteos/Project2/BearPi_LiteOS/components/connectivity/lwm2m/core\objects.c ****         if (LWM2M_LIST_FIND(contextP->bootstrapServerList, securityInstP->id) == NULL
 890:C:/Users/lenovo/Desktop/liteos/Project2/BearPi_LiteOS/components/connectivity/lwm2m/core\objects.c ****                 && LWM2M_LIST_FIND(contextP->serverList, securityInstP->id) == NULL)
 891:C:/Users/lenovo/Desktop/liteos/Project2/BearPi_LiteOS/components/connectivity/lwm2m/core\objects.c ****         {
ARM GAS  c:\Users\lenovo\AppData\Local\Temp\ccdS8TBd.s 			page 80


 892:C:/Users/lenovo/Desktop/liteos/Project2/BearPi_LiteOS/components/connectivity/lwm2m/core\objects.c ****             // This server is new. eg created by last bootstrap
 893:C:/Users/lenovo/Desktop/liteos/Project2/BearPi_LiteOS/components/connectivity/lwm2m/core\objects.c **** 
 894:C:/Users/lenovo/Desktop/liteos/Project2/BearPi_LiteOS/components/connectivity/lwm2m/core\objects.c ****             lwm2m_data_t *dataP;
 895:C:/Users/lenovo/Desktop/liteos/Project2/BearPi_LiteOS/components/connectivity/lwm2m/core\objects.c ****             int size;
 896:C:/Users/lenovo/Desktop/liteos/Project2/BearPi_LiteOS/components/connectivity/lwm2m/core\objects.c ****             lwm2m_server_t *targetP;
 897:C:/Users/lenovo/Desktop/liteos/Project2/BearPi_LiteOS/components/connectivity/lwm2m/core\objects.c ****             bool isBootstrap;
 898:C:/Users/lenovo/Desktop/liteos/Project2/BearPi_LiteOS/components/connectivity/lwm2m/core\objects.c ****             int64_t value = 0;
 899:C:/Users/lenovo/Desktop/liteos/Project2/BearPi_LiteOS/components/connectivity/lwm2m/core\objects.c **** 
 900:C:/Users/lenovo/Desktop/liteos/Project2/BearPi_LiteOS/components/connectivity/lwm2m/core\objects.c ****             size = 3;
 901:C:/Users/lenovo/Desktop/liteos/Project2/BearPi_LiteOS/components/connectivity/lwm2m/core\objects.c ****             dataP = lwm2m_data_new(size);
 902:C:/Users/lenovo/Desktop/liteos/Project2/BearPi_LiteOS/components/connectivity/lwm2m/core\objects.c ****             if (dataP == NULL) return -1;
 903:C:/Users/lenovo/Desktop/liteos/Project2/BearPi_LiteOS/components/connectivity/lwm2m/core\objects.c ****             dataP[0].id = LWM2M_SECURITY_BOOTSTRAP_ID;
 904:C:/Users/lenovo/Desktop/liteos/Project2/BearPi_LiteOS/components/connectivity/lwm2m/core\objects.c ****             dataP[1].id = LWM2M_SECURITY_SHORT_SERVER_ID;
 905:C:/Users/lenovo/Desktop/liteos/Project2/BearPi_LiteOS/components/connectivity/lwm2m/core\objects.c ****             dataP[2].id = LWM2M_SECURITY_HOLD_OFF_ID;
 906:C:/Users/lenovo/Desktop/liteos/Project2/BearPi_LiteOS/components/connectivity/lwm2m/core\objects.c **** 
 907:C:/Users/lenovo/Desktop/liteos/Project2/BearPi_LiteOS/components/connectivity/lwm2m/core\objects.c ****             if (securityObjP->readFunc(securityInstP->id, &size, &dataP, NULL, securityObjP) != COA
 908:C:/Users/lenovo/Desktop/liteos/Project2/BearPi_LiteOS/components/connectivity/lwm2m/core\objects.c ****             {
 909:C:/Users/lenovo/Desktop/liteos/Project2/BearPi_LiteOS/components/connectivity/lwm2m/core\objects.c ****                 LOG_ARG("securityObjP->readFunc fail id %d", securityInstP->id);
 3220              		.loc 1 909 0
 3221 0044 FFF7FEFF 		bl	lwm2m_gettime
 3222              	.LVL471:
 3223 0048 A388     		ldrh	r3, [r4, #4]
 3224 004a 0093     		str	r3, [sp]
 3225 004c 40F28D33 		movw	r3, #909
 3226 0050 8A4A     		ldr	r2, .L319
 3227 0052 0146     		mov	r1, r0
 3228 0054 8B48     		ldr	r0, .L319+8
 3229 0056 FFF7FEFF 		bl	atiny_printf
 3230              	.LVL472:
 910:C:/Users/lenovo/Desktop/liteos/Project2/BearPi_LiteOS/components/connectivity/lwm2m/core\objects.c ****                 lwm2m_data_free(size, dataP);
 3231              		.loc 1 910 0
 3232 005a 0499     		ldr	r1, [sp, #16]
 3233 005c 0598     		ldr	r0, [sp, #20]
 3234 005e FFF7FEFF 		bl	lwm2m_data_free
 3235              	.LVL473:
 911:C:/Users/lenovo/Desktop/liteos/Project2/BearPi_LiteOS/components/connectivity/lwm2m/core\objects.c ****                 return -1;
 3236              		.loc 1 911 0
 3237 0062 34E0     		b	.L293
 3238              	.LVL474:
 3239              	.L315:
 912:C:/Users/lenovo/Desktop/liteos/Project2/BearPi_LiteOS/components/connectivity/lwm2m/core\objects.c ****             }
 913:C:/Users/lenovo/Desktop/liteos/Project2/BearPi_LiteOS/components/connectivity/lwm2m/core\objects.c **** 
 914:C:/Users/lenovo/Desktop/liteos/Project2/BearPi_LiteOS/components/connectivity/lwm2m/core\objects.c ****             targetP = (lwm2m_server_t *)lwm2m_malloc(sizeof(lwm2m_server_t));
 915:C:/Users/lenovo/Desktop/liteos/Project2/BearPi_LiteOS/components/connectivity/lwm2m/core\objects.c ****             if (targetP == NULL)
 916:C:/Users/lenovo/Desktop/liteos/Project2/BearPi_LiteOS/components/connectivity/lwm2m/core\objects.c ****             {
 917:C:/Users/lenovo/Desktop/liteos/Project2/BearPi_LiteOS/components/connectivity/lwm2m/core\objects.c ****                 LOG_ARG("lwm2m_malloc fail id %d", securityInstP->id);
 3240              		.loc 1 917 0
 3241 0064 FFF7FEFF 		bl	lwm2m_gettime
 3242              	.LVL475:
 3243 0068 A388     		ldrh	r3, [r4, #4]
 3244 006a 0093     		str	r3, [sp]
 3245 006c 40F29533 		movw	r3, #917
 3246 0070 824A     		ldr	r2, .L319
 3247 0072 0146     		mov	r1, r0
 3248 0074 8448     		ldr	r0, .L319+12
 3249 0076 FFF7FEFF 		bl	atiny_printf
 3250              	.LVL476:
ARM GAS  c:\Users\lenovo\AppData\Local\Temp\ccdS8TBd.s 			page 81


 918:C:/Users/lenovo/Desktop/liteos/Project2/BearPi_LiteOS/components/connectivity/lwm2m/core\objects.c ****                 lwm2m_data_free(size, dataP);
 3251              		.loc 1 918 0
 3252 007a 0499     		ldr	r1, [sp, #16]
 3253 007c 0598     		ldr	r0, [sp, #20]
 3254 007e FFF7FEFF 		bl	lwm2m_data_free
 3255              	.LVL477:
 919:C:/Users/lenovo/Desktop/liteos/Project2/BearPi_LiteOS/components/connectivity/lwm2m/core\objects.c ****                 return -1;
 3256              		.loc 1 919 0
 3257 0082 24E0     		b	.L293
 3258              	.L316:
 920:C:/Users/lenovo/Desktop/liteos/Project2/BearPi_LiteOS/components/connectivity/lwm2m/core\objects.c ****             }
 921:C:/Users/lenovo/Desktop/liteos/Project2/BearPi_LiteOS/components/connectivity/lwm2m/core\objects.c ****             memset(targetP, 0, sizeof(lwm2m_server_t));
 922:C:/Users/lenovo/Desktop/liteos/Project2/BearPi_LiteOS/components/connectivity/lwm2m/core\objects.c ****             targetP->secObjInstID = securityInstP->id;
 923:C:/Users/lenovo/Desktop/liteos/Project2/BearPi_LiteOS/components/connectivity/lwm2m/core\objects.c **** 
 924:C:/Users/lenovo/Desktop/liteos/Project2/BearPi_LiteOS/components/connectivity/lwm2m/core\objects.c ****             if (0 == lwm2m_data_decode_bool(dataP + 0, &isBootstrap))
 925:C:/Users/lenovo/Desktop/liteos/Project2/BearPi_LiteOS/components/connectivity/lwm2m/core\objects.c ****             {
 926:C:/Users/lenovo/Desktop/liteos/Project2/BearPi_LiteOS/components/connectivity/lwm2m/core\objects.c ****                 LOG_ARG("lwm2m_data_decode_bool fail id %d", securityInstP->id);
 3259              		.loc 1 926 0
 3260 0084 FFF7FEFF 		bl	lwm2m_gettime
 3261              	.LVL478:
 3262 0088 A388     		ldrh	r3, [r4, #4]
 3263 008a 0093     		str	r3, [sp]
 3264 008c 40F29E33 		movw	r3, #926
 3265 0090 7A4A     		ldr	r2, .L319
 3266 0092 0146     		mov	r1, r0
 3267 0094 7D48     		ldr	r0, .L319+16
 3268 0096 FFF7FEFF 		bl	atiny_printf
 3269              	.LVL479:
 927:C:/Users/lenovo/Desktop/liteos/Project2/BearPi_LiteOS/components/connectivity/lwm2m/core\objects.c ****                 lwm2m_free(targetP);
 3270              		.loc 1 927 0
 3271 009a 3846     		mov	r0, r7
 3272 009c FFF7FEFF 		bl	lwm2m_free
 3273              	.LVL480:
 928:C:/Users/lenovo/Desktop/liteos/Project2/BearPi_LiteOS/components/connectivity/lwm2m/core\objects.c ****                 lwm2m_data_free(size, dataP);
 3274              		.loc 1 928 0
 3275 00a0 0499     		ldr	r1, [sp, #16]
 3276 00a2 0598     		ldr	r0, [sp, #20]
 3277 00a4 FFF7FEFF 		bl	lwm2m_data_free
 3278              	.LVL481:
 929:C:/Users/lenovo/Desktop/liteos/Project2/BearPi_LiteOS/components/connectivity/lwm2m/core\objects.c ****                 return -1;
 3279              		.loc 1 929 0
 3280 00a8 11E0     		b	.L293
 3281              	.L297:
 930:C:/Users/lenovo/Desktop/liteos/Project2/BearPi_LiteOS/components/connectivity/lwm2m/core\objects.c ****             }
 931:C:/Users/lenovo/Desktop/liteos/Project2/BearPi_LiteOS/components/connectivity/lwm2m/core\objects.c **** 
 932:C:/Users/lenovo/Desktop/liteos/Project2/BearPi_LiteOS/components/connectivity/lwm2m/core\objects.c ****             if (0 == lwm2m_data_decode_int(dataP + 1, &value)
 933:C:/Users/lenovo/Desktop/liteos/Project2/BearPi_LiteOS/components/connectivity/lwm2m/core\objects.c ****                     || value < (isBootstrap ? 0 : 1) || value > 0xFFFF)                // 0 is forb
 934:C:/Users/lenovo/Desktop/liteos/Project2/BearPi_LiteOS/components/connectivity/lwm2m/core\objects.c ****             {
 935:C:/Users/lenovo/Desktop/liteos/Project2/BearPi_LiteOS/components/connectivity/lwm2m/core\objects.c ****                 LOG_ARG("lwm2m_data_decode_int fail id %d", securityInstP->id);
 3282              		.loc 1 935 0
 3283 00aa FFF7FEFF 		bl	lwm2m_gettime
 3284              	.LVL482:
 3285 00ae A388     		ldrh	r3, [r4, #4]
 3286 00b0 0093     		str	r3, [sp]
 3287 00b2 40F2A733 		movw	r3, #935
 3288 00b6 714A     		ldr	r2, .L319
 3289 00b8 0146     		mov	r1, r0
ARM GAS  c:\Users\lenovo\AppData\Local\Temp\ccdS8TBd.s 			page 82


 3290 00ba 7548     		ldr	r0, .L319+20
 3291 00bc FFF7FEFF 		bl	atiny_printf
 3292              	.LVL483:
 936:C:/Users/lenovo/Desktop/liteos/Project2/BearPi_LiteOS/components/connectivity/lwm2m/core\objects.c ****                 lwm2m_free(targetP);
 3293              		.loc 1 936 0
 3294 00c0 3846     		mov	r0, r7
 3295 00c2 FFF7FEFF 		bl	lwm2m_free
 3296              	.LVL484:
 937:C:/Users/lenovo/Desktop/liteos/Project2/BearPi_LiteOS/components/connectivity/lwm2m/core\objects.c ****                 lwm2m_data_free(size, dataP);
 3297              		.loc 1 937 0
 3298 00c6 0499     		ldr	r1, [sp, #16]
 3299 00c8 0598     		ldr	r0, [sp, #20]
 3300 00ca FFF7FEFF 		bl	lwm2m_data_free
 3301              	.LVL485:
 3302              	.L293:
 902:C:/Users/lenovo/Desktop/liteos/Project2/BearPi_LiteOS/components/connectivity/lwm2m/core\objects.c ****             dataP[0].id = LWM2M_SECURITY_BOOTSTRAP_ID;
 3303              		.loc 1 902 0 discriminator 2
 3304 00ce 4FF0FF30 		mov	r0, #-1
 3305 00d2 CCE0     		b	.L286
 3306              	.LVL486:
 3307              	.L300:
 938:C:/Users/lenovo/Desktop/liteos/Project2/BearPi_LiteOS/components/connectivity/lwm2m/core\objects.c ****                 return -1;
 939:C:/Users/lenovo/Desktop/liteos/Project2/BearPi_LiteOS/components/connectivity/lwm2m/core\objects.c ****             }
 940:C:/Users/lenovo/Desktop/liteos/Project2/BearPi_LiteOS/components/connectivity/lwm2m/core\objects.c ****             targetP->shortID = value;
 941:C:/Users/lenovo/Desktop/liteos/Project2/BearPi_LiteOS/components/connectivity/lwm2m/core\objects.c **** 
 942:C:/Users/lenovo/Desktop/liteos/Project2/BearPi_LiteOS/components/connectivity/lwm2m/core\objects.c ****             if (isBootstrap == true)
 943:C:/Users/lenovo/Desktop/liteos/Project2/BearPi_LiteOS/components/connectivity/lwm2m/core\objects.c ****             {
 944:C:/Users/lenovo/Desktop/liteos/Project2/BearPi_LiteOS/components/connectivity/lwm2m/core\objects.c ****                 if (0 == lwm2m_data_decode_int(dataP + 2, &value)
 945:C:/Users/lenovo/Desktop/liteos/Project2/BearPi_LiteOS/components/connectivity/lwm2m/core\objects.c ****                         || value < 0 || value > 0xFFFFFFFF)             // This is an implementatio
 946:C:/Users/lenovo/Desktop/liteos/Project2/BearPi_LiteOS/components/connectivity/lwm2m/core\objects.c ****                 {
 947:C:/Users/lenovo/Desktop/liteos/Project2/BearPi_LiteOS/components/connectivity/lwm2m/core\objects.c ****                     LOG_ARG("lwm2m_data_decode_int fail id %d", securityInstP->id);
 3308              		.loc 1 947 0
 3309 00d4 FFF7FEFF 		bl	lwm2m_gettime
 3310              	.LVL487:
 3311 00d8 A388     		ldrh	r3, [r4, #4]
 3312 00da 0093     		str	r3, [sp]
 3313 00dc 40F2B333 		movw	r3, #947
 3314 00e0 664A     		ldr	r2, .L319
 3315 00e2 0146     		mov	r1, r0
 3316 00e4 6A48     		ldr	r0, .L319+20
 3317 00e6 FFF7FEFF 		bl	atiny_printf
 3318              	.LVL488:
 948:C:/Users/lenovo/Desktop/liteos/Project2/BearPi_LiteOS/components/connectivity/lwm2m/core\objects.c ****                     lwm2m_free(targetP);
 3319              		.loc 1 948 0
 3320 00ea 3846     		mov	r0, r7
 3321 00ec FFF7FEFF 		bl	lwm2m_free
 3322              	.LVL489:
 949:C:/Users/lenovo/Desktop/liteos/Project2/BearPi_LiteOS/components/connectivity/lwm2m/core\objects.c ****                     lwm2m_data_free(size, dataP);
 3323              		.loc 1 949 0
 3324 00f0 0499     		ldr	r1, [sp, #16]
 3325 00f2 0598     		ldr	r0, [sp, #20]
 3326 00f4 FFF7FEFF 		bl	lwm2m_data_free
 3327              	.LVL490:
 950:C:/Users/lenovo/Desktop/liteos/Project2/BearPi_LiteOS/components/connectivity/lwm2m/core\objects.c ****                     return -1;
 3328              		.loc 1 950 0
 3329 00f8 E9E7     		b	.L293
 3330              	.L302:
ARM GAS  c:\Users\lenovo\AppData\Local\Temp\ccdS8TBd.s 			page 83


 951:C:/Users/lenovo/Desktop/liteos/Project2/BearPi_LiteOS/components/connectivity/lwm2m/core\objects.c ****                 }
 952:C:/Users/lenovo/Desktop/liteos/Project2/BearPi_LiteOS/components/connectivity/lwm2m/core\objects.c ****                 // lifetime of a bootstrap server is set to ClientHoldOffTime
 953:C:/Users/lenovo/Desktop/liteos/Project2/BearPi_LiteOS/components/connectivity/lwm2m/core\objects.c ****                 targetP->lifetime = value;
 954:C:/Users/lenovo/Desktop/liteos/Project2/BearPi_LiteOS/components/connectivity/lwm2m/core\objects.c **** 
 955:C:/Users/lenovo/Desktop/liteos/Project2/BearPi_LiteOS/components/connectivity/lwm2m/core\objects.c ****                 if (checkOnly)
 956:C:/Users/lenovo/Desktop/liteos/Project2/BearPi_LiteOS/components/connectivity/lwm2m/core\objects.c ****                 {
 957:C:/Users/lenovo/Desktop/liteos/Project2/BearPi_LiteOS/components/connectivity/lwm2m/core\objects.c ****                     lwm2m_free(targetP);
 958:C:/Users/lenovo/Desktop/liteos/Project2/BearPi_LiteOS/components/connectivity/lwm2m/core\objects.c ****                 }
 959:C:/Users/lenovo/Desktop/liteos/Project2/BearPi_LiteOS/components/connectivity/lwm2m/core\objects.c ****                 else
 960:C:/Users/lenovo/Desktop/liteos/Project2/BearPi_LiteOS/components/connectivity/lwm2m/core\objects.c ****                 {
 961:C:/Users/lenovo/Desktop/liteos/Project2/BearPi_LiteOS/components/connectivity/lwm2m/core\objects.c ****                     contextP->bootstrapServerList = (lwm2m_server_t *)LWM2M_LIST_ADD(contextP->boot
 3331              		.loc 1 961 0
 3332 00fa 3946     		mov	r1, r7
 3333 00fc 2869     		ldr	r0, [r5, #16]
 3334 00fe FFF7FEFF 		bl	lwm2m_list_add
 3335              	.LVL491:
 3336 0102 2861     		str	r0, [r5, #16]
 3337              	.L303:
 962:C:/Users/lenovo/Desktop/liteos/Project2/BearPi_LiteOS/components/connectivity/lwm2m/core\objects.c ****                 }
 963:C:/Users/lenovo/Desktop/liteos/Project2/BearPi_LiteOS/components/connectivity/lwm2m/core\objects.c ****             }
 964:C:/Users/lenovo/Desktop/liteos/Project2/BearPi_LiteOS/components/connectivity/lwm2m/core\objects.c ****             else
 965:C:/Users/lenovo/Desktop/liteos/Project2/BearPi_LiteOS/components/connectivity/lwm2m/core\objects.c ****             {
 966:C:/Users/lenovo/Desktop/liteos/Project2/BearPi_LiteOS/components/connectivity/lwm2m/core\objects.c ****                 lwm2m_list_t *serverInstP;      // instanceID of the server in the LWM2M Server Obj
 967:C:/Users/lenovo/Desktop/liteos/Project2/BearPi_LiteOS/components/connectivity/lwm2m/core\objects.c **** 
 968:C:/Users/lenovo/Desktop/liteos/Project2/BearPi_LiteOS/components/connectivity/lwm2m/core\objects.c ****                 serverInstP = prv_findServerInstance(serverObjP, targetP->shortID);
 969:C:/Users/lenovo/Desktop/liteos/Project2/BearPi_LiteOS/components/connectivity/lwm2m/core\objects.c ****                 if (serverInstP == NULL)
 970:C:/Users/lenovo/Desktop/liteos/Project2/BearPi_LiteOS/components/connectivity/lwm2m/core\objects.c ****                 {
 971:C:/Users/lenovo/Desktop/liteos/Project2/BearPi_LiteOS/components/connectivity/lwm2m/core\objects.c ****                     lwm2m_free(targetP);
 972:C:/Users/lenovo/Desktop/liteos/Project2/BearPi_LiteOS/components/connectivity/lwm2m/core\objects.c ****                 }
 973:C:/Users/lenovo/Desktop/liteos/Project2/BearPi_LiteOS/components/connectivity/lwm2m/core\objects.c ****                 else
 974:C:/Users/lenovo/Desktop/liteos/Project2/BearPi_LiteOS/components/connectivity/lwm2m/core\objects.c ****                 {
 975:C:/Users/lenovo/Desktop/liteos/Project2/BearPi_LiteOS/components/connectivity/lwm2m/core\objects.c ****                     if (0 != prv_getMandatoryInfo(serverObjP, serverInstP->id, targetP))
 976:C:/Users/lenovo/Desktop/liteos/Project2/BearPi_LiteOS/components/connectivity/lwm2m/core\objects.c ****                     {
 977:C:/Users/lenovo/Desktop/liteos/Project2/BearPi_LiteOS/components/connectivity/lwm2m/core\objects.c ****                         LOG_ARG("prv_getMandatoryInfo fail id %d", securityInstP->id);
 978:C:/Users/lenovo/Desktop/liteos/Project2/BearPi_LiteOS/components/connectivity/lwm2m/core\objects.c ****                         lwm2m_free(targetP);
 979:C:/Users/lenovo/Desktop/liteos/Project2/BearPi_LiteOS/components/connectivity/lwm2m/core\objects.c ****                         lwm2m_data_free(size, dataP);
 980:C:/Users/lenovo/Desktop/liteos/Project2/BearPi_LiteOS/components/connectivity/lwm2m/core\objects.c ****                         return -1;
 981:C:/Users/lenovo/Desktop/liteos/Project2/BearPi_LiteOS/components/connectivity/lwm2m/core\objects.c ****                     }
 982:C:/Users/lenovo/Desktop/liteos/Project2/BearPi_LiteOS/components/connectivity/lwm2m/core\objects.c ****                     targetP->status = STATE_DEREGISTERED;
 983:C:/Users/lenovo/Desktop/liteos/Project2/BearPi_LiteOS/components/connectivity/lwm2m/core\objects.c ****                     if (checkOnly)
 984:C:/Users/lenovo/Desktop/liteos/Project2/BearPi_LiteOS/components/connectivity/lwm2m/core\objects.c ****                     {
 985:C:/Users/lenovo/Desktop/liteos/Project2/BearPi_LiteOS/components/connectivity/lwm2m/core\objects.c ****                         lwm2m_free(targetP);
 986:C:/Users/lenovo/Desktop/liteos/Project2/BearPi_LiteOS/components/connectivity/lwm2m/core\objects.c ****                     }
 987:C:/Users/lenovo/Desktop/liteos/Project2/BearPi_LiteOS/components/connectivity/lwm2m/core\objects.c ****                     else
 988:C:/Users/lenovo/Desktop/liteos/Project2/BearPi_LiteOS/components/connectivity/lwm2m/core\objects.c ****                     {
 989:C:/Users/lenovo/Desktop/liteos/Project2/BearPi_LiteOS/components/connectivity/lwm2m/core\objects.c ****                         contextP->serverList = (lwm2m_server_t *)LWM2M_LIST_ADD(contextP->serverLis
 990:C:/Users/lenovo/Desktop/liteos/Project2/BearPi_LiteOS/components/connectivity/lwm2m/core\objects.c ****                     }
 991:C:/Users/lenovo/Desktop/liteos/Project2/BearPi_LiteOS/components/connectivity/lwm2m/core\objects.c ****                 }
 992:C:/Users/lenovo/Desktop/liteos/Project2/BearPi_LiteOS/components/connectivity/lwm2m/core\objects.c ****             }
 993:C:/Users/lenovo/Desktop/liteos/Project2/BearPi_LiteOS/components/connectivity/lwm2m/core\objects.c ****             lwm2m_data_free(size, dataP);
 3338              		.loc 1 993 0 discriminator 1
 3339 0104 0499     		ldr	r1, [sp, #16]
 3340 0106 0598     		ldr	r0, [sp, #20]
 3341 0108 FFF7FEFF 		bl	lwm2m_data_free
 3342              	.LVL492:
 3343              	.L292:
 3344              	.LBE24:
ARM GAS  c:\Users\lenovo\AppData\Local\Temp\ccdS8TBd.s 			page 84


 994:C:/Users/lenovo/Desktop/liteos/Project2/BearPi_LiteOS/components/connectivity/lwm2m/core\objects.c ****         }
 995:C:/Users/lenovo/Desktop/liteos/Project2/BearPi_LiteOS/components/connectivity/lwm2m/core\objects.c ****         securityInstP = securityInstP->next;
 3345              		.loc 1 995 0
 3346 010c 2468     		ldr	r4, [r4]
 3347              	.LVL493:
 3348              	.L291:
 887:C:/Users/lenovo/Desktop/liteos/Project2/BearPi_LiteOS/components/connectivity/lwm2m/core\objects.c ****     {
 3349              		.loc 1 887 0
 3350 010e 002C     		cmp	r4, #0
 3351 0110 00F0AC80 		beq	.L313
 889:C:/Users/lenovo/Desktop/liteos/Project2/BearPi_LiteOS/components/connectivity/lwm2m/core\objects.c ****                 && LWM2M_LIST_FIND(contextP->serverList, securityInstP->id) == NULL)
 3352              		.loc 1 889 0
 3353 0114 A188     		ldrh	r1, [r4, #4]
 3354 0116 2869     		ldr	r0, [r5, #16]
 3355 0118 FFF7FEFF 		bl	lwm2m_list_find
 3356              	.LVL494:
 3357 011c 0028     		cmp	r0, #0
 3358 011e F5D1     		bne	.L292
 890:C:/Users/lenovo/Desktop/liteos/Project2/BearPi_LiteOS/components/connectivity/lwm2m/core\objects.c ****         {
 3359              		.loc 1 890 0
 3360 0120 A188     		ldrh	r1, [r4, #4]
 3361 0122 6869     		ldr	r0, [r5, #20]
 3362 0124 FFF7FEFF 		bl	lwm2m_list_find
 3363              	.LVL495:
 3364 0128 0028     		cmp	r0, #0
 3365 012a EFD1     		bne	.L292
 3366              	.LBB26:
 898:C:/Users/lenovo/Desktop/liteos/Project2/BearPi_LiteOS/components/connectivity/lwm2m/core\objects.c **** 
 3367              		.loc 1 898 0
 3368 012c 0022     		movs	r2, #0
 3369 012e 0023     		movs	r3, #0
 3370 0130 CDE90623 		strd	r2, [sp, #24]
 900:C:/Users/lenovo/Desktop/liteos/Project2/BearPi_LiteOS/components/connectivity/lwm2m/core\objects.c ****             dataP = lwm2m_data_new(size);
 3371              		.loc 1 900 0
 3372 0134 0320     		movs	r0, #3
 3373 0136 0590     		str	r0, [sp, #20]
 901:C:/Users/lenovo/Desktop/liteos/Project2/BearPi_LiteOS/components/connectivity/lwm2m/core\objects.c ****             if (dataP == NULL) return -1;
 3374              		.loc 1 901 0
 3375 0138 FFF7FEFF 		bl	lwm2m_data_new
 3376              	.LVL496:
 3377 013c 0490     		str	r0, [sp, #16]
 902:C:/Users/lenovo/Desktop/liteos/Project2/BearPi_LiteOS/components/connectivity/lwm2m/core\objects.c ****             dataP[0].id = LWM2M_SECURITY_BOOTSTRAP_ID;
 3378              		.loc 1 902 0
 3379 013e 0028     		cmp	r0, #0
 3380 0140 C5D0     		beq	.L293
 903:C:/Users/lenovo/Desktop/liteos/Project2/BearPi_LiteOS/components/connectivity/lwm2m/core\objects.c ****             dataP[1].id = LWM2M_SECURITY_SHORT_SERVER_ID;
 3381              		.loc 1 903 0
 3382 0142 0123     		movs	r3, #1
 3383 0144 4380     		strh	r3, [r0, #2]	@ movhi
 904:C:/Users/lenovo/Desktop/liteos/Project2/BearPi_LiteOS/components/connectivity/lwm2m/core\objects.c ****             dataP[2].id = LWM2M_SECURITY_HOLD_OFF_ID;
 3384              		.loc 1 904 0
 3385 0146 08AA     		add	r2, sp, #32
 3386 0148 52F8103D 		ldr	r3, [r2, #-16]!
 3387 014c 0A21     		movs	r1, #10
 3388 014e 5982     		strh	r1, [r3, #18]	@ movhi
 905:C:/Users/lenovo/Desktop/liteos/Project2/BearPi_LiteOS/components/connectivity/lwm2m/core\objects.c **** 
 3389              		.loc 1 905 0
ARM GAS  c:\Users\lenovo\AppData\Local\Temp\ccdS8TBd.s 			page 85


 3390 0150 0B21     		movs	r1, #11
 3391 0152 5984     		strh	r1, [r3, #34]	@ movhi
 907:C:/Users/lenovo/Desktop/liteos/Project2/BearPi_LiteOS/components/connectivity/lwm2m/core\objects.c ****             {
 3392              		.loc 1 907 0
 3393 0154 F768     		ldr	r7, [r6, #12]
 3394 0156 A088     		ldrh	r0, [r4, #4]
 3395 0158 0096     		str	r6, [sp]
 3396 015a 0023     		movs	r3, #0
 3397 015c 05A9     		add	r1, sp, #20
 3398 015e B847     		blx	r7
 3399              	.LVL497:
 3400 0160 4528     		cmp	r0, #69
 3401 0162 7FF46FAF 		bne	.L314
 914:C:/Users/lenovo/Desktop/liteos/Project2/BearPi_LiteOS/components/connectivity/lwm2m/core\objects.c ****             if (targetP == NULL)
 3402              		.loc 1 914 0
 3403 0166 3020     		movs	r0, #48
 3404 0168 FFF7FEFF 		bl	lwm2m_malloc
 3405              	.LVL498:
 915:C:/Users/lenovo/Desktop/liteos/Project2/BearPi_LiteOS/components/connectivity/lwm2m/core\objects.c ****             {
 3406              		.loc 1 915 0
 3407 016c 0746     		mov	r7, r0
 3408 016e 0028     		cmp	r0, #0
 3409 0170 3FF478AF 		beq	.L315
 921:C:/Users/lenovo/Desktop/liteos/Project2/BearPi_LiteOS/components/connectivity/lwm2m/core\objects.c ****             targetP->secObjInstID = securityInstP->id;
 3410              		.loc 1 921 0
 3411 0174 3022     		movs	r2, #48
 3412 0176 0021     		movs	r1, #0
 3413 0178 FFF7FEFF 		bl	memset
 3414              	.LVL499:
 922:C:/Users/lenovo/Desktop/liteos/Project2/BearPi_LiteOS/components/connectivity/lwm2m/core\objects.c **** 
 3415              		.loc 1 922 0
 3416 017c A388     		ldrh	r3, [r4, #4]
 3417 017e BB80     		strh	r3, [r7, #4]	@ movhi
 924:C:/Users/lenovo/Desktop/liteos/Project2/BearPi_LiteOS/components/connectivity/lwm2m/core\objects.c ****             {
 3418              		.loc 1 924 0
 3419 0180 0DF10F01 		add	r1, sp, #15
 3420 0184 0498     		ldr	r0, [sp, #16]
 3421 0186 FFF7FEFF 		bl	lwm2m_data_decode_bool
 3422              	.LVL500:
 3423 018a 0028     		cmp	r0, #0
 3424 018c 3FF47AAF 		beq	.L316
 932:C:/Users/lenovo/Desktop/liteos/Project2/BearPi_LiteOS/components/connectivity/lwm2m/core\objects.c ****                     || value < (isBootstrap ? 0 : 1) || value > 0xFFFF)                // 0 is forb
 3425              		.loc 1 932 0
 3426 0190 06A9     		add	r1, sp, #24
 3427 0192 0498     		ldr	r0, [sp, #16]
 3428 0194 1030     		adds	r0, r0, #16
 3429 0196 FFF7FEFF 		bl	lwm2m_data_decode_int
 3430              	.LVL501:
 3431 019a 0028     		cmp	r0, #0
 3432 019c 85D0     		beq	.L297
 933:C:/Users/lenovo/Desktop/liteos/Project2/BearPi_LiteOS/components/connectivity/lwm2m/core\objects.c ****             {
 3433              		.loc 1 933 0
 3434 019e 9DF80FC0 		ldrb	ip, [sp, #15]	@ zero_extendqisi2
 3435 01a2 8CF00100 		eor	r0, ip, #1
 3436 01a6 C0B2     		uxtb	r0, r0
 3437 01a8 0021     		movs	r1, #0
 3438 01aa DDE90623 		ldrd	r2, [sp, #24]
ARM GAS  c:\Users\lenovo\AppData\Local\Temp\ccdS8TBd.s 			page 86


 3439 01ae 8242     		cmp	r2, r0
 3440 01b0 73EB0101 		sbcs	r1, r3, r1
 3441 01b4 FFF679AF 		blt	.L297
 933:C:/Users/lenovo/Desktop/liteos/Project2/BearPi_LiteOS/components/connectivity/lwm2m/core\objects.c ****             {
 3442              		.loc 1 933 0 is_stmt 0 discriminator 1
 3443 01b8 B2F5803F 		cmp	r2, #65536
 3444 01bc 73F10001 		sbcs	r1, r3, #0
 3445 01c0 BFF673AF 		bge	.L297
 940:C:/Users/lenovo/Desktop/liteos/Project2/BearPi_LiteOS/components/connectivity/lwm2m/core\objects.c **** 
 3446              		.loc 1 940 0 is_stmt 1
 3447 01c4 91B2     		uxth	r1, r2
 3448 01c6 F980     		strh	r1, [r7, #6]	@ movhi
 942:C:/Users/lenovo/Desktop/liteos/Project2/BearPi_LiteOS/components/connectivity/lwm2m/core\objects.c ****             {
 3449              		.loc 1 942 0
 3450 01c8 BCF1000F 		cmp	ip, #0
 3451 01cc 1DD0     		beq	.L299
 944:C:/Users/lenovo/Desktop/liteos/Project2/BearPi_LiteOS/components/connectivity/lwm2m/core\objects.c ****                         || value < 0 || value > 0xFFFFFFFF)             // This is an implementatio
 3452              		.loc 1 944 0
 3453 01ce 06A9     		add	r1, sp, #24
 3454 01d0 0498     		ldr	r0, [sp, #16]
 3455 01d2 2030     		adds	r0, r0, #32
 3456 01d4 FFF7FEFF 		bl	lwm2m_data_decode_int
 3457              	.LVL502:
 3458 01d8 0028     		cmp	r0, #0
 3459 01da 3FF47BAF 		beq	.L300
 945:C:/Users/lenovo/Desktop/liteos/Project2/BearPi_LiteOS/components/connectivity/lwm2m/core\objects.c ****                 {
 3460              		.loc 1 945 0
 3461 01de DDE90623 		ldrd	r2, [sp, #24]
 3462 01e2 002A     		cmp	r2, #0
 3463 01e4 73F10001 		sbcs	r1, r3, #0
 3464 01e8 FFF674AF 		blt	.L300
 945:C:/Users/lenovo/Desktop/liteos/Project2/BearPi_LiteOS/components/connectivity/lwm2m/core\objects.c ****                 {
 3465              		.loc 1 945 0 is_stmt 0 discriminator 1
 3466 01ec 002A     		cmp	r2, #0
 3467 01ee 73F10101 		sbcs	r1, r3, #1
 3468 01f2 BFF66FAF 		bge	.L300
 953:C:/Users/lenovo/Desktop/liteos/Project2/BearPi_LiteOS/components/connectivity/lwm2m/core\objects.c **** 
 3469              		.loc 1 953 0 is_stmt 1
 3470 01f6 C7E90223 		strd	r2, [r7, #8]
 955:C:/Users/lenovo/Desktop/liteos/Project2/BearPi_LiteOS/components/connectivity/lwm2m/core\objects.c ****                 {
 3471              		.loc 1 955 0
 3472 01fa B9F1000F 		cmp	r9, #0
 3473 01fe 3FF47CAF 		beq	.L302
 957:C:/Users/lenovo/Desktop/liteos/Project2/BearPi_LiteOS/components/connectivity/lwm2m/core\objects.c ****                 }
 3474              		.loc 1 957 0
 3475 0202 3846     		mov	r0, r7
 3476 0204 FFF7FEFF 		bl	lwm2m_free
 3477              	.LVL503:
 3478 0208 7CE7     		b	.L303
 3479              	.L299:
 3480              	.LBB25:
 968:C:/Users/lenovo/Desktop/liteos/Project2/BearPi_LiteOS/components/connectivity/lwm2m/core\objects.c ****                 if (serverInstP == NULL)
 3481              		.loc 1 968 0
 3482 020a 4046     		mov	r0, r8
 3483 020c FFF7FEFF 		bl	prv_findServerInstance
 3484              	.LVL504:
 969:C:/Users/lenovo/Desktop/liteos/Project2/BearPi_LiteOS/components/connectivity/lwm2m/core\objects.c ****                 {
ARM GAS  c:\Users\lenovo\AppData\Local\Temp\ccdS8TBd.s 			page 87


 3485              		.loc 1 969 0
 3486 0210 78B1     		cbz	r0, .L317
 975:C:/Users/lenovo/Desktop/liteos/Project2/BearPi_LiteOS/components/connectivity/lwm2m/core\objects.c ****                     {
 3487              		.loc 1 975 0
 3488 0212 3A46     		mov	r2, r7
 3489 0214 8188     		ldrh	r1, [r0, #4]
 3490 0216 4046     		mov	r0, r8
 3491              	.LVL505:
 3492 0218 FFF7FEFF 		bl	prv_getMandatoryInfo
 3493              	.LVL506:
 3494 021c 68B9     		cbnz	r0, .L318
 982:C:/Users/lenovo/Desktop/liteos/Project2/BearPi_LiteOS/components/connectivity/lwm2m/core\objects.c ****                     if (checkOnly)
 3495              		.loc 1 982 0
 3496 021e 0023     		movs	r3, #0
 3497 0220 87F82030 		strb	r3, [r7, #32]
 983:C:/Users/lenovo/Desktop/liteos/Project2/BearPi_LiteOS/components/connectivity/lwm2m/core\objects.c ****                     {
 3498              		.loc 1 983 0
 3499 0224 B9F1000F 		cmp	r9, #0
 3500 0228 1AD0     		beq	.L306
 985:C:/Users/lenovo/Desktop/liteos/Project2/BearPi_LiteOS/components/connectivity/lwm2m/core\objects.c ****                     }
 3501              		.loc 1 985 0
 3502 022a 3846     		mov	r0, r7
 3503 022c FFF7FEFF 		bl	lwm2m_free
 3504              	.LVL507:
 3505 0230 68E7     		b	.L303
 3506              	.LVL508:
 3507              	.L317:
 971:C:/Users/lenovo/Desktop/liteos/Project2/BearPi_LiteOS/components/connectivity/lwm2m/core\objects.c ****                 }
 3508              		.loc 1 971 0
 3509 0232 3846     		mov	r0, r7
 3510              	.LVL509:
 3511 0234 FFF7FEFF 		bl	lwm2m_free
 3512              	.LVL510:
 3513 0238 64E7     		b	.L303
 3514              	.L318:
 977:C:/Users/lenovo/Desktop/liteos/Project2/BearPi_LiteOS/components/connectivity/lwm2m/core\objects.c ****                         lwm2m_free(targetP);
 3515              		.loc 1 977 0
 3516 023a FFF7FEFF 		bl	lwm2m_gettime
 3517              	.LVL511:
 3518 023e A388     		ldrh	r3, [r4, #4]
 3519 0240 0093     		str	r3, [sp]
 3520 0242 40F2D133 		movw	r3, #977
 3521 0246 0D4A     		ldr	r2, .L319
 3522 0248 0146     		mov	r1, r0
 3523 024a 1248     		ldr	r0, .L319+24
 3524 024c FFF7FEFF 		bl	atiny_printf
 3525              	.LVL512:
 978:C:/Users/lenovo/Desktop/liteos/Project2/BearPi_LiteOS/components/connectivity/lwm2m/core\objects.c ****                         lwm2m_data_free(size, dataP);
 3526              		.loc 1 978 0
 3527 0250 3846     		mov	r0, r7
 3528 0252 FFF7FEFF 		bl	lwm2m_free
 3529              	.LVL513:
 979:C:/Users/lenovo/Desktop/liteos/Project2/BearPi_LiteOS/components/connectivity/lwm2m/core\objects.c ****                         return -1;
 3530              		.loc 1 979 0
 3531 0256 0499     		ldr	r1, [sp, #16]
 3532 0258 0598     		ldr	r0, [sp, #20]
 3533 025a FFF7FEFF 		bl	lwm2m_data_free
ARM GAS  c:\Users\lenovo\AppData\Local\Temp\ccdS8TBd.s 			page 88


 3534              	.LVL514:
 980:C:/Users/lenovo/Desktop/liteos/Project2/BearPi_LiteOS/components/connectivity/lwm2m/core\objects.c ****                     }
 3535              		.loc 1 980 0
 3536 025e 36E7     		b	.L293
 3537              	.L306:
 989:C:/Users/lenovo/Desktop/liteos/Project2/BearPi_LiteOS/components/connectivity/lwm2m/core\objects.c ****                     }
 3538              		.loc 1 989 0
 3539 0260 3946     		mov	r1, r7
 3540 0262 6869     		ldr	r0, [r5, #20]
 3541 0264 FFF7FEFF 		bl	lwm2m_list_add
 3542              	.LVL515:
 3543 0268 6861     		str	r0, [r5, #20]
 3544 026a 4BE7     		b	.L303
 3545              	.LVL516:
 3546              	.L313:
 3547              	.LBE25:
 3548              	.LBE26:
 996:C:/Users/lenovo/Desktop/liteos/Project2/BearPi_LiteOS/components/connectivity/lwm2m/core\objects.c ****     }
 997:C:/Users/lenovo/Desktop/liteos/Project2/BearPi_LiteOS/components/connectivity/lwm2m/core\objects.c **** 
 998:C:/Users/lenovo/Desktop/liteos/Project2/BearPi_LiteOS/components/connectivity/lwm2m/core\objects.c ****     return 0;
 3549              		.loc 1 998 0
 3550 026c 0020     		movs	r0, #0
 3551              	.LVL517:
 3552              	.L286:
 999:C:/Users/lenovo/Desktop/liteos/Project2/BearPi_LiteOS/components/connectivity/lwm2m/core\objects.c **** }
 3553              		.loc 1 999 0
 3554 026e 09B0     		add	sp, sp, #36
 3555              	.LCFI58:
 3556              		.cfi_remember_state
 3557              		.cfi_def_cfa_offset 28
 3558              		@ sp needed
 3559 0270 BDE8F083 		pop	{r4, r5, r6, r7, r8, r9, pc}
 3560              	.LVL518:
 3561              	.L310:
 3562              	.LCFI59:
 3563              		.cfi_restore_state
 884:C:/Users/lenovo/Desktop/liteos/Project2/BearPi_LiteOS/components/connectivity/lwm2m/core\objects.c **** 
 3564              		.loc 1 884 0
 3565 0274 4FF0FF30 		mov	r0, #-1
 3566 0278 F9E7     		b	.L286
 3567              	.L320:
 3568 027a 00BF     		.align	2
 3569              	.L319:
 3570 027c 00000000 		.word	.LANCHOR12
 3571 0280 00000000 		.word	.LC7
 3572 0284 00000000 		.word	.LC12
 3573 0288 30000000 		.word	.LC13
 3574 028c 58000000 		.word	.LC14
 3575 0290 88000000 		.word	.LC15
 3576 0294 B8000000 		.word	.LC16
 3577              		.cfi_endproc
 3578              	.LFE158:
 3580              		.section	.rodata.__func__.11937,"a",%progbits
 3581              		.align	2
 3582              		.set	.LANCHOR0,. + 0
 3585              	__func__.11937:
 3586 0000 6F626A65 		.ascii	"object_checkReadable\000"
ARM GAS  c:\Users\lenovo\AppData\Local\Temp\ccdS8TBd.s 			page 89


 3586      63745F63 
 3586      6865636B 
 3586      52656164 
 3586      61626C65 
 3587              		.section	.rodata.__func__.11946,"a",%progbits
 3588              		.align	2
 3589              		.set	.LANCHOR1,. + 0
 3592              	__func__.11946:
 3593 0000 6F626A65 		.ascii	"object_checkNumeric\000"
 3593      63745F63 
 3593      6865636B 
 3593      4E756D65 
 3593      72696300 
 3594              		.section	.rodata.__func__.11975,"a",%progbits
 3595              		.align	2
 3596              		.set	.LANCHOR2,. + 0
 3599              	__func__.11975:
 3600 0000 6F626A65 		.ascii	"object_readData\000"
 3600      63745F72 
 3600      65616444 
 3600      61746100 
 3601              		.section	.rodata.__func__.11998,"a",%progbits
 3602              		.align	2
 3603              		.set	.LANCHOR3,. + 0
 3606              	__func__.11998:
 3607 0000 6F626A65 		.ascii	"object_read\000"
 3607      63745F72 
 3607      65616400 
 3608              		.section	.rodata.__func__.12010,"a",%progbits
 3609              		.align	2
 3610              		.set	.LANCHOR4,. + 0
 3613              	__func__.12010:
 3614 0000 6F626A65 		.ascii	"object_write\000"
 3614      63745F77 
 3614      72697465 
 3614      00
 3615              		.section	.rodata.__func__.12018,"a",%progbits
 3616              		.align	2
 3617              		.set	.LANCHOR5,. + 0
 3620              	__func__.12018:
 3621 0000 6F626A65 		.ascii	"object_execute\000"
 3621      63745F65 
 3621      78656375 
 3621      746500
 3622              		.section	.rodata.__func__.12030,"a",%progbits
 3623              		.align	2
 3624              		.set	.LANCHOR6,. + 0
 3627              	__func__.12030:
 3628 0000 6F626A65 		.ascii	"object_create\000"
 3628      63745F63 
 3628      72656174 
 3628      6500
 3629              		.section	.rodata.__func__.12042,"a",%progbits
 3630              		.align	2
 3631              		.set	.LANCHOR7,. + 0
 3634              	__func__.12042:
 3635 0000 6F626A65 		.ascii	"object_delete\000"
ARM GAS  c:\Users\lenovo\AppData\Local\Temp\ccdS8TBd.s 			page 90


 3635      63745F64 
 3635      656C6574 
 3635      6500
 3636              		.section	.rodata.__func__.12058,"a",%progbits
 3637              		.align	2
 3638              		.set	.LANCHOR8,. + 0
 3641              	__func__.12058:
 3642 0000 6F626A65 		.ascii	"object_discover\000"
 3642      63745F64 
 3642      6973636F 
 3642      76657200 
 3643              		.section	.rodata.__func__.12074,"a",%progbits
 3644              		.align	2
 3645              		.set	.LANCHOR9,. + 0
 3648              	__func__.12074:
 3649 0000 6F626A65 		.ascii	"object_isInstanceNew\000"
 3649      63745F69 
 3649      73496E73 
 3649      74616E63 
 3649      654E6577 
 3650              		.section	.rodata.__func__.12089,"a",%progbits
 3651              		.align	2
 3652              		.set	.LANCHOR10,. + 0
 3655              	__func__.12089:
 3656 0000 6F626A65 		.ascii	"object_getRegisterPayloadBufferLength\000"
 3656      63745F67 
 3656      65745265 
 3656      67697374 
 3656      65725061 
 3657              		.section	.rodata.__func__.12108,"a",%progbits
 3658              		.align	2
 3659              		.set	.LANCHOR11,. + 0
 3662              	__func__.12108:
 3663 0000 6F626A65 		.ascii	"object_getRegisterPayload\000"
 3663      63745F67 
 3663      65745265 
 3663      67697374 
 3663      65725061 
 3664              		.section	.rodata.__func__.12146,"a",%progbits
 3665              		.align	2
 3666              		.set	.LANCHOR12,. + 0
 3669              	__func__.12146:
 3670 0000 6F626A65 		.ascii	"object_getServers\000"
 3670      63745F67 
 3670      65745365 
 3670      72766572 
 3670      7300
 3671              		.section	.rodata.object_checkReadable.str1.4,"aMS",%progbits,1
 3672              		.align	2
 3673              	.LC0:
 3674 0000 5B25733A 		.ascii	"[%s:%d] NULL\015\012\000"
 3674      25645D20 
 3674      4E554C4C 
 3674      0D0A00
 3675 000f 00       		.space	1
 3676              	.LC1:
 3677 0010 5B25733A 		.ascii	"[%s:%d] /%d\000"
ARM GAS  c:\Users\lenovo\AppData\Local\Temp\ccdS8TBd.s 			page 91


 3677      25645D20 
 3677      2F256400 
 3678              	.LC2:
 3679 001c 2F256400 		.ascii	"/%d\000"
 3680              	.LC3:
 3681 0020 0D0A00   		.ascii	"\015\012\000"
 3682              		.section	.rodata.object_delete.str1.4,"aMS",%progbits,1
 3683              		.align	2
 3684              	.LC7:
 3685 0000 5B25645D 		.ascii	"[%d][%s:%d] Entering\015\012\000"
 3685      5B25733A 
 3685      25645D20 
 3685      456E7465 
 3685      72696E67 
 3686              		.section	.rodata.object_getRegisterPayload.str1.4,"aMS",%progbits,1
 3687              		.align	2
 3688              	.LC8:
 3689 0000 3C00     		.ascii	"<\000"
 3690 0002 0000     		.space	2
 3691              	.LC9:
 3692 0004 2F00     		.ascii	"/\000"
 3693 0006 0000     		.space	2
 3694              	.LC10:
 3695 0008 3E3B7274 		.ascii	">;rt=\"oma.lwm2m\",\000"
 3695      3D226F6D 
 3695      612E6C77 
 3695      6D326D22 
 3695      2C00
 3696 001a 0000     		.space	2
 3697              	.LC11:
 3698 001c 3E2C00   		.ascii	">,\000"
 3699              		.section	.rodata.object_getServers.str1.4,"aMS",%progbits,1
 3700              		.align	2
 3701              	.LC12:
 3702 0000 5B25645D 		.ascii	"[%d][%s:%d] securityObjP->readFunc fail id %d\015\012"
 3702      5B25733A 
 3702      25645D20 
 3702      73656375 
 3702      72697479 
 3703 002f 00       		.ascii	"\000"
 3704              	.LC13:
 3705 0030 5B25645D 		.ascii	"[%d][%s:%d] lwm2m_malloc fail id %d\015\012\000"
 3705      5B25733A 
 3705      25645D20 
 3705      6C776D32 
 3705      6D5F6D61 
 3706 0056 0000     		.space	2
 3707              	.LC14:
 3708 0058 5B25645D 		.ascii	"[%d][%s:%d] lwm2m_data_decode_bool fail id %d\015\012"
 3708      5B25733A 
 3708      25645D20 
 3708      6C776D32 
 3708      6D5F6461 
 3709 0087 00       		.ascii	"\000"
 3710              	.LC15:
 3711 0088 5B25645D 		.ascii	"[%d][%s:%d] lwm2m_data_decode_int fail id %d\015\012"
 3711      5B25733A 
ARM GAS  c:\Users\lenovo\AppData\Local\Temp\ccdS8TBd.s 			page 92


 3711      25645D20 
 3711      6C776D32 
 3711      6D5F6461 
 3712 00b6 00       		.ascii	"\000"
 3713 00b7 00       		.space	1
 3714              	.LC16:
 3715 00b8 5B25645D 		.ascii	"[%d][%s:%d] prv_getMandatoryInfo fail id %d\015\012"
 3715      5B25733A 
 3715      25645D20 
 3715      7072765F 
 3715      6765744D 
 3716 00e5 00       		.ascii	"\000"
 3717              		.section	.rodata.object_read.str1.4,"aMS",%progbits,1
 3718              		.align	2
 3719              	.LC5:
 3720 0000 5B25645D 		.ascii	"[%d][%s:%d] result: %u.%2u, length: %d\015\012\000"
 3720      5B25733A 
 3720      25645D20 
 3720      72657375 
 3720      6C743A20 
 3721              		.section	.rodata.object_readData.str1.4,"aMS",%progbits,1
 3722              		.align	2
 3723              	.LC4:
 3724 0000 5B25645D 		.ascii	"[%d][%s:%d] result: %u.%2u, size: %d\015\012\000"
 3724      5B25733A 
 3724      25645D20 
 3724      72657375 
 3724      6C743A20 
 3725              		.section	.rodata.object_write.str1.4,"aMS",%progbits,1
 3726              		.align	2
 3727              	.LC6:
 3728 0000 5B25645D 		.ascii	"[%d][%s:%d] result: %u.%2u\015\012\000"
 3728      5B25733A 
 3728      25645D20 
 3728      72657375 
 3728      6C743A20 
 3729              		.text
 3730              	.Letext0:
 3731              		.file 2 "c:\\program files (x86)\\liteos studio\\resources\\arm-none-eabi\\arm-none-eabi\\include\
 3732              		.file 3 "c:\\program files (x86)\\liteos studio\\resources\\arm-none-eabi\\arm-none-eabi\\include\
 3733              		.file 4 "C:/Users/lenovo/Desktop/liteos/Project2/BearPi_LiteOS/components/connectivity/lwm2m/core/
 3734              		.file 5 "c:\\program files (x86)\\liteos studio\\resources\\arm-none-eabi\\lib\\gcc\\arm-none-eabi
 3735              		.file 6 "c:\\program files (x86)\\liteos studio\\resources\\arm-none-eabi\\arm-none-eabi\\include\
 3736              		.file 7 "c:\\program files (x86)\\liteos studio\\resources\\arm-none-eabi\\arm-none-eabi\\include\
 3737              		.file 8 "c:\\program files (x86)\\liteos studio\\resources\\arm-none-eabi\\arm-none-eabi\\include\
 3738              		.file 9 "c:\\program files (x86)\\liteos studio\\resources\\arm-none-eabi\\arm-none-eabi\\include\
 3739              		.file 10 "c:\\program files (x86)\\liteos studio\\resources\\arm-none-eabi\\arm-none-eabi\\include
 3740              		.file 11 "C:/Users/lenovo/Desktop/liteos/Project2/BearPi_LiteOS/components/connectivity/lwm2m/core
 3741              		.file 12 "C:/Users/lenovo/Desktop/liteos/Project2/BearPi_LiteOS/kernel/include/los_typedef.h"
 3742              		.file 13 "C:/Users/lenovo/Desktop/liteos/Project2/BearPi_LiteOS/arch/arm/common/cmsis/core_cm4.h"
 3743              		.file 14 "C:/Users/lenovo/Desktop/liteos/Project2/BearPi_LiteOS/targets/STM32L431_BearPi/Inc/syste
 3744              		.file 15 "C:/Users/lenovo/Desktop/liteos/Project2/BearPi_LiteOS/kernel/include/los_list.h"
 3745              		.file 16 "C:/Users/lenovo/Desktop/liteos/Project2/BearPi_LiteOS/kernel/include/los_err.h"
 3746              		.file 17 "C:/Users/lenovo/Desktop/liteos/Project2/BearPi_LiteOS/arch/arm/arm-m/include/los_hwi.h"
 3747              		.file 18 "C:/Users/lenovo/Desktop/liteos/Project2/BearPi_LiteOS/kernel/include/los_tick.h"
 3748              		.file 19 "C:/Users/lenovo/Desktop/liteos/Project2/BearPi_LiteOS/kernel/include/los_event.h"
 3749              		.file 20 "C:/Users/lenovo/Desktop/liteos/Project2/BearPi_LiteOS/kernel/include/los_task.h"
ARM GAS  c:\Users\lenovo\AppData\Local\Temp\ccdS8TBd.s 			page 93


 3750              		.file 21 "C:/Users/lenovo/Desktop/liteos/Project2/BearPi_LiteOS/kernel/base/include/los_task.ph"
 3751              		.file 22 "C:/Users/lenovo/Desktop/liteos/Project2/BearPi_LiteOS/targets/STM32L431_BearPi/Inc/main.
 3752              		.file 23 "C:/Users/lenovo/Desktop/liteos/Project2/BearPi_LiteOS/targets/STM32L431_BearPi/OS_CONFIG
 3753              		.file 24 "C:/Users/lenovo/Desktop/liteos/Project2/BearPi_LiteOS/kernel/include/los_config.h"
 3754              		.file 25 "C:/Users/lenovo/Desktop/liteos/Project2/BearPi_LiteOS/components/connectivity/lwm2m/core
 3755              		.file 26 "c:\\program files (x86)\\liteos studio\\resources\\arm-none-eabi\\arm-none-eabi\\include
 3756              		.file 27 "c:\\program files (x86)\\liteos studio\\resources\\arm-none-eabi\\arm-none-eabi\\include
 3757              		.file 28 "C:/Users/lenovo/Desktop/liteos/Project2/BearPi_LiteOS/components/connectivity/agent_tiny
 3758              		.file 29 "C:/Users/lenovo/Desktop/liteos/Project2/BearPi_LiteOS/include/osdepends/atiny_osdep.h"
 3759              		.file 30 "C:/Users/lenovo/Desktop/liteos/Project2/BearPi_LiteOS/components/connectivity/lwm2m/core
 3760              		.file 31 "<built-in>"
 3761              		.file 32 "c:\\program files (x86)\\liteos studio\\resources\\arm-none-eabi\\arm-none-eabi\\include
ARM GAS  c:\Users\lenovo\AppData\Local\Temp\ccdS8TBd.s 			page 94


DEFINED SYMBOLS
                            *ABS*:00000000 objects.c
c:\Users\lenovo\AppData\Local\Temp\ccdS8TBd.s:18     .text.prv_init_forbidden:00000000 $t
c:\Users\lenovo\AppData\Local\Temp\ccdS8TBd.s:24     .text.prv_init_forbidden:00000000 prv_init_forbidden
c:\Users\lenovo\AppData\Local\Temp\ccdS8TBd.s:144    .text.prv_getObjectTemplate:00000000 $t
c:\Users\lenovo\AppData\Local\Temp\ccdS8TBd.s:150    .text.prv_getObjectTemplate:00000000 prv_getObjectTemplate
c:\Users\lenovo\AppData\Local\Temp\ccdS8TBd.s:241    .text.prv_findServerInstance:00000000 $t
c:\Users\lenovo\AppData\Local\Temp\ccdS8TBd.s:247    .text.prv_findServerInstance:00000000 prv_findServerInstance
c:\Users\lenovo\AppData\Local\Temp\ccdS8TBd.s:362    .text.prv_getMandatoryInfo:00000000 $t
c:\Users\lenovo\AppData\Local\Temp\ccdS8TBd.s:368    .text.prv_getMandatoryInfo:00000000 prv_getMandatoryInfo
c:\Users\lenovo\AppData\Local\Temp\ccdS8TBd.s:493    .text.object_checkReadable:00000000 $t
c:\Users\lenovo\AppData\Local\Temp\ccdS8TBd.s:500    .text.object_checkReadable:00000000 object_checkReadable
c:\Users\lenovo\AppData\Local\Temp\ccdS8TBd.s:682    .text.object_checkReadable:000000c8 $d
c:\Users\lenovo\AppData\Local\Temp\ccdS8TBd.s:691    .text.object_checkNumeric:00000000 $t
c:\Users\lenovo\AppData\Local\Temp\ccdS8TBd.s:698    .text.object_checkNumeric:00000000 object_checkNumeric
c:\Users\lenovo\AppData\Local\Temp\ccdS8TBd.s:874    .text.object_checkNumeric:000000c0 $d
c:\Users\lenovo\AppData\Local\Temp\ccdS8TBd.s:883    .text.object_readData:00000000 $t
c:\Users\lenovo\AppData\Local\Temp\ccdS8TBd.s:890    .text.object_readData:00000000 object_readData
c:\Users\lenovo\AppData\Local\Temp\ccdS8TBd.s:1231   .text.object_readData:000001a8 $d
c:\Users\lenovo\AppData\Local\Temp\ccdS8TBd.s:1241   .text.object_read:00000000 $t
c:\Users\lenovo\AppData\Local\Temp\ccdS8TBd.s:1248   .text.object_read:00000000 object_read
c:\Users\lenovo\AppData\Local\Temp\ccdS8TBd.s:1403   .text.object_read:000000cc $d
c:\Users\lenovo\AppData\Local\Temp\ccdS8TBd.s:1413   .text.object_write:00000000 $t
c:\Users\lenovo\AppData\Local\Temp\ccdS8TBd.s:1420   .text.object_write:00000000 object_write
c:\Users\lenovo\AppData\Local\Temp\ccdS8TBd.s:1591   .text.object_write:000000cc $d
c:\Users\lenovo\AppData\Local\Temp\ccdS8TBd.s:1601   .text.object_execute:00000000 $t
c:\Users\lenovo\AppData\Local\Temp\ccdS8TBd.s:1608   .text.object_execute:00000000 object_execute
c:\Users\lenovo\AppData\Local\Temp\ccdS8TBd.s:1741   .text.object_execute:00000090 $d
c:\Users\lenovo\AppData\Local\Temp\ccdS8TBd.s:1750   .text.object_create:00000000 $t
c:\Users\lenovo\AppData\Local\Temp\ccdS8TBd.s:1757   .text.object_create:00000000 object_create
c:\Users\lenovo\AppData\Local\Temp\ccdS8TBd.s:2017   .text.object_create:00000140 $d
c:\Users\lenovo\AppData\Local\Temp\ccdS8TBd.s:2027   .text.object_delete:00000000 $t
c:\Users\lenovo\AppData\Local\Temp\ccdS8TBd.s:2034   .text.object_delete:00000000 object_delete
c:\Users\lenovo\AppData\Local\Temp\ccdS8TBd.s:2241   .text.object_delete:00000100 $d
c:\Users\lenovo\AppData\Local\Temp\ccdS8TBd.s:2252   .text.object_discover:00000000 $t
c:\Users\lenovo\AppData\Local\Temp\ccdS8TBd.s:2259   .text.object_discover:00000000 object_discover
c:\Users\lenovo\AppData\Local\Temp\ccdS8TBd.s:2583   .text.object_discover:00000188 $d
c:\Users\lenovo\AppData\Local\Temp\ccdS8TBd.s:2594   .text.object_isInstanceNew:00000000 $t
c:\Users\lenovo\AppData\Local\Temp\ccdS8TBd.s:2601   .text.object_isInstanceNew:00000000 object_isInstanceNew
c:\Users\lenovo\AppData\Local\Temp\ccdS8TBd.s:2660   .text.object_isInstanceNew:0000003c $d
c:\Users\lenovo\AppData\Local\Temp\ccdS8TBd.s:2666   .text.object_getRegisterPayloadBufferLength:00000000 $t
c:\Users\lenovo\AppData\Local\Temp\ccdS8TBd.s:2673   .text.object_getRegisterPayloadBufferLength:00000000 object_getRegisterPayloadBufferLength
c:\Users\lenovo\AppData\Local\Temp\ccdS8TBd.s:2839   .text.object_getRegisterPayloadBufferLength:0000008c $d
c:\Users\lenovo\AppData\Local\Temp\ccdS8TBd.s:2845   .text.object_getRegisterPayload:00000000 $t
c:\Users\lenovo\AppData\Local\Temp\ccdS8TBd.s:2852   .text.object_getRegisterPayload:00000000 object_getRegisterPayload
c:\Users\lenovo\AppData\Local\Temp\ccdS8TBd.s:3124   .text.object_getRegisterPayload:0000011c $d
c:\Users\lenovo\AppData\Local\Temp\ccdS8TBd.s:3136   .text.object_getServers:00000000 $t
c:\Users\lenovo\AppData\Local\Temp\ccdS8TBd.s:3143   .text.object_getServers:00000000 object_getServers
c:\Users\lenovo\AppData\Local\Temp\ccdS8TBd.s:3570   .text.object_getServers:0000027c $d
c:\Users\lenovo\AppData\Local\Temp\ccdS8TBd.s:3581   .rodata.__func__.11937:00000000 $d
c:\Users\lenovo\AppData\Local\Temp\ccdS8TBd.s:3585   .rodata.__func__.11937:00000000 __func__.11937
c:\Users\lenovo\AppData\Local\Temp\ccdS8TBd.s:3588   .rodata.__func__.11946:00000000 $d
c:\Users\lenovo\AppData\Local\Temp\ccdS8TBd.s:3592   .rodata.__func__.11946:00000000 __func__.11946
c:\Users\lenovo\AppData\Local\Temp\ccdS8TBd.s:3595   .rodata.__func__.11975:00000000 $d
c:\Users\lenovo\AppData\Local\Temp\ccdS8TBd.s:3599   .rodata.__func__.11975:00000000 __func__.11975
c:\Users\lenovo\AppData\Local\Temp\ccdS8TBd.s:3602   .rodata.__func__.11998:00000000 $d
c:\Users\lenovo\AppData\Local\Temp\ccdS8TBd.s:3606   .rodata.__func__.11998:00000000 __func__.11998
ARM GAS  c:\Users\lenovo\AppData\Local\Temp\ccdS8TBd.s 			page 95


c:\Users\lenovo\AppData\Local\Temp\ccdS8TBd.s:3609   .rodata.__func__.12010:00000000 $d
c:\Users\lenovo\AppData\Local\Temp\ccdS8TBd.s:3613   .rodata.__func__.12010:00000000 __func__.12010
c:\Users\lenovo\AppData\Local\Temp\ccdS8TBd.s:3616   .rodata.__func__.12018:00000000 $d
c:\Users\lenovo\AppData\Local\Temp\ccdS8TBd.s:3620   .rodata.__func__.12018:00000000 __func__.12018
c:\Users\lenovo\AppData\Local\Temp\ccdS8TBd.s:3623   .rodata.__func__.12030:00000000 $d
c:\Users\lenovo\AppData\Local\Temp\ccdS8TBd.s:3627   .rodata.__func__.12030:00000000 __func__.12030
c:\Users\lenovo\AppData\Local\Temp\ccdS8TBd.s:3630   .rodata.__func__.12042:00000000 $d
c:\Users\lenovo\AppData\Local\Temp\ccdS8TBd.s:3634   .rodata.__func__.12042:00000000 __func__.12042
c:\Users\lenovo\AppData\Local\Temp\ccdS8TBd.s:3637   .rodata.__func__.12058:00000000 $d
c:\Users\lenovo\AppData\Local\Temp\ccdS8TBd.s:3641   .rodata.__func__.12058:00000000 __func__.12058
c:\Users\lenovo\AppData\Local\Temp\ccdS8TBd.s:3644   .rodata.__func__.12074:00000000 $d
c:\Users\lenovo\AppData\Local\Temp\ccdS8TBd.s:3648   .rodata.__func__.12074:00000000 __func__.12074
c:\Users\lenovo\AppData\Local\Temp\ccdS8TBd.s:3651   .rodata.__func__.12089:00000000 $d
c:\Users\lenovo\AppData\Local\Temp\ccdS8TBd.s:3655   .rodata.__func__.12089:00000000 __func__.12089
c:\Users\lenovo\AppData\Local\Temp\ccdS8TBd.s:3658   .rodata.__func__.12108:00000000 $d
c:\Users\lenovo\AppData\Local\Temp\ccdS8TBd.s:3662   .rodata.__func__.12108:00000000 __func__.12108
c:\Users\lenovo\AppData\Local\Temp\ccdS8TBd.s:3665   .rodata.__func__.12146:00000000 $d
c:\Users\lenovo\AppData\Local\Temp\ccdS8TBd.s:3669   .rodata.__func__.12146:00000000 __func__.12146
c:\Users\lenovo\AppData\Local\Temp\ccdS8TBd.s:3672   .rodata.object_checkReadable.str1.4:00000000 $d
c:\Users\lenovo\AppData\Local\Temp\ccdS8TBd.s:3683   .rodata.object_delete.str1.4:00000000 $d
c:\Users\lenovo\AppData\Local\Temp\ccdS8TBd.s:3687   .rodata.object_getRegisterPayload.str1.4:00000000 $d
c:\Users\lenovo\AppData\Local\Temp\ccdS8TBd.s:3700   .rodata.object_getServers.str1.4:00000000 $d
c:\Users\lenovo\AppData\Local\Temp\ccdS8TBd.s:3718   .rodata.object_read.str1.4:00000000 $d
c:\Users\lenovo\AppData\Local\Temp\ccdS8TBd.s:3722   .rodata.object_readData.str1.4:00000000 $d
c:\Users\lenovo\AppData\Local\Temp\ccdS8TBd.s:3726   .rodata.object_write.str1.4:00000000 $d

UNDEFINED SYMBOLS
lwm2m_malloc
memset
acc_auth_operate
lwm2m_free
utils_intToText
lwm2m_data_free
lwm2m_data_new
lwm2m_data_decode_int
utils_stringToBinding
atiny_printf
lwm2m_list_find
lwm2m_gettime
lwm2m_data_serialize
lwm2m_data_parse
lwm2m_list_newId
observe_clear
discover_serialize
strlen
utils_stringCopy
memcpy
lwm2m_list_add
lwm2m_data_decode_bool
