ARM GAS  c:\Users\lenovo\AppData\Local\Temp\ccp6MF8M.s 			page 1


   1              		.cpu cortex-m4
   2              		.eabi_attribute 27, 1
   3              		.eabi_attribute 28, 1
   4              		.eabi_attribute 20, 1
   5              		.eabi_attribute 21, 1
   6              		.eabi_attribute 23, 3
   7              		.eabi_attribute 24, 1
   8              		.eabi_attribute 25, 1
   9              		.eabi_attribute 26, 1
  10              		.eabi_attribute 30, 1
  11              		.eabi_attribute 34, 1
  12              		.eabi_attribute 18, 4
  13              		.file	"object_access_control.c"
  14              		.text
  15              	.Ltext0:
  16              		.cfi_sections	.debug_frame
  17              		.section	.text.prv_get_acc_instance,"ax",%progbits
  18              		.align	1
  19              		.syntax unified
  20              		.thumb
  21              		.thumb_func
  22              		.fpu fpv4-sp-d16
  24              	prv_get_acc_instance:
  25              	.LFB153:
  26              		.file 1 "C:/Users/lenovo/Desktop/liteos/Project2/BearPi_LiteOS/components/connectivity/agent_tiny/
   1:C:/Users/lenovo/Desktop/liteos/Project2/BearPi_LiteOS/components/connectivity/agent_tiny/atiny_lwm2m\object_access_control.c **** /*----------------------------------------------------------------------------
   2:C:/Users/lenovo/Desktop/liteos/Project2/BearPi_LiteOS/components/connectivity/agent_tiny/atiny_lwm2m\object_access_control.c ****  * Copyright (c) <2016-2018>, <Huawei Technologies Co., Ltd>
   3:C:/Users/lenovo/Desktop/liteos/Project2/BearPi_LiteOS/components/connectivity/agent_tiny/atiny_lwm2m\object_access_control.c ****  * All rights reserved.
   4:C:/Users/lenovo/Desktop/liteos/Project2/BearPi_LiteOS/components/connectivity/agent_tiny/atiny_lwm2m\object_access_control.c ****  * Redistribution and use in source and binary forms, with or without modification,
   5:C:/Users/lenovo/Desktop/liteos/Project2/BearPi_LiteOS/components/connectivity/agent_tiny/atiny_lwm2m\object_access_control.c ****  * are permitted provided that the following conditions are met:
   6:C:/Users/lenovo/Desktop/liteos/Project2/BearPi_LiteOS/components/connectivity/agent_tiny/atiny_lwm2m\object_access_control.c ****  * 1. Redistributions of source code must retain the above copyright notice, this list of
   7:C:/Users/lenovo/Desktop/liteos/Project2/BearPi_LiteOS/components/connectivity/agent_tiny/atiny_lwm2m\object_access_control.c ****  * conditions and the following disclaimer.
   8:C:/Users/lenovo/Desktop/liteos/Project2/BearPi_LiteOS/components/connectivity/agent_tiny/atiny_lwm2m\object_access_control.c ****  * 2. Redistributions in binary form must reproduce the above copyright notice, this list
   9:C:/Users/lenovo/Desktop/liteos/Project2/BearPi_LiteOS/components/connectivity/agent_tiny/atiny_lwm2m\object_access_control.c ****  * of conditions and the following disclaimer in the documentation and/or other materials
  10:C:/Users/lenovo/Desktop/liteos/Project2/BearPi_LiteOS/components/connectivity/agent_tiny/atiny_lwm2m\object_access_control.c ****  * provided with the distribution.
  11:C:/Users/lenovo/Desktop/liteos/Project2/BearPi_LiteOS/components/connectivity/agent_tiny/atiny_lwm2m\object_access_control.c ****  * 3. Neither the name of the copyright holder nor the names of its contributors may be used
  12:C:/Users/lenovo/Desktop/liteos/Project2/BearPi_LiteOS/components/connectivity/agent_tiny/atiny_lwm2m\object_access_control.c ****  * to endorse or promote products derived from this software without specific prior written
  13:C:/Users/lenovo/Desktop/liteos/Project2/BearPi_LiteOS/components/connectivity/agent_tiny/atiny_lwm2m\object_access_control.c ****  * permission.
  14:C:/Users/lenovo/Desktop/liteos/Project2/BearPi_LiteOS/components/connectivity/agent_tiny/atiny_lwm2m\object_access_control.c ****  * THIS SOFTWARE IS PROVIDED BY THE COPYRIGHT HOLDERS AND CONTRIBUTORS
  15:C:/Users/lenovo/Desktop/liteos/Project2/BearPi_LiteOS/components/connectivity/agent_tiny/atiny_lwm2m\object_access_control.c ****  * "AS IS" AND ANY EXPRESS OR IMPLIED WARRANTIES, INCLUDING, BUT NOT LIMITED TO,
  16:C:/Users/lenovo/Desktop/liteos/Project2/BearPi_LiteOS/components/connectivity/agent_tiny/atiny_lwm2m\object_access_control.c ****  * THE IMPLIED WARRANTIES OF MERCHANTABILITY AND FITNESS FOR A PARTICULAR
  17:C:/Users/lenovo/Desktop/liteos/Project2/BearPi_LiteOS/components/connectivity/agent_tiny/atiny_lwm2m\object_access_control.c ****  * PURPOSE ARE DISCLAIMED. IN NO EVENT SHALL THE COPYRIGHT HOLDER OR
  18:C:/Users/lenovo/Desktop/liteos/Project2/BearPi_LiteOS/components/connectivity/agent_tiny/atiny_lwm2m\object_access_control.c ****  * CONTRIBUTORS BE LIABLE FOR ANY DIRECT, INDIRECT, INCIDENTAL, SPECIAL,
  19:C:/Users/lenovo/Desktop/liteos/Project2/BearPi_LiteOS/components/connectivity/agent_tiny/atiny_lwm2m\object_access_control.c ****  * EXEMPLARY, OR CONSEQUENTIAL DAMAGES (INCLUDING, BUT NOT LIMITED TO,
  20:C:/Users/lenovo/Desktop/liteos/Project2/BearPi_LiteOS/components/connectivity/agent_tiny/atiny_lwm2m\object_access_control.c ****  * PROCUREMENT OF SUBSTITUTE GOODS OR SERVICES; LOSS OF USE, DATA, OR PROFITS;
  21:C:/Users/lenovo/Desktop/liteos/Project2/BearPi_LiteOS/components/connectivity/agent_tiny/atiny_lwm2m\object_access_control.c ****  * OR BUSINESS INTERRUPTION) HOWEVER CAUSED AND ON ANY THEORY OF LIABILITY,
  22:C:/Users/lenovo/Desktop/liteos/Project2/BearPi_LiteOS/components/connectivity/agent_tiny/atiny_lwm2m\object_access_control.c ****  * WHETHER IN CONTRACT, STRICT LIABILITY, OR TORT (INCLUDING NEGLIGENCE OR
  23:C:/Users/lenovo/Desktop/liteos/Project2/BearPi_LiteOS/components/connectivity/agent_tiny/atiny_lwm2m\object_access_control.c ****  * OTHERWISE) ARISING IN ANY WAY OUT OF THE USE OF THIS SOFTWARE, EVEN IF
  24:C:/Users/lenovo/Desktop/liteos/Project2/BearPi_LiteOS/components/connectivity/agent_tiny/atiny_lwm2m\object_access_control.c ****  * ADVISED OF THE POSSIBILITY OF SUCH DAMAGE.
  25:C:/Users/lenovo/Desktop/liteos/Project2/BearPi_LiteOS/components/connectivity/agent_tiny/atiny_lwm2m\object_access_control.c ****  *---------------------------------------------------------------------------*/
  26:C:/Users/lenovo/Desktop/liteos/Project2/BearPi_LiteOS/components/connectivity/agent_tiny/atiny_lwm2m\object_access_control.c **** /*----------------------------------------------------------------------------
  27:C:/Users/lenovo/Desktop/liteos/Project2/BearPi_LiteOS/components/connectivity/agent_tiny/atiny_lwm2m\object_access_control.c ****  * Notice of Export Control Law
  28:C:/Users/lenovo/Desktop/liteos/Project2/BearPi_LiteOS/components/connectivity/agent_tiny/atiny_lwm2m\object_access_control.c ****  * ===============================================
  29:C:/Users/lenovo/Desktop/liteos/Project2/BearPi_LiteOS/components/connectivity/agent_tiny/atiny_lwm2m\object_access_control.c ****  * Huawei LiteOS may be subject to applicable export control laws and regulations, which might
  30:C:/Users/lenovo/Desktop/liteos/Project2/BearPi_LiteOS/components/connectivity/agent_tiny/atiny_lwm2m\object_access_control.c ****  * include those applicable to Huawei LiteOS of U.S. and the country in which you are located.
  31:C:/Users/lenovo/Desktop/liteos/Project2/BearPi_LiteOS/components/connectivity/agent_tiny/atiny_lwm2m\object_access_control.c ****  * Import, export and usage of Huawei LiteOS in any manner by you shall be in compliance with such
  32:C:/Users/lenovo/Desktop/liteos/Project2/BearPi_LiteOS/components/connectivity/agent_tiny/atiny_lwm2m\object_access_control.c ****  * applicable export control laws and regulations.
ARM GAS  c:\Users\lenovo\AppData\Local\Temp\ccp6MF8M.s 			page 2


  33:C:/Users/lenovo/Desktop/liteos/Project2/BearPi_LiteOS/components/connectivity/agent_tiny/atiny_lwm2m\object_access_control.c ****  *---------------------------------------------------------------------------*/
  34:C:/Users/lenovo/Desktop/liteos/Project2/BearPi_LiteOS/components/connectivity/agent_tiny/atiny_lwm2m\object_access_control.c **** 
  35:C:/Users/lenovo/Desktop/liteos/Project2/BearPi_LiteOS/components/connectivity/agent_tiny/atiny_lwm2m\object_access_control.c **** /*******************************************************************************
  36:C:/Users/lenovo/Desktop/liteos/Project2/BearPi_LiteOS/components/connectivity/agent_tiny/atiny_lwm2m\object_access_control.c ****  *
  37:C:/Users/lenovo/Desktop/liteos/Project2/BearPi_LiteOS/components/connectivity/agent_tiny/atiny_lwm2m\object_access_control.c ****  * Copyright (c) 2015 Bosch Software Innovations GmbH Germany.
  38:C:/Users/lenovo/Desktop/liteos/Project2/BearPi_LiteOS/components/connectivity/agent_tiny/atiny_lwm2m\object_access_control.c ****  * All rights reserved. This program and the accompanying materials
  39:C:/Users/lenovo/Desktop/liteos/Project2/BearPi_LiteOS/components/connectivity/agent_tiny/atiny_lwm2m\object_access_control.c ****  * are made available under the terms of the Eclipse Public License v1.0
  40:C:/Users/lenovo/Desktop/liteos/Project2/BearPi_LiteOS/components/connectivity/agent_tiny/atiny_lwm2m\object_access_control.c ****  * and Eclipse Distribution License v1.0 which accompany this distribution.
  41:C:/Users/lenovo/Desktop/liteos/Project2/BearPi_LiteOS/components/connectivity/agent_tiny/atiny_lwm2m\object_access_control.c ****  *
  42:C:/Users/lenovo/Desktop/liteos/Project2/BearPi_LiteOS/components/connectivity/agent_tiny/atiny_lwm2m\object_access_control.c ****  * The Eclipse Public License is available at
  43:C:/Users/lenovo/Desktop/liteos/Project2/BearPi_LiteOS/components/connectivity/agent_tiny/atiny_lwm2m\object_access_control.c ****  *    http://www.eclipse.org/legal/epl-v10.html
  44:C:/Users/lenovo/Desktop/liteos/Project2/BearPi_LiteOS/components/connectivity/agent_tiny/atiny_lwm2m\object_access_control.c ****  * The Eclipse Distribution License is available at
  45:C:/Users/lenovo/Desktop/liteos/Project2/BearPi_LiteOS/components/connectivity/agent_tiny/atiny_lwm2m\object_access_control.c ****  *    http://www.eclipse.org/org/documents/edl-v10.php.
  46:C:/Users/lenovo/Desktop/liteos/Project2/BearPi_LiteOS/components/connectivity/agent_tiny/atiny_lwm2m\object_access_control.c ****  *
  47:C:/Users/lenovo/Desktop/liteos/Project2/BearPi_LiteOS/components/connectivity/agent_tiny/atiny_lwm2m\object_access_control.c ****  * Contributors:
  48:C:/Users/lenovo/Desktop/liteos/Project2/BearPi_LiteOS/components/connectivity/agent_tiny/atiny_lwm2m\object_access_control.c ****  *    Bosch Software Innovations GmbH - Please refer to git log
  49:C:/Users/lenovo/Desktop/liteos/Project2/BearPi_LiteOS/components/connectivity/agent_tiny/atiny_lwm2m\object_access_control.c ****  *    Pascal Rieux - please refer to git log
  50:C:/Users/lenovo/Desktop/liteos/Project2/BearPi_LiteOS/components/connectivity/agent_tiny/atiny_lwm2m\object_access_control.c ****  *
  51:C:/Users/lenovo/Desktop/liteos/Project2/BearPi_LiteOS/components/connectivity/agent_tiny/atiny_lwm2m\object_access_control.c ****  ******************************************************************************/
  52:C:/Users/lenovo/Desktop/liteos/Project2/BearPi_LiteOS/components/connectivity/agent_tiny/atiny_lwm2m\object_access_control.c **** 
  53:C:/Users/lenovo/Desktop/liteos/Project2/BearPi_LiteOS/components/connectivity/agent_tiny/atiny_lwm2m\object_access_control.c **** /*
  54:C:/Users/lenovo/Desktop/liteos/Project2/BearPi_LiteOS/components/connectivity/agent_tiny/atiny_lwm2m\object_access_control.c ****  * This "Access Control" object is optional and multiple instantiated
  55:C:/Users/lenovo/Desktop/liteos/Project2/BearPi_LiteOS/components/connectivity/agent_tiny/atiny_lwm2m\object_access_control.c ****  *
  56:C:/Users/lenovo/Desktop/liteos/Project2/BearPi_LiteOS/components/connectivity/agent_tiny/atiny_lwm2m\object_access_control.c ****  *  Resources:
  57:C:/Users/lenovo/Desktop/liteos/Project2/BearPi_LiteOS/components/connectivity/agent_tiny/atiny_lwm2m\object_access_control.c ****  *
  58:C:/Users/lenovo/Desktop/liteos/Project2/BearPi_LiteOS/components/connectivity/agent_tiny/atiny_lwm2m\object_access_control.c ****  *          Name         | ID | Oper. | Inst. | Mand.|  Type   | Range | Units |
  59:C:/Users/lenovo/Desktop/liteos/Project2/BearPi_LiteOS/components/connectivity/agent_tiny/atiny_lwm2m\object_access_control.c ****  *  ---------------------+----+-------+-------+------+---------+-------+-------+
  60:C:/Users/lenovo/Desktop/liteos/Project2/BearPi_LiteOS/components/connectivity/agent_tiny/atiny_lwm2m\object_access_control.c ****  *  Object ID            |  0 |   R   | Single|  Yes | Integer |1-65534|       |
  61:C:/Users/lenovo/Desktop/liteos/Project2/BearPi_LiteOS/components/connectivity/agent_tiny/atiny_lwm2m\object_access_control.c ****  *  Object instance ID   |  1 |   R   | Single|  Yes | Integer |0-65535|       |
  62:C:/Users/lenovo/Desktop/liteos/Project2/BearPi_LiteOS/components/connectivity/agent_tiny/atiny_lwm2m\object_access_control.c ****  *  ACL                  |  2 |   RW  | Multi.|  No  | Integer | 16bit |       |
  63:C:/Users/lenovo/Desktop/liteos/Project2/BearPi_LiteOS/components/connectivity/agent_tiny/atiny_lwm2m\object_access_control.c ****  *  Access Control Owner |  3 |   RW  | Single|  Yes | Integer |0-65535|       |
  64:C:/Users/lenovo/Desktop/liteos/Project2/BearPi_LiteOS/components/connectivity/agent_tiny/atiny_lwm2m\object_access_control.c ****  */
  65:C:/Users/lenovo/Desktop/liteos/Project2/BearPi_LiteOS/components/connectivity/agent_tiny/atiny_lwm2m\object_access_control.c **** 
  66:C:/Users/lenovo/Desktop/liteos/Project2/BearPi_LiteOS/components/connectivity/agent_tiny/atiny_lwm2m\object_access_control.c **** #include "internals.h"
  67:C:/Users/lenovo/Desktop/liteos/Project2/BearPi_LiteOS/components/connectivity/agent_tiny/atiny_lwm2m\object_access_control.c **** #include "object_comm.h"
  68:C:/Users/lenovo/Desktop/liteos/Project2/BearPi_LiteOS/components/connectivity/agent_tiny/atiny_lwm2m\object_access_control.c **** #include <string.h>
  69:C:/Users/lenovo/Desktop/liteos/Project2/BearPi_LiteOS/components/connectivity/agent_tiny/atiny_lwm2m\object_access_control.c **** 
  70:C:/Users/lenovo/Desktop/liteos/Project2/BearPi_LiteOS/components/connectivity/agent_tiny/atiny_lwm2m\object_access_control.c **** // Resource Id's:
  71:C:/Users/lenovo/Desktop/liteos/Project2/BearPi_LiteOS/components/connectivity/agent_tiny/atiny_lwm2m\object_access_control.c **** #define RES_M_OBJECT_ID             0
  72:C:/Users/lenovo/Desktop/liteos/Project2/BearPi_LiteOS/components/connectivity/agent_tiny/atiny_lwm2m\object_access_control.c **** #define RES_M_OBJECT_INSTANCE_ID    1
  73:C:/Users/lenovo/Desktop/liteos/Project2/BearPi_LiteOS/components/connectivity/agent_tiny/atiny_lwm2m\object_access_control.c **** #define RES_O_ACL                   2
  74:C:/Users/lenovo/Desktop/liteos/Project2/BearPi_LiteOS/components/connectivity/agent_tiny/atiny_lwm2m\object_access_control.c **** #define RES_M_ACCESS_CONTROL_OWNER  3
  75:C:/Users/lenovo/Desktop/liteos/Project2/BearPi_LiteOS/components/connectivity/agent_tiny/atiny_lwm2m\object_access_control.c **** 
  76:C:/Users/lenovo/Desktop/liteos/Project2/BearPi_LiteOS/components/connectivity/agent_tiny/atiny_lwm2m\object_access_control.c **** #define MAX_DATA_VAL 65535
  77:C:/Users/lenovo/Desktop/liteos/Project2/BearPi_LiteOS/components/connectivity/agent_tiny/atiny_lwm2m\object_access_control.c **** 
  78:C:/Users/lenovo/Desktop/liteos/Project2/BearPi_LiteOS/components/connectivity/agent_tiny/atiny_lwm2m\object_access_control.c **** typedef struct acc_ctrl_ri_s
  79:C:/Users/lenovo/Desktop/liteos/Project2/BearPi_LiteOS/components/connectivity/agent_tiny/atiny_lwm2m\object_access_control.c **** {
  80:C:/Users/lenovo/Desktop/liteos/Project2/BearPi_LiteOS/components/connectivity/agent_tiny/atiny_lwm2m\object_access_control.c ****     // linked list:
  81:C:/Users/lenovo/Desktop/liteos/Project2/BearPi_LiteOS/components/connectivity/agent_tiny/atiny_lwm2m\object_access_control.c ****     struct acc_ctrl_ri_s   *next;       // matches lwm2m_list_t::next
  82:C:/Users/lenovo/Desktop/liteos/Project2/BearPi_LiteOS/components/connectivity/agent_tiny/atiny_lwm2m\object_access_control.c ****     uint16_t                resInstId;  // matches lwm2m_list_t::id, ..serverID
  83:C:/Users/lenovo/Desktop/liteos/Project2/BearPi_LiteOS/components/connectivity/agent_tiny/atiny_lwm2m\object_access_control.c ****     // resource data:
  84:C:/Users/lenovo/Desktop/liteos/Project2/BearPi_LiteOS/components/connectivity/agent_tiny/atiny_lwm2m\object_access_control.c ****     uint16_t                accCtrlValue;
  85:C:/Users/lenovo/Desktop/liteos/Project2/BearPi_LiteOS/components/connectivity/agent_tiny/atiny_lwm2m\object_access_control.c **** } acc_ctrl_ri_t;
  86:C:/Users/lenovo/Desktop/liteos/Project2/BearPi_LiteOS/components/connectivity/agent_tiny/atiny_lwm2m\object_access_control.c **** 
  87:C:/Users/lenovo/Desktop/liteos/Project2/BearPi_LiteOS/components/connectivity/agent_tiny/atiny_lwm2m\object_access_control.c **** typedef struct acc_ctrl_oi_s
  88:C:/Users/lenovo/Desktop/liteos/Project2/BearPi_LiteOS/components/connectivity/agent_tiny/atiny_lwm2m\object_access_control.c **** {
  89:C:/Users/lenovo/Desktop/liteos/Project2/BearPi_LiteOS/components/connectivity/agent_tiny/atiny_lwm2m\object_access_control.c ****     //linked list:
ARM GAS  c:\Users\lenovo\AppData\Local\Temp\ccp6MF8M.s 			page 3


  90:C:/Users/lenovo/Desktop/liteos/Project2/BearPi_LiteOS/components/connectivity/agent_tiny/atiny_lwm2m\object_access_control.c ****     struct acc_ctrl_oi_s   *next;       // matches lwm2m_list_t::next
  91:C:/Users/lenovo/Desktop/liteos/Project2/BearPi_LiteOS/components/connectivity/agent_tiny/atiny_lwm2m\object_access_control.c ****     uint16_t                objInstId;  // matches lwm2m_list_t::id
  92:C:/Users/lenovo/Desktop/liteos/Project2/BearPi_LiteOS/components/connectivity/agent_tiny/atiny_lwm2m\object_access_control.c ****     // resources
  93:C:/Users/lenovo/Desktop/liteos/Project2/BearPi_LiteOS/components/connectivity/agent_tiny/atiny_lwm2m\object_access_control.c ****     uint16_t                objectId;
  94:C:/Users/lenovo/Desktop/liteos/Project2/BearPi_LiteOS/components/connectivity/agent_tiny/atiny_lwm2m\object_access_control.c ****     uint16_t                objectInstId;
  95:C:/Users/lenovo/Desktop/liteos/Project2/BearPi_LiteOS/components/connectivity/agent_tiny/atiny_lwm2m\object_access_control.c ****     uint16_t                accCtrlOwner;
  96:C:/Users/lenovo/Desktop/liteos/Project2/BearPi_LiteOS/components/connectivity/agent_tiny/atiny_lwm2m\object_access_control.c ****     acc_ctrl_ri_t          *accCtrlValList;
  97:C:/Users/lenovo/Desktop/liteos/Project2/BearPi_LiteOS/components/connectivity/agent_tiny/atiny_lwm2m\object_access_control.c **** } acc_ctrl_oi_t;
  98:C:/Users/lenovo/Desktop/liteos/Project2/BearPi_LiteOS/components/connectivity/agent_tiny/atiny_lwm2m\object_access_control.c **** 
  99:C:/Users/lenovo/Desktop/liteos/Project2/BearPi_LiteOS/components/connectivity/agent_tiny/atiny_lwm2m\object_access_control.c **** 
 100:C:/Users/lenovo/Desktop/liteos/Project2/BearPi_LiteOS/components/connectivity/agent_tiny/atiny_lwm2m\object_access_control.c **** static uint8_t prv_set_tlv(lwm2m_data_t *dataP, acc_ctrl_oi_t *accCtrlOiP)
 101:C:/Users/lenovo/Desktop/liteos/Project2/BearPi_LiteOS/components/connectivity/agent_tiny/atiny_lwm2m\object_access_control.c **** {
 102:C:/Users/lenovo/Desktop/liteos/Project2/BearPi_LiteOS/components/connectivity/agent_tiny/atiny_lwm2m\object_access_control.c ****     switch (dataP->id)
 103:C:/Users/lenovo/Desktop/liteos/Project2/BearPi_LiteOS/components/connectivity/agent_tiny/atiny_lwm2m\object_access_control.c ****     {
 104:C:/Users/lenovo/Desktop/liteos/Project2/BearPi_LiteOS/components/connectivity/agent_tiny/atiny_lwm2m\object_access_control.c ****     case RES_M_OBJECT_ID:
 105:C:/Users/lenovo/Desktop/liteos/Project2/BearPi_LiteOS/components/connectivity/agent_tiny/atiny_lwm2m\object_access_control.c ****         lwm2m_data_encode_int(accCtrlOiP->objectId, dataP);
 106:C:/Users/lenovo/Desktop/liteos/Project2/BearPi_LiteOS/components/connectivity/agent_tiny/atiny_lwm2m\object_access_control.c ****         return COAP_205_CONTENT;
 107:C:/Users/lenovo/Desktop/liteos/Project2/BearPi_LiteOS/components/connectivity/agent_tiny/atiny_lwm2m\object_access_control.c ****     case RES_M_OBJECT_INSTANCE_ID:
 108:C:/Users/lenovo/Desktop/liteos/Project2/BearPi_LiteOS/components/connectivity/agent_tiny/atiny_lwm2m\object_access_control.c ****         lwm2m_data_encode_int(accCtrlOiP->objectInstId, dataP);
 109:C:/Users/lenovo/Desktop/liteos/Project2/BearPi_LiteOS/components/connectivity/agent_tiny/atiny_lwm2m\object_access_control.c ****         return COAP_205_CONTENT;
 110:C:/Users/lenovo/Desktop/liteos/Project2/BearPi_LiteOS/components/connectivity/agent_tiny/atiny_lwm2m\object_access_control.c ****     case RES_O_ACL:
 111:C:/Users/lenovo/Desktop/liteos/Project2/BearPi_LiteOS/components/connectivity/agent_tiny/atiny_lwm2m\object_access_control.c ****     {
 112:C:/Users/lenovo/Desktop/liteos/Project2/BearPi_LiteOS/components/connectivity/agent_tiny/atiny_lwm2m\object_access_control.c ****         int ri;
 113:C:/Users/lenovo/Desktop/liteos/Project2/BearPi_LiteOS/components/connectivity/agent_tiny/atiny_lwm2m\object_access_control.c ****         acc_ctrl_ri_t *accCtrlRiP;
 114:C:/Users/lenovo/Desktop/liteos/Project2/BearPi_LiteOS/components/connectivity/agent_tiny/atiny_lwm2m\object_access_control.c ****         for (accCtrlRiP = accCtrlOiP->accCtrlValList, ri = 0;
 115:C:/Users/lenovo/Desktop/liteos/Project2/BearPi_LiteOS/components/connectivity/agent_tiny/atiny_lwm2m\object_access_control.c ****                 accCtrlRiP != NULL;
 116:C:/Users/lenovo/Desktop/liteos/Project2/BearPi_LiteOS/components/connectivity/agent_tiny/atiny_lwm2m\object_access_control.c ****                 accCtrlRiP = accCtrlRiP->next, ri++);
 117:C:/Users/lenovo/Desktop/liteos/Project2/BearPi_LiteOS/components/connectivity/agent_tiny/atiny_lwm2m\object_access_control.c **** 
 118:C:/Users/lenovo/Desktop/liteos/Project2/BearPi_LiteOS/components/connectivity/agent_tiny/atiny_lwm2m\object_access_control.c ****         if (ri == 0) // no values!
 119:C:/Users/lenovo/Desktop/liteos/Project2/BearPi_LiteOS/components/connectivity/agent_tiny/atiny_lwm2m\object_access_control.c ****         {
 120:C:/Users/lenovo/Desktop/liteos/Project2/BearPi_LiteOS/components/connectivity/agent_tiny/atiny_lwm2m\object_access_control.c ****             return COAP_404_NOT_FOUND;
 121:C:/Users/lenovo/Desktop/liteos/Project2/BearPi_LiteOS/components/connectivity/agent_tiny/atiny_lwm2m\object_access_control.c ****         }
 122:C:/Users/lenovo/Desktop/liteos/Project2/BearPi_LiteOS/components/connectivity/agent_tiny/atiny_lwm2m\object_access_control.c ****         else
 123:C:/Users/lenovo/Desktop/liteos/Project2/BearPi_LiteOS/components/connectivity/agent_tiny/atiny_lwm2m\object_access_control.c ****         {
 124:C:/Users/lenovo/Desktop/liteos/Project2/BearPi_LiteOS/components/connectivity/agent_tiny/atiny_lwm2m\object_access_control.c ****             lwm2m_data_t *subTlvP = lwm2m_data_new(ri);
 125:C:/Users/lenovo/Desktop/liteos/Project2/BearPi_LiteOS/components/connectivity/agent_tiny/atiny_lwm2m\object_access_control.c ****             if (subTlvP == NULL) return COAP_500_INTERNAL_SERVER_ERROR;
 126:C:/Users/lenovo/Desktop/liteos/Project2/BearPi_LiteOS/components/connectivity/agent_tiny/atiny_lwm2m\object_access_control.c ****             for (accCtrlRiP = accCtrlOiP->accCtrlValList, ri = 0;
 127:C:/Users/lenovo/Desktop/liteos/Project2/BearPi_LiteOS/components/connectivity/agent_tiny/atiny_lwm2m\object_access_control.c ****                     accCtrlRiP != NULL;
 128:C:/Users/lenovo/Desktop/liteos/Project2/BearPi_LiteOS/components/connectivity/agent_tiny/atiny_lwm2m\object_access_control.c ****                     accCtrlRiP = accCtrlRiP->next, ri++)
 129:C:/Users/lenovo/Desktop/liteos/Project2/BearPi_LiteOS/components/connectivity/agent_tiny/atiny_lwm2m\object_access_control.c ****             {
 130:C:/Users/lenovo/Desktop/liteos/Project2/BearPi_LiteOS/components/connectivity/agent_tiny/atiny_lwm2m\object_access_control.c ****                 subTlvP[ri].id = accCtrlRiP->resInstId;
 131:C:/Users/lenovo/Desktop/liteos/Project2/BearPi_LiteOS/components/connectivity/agent_tiny/atiny_lwm2m\object_access_control.c ****                 lwm2m_data_encode_int(accCtrlRiP->accCtrlValue, &subTlvP[ri]);
 132:C:/Users/lenovo/Desktop/liteos/Project2/BearPi_LiteOS/components/connectivity/agent_tiny/atiny_lwm2m\object_access_control.c ****             }
 133:C:/Users/lenovo/Desktop/liteos/Project2/BearPi_LiteOS/components/connectivity/agent_tiny/atiny_lwm2m\object_access_control.c ****             lwm2m_data_encode_instances(subTlvP, ri, dataP);
 134:C:/Users/lenovo/Desktop/liteos/Project2/BearPi_LiteOS/components/connectivity/agent_tiny/atiny_lwm2m\object_access_control.c ****             return COAP_205_CONTENT;
 135:C:/Users/lenovo/Desktop/liteos/Project2/BearPi_LiteOS/components/connectivity/agent_tiny/atiny_lwm2m\object_access_control.c ****         }
 136:C:/Users/lenovo/Desktop/liteos/Project2/BearPi_LiteOS/components/connectivity/agent_tiny/atiny_lwm2m\object_access_control.c ****     }
 137:C:/Users/lenovo/Desktop/liteos/Project2/BearPi_LiteOS/components/connectivity/agent_tiny/atiny_lwm2m\object_access_control.c ****     case RES_M_ACCESS_CONTROL_OWNER:
 138:C:/Users/lenovo/Desktop/liteos/Project2/BearPi_LiteOS/components/connectivity/agent_tiny/atiny_lwm2m\object_access_control.c ****         lwm2m_data_encode_int(accCtrlOiP->accCtrlOwner, dataP);
 139:C:/Users/lenovo/Desktop/liteos/Project2/BearPi_LiteOS/components/connectivity/agent_tiny/atiny_lwm2m\object_access_control.c ****         return COAP_205_CONTENT;
 140:C:/Users/lenovo/Desktop/liteos/Project2/BearPi_LiteOS/components/connectivity/agent_tiny/atiny_lwm2m\object_access_control.c ****     default:
 141:C:/Users/lenovo/Desktop/liteos/Project2/BearPi_LiteOS/components/connectivity/agent_tiny/atiny_lwm2m\object_access_control.c ****         return COAP_404_NOT_FOUND ;
 142:C:/Users/lenovo/Desktop/liteos/Project2/BearPi_LiteOS/components/connectivity/agent_tiny/atiny_lwm2m\object_access_control.c ****     }
 143:C:/Users/lenovo/Desktop/liteos/Project2/BearPi_LiteOS/components/connectivity/agent_tiny/atiny_lwm2m\object_access_control.c **** }
 144:C:/Users/lenovo/Desktop/liteos/Project2/BearPi_LiteOS/components/connectivity/agent_tiny/atiny_lwm2m\object_access_control.c **** 
 145:C:/Users/lenovo/Desktop/liteos/Project2/BearPi_LiteOS/components/connectivity/agent_tiny/atiny_lwm2m\object_access_control.c **** static uint8_t prv_read(uint16_t instanceId, int *numDataP,
 146:C:/Users/lenovo/Desktop/liteos/Project2/BearPi_LiteOS/components/connectivity/agent_tiny/atiny_lwm2m\object_access_control.c ****                         lwm2m_data_t **dataArrayP, lwm2m_data_cfg_t *dataCfg, lwm2m_object_t *objec
ARM GAS  c:\Users\lenovo\AppData\Local\Temp\ccp6MF8M.s 			page 4


 147:C:/Users/lenovo/Desktop/liteos/Project2/BearPi_LiteOS/components/connectivity/agent_tiny/atiny_lwm2m\object_access_control.c **** {
 148:C:/Users/lenovo/Desktop/liteos/Project2/BearPi_LiteOS/components/connectivity/agent_tiny/atiny_lwm2m\object_access_control.c ****     uint8_t result;
 149:C:/Users/lenovo/Desktop/liteos/Project2/BearPi_LiteOS/components/connectivity/agent_tiny/atiny_lwm2m\object_access_control.c ****     int     ri, ni;
 150:C:/Users/lenovo/Desktop/liteos/Project2/BearPi_LiteOS/components/connectivity/agent_tiny/atiny_lwm2m\object_access_control.c **** 
 151:C:/Users/lenovo/Desktop/liteos/Project2/BearPi_LiteOS/components/connectivity/agent_tiny/atiny_lwm2m\object_access_control.c ****     // multi-instance object: search instance
 152:C:/Users/lenovo/Desktop/liteos/Project2/BearPi_LiteOS/components/connectivity/agent_tiny/atiny_lwm2m\object_access_control.c ****     acc_ctrl_oi_t *accCtrlOiP =
 153:C:/Users/lenovo/Desktop/liteos/Project2/BearPi_LiteOS/components/connectivity/agent_tiny/atiny_lwm2m\object_access_control.c ****         (acc_ctrl_oi_t *)lwm2m_list_find(objectP->instanceList, instanceId);
 154:C:/Users/lenovo/Desktop/liteos/Project2/BearPi_LiteOS/components/connectivity/agent_tiny/atiny_lwm2m\object_access_control.c ****     if (accCtrlOiP == NULL)
 155:C:/Users/lenovo/Desktop/liteos/Project2/BearPi_LiteOS/components/connectivity/agent_tiny/atiny_lwm2m\object_access_control.c ****     {
 156:C:/Users/lenovo/Desktop/liteos/Project2/BearPi_LiteOS/components/connectivity/agent_tiny/atiny_lwm2m\object_access_control.c ****         return COAP_404_NOT_FOUND ;
 157:C:/Users/lenovo/Desktop/liteos/Project2/BearPi_LiteOS/components/connectivity/agent_tiny/atiny_lwm2m\object_access_control.c ****     }
 158:C:/Users/lenovo/Desktop/liteos/Project2/BearPi_LiteOS/components/connectivity/agent_tiny/atiny_lwm2m\object_access_control.c **** 
 159:C:/Users/lenovo/Desktop/liteos/Project2/BearPi_LiteOS/components/connectivity/agent_tiny/atiny_lwm2m\object_access_control.c ****     // is the server asking for the full object ?
 160:C:/Users/lenovo/Desktop/liteos/Project2/BearPi_LiteOS/components/connectivity/agent_tiny/atiny_lwm2m\object_access_control.c ****     if (*numDataP == 0)
 161:C:/Users/lenovo/Desktop/liteos/Project2/BearPi_LiteOS/components/connectivity/agent_tiny/atiny_lwm2m\object_access_control.c ****     {
 162:C:/Users/lenovo/Desktop/liteos/Project2/BearPi_LiteOS/components/connectivity/agent_tiny/atiny_lwm2m\object_access_control.c ****         uint16_t resList[] =
 163:C:/Users/lenovo/Desktop/liteos/Project2/BearPi_LiteOS/components/connectivity/agent_tiny/atiny_lwm2m\object_access_control.c ****         {
 164:C:/Users/lenovo/Desktop/liteos/Project2/BearPi_LiteOS/components/connectivity/agent_tiny/atiny_lwm2m\object_access_control.c ****             RES_M_OBJECT_ID,
 165:C:/Users/lenovo/Desktop/liteos/Project2/BearPi_LiteOS/components/connectivity/agent_tiny/atiny_lwm2m\object_access_control.c ****             RES_M_OBJECT_INSTANCE_ID,
 166:C:/Users/lenovo/Desktop/liteos/Project2/BearPi_LiteOS/components/connectivity/agent_tiny/atiny_lwm2m\object_access_control.c ****             RES_O_ACL,  // prv_set_tlv will return COAP_404_NOT_FOUND w/o values!
 167:C:/Users/lenovo/Desktop/liteos/Project2/BearPi_LiteOS/components/connectivity/agent_tiny/atiny_lwm2m\object_access_control.c ****             RES_M_ACCESS_CONTROL_OWNER
 168:C:/Users/lenovo/Desktop/liteos/Project2/BearPi_LiteOS/components/connectivity/agent_tiny/atiny_lwm2m\object_access_control.c ****         };
 169:C:/Users/lenovo/Desktop/liteos/Project2/BearPi_LiteOS/components/connectivity/agent_tiny/atiny_lwm2m\object_access_control.c ****         int nbRes = sizeof(resList) / sizeof(uint16_t);
 170:C:/Users/lenovo/Desktop/liteos/Project2/BearPi_LiteOS/components/connectivity/agent_tiny/atiny_lwm2m\object_access_control.c **** 
 171:C:/Users/lenovo/Desktop/liteos/Project2/BearPi_LiteOS/components/connectivity/agent_tiny/atiny_lwm2m\object_access_control.c ****         *dataArrayP = lwm2m_data_new(nbRes);
 172:C:/Users/lenovo/Desktop/liteos/Project2/BearPi_LiteOS/components/connectivity/agent_tiny/atiny_lwm2m\object_access_control.c ****         if (*dataArrayP == NULL)
 173:C:/Users/lenovo/Desktop/liteos/Project2/BearPi_LiteOS/components/connectivity/agent_tiny/atiny_lwm2m\object_access_control.c ****             return COAP_500_INTERNAL_SERVER_ERROR ;
 174:C:/Users/lenovo/Desktop/liteos/Project2/BearPi_LiteOS/components/connectivity/agent_tiny/atiny_lwm2m\object_access_control.c ****         *numDataP = nbRes;
 175:C:/Users/lenovo/Desktop/liteos/Project2/BearPi_LiteOS/components/connectivity/agent_tiny/atiny_lwm2m\object_access_control.c ****         for (ri = 0; ri < nbRes; ri++)
 176:C:/Users/lenovo/Desktop/liteos/Project2/BearPi_LiteOS/components/connectivity/agent_tiny/atiny_lwm2m\object_access_control.c ****         {
 177:C:/Users/lenovo/Desktop/liteos/Project2/BearPi_LiteOS/components/connectivity/agent_tiny/atiny_lwm2m\object_access_control.c ****             (*dataArrayP)[ri].id = resList[ri];
 178:C:/Users/lenovo/Desktop/liteos/Project2/BearPi_LiteOS/components/connectivity/agent_tiny/atiny_lwm2m\object_access_control.c ****         }
 179:C:/Users/lenovo/Desktop/liteos/Project2/BearPi_LiteOS/components/connectivity/agent_tiny/atiny_lwm2m\object_access_control.c ****     }
 180:C:/Users/lenovo/Desktop/liteos/Project2/BearPi_LiteOS/components/connectivity/agent_tiny/atiny_lwm2m\object_access_control.c **** 
 181:C:/Users/lenovo/Desktop/liteos/Project2/BearPi_LiteOS/components/connectivity/agent_tiny/atiny_lwm2m\object_access_control.c ****     ni = ri = 0;
 182:C:/Users/lenovo/Desktop/liteos/Project2/BearPi_LiteOS/components/connectivity/agent_tiny/atiny_lwm2m\object_access_control.c ****     do
 183:C:/Users/lenovo/Desktop/liteos/Project2/BearPi_LiteOS/components/connectivity/agent_tiny/atiny_lwm2m\object_access_control.c ****     {
 184:C:/Users/lenovo/Desktop/liteos/Project2/BearPi_LiteOS/components/connectivity/agent_tiny/atiny_lwm2m\object_access_control.c ****         result = prv_set_tlv((*dataArrayP) + ni, accCtrlOiP);
 185:C:/Users/lenovo/Desktop/liteos/Project2/BearPi_LiteOS/components/connectivity/agent_tiny/atiny_lwm2m\object_access_control.c ****         if (result == COAP_404_NOT_FOUND)
 186:C:/Users/lenovo/Desktop/liteos/Project2/BearPi_LiteOS/components/connectivity/agent_tiny/atiny_lwm2m\object_access_control.c ****         {
 187:C:/Users/lenovo/Desktop/liteos/Project2/BearPi_LiteOS/components/connectivity/agent_tiny/atiny_lwm2m\object_access_control.c ****             ri++;
 188:C:/Users/lenovo/Desktop/liteos/Project2/BearPi_LiteOS/components/connectivity/agent_tiny/atiny_lwm2m\object_access_control.c ****             if (*numDataP > 1) result = COAP_205_CONTENT;
 189:C:/Users/lenovo/Desktop/liteos/Project2/BearPi_LiteOS/components/connectivity/agent_tiny/atiny_lwm2m\object_access_control.c ****         }
 190:C:/Users/lenovo/Desktop/liteos/Project2/BearPi_LiteOS/components/connectivity/agent_tiny/atiny_lwm2m\object_access_control.c ****         else if (ri > 0)    // copy new one by ri skipped ones in front
 191:C:/Users/lenovo/Desktop/liteos/Project2/BearPi_LiteOS/components/connectivity/agent_tiny/atiny_lwm2m\object_access_control.c ****         {
 192:C:/Users/lenovo/Desktop/liteos/Project2/BearPi_LiteOS/components/connectivity/agent_tiny/atiny_lwm2m\object_access_control.c ****             (*dataArrayP)[ni - ri] = (*dataArrayP)[ni];
 193:C:/Users/lenovo/Desktop/liteos/Project2/BearPi_LiteOS/components/connectivity/agent_tiny/atiny_lwm2m\object_access_control.c ****         }
 194:C:/Users/lenovo/Desktop/liteos/Project2/BearPi_LiteOS/components/connectivity/agent_tiny/atiny_lwm2m\object_access_control.c ****         ni++;
 195:C:/Users/lenovo/Desktop/liteos/Project2/BearPi_LiteOS/components/connectivity/agent_tiny/atiny_lwm2m\object_access_control.c ****     }
 196:C:/Users/lenovo/Desktop/liteos/Project2/BearPi_LiteOS/components/connectivity/agent_tiny/atiny_lwm2m\object_access_control.c ****     while (ni < *numDataP && result == COAP_205_CONTENT);
 197:C:/Users/lenovo/Desktop/liteos/Project2/BearPi_LiteOS/components/connectivity/agent_tiny/atiny_lwm2m\object_access_control.c ****     *numDataP = ni - ri;
 198:C:/Users/lenovo/Desktop/liteos/Project2/BearPi_LiteOS/components/connectivity/agent_tiny/atiny_lwm2m\object_access_control.c **** 
 199:C:/Users/lenovo/Desktop/liteos/Project2/BearPi_LiteOS/components/connectivity/agent_tiny/atiny_lwm2m\object_access_control.c ****     return result;
 200:C:/Users/lenovo/Desktop/liteos/Project2/BearPi_LiteOS/components/connectivity/agent_tiny/atiny_lwm2m\object_access_control.c **** }
 201:C:/Users/lenovo/Desktop/liteos/Project2/BearPi_LiteOS/components/connectivity/agent_tiny/atiny_lwm2m\object_access_control.c **** 
 202:C:/Users/lenovo/Desktop/liteos/Project2/BearPi_LiteOS/components/connectivity/agent_tiny/atiny_lwm2m\object_access_control.c **** static bool prv_add_ac_val(acc_ctrl_oi_t *accCtrlOiP,
 203:C:/Users/lenovo/Desktop/liteos/Project2/BearPi_LiteOS/components/connectivity/agent_tiny/atiny_lwm2m\object_access_control.c ****                            uint16_t acResId, uint16_t acValue)
ARM GAS  c:\Users\lenovo\AppData\Local\Temp\ccp6MF8M.s 			page 5


 204:C:/Users/lenovo/Desktop/liteos/Project2/BearPi_LiteOS/components/connectivity/agent_tiny/atiny_lwm2m\object_access_control.c **** {
 205:C:/Users/lenovo/Desktop/liteos/Project2/BearPi_LiteOS/components/connectivity/agent_tiny/atiny_lwm2m\object_access_control.c ****     bool ret = false;
 206:C:/Users/lenovo/Desktop/liteos/Project2/BearPi_LiteOS/components/connectivity/agent_tiny/atiny_lwm2m\object_access_control.c ****     acc_ctrl_ri_t *accCtrlRiP;
 207:C:/Users/lenovo/Desktop/liteos/Project2/BearPi_LiteOS/components/connectivity/agent_tiny/atiny_lwm2m\object_access_control.c ****     accCtrlRiP = (acc_ctrl_ri_t *)lwm2m_malloc(sizeof(acc_ctrl_ri_t));
 208:C:/Users/lenovo/Desktop/liteos/Project2/BearPi_LiteOS/components/connectivity/agent_tiny/atiny_lwm2m\object_access_control.c ****     if (accCtrlRiP == NULL)
 209:C:/Users/lenovo/Desktop/liteos/Project2/BearPi_LiteOS/components/connectivity/agent_tiny/atiny_lwm2m\object_access_control.c ****     {
 210:C:/Users/lenovo/Desktop/liteos/Project2/BearPi_LiteOS/components/connectivity/agent_tiny/atiny_lwm2m\object_access_control.c ****         return ret;
 211:C:/Users/lenovo/Desktop/liteos/Project2/BearPi_LiteOS/components/connectivity/agent_tiny/atiny_lwm2m\object_access_control.c ****     }
 212:C:/Users/lenovo/Desktop/liteos/Project2/BearPi_LiteOS/components/connectivity/agent_tiny/atiny_lwm2m\object_access_control.c ****     else
 213:C:/Users/lenovo/Desktop/liteos/Project2/BearPi_LiteOS/components/connectivity/agent_tiny/atiny_lwm2m\object_access_control.c ****     {
 214:C:/Users/lenovo/Desktop/liteos/Project2/BearPi_LiteOS/components/connectivity/agent_tiny/atiny_lwm2m\object_access_control.c ****         memset(accCtrlRiP, 0, sizeof(acc_ctrl_ri_t));
 215:C:/Users/lenovo/Desktop/liteos/Project2/BearPi_LiteOS/components/connectivity/agent_tiny/atiny_lwm2m\object_access_control.c ****         accCtrlRiP->resInstId      = acResId;
 216:C:/Users/lenovo/Desktop/liteos/Project2/BearPi_LiteOS/components/connectivity/agent_tiny/atiny_lwm2m\object_access_control.c ****         accCtrlRiP->accCtrlValue   = acValue;
 217:C:/Users/lenovo/Desktop/liteos/Project2/BearPi_LiteOS/components/connectivity/agent_tiny/atiny_lwm2m\object_access_control.c **** 
 218:C:/Users/lenovo/Desktop/liteos/Project2/BearPi_LiteOS/components/connectivity/agent_tiny/atiny_lwm2m\object_access_control.c ****         accCtrlOiP->accCtrlValList = (acc_ctrl_ri_t *)
 219:C:/Users/lenovo/Desktop/liteos/Project2/BearPi_LiteOS/components/connectivity/agent_tiny/atiny_lwm2m\object_access_control.c ****                                      LWM2M_LIST_ADD(accCtrlOiP->accCtrlValList, accCtrlRiP);
 220:C:/Users/lenovo/Desktop/liteos/Project2/BearPi_LiteOS/components/connectivity/agent_tiny/atiny_lwm2m\object_access_control.c ****         ret = true;
 221:C:/Users/lenovo/Desktop/liteos/Project2/BearPi_LiteOS/components/connectivity/agent_tiny/atiny_lwm2m\object_access_control.c ****     }
 222:C:/Users/lenovo/Desktop/liteos/Project2/BearPi_LiteOS/components/connectivity/agent_tiny/atiny_lwm2m\object_access_control.c ****     return ret;
 223:C:/Users/lenovo/Desktop/liteos/Project2/BearPi_LiteOS/components/connectivity/agent_tiny/atiny_lwm2m\object_access_control.c **** }
 224:C:/Users/lenovo/Desktop/liteos/Project2/BearPi_LiteOS/components/connectivity/agent_tiny/atiny_lwm2m\object_access_control.c **** 
 225:C:/Users/lenovo/Desktop/liteos/Project2/BearPi_LiteOS/components/connectivity/agent_tiny/atiny_lwm2m\object_access_control.c **** static uint8_t prv_write_resources(uint16_t instanceId, int numData,
 226:C:/Users/lenovo/Desktop/liteos/Project2/BearPi_LiteOS/components/connectivity/agent_tiny/atiny_lwm2m\object_access_control.c ****                                    lwm2m_data_t *tlvArray, lwm2m_object_t *objectP, bool doCreate)
 227:C:/Users/lenovo/Desktop/liteos/Project2/BearPi_LiteOS/components/connectivity/agent_tiny/atiny_lwm2m\object_access_control.c **** {
 228:C:/Users/lenovo/Desktop/liteos/Project2/BearPi_LiteOS/components/connectivity/agent_tiny/atiny_lwm2m\object_access_control.c ****     int i;
 229:C:/Users/lenovo/Desktop/liteos/Project2/BearPi_LiteOS/components/connectivity/agent_tiny/atiny_lwm2m\object_access_control.c ****     uint8_t result = COAP_NO_ERROR;
 230:C:/Users/lenovo/Desktop/liteos/Project2/BearPi_LiteOS/components/connectivity/agent_tiny/atiny_lwm2m\object_access_control.c ****     int64_t value;
 231:C:/Users/lenovo/Desktop/liteos/Project2/BearPi_LiteOS/components/connectivity/agent_tiny/atiny_lwm2m\object_access_control.c ****     lwm2m_data_t *subTlvArray;
 232:C:/Users/lenovo/Desktop/liteos/Project2/BearPi_LiteOS/components/connectivity/agent_tiny/atiny_lwm2m\object_access_control.c ****     int ri;
 233:C:/Users/lenovo/Desktop/liteos/Project2/BearPi_LiteOS/components/connectivity/agent_tiny/atiny_lwm2m\object_access_control.c **** 
 234:C:/Users/lenovo/Desktop/liteos/Project2/BearPi_LiteOS/components/connectivity/agent_tiny/atiny_lwm2m\object_access_control.c ****     acc_ctrl_oi_t *accCtrlOiP = (acc_ctrl_oi_t *)
 235:C:/Users/lenovo/Desktop/liteos/Project2/BearPi_LiteOS/components/connectivity/agent_tiny/atiny_lwm2m\object_access_control.c ****                                 lwm2m_list_find(objectP->instanceList, instanceId);
 236:C:/Users/lenovo/Desktop/liteos/Project2/BearPi_LiteOS/components/connectivity/agent_tiny/atiny_lwm2m\object_access_control.c ****     if (NULL == accCtrlOiP)
 237:C:/Users/lenovo/Desktop/liteos/Project2/BearPi_LiteOS/components/connectivity/agent_tiny/atiny_lwm2m\object_access_control.c ****         return COAP_404_NOT_FOUND ;
 238:C:/Users/lenovo/Desktop/liteos/Project2/BearPi_LiteOS/components/connectivity/agent_tiny/atiny_lwm2m\object_access_control.c **** 
 239:C:/Users/lenovo/Desktop/liteos/Project2/BearPi_LiteOS/components/connectivity/agent_tiny/atiny_lwm2m\object_access_control.c ****     i = 0;
 240:C:/Users/lenovo/Desktop/liteos/Project2/BearPi_LiteOS/components/connectivity/agent_tiny/atiny_lwm2m\object_access_control.c ****     do
 241:C:/Users/lenovo/Desktop/liteos/Project2/BearPi_LiteOS/components/connectivity/agent_tiny/atiny_lwm2m\object_access_control.c ****     {
 242:C:/Users/lenovo/Desktop/liteos/Project2/BearPi_LiteOS/components/connectivity/agent_tiny/atiny_lwm2m\object_access_control.c ****         switch (tlvArray[i].id)
 243:C:/Users/lenovo/Desktop/liteos/Project2/BearPi_LiteOS/components/connectivity/agent_tiny/atiny_lwm2m\object_access_control.c ****         {
 244:C:/Users/lenovo/Desktop/liteos/Project2/BearPi_LiteOS/components/connectivity/agent_tiny/atiny_lwm2m\object_access_control.c ****         case RES_M_OBJECT_ID:
 245:C:/Users/lenovo/Desktop/liteos/Project2/BearPi_LiteOS/components/connectivity/agent_tiny/atiny_lwm2m\object_access_control.c ****             if (doCreate == false)
 246:C:/Users/lenovo/Desktop/liteos/Project2/BearPi_LiteOS/components/connectivity/agent_tiny/atiny_lwm2m\object_access_control.c ****             {
 247:C:/Users/lenovo/Desktop/liteos/Project2/BearPi_LiteOS/components/connectivity/agent_tiny/atiny_lwm2m\object_access_control.c ****                 result = COAP_405_METHOD_NOT_ALLOWED;
 248:C:/Users/lenovo/Desktop/liteos/Project2/BearPi_LiteOS/components/connectivity/agent_tiny/atiny_lwm2m\object_access_control.c ****             }
 249:C:/Users/lenovo/Desktop/liteos/Project2/BearPi_LiteOS/components/connectivity/agent_tiny/atiny_lwm2m\object_access_control.c ****             else
 250:C:/Users/lenovo/Desktop/liteos/Project2/BearPi_LiteOS/components/connectivity/agent_tiny/atiny_lwm2m\object_access_control.c ****             {
 251:C:/Users/lenovo/Desktop/liteos/Project2/BearPi_LiteOS/components/connectivity/agent_tiny/atiny_lwm2m\object_access_control.c ****                 if (1 != lwm2m_data_decode_int(&tlvArray[i], &value))
 252:C:/Users/lenovo/Desktop/liteos/Project2/BearPi_LiteOS/components/connectivity/agent_tiny/atiny_lwm2m\object_access_control.c ****                 {
 253:C:/Users/lenovo/Desktop/liteos/Project2/BearPi_LiteOS/components/connectivity/agent_tiny/atiny_lwm2m\object_access_control.c ****                     result = COAP_400_BAD_REQUEST;
 254:C:/Users/lenovo/Desktop/liteos/Project2/BearPi_LiteOS/components/connectivity/agent_tiny/atiny_lwm2m\object_access_control.c ****                 }
 255:C:/Users/lenovo/Desktop/liteos/Project2/BearPi_LiteOS/components/connectivity/agent_tiny/atiny_lwm2m\object_access_control.c ****                 else if (value < 1 || value > 65534)
 256:C:/Users/lenovo/Desktop/liteos/Project2/BearPi_LiteOS/components/connectivity/agent_tiny/atiny_lwm2m\object_access_control.c ****                 {
 257:C:/Users/lenovo/Desktop/liteos/Project2/BearPi_LiteOS/components/connectivity/agent_tiny/atiny_lwm2m\object_access_control.c ****                     result = COAP_406_NOT_ACCEPTABLE;
 258:C:/Users/lenovo/Desktop/liteos/Project2/BearPi_LiteOS/components/connectivity/agent_tiny/atiny_lwm2m\object_access_control.c ****                 }
 259:C:/Users/lenovo/Desktop/liteos/Project2/BearPi_LiteOS/components/connectivity/agent_tiny/atiny_lwm2m\object_access_control.c ****                 else
 260:C:/Users/lenovo/Desktop/liteos/Project2/BearPi_LiteOS/components/connectivity/agent_tiny/atiny_lwm2m\object_access_control.c ****                 {
ARM GAS  c:\Users\lenovo\AppData\Local\Temp\ccp6MF8M.s 			page 6


 261:C:/Users/lenovo/Desktop/liteos/Project2/BearPi_LiteOS/components/connectivity/agent_tiny/atiny_lwm2m\object_access_control.c ****                     accCtrlOiP->objectId = value;
 262:C:/Users/lenovo/Desktop/liteos/Project2/BearPi_LiteOS/components/connectivity/agent_tiny/atiny_lwm2m\object_access_control.c ****                     result = COAP_204_CHANGED;
 263:C:/Users/lenovo/Desktop/liteos/Project2/BearPi_LiteOS/components/connectivity/agent_tiny/atiny_lwm2m\object_access_control.c ****                 }
 264:C:/Users/lenovo/Desktop/liteos/Project2/BearPi_LiteOS/components/connectivity/agent_tiny/atiny_lwm2m\object_access_control.c ****             }
 265:C:/Users/lenovo/Desktop/liteos/Project2/BearPi_LiteOS/components/connectivity/agent_tiny/atiny_lwm2m\object_access_control.c ****             break;
 266:C:/Users/lenovo/Desktop/liteos/Project2/BearPi_LiteOS/components/connectivity/agent_tiny/atiny_lwm2m\object_access_control.c ****         case RES_M_OBJECT_INSTANCE_ID:
 267:C:/Users/lenovo/Desktop/liteos/Project2/BearPi_LiteOS/components/connectivity/agent_tiny/atiny_lwm2m\object_access_control.c ****             if (doCreate == false)
 268:C:/Users/lenovo/Desktop/liteos/Project2/BearPi_LiteOS/components/connectivity/agent_tiny/atiny_lwm2m\object_access_control.c ****             {
 269:C:/Users/lenovo/Desktop/liteos/Project2/BearPi_LiteOS/components/connectivity/agent_tiny/atiny_lwm2m\object_access_control.c ****                 result = COAP_405_METHOD_NOT_ALLOWED;
 270:C:/Users/lenovo/Desktop/liteos/Project2/BearPi_LiteOS/components/connectivity/agent_tiny/atiny_lwm2m\object_access_control.c ****             }
 271:C:/Users/lenovo/Desktop/liteos/Project2/BearPi_LiteOS/components/connectivity/agent_tiny/atiny_lwm2m\object_access_control.c ****             else
 272:C:/Users/lenovo/Desktop/liteos/Project2/BearPi_LiteOS/components/connectivity/agent_tiny/atiny_lwm2m\object_access_control.c ****             {
 273:C:/Users/lenovo/Desktop/liteos/Project2/BearPi_LiteOS/components/connectivity/agent_tiny/atiny_lwm2m\object_access_control.c ****                 if (1 != lwm2m_data_decode_int(&tlvArray[i], &value))
 274:C:/Users/lenovo/Desktop/liteos/Project2/BearPi_LiteOS/components/connectivity/agent_tiny/atiny_lwm2m\object_access_control.c ****                 {
 275:C:/Users/lenovo/Desktop/liteos/Project2/BearPi_LiteOS/components/connectivity/agent_tiny/atiny_lwm2m\object_access_control.c ****                     result = COAP_400_BAD_REQUEST;
 276:C:/Users/lenovo/Desktop/liteos/Project2/BearPi_LiteOS/components/connectivity/agent_tiny/atiny_lwm2m\object_access_control.c ****                 }
 277:C:/Users/lenovo/Desktop/liteos/Project2/BearPi_LiteOS/components/connectivity/agent_tiny/atiny_lwm2m\object_access_control.c ****                 else if (value < 0 || value > MAX_DATA_VAL)
 278:C:/Users/lenovo/Desktop/liteos/Project2/BearPi_LiteOS/components/connectivity/agent_tiny/atiny_lwm2m\object_access_control.c ****                 {
 279:C:/Users/lenovo/Desktop/liteos/Project2/BearPi_LiteOS/components/connectivity/agent_tiny/atiny_lwm2m\object_access_control.c ****                     result = COAP_406_NOT_ACCEPTABLE;
 280:C:/Users/lenovo/Desktop/liteos/Project2/BearPi_LiteOS/components/connectivity/agent_tiny/atiny_lwm2m\object_access_control.c ****                 }
 281:C:/Users/lenovo/Desktop/liteos/Project2/BearPi_LiteOS/components/connectivity/agent_tiny/atiny_lwm2m\object_access_control.c ****                 else
 282:C:/Users/lenovo/Desktop/liteos/Project2/BearPi_LiteOS/components/connectivity/agent_tiny/atiny_lwm2m\object_access_control.c ****                 {
 283:C:/Users/lenovo/Desktop/liteos/Project2/BearPi_LiteOS/components/connectivity/agent_tiny/atiny_lwm2m\object_access_control.c ****                     accCtrlOiP->objectInstId = value;
 284:C:/Users/lenovo/Desktop/liteos/Project2/BearPi_LiteOS/components/connectivity/agent_tiny/atiny_lwm2m\object_access_control.c ****                     result = COAP_204_CHANGED;
 285:C:/Users/lenovo/Desktop/liteos/Project2/BearPi_LiteOS/components/connectivity/agent_tiny/atiny_lwm2m\object_access_control.c ****                 }
 286:C:/Users/lenovo/Desktop/liteos/Project2/BearPi_LiteOS/components/connectivity/agent_tiny/atiny_lwm2m\object_access_control.c ****             }
 287:C:/Users/lenovo/Desktop/liteos/Project2/BearPi_LiteOS/components/connectivity/agent_tiny/atiny_lwm2m\object_access_control.c ****             break;
 288:C:/Users/lenovo/Desktop/liteos/Project2/BearPi_LiteOS/components/connectivity/agent_tiny/atiny_lwm2m\object_access_control.c ****         case RES_O_ACL:
 289:C:/Users/lenovo/Desktop/liteos/Project2/BearPi_LiteOS/components/connectivity/agent_tiny/atiny_lwm2m\object_access_control.c ****         {
 290:C:/Users/lenovo/Desktop/liteos/Project2/BearPi_LiteOS/components/connectivity/agent_tiny/atiny_lwm2m\object_access_control.c ****             if (tlvArray[i].type != LWM2M_TYPE_MULTIPLE_RESOURCE)
 291:C:/Users/lenovo/Desktop/liteos/Project2/BearPi_LiteOS/components/connectivity/agent_tiny/atiny_lwm2m\object_access_control.c ****             {
 292:C:/Users/lenovo/Desktop/liteos/Project2/BearPi_LiteOS/components/connectivity/agent_tiny/atiny_lwm2m\object_access_control.c ****                 result = COAP_400_BAD_REQUEST;
 293:C:/Users/lenovo/Desktop/liteos/Project2/BearPi_LiteOS/components/connectivity/agent_tiny/atiny_lwm2m\object_access_control.c ****             }
 294:C:/Users/lenovo/Desktop/liteos/Project2/BearPi_LiteOS/components/connectivity/agent_tiny/atiny_lwm2m\object_access_control.c ****             else
 295:C:/Users/lenovo/Desktop/liteos/Project2/BearPi_LiteOS/components/connectivity/agent_tiny/atiny_lwm2m\object_access_control.c ****             {
 296:C:/Users/lenovo/Desktop/liteos/Project2/BearPi_LiteOS/components/connectivity/agent_tiny/atiny_lwm2m\object_access_control.c ****                 // MR-Write: Replace-implementation variant only
 297:C:/Users/lenovo/Desktop/liteos/Project2/BearPi_LiteOS/components/connectivity/agent_tiny/atiny_lwm2m\object_access_control.c ****                 // see LWM2M-TS:5.4.3 (wakaama has no part-update switch)
 298:C:/Users/lenovo/Desktop/liteos/Project2/BearPi_LiteOS/components/connectivity/agent_tiny/atiny_lwm2m\object_access_control.c **** 
 299:C:/Users/lenovo/Desktop/liteos/Project2/BearPi_LiteOS/components/connectivity/agent_tiny/atiny_lwm2m\object_access_control.c ****                 // 1st: save accValueList!
 300:C:/Users/lenovo/Desktop/liteos/Project2/BearPi_LiteOS/components/connectivity/agent_tiny/atiny_lwm2m\object_access_control.c ****                 acc_ctrl_ri_t *acValListSave = accCtrlOiP->accCtrlValList;
 301:C:/Users/lenovo/Desktop/liteos/Project2/BearPi_LiteOS/components/connectivity/agent_tiny/atiny_lwm2m\object_access_control.c ****                 accCtrlOiP->accCtrlValList = NULL;
 302:C:/Users/lenovo/Desktop/liteos/Project2/BearPi_LiteOS/components/connectivity/agent_tiny/atiny_lwm2m\object_access_control.c **** 
 303:C:/Users/lenovo/Desktop/liteos/Project2/BearPi_LiteOS/components/connectivity/agent_tiny/atiny_lwm2m\object_access_control.c ****                 subTlvArray = tlvArray[i].value.asChildren.array;
 304:C:/Users/lenovo/Desktop/liteos/Project2/BearPi_LiteOS/components/connectivity/agent_tiny/atiny_lwm2m\object_access_control.c **** 
 305:C:/Users/lenovo/Desktop/liteos/Project2/BearPi_LiteOS/components/connectivity/agent_tiny/atiny_lwm2m\object_access_control.c ****                 if (tlvArray[i].value.asChildren.count == 0)
 306:C:/Users/lenovo/Desktop/liteos/Project2/BearPi_LiteOS/components/connectivity/agent_tiny/atiny_lwm2m\object_access_control.c ****                 {
 307:C:/Users/lenovo/Desktop/liteos/Project2/BearPi_LiteOS/components/connectivity/agent_tiny/atiny_lwm2m\object_access_control.c ****                     result = COAP_204_CHANGED;
 308:C:/Users/lenovo/Desktop/liteos/Project2/BearPi_LiteOS/components/connectivity/agent_tiny/atiny_lwm2m\object_access_control.c ****                 }
 309:C:/Users/lenovo/Desktop/liteos/Project2/BearPi_LiteOS/components/connectivity/agent_tiny/atiny_lwm2m\object_access_control.c ****                 else if (subTlvArray == NULL)
 310:C:/Users/lenovo/Desktop/liteos/Project2/BearPi_LiteOS/components/connectivity/agent_tiny/atiny_lwm2m\object_access_control.c ****                 {
 311:C:/Users/lenovo/Desktop/liteos/Project2/BearPi_LiteOS/components/connectivity/agent_tiny/atiny_lwm2m\object_access_control.c ****                     result = COAP_400_BAD_REQUEST;
 312:C:/Users/lenovo/Desktop/liteos/Project2/BearPi_LiteOS/components/connectivity/agent_tiny/atiny_lwm2m\object_access_control.c ****                 }
 313:C:/Users/lenovo/Desktop/liteos/Project2/BearPi_LiteOS/components/connectivity/agent_tiny/atiny_lwm2m\object_access_control.c ****                 else
 314:C:/Users/lenovo/Desktop/liteos/Project2/BearPi_LiteOS/components/connectivity/agent_tiny/atiny_lwm2m\object_access_control.c ****                 {
 315:C:/Users/lenovo/Desktop/liteos/Project2/BearPi_LiteOS/components/connectivity/agent_tiny/atiny_lwm2m\object_access_control.c ****                     for (ri = 0; ri < tlvArray[i].value.asChildren.count; ri++)
 316:C:/Users/lenovo/Desktop/liteos/Project2/BearPi_LiteOS/components/connectivity/agent_tiny/atiny_lwm2m\object_access_control.c ****                     {
 317:C:/Users/lenovo/Desktop/liteos/Project2/BearPi_LiteOS/components/connectivity/agent_tiny/atiny_lwm2m\object_access_control.c ****                         if (1 != lwm2m_data_decode_int(&subTlvArray[ri], &value))
ARM GAS  c:\Users\lenovo\AppData\Local\Temp\ccp6MF8M.s 			page 7


 318:C:/Users/lenovo/Desktop/liteos/Project2/BearPi_LiteOS/components/connectivity/agent_tiny/atiny_lwm2m\object_access_control.c ****                         {
 319:C:/Users/lenovo/Desktop/liteos/Project2/BearPi_LiteOS/components/connectivity/agent_tiny/atiny_lwm2m\object_access_control.c ****                             result = COAP_400_BAD_REQUEST;
 320:C:/Users/lenovo/Desktop/liteos/Project2/BearPi_LiteOS/components/connectivity/agent_tiny/atiny_lwm2m\object_access_control.c ****                             break;
 321:C:/Users/lenovo/Desktop/liteos/Project2/BearPi_LiteOS/components/connectivity/agent_tiny/atiny_lwm2m\object_access_control.c ****                         }
 322:C:/Users/lenovo/Desktop/liteos/Project2/BearPi_LiteOS/components/connectivity/agent_tiny/atiny_lwm2m\object_access_control.c ****                         else if (value < 0 || value > 0xFFFF)
 323:C:/Users/lenovo/Desktop/liteos/Project2/BearPi_LiteOS/components/connectivity/agent_tiny/atiny_lwm2m\object_access_control.c ****                         {
 324:C:/Users/lenovo/Desktop/liteos/Project2/BearPi_LiteOS/components/connectivity/agent_tiny/atiny_lwm2m\object_access_control.c ****                             result = COAP_406_NOT_ACCEPTABLE;
 325:C:/Users/lenovo/Desktop/liteos/Project2/BearPi_LiteOS/components/connectivity/agent_tiny/atiny_lwm2m\object_access_control.c ****                             break;
 326:C:/Users/lenovo/Desktop/liteos/Project2/BearPi_LiteOS/components/connectivity/agent_tiny/atiny_lwm2m\object_access_control.c ****                         }
 327:C:/Users/lenovo/Desktop/liteos/Project2/BearPi_LiteOS/components/connectivity/agent_tiny/atiny_lwm2m\object_access_control.c ****                         else if (!prv_add_ac_val(accCtrlOiP, subTlvArray[ri].id,
 328:C:/Users/lenovo/Desktop/liteos/Project2/BearPi_LiteOS/components/connectivity/agent_tiny/atiny_lwm2m\object_access_control.c ****                                                  (uint16_t)value))
 329:C:/Users/lenovo/Desktop/liteos/Project2/BearPi_LiteOS/components/connectivity/agent_tiny/atiny_lwm2m\object_access_control.c ****                         {
 330:C:/Users/lenovo/Desktop/liteos/Project2/BearPi_LiteOS/components/connectivity/agent_tiny/atiny_lwm2m\object_access_control.c ****                             result = COAP_500_INTERNAL_SERVER_ERROR;
 331:C:/Users/lenovo/Desktop/liteos/Project2/BearPi_LiteOS/components/connectivity/agent_tiny/atiny_lwm2m\object_access_control.c ****                             break;
 332:C:/Users/lenovo/Desktop/liteos/Project2/BearPi_LiteOS/components/connectivity/agent_tiny/atiny_lwm2m\object_access_control.c ****                         }
 333:C:/Users/lenovo/Desktop/liteos/Project2/BearPi_LiteOS/components/connectivity/agent_tiny/atiny_lwm2m\object_access_control.c ****                         else
 334:C:/Users/lenovo/Desktop/liteos/Project2/BearPi_LiteOS/components/connectivity/agent_tiny/atiny_lwm2m\object_access_control.c ****                         {
 335:C:/Users/lenovo/Desktop/liteos/Project2/BearPi_LiteOS/components/connectivity/agent_tiny/atiny_lwm2m\object_access_control.c ****                             result = COAP_204_CHANGED;
 336:C:/Users/lenovo/Desktop/liteos/Project2/BearPi_LiteOS/components/connectivity/agent_tiny/atiny_lwm2m\object_access_control.c ****                         }
 337:C:/Users/lenovo/Desktop/liteos/Project2/BearPi_LiteOS/components/connectivity/agent_tiny/atiny_lwm2m\object_access_control.c ****                     }
 338:C:/Users/lenovo/Desktop/liteos/Project2/BearPi_LiteOS/components/connectivity/agent_tiny/atiny_lwm2m\object_access_control.c ****                 }
 339:C:/Users/lenovo/Desktop/liteos/Project2/BearPi_LiteOS/components/connectivity/agent_tiny/atiny_lwm2m\object_access_control.c **** 
 340:C:/Users/lenovo/Desktop/liteos/Project2/BearPi_LiteOS/components/connectivity/agent_tiny/atiny_lwm2m\object_access_control.c ****                 if (result != COAP_204_CHANGED)
 341:C:/Users/lenovo/Desktop/liteos/Project2/BearPi_LiteOS/components/connectivity/agent_tiny/atiny_lwm2m\object_access_control.c ****                 {
 342:C:/Users/lenovo/Desktop/liteos/Project2/BearPi_LiteOS/components/connectivity/agent_tiny/atiny_lwm2m\object_access_control.c ****                     // free pot. partial created new ones
 343:C:/Users/lenovo/Desktop/liteos/Project2/BearPi_LiteOS/components/connectivity/agent_tiny/atiny_lwm2m\object_access_control.c ****                     LWM2M_LIST_FREE(accCtrlOiP->accCtrlValList);
 344:C:/Users/lenovo/Desktop/liteos/Project2/BearPi_LiteOS/components/connectivity/agent_tiny/atiny_lwm2m\object_access_control.c ****                     // restore old values:
 345:C:/Users/lenovo/Desktop/liteos/Project2/BearPi_LiteOS/components/connectivity/agent_tiny/atiny_lwm2m\object_access_control.c ****                     accCtrlOiP->accCtrlValList = acValListSave;
 346:C:/Users/lenovo/Desktop/liteos/Project2/BearPi_LiteOS/components/connectivity/agent_tiny/atiny_lwm2m\object_access_control.c ****                 }
 347:C:/Users/lenovo/Desktop/liteos/Project2/BearPi_LiteOS/components/connectivity/agent_tiny/atiny_lwm2m\object_access_control.c ****                 else
 348:C:/Users/lenovo/Desktop/liteos/Project2/BearPi_LiteOS/components/connectivity/agent_tiny/atiny_lwm2m\object_access_control.c ****                 {
 349:C:/Users/lenovo/Desktop/liteos/Project2/BearPi_LiteOS/components/connectivity/agent_tiny/atiny_lwm2m\object_access_control.c ****                     // final free saved value list
 350:C:/Users/lenovo/Desktop/liteos/Project2/BearPi_LiteOS/components/connectivity/agent_tiny/atiny_lwm2m\object_access_control.c ****                     LWM2M_LIST_FREE(acValListSave);
 351:C:/Users/lenovo/Desktop/liteos/Project2/BearPi_LiteOS/components/connectivity/agent_tiny/atiny_lwm2m\object_access_control.c ****                 }
 352:C:/Users/lenovo/Desktop/liteos/Project2/BearPi_LiteOS/components/connectivity/agent_tiny/atiny_lwm2m\object_access_control.c ****             }
 353:C:/Users/lenovo/Desktop/liteos/Project2/BearPi_LiteOS/components/connectivity/agent_tiny/atiny_lwm2m\object_access_control.c ****         }
 354:C:/Users/lenovo/Desktop/liteos/Project2/BearPi_LiteOS/components/connectivity/agent_tiny/atiny_lwm2m\object_access_control.c ****         break;
 355:C:/Users/lenovo/Desktop/liteos/Project2/BearPi_LiteOS/components/connectivity/agent_tiny/atiny_lwm2m\object_access_control.c ****         case RES_M_ACCESS_CONTROL_OWNER:
 356:C:/Users/lenovo/Desktop/liteos/Project2/BearPi_LiteOS/components/connectivity/agent_tiny/atiny_lwm2m\object_access_control.c ****         {
 357:C:/Users/lenovo/Desktop/liteos/Project2/BearPi_LiteOS/components/connectivity/agent_tiny/atiny_lwm2m\object_access_control.c ****             if (1 == lwm2m_data_decode_int(tlvArray + i, &value))
 358:C:/Users/lenovo/Desktop/liteos/Project2/BearPi_LiteOS/components/connectivity/agent_tiny/atiny_lwm2m\object_access_control.c ****             {
 359:C:/Users/lenovo/Desktop/liteos/Project2/BearPi_LiteOS/components/connectivity/agent_tiny/atiny_lwm2m\object_access_control.c ****                 if (value >= 0 && value <= MAX_DATA_VAL)
 360:C:/Users/lenovo/Desktop/liteos/Project2/BearPi_LiteOS/components/connectivity/agent_tiny/atiny_lwm2m\object_access_control.c ****                 {
 361:C:/Users/lenovo/Desktop/liteos/Project2/BearPi_LiteOS/components/connectivity/agent_tiny/atiny_lwm2m\object_access_control.c ****                     accCtrlOiP->accCtrlOwner = value;
 362:C:/Users/lenovo/Desktop/liteos/Project2/BearPi_LiteOS/components/connectivity/agent_tiny/atiny_lwm2m\object_access_control.c ****                     result = COAP_204_CHANGED;
 363:C:/Users/lenovo/Desktop/liteos/Project2/BearPi_LiteOS/components/connectivity/agent_tiny/atiny_lwm2m\object_access_control.c ****                 }
 364:C:/Users/lenovo/Desktop/liteos/Project2/BearPi_LiteOS/components/connectivity/agent_tiny/atiny_lwm2m\object_access_control.c ****                 else
 365:C:/Users/lenovo/Desktop/liteos/Project2/BearPi_LiteOS/components/connectivity/agent_tiny/atiny_lwm2m\object_access_control.c ****                 {
 366:C:/Users/lenovo/Desktop/liteos/Project2/BearPi_LiteOS/components/connectivity/agent_tiny/atiny_lwm2m\object_access_control.c ****                     result = COAP_406_NOT_ACCEPTABLE;
 367:C:/Users/lenovo/Desktop/liteos/Project2/BearPi_LiteOS/components/connectivity/agent_tiny/atiny_lwm2m\object_access_control.c ****                 }
 368:C:/Users/lenovo/Desktop/liteos/Project2/BearPi_LiteOS/components/connectivity/agent_tiny/atiny_lwm2m\object_access_control.c ****             }
 369:C:/Users/lenovo/Desktop/liteos/Project2/BearPi_LiteOS/components/connectivity/agent_tiny/atiny_lwm2m\object_access_control.c ****             else
 370:C:/Users/lenovo/Desktop/liteos/Project2/BearPi_LiteOS/components/connectivity/agent_tiny/atiny_lwm2m\object_access_control.c ****             {
 371:C:/Users/lenovo/Desktop/liteos/Project2/BearPi_LiteOS/components/connectivity/agent_tiny/atiny_lwm2m\object_access_control.c ****                 result = COAP_400_BAD_REQUEST;
 372:C:/Users/lenovo/Desktop/liteos/Project2/BearPi_LiteOS/components/connectivity/agent_tiny/atiny_lwm2m\object_access_control.c ****             }
 373:C:/Users/lenovo/Desktop/liteos/Project2/BearPi_LiteOS/components/connectivity/agent_tiny/atiny_lwm2m\object_access_control.c ****         }
 374:C:/Users/lenovo/Desktop/liteos/Project2/BearPi_LiteOS/components/connectivity/agent_tiny/atiny_lwm2m\object_access_control.c ****         break;
ARM GAS  c:\Users\lenovo\AppData\Local\Temp\ccp6MF8M.s 			page 8


 375:C:/Users/lenovo/Desktop/liteos/Project2/BearPi_LiteOS/components/connectivity/agent_tiny/atiny_lwm2m\object_access_control.c ****         default:
 376:C:/Users/lenovo/Desktop/liteos/Project2/BearPi_LiteOS/components/connectivity/agent_tiny/atiny_lwm2m\object_access_control.c ****             return COAP_404_NOT_FOUND ;
 377:C:/Users/lenovo/Desktop/liteos/Project2/BearPi_LiteOS/components/connectivity/agent_tiny/atiny_lwm2m\object_access_control.c ****         }
 378:C:/Users/lenovo/Desktop/liteos/Project2/BearPi_LiteOS/components/connectivity/agent_tiny/atiny_lwm2m\object_access_control.c ****         i++;
 379:C:/Users/lenovo/Desktop/liteos/Project2/BearPi_LiteOS/components/connectivity/agent_tiny/atiny_lwm2m\object_access_control.c ****     }
 380:C:/Users/lenovo/Desktop/liteos/Project2/BearPi_LiteOS/components/connectivity/agent_tiny/atiny_lwm2m\object_access_control.c ****     while (i < numData && result == COAP_204_CHANGED );
 381:C:/Users/lenovo/Desktop/liteos/Project2/BearPi_LiteOS/components/connectivity/agent_tiny/atiny_lwm2m\object_access_control.c **** 
 382:C:/Users/lenovo/Desktop/liteos/Project2/BearPi_LiteOS/components/connectivity/agent_tiny/atiny_lwm2m\object_access_control.c ****     return result;
 383:C:/Users/lenovo/Desktop/liteos/Project2/BearPi_LiteOS/components/connectivity/agent_tiny/atiny_lwm2m\object_access_control.c **** }
 384:C:/Users/lenovo/Desktop/liteos/Project2/BearPi_LiteOS/components/connectivity/agent_tiny/atiny_lwm2m\object_access_control.c **** 
 385:C:/Users/lenovo/Desktop/liteos/Project2/BearPi_LiteOS/components/connectivity/agent_tiny/atiny_lwm2m\object_access_control.c **** static uint8_t prv_write(uint16_t instanceId, int numData,
 386:C:/Users/lenovo/Desktop/liteos/Project2/BearPi_LiteOS/components/connectivity/agent_tiny/atiny_lwm2m\object_access_control.c ****                          lwm2m_data_t *tlvArray, lwm2m_object_t *objectP)
 387:C:/Users/lenovo/Desktop/liteos/Project2/BearPi_LiteOS/components/connectivity/agent_tiny/atiny_lwm2m\object_access_control.c **** {
 388:C:/Users/lenovo/Desktop/liteos/Project2/BearPi_LiteOS/components/connectivity/agent_tiny/atiny_lwm2m\object_access_control.c ****     return prv_write_resources(instanceId, numData, tlvArray, objectP, false);
 389:C:/Users/lenovo/Desktop/liteos/Project2/BearPi_LiteOS/components/connectivity/agent_tiny/atiny_lwm2m\object_access_control.c **** }
 390:C:/Users/lenovo/Desktop/liteos/Project2/BearPi_LiteOS/components/connectivity/agent_tiny/atiny_lwm2m\object_access_control.c **** 
 391:C:/Users/lenovo/Desktop/liteos/Project2/BearPi_LiteOS/components/connectivity/agent_tiny/atiny_lwm2m\object_access_control.c **** static uint8_t prv_delete(uint16_t id, lwm2m_object_t *objectP)
 392:C:/Users/lenovo/Desktop/liteos/Project2/BearPi_LiteOS/components/connectivity/agent_tiny/atiny_lwm2m\object_access_control.c **** {
 393:C:/Users/lenovo/Desktop/liteos/Project2/BearPi_LiteOS/components/connectivity/agent_tiny/atiny_lwm2m\object_access_control.c ****     acc_ctrl_oi_t *targetP;
 394:C:/Users/lenovo/Desktop/liteos/Project2/BearPi_LiteOS/components/connectivity/agent_tiny/atiny_lwm2m\object_access_control.c **** 
 395:C:/Users/lenovo/Desktop/liteos/Project2/BearPi_LiteOS/components/connectivity/agent_tiny/atiny_lwm2m\object_access_control.c ****     objectP->instanceList = lwm2m_list_remove(objectP->instanceList, id,
 396:C:/Users/lenovo/Desktop/liteos/Project2/BearPi_LiteOS/components/connectivity/agent_tiny/atiny_lwm2m\object_access_control.c ****                             (lwm2m_list_t **)&targetP);
 397:C:/Users/lenovo/Desktop/liteos/Project2/BearPi_LiteOS/components/connectivity/agent_tiny/atiny_lwm2m\object_access_control.c ****     if (NULL == targetP) return COAP_404_NOT_FOUND;
 398:C:/Users/lenovo/Desktop/liteos/Project2/BearPi_LiteOS/components/connectivity/agent_tiny/atiny_lwm2m\object_access_control.c **** 
 399:C:/Users/lenovo/Desktop/liteos/Project2/BearPi_LiteOS/components/connectivity/agent_tiny/atiny_lwm2m\object_access_control.c ****     LWM2M_LIST_FREE(targetP->accCtrlValList);
 400:C:/Users/lenovo/Desktop/liteos/Project2/BearPi_LiteOS/components/connectivity/agent_tiny/atiny_lwm2m\object_access_control.c ****     lwm2m_free(targetP);
 401:C:/Users/lenovo/Desktop/liteos/Project2/BearPi_LiteOS/components/connectivity/agent_tiny/atiny_lwm2m\object_access_control.c **** 
 402:C:/Users/lenovo/Desktop/liteos/Project2/BearPi_LiteOS/components/connectivity/agent_tiny/atiny_lwm2m\object_access_control.c ****     return COAP_202_DELETED;
 403:C:/Users/lenovo/Desktop/liteos/Project2/BearPi_LiteOS/components/connectivity/agent_tiny/atiny_lwm2m\object_access_control.c **** }
 404:C:/Users/lenovo/Desktop/liteos/Project2/BearPi_LiteOS/components/connectivity/agent_tiny/atiny_lwm2m\object_access_control.c **** 
 405:C:/Users/lenovo/Desktop/liteos/Project2/BearPi_LiteOS/components/connectivity/agent_tiny/atiny_lwm2m\object_access_control.c **** static uint8_t prv_create(uint16_t objInstId, int numData,
 406:C:/Users/lenovo/Desktop/liteos/Project2/BearPi_LiteOS/components/connectivity/agent_tiny/atiny_lwm2m\object_access_control.c ****                           lwm2m_data_t *tlvArray, lwm2m_object_t *objectP)
 407:C:/Users/lenovo/Desktop/liteos/Project2/BearPi_LiteOS/components/connectivity/agent_tiny/atiny_lwm2m\object_access_control.c **** {
 408:C:/Users/lenovo/Desktop/liteos/Project2/BearPi_LiteOS/components/connectivity/agent_tiny/atiny_lwm2m\object_access_control.c ****     acc_ctrl_oi_t *targetP;
 409:C:/Users/lenovo/Desktop/liteos/Project2/BearPi_LiteOS/components/connectivity/agent_tiny/atiny_lwm2m\object_access_control.c ****     uint8_t result;
 410:C:/Users/lenovo/Desktop/liteos/Project2/BearPi_LiteOS/components/connectivity/agent_tiny/atiny_lwm2m\object_access_control.c **** 
 411:C:/Users/lenovo/Desktop/liteos/Project2/BearPi_LiteOS/components/connectivity/agent_tiny/atiny_lwm2m\object_access_control.c ****     targetP = (acc_ctrl_oi_t *)lwm2m_malloc(sizeof(acc_ctrl_oi_t));
 412:C:/Users/lenovo/Desktop/liteos/Project2/BearPi_LiteOS/components/connectivity/agent_tiny/atiny_lwm2m\object_access_control.c ****     if (NULL == targetP) return COAP_500_INTERNAL_SERVER_ERROR;
 413:C:/Users/lenovo/Desktop/liteos/Project2/BearPi_LiteOS/components/connectivity/agent_tiny/atiny_lwm2m\object_access_control.c ****     memset(targetP, 0, sizeof(acc_ctrl_oi_t));
 414:C:/Users/lenovo/Desktop/liteos/Project2/BearPi_LiteOS/components/connectivity/agent_tiny/atiny_lwm2m\object_access_control.c **** 
 415:C:/Users/lenovo/Desktop/liteos/Project2/BearPi_LiteOS/components/connectivity/agent_tiny/atiny_lwm2m\object_access_control.c ****     targetP->objInstId    = objInstId;
 416:C:/Users/lenovo/Desktop/liteos/Project2/BearPi_LiteOS/components/connectivity/agent_tiny/atiny_lwm2m\object_access_control.c ****     objectP->instanceList = LWM2M_LIST_ADD(objectP->instanceList, targetP);
 417:C:/Users/lenovo/Desktop/liteos/Project2/BearPi_LiteOS/components/connectivity/agent_tiny/atiny_lwm2m\object_access_control.c **** 
 418:C:/Users/lenovo/Desktop/liteos/Project2/BearPi_LiteOS/components/connectivity/agent_tiny/atiny_lwm2m\object_access_control.c ****     result = prv_write_resources(objInstId, numData, tlvArray, objectP, true);
 419:C:/Users/lenovo/Desktop/liteos/Project2/BearPi_LiteOS/components/connectivity/agent_tiny/atiny_lwm2m\object_access_control.c **** 
 420:C:/Users/lenovo/Desktop/liteos/Project2/BearPi_LiteOS/components/connectivity/agent_tiny/atiny_lwm2m\object_access_control.c ****     if (result != COAP_204_CHANGED)
 421:C:/Users/lenovo/Desktop/liteos/Project2/BearPi_LiteOS/components/connectivity/agent_tiny/atiny_lwm2m\object_access_control.c ****     {
 422:C:/Users/lenovo/Desktop/liteos/Project2/BearPi_LiteOS/components/connectivity/agent_tiny/atiny_lwm2m\object_access_control.c ****         (void)prv_delete(objInstId, objectP);
 423:C:/Users/lenovo/Desktop/liteos/Project2/BearPi_LiteOS/components/connectivity/agent_tiny/atiny_lwm2m\object_access_control.c ****     }
 424:C:/Users/lenovo/Desktop/liteos/Project2/BearPi_LiteOS/components/connectivity/agent_tiny/atiny_lwm2m\object_access_control.c ****     else
 425:C:/Users/lenovo/Desktop/liteos/Project2/BearPi_LiteOS/components/connectivity/agent_tiny/atiny_lwm2m\object_access_control.c ****     {
 426:C:/Users/lenovo/Desktop/liteos/Project2/BearPi_LiteOS/components/connectivity/agent_tiny/atiny_lwm2m\object_access_control.c ****         result = COAP_201_CREATED;
 427:C:/Users/lenovo/Desktop/liteos/Project2/BearPi_LiteOS/components/connectivity/agent_tiny/atiny_lwm2m\object_access_control.c ****     }
 428:C:/Users/lenovo/Desktop/liteos/Project2/BearPi_LiteOS/components/connectivity/agent_tiny/atiny_lwm2m\object_access_control.c ****     return result;
 429:C:/Users/lenovo/Desktop/liteos/Project2/BearPi_LiteOS/components/connectivity/agent_tiny/atiny_lwm2m\object_access_control.c **** }
 430:C:/Users/lenovo/Desktop/liteos/Project2/BearPi_LiteOS/components/connectivity/agent_tiny/atiny_lwm2m\object_access_control.c **** 
 431:C:/Users/lenovo/Desktop/liteos/Project2/BearPi_LiteOS/components/connectivity/agent_tiny/atiny_lwm2m\object_access_control.c **** /*
ARM GAS  c:\Users\lenovo\AppData\Local\Temp\ccp6MF8M.s 			page 9


 432:C:/Users/lenovo/Desktop/liteos/Project2/BearPi_LiteOS/components/connectivity/agent_tiny/atiny_lwm2m\object_access_control.c ****  * Create an empty multiple instance LWM2M Object: Access Control
 433:C:/Users/lenovo/Desktop/liteos/Project2/BearPi_LiteOS/components/connectivity/agent_tiny/atiny_lwm2m\object_access_control.c ****  */
 434:C:/Users/lenovo/Desktop/liteos/Project2/BearPi_LiteOS/components/connectivity/agent_tiny/atiny_lwm2m\object_access_control.c **** lwm2m_object_t *acc_ctrl_create_object(void)
 435:C:/Users/lenovo/Desktop/liteos/Project2/BearPi_LiteOS/components/connectivity/agent_tiny/atiny_lwm2m\object_access_control.c **** {
 436:C:/Users/lenovo/Desktop/liteos/Project2/BearPi_LiteOS/components/connectivity/agent_tiny/atiny_lwm2m\object_access_control.c ****     /*
 437:C:/Users/lenovo/Desktop/liteos/Project2/BearPi_LiteOS/components/connectivity/agent_tiny/atiny_lwm2m\object_access_control.c ****      * The acc_ctrl_create_object() function creates an empty object
 438:C:/Users/lenovo/Desktop/liteos/Project2/BearPi_LiteOS/components/connectivity/agent_tiny/atiny_lwm2m\object_access_control.c ****      * and returns a pointer to the structure that represents it.
 439:C:/Users/lenovo/Desktop/liteos/Project2/BearPi_LiteOS/components/connectivity/agent_tiny/atiny_lwm2m\object_access_control.c ****      */
 440:C:/Users/lenovo/Desktop/liteos/Project2/BearPi_LiteOS/components/connectivity/agent_tiny/atiny_lwm2m\object_access_control.c ****     lwm2m_object_t *accCtrlObj = NULL;
 441:C:/Users/lenovo/Desktop/liteos/Project2/BearPi_LiteOS/components/connectivity/agent_tiny/atiny_lwm2m\object_access_control.c **** 
 442:C:/Users/lenovo/Desktop/liteos/Project2/BearPi_LiteOS/components/connectivity/agent_tiny/atiny_lwm2m\object_access_control.c ****     accCtrlObj = (lwm2m_object_t *) lwm2m_malloc(sizeof(lwm2m_object_t));
 443:C:/Users/lenovo/Desktop/liteos/Project2/BearPi_LiteOS/components/connectivity/agent_tiny/atiny_lwm2m\object_access_control.c **** 
 444:C:/Users/lenovo/Desktop/liteos/Project2/BearPi_LiteOS/components/connectivity/agent_tiny/atiny_lwm2m\object_access_control.c ****     if (NULL != accCtrlObj)
 445:C:/Users/lenovo/Desktop/liteos/Project2/BearPi_LiteOS/components/connectivity/agent_tiny/atiny_lwm2m\object_access_control.c ****     {
 446:C:/Users/lenovo/Desktop/liteos/Project2/BearPi_LiteOS/components/connectivity/agent_tiny/atiny_lwm2m\object_access_control.c ****         memset(accCtrlObj, 0, sizeof(lwm2m_object_t));
 447:C:/Users/lenovo/Desktop/liteos/Project2/BearPi_LiteOS/components/connectivity/agent_tiny/atiny_lwm2m\object_access_control.c ****         /*
 448:C:/Users/lenovo/Desktop/liteos/Project2/BearPi_LiteOS/components/connectivity/agent_tiny/atiny_lwm2m\object_access_control.c ****          * It assign his unique object ID
 449:C:/Users/lenovo/Desktop/liteos/Project2/BearPi_LiteOS/components/connectivity/agent_tiny/atiny_lwm2m\object_access_control.c ****          * The 2 is the standard ID for the optional object "Access Control".
 450:C:/Users/lenovo/Desktop/liteos/Project2/BearPi_LiteOS/components/connectivity/agent_tiny/atiny_lwm2m\object_access_control.c ****          */
 451:C:/Users/lenovo/Desktop/liteos/Project2/BearPi_LiteOS/components/connectivity/agent_tiny/atiny_lwm2m\object_access_control.c ****         accCtrlObj->objID = LWM2M_ACL_OBJECT_ID;
 452:C:/Users/lenovo/Desktop/liteos/Project2/BearPi_LiteOS/components/connectivity/agent_tiny/atiny_lwm2m\object_access_control.c ****         // Init callbacks, empty instanceList!
 453:C:/Users/lenovo/Desktop/liteos/Project2/BearPi_LiteOS/components/connectivity/agent_tiny/atiny_lwm2m\object_access_control.c ****         accCtrlObj->readFunc    = prv_read;
 454:C:/Users/lenovo/Desktop/liteos/Project2/BearPi_LiteOS/components/connectivity/agent_tiny/atiny_lwm2m\object_access_control.c ****         accCtrlObj->writeFunc   = prv_write;
 455:C:/Users/lenovo/Desktop/liteos/Project2/BearPi_LiteOS/components/connectivity/agent_tiny/atiny_lwm2m\object_access_control.c ****         accCtrlObj->createFunc  = prv_create;
 456:C:/Users/lenovo/Desktop/liteos/Project2/BearPi_LiteOS/components/connectivity/agent_tiny/atiny_lwm2m\object_access_control.c ****         accCtrlObj->deleteFunc  = prv_delete;
 457:C:/Users/lenovo/Desktop/liteos/Project2/BearPi_LiteOS/components/connectivity/agent_tiny/atiny_lwm2m\object_access_control.c ****     }
 458:C:/Users/lenovo/Desktop/liteos/Project2/BearPi_LiteOS/components/connectivity/agent_tiny/atiny_lwm2m\object_access_control.c ****     return accCtrlObj;
 459:C:/Users/lenovo/Desktop/liteos/Project2/BearPi_LiteOS/components/connectivity/agent_tiny/atiny_lwm2m\object_access_control.c **** }
 460:C:/Users/lenovo/Desktop/liteos/Project2/BearPi_LiteOS/components/connectivity/agent_tiny/atiny_lwm2m\object_access_control.c **** 
 461:C:/Users/lenovo/Desktop/liteos/Project2/BearPi_LiteOS/components/connectivity/agent_tiny/atiny_lwm2m\object_access_control.c **** void acl_ctrl_free_object(lwm2m_object_t *objectP)
 462:C:/Users/lenovo/Desktop/liteos/Project2/BearPi_LiteOS/components/connectivity/agent_tiny/atiny_lwm2m\object_access_control.c **** {
 463:C:/Users/lenovo/Desktop/liteos/Project2/BearPi_LiteOS/components/connectivity/agent_tiny/atiny_lwm2m\object_access_control.c ****     acc_ctrl_oi_t *accCtrlOiT;
 464:C:/Users/lenovo/Desktop/liteos/Project2/BearPi_LiteOS/components/connectivity/agent_tiny/atiny_lwm2m\object_access_control.c ****     acc_ctrl_oi_t *accCtrlOiP = (acc_ctrl_oi_t *)objectP->instanceList;
 465:C:/Users/lenovo/Desktop/liteos/Project2/BearPi_LiteOS/components/connectivity/agent_tiny/atiny_lwm2m\object_access_control.c ****     while (accCtrlOiP != NULL)
 466:C:/Users/lenovo/Desktop/liteos/Project2/BearPi_LiteOS/components/connectivity/agent_tiny/atiny_lwm2m\object_access_control.c ****     {
 467:C:/Users/lenovo/Desktop/liteos/Project2/BearPi_LiteOS/components/connectivity/agent_tiny/atiny_lwm2m\object_access_control.c ****         // first free acl (multiple resource!):
 468:C:/Users/lenovo/Desktop/liteos/Project2/BearPi_LiteOS/components/connectivity/agent_tiny/atiny_lwm2m\object_access_control.c ****         LWM2M_LIST_FREE(accCtrlOiP->accCtrlValList);
 469:C:/Users/lenovo/Desktop/liteos/Project2/BearPi_LiteOS/components/connectivity/agent_tiny/atiny_lwm2m\object_access_control.c ****         accCtrlOiT = accCtrlOiP;
 470:C:/Users/lenovo/Desktop/liteos/Project2/BearPi_LiteOS/components/connectivity/agent_tiny/atiny_lwm2m\object_access_control.c ****         accCtrlOiP = accCtrlOiP->next;
 471:C:/Users/lenovo/Desktop/liteos/Project2/BearPi_LiteOS/components/connectivity/agent_tiny/atiny_lwm2m\object_access_control.c ****         lwm2m_free(accCtrlOiT);
 472:C:/Users/lenovo/Desktop/liteos/Project2/BearPi_LiteOS/components/connectivity/agent_tiny/atiny_lwm2m\object_access_control.c ****     }
 473:C:/Users/lenovo/Desktop/liteos/Project2/BearPi_LiteOS/components/connectivity/agent_tiny/atiny_lwm2m\object_access_control.c ****     lwm2m_free(objectP);
 474:C:/Users/lenovo/Desktop/liteos/Project2/BearPi_LiteOS/components/connectivity/agent_tiny/atiny_lwm2m\object_access_control.c **** }
 475:C:/Users/lenovo/Desktop/liteos/Project2/BearPi_LiteOS/components/connectivity/agent_tiny/atiny_lwm2m\object_access_control.c **** 
 476:C:/Users/lenovo/Desktop/liteos/Project2/BearPi_LiteOS/components/connectivity/agent_tiny/atiny_lwm2m\object_access_control.c **** bool  acc_ctrl_obj_add_inst (lwm2m_object_t *accCtrlObjP, uint16_t instId,
 477:C:/Users/lenovo/Desktop/liteos/Project2/BearPi_LiteOS/components/connectivity/agent_tiny/atiny_lwm2m\object_access_control.c ****                              uint16_t acObjectId, uint16_t acObjInstId, uint16_t acOwner)
 478:C:/Users/lenovo/Desktop/liteos/Project2/BearPi_LiteOS/components/connectivity/agent_tiny/atiny_lwm2m\object_access_control.c **** {
 479:C:/Users/lenovo/Desktop/liteos/Project2/BearPi_LiteOS/components/connectivity/agent_tiny/atiny_lwm2m\object_access_control.c ****     bool ret = false;
 480:C:/Users/lenovo/Desktop/liteos/Project2/BearPi_LiteOS/components/connectivity/agent_tiny/atiny_lwm2m\object_access_control.c **** 
 481:C:/Users/lenovo/Desktop/liteos/Project2/BearPi_LiteOS/components/connectivity/agent_tiny/atiny_lwm2m\object_access_control.c ****     if (NULL == accCtrlObjP)
 482:C:/Users/lenovo/Desktop/liteos/Project2/BearPi_LiteOS/components/connectivity/agent_tiny/atiny_lwm2m\object_access_control.c ****     {
 483:C:/Users/lenovo/Desktop/liteos/Project2/BearPi_LiteOS/components/connectivity/agent_tiny/atiny_lwm2m\object_access_control.c ****         return ret;
 484:C:/Users/lenovo/Desktop/liteos/Project2/BearPi_LiteOS/components/connectivity/agent_tiny/atiny_lwm2m\object_access_control.c ****     }
 485:C:/Users/lenovo/Desktop/liteos/Project2/BearPi_LiteOS/components/connectivity/agent_tiny/atiny_lwm2m\object_access_control.c ****     else
 486:C:/Users/lenovo/Desktop/liteos/Project2/BearPi_LiteOS/components/connectivity/agent_tiny/atiny_lwm2m\object_access_control.c ****     {
 487:C:/Users/lenovo/Desktop/liteos/Project2/BearPi_LiteOS/components/connectivity/agent_tiny/atiny_lwm2m\object_access_control.c ****         // create an access control object instance
 488:C:/Users/lenovo/Desktop/liteos/Project2/BearPi_LiteOS/components/connectivity/agent_tiny/atiny_lwm2m\object_access_control.c ****         acc_ctrl_oi_t *accCtrlOiP;
ARM GAS  c:\Users\lenovo\AppData\Local\Temp\ccp6MF8M.s 			page 10


 489:C:/Users/lenovo/Desktop/liteos/Project2/BearPi_LiteOS/components/connectivity/agent_tiny/atiny_lwm2m\object_access_control.c ****         accCtrlOiP = (acc_ctrl_oi_t *)lwm2m_malloc(sizeof(acc_ctrl_oi_t));
 490:C:/Users/lenovo/Desktop/liteos/Project2/BearPi_LiteOS/components/connectivity/agent_tiny/atiny_lwm2m\object_access_control.c ****         if (NULL == accCtrlOiP)
 491:C:/Users/lenovo/Desktop/liteos/Project2/BearPi_LiteOS/components/connectivity/agent_tiny/atiny_lwm2m\object_access_control.c ****         {
 492:C:/Users/lenovo/Desktop/liteos/Project2/BearPi_LiteOS/components/connectivity/agent_tiny/atiny_lwm2m\object_access_control.c ****             return ret;
 493:C:/Users/lenovo/Desktop/liteos/Project2/BearPi_LiteOS/components/connectivity/agent_tiny/atiny_lwm2m\object_access_control.c ****         }
 494:C:/Users/lenovo/Desktop/liteos/Project2/BearPi_LiteOS/components/connectivity/agent_tiny/atiny_lwm2m\object_access_control.c ****         else
 495:C:/Users/lenovo/Desktop/liteos/Project2/BearPi_LiteOS/components/connectivity/agent_tiny/atiny_lwm2m\object_access_control.c ****         {
 496:C:/Users/lenovo/Desktop/liteos/Project2/BearPi_LiteOS/components/connectivity/agent_tiny/atiny_lwm2m\object_access_control.c ****             memset(accCtrlOiP, 0, sizeof(acc_ctrl_oi_t));
 497:C:/Users/lenovo/Desktop/liteos/Project2/BearPi_LiteOS/components/connectivity/agent_tiny/atiny_lwm2m\object_access_control.c ****             // list: key
 498:C:/Users/lenovo/Desktop/liteos/Project2/BearPi_LiteOS/components/connectivity/agent_tiny/atiny_lwm2m\object_access_control.c ****             accCtrlOiP->objInstId    = instId;
 499:C:/Users/lenovo/Desktop/liteos/Project2/BearPi_LiteOS/components/connectivity/agent_tiny/atiny_lwm2m\object_access_control.c ****             // object instance data:
 500:C:/Users/lenovo/Desktop/liteos/Project2/BearPi_LiteOS/components/connectivity/agent_tiny/atiny_lwm2m\object_access_control.c ****             accCtrlOiP->objectId     = acObjectId;
 501:C:/Users/lenovo/Desktop/liteos/Project2/BearPi_LiteOS/components/connectivity/agent_tiny/atiny_lwm2m\object_access_control.c ****             accCtrlOiP->objectInstId = acObjInstId;
 502:C:/Users/lenovo/Desktop/liteos/Project2/BearPi_LiteOS/components/connectivity/agent_tiny/atiny_lwm2m\object_access_control.c ****             accCtrlOiP->accCtrlOwner = acOwner;
 503:C:/Users/lenovo/Desktop/liteos/Project2/BearPi_LiteOS/components/connectivity/agent_tiny/atiny_lwm2m\object_access_control.c **** 
 504:C:/Users/lenovo/Desktop/liteos/Project2/BearPi_LiteOS/components/connectivity/agent_tiny/atiny_lwm2m\object_access_control.c ****             accCtrlObjP->instanceList =
 505:C:/Users/lenovo/Desktop/liteos/Project2/BearPi_LiteOS/components/connectivity/agent_tiny/atiny_lwm2m\object_access_control.c ****                 LWM2M_LIST_ADD(accCtrlObjP->instanceList, accCtrlOiP);
 506:C:/Users/lenovo/Desktop/liteos/Project2/BearPi_LiteOS/components/connectivity/agent_tiny/atiny_lwm2m\object_access_control.c ****             ret = true;
 507:C:/Users/lenovo/Desktop/liteos/Project2/BearPi_LiteOS/components/connectivity/agent_tiny/atiny_lwm2m\object_access_control.c ****         }
 508:C:/Users/lenovo/Desktop/liteos/Project2/BearPi_LiteOS/components/connectivity/agent_tiny/atiny_lwm2m\object_access_control.c ****     }
 509:C:/Users/lenovo/Desktop/liteos/Project2/BearPi_LiteOS/components/connectivity/agent_tiny/atiny_lwm2m\object_access_control.c ****     return ret;
 510:C:/Users/lenovo/Desktop/liteos/Project2/BearPi_LiteOS/components/connectivity/agent_tiny/atiny_lwm2m\object_access_control.c **** }
 511:C:/Users/lenovo/Desktop/liteos/Project2/BearPi_LiteOS/components/connectivity/agent_tiny/atiny_lwm2m\object_access_control.c **** 
 512:C:/Users/lenovo/Desktop/liteos/Project2/BearPi_LiteOS/components/connectivity/agent_tiny/atiny_lwm2m\object_access_control.c **** bool acc_ctrl_oi_add_ac_val (lwm2m_object_t *accCtrlObjP, uint16_t instId,
 513:C:/Users/lenovo/Desktop/liteos/Project2/BearPi_LiteOS/components/connectivity/agent_tiny/atiny_lwm2m\object_access_control.c ****                              uint16_t acResId, uint16_t acValue)
 514:C:/Users/lenovo/Desktop/liteos/Project2/BearPi_LiteOS/components/connectivity/agent_tiny/atiny_lwm2m\object_access_control.c **** {
 515:C:/Users/lenovo/Desktop/liteos/Project2/BearPi_LiteOS/components/connectivity/agent_tiny/atiny_lwm2m\object_access_control.c ****     bool ret = false;
 516:C:/Users/lenovo/Desktop/liteos/Project2/BearPi_LiteOS/components/connectivity/agent_tiny/atiny_lwm2m\object_access_control.c **** 
 517:C:/Users/lenovo/Desktop/liteos/Project2/BearPi_LiteOS/components/connectivity/agent_tiny/atiny_lwm2m\object_access_control.c ****     acc_ctrl_oi_t *accCtrlOiP = (acc_ctrl_oi_t *)
 518:C:/Users/lenovo/Desktop/liteos/Project2/BearPi_LiteOS/components/connectivity/agent_tiny/atiny_lwm2m\object_access_control.c ****                                 lwm2m_list_find(accCtrlObjP->instanceList, instId);
 519:C:/Users/lenovo/Desktop/liteos/Project2/BearPi_LiteOS/components/connectivity/agent_tiny/atiny_lwm2m\object_access_control.c ****     if (NULL == accCtrlOiP)
 520:C:/Users/lenovo/Desktop/liteos/Project2/BearPi_LiteOS/components/connectivity/agent_tiny/atiny_lwm2m\object_access_control.c ****         return ret;
 521:C:/Users/lenovo/Desktop/liteos/Project2/BearPi_LiteOS/components/connectivity/agent_tiny/atiny_lwm2m\object_access_control.c **** 
 522:C:/Users/lenovo/Desktop/liteos/Project2/BearPi_LiteOS/components/connectivity/agent_tiny/atiny_lwm2m\object_access_control.c ****     return prv_add_ac_val (accCtrlOiP, acResId, acValue);
 523:C:/Users/lenovo/Desktop/liteos/Project2/BearPi_LiteOS/components/connectivity/agent_tiny/atiny_lwm2m\object_access_control.c **** }
 524:C:/Users/lenovo/Desktop/liteos/Project2/BearPi_LiteOS/components/connectivity/agent_tiny/atiny_lwm2m\object_access_control.c **** 
 525:C:/Users/lenovo/Desktop/liteos/Project2/BearPi_LiteOS/components/connectivity/agent_tiny/atiny_lwm2m\object_access_control.c **** static acc_ctrl_oi_t *prv_get_acc_instance(acc_ctrl_oi_t *accCtrlOiP, uint16_t objId, uint16_t inst
 526:C:/Users/lenovo/Desktop/liteos/Project2/BearPi_LiteOS/components/connectivity/agent_tiny/atiny_lwm2m\object_access_control.c **** {
  27              		.loc 1 526 0
  28              		.cfi_startproc
  29              		@ args = 0, pretend = 0, frame = 0
  30              		@ frame_needed = 0, uses_anonymous_args = 0
  31              		@ link register save eliminated.
  32              	.LVL0:
 527:C:/Users/lenovo/Desktop/liteos/Project2/BearPi_LiteOS/components/connectivity/agent_tiny/atiny_lwm2m\object_access_control.c ****     acc_ctrl_oi_t *itor = accCtrlOiP;
 528:C:/Users/lenovo/Desktop/liteos/Project2/BearPi_LiteOS/components/connectivity/agent_tiny/atiny_lwm2m\object_access_control.c **** 
 529:C:/Users/lenovo/Desktop/liteos/Project2/BearPi_LiteOS/components/connectivity/agent_tiny/atiny_lwm2m\object_access_control.c ****     while (itor)
  33              		.loc 1 529 0
  34 0000 00E0     		b	.L2
  35              	.LVL1:
  36              	.L3:
 530:C:/Users/lenovo/Desktop/liteos/Project2/BearPi_LiteOS/components/connectivity/agent_tiny/atiny_lwm2m\object_access_control.c ****     {
 531:C:/Users/lenovo/Desktop/liteos/Project2/BearPi_LiteOS/components/connectivity/agent_tiny/atiny_lwm2m\object_access_control.c ****         if (itor->objectId == objId && itor->objectInstId == instId)
 532:C:/Users/lenovo/Desktop/liteos/Project2/BearPi_LiteOS/components/connectivity/agent_tiny/atiny_lwm2m\object_access_control.c ****         {
 533:C:/Users/lenovo/Desktop/liteos/Project2/BearPi_LiteOS/components/connectivity/agent_tiny/atiny_lwm2m\object_access_control.c ****             return itor;
 534:C:/Users/lenovo/Desktop/liteos/Project2/BearPi_LiteOS/components/connectivity/agent_tiny/atiny_lwm2m\object_access_control.c ****         }
 535:C:/Users/lenovo/Desktop/liteos/Project2/BearPi_LiteOS/components/connectivity/agent_tiny/atiny_lwm2m\object_access_control.c ****         itor = itor->next;
ARM GAS  c:\Users\lenovo\AppData\Local\Temp\ccp6MF8M.s 			page 11


  37              		.loc 1 535 0
  38 0002 0068     		ldr	r0, [r0]
  39              	.LVL2:
  40              	.L2:
 529:C:/Users/lenovo/Desktop/liteos/Project2/BearPi_LiteOS/components/connectivity/agent_tiny/atiny_lwm2m\object_access_control.c ****     {
  41              		.loc 1 529 0
  42 0004 28B1     		cbz	r0, .L4
 531:C:/Users/lenovo/Desktop/liteos/Project2/BearPi_LiteOS/components/connectivity/agent_tiny/atiny_lwm2m\object_access_control.c ****         {
  43              		.loc 1 531 0
  44 0006 C388     		ldrh	r3, [r0, #6]
  45 0008 8B42     		cmp	r3, r1
  46 000a FAD1     		bne	.L3
 531:C:/Users/lenovo/Desktop/liteos/Project2/BearPi_LiteOS/components/connectivity/agent_tiny/atiny_lwm2m\object_access_control.c ****         {
  47              		.loc 1 531 0 is_stmt 0 discriminator 1
  48 000c 0389     		ldrh	r3, [r0, #8]
  49 000e 9342     		cmp	r3, r2
  50 0010 F7D1     		bne	.L3
  51              	.L4:
 536:C:/Users/lenovo/Desktop/liteos/Project2/BearPi_LiteOS/components/connectivity/agent_tiny/atiny_lwm2m\object_access_control.c ****     }
 537:C:/Users/lenovo/Desktop/liteos/Project2/BearPi_LiteOS/components/connectivity/agent_tiny/atiny_lwm2m\object_access_control.c **** 
 538:C:/Users/lenovo/Desktop/liteos/Project2/BearPi_LiteOS/components/connectivity/agent_tiny/atiny_lwm2m\object_access_control.c ****     return NULL;
 539:C:/Users/lenovo/Desktop/liteos/Project2/BearPi_LiteOS/components/connectivity/agent_tiny/atiny_lwm2m\object_access_control.c **** }
  52              		.loc 1 539 0 is_stmt 1
  53 0012 7047     		bx	lr
  54              		.cfi_endproc
  55              	.LFE153:
  57              		.section	.text.prv_post_action_check,"ax",%progbits
  58              		.align	1
  59              		.syntax unified
  60              		.thumb
  61              		.thumb_func
  62              		.fpu fpv4-sp-d16
  64              	prv_post_action_check:
  65              	.LFB159:
 540:C:/Users/lenovo/Desktop/liteos/Project2/BearPi_LiteOS/components/connectivity/agent_tiny/atiny_lwm2m\object_access_control.c **** 
 541:C:/Users/lenovo/Desktop/liteos/Project2/BearPi_LiteOS/components/connectivity/agent_tiny/atiny_lwm2m\object_access_control.c **** static acc_ctrl_ri_t *prv_get_acl_instance(acc_ctrl_ri_t *accCtrlRiP, uint16_t serverId)
 542:C:/Users/lenovo/Desktop/liteos/Project2/BearPi_LiteOS/components/connectivity/agent_tiny/atiny_lwm2m\object_access_control.c **** {
 543:C:/Users/lenovo/Desktop/liteos/Project2/BearPi_LiteOS/components/connectivity/agent_tiny/atiny_lwm2m\object_access_control.c ****     acc_ctrl_ri_t *targetP;
 544:C:/Users/lenovo/Desktop/liteos/Project2/BearPi_LiteOS/components/connectivity/agent_tiny/atiny_lwm2m\object_access_control.c **** 
 545:C:/Users/lenovo/Desktop/liteos/Project2/BearPi_LiteOS/components/connectivity/agent_tiny/atiny_lwm2m\object_access_control.c ****     targetP = (acc_ctrl_ri_t *)LWM2M_LIST_FIND(accCtrlRiP, serverId);
 546:C:/Users/lenovo/Desktop/liteos/Project2/BearPi_LiteOS/components/connectivity/agent_tiny/atiny_lwm2m\object_access_control.c ****     if (NULL == targetP)
 547:C:/Users/lenovo/Desktop/liteos/Project2/BearPi_LiteOS/components/connectivity/agent_tiny/atiny_lwm2m\object_access_control.c ****     {
 548:C:/Users/lenovo/Desktop/liteos/Project2/BearPi_LiteOS/components/connectivity/agent_tiny/atiny_lwm2m\object_access_control.c ****         targetP = (acc_ctrl_ri_t *)LWM2M_LIST_FIND(accCtrlRiP, 0);
 549:C:/Users/lenovo/Desktop/liteos/Project2/BearPi_LiteOS/components/connectivity/agent_tiny/atiny_lwm2m\object_access_control.c ****     }
 550:C:/Users/lenovo/Desktop/liteos/Project2/BearPi_LiteOS/components/connectivity/agent_tiny/atiny_lwm2m\object_access_control.c **** 
 551:C:/Users/lenovo/Desktop/liteos/Project2/BearPi_LiteOS/components/connectivity/agent_tiny/atiny_lwm2m\object_access_control.c ****     return targetP;
 552:C:/Users/lenovo/Desktop/liteos/Project2/BearPi_LiteOS/components/connectivity/agent_tiny/atiny_lwm2m\object_access_control.c **** }
 553:C:/Users/lenovo/Desktop/liteos/Project2/BearPi_LiteOS/components/connectivity/agent_tiny/atiny_lwm2m\object_access_control.c **** 
 554:C:/Users/lenovo/Desktop/liteos/Project2/BearPi_LiteOS/components/connectivity/agent_tiny/atiny_lwm2m\object_access_control.c **** static inline bool prv_auth_match(OBJ_ACC_OPERATE op, uint16_t auth_op)
 555:C:/Users/lenovo/Desktop/liteos/Project2/BearPi_LiteOS/components/connectivity/agent_tiny/atiny_lwm2m\object_access_control.c **** {
 556:C:/Users/lenovo/Desktop/liteos/Project2/BearPi_LiteOS/components/connectivity/agent_tiny/atiny_lwm2m\object_access_control.c ****     return auth_op & (0x01 << op);
 557:C:/Users/lenovo/Desktop/liteos/Project2/BearPi_LiteOS/components/connectivity/agent_tiny/atiny_lwm2m\object_access_control.c **** }
 558:C:/Users/lenovo/Desktop/liteos/Project2/BearPi_LiteOS/components/connectivity/agent_tiny/atiny_lwm2m\object_access_control.c **** 
 559:C:/Users/lenovo/Desktop/liteos/Project2/BearPi_LiteOS/components/connectivity/agent_tiny/atiny_lwm2m\object_access_control.c **** static bool prv_check_instance_auth(acc_ctrl_oi_t *accCtrlOiP, uint16_t objId, uint16_t instId,
 560:C:/Users/lenovo/Desktop/liteos/Project2/BearPi_LiteOS/components/connectivity/agent_tiny/atiny_lwm2m\object_access_control.c ****                                     uint16_t serverId, OBJ_ACC_OPERATE op)
 561:C:/Users/lenovo/Desktop/liteos/Project2/BearPi_LiteOS/components/connectivity/agent_tiny/atiny_lwm2m\object_access_control.c **** {
 562:C:/Users/lenovo/Desktop/liteos/Project2/BearPi_LiteOS/components/connectivity/agent_tiny/atiny_lwm2m\object_access_control.c ****     acc_ctrl_oi_t *targetP;
ARM GAS  c:\Users\lenovo\AppData\Local\Temp\ccp6MF8M.s 			page 12


 563:C:/Users/lenovo/Desktop/liteos/Project2/BearPi_LiteOS/components/connectivity/agent_tiny/atiny_lwm2m\object_access_control.c ****     acc_ctrl_ri_t *accCtrlRiP;
 564:C:/Users/lenovo/Desktop/liteos/Project2/BearPi_LiteOS/components/connectivity/agent_tiny/atiny_lwm2m\object_access_control.c **** 
 565:C:/Users/lenovo/Desktop/liteos/Project2/BearPi_LiteOS/components/connectivity/agent_tiny/atiny_lwm2m\object_access_control.c ****     targetP = prv_get_acc_instance(accCtrlOiP, objId, instId);
 566:C:/Users/lenovo/Desktop/liteos/Project2/BearPi_LiteOS/components/connectivity/agent_tiny/atiny_lwm2m\object_access_control.c ****     if (NULL == targetP)
 567:C:/Users/lenovo/Desktop/liteos/Project2/BearPi_LiteOS/components/connectivity/agent_tiny/atiny_lwm2m\object_access_control.c ****     {
 568:C:/Users/lenovo/Desktop/liteos/Project2/BearPi_LiteOS/components/connectivity/agent_tiny/atiny_lwm2m\object_access_control.c ****         return false;
 569:C:/Users/lenovo/Desktop/liteos/Project2/BearPi_LiteOS/components/connectivity/agent_tiny/atiny_lwm2m\object_access_control.c ****     }
 570:C:/Users/lenovo/Desktop/liteos/Project2/BearPi_LiteOS/components/connectivity/agent_tiny/atiny_lwm2m\object_access_control.c ****     accCtrlRiP = prv_get_acl_instance(targetP->accCtrlValList, serverId);
 571:C:/Users/lenovo/Desktop/liteos/Project2/BearPi_LiteOS/components/connectivity/agent_tiny/atiny_lwm2m\object_access_control.c ****     if (NULL == accCtrlRiP)
 572:C:/Users/lenovo/Desktop/liteos/Project2/BearPi_LiteOS/components/connectivity/agent_tiny/atiny_lwm2m\object_access_control.c ****     {
 573:C:/Users/lenovo/Desktop/liteos/Project2/BearPi_LiteOS/components/connectivity/agent_tiny/atiny_lwm2m\object_access_control.c ****         return targetP->accCtrlOwner == serverId;
 574:C:/Users/lenovo/Desktop/liteos/Project2/BearPi_LiteOS/components/connectivity/agent_tiny/atiny_lwm2m\object_access_control.c ****     }
 575:C:/Users/lenovo/Desktop/liteos/Project2/BearPi_LiteOS/components/connectivity/agent_tiny/atiny_lwm2m\object_access_control.c ****     return prv_auth_match(op, accCtrlRiP->accCtrlValue);
 576:C:/Users/lenovo/Desktop/liteos/Project2/BearPi_LiteOS/components/connectivity/agent_tiny/atiny_lwm2m\object_access_control.c **** }
 577:C:/Users/lenovo/Desktop/liteos/Project2/BearPi_LiteOS/components/connectivity/agent_tiny/atiny_lwm2m\object_access_control.c **** 
 578:C:/Users/lenovo/Desktop/liteos/Project2/BearPi_LiteOS/components/connectivity/agent_tiny/atiny_lwm2m\object_access_control.c **** static uint8_t prv_acc_self_auth_check(acc_ctrl_oi_t *accCtrlOiP, lwm2m_uri_t *uri,
 579:C:/Users/lenovo/Desktop/liteos/Project2/BearPi_LiteOS/components/connectivity/agent_tiny/atiny_lwm2m\object_access_control.c ****                                        OBJ_ACC_OPERATE op, uint16_t serverId)
 580:C:/Users/lenovo/Desktop/liteos/Project2/BearPi_LiteOS/components/connectivity/agent_tiny/atiny_lwm2m\object_access_control.c **** {
 581:C:/Users/lenovo/Desktop/liteos/Project2/BearPi_LiteOS/components/connectivity/agent_tiny/atiny_lwm2m\object_access_control.c ****     acc_ctrl_oi_t *targetP;
 582:C:/Users/lenovo/Desktop/liteos/Project2/BearPi_LiteOS/components/connectivity/agent_tiny/atiny_lwm2m\object_access_control.c **** 
 583:C:/Users/lenovo/Desktop/liteos/Project2/BearPi_LiteOS/components/connectivity/agent_tiny/atiny_lwm2m\object_access_control.c ****     if (LWM2M_URI_IS_SET_INSTANCE(uri))
 584:C:/Users/lenovo/Desktop/liteos/Project2/BearPi_LiteOS/components/connectivity/agent_tiny/atiny_lwm2m\object_access_control.c ****     {
 585:C:/Users/lenovo/Desktop/liteos/Project2/BearPi_LiteOS/components/connectivity/agent_tiny/atiny_lwm2m\object_access_control.c ****         targetP = (acc_ctrl_oi_t *)LWM2M_LIST_FIND(accCtrlOiP, uri->instanceId);
 586:C:/Users/lenovo/Desktop/liteos/Project2/BearPi_LiteOS/components/connectivity/agent_tiny/atiny_lwm2m\object_access_control.c ****         if (NULL != targetP && targetP->accCtrlOwner == serverId)
 587:C:/Users/lenovo/Desktop/liteos/Project2/BearPi_LiteOS/components/connectivity/agent_tiny/atiny_lwm2m\object_access_control.c ****         {
 588:C:/Users/lenovo/Desktop/liteos/Project2/BearPi_LiteOS/components/connectivity/agent_tiny/atiny_lwm2m\object_access_control.c ****             return COAP_NO_ERROR;
 589:C:/Users/lenovo/Desktop/liteos/Project2/BearPi_LiteOS/components/connectivity/agent_tiny/atiny_lwm2m\object_access_control.c ****         }
 590:C:/Users/lenovo/Desktop/liteos/Project2/BearPi_LiteOS/components/connectivity/agent_tiny/atiny_lwm2m\object_access_control.c ****         else
 591:C:/Users/lenovo/Desktop/liteos/Project2/BearPi_LiteOS/components/connectivity/agent_tiny/atiny_lwm2m\object_access_control.c ****         {
 592:C:/Users/lenovo/Desktop/liteos/Project2/BearPi_LiteOS/components/connectivity/agent_tiny/atiny_lwm2m\object_access_control.c ****             return COAP_401_UNAUTHORIZED;
 593:C:/Users/lenovo/Desktop/liteos/Project2/BearPi_LiteOS/components/connectivity/agent_tiny/atiny_lwm2m\object_access_control.c ****         }
 594:C:/Users/lenovo/Desktop/liteos/Project2/BearPi_LiteOS/components/connectivity/agent_tiny/atiny_lwm2m\object_access_control.c ****     }
 595:C:/Users/lenovo/Desktop/liteos/Project2/BearPi_LiteOS/components/connectivity/agent_tiny/atiny_lwm2m\object_access_control.c ****     else
 596:C:/Users/lenovo/Desktop/liteos/Project2/BearPi_LiteOS/components/connectivity/agent_tiny/atiny_lwm2m\object_access_control.c ****     {
 597:C:/Users/lenovo/Desktop/liteos/Project2/BearPi_LiteOS/components/connectivity/agent_tiny/atiny_lwm2m\object_access_control.c ****         targetP = accCtrlOiP;
 598:C:/Users/lenovo/Desktop/liteos/Project2/BearPi_LiteOS/components/connectivity/agent_tiny/atiny_lwm2m\object_access_control.c ****         while (targetP)
 599:C:/Users/lenovo/Desktop/liteos/Project2/BearPi_LiteOS/components/connectivity/agent_tiny/atiny_lwm2m\object_access_control.c ****         {
 600:C:/Users/lenovo/Desktop/liteos/Project2/BearPi_LiteOS/components/connectivity/agent_tiny/atiny_lwm2m\object_access_control.c ****             if (targetP->accCtrlOwner != serverId)
 601:C:/Users/lenovo/Desktop/liteos/Project2/BearPi_LiteOS/components/connectivity/agent_tiny/atiny_lwm2m\object_access_control.c ****             {
 602:C:/Users/lenovo/Desktop/liteos/Project2/BearPi_LiteOS/components/connectivity/agent_tiny/atiny_lwm2m\object_access_control.c ****                 return COAP_401_UNAUTHORIZED;
 603:C:/Users/lenovo/Desktop/liteos/Project2/BearPi_LiteOS/components/connectivity/agent_tiny/atiny_lwm2m\object_access_control.c ****             }
 604:C:/Users/lenovo/Desktop/liteos/Project2/BearPi_LiteOS/components/connectivity/agent_tiny/atiny_lwm2m\object_access_control.c ****             targetP = targetP->next;
 605:C:/Users/lenovo/Desktop/liteos/Project2/BearPi_LiteOS/components/connectivity/agent_tiny/atiny_lwm2m\object_access_control.c ****         }
 606:C:/Users/lenovo/Desktop/liteos/Project2/BearPi_LiteOS/components/connectivity/agent_tiny/atiny_lwm2m\object_access_control.c ****         return COAP_NO_ERROR;
 607:C:/Users/lenovo/Desktop/liteos/Project2/BearPi_LiteOS/components/connectivity/agent_tiny/atiny_lwm2m\object_access_control.c ****     }
 608:C:/Users/lenovo/Desktop/liteos/Project2/BearPi_LiteOS/components/connectivity/agent_tiny/atiny_lwm2m\object_access_control.c **** }
 609:C:/Users/lenovo/Desktop/liteos/Project2/BearPi_LiteOS/components/connectivity/agent_tiny/atiny_lwm2m\object_access_control.c **** 
 610:C:/Users/lenovo/Desktop/liteos/Project2/BearPi_LiteOS/components/connectivity/agent_tiny/atiny_lwm2m\object_access_control.c **** static uint8_t prv_pre_auth_check(acc_ctrl_oi_t *accCtrlOiP, lwm2m_uri_t *uri,
 611:C:/Users/lenovo/Desktop/liteos/Project2/BearPi_LiteOS/components/connectivity/agent_tiny/atiny_lwm2m\object_access_control.c ****                                   OBJ_ACC_OPERATE op, uint16_t serverId)
 612:C:/Users/lenovo/Desktop/liteos/Project2/BearPi_LiteOS/components/connectivity/agent_tiny/atiny_lwm2m\object_access_control.c **** {
 613:C:/Users/lenovo/Desktop/liteos/Project2/BearPi_LiteOS/components/connectivity/agent_tiny/atiny_lwm2m\object_access_control.c ****     if (OBJ_ACC_CREATE == op)
 614:C:/Users/lenovo/Desktop/liteos/Project2/BearPi_LiteOS/components/connectivity/agent_tiny/atiny_lwm2m\object_access_control.c ****     {
 615:C:/Users/lenovo/Desktop/liteos/Project2/BearPi_LiteOS/components/connectivity/agent_tiny/atiny_lwm2m\object_access_control.c ****         if (!prv_check_instance_auth(accCtrlOiP, uri->objectId, MAX_DATA_VAL, serverId, op))
 616:C:/Users/lenovo/Desktop/liteos/Project2/BearPi_LiteOS/components/connectivity/agent_tiny/atiny_lwm2m\object_access_control.c ****         {
 617:C:/Users/lenovo/Desktop/liteos/Project2/BearPi_LiteOS/components/connectivity/agent_tiny/atiny_lwm2m\object_access_control.c ****             return COAP_401_UNAUTHORIZED;
 618:C:/Users/lenovo/Desktop/liteos/Project2/BearPi_LiteOS/components/connectivity/agent_tiny/atiny_lwm2m\object_access_control.c ****         }
 619:C:/Users/lenovo/Desktop/liteos/Project2/BearPi_LiteOS/components/connectivity/agent_tiny/atiny_lwm2m\object_access_control.c **** 
ARM GAS  c:\Users\lenovo\AppData\Local\Temp\ccp6MF8M.s 			page 13


 620:C:/Users/lenovo/Desktop/liteos/Project2/BearPi_LiteOS/components/connectivity/agent_tiny/atiny_lwm2m\object_access_control.c ****         return COAP_NO_ERROR;
 621:C:/Users/lenovo/Desktop/liteos/Project2/BearPi_LiteOS/components/connectivity/agent_tiny/atiny_lwm2m\object_access_control.c ****     }
 622:C:/Users/lenovo/Desktop/liteos/Project2/BearPi_LiteOS/components/connectivity/agent_tiny/atiny_lwm2m\object_access_control.c ****     else if (OBJ_ACC_DISCOVER == op)
 623:C:/Users/lenovo/Desktop/liteos/Project2/BearPi_LiteOS/components/connectivity/agent_tiny/atiny_lwm2m\object_access_control.c ****     {
 624:C:/Users/lenovo/Desktop/liteos/Project2/BearPi_LiteOS/components/connectivity/agent_tiny/atiny_lwm2m\object_access_control.c ****         return COAP_NO_ERROR;
 625:C:/Users/lenovo/Desktop/liteos/Project2/BearPi_LiteOS/components/connectivity/agent_tiny/atiny_lwm2m\object_access_control.c ****     }
 626:C:/Users/lenovo/Desktop/liteos/Project2/BearPi_LiteOS/components/connectivity/agent_tiny/atiny_lwm2m\object_access_control.c ****     else if (uri->objectId == LWM2M_ACL_OBJECT_ID)
 627:C:/Users/lenovo/Desktop/liteos/Project2/BearPi_LiteOS/components/connectivity/agent_tiny/atiny_lwm2m\object_access_control.c ****     {
 628:C:/Users/lenovo/Desktop/liteos/Project2/BearPi_LiteOS/components/connectivity/agent_tiny/atiny_lwm2m\object_access_control.c ****         return prv_acc_self_auth_check(accCtrlOiP, uri, op, serverId);
 629:C:/Users/lenovo/Desktop/liteos/Project2/BearPi_LiteOS/components/connectivity/agent_tiny/atiny_lwm2m\object_access_control.c ****     }
 630:C:/Users/lenovo/Desktop/liteos/Project2/BearPi_LiteOS/components/connectivity/agent_tiny/atiny_lwm2m\object_access_control.c ****     else
 631:C:/Users/lenovo/Desktop/liteos/Project2/BearPi_LiteOS/components/connectivity/agent_tiny/atiny_lwm2m\object_access_control.c ****     {
 632:C:/Users/lenovo/Desktop/liteos/Project2/BearPi_LiteOS/components/connectivity/agent_tiny/atiny_lwm2m\object_access_control.c ****         if (LWM2M_URI_IS_SET_INSTANCE(uri))
 633:C:/Users/lenovo/Desktop/liteos/Project2/BearPi_LiteOS/components/connectivity/agent_tiny/atiny_lwm2m\object_access_control.c ****         {
 634:C:/Users/lenovo/Desktop/liteos/Project2/BearPi_LiteOS/components/connectivity/agent_tiny/atiny_lwm2m\object_access_control.c ****             if (!prv_check_instance_auth(accCtrlOiP, uri->objectId, uri->instanceId, serverId, op))
 635:C:/Users/lenovo/Desktop/liteos/Project2/BearPi_LiteOS/components/connectivity/agent_tiny/atiny_lwm2m\object_access_control.c ****             {
 636:C:/Users/lenovo/Desktop/liteos/Project2/BearPi_LiteOS/components/connectivity/agent_tiny/atiny_lwm2m\object_access_control.c ****                 return COAP_401_UNAUTHORIZED;
 637:C:/Users/lenovo/Desktop/liteos/Project2/BearPi_LiteOS/components/connectivity/agent_tiny/atiny_lwm2m\object_access_control.c ****             }
 638:C:/Users/lenovo/Desktop/liteos/Project2/BearPi_LiteOS/components/connectivity/agent_tiny/atiny_lwm2m\object_access_control.c ****         }
 639:C:/Users/lenovo/Desktop/liteos/Project2/BearPi_LiteOS/components/connectivity/agent_tiny/atiny_lwm2m\object_access_control.c ****     }
 640:C:/Users/lenovo/Desktop/liteos/Project2/BearPi_LiteOS/components/connectivity/agent_tiny/atiny_lwm2m\object_access_control.c **** 
 641:C:/Users/lenovo/Desktop/liteos/Project2/BearPi_LiteOS/components/connectivity/agent_tiny/atiny_lwm2m\object_access_control.c ****     return COAP_NO_ERROR;
 642:C:/Users/lenovo/Desktop/liteos/Project2/BearPi_LiteOS/components/connectivity/agent_tiny/atiny_lwm2m\object_access_control.c **** }
 643:C:/Users/lenovo/Desktop/liteos/Project2/BearPi_LiteOS/components/connectivity/agent_tiny/atiny_lwm2m\object_access_control.c **** 
 644:C:/Users/lenovo/Desktop/liteos/Project2/BearPi_LiteOS/components/connectivity/agent_tiny/atiny_lwm2m\object_access_control.c **** static uint8_t prv_post_action_check(lwm2m_uri_t *uri, OBJ_ACC_OPERATE op)
 645:C:/Users/lenovo/Desktop/liteos/Project2/BearPi_LiteOS/components/connectivity/agent_tiny/atiny_lwm2m\object_access_control.c **** {
  66              		.loc 1 645 0
  67              		.cfi_startproc
  68              		@ args = 0, pretend = 0, frame = 0
  69              		@ frame_needed = 0, uses_anonymous_args = 0
  70              		@ link register save eliminated.
  71              	.LVL3:
 646:C:/Users/lenovo/Desktop/liteos/Project2/BearPi_LiteOS/components/connectivity/agent_tiny/atiny_lwm2m\object_access_control.c ****     if (LWM2M_URI_IS_SET_RESOURCE(uri))
  72              		.loc 1 646 0
  73 0000 0378     		ldrb	r3, [r0]	@ zero_extendqisi2
  74 0002 13F0010F 		tst	r3, #1
  75 0006 0DD1     		bne	.L9
 647:C:/Users/lenovo/Desktop/liteos/Project2/BearPi_LiteOS/components/connectivity/agent_tiny/atiny_lwm2m\object_access_control.c ****     {
 648:C:/Users/lenovo/Desktop/liteos/Project2/BearPi_LiteOS/components/connectivity/agent_tiny/atiny_lwm2m\object_access_control.c ****         return COAP_NO_ERROR;
 649:C:/Users/lenovo/Desktop/liteos/Project2/BearPi_LiteOS/components/connectivity/agent_tiny/atiny_lwm2m\object_access_control.c ****     }
 650:C:/Users/lenovo/Desktop/liteos/Project2/BearPi_LiteOS/components/connectivity/agent_tiny/atiny_lwm2m\object_access_control.c ****     else if (LWM2M_URI_IS_SET_INSTANCE(uri))
  76              		.loc 1 650 0
  77 0008 13F0020F 		tst	r3, #2
  78 000c 05D0     		beq	.L8
 651:C:/Users/lenovo/Desktop/liteos/Project2/BearPi_LiteOS/components/connectivity/agent_tiny/atiny_lwm2m\object_access_control.c ****     {
 652:C:/Users/lenovo/Desktop/liteos/Project2/BearPi_LiteOS/components/connectivity/agent_tiny/atiny_lwm2m\object_access_control.c ****         if (OBJ_ACC_EXCUTE == op)
  79              		.loc 1 652 0
  80 000e 0229     		cmp	r1, #2
  81 0010 01D0     		beq	.L13
 653:C:/Users/lenovo/Desktop/liteos/Project2/BearPi_LiteOS/components/connectivity/agent_tiny/atiny_lwm2m\object_access_control.c ****         {
 654:C:/Users/lenovo/Desktop/liteos/Project2/BearPi_LiteOS/components/connectivity/agent_tiny/atiny_lwm2m\object_access_control.c ****             return COAP_405_METHOD_NOT_ALLOWED;
 655:C:/Users/lenovo/Desktop/liteos/Project2/BearPi_LiteOS/components/connectivity/agent_tiny/atiny_lwm2m\object_access_control.c ****         }
 656:C:/Users/lenovo/Desktop/liteos/Project2/BearPi_LiteOS/components/connectivity/agent_tiny/atiny_lwm2m\object_access_control.c ****         else
 657:C:/Users/lenovo/Desktop/liteos/Project2/BearPi_LiteOS/components/connectivity/agent_tiny/atiny_lwm2m\object_access_control.c ****         {
 658:C:/Users/lenovo/Desktop/liteos/Project2/BearPi_LiteOS/components/connectivity/agent_tiny/atiny_lwm2m\object_access_control.c ****             /*
 659:C:/Users/lenovo/Desktop/liteos/Project2/BearPi_LiteOS/components/connectivity/agent_tiny/atiny_lwm2m\object_access_control.c ****              * For the write operation, check whether the resources
 660:C:/Users/lenovo/Desktop/liteos/Project2/BearPi_LiteOS/components/connectivity/agent_tiny/atiny_lwm2m\object_access_control.c ****              * can be written or not, is in the write operation of
ARM GAS  c:\Users\lenovo\AppData\Local\Temp\ccp6MF8M.s 			page 14


 661:C:/Users/lenovo/Desktop/liteos/Project2/BearPi_LiteOS/components/connectivity/agent_tiny/atiny_lwm2m\object_access_control.c ****              * the specific object.
 662:C:/Users/lenovo/Desktop/liteos/Project2/BearPi_LiteOS/components/connectivity/agent_tiny/atiny_lwm2m\object_access_control.c ****              */
 663:C:/Users/lenovo/Desktop/liteos/Project2/BearPi_LiteOS/components/connectivity/agent_tiny/atiny_lwm2m\object_access_control.c ****             return COAP_NO_ERROR;
  82              		.loc 1 663 0
  83 0012 0020     		movs	r0, #0
  84              	.LVL4:
  85 0014 7047     		bx	lr
  86              	.LVL5:
  87              	.L13:
 654:C:/Users/lenovo/Desktop/liteos/Project2/BearPi_LiteOS/components/connectivity/agent_tiny/atiny_lwm2m\object_access_control.c ****         }
  88              		.loc 1 654 0
  89 0016 8520     		movs	r0, #133
  90              	.LVL6:
  91 0018 7047     		bx	lr
  92              	.LVL7:
  93              	.L8:
 664:C:/Users/lenovo/Desktop/liteos/Project2/BearPi_LiteOS/components/connectivity/agent_tiny/atiny_lwm2m\object_access_control.c ****         }
 665:C:/Users/lenovo/Desktop/liteos/Project2/BearPi_LiteOS/components/connectivity/agent_tiny/atiny_lwm2m\object_access_control.c ****     }
 666:C:/Users/lenovo/Desktop/liteos/Project2/BearPi_LiteOS/components/connectivity/agent_tiny/atiny_lwm2m\object_access_control.c ****     else
 667:C:/Users/lenovo/Desktop/liteos/Project2/BearPi_LiteOS/components/connectivity/agent_tiny/atiny_lwm2m\object_access_control.c ****     {
 668:C:/Users/lenovo/Desktop/liteos/Project2/BearPi_LiteOS/components/connectivity/agent_tiny/atiny_lwm2m\object_access_control.c ****         if (OBJ_ACC_WRITE_ATTR == op || OBJ_ACC_CREATE == op)
  94              		.loc 1 668 0
  95 001a 29B1     		cbz	r1, .L11
  96              		.loc 1 668 0 is_stmt 0 discriminator 1
  97 001c 0429     		cmp	r1, #4
  98 001e 05D1     		bne	.L12
 669:C:/Users/lenovo/Desktop/liteos/Project2/BearPi_LiteOS/components/connectivity/agent_tiny/atiny_lwm2m\object_access_control.c ****         {
 670:C:/Users/lenovo/Desktop/liteos/Project2/BearPi_LiteOS/components/connectivity/agent_tiny/atiny_lwm2m\object_access_control.c ****             return COAP_NO_ERROR;
  99              		.loc 1 670 0 is_stmt 1
 100 0020 0020     		movs	r0, #0
 101              	.LVL8:
 102 0022 7047     		bx	lr
 103              	.LVL9:
 104              	.L9:
 648:C:/Users/lenovo/Desktop/liteos/Project2/BearPi_LiteOS/components/connectivity/agent_tiny/atiny_lwm2m\object_access_control.c ****     }
 105              		.loc 1 648 0
 106 0024 0020     		movs	r0, #0
 107              	.LVL10:
 108 0026 7047     		bx	lr
 109              	.LVL11:
 110              	.L11:
 111              		.loc 1 670 0
 112 0028 0020     		movs	r0, #0
 113              	.LVL12:
 114 002a 7047     		bx	lr
 115              	.LVL13:
 116              	.L12:
 671:C:/Users/lenovo/Desktop/liteos/Project2/BearPi_LiteOS/components/connectivity/agent_tiny/atiny_lwm2m\object_access_control.c ****         }
 672:C:/Users/lenovo/Desktop/liteos/Project2/BearPi_LiteOS/components/connectivity/agent_tiny/atiny_lwm2m\object_access_control.c ****         else if (OBJ_ACC_NOTIFY == op
 673:C:/Users/lenovo/Desktop/liteos/Project2/BearPi_LiteOS/components/connectivity/agent_tiny/atiny_lwm2m\object_access_control.c ****                  || OBJ_ACC_READ == op || OBJ_ACC_OBSERVE == op)
 674:C:/Users/lenovo/Desktop/liteos/Project2/BearPi_LiteOS/components/connectivity/agent_tiny/atiny_lwm2m\object_access_control.c ****         {
 675:C:/Users/lenovo/Desktop/liteos/Project2/BearPi_LiteOS/components/connectivity/agent_tiny/atiny_lwm2m\object_access_control.c ****             /*
 676:C:/Users/lenovo/Desktop/liteos/Project2/BearPi_LiteOS/components/connectivity/agent_tiny/atiny_lwm2m\object_access_control.c ****              * We should do the auth check in object_read interface
 677:C:/Users/lenovo/Desktop/liteos/Project2/BearPi_LiteOS/components/connectivity/agent_tiny/atiny_lwm2m\object_access_control.c ****              * and just ignore here.
 678:C:/Users/lenovo/Desktop/liteos/Project2/BearPi_LiteOS/components/connectivity/agent_tiny/atiny_lwm2m\object_access_control.c ****              */
 679:C:/Users/lenovo/Desktop/liteos/Project2/BearPi_LiteOS/components/connectivity/agent_tiny/atiny_lwm2m\object_access_control.c ****             return COAP_NO_ERROR;
 680:C:/Users/lenovo/Desktop/liteos/Project2/BearPi_LiteOS/components/connectivity/agent_tiny/atiny_lwm2m\object_access_control.c ****         }
ARM GAS  c:\Users\lenovo\AppData\Local\Temp\ccp6MF8M.s 			page 15


 681:C:/Users/lenovo/Desktop/liteos/Project2/BearPi_LiteOS/components/connectivity/agent_tiny/atiny_lwm2m\object_access_control.c ****         else
 682:C:/Users/lenovo/Desktop/liteos/Project2/BearPi_LiteOS/components/connectivity/agent_tiny/atiny_lwm2m\object_access_control.c ****         {
 683:C:/Users/lenovo/Desktop/liteos/Project2/BearPi_LiteOS/components/connectivity/agent_tiny/atiny_lwm2m\object_access_control.c ****             return COAP_405_METHOD_NOT_ALLOWED;
 117              		.loc 1 683 0
 118 002c 8520     		movs	r0, #133
 119              	.LVL14:
 684:C:/Users/lenovo/Desktop/liteos/Project2/BearPi_LiteOS/components/connectivity/agent_tiny/atiny_lwm2m\object_access_control.c ****         }
 685:C:/Users/lenovo/Desktop/liteos/Project2/BearPi_LiteOS/components/connectivity/agent_tiny/atiny_lwm2m\object_access_control.c ****     }
 686:C:/Users/lenovo/Desktop/liteos/Project2/BearPi_LiteOS/components/connectivity/agent_tiny/atiny_lwm2m\object_access_control.c **** }
 120              		.loc 1 686 0
 121 002e 7047     		bx	lr
 122              		.cfi_endproc
 123              	.LFE159:
 125              		.section	.text.prv_get_srv_cnt,"ax",%progbits
 126              		.align	1
 127              		.syntax unified
 128              		.thumb
 129              		.thumb_func
 130              		.fpu fpv4-sp-d16
 132              	prv_get_srv_cnt:
 133              	.LFB160:
 687:C:/Users/lenovo/Desktop/liteos/Project2/BearPi_LiteOS/components/connectivity/agent_tiny/atiny_lwm2m\object_access_control.c **** 
 688:C:/Users/lenovo/Desktop/liteos/Project2/BearPi_LiteOS/components/connectivity/agent_tiny/atiny_lwm2m\object_access_control.c **** static int prv_get_srv_cnt(lwm2m_server_t *serverP)
 689:C:/Users/lenovo/Desktop/liteos/Project2/BearPi_LiteOS/components/connectivity/agent_tiny/atiny_lwm2m\object_access_control.c **** {
 134              		.loc 1 689 0
 135              		.cfi_startproc
 136              		@ args = 0, pretend = 0, frame = 0
 137              		@ frame_needed = 0, uses_anonymous_args = 0
 138              		@ link register save eliminated.
 139              	.LVL15:
 140 0000 0346     		mov	r3, r0
 141              	.LVL16:
 690:C:/Users/lenovo/Desktop/liteos/Project2/BearPi_LiteOS/components/connectivity/agent_tiny/atiny_lwm2m\object_access_control.c ****     lwm2m_server_t *itor = serverP;
 691:C:/Users/lenovo/Desktop/liteos/Project2/BearPi_LiteOS/components/connectivity/agent_tiny/atiny_lwm2m\object_access_control.c ****     int cnt = 0;
 142              		.loc 1 691 0
 143 0002 0020     		movs	r0, #0
 144              	.LVL17:
 692:C:/Users/lenovo/Desktop/liteos/Project2/BearPi_LiteOS/components/connectivity/agent_tiny/atiny_lwm2m\object_access_control.c **** 
 693:C:/Users/lenovo/Desktop/liteos/Project2/BearPi_LiteOS/components/connectivity/agent_tiny/atiny_lwm2m\object_access_control.c ****     while (itor)
 145              		.loc 1 693 0
 146 0004 00E0     		b	.L15
 147              	.LVL18:
 148              	.L16:
 694:C:/Users/lenovo/Desktop/liteos/Project2/BearPi_LiteOS/components/connectivity/agent_tiny/atiny_lwm2m\object_access_control.c ****     {
 695:C:/Users/lenovo/Desktop/liteos/Project2/BearPi_LiteOS/components/connectivity/agent_tiny/atiny_lwm2m\object_access_control.c ****         if (!itor->dirty)
 696:C:/Users/lenovo/Desktop/liteos/Project2/BearPi_LiteOS/components/connectivity/agent_tiny/atiny_lwm2m\object_access_control.c ****         {
 697:C:/Users/lenovo/Desktop/liteos/Project2/BearPi_LiteOS/components/connectivity/agent_tiny/atiny_lwm2m\object_access_control.c ****             ++cnt;
 698:C:/Users/lenovo/Desktop/liteos/Project2/BearPi_LiteOS/components/connectivity/agent_tiny/atiny_lwm2m\object_access_control.c ****         }
 699:C:/Users/lenovo/Desktop/liteos/Project2/BearPi_LiteOS/components/connectivity/agent_tiny/atiny_lwm2m\object_access_control.c ****         itor = itor->next;
 149              		.loc 1 699 0
 150 0006 1B68     		ldr	r3, [r3]
 151              	.LVL19:
 152              	.L15:
 693:C:/Users/lenovo/Desktop/liteos/Project2/BearPi_LiteOS/components/connectivity/agent_tiny/atiny_lwm2m\object_access_control.c ****     {
 153              		.loc 1 693 0
 154 0008 2BB1     		cbz	r3, .L18
 695:C:/Users/lenovo/Desktop/liteos/Project2/BearPi_LiteOS/components/connectivity/agent_tiny/atiny_lwm2m\object_access_control.c ****         {
ARM GAS  c:\Users\lenovo\AppData\Local\Temp\ccp6MF8M.s 			page 16


 155              		.loc 1 695 0
 156 000a 93F82820 		ldrb	r2, [r3, #40]	@ zero_extendqisi2
 157 000e 002A     		cmp	r2, #0
 158 0010 F9D1     		bne	.L16
 697:C:/Users/lenovo/Desktop/liteos/Project2/BearPi_LiteOS/components/connectivity/agent_tiny/atiny_lwm2m\object_access_control.c ****         }
 159              		.loc 1 697 0
 160 0012 0130     		adds	r0, r0, #1
 161              	.LVL20:
 162 0014 F7E7     		b	.L16
 163              	.L18:
 700:C:/Users/lenovo/Desktop/liteos/Project2/BearPi_LiteOS/components/connectivity/agent_tiny/atiny_lwm2m\object_access_control.c ****     }
 701:C:/Users/lenovo/Desktop/liteos/Project2/BearPi_LiteOS/components/connectivity/agent_tiny/atiny_lwm2m\object_access_control.c **** 
 702:C:/Users/lenovo/Desktop/liteos/Project2/BearPi_LiteOS/components/connectivity/agent_tiny/atiny_lwm2m\object_access_control.c ****     return cnt;
 703:C:/Users/lenovo/Desktop/liteos/Project2/BearPi_LiteOS/components/connectivity/agent_tiny/atiny_lwm2m\object_access_control.c **** }
 164              		.loc 1 703 0
 165 0016 7047     		bx	lr
 166              		.cfi_endproc
 167              	.LFE160:
 169              		.section	.text.prv_delete,"ax",%progbits
 170              		.align	1
 171              		.syntax unified
 172              		.thumb
 173              		.thumb_func
 174              		.fpu fpv4-sp-d16
 176              	prv_delete:
 177              	.LFB147:
 392:C:/Users/lenovo/Desktop/liteos/Project2/BearPi_LiteOS/components/connectivity/agent_tiny/atiny_lwm2m\object_access_control.c ****     acc_ctrl_oi_t *targetP;
 178              		.loc 1 392 0
 179              		.cfi_startproc
 180              		@ args = 0, pretend = 0, frame = 8
 181              		@ frame_needed = 0, uses_anonymous_args = 0
 182              	.LVL21:
 183 0000 10B5     		push	{r4, lr}
 184              	.LCFI0:
 185              		.cfi_def_cfa_offset 8
 186              		.cfi_offset 4, -8
 187              		.cfi_offset 14, -4
 188 0002 82B0     		sub	sp, sp, #8
 189              	.LCFI1:
 190              		.cfi_def_cfa_offset 16
 191 0004 0C46     		mov	r4, r1
 395:C:/Users/lenovo/Desktop/liteos/Project2/BearPi_LiteOS/components/connectivity/agent_tiny/atiny_lwm2m\object_access_control.c ****                             (lwm2m_list_t **)&targetP);
 192              		.loc 1 395 0
 193 0006 01AA     		add	r2, sp, #4
 194 0008 0146     		mov	r1, r0
 195              	.LVL22:
 196 000a A068     		ldr	r0, [r4, #8]
 197              	.LVL23:
 198 000c FFF7FEFF 		bl	lwm2m_list_remove
 199              	.LVL24:
 200 0010 A060     		str	r0, [r4, #8]
 397:C:/Users/lenovo/Desktop/liteos/Project2/BearPi_LiteOS/components/connectivity/agent_tiny/atiny_lwm2m\object_access_control.c **** 
 201              		.loc 1 397 0
 202 0012 019B     		ldr	r3, [sp, #4]
 203 0014 43B1     		cbz	r3, .L21
 399:C:/Users/lenovo/Desktop/liteos/Project2/BearPi_LiteOS/components/connectivity/agent_tiny/atiny_lwm2m\object_access_control.c ****     lwm2m_free(targetP);
 204              		.loc 1 399 0
ARM GAS  c:\Users\lenovo\AppData\Local\Temp\ccp6MF8M.s 			page 17


 205 0016 D868     		ldr	r0, [r3, #12]
 206 0018 FFF7FEFF 		bl	lwm2m_list_free
 207              	.LVL25:
 400:C:/Users/lenovo/Desktop/liteos/Project2/BearPi_LiteOS/components/connectivity/agent_tiny/atiny_lwm2m\object_access_control.c **** 
 208              		.loc 1 400 0
 209 001c 0198     		ldr	r0, [sp, #4]
 210 001e FFF7FEFF 		bl	lwm2m_free
 211              	.LVL26:
 402:C:/Users/lenovo/Desktop/liteos/Project2/BearPi_LiteOS/components/connectivity/agent_tiny/atiny_lwm2m\object_access_control.c **** }
 212              		.loc 1 402 0
 213 0022 4220     		movs	r0, #66
 214              	.L20:
 403:C:/Users/lenovo/Desktop/liteos/Project2/BearPi_LiteOS/components/connectivity/agent_tiny/atiny_lwm2m\object_access_control.c **** 
 215              		.loc 1 403 0
 216 0024 02B0     		add	sp, sp, #8
 217              	.LCFI2:
 218              		.cfi_remember_state
 219              		.cfi_def_cfa_offset 8
 220              		@ sp needed
 221 0026 10BD     		pop	{r4, pc}
 222              	.LVL27:
 223              	.L21:
 224              	.LCFI3:
 225              		.cfi_restore_state
 397:C:/Users/lenovo/Desktop/liteos/Project2/BearPi_LiteOS/components/connectivity/agent_tiny/atiny_lwm2m\object_access_control.c **** 
 226              		.loc 1 397 0
 227 0028 8420     		movs	r0, #132
 228 002a FBE7     		b	.L20
 229              		.cfi_endproc
 230              	.LFE147:
 232              		.section	.text.prv_add_ac_val,"ax",%progbits
 233              		.align	1
 234              		.syntax unified
 235              		.thumb
 236              		.thumb_func
 237              		.fpu fpv4-sp-d16
 239              	prv_add_ac_val:
 240              	.LFB144:
 204:C:/Users/lenovo/Desktop/liteos/Project2/BearPi_LiteOS/components/connectivity/agent_tiny/atiny_lwm2m\object_access_control.c ****     bool ret = false;
 241              		.loc 1 204 0
 242              		.cfi_startproc
 243              		@ args = 0, pretend = 0, frame = 0
 244              		@ frame_needed = 0, uses_anonymous_args = 0
 245              	.LVL28:
 246 0000 70B5     		push	{r4, r5, r6, lr}
 247              	.LCFI4:
 248              		.cfi_def_cfa_offset 16
 249              		.cfi_offset 4, -16
 250              		.cfi_offset 5, -12
 251              		.cfi_offset 6, -8
 252              		.cfi_offset 14, -4
 253 0002 0446     		mov	r4, r0
 254 0004 0E46     		mov	r6, r1
 255 0006 1546     		mov	r5, r2
 256              	.LVL29:
 207:C:/Users/lenovo/Desktop/liteos/Project2/BearPi_LiteOS/components/connectivity/agent_tiny/atiny_lwm2m\object_access_control.c ****     if (accCtrlRiP == NULL)
 257              		.loc 1 207 0
ARM GAS  c:\Users\lenovo\AppData\Local\Temp\ccp6MF8M.s 			page 18


 258 0008 0820     		movs	r0, #8
 259              	.LVL30:
 260 000a FFF7FEFF 		bl	lwm2m_malloc
 261              	.LVL31:
 208:C:/Users/lenovo/Desktop/liteos/Project2/BearPi_LiteOS/components/connectivity/agent_tiny/atiny_lwm2m\object_access_control.c ****     {
 262              		.loc 1 208 0
 263 000e 50B1     		cbz	r0, .L25
 264 0010 0146     		mov	r1, r0
 214:C:/Users/lenovo/Desktop/liteos/Project2/BearPi_LiteOS/components/connectivity/agent_tiny/atiny_lwm2m\object_access_control.c ****         accCtrlRiP->resInstId      = acResId;
 265              		.loc 1 214 0
 266 0012 0023     		movs	r3, #0
 267 0014 0360     		str	r3, [r0]	@ unaligned
 215:C:/Users/lenovo/Desktop/liteos/Project2/BearPi_LiteOS/components/connectivity/agent_tiny/atiny_lwm2m\object_access_control.c ****         accCtrlRiP->accCtrlValue   = acValue;
 268              		.loc 1 215 0
 269 0016 8680     		strh	r6, [r0, #4]	@ movhi
 216:C:/Users/lenovo/Desktop/liteos/Project2/BearPi_LiteOS/components/connectivity/agent_tiny/atiny_lwm2m\object_access_control.c **** 
 270              		.loc 1 216 0
 271 0018 C580     		strh	r5, [r0, #6]	@ movhi
 219:C:/Users/lenovo/Desktop/liteos/Project2/BearPi_LiteOS/components/connectivity/agent_tiny/atiny_lwm2m\object_access_control.c ****         ret = true;
 272              		.loc 1 219 0
 273 001a E068     		ldr	r0, [r4, #12]
 274              	.LVL32:
 275 001c FFF7FEFF 		bl	lwm2m_list_add
 276              	.LVL33:
 218:C:/Users/lenovo/Desktop/liteos/Project2/BearPi_LiteOS/components/connectivity/agent_tiny/atiny_lwm2m\object_access_control.c ****                                      LWM2M_LIST_ADD(accCtrlOiP->accCtrlValList, accCtrlRiP);
 277              		.loc 1 218 0
 278 0020 E060     		str	r0, [r4, #12]
 279              	.LVL34:
 222:C:/Users/lenovo/Desktop/liteos/Project2/BearPi_LiteOS/components/connectivity/agent_tiny/atiny_lwm2m\object_access_control.c **** }
 280              		.loc 1 222 0
 281 0022 0120     		movs	r0, #1
 282              	.LVL35:
 283              	.L24:
 223:C:/Users/lenovo/Desktop/liteos/Project2/BearPi_LiteOS/components/connectivity/agent_tiny/atiny_lwm2m\object_access_control.c **** 
 284              		.loc 1 223 0
 285 0024 70BD     		pop	{r4, r5, r6, pc}
 286              	.LVL36:
 287              	.L25:
 210:C:/Users/lenovo/Desktop/liteos/Project2/BearPi_LiteOS/components/connectivity/agent_tiny/atiny_lwm2m\object_access_control.c ****     }
 288              		.loc 1 210 0
 289 0026 0020     		movs	r0, #0
 290              	.LVL37:
 291 0028 FCE7     		b	.L24
 292              		.cfi_endproc
 293              	.LFE144:
 295              		.section	.text.prv_acc_self_auth_check,"ax",%progbits
 296              		.align	1
 297              		.syntax unified
 298              		.thumb
 299              		.thumb_func
 300              		.fpu fpv4-sp-d16
 302              	prv_acc_self_auth_check:
 303              	.LFB157:
 580:C:/Users/lenovo/Desktop/liteos/Project2/BearPi_LiteOS/components/connectivity/agent_tiny/atiny_lwm2m\object_access_control.c ****     acc_ctrl_oi_t *targetP;
 304              		.loc 1 580 0
 305              		.cfi_startproc
 306              		@ args = 0, pretend = 0, frame = 0
ARM GAS  c:\Users\lenovo\AppData\Local\Temp\ccp6MF8M.s 			page 19


 307              		@ frame_needed = 0, uses_anonymous_args = 0
 308              	.LVL38:
 309 0000 10B5     		push	{r4, lr}
 310              	.LCFI5:
 311              		.cfi_def_cfa_offset 8
 312              		.cfi_offset 4, -8
 313              		.cfi_offset 14, -4
 314 0002 1C46     		mov	r4, r3
 583:C:/Users/lenovo/Desktop/liteos/Project2/BearPi_LiteOS/components/connectivity/agent_tiny/atiny_lwm2m\object_access_control.c ****     {
 315              		.loc 1 583 0
 316 0004 0B78     		ldrb	r3, [r1]	@ zero_extendqisi2
 317              	.LVL39:
 318 0006 13F0020F 		tst	r3, #2
 319 000a 05D1     		bne	.L35
 320              	.LVL40:
 321              	.L28:
 598:C:/Users/lenovo/Desktop/liteos/Project2/BearPi_LiteOS/components/connectivity/agent_tiny/atiny_lwm2m\object_access_control.c ****         {
 322              		.loc 1 598 0
 323 000c 90B1     		cbz	r0, .L29
 600:C:/Users/lenovo/Desktop/liteos/Project2/BearPi_LiteOS/components/connectivity/agent_tiny/atiny_lwm2m\object_access_control.c ****             {
 324              		.loc 1 600 0
 325 000e 4389     		ldrh	r3, [r0, #10]
 326 0010 A342     		cmp	r3, r4
 327 0012 0ED1     		bne	.L33
 604:C:/Users/lenovo/Desktop/liteos/Project2/BearPi_LiteOS/components/connectivity/agent_tiny/atiny_lwm2m\object_access_control.c ****         }
 328              		.loc 1 604 0
 329 0014 0068     		ldr	r0, [r0]
 330              	.LVL41:
 331 0016 F9E7     		b	.L28
 332              	.LVL42:
 333              	.L35:
 585:C:/Users/lenovo/Desktop/liteos/Project2/BearPi_LiteOS/components/connectivity/agent_tiny/atiny_lwm2m\object_access_control.c ****         if (NULL != targetP && targetP->accCtrlOwner == serverId)
 334              		.loc 1 585 0
 335 0018 8988     		ldrh	r1, [r1, #4]
 336              	.LVL43:
 337 001a FFF7FEFF 		bl	lwm2m_list_find
 338              	.LVL44:
 586:C:/Users/lenovo/Desktop/liteos/Project2/BearPi_LiteOS/components/connectivity/agent_tiny/atiny_lwm2m\object_access_control.c ****         {
 339              		.loc 1 586 0
 340 001e 30B1     		cbz	r0, .L31
 586:C:/Users/lenovo/Desktop/liteos/Project2/BearPi_LiteOS/components/connectivity/agent_tiny/atiny_lwm2m\object_access_control.c ****         {
 341              		.loc 1 586 0 is_stmt 0 discriminator 1
 342 0020 4389     		ldrh	r3, [r0, #10]
 343 0022 A342     		cmp	r3, r4
 344 0024 01D1     		bne	.L36
 588:C:/Users/lenovo/Desktop/liteos/Project2/BearPi_LiteOS/components/connectivity/agent_tiny/atiny_lwm2m\object_access_control.c ****         }
 345              		.loc 1 588 0 is_stmt 1
 346 0026 0020     		movs	r0, #0
 347              	.LVL45:
 348 0028 04E0     		b	.L29
 349              	.LVL46:
 350              	.L36:
 592:C:/Users/lenovo/Desktop/liteos/Project2/BearPi_LiteOS/components/connectivity/agent_tiny/atiny_lwm2m\object_access_control.c ****         }
 351              		.loc 1 592 0
 352 002a 8120     		movs	r0, #129
 353              	.LVL47:
 354 002c 02E0     		b	.L29
ARM GAS  c:\Users\lenovo\AppData\Local\Temp\ccp6MF8M.s 			page 20


 355              	.LVL48:
 356              	.L31:
 357 002e 8120     		movs	r0, #129
 358              	.LVL49:
 359 0030 00E0     		b	.L29
 360              	.LVL50:
 361              	.L33:
 602:C:/Users/lenovo/Desktop/liteos/Project2/BearPi_LiteOS/components/connectivity/agent_tiny/atiny_lwm2m\object_access_control.c ****             }
 362              		.loc 1 602 0
 363 0032 8120     		movs	r0, #129
 364              	.LVL51:
 365              	.L29:
 608:C:/Users/lenovo/Desktop/liteos/Project2/BearPi_LiteOS/components/connectivity/agent_tiny/atiny_lwm2m\object_access_control.c **** 
 366              		.loc 1 608 0
 367 0034 10BD     		pop	{r4, pc}
 368              		.cfi_endproc
 369              	.LFE157:
 371              		.section	.text.prv_get_acl_instance,"ax",%progbits
 372              		.align	1
 373              		.syntax unified
 374              		.thumb
 375              		.thumb_func
 376              		.fpu fpv4-sp-d16
 378              	prv_get_acl_instance:
 379              	.LFB154:
 542:C:/Users/lenovo/Desktop/liteos/Project2/BearPi_LiteOS/components/connectivity/agent_tiny/atiny_lwm2m\object_access_control.c ****     acc_ctrl_ri_t *targetP;
 380              		.loc 1 542 0
 381              		.cfi_startproc
 382              		@ args = 0, pretend = 0, frame = 0
 383              		@ frame_needed = 0, uses_anonymous_args = 0
 384              	.LVL52:
 385 0000 10B5     		push	{r4, lr}
 386              	.LCFI6:
 387              		.cfi_def_cfa_offset 8
 388              		.cfi_offset 4, -8
 389              		.cfi_offset 14, -4
 390 0002 0446     		mov	r4, r0
 545:C:/Users/lenovo/Desktop/liteos/Project2/BearPi_LiteOS/components/connectivity/agent_tiny/atiny_lwm2m\object_access_control.c ****     if (NULL == targetP)
 391              		.loc 1 545 0
 392 0004 FFF7FEFF 		bl	lwm2m_list_find
 393              	.LVL53:
 546:C:/Users/lenovo/Desktop/liteos/Project2/BearPi_LiteOS/components/connectivity/agent_tiny/atiny_lwm2m\object_access_control.c ****     {
 394              		.loc 1 546 0
 395 0008 0346     		mov	r3, r0
 396 000a 08B1     		cbz	r0, .L40
 397              	.L37:
 552:C:/Users/lenovo/Desktop/liteos/Project2/BearPi_LiteOS/components/connectivity/agent_tiny/atiny_lwm2m\object_access_control.c **** 
 398              		.loc 1 552 0
 399 000c 1846     		mov	r0, r3
 400              	.LVL54:
 401 000e 10BD     		pop	{r4, pc}
 402              	.LVL55:
 403              	.L40:
 548:C:/Users/lenovo/Desktop/liteos/Project2/BearPi_LiteOS/components/connectivity/agent_tiny/atiny_lwm2m\object_access_control.c ****     }
 404              		.loc 1 548 0
 405 0010 0021     		movs	r1, #0
 406 0012 2046     		mov	r0, r4
ARM GAS  c:\Users\lenovo\AppData\Local\Temp\ccp6MF8M.s 			page 21


 407              	.LVL56:
 408 0014 FFF7FEFF 		bl	lwm2m_list_find
 409              	.LVL57:
 410 0018 0346     		mov	r3, r0
 411              	.LVL58:
 551:C:/Users/lenovo/Desktop/liteos/Project2/BearPi_LiteOS/components/connectivity/agent_tiny/atiny_lwm2m\object_access_control.c **** }
 412              		.loc 1 551 0
 413 001a F7E7     		b	.L37
 414              		.cfi_endproc
 415              	.LFE154:
 417              		.section	.text.prv_check_instance_auth,"ax",%progbits
 418              		.align	1
 419              		.syntax unified
 420              		.thumb
 421              		.thumb_func
 422              		.fpu fpv4-sp-d16
 424              	prv_check_instance_auth:
 425              	.LFB156:
 561:C:/Users/lenovo/Desktop/liteos/Project2/BearPi_LiteOS/components/connectivity/agent_tiny/atiny_lwm2m\object_access_control.c ****     acc_ctrl_oi_t *targetP;
 426              		.loc 1 561 0
 427              		.cfi_startproc
 428              		@ args = 4, pretend = 0, frame = 0
 429              		@ frame_needed = 0, uses_anonymous_args = 0
 430              	.LVL59:
 431 0000 38B5     		push	{r3, r4, r5, lr}
 432              	.LCFI7:
 433              		.cfi_def_cfa_offset 16
 434              		.cfi_offset 3, -16
 435              		.cfi_offset 4, -12
 436              		.cfi_offset 5, -8
 437              		.cfi_offset 14, -4
 438 0002 1C46     		mov	r4, r3
 565:C:/Users/lenovo/Desktop/liteos/Project2/BearPi_LiteOS/components/connectivity/agent_tiny/atiny_lwm2m\object_access_control.c ****     if (NULL == targetP)
 439              		.loc 1 565 0
 440 0004 FFF7FEFF 		bl	prv_get_acc_instance
 441              	.LVL60:
 566:C:/Users/lenovo/Desktop/liteos/Project2/BearPi_LiteOS/components/connectivity/agent_tiny/atiny_lwm2m\object_access_control.c ****     {
 442              		.loc 1 566 0
 443 0008 A8B1     		cbz	r0, .L44
 444 000a 0546     		mov	r5, r0
 570:C:/Users/lenovo/Desktop/liteos/Project2/BearPi_LiteOS/components/connectivity/agent_tiny/atiny_lwm2m\object_access_control.c ****     if (NULL == accCtrlRiP)
 445              		.loc 1 570 0
 446 000c 2146     		mov	r1, r4
 447 000e C068     		ldr	r0, [r0, #12]
 448              	.LVL61:
 449 0010 FFF7FEFF 		bl	prv_get_acl_instance
 450              	.LVL62:
 571:C:/Users/lenovo/Desktop/liteos/Project2/BearPi_LiteOS/components/connectivity/agent_tiny/atiny_lwm2m\object_access_control.c ****     {
 451              		.loc 1 571 0
 452 0014 48B1     		cbz	r0, .L46
 575:C:/Users/lenovo/Desktop/liteos/Project2/BearPi_LiteOS/components/connectivity/agent_tiny/atiny_lwm2m\object_access_control.c **** }
 453              		.loc 1 575 0
 454 0016 C288     		ldrh	r2, [r0, #6]
 455              	.LVL63:
 456              	.LBB4:
 457              	.LBB5:
 556:C:/Users/lenovo/Desktop/liteos/Project2/BearPi_LiteOS/components/connectivity/agent_tiny/atiny_lwm2m\object_access_control.c **** }
ARM GAS  c:\Users\lenovo\AppData\Local\Temp\ccp6MF8M.s 			page 22


 458              		.loc 1 556 0
 459 0018 9DF81010 		ldrb	r1, [sp, #16]	@ zero_extendqisi2
 460 001c 0123     		movs	r3, #1
 461 001e 8B40     		lsls	r3, r3, r1
 462 0020 1A42     		tst	r2, r3
 463 0022 14BF     		ite	ne
 464 0024 0120     		movne	r0, #1
 465              	.LVL64:
 466 0026 0020     		moveq	r0, #0
 467              	.LVL65:
 468              	.LBE5:
 469              	.LBE4:
 575:C:/Users/lenovo/Desktop/liteos/Project2/BearPi_LiteOS/components/connectivity/agent_tiny/atiny_lwm2m\object_access_control.c **** }
 470              		.loc 1 575 0
 471 0028 06E0     		b	.L42
 472              	.LVL66:
 473              	.L46:
 573:C:/Users/lenovo/Desktop/liteos/Project2/BearPi_LiteOS/components/connectivity/agent_tiny/atiny_lwm2m\object_access_control.c ****     }
 474              		.loc 1 573 0
 475 002a 6889     		ldrh	r0, [r5, #10]
 476              	.LVL67:
 477 002c A042     		cmp	r0, r4
 478 002e 14BF     		ite	ne
 479 0030 0020     		movne	r0, #0
 480 0032 0120     		moveq	r0, #1
 481 0034 00E0     		b	.L42
 482              	.LVL68:
 483              	.L44:
 568:C:/Users/lenovo/Desktop/liteos/Project2/BearPi_LiteOS/components/connectivity/agent_tiny/atiny_lwm2m\object_access_control.c ****     }
 484              		.loc 1 568 0
 485 0036 0020     		movs	r0, #0
 486              	.LVL69:
 487              	.L42:
 576:C:/Users/lenovo/Desktop/liteos/Project2/BearPi_LiteOS/components/connectivity/agent_tiny/atiny_lwm2m\object_access_control.c **** 
 488              		.loc 1 576 0
 489 0038 38BD     		pop	{r3, r4, r5, pc}
 490              		.cfi_endproc
 491              	.LFE156:
 493              		.section	.text.prv_pre_auth_check,"ax",%progbits
 494              		.align	1
 495              		.syntax unified
 496              		.thumb
 497              		.thumb_func
 498              		.fpu fpv4-sp-d16
 500              	prv_pre_auth_check:
 501              	.LFB158:
 612:C:/Users/lenovo/Desktop/liteos/Project2/BearPi_LiteOS/components/connectivity/agent_tiny/atiny_lwm2m\object_access_control.c ****     if (OBJ_ACC_CREATE == op)
 502              		.loc 1 612 0
 503              		.cfi_startproc
 504              		@ args = 0, pretend = 0, frame = 0
 505              		@ frame_needed = 0, uses_anonymous_args = 0
 506              	.LVL70:
 507 0000 30B5     		push	{r4, r5, lr}
 508              	.LCFI8:
 509              		.cfi_def_cfa_offset 12
 510              		.cfi_offset 4, -12
 511              		.cfi_offset 5, -8
ARM GAS  c:\Users\lenovo\AppData\Local\Temp\ccp6MF8M.s 			page 23


 512              		.cfi_offset 14, -4
 513 0002 83B0     		sub	sp, sp, #12
 514              	.LCFI9:
 515              		.cfi_def_cfa_offset 24
 613:C:/Users/lenovo/Desktop/liteos/Project2/BearPi_LiteOS/components/connectivity/agent_tiny/atiny_lwm2m\object_access_control.c ****     {
 516              		.loc 1 613 0
 517 0004 042A     		cmp	r2, #4
 518 0006 0BD0     		beq	.L56
 622:C:/Users/lenovo/Desktop/liteos/Project2/BearPi_LiteOS/components/connectivity/agent_tiny/atiny_lwm2m\object_access_control.c ****     {
 519              		.loc 1 622 0
 520 0008 052A     		cmp	r2, #5
 521 000a 22D0     		beq	.L52
 626:C:/Users/lenovo/Desktop/liteos/Project2/BearPi_LiteOS/components/connectivity/agent_tiny/atiny_lwm2m\object_access_control.c ****     {
 522              		.loc 1 626 0
 523 000c 4C88     		ldrh	r4, [r1, #2]
 524 000e 022C     		cmp	r4, #2
 525 0010 11D0     		beq	.L57
 632:C:/Users/lenovo/Desktop/liteos/Project2/BearPi_LiteOS/components/connectivity/agent_tiny/atiny_lwm2m\object_access_control.c ****         {
 526              		.loc 1 632 0
 527 0012 0D78     		ldrb	r5, [r1]	@ zero_extendqisi2
 528 0014 15F0020F 		tst	r5, #2
 529 0018 10D1     		bne	.L58
 641:C:/Users/lenovo/Desktop/liteos/Project2/BearPi_LiteOS/components/connectivity/agent_tiny/atiny_lwm2m\object_access_control.c **** }
 530              		.loc 1 641 0
 531 001a 0020     		movs	r0, #0
 532              	.LVL71:
 533              	.L49:
 642:C:/Users/lenovo/Desktop/liteos/Project2/BearPi_LiteOS/components/connectivity/agent_tiny/atiny_lwm2m\object_access_control.c **** 
 534              		.loc 1 642 0
 535 001c 03B0     		add	sp, sp, #12
 536              	.LCFI10:
 537              		.cfi_remember_state
 538              		.cfi_def_cfa_offset 12
 539              		@ sp needed
 540 001e 30BD     		pop	{r4, r5, pc}
 541              	.LVL72:
 542              	.L56:
 543              	.LCFI11:
 544              		.cfi_restore_state
 615:C:/Users/lenovo/Desktop/liteos/Project2/BearPi_LiteOS/components/connectivity/agent_tiny/atiny_lwm2m\object_access_control.c ****         {
 545              		.loc 1 615 0
 546 0020 4988     		ldrh	r1, [r1, #2]
 547              	.LVL73:
 548 0022 0092     		str	r2, [sp]
 549 0024 4FF6FF72 		movw	r2, #65535
 550              	.LVL74:
 551 0028 FFF7FEFF 		bl	prv_check_instance_auth
 552              	.LVL75:
 553 002c 08B1     		cbz	r0, .L59
 620:C:/Users/lenovo/Desktop/liteos/Project2/BearPi_LiteOS/components/connectivity/agent_tiny/atiny_lwm2m\object_access_control.c ****     }
 554              		.loc 1 620 0
 555 002e 0020     		movs	r0, #0
 556 0030 F4E7     		b	.L49
 557              	.L59:
 617:C:/Users/lenovo/Desktop/liteos/Project2/BearPi_LiteOS/components/connectivity/agent_tiny/atiny_lwm2m\object_access_control.c ****         }
 558              		.loc 1 617 0
 559 0032 8120     		movs	r0, #129
ARM GAS  c:\Users\lenovo\AppData\Local\Temp\ccp6MF8M.s 			page 24


 560 0034 F2E7     		b	.L49
 561              	.LVL76:
 562              	.L57:
 628:C:/Users/lenovo/Desktop/liteos/Project2/BearPi_LiteOS/components/connectivity/agent_tiny/atiny_lwm2m\object_access_control.c ****     }
 563              		.loc 1 628 0
 564 0036 FFF7FEFF 		bl	prv_acc_self_auth_check
 565              	.LVL77:
 566 003a EFE7     		b	.L49
 567              	.LVL78:
 568              	.L58:
 634:C:/Users/lenovo/Desktop/liteos/Project2/BearPi_LiteOS/components/connectivity/agent_tiny/atiny_lwm2m\object_access_control.c ****             {
 569              		.loc 1 634 0
 570 003c 8988     		ldrh	r1, [r1, #4]
 571              	.LVL79:
 572 003e 0092     		str	r2, [sp]
 573 0040 0A46     		mov	r2, r1
 574              	.LVL80:
 575 0042 2146     		mov	r1, r4
 576 0044 FFF7FEFF 		bl	prv_check_instance_auth
 577              	.LVL81:
 578 0048 08B1     		cbz	r0, .L60
 641:C:/Users/lenovo/Desktop/liteos/Project2/BearPi_LiteOS/components/connectivity/agent_tiny/atiny_lwm2m\object_access_control.c **** }
 579              		.loc 1 641 0
 580 004a 0020     		movs	r0, #0
 581 004c E6E7     		b	.L49
 582              	.L60:
 636:C:/Users/lenovo/Desktop/liteos/Project2/BearPi_LiteOS/components/connectivity/agent_tiny/atiny_lwm2m\object_access_control.c ****             }
 583              		.loc 1 636 0
 584 004e 8120     		movs	r0, #129
 585 0050 E4E7     		b	.L49
 586              	.LVL82:
 587              	.L52:
 624:C:/Users/lenovo/Desktop/liteos/Project2/BearPi_LiteOS/components/connectivity/agent_tiny/atiny_lwm2m\object_access_control.c ****     }
 588              		.loc 1 624 0
 589 0052 0020     		movs	r0, #0
 590              	.LVL83:
 591 0054 E2E7     		b	.L49
 592              		.cfi_endproc
 593              	.LFE158:
 595              		.section	.text.prv_write_resources,"ax",%progbits
 596              		.align	1
 597              		.syntax unified
 598              		.thumb
 599              		.thumb_func
 600              		.fpu fpv4-sp-d16
 602              	prv_write_resources:
 603              	.LFB145:
 227:C:/Users/lenovo/Desktop/liteos/Project2/BearPi_LiteOS/components/connectivity/agent_tiny/atiny_lwm2m\object_access_control.c ****     int i;
 604              		.loc 1 227 0
 605              		.cfi_startproc
 606              		@ args = 4, pretend = 0, frame = 16
 607              		@ frame_needed = 0, uses_anonymous_args = 0
 608              	.LVL84:
 609 0000 2DE9F04F 		push	{r4, r5, r6, r7, r8, r9, r10, fp, lr}
 610              	.LCFI12:
 611              		.cfi_def_cfa_offset 36
 612              		.cfi_offset 4, -36
ARM GAS  c:\Users\lenovo\AppData\Local\Temp\ccp6MF8M.s 			page 25


 613              		.cfi_offset 5, -32
 614              		.cfi_offset 6, -28
 615              		.cfi_offset 7, -24
 616              		.cfi_offset 8, -20
 617              		.cfi_offset 9, -16
 618              		.cfi_offset 10, -12
 619              		.cfi_offset 11, -8
 620              		.cfi_offset 14, -4
 621 0004 85B0     		sub	sp, sp, #20
 622              	.LCFI13:
 623              		.cfi_def_cfa_offset 56
 624 0006 8846     		mov	r8, r1
 625 0008 1546     		mov	r5, r2
 626 000a 9DF83890 		ldrb	r9, [sp, #56]	@ zero_extendqisi2
 627              	.LVL85:
 234:C:/Users/lenovo/Desktop/liteos/Project2/BearPi_LiteOS/components/connectivity/agent_tiny/atiny_lwm2m\object_access_control.c ****                                 lwm2m_list_find(objectP->instanceList, instanceId);
 628              		.loc 1 234 0
 629 000e 0146     		mov	r1, r0
 630              	.LVL86:
 631 0010 9868     		ldr	r0, [r3, #8]
 632              	.LVL87:
 633 0012 FFF7FEFF 		bl	lwm2m_list_find
 634              	.LVL88:
 236:C:/Users/lenovo/Desktop/liteos/Project2/BearPi_LiteOS/components/connectivity/agent_tiny/atiny_lwm2m\object_access_control.c ****         return COAP_404_NOT_FOUND ;
 635              		.loc 1 236 0
 636 0016 0028     		cmp	r0, #0
 637 0018 00F0AF80 		beq	.L75
 638 001c 8346     		mov	fp, r0
 229:C:/Users/lenovo/Desktop/liteos/Project2/BearPi_LiteOS/components/connectivity/agent_tiny/atiny_lwm2m\object_access_control.c ****     int64_t value;
 639              		.loc 1 229 0
 640 001e 0026     		movs	r6, #0
 239:C:/Users/lenovo/Desktop/liteos/Project2/BearPi_LiteOS/components/connectivity/agent_tiny/atiny_lwm2m\object_access_control.c ****     do
 641              		.loc 1 239 0
 642 0020 3446     		mov	r4, r6
 643 0022 0AE0     		b	.L74
 644              	.LVL89:
 645              	.L63:
 245:C:/Users/lenovo/Desktop/liteos/Project2/BearPi_LiteOS/components/connectivity/agent_tiny/atiny_lwm2m\object_access_control.c ****             {
 646              		.loc 1 245 0
 647 0024 B9F1000F 		cmp	r9, #0
 648 0028 18D1     		bne	.L92
 247:C:/Users/lenovo/Desktop/liteos/Project2/BearPi_LiteOS/components/connectivity/agent_tiny/atiny_lwm2m\object_access_control.c ****             }
 649              		.loc 1 247 0
 650 002a 8526     		movs	r6, #133
 651              	.LVL90:
 652              	.L68:
 378:C:/Users/lenovo/Desktop/liteos/Project2/BearPi_LiteOS/components/connectivity/agent_tiny/atiny_lwm2m\object_access_control.c ****     }
 653              		.loc 1 378 0
 654 002c 0134     		adds	r4, r4, #1
 655              	.LVL91:
 380:C:/Users/lenovo/Desktop/liteos/Project2/BearPi_LiteOS/components/connectivity/agent_tiny/atiny_lwm2m\object_access_control.c **** 
 656              		.loc 1 380 0
 657 002e 4445     		cmp	r4, r8
 658 0030 80F2A480 		bge	.L62
 380:C:/Users/lenovo/Desktop/liteos/Project2/BearPi_LiteOS/components/connectivity/agent_tiny/atiny_lwm2m\object_access_control.c **** 
 659              		.loc 1 380 0 is_stmt 0 discriminator 1
 660 0034 442E     		cmp	r6, #68
ARM GAS  c:\Users\lenovo\AppData\Local\Temp\ccp6MF8M.s 			page 26


 661 0036 40F0A180 		bne	.L62
 662              	.LVL92:
 663              	.L74:
 242:C:/Users/lenovo/Desktop/liteos/Project2/BearPi_LiteOS/components/connectivity/agent_tiny/atiny_lwm2m\object_access_control.c ****         {
 664              		.loc 1 242 0 is_stmt 1
 665 003a 2201     		lsls	r2, r4, #4
 666 003c AF18     		adds	r7, r5, r2
 667 003e 7B88     		ldrh	r3, [r7, #2]
 668 0040 032B     		cmp	r3, #3
 669 0042 00F29F80 		bhi	.L76
 670 0046 01A1     		adr	r1, .L64
 671 0048 51F823F0 		ldr	pc, [r1, r3, lsl #2]
 672              		.p2align 2
 673              	.L64:
 674 004c 25000000 		.word	.L63+1
 675 0050 8F000000 		.word	.L65+1
 676 0054 BF000000 		.word	.L66+1
 677 0058 49010000 		.word	.L67+1
 678              		.p2align 1
 679              	.L92:
 251:C:/Users/lenovo/Desktop/liteos/Project2/BearPi_LiteOS/components/connectivity/agent_tiny/atiny_lwm2m\object_access_control.c ****                 {
 680              		.loc 1 251 0
 681 005c 02A9     		add	r1, sp, #8
 682 005e 3846     		mov	r0, r7
 683 0060 FFF7FEFF 		bl	lwm2m_data_decode_int
 684              	.LVL93:
 685 0064 0128     		cmp	r0, #1
 686 0066 01D0     		beq	.L93
 253:C:/Users/lenovo/Desktop/liteos/Project2/BearPi_LiteOS/components/connectivity/agent_tiny/atiny_lwm2m\object_access_control.c ****                 }
 687              		.loc 1 253 0
 688 0068 8026     		movs	r6, #128
 689              	.LVL94:
 690 006a DFE7     		b	.L68
 691              	.LVL95:
 692              	.L93:
 255:C:/Users/lenovo/Desktop/liteos/Project2/BearPi_LiteOS/components/connectivity/agent_tiny/atiny_lwm2m\object_access_control.c ****                 {
 693              		.loc 1 255 0
 694 006c DDE90223 		ldrd	r2, [sp, #8]
 695 0070 12F1FF30 		adds	r0, r2, #-1
 696 0074 43F1FF31 		adc	r1, r3, #-1
 697 0078 4FF6FD76 		movw	r6, #65533
 698              	.LVL96:
 699 007c 0027     		movs	r7, #0
 700 007e 8F42     		cmp	r7, r1
 701 0080 08BF     		it	eq
 702 0082 8642     		cmpeq	r6, r0
 703 0084 73D3     		bcc	.L79
 261:C:/Users/lenovo/Desktop/liteos/Project2/BearPi_LiteOS/components/connectivity/agent_tiny/atiny_lwm2m\object_access_control.c ****                     result = COAP_204_CHANGED;
 704              		.loc 1 261 0
 705 0086 ABF80620 		strh	r2, [fp, #6]	@ movhi
 706              	.LVL97:
 262:C:/Users/lenovo/Desktop/liteos/Project2/BearPi_LiteOS/components/connectivity/agent_tiny/atiny_lwm2m\object_access_control.c ****                 }
 707              		.loc 1 262 0
 708 008a 4426     		movs	r6, #68
 709 008c CEE7     		b	.L68
 710              	.LVL98:
 711              	.L65:
ARM GAS  c:\Users\lenovo\AppData\Local\Temp\ccp6MF8M.s 			page 27


 267:C:/Users/lenovo/Desktop/liteos/Project2/BearPi_LiteOS/components/connectivity/agent_tiny/atiny_lwm2m\object_access_control.c ****             {
 712              		.loc 1 267 0
 713 008e B9F1000F 		cmp	r9, #0
 714 0092 01D1     		bne	.L94
 269:C:/Users/lenovo/Desktop/liteos/Project2/BearPi_LiteOS/components/connectivity/agent_tiny/atiny_lwm2m\object_access_control.c ****             }
 715              		.loc 1 269 0
 716 0094 8526     		movs	r6, #133
 717              	.LVL99:
 718 0096 C9E7     		b	.L68
 719              	.LVL100:
 720              	.L94:
 273:C:/Users/lenovo/Desktop/liteos/Project2/BearPi_LiteOS/components/connectivity/agent_tiny/atiny_lwm2m\object_access_control.c ****                 {
 721              		.loc 1 273 0
 722 0098 02A9     		add	r1, sp, #8
 723 009a 3846     		mov	r0, r7
 724 009c FFF7FEFF 		bl	lwm2m_data_decode_int
 725              	.LVL101:
 726 00a0 0128     		cmp	r0, #1
 727 00a2 01D0     		beq	.L95
 275:C:/Users/lenovo/Desktop/liteos/Project2/BearPi_LiteOS/components/connectivity/agent_tiny/atiny_lwm2m\object_access_control.c ****                 }
 728              		.loc 1 275 0
 729 00a4 8026     		movs	r6, #128
 730              	.LVL102:
 731 00a6 C1E7     		b	.L68
 732              	.LVL103:
 733              	.L95:
 277:C:/Users/lenovo/Desktop/liteos/Project2/BearPi_LiteOS/components/connectivity/agent_tiny/atiny_lwm2m\object_access_control.c ****                 {
 734              		.loc 1 277 0
 735 00a8 0299     		ldr	r1, [sp, #8]
 736 00aa 039B     		ldr	r3, [sp, #12]
 737 00ac 002B     		cmp	r3, #0
 738 00ae 08BF     		it	eq
 739 00b0 B1F5803F 		cmpeq	r1, #65536
 740 00b4 5DD2     		bcs	.L82
 283:C:/Users/lenovo/Desktop/liteos/Project2/BearPi_LiteOS/components/connectivity/agent_tiny/atiny_lwm2m\object_access_control.c ****                     result = COAP_204_CHANGED;
 741              		.loc 1 283 0
 742 00b6 ABF80810 		strh	r1, [fp, #8]	@ movhi
 743              	.LVL104:
 284:C:/Users/lenovo/Desktop/liteos/Project2/BearPi_LiteOS/components/connectivity/agent_tiny/atiny_lwm2m\object_access_control.c ****                 }
 744              		.loc 1 284 0
 745 00ba 4426     		movs	r6, #68
 746 00bc B6E7     		b	.L68
 747              	.LVL105:
 748              	.L66:
 290:C:/Users/lenovo/Desktop/liteos/Project2/BearPi_LiteOS/components/connectivity/agent_tiny/atiny_lwm2m\object_access_control.c ****             {
 749              		.loc 1 290 0
 750 00be AB5C     		ldrb	r3, [r5, r2]	@ zero_extendqisi2
 751 00c0 032B     		cmp	r3, #3
 752 00c2 01D0     		beq	.L96
 292:C:/Users/lenovo/Desktop/liteos/Project2/BearPi_LiteOS/components/connectivity/agent_tiny/atiny_lwm2m\object_access_control.c ****             }
 753              		.loc 1 292 0
 754 00c4 8026     		movs	r6, #128
 755              	.LVL106:
 756 00c6 B1E7     		b	.L68
 757              	.LVL107:
 758              	.L96:
 759              	.LBB6:
ARM GAS  c:\Users\lenovo\AppData\Local\Temp\ccp6MF8M.s 			page 28


 300:C:/Users/lenovo/Desktop/liteos/Project2/BearPi_LiteOS/components/connectivity/agent_tiny/atiny_lwm2m\object_access_control.c ****                 accCtrlOiP->accCtrlValList = NULL;
 760              		.loc 1 300 0
 761 00c8 DBF80C30 		ldr	r3, [fp, #12]
 762 00cc 0193     		str	r3, [sp, #4]
 763              	.LVL108:
 301:C:/Users/lenovo/Desktop/liteos/Project2/BearPi_LiteOS/components/connectivity/agent_tiny/atiny_lwm2m\object_access_control.c **** 
 764              		.loc 1 301 0
 765 00ce 0023     		movs	r3, #0
 766              	.LVL109:
 767 00d0 CBF80C30 		str	r3, [fp, #12]
 768              	.LVL110:
 303:C:/Users/lenovo/Desktop/liteos/Project2/BearPi_LiteOS/components/connectivity/agent_tiny/atiny_lwm2m\object_access_control.c **** 
 769              		.loc 1 303 0
 770 00d4 FA68     		ldr	r2, [r7, #12]
 771 00d6 0092     		str	r2, [sp]
 772              	.LVL111:
 305:C:/Users/lenovo/Desktop/liteos/Project2/BearPi_LiteOS/components/connectivity/agent_tiny/atiny_lwm2m\object_access_control.c ****                 {
 773              		.loc 1 305 0
 774 00d8 BB68     		ldr	r3, [r7, #8]
 775 00da 83B3     		cbz	r3, .L84
 309:C:/Users/lenovo/Desktop/liteos/Project2/BearPi_LiteOS/components/connectivity/agent_tiny/atiny_lwm2m\object_access_control.c ****                 {
 776              		.loc 1 309 0
 777 00dc 6AB3     		cbz	r2, .L85
 315:C:/Users/lenovo/Desktop/liteos/Project2/BearPi_LiteOS/components/connectivity/agent_tiny/atiny_lwm2m\object_access_control.c ****                     {
 778              		.loc 1 315 0
 779 00de 4FF0000A 		mov	r10, #0
 780              	.LVL112:
 781              	.L71:
 315:C:/Users/lenovo/Desktop/liteos/Project2/BearPi_LiteOS/components/connectivity/agent_tiny/atiny_lwm2m\object_access_control.c ****                     {
 782              		.loc 1 315 0 is_stmt 0 discriminator 1
 783 00e2 BB68     		ldr	r3, [r7, #8]
 784 00e4 5345     		cmp	r3, r10
 785 00e6 1AD9     		bls	.L72
 317:C:/Users/lenovo/Desktop/liteos/Project2/BearPi_LiteOS/components/connectivity/agent_tiny/atiny_lwm2m\object_access_control.c ****                         {
 786              		.loc 1 317 0 is_stmt 1
 787 00e8 009B     		ldr	r3, [sp]
 788 00ea 03EB0A16 		add	r6, r3, r10, lsl #4
 789              	.LVL113:
 790 00ee 02A9     		add	r1, sp, #8
 791 00f0 3046     		mov	r0, r6
 792 00f2 FFF7FEFF 		bl	lwm2m_data_decode_int
 793              	.LVL114:
 794 00f6 0128     		cmp	r0, #1
 795 00f8 10D1     		bne	.L86
 322:C:/Users/lenovo/Desktop/liteos/Project2/BearPi_LiteOS/components/connectivity/agent_tiny/atiny_lwm2m\object_access_control.c ****                         {
 796              		.loc 1 322 0
 797 00fa 029A     		ldr	r2, [sp, #8]
 798 00fc 0399     		ldr	r1, [sp, #12]
 799 00fe 0029     		cmp	r1, #0
 800 0100 08BF     		it	eq
 801 0102 B2F5803F 		cmpeq	r2, #65536
 802 0106 14D2     		bcs	.L87
 327:C:/Users/lenovo/Desktop/liteos/Project2/BearPi_LiteOS/components/connectivity/agent_tiny/atiny_lwm2m\object_access_control.c ****                                                  (uint16_t)value))
 803              		.loc 1 327 0
 804 0108 92B2     		uxth	r2, r2
 805 010a 7188     		ldrh	r1, [r6, #2]
 806 010c 5846     		mov	r0, fp
ARM GAS  c:\Users\lenovo\AppData\Local\Temp\ccp6MF8M.s 			page 29


 807 010e FFF7FEFF 		bl	prv_add_ac_val
 808              	.LVL115:
 809 0112 80B1     		cbz	r0, .L88
 810              	.LVL116:
 315:C:/Users/lenovo/Desktop/liteos/Project2/BearPi_LiteOS/components/connectivity/agent_tiny/atiny_lwm2m\object_access_control.c ****                     {
 811              		.loc 1 315 0 discriminator 2
 812 0114 0AF1010A 		add	r10, r10, #1
 813              	.LVL117:
 335:C:/Users/lenovo/Desktop/liteos/Project2/BearPi_LiteOS/components/connectivity/agent_tiny/atiny_lwm2m\object_access_control.c ****                         }
 814              		.loc 1 335 0 discriminator 2
 815 0118 4426     		movs	r6, #68
 816 011a E2E7     		b	.L71
 817              	.LVL118:
 818              	.L86:
 319:C:/Users/lenovo/Desktop/liteos/Project2/BearPi_LiteOS/components/connectivity/agent_tiny/atiny_lwm2m\object_access_control.c ****                             break;
 819              		.loc 1 319 0
 820 011c 8026     		movs	r6, #128
 821              	.L72:
 822              	.LVL119:
 340:C:/Users/lenovo/Desktop/liteos/Project2/BearPi_LiteOS/components/connectivity/agent_tiny/atiny_lwm2m\object_access_control.c ****                 {
 823              		.loc 1 340 0
 824 011e 442E     		cmp	r6, #68
 825 0120 0ED0     		beq	.L69
 826              	.LVL120:
 827              	.L70:
 343:C:/Users/lenovo/Desktop/liteos/Project2/BearPi_LiteOS/components/connectivity/agent_tiny/atiny_lwm2m\object_access_control.c ****                     // restore old values:
 828              		.loc 1 343 0
 829 0122 DBF80C00 		ldr	r0, [fp, #12]
 830 0126 FFF7FEFF 		bl	lwm2m_list_free
 831              	.LVL121:
 345:C:/Users/lenovo/Desktop/liteos/Project2/BearPi_LiteOS/components/connectivity/agent_tiny/atiny_lwm2m\object_access_control.c ****                 }
 832              		.loc 1 345 0
 833 012a 019B     		ldr	r3, [sp, #4]
 834 012c CBF80C30 		str	r3, [fp, #12]
 835 0130 7CE7     		b	.L68
 836              	.LVL122:
 837              	.L87:
 324:C:/Users/lenovo/Desktop/liteos/Project2/BearPi_LiteOS/components/connectivity/agent_tiny/atiny_lwm2m\object_access_control.c ****                             break;
 838              		.loc 1 324 0
 839 0132 8626     		movs	r6, #134
 840 0134 F3E7     		b	.L72
 841              	.L88:
 330:C:/Users/lenovo/Desktop/liteos/Project2/BearPi_LiteOS/components/connectivity/agent_tiny/atiny_lwm2m\object_access_control.c ****                             break;
 842              		.loc 1 330 0
 843 0136 A026     		movs	r6, #160
 844 0138 F1E7     		b	.L72
 845              	.LVL123:
 846              	.L85:
 311:C:/Users/lenovo/Desktop/liteos/Project2/BearPi_LiteOS/components/connectivity/agent_tiny/atiny_lwm2m\object_access_control.c ****                 }
 847              		.loc 1 311 0
 848 013a 8026     		movs	r6, #128
 849              	.LVL124:
 850 013c F1E7     		b	.L70
 851              	.LVL125:
 852              	.L84:
 307:C:/Users/lenovo/Desktop/liteos/Project2/BearPi_LiteOS/components/connectivity/agent_tiny/atiny_lwm2m\object_access_control.c ****                 }
 853              		.loc 1 307 0
ARM GAS  c:\Users\lenovo\AppData\Local\Temp\ccp6MF8M.s 			page 30


 854 013e 4426     		movs	r6, #68
 855              	.LVL126:
 856              	.L69:
 350:C:/Users/lenovo/Desktop/liteos/Project2/BearPi_LiteOS/components/connectivity/agent_tiny/atiny_lwm2m\object_access_control.c ****                 }
 857              		.loc 1 350 0
 858 0140 0198     		ldr	r0, [sp, #4]
 859 0142 FFF7FEFF 		bl	lwm2m_list_free
 860              	.LVL127:
 861 0146 71E7     		b	.L68
 862              	.LVL128:
 863              	.L67:
 864              	.LBE6:
 357:C:/Users/lenovo/Desktop/liteos/Project2/BearPi_LiteOS/components/connectivity/agent_tiny/atiny_lwm2m\object_access_control.c ****             {
 865              		.loc 1 357 0
 866 0148 02A9     		add	r1, sp, #8
 867 014a 3846     		mov	r0, r7
 868 014c FFF7FEFF 		bl	lwm2m_data_decode_int
 869              	.LVL129:
 870 0150 0128     		cmp	r0, #1
 871 0152 01D0     		beq	.L97
 371:C:/Users/lenovo/Desktop/liteos/Project2/BearPi_LiteOS/components/connectivity/agent_tiny/atiny_lwm2m\object_access_control.c ****             }
 872              		.loc 1 371 0
 873 0154 8026     		movs	r6, #128
 874              	.LVL130:
 875 0156 69E7     		b	.L68
 876              	.LVL131:
 877              	.L97:
 359:C:/Users/lenovo/Desktop/liteos/Project2/BearPi_LiteOS/components/connectivity/agent_tiny/atiny_lwm2m\object_access_control.c ****                 {
 878              		.loc 1 359 0
 879 0158 0299     		ldr	r1, [sp, #8]
 880 015a 039B     		ldr	r3, [sp, #12]
 881 015c 002B     		cmp	r3, #0
 882 015e 08BF     		it	eq
 883 0160 B1F5803F 		cmpeq	r1, #65536
 884 0164 07D2     		bcs	.L90
 361:C:/Users/lenovo/Desktop/liteos/Project2/BearPi_LiteOS/components/connectivity/agent_tiny/atiny_lwm2m\object_access_control.c ****                     result = COAP_204_CHANGED;
 885              		.loc 1 361 0
 886 0166 ABF80A10 		strh	r1, [fp, #10]	@ movhi
 887              	.LVL132:
 362:C:/Users/lenovo/Desktop/liteos/Project2/BearPi_LiteOS/components/connectivity/agent_tiny/atiny_lwm2m\object_access_control.c ****                 }
 888              		.loc 1 362 0
 889 016a 4426     		movs	r6, #68
 890 016c 5EE7     		b	.L68
 891              	.LVL133:
 892              	.L79:
 257:C:/Users/lenovo/Desktop/liteos/Project2/BearPi_LiteOS/components/connectivity/agent_tiny/atiny_lwm2m\object_access_control.c ****                 }
 893              		.loc 1 257 0
 894 016e 8626     		movs	r6, #134
 895 0170 5CE7     		b	.L68
 896              	.LVL134:
 897              	.L82:
 279:C:/Users/lenovo/Desktop/liteos/Project2/BearPi_LiteOS/components/connectivity/agent_tiny/atiny_lwm2m\object_access_control.c ****                 }
 898              		.loc 1 279 0
 899 0172 8626     		movs	r6, #134
 900              	.LVL135:
 901 0174 5AE7     		b	.L68
 902              	.LVL136:
ARM GAS  c:\Users\lenovo\AppData\Local\Temp\ccp6MF8M.s 			page 31


 903              	.L90:
 366:C:/Users/lenovo/Desktop/liteos/Project2/BearPi_LiteOS/components/connectivity/agent_tiny/atiny_lwm2m\object_access_control.c ****                 }
 904              		.loc 1 366 0
 905 0176 8626     		movs	r6, #134
 906              	.LVL137:
 907 0178 58E7     		b	.L68
 908              	.LVL138:
 909              	.L75:
 237:C:/Users/lenovo/Desktop/liteos/Project2/BearPi_LiteOS/components/connectivity/agent_tiny/atiny_lwm2m\object_access_control.c **** 
 910              		.loc 1 237 0
 911 017a 8426     		movs	r6, #132
 912              	.LVL139:
 913              	.L62:
 383:C:/Users/lenovo/Desktop/liteos/Project2/BearPi_LiteOS/components/connectivity/agent_tiny/atiny_lwm2m\object_access_control.c **** 
 914              		.loc 1 383 0
 915 017c 3046     		mov	r0, r6
 916 017e 05B0     		add	sp, sp, #20
 917              	.LCFI14:
 918              		.cfi_def_cfa_offset 36
 919              		@ sp needed
 920 0180 BDE8F08F 		pop	{r4, r5, r6, r7, r8, r9, r10, fp, pc}
 921              	.LVL140:
 922              	.L76:
 376:C:/Users/lenovo/Desktop/liteos/Project2/BearPi_LiteOS/components/connectivity/agent_tiny/atiny_lwm2m\object_access_control.c ****         }
 923              		.loc 1 376 0
 924 0184 8426     		movs	r6, #132
 925              	.LVL141:
 926 0186 F9E7     		b	.L62
 927              		.cfi_endproc
 928              	.LFE145:
 930              		.section	.text.prv_create,"ax",%progbits
 931              		.align	1
 932              		.syntax unified
 933              		.thumb
 934              		.thumb_func
 935              		.fpu fpv4-sp-d16
 937              	prv_create:
 938              	.LFB148:
 407:C:/Users/lenovo/Desktop/liteos/Project2/BearPi_LiteOS/components/connectivity/agent_tiny/atiny_lwm2m\object_access_control.c ****     acc_ctrl_oi_t *targetP;
 939              		.loc 1 407 0
 940              		.cfi_startproc
 941              		@ args = 0, pretend = 0, frame = 0
 942              		@ frame_needed = 0, uses_anonymous_args = 0
 943              	.LVL142:
 944 0000 F0B5     		push	{r4, r5, r6, r7, lr}
 945              	.LCFI15:
 946              		.cfi_def_cfa_offset 20
 947              		.cfi_offset 4, -20
 948              		.cfi_offset 5, -16
 949              		.cfi_offset 6, -12
 950              		.cfi_offset 7, -8
 951              		.cfi_offset 14, -4
 952 0002 83B0     		sub	sp, sp, #12
 953              	.LCFI16:
 954              		.cfi_def_cfa_offset 32
 955 0004 0646     		mov	r6, r0
 956 0006 0D46     		mov	r5, r1
ARM GAS  c:\Users\lenovo\AppData\Local\Temp\ccp6MF8M.s 			page 32


 957 0008 1746     		mov	r7, r2
 958 000a 1C46     		mov	r4, r3
 411:C:/Users/lenovo/Desktop/liteos/Project2/BearPi_LiteOS/components/connectivity/agent_tiny/atiny_lwm2m\object_access_control.c ****     if (NULL == targetP) return COAP_500_INTERNAL_SERVER_ERROR;
 959              		.loc 1 411 0
 960 000c 1020     		movs	r0, #16
 961              	.LVL143:
 962 000e FFF7FEFF 		bl	lwm2m_malloc
 963              	.LVL144:
 412:C:/Users/lenovo/Desktop/liteos/Project2/BearPi_LiteOS/components/connectivity/agent_tiny/atiny_lwm2m\object_access_control.c ****     memset(targetP, 0, sizeof(acc_ctrl_oi_t));
 964              		.loc 1 412 0
 965 0012 E0B1     		cbz	r0, .L100
 966 0014 0146     		mov	r1, r0
 413:C:/Users/lenovo/Desktop/liteos/Project2/BearPi_LiteOS/components/connectivity/agent_tiny/atiny_lwm2m\object_access_control.c **** 
 967              		.loc 1 413 0
 968 0016 0023     		movs	r3, #0
 969 0018 0360     		str	r3, [r0]	@ unaligned
 970 001a 4360     		str	r3, [r0, #4]	@ unaligned
 971 001c 8360     		str	r3, [r0, #8]	@ unaligned
 972 001e C360     		str	r3, [r0, #12]	@ unaligned
 415:C:/Users/lenovo/Desktop/liteos/Project2/BearPi_LiteOS/components/connectivity/agent_tiny/atiny_lwm2m\object_access_control.c ****     objectP->instanceList = LWM2M_LIST_ADD(objectP->instanceList, targetP);
 973              		.loc 1 415 0
 974 0020 8680     		strh	r6, [r0, #4]	@ movhi
 416:C:/Users/lenovo/Desktop/liteos/Project2/BearPi_LiteOS/components/connectivity/agent_tiny/atiny_lwm2m\object_access_control.c **** 
 975              		.loc 1 416 0
 976 0022 A068     		ldr	r0, [r4, #8]
 977              	.LVL145:
 978 0024 FFF7FEFF 		bl	lwm2m_list_add
 979              	.LVL146:
 980 0028 A060     		str	r0, [r4, #8]
 418:C:/Users/lenovo/Desktop/liteos/Project2/BearPi_LiteOS/components/connectivity/agent_tiny/atiny_lwm2m\object_access_control.c **** 
 981              		.loc 1 418 0
 982 002a 0123     		movs	r3, #1
 983 002c 0093     		str	r3, [sp]
 984 002e 2346     		mov	r3, r4
 985 0030 3A46     		mov	r2, r7
 986 0032 2946     		mov	r1, r5
 987 0034 3046     		mov	r0, r6
 988 0036 FFF7FEFF 		bl	prv_write_resources
 989              	.LVL147:
 990 003a 0546     		mov	r5, r0
 991              	.LVL148:
 420:C:/Users/lenovo/Desktop/liteos/Project2/BearPi_LiteOS/components/connectivity/agent_tiny/atiny_lwm2m\object_access_control.c ****     {
 992              		.loc 1 420 0
 993 003c 4428     		cmp	r0, #68
 994 003e 08D0     		beq	.L101
 422:C:/Users/lenovo/Desktop/liteos/Project2/BearPi_LiteOS/components/connectivity/agent_tiny/atiny_lwm2m\object_access_control.c ****     }
 995              		.loc 1 422 0
 996 0040 2146     		mov	r1, r4
 997 0042 3046     		mov	r0, r6
 998              	.LVL149:
 999 0044 FFF7FEFF 		bl	prv_delete
 1000              	.LVL150:
 1001              	.L99:
 429:C:/Users/lenovo/Desktop/liteos/Project2/BearPi_LiteOS/components/connectivity/agent_tiny/atiny_lwm2m\object_access_control.c **** 
 1002              		.loc 1 429 0
 1003 0048 2846     		mov	r0, r5
 1004 004a 03B0     		add	sp, sp, #12
ARM GAS  c:\Users\lenovo\AppData\Local\Temp\ccp6MF8M.s 			page 33


 1005              	.LCFI17:
 1006              		.cfi_remember_state
 1007              		.cfi_def_cfa_offset 20
 1008              		@ sp needed
 1009 004c F0BD     		pop	{r4, r5, r6, r7, pc}
 1010              	.LVL151:
 1011              	.L100:
 1012              	.LCFI18:
 1013              		.cfi_restore_state
 412:C:/Users/lenovo/Desktop/liteos/Project2/BearPi_LiteOS/components/connectivity/agent_tiny/atiny_lwm2m\object_access_control.c ****     memset(targetP, 0, sizeof(acc_ctrl_oi_t));
 1014              		.loc 1 412 0
 1015 004e A025     		movs	r5, #160
 1016              	.LVL152:
 1017 0050 FAE7     		b	.L99
 1018              	.LVL153:
 1019              	.L101:
 426:C:/Users/lenovo/Desktop/liteos/Project2/BearPi_LiteOS/components/connectivity/agent_tiny/atiny_lwm2m\object_access_control.c ****     }
 1020              		.loc 1 426 0
 1021 0052 4125     		movs	r5, #65
 1022 0054 F8E7     		b	.L99
 1023              		.cfi_endproc
 1024              	.LFE148:
 1026              		.section	.text.prv_write,"ax",%progbits
 1027              		.align	1
 1028              		.syntax unified
 1029              		.thumb
 1030              		.thumb_func
 1031              		.fpu fpv4-sp-d16
 1033              	prv_write:
 1034              	.LFB146:
 387:C:/Users/lenovo/Desktop/liteos/Project2/BearPi_LiteOS/components/connectivity/agent_tiny/atiny_lwm2m\object_access_control.c ****     return prv_write_resources(instanceId, numData, tlvArray, objectP, false);
 1035              		.loc 1 387 0
 1036              		.cfi_startproc
 1037              		@ args = 0, pretend = 0, frame = 0
 1038              		@ frame_needed = 0, uses_anonymous_args = 0
 1039              	.LVL154:
 1040 0000 10B5     		push	{r4, lr}
 1041              	.LCFI19:
 1042              		.cfi_def_cfa_offset 8
 1043              		.cfi_offset 4, -8
 1044              		.cfi_offset 14, -4
 1045 0002 82B0     		sub	sp, sp, #8
 1046              	.LCFI20:
 1047              		.cfi_def_cfa_offset 16
 388:C:/Users/lenovo/Desktop/liteos/Project2/BearPi_LiteOS/components/connectivity/agent_tiny/atiny_lwm2m\object_access_control.c **** }
 1048              		.loc 1 388 0
 1049 0004 0024     		movs	r4, #0
 1050 0006 0094     		str	r4, [sp]
 1051 0008 FFF7FEFF 		bl	prv_write_resources
 1052              	.LVL155:
 389:C:/Users/lenovo/Desktop/liteos/Project2/BearPi_LiteOS/components/connectivity/agent_tiny/atiny_lwm2m\object_access_control.c **** 
 1053              		.loc 1 389 0
 1054 000c 02B0     		add	sp, sp, #8
 1055              	.LCFI21:
 1056              		.cfi_def_cfa_offset 8
 1057              		@ sp needed
 1058 000e 10BD     		pop	{r4, pc}
ARM GAS  c:\Users\lenovo\AppData\Local\Temp\ccp6MF8M.s 			page 34


 1059              		.cfi_endproc
 1060              	.LFE146:
 1062              		.section	.text.prv_set_tlv,"ax",%progbits
 1063              		.align	1
 1064              		.syntax unified
 1065              		.thumb
 1066              		.thumb_func
 1067              		.fpu fpv4-sp-d16
 1069              	prv_set_tlv:
 1070              	.LFB142:
 101:C:/Users/lenovo/Desktop/liteos/Project2/BearPi_LiteOS/components/connectivity/agent_tiny/atiny_lwm2m\object_access_control.c ****     switch (dataP->id)
 1071              		.loc 1 101 0
 1072              		.cfi_startproc
 1073              		@ args = 0, pretend = 0, frame = 0
 1074              		@ frame_needed = 0, uses_anonymous_args = 0
 1075              	.LVL156:
 1076 0000 F8B5     		push	{r3, r4, r5, r6, r7, lr}
 1077              	.LCFI22:
 1078              		.cfi_def_cfa_offset 24
 1079              		.cfi_offset 3, -24
 1080              		.cfi_offset 4, -20
 1081              		.cfi_offset 5, -16
 1082              		.cfi_offset 6, -12
 1083              		.cfi_offset 7, -8
 1084              		.cfi_offset 14, -4
 1085 0002 0446     		mov	r4, r0
 1086 0004 0D46     		mov	r5, r1
 102:C:/Users/lenovo/Desktop/liteos/Project2/BearPi_LiteOS/components/connectivity/agent_tiny/atiny_lwm2m\object_access_control.c ****     {
 1087              		.loc 1 102 0
 1088 0006 4388     		ldrh	r3, [r0, #2]
 1089 0008 032B     		cmp	r3, #3
 1090 000a 3CD8     		bhi	.L116
 1091 000c DFE803F0 		tbb	[pc, r3]
 1092              	.L108:
 1093 0010 02       		.byte	(.L107-.L108)/2
 1094 0011 09       		.byte	(.L109-.L108)/2
 1095 0012 10       		.byte	(.L110-.L108)/2
 1096 0013 34       		.byte	(.L111-.L108)/2
 1097              		.p2align 1
 1098              	.L107:
 105:C:/Users/lenovo/Desktop/liteos/Project2/BearPi_LiteOS/components/connectivity/agent_tiny/atiny_lwm2m\object_access_control.c ****         return COAP_205_CONTENT;
 1099              		.loc 1 105 0
 1100 0014 0246     		mov	r2, r0
 1101 0016 E888     		ldrh	r0, [r5, #6]
 1102              	.LVL157:
 1103 0018 0021     		movs	r1, #0
 1104              	.LVL158:
 1105 001a FFF7FEFF 		bl	lwm2m_data_encode_int
 1106              	.LVL159:
 106:C:/Users/lenovo/Desktop/liteos/Project2/BearPi_LiteOS/components/connectivity/agent_tiny/atiny_lwm2m\object_access_control.c ****     case RES_M_OBJECT_INSTANCE_ID:
 1107              		.loc 1 106 0
 1108 001e 4520     		movs	r0, #69
 1109              	.LVL160:
 1110              	.L106:
 143:C:/Users/lenovo/Desktop/liteos/Project2/BearPi_LiteOS/components/connectivity/agent_tiny/atiny_lwm2m\object_access_control.c **** 
 1111              		.loc 1 143 0
 1112 0020 F8BD     		pop	{r3, r4, r5, r6, r7, pc}
ARM GAS  c:\Users\lenovo\AppData\Local\Temp\ccp6MF8M.s 			page 35


 1113              	.LVL161:
 1114              	.L109:
 108:C:/Users/lenovo/Desktop/liteos/Project2/BearPi_LiteOS/components/connectivity/agent_tiny/atiny_lwm2m\object_access_control.c ****         return COAP_205_CONTENT;
 1115              		.loc 1 108 0
 1116 0022 0246     		mov	r2, r0
 1117 0024 2889     		ldrh	r0, [r5, #8]
 1118              	.LVL162:
 1119 0026 0021     		movs	r1, #0
 1120              	.LVL163:
 1121 0028 FFF7FEFF 		bl	lwm2m_data_encode_int
 1122              	.LVL164:
 109:C:/Users/lenovo/Desktop/liteos/Project2/BearPi_LiteOS/components/connectivity/agent_tiny/atiny_lwm2m\object_access_control.c ****     case RES_O_ACL:
 1123              		.loc 1 109 0
 1124 002c 4520     		movs	r0, #69
 1125 002e F7E7     		b	.L106
 1126              	.LVL165:
 1127              	.L110:
 1128              	.LBB7:
 114:C:/Users/lenovo/Desktop/liteos/Project2/BearPi_LiteOS/components/connectivity/agent_tiny/atiny_lwm2m\object_access_control.c ****                 accCtrlRiP != NULL;
 1129              		.loc 1 114 0
 1130 0030 CB68     		ldr	r3, [r1, #12]
 1131              	.LVL166:
 1132 0032 0020     		movs	r0, #0
 1133              	.LVL167:
 1134 0034 01E0     		b	.L112
 1135              	.LVL168:
 1136              	.L113:
 116:C:/Users/lenovo/Desktop/liteos/Project2/BearPi_LiteOS/components/connectivity/agent_tiny/atiny_lwm2m\object_access_control.c **** 
 1137              		.loc 1 116 0
 1138 0036 1B68     		ldr	r3, [r3]
 1139              	.LVL169:
 1140 0038 0130     		adds	r0, r0, #1
 1141              	.LVL170:
 1142              	.L112:
 114:C:/Users/lenovo/Desktop/liteos/Project2/BearPi_LiteOS/components/connectivity/agent_tiny/atiny_lwm2m\object_access_control.c ****                 accCtrlRiP != NULL;
 1143              		.loc 1 114 0 discriminator 1
 1144 003a 002B     		cmp	r3, #0
 1145 003c FBD1     		bne	.L113
 118:C:/Users/lenovo/Desktop/liteos/Project2/BearPi_LiteOS/components/connectivity/agent_tiny/atiny_lwm2m\object_access_control.c ****         {
 1146              		.loc 1 118 0
 1147 003e 08B9     		cbnz	r0, .L120
 120:C:/Users/lenovo/Desktop/liteos/Project2/BearPi_LiteOS/components/connectivity/agent_tiny/atiny_lwm2m\object_access_control.c ****         }
 1148              		.loc 1 120 0
 1149 0040 8420     		movs	r0, #132
 1150              	.LVL171:
 1151 0042 EDE7     		b	.L106
 1152              	.LVL172:
 1153              	.L120:
 1154              	.LBB8:
 124:C:/Users/lenovo/Desktop/liteos/Project2/BearPi_LiteOS/components/connectivity/agent_tiny/atiny_lwm2m\object_access_control.c ****             if (subTlvP == NULL) return COAP_500_INTERNAL_SERVER_ERROR;
 1155              		.loc 1 124 0
 1156 0044 FFF7FEFF 		bl	lwm2m_data_new
 1157              	.LVL173:
 125:C:/Users/lenovo/Desktop/liteos/Project2/BearPi_LiteOS/components/connectivity/agent_tiny/atiny_lwm2m\object_access_control.c ****             for (accCtrlRiP = accCtrlOiP->accCtrlValList, ri = 0;
 1158              		.loc 1 125 0
 1159 0048 0746     		mov	r7, r0
 1160 004a F0B1     		cbz	r0, .L118
ARM GAS  c:\Users\lenovo\AppData\Local\Temp\ccp6MF8M.s 			page 36


 126:C:/Users/lenovo/Desktop/liteos/Project2/BearPi_LiteOS/components/connectivity/agent_tiny/atiny_lwm2m\object_access_control.c ****                     accCtrlRiP != NULL;
 1161              		.loc 1 126 0
 1162 004c ED68     		ldr	r5, [r5, #12]
 1163              	.LVL174:
 1164 004e 0026     		movs	r6, #0
 1165 0050 09E0     		b	.L114
 1166              	.LVL175:
 1167              	.L115:
 130:C:/Users/lenovo/Desktop/liteos/Project2/BearPi_LiteOS/components/connectivity/agent_tiny/atiny_lwm2m\object_access_control.c ****                 lwm2m_data_encode_int(accCtrlRiP->accCtrlValue, &subTlvP[ri]);
 1168              		.loc 1 130 0
 1169 0052 07EB0612 		add	r2, r7, r6, lsl #4
 1170 0056 AB88     		ldrh	r3, [r5, #4]
 1171 0058 5380     		strh	r3, [r2, #2]	@ movhi
 131:C:/Users/lenovo/Desktop/liteos/Project2/BearPi_LiteOS/components/connectivity/agent_tiny/atiny_lwm2m\object_access_control.c ****             }
 1172              		.loc 1 131 0
 1173 005a E888     		ldrh	r0, [r5, #6]
 1174 005c 0021     		movs	r1, #0
 1175 005e FFF7FEFF 		bl	lwm2m_data_encode_int
 1176              	.LVL176:
 128:C:/Users/lenovo/Desktop/liteos/Project2/BearPi_LiteOS/components/connectivity/agent_tiny/atiny_lwm2m\object_access_control.c ****             {
 1177              		.loc 1 128 0
 1178 0062 2D68     		ldr	r5, [r5]
 1179              	.LVL177:
 1180 0064 0136     		adds	r6, r6, #1
 1181              	.LVL178:
 1182              	.L114:
 126:C:/Users/lenovo/Desktop/liteos/Project2/BearPi_LiteOS/components/connectivity/agent_tiny/atiny_lwm2m\object_access_control.c ****                     accCtrlRiP != NULL;
 1183              		.loc 1 126 0 discriminator 1
 1184 0066 002D     		cmp	r5, #0
 1185 0068 F3D1     		bne	.L115
 133:C:/Users/lenovo/Desktop/liteos/Project2/BearPi_LiteOS/components/connectivity/agent_tiny/atiny_lwm2m\object_access_control.c ****             return COAP_205_CONTENT;
 1186              		.loc 1 133 0
 1187 006a 2246     		mov	r2, r4
 1188 006c 3146     		mov	r1, r6
 1189 006e 3846     		mov	r0, r7
 1190 0070 FFF7FEFF 		bl	lwm2m_data_encode_instances
 1191              	.LVL179:
 134:C:/Users/lenovo/Desktop/liteos/Project2/BearPi_LiteOS/components/connectivity/agent_tiny/atiny_lwm2m\object_access_control.c ****         }
 1192              		.loc 1 134 0
 1193 0074 4520     		movs	r0, #69
 1194 0076 D3E7     		b	.L106
 1195              	.LVL180:
 1196              	.L111:
 1197              	.LBE8:
 1198              	.LBE7:
 138:C:/Users/lenovo/Desktop/liteos/Project2/BearPi_LiteOS/components/connectivity/agent_tiny/atiny_lwm2m\object_access_control.c ****         return COAP_205_CONTENT;
 1199              		.loc 1 138 0
 1200 0078 0246     		mov	r2, r0
 1201 007a 6889     		ldrh	r0, [r5, #10]
 1202              	.LVL181:
 1203 007c 0021     		movs	r1, #0
 1204              	.LVL182:
 1205 007e FFF7FEFF 		bl	lwm2m_data_encode_int
 1206              	.LVL183:
 139:C:/Users/lenovo/Desktop/liteos/Project2/BearPi_LiteOS/components/connectivity/agent_tiny/atiny_lwm2m\object_access_control.c ****     default:
 1207              		.loc 1 139 0
 1208 0082 4520     		movs	r0, #69
ARM GAS  c:\Users\lenovo\AppData\Local\Temp\ccp6MF8M.s 			page 37


 1209 0084 CCE7     		b	.L106
 1210              	.LVL184:
 1211              	.L116:
 141:C:/Users/lenovo/Desktop/liteos/Project2/BearPi_LiteOS/components/connectivity/agent_tiny/atiny_lwm2m\object_access_control.c ****     }
 1212              		.loc 1 141 0
 1213 0086 8420     		movs	r0, #132
 1214              	.LVL185:
 1215 0088 CAE7     		b	.L106
 1216              	.LVL186:
 1217              	.L118:
 1218              	.LBB10:
 1219              	.LBB9:
 125:C:/Users/lenovo/Desktop/liteos/Project2/BearPi_LiteOS/components/connectivity/agent_tiny/atiny_lwm2m\object_access_control.c ****             for (accCtrlRiP = accCtrlOiP->accCtrlValList, ri = 0;
 1220              		.loc 1 125 0
 1221 008a A020     		movs	r0, #160
 1222              	.LVL187:
 1223 008c C8E7     		b	.L106
 1224              	.LBE9:
 1225              	.LBE10:
 1226              		.cfi_endproc
 1227              	.LFE142:
 1229              		.section	.text.prv_read,"ax",%progbits
 1230              		.align	1
 1231              		.syntax unified
 1232              		.thumb
 1233              		.thumb_func
 1234              		.fpu fpv4-sp-d16
 1236              	prv_read:
 1237              	.LFB143:
 147:C:/Users/lenovo/Desktop/liteos/Project2/BearPi_LiteOS/components/connectivity/agent_tiny/atiny_lwm2m\object_access_control.c ****     uint8_t result;
 1238              		.loc 1 147 0
 1239              		.cfi_startproc
 1240              		@ args = 4, pretend = 0, frame = 8
 1241              		@ frame_needed = 0, uses_anonymous_args = 0
 1242              	.LVL188:
 1243 0000 2DE9F047 		push	{r4, r5, r6, r7, r8, r9, r10, lr}
 1244              	.LCFI23:
 1245              		.cfi_def_cfa_offset 32
 1246              		.cfi_offset 4, -32
 1247              		.cfi_offset 5, -28
 1248              		.cfi_offset 6, -24
 1249              		.cfi_offset 7, -20
 1250              		.cfi_offset 8, -16
 1251              		.cfi_offset 9, -12
 1252              		.cfi_offset 10, -8
 1253              		.cfi_offset 14, -4
 1254 0004 82B0     		sub	sp, sp, #8
 1255              	.LCFI24:
 1256              		.cfi_def_cfa_offset 40
 1257 0006 8846     		mov	r8, r1
 1258 0008 9146     		mov	r9, r2
 152:C:/Users/lenovo/Desktop/liteos/Project2/BearPi_LiteOS/components/connectivity/agent_tiny/atiny_lwm2m\object_access_control.c ****         (acc_ctrl_oi_t *)lwm2m_list_find(objectP->instanceList, instanceId);
 1259              		.loc 1 152 0
 1260 000a 0146     		mov	r1, r0
 1261              	.LVL189:
 1262 000c 0A9B     		ldr	r3, [sp, #40]
 1263              	.LVL190:
ARM GAS  c:\Users\lenovo\AppData\Local\Temp\ccp6MF8M.s 			page 38


 1264 000e 9868     		ldr	r0, [r3, #8]
 1265              	.LVL191:
 1266 0010 FFF7FEFF 		bl	lwm2m_list_find
 1267              	.LVL192:
 154:C:/Users/lenovo/Desktop/liteos/Project2/BearPi_LiteOS/components/connectivity/agent_tiny/atiny_lwm2m\object_access_control.c ****     {
 1268              		.loc 1 154 0
 1269 0014 0028     		cmp	r0, #0
 1270 0016 54D0     		beq	.L131
 1271 0018 8246     		mov	r10, r0
 160:C:/Users/lenovo/Desktop/liteos/Project2/BearPi_LiteOS/components/connectivity/agent_tiny/atiny_lwm2m\object_access_control.c ****     {
 1272              		.loc 1 160 0
 1273 001a D8F80040 		ldr	r4, [r8]
 1274 001e 14B1     		cbz	r4, .L134
 1275              	.LVL193:
 1276              	.L123:
 147:C:/Users/lenovo/Desktop/liteos/Project2/BearPi_LiteOS/components/connectivity/agent_tiny/atiny_lwm2m\object_access_control.c ****     uint8_t result;
 1277              		.loc 1 147 0
 1278 0020 0024     		movs	r4, #0
 1279 0022 2746     		mov	r7, r4
 1280 0024 2FE0     		b	.L130
 1281              	.LVL194:
 1282              	.L134:
 1283              	.LBB11:
 162:C:/Users/lenovo/Desktop/liteos/Project2/BearPi_LiteOS/components/connectivity/agent_tiny/atiny_lwm2m\object_access_control.c ****         {
 1284              		.loc 1 162 0
 1285 0026 284B     		ldr	r3, .L137
 1286 0028 93E80300 		ldm	r3, {r0, r1}
 1287              	.LVL195:
 1288 002c 02AB     		add	r3, sp, #8
 1289 002e 03E90300 		stmdb	r3, {r0, r1}
 1290              	.LVL196:
 171:C:/Users/lenovo/Desktop/liteos/Project2/BearPi_LiteOS/components/connectivity/agent_tiny/atiny_lwm2m\object_access_control.c ****         if (*dataArrayP == NULL)
 1291              		.loc 1 171 0
 1292 0032 0420     		movs	r0, #4
 1293 0034 FFF7FEFF 		bl	lwm2m_data_new
 1294              	.LVL197:
 1295 0038 C9F80000 		str	r0, [r9]
 172:C:/Users/lenovo/Desktop/liteos/Project2/BearPi_LiteOS/components/connectivity/agent_tiny/atiny_lwm2m\object_access_control.c ****             return COAP_500_INTERNAL_SERVER_ERROR ;
 1296              		.loc 1 172 0
 1297 003c 18B1     		cbz	r0, .L135
 174:C:/Users/lenovo/Desktop/liteos/Project2/BearPi_LiteOS/components/connectivity/agent_tiny/atiny_lwm2m\object_access_control.c ****         for (ri = 0; ri < nbRes; ri++)
 1298              		.loc 1 174 0
 1299 003e 0423     		movs	r3, #4
 1300 0040 C8F80030 		str	r3, [r8]
 1301              	.LVL198:
 175:C:/Users/lenovo/Desktop/liteos/Project2/BearPi_LiteOS/components/connectivity/agent_tiny/atiny_lwm2m\object_access_control.c ****         {
 1302              		.loc 1 175 0
 1303 0044 0DE0     		b	.L125
 1304              	.LVL199:
 1305              	.L135:
 173:C:/Users/lenovo/Desktop/liteos/Project2/BearPi_LiteOS/components/connectivity/agent_tiny/atiny_lwm2m\object_access_control.c ****         *numDataP = nbRes;
 1306              		.loc 1 173 0
 1307 0046 4FF0A00C 		mov	ip, #160
 1308 004a 36E0     		b	.L122
 1309              	.LVL200:
 1310              	.L126:
 177:C:/Users/lenovo/Desktop/liteos/Project2/BearPi_LiteOS/components/connectivity/agent_tiny/atiny_lwm2m\object_access_control.c ****         }
ARM GAS  c:\Users\lenovo\AppData\Local\Temp\ccp6MF8M.s 			page 39


 1311              		.loc 1 177 0 discriminator 3
 1312 004c D9F80030 		ldr	r3, [r9]
 1313 0050 03EB0413 		add	r3, r3, r4, lsl #4
 1314 0054 02AA     		add	r2, sp, #8
 1315 0056 02EB4402 		add	r2, r2, r4, lsl #1
 1316 005a 32F8082C 		ldrh	r2, [r2, #-8]
 1317 005e 5A80     		strh	r2, [r3, #2]	@ movhi
 175:C:/Users/lenovo/Desktop/liteos/Project2/BearPi_LiteOS/components/connectivity/agent_tiny/atiny_lwm2m\object_access_control.c ****         {
 1318              		.loc 1 175 0 discriminator 3
 1319 0060 0134     		adds	r4, r4, #1
 1320              	.LVL201:
 1321              	.L125:
 175:C:/Users/lenovo/Desktop/liteos/Project2/BearPi_LiteOS/components/connectivity/agent_tiny/atiny_lwm2m\object_access_control.c ****         {
 1322              		.loc 1 175 0 is_stmt 0 discriminator 1
 1323 0062 032C     		cmp	r4, #3
 1324 0064 F2DD     		ble	.L126
 1325 0066 DBE7     		b	.L123
 1326              	.LVL202:
 1327              	.L136:
 1328              	.LBE11:
 187:C:/Users/lenovo/Desktop/liteos/Project2/BearPi_LiteOS/components/connectivity/agent_tiny/atiny_lwm2m\object_access_control.c ****             if (*numDataP > 1) result = COAP_205_CONTENT;
 1329              		.loc 1 187 0 is_stmt 1
 1330 0068 0137     		adds	r7, r7, #1
 1331              	.LVL203:
 188:C:/Users/lenovo/Desktop/liteos/Project2/BearPi_LiteOS/components/connectivity/agent_tiny/atiny_lwm2m\object_access_control.c ****         }
 1332              		.loc 1 188 0
 1333 006a D8F80030 		ldr	r3, [r8]
 1334 006e 012B     		cmp	r3, #1
 1335 0070 01DD     		ble	.L128
 1336 0072 4FF0450C 		mov	ip, #69
 1337              	.LVL204:
 1338              	.L128:
 194:C:/Users/lenovo/Desktop/liteos/Project2/BearPi_LiteOS/components/connectivity/agent_tiny/atiny_lwm2m\object_access_control.c ****     }
 1339              		.loc 1 194 0
 1340 0076 0134     		adds	r4, r4, #1
 1341              	.LVL205:
 196:C:/Users/lenovo/Desktop/liteos/Project2/BearPi_LiteOS/components/connectivity/agent_tiny/atiny_lwm2m\object_access_control.c ****     *numDataP = ni - ri;
 1342              		.loc 1 196 0
 1343 0078 D8F80030 		ldr	r3, [r8]
 1344 007c A342     		cmp	r3, r4
 1345 007e 19DD     		ble	.L129
 196:C:/Users/lenovo/Desktop/liteos/Project2/BearPi_LiteOS/components/connectivity/agent_tiny/atiny_lwm2m\object_access_control.c ****     *numDataP = ni - ri;
 1346              		.loc 1 196 0 is_stmt 0 discriminator 1
 1347 0080 BCF1450F 		cmp	ip, #69
 1348 0084 16D1     		bne	.L129
 1349              	.LVL206:
 1350              	.L130:
 184:C:/Users/lenovo/Desktop/liteos/Project2/BearPi_LiteOS/components/connectivity/agent_tiny/atiny_lwm2m\object_access_control.c ****         if (result == COAP_404_NOT_FOUND)
 1351              		.loc 1 184 0 is_stmt 1
 1352 0086 D9F80000 		ldr	r0, [r9]
 1353 008a 2501     		lsls	r5, r4, #4
 1354 008c 5146     		mov	r1, r10
 1355 008e 2844     		add	r0, r0, r5
 1356 0090 FFF7FEFF 		bl	prv_set_tlv
 1357              	.LVL207:
 1358 0094 8446     		mov	ip, r0
 1359              	.LVL208:
ARM GAS  c:\Users\lenovo\AppData\Local\Temp\ccp6MF8M.s 			page 40


 185:C:/Users/lenovo/Desktop/liteos/Project2/BearPi_LiteOS/components/connectivity/agent_tiny/atiny_lwm2m\object_access_control.c ****         {
 1360              		.loc 1 185 0
 1361 0096 8428     		cmp	r0, #132
 1362 0098 E6D0     		beq	.L136
 190:C:/Users/lenovo/Desktop/liteos/Project2/BearPi_LiteOS/components/connectivity/agent_tiny/atiny_lwm2m\object_access_control.c ****         {
 1363              		.loc 1 190 0
 1364 009a 002F     		cmp	r7, #0
 1365 009c EBDD     		ble	.L128
 192:C:/Users/lenovo/Desktop/liteos/Project2/BearPi_LiteOS/components/connectivity/agent_tiny/atiny_lwm2m\object_access_control.c ****         }
 1366              		.loc 1 192 0
 1367 009e D9F80060 		ldr	r6, [r9]
 1368 00a2 3544     		add	r5, r5, r6
 1369 00a4 E31B     		subs	r3, r4, r7
 1370 00a6 06EB0316 		add	r6, r6, r3, lsl #4
 1371 00aa 95E80F00 		ldm	r5, {r0, r1, r2, r3}
 1372              	.LVL209:
 1373 00ae 86E80F00 		stm	r6, {r0, r1, r2, r3}
 1374 00b2 E0E7     		b	.L128
 1375              	.LVL210:
 1376              	.L129:
 197:C:/Users/lenovo/Desktop/liteos/Project2/BearPi_LiteOS/components/connectivity/agent_tiny/atiny_lwm2m\object_access_control.c **** 
 1377              		.loc 1 197 0
 1378 00b4 E41B     		subs	r4, r4, r7
 1379              	.LVL211:
 1380 00b6 C8F80040 		str	r4, [r8]
 1381              	.LVL212:
 1382              	.L122:
 200:C:/Users/lenovo/Desktop/liteos/Project2/BearPi_LiteOS/components/connectivity/agent_tiny/atiny_lwm2m\object_access_control.c **** 
 1383              		.loc 1 200 0
 1384 00ba 6046     		mov	r0, ip
 1385 00bc 02B0     		add	sp, sp, #8
 1386              	.LCFI25:
 1387              		.cfi_remember_state
 1388              		.cfi_def_cfa_offset 32
 1389              		@ sp needed
 1390 00be BDE8F087 		pop	{r4, r5, r6, r7, r8, r9, r10, pc}
 1391              	.LVL213:
 1392              	.L131:
 1393              	.LCFI26:
 1394              		.cfi_restore_state
 156:C:/Users/lenovo/Desktop/liteos/Project2/BearPi_LiteOS/components/connectivity/agent_tiny/atiny_lwm2m\object_access_control.c ****     }
 1395              		.loc 1 156 0
 1396 00c2 4FF0840C 		mov	ip, #132
 1397 00c6 F8E7     		b	.L122
 1398              	.L138:
 1399              		.align	2
 1400              	.L137:
 1401 00c8 00000000 		.word	.LANCHOR0
 1402              		.cfi_endproc
 1403              	.LFE143:
 1405              		.section	.text.acc_ctrl_create_object,"ax",%progbits
 1406              		.align	1
 1407              		.global	acc_ctrl_create_object
 1408              		.syntax unified
 1409              		.thumb
 1410              		.thumb_func
 1411              		.fpu fpv4-sp-d16
ARM GAS  c:\Users\lenovo\AppData\Local\Temp\ccp6MF8M.s 			page 41


 1413              	acc_ctrl_create_object:
 1414              	.LFB149:
 435:C:/Users/lenovo/Desktop/liteos/Project2/BearPi_LiteOS/components/connectivity/agent_tiny/atiny_lwm2m\object_access_control.c ****     /*
 1415              		.loc 1 435 0
 1416              		.cfi_startproc
 1417              		@ args = 0, pretend = 0, frame = 0
 1418              		@ frame_needed = 0, uses_anonymous_args = 0
 1419 0000 10B5     		push	{r4, lr}
 1420              	.LCFI27:
 1421              		.cfi_def_cfa_offset 8
 1422              		.cfi_offset 4, -8
 1423              		.cfi_offset 14, -4
 1424              	.LVL214:
 442:C:/Users/lenovo/Desktop/liteos/Project2/BearPi_LiteOS/components/connectivity/agent_tiny/atiny_lwm2m\object_access_control.c **** 
 1425              		.loc 1 442 0
 1426 0002 2C20     		movs	r0, #44
 1427 0004 FFF7FEFF 		bl	lwm2m_malloc
 1428              	.LVL215:
 444:C:/Users/lenovo/Desktop/liteos/Project2/BearPi_LiteOS/components/connectivity/agent_tiny/atiny_lwm2m\object_access_control.c ****     {
 1429              		.loc 1 444 0
 1430 0008 0446     		mov	r4, r0
 1431 000a 68B1     		cbz	r0, .L139
 446:C:/Users/lenovo/Desktop/liteos/Project2/BearPi_LiteOS/components/connectivity/agent_tiny/atiny_lwm2m\object_access_control.c ****         /*
 1432              		.loc 1 446 0
 1433 000c 2C22     		movs	r2, #44
 1434 000e 0021     		movs	r1, #0
 1435 0010 FFF7FEFF 		bl	memset
 1436              	.LVL216:
 451:C:/Users/lenovo/Desktop/liteos/Project2/BearPi_LiteOS/components/connectivity/agent_tiny/atiny_lwm2m\object_access_control.c ****         // Init callbacks, empty instanceList!
 1437              		.loc 1 451 0
 1438 0014 0223     		movs	r3, #2
 1439 0016 A380     		strh	r3, [r4, #4]	@ movhi
 453:C:/Users/lenovo/Desktop/liteos/Project2/BearPi_LiteOS/components/connectivity/agent_tiny/atiny_lwm2m\object_access_control.c ****         accCtrlObj->writeFunc   = prv_write;
 1440              		.loc 1 453 0
 1441 0018 044B     		ldr	r3, .L142
 1442 001a E360     		str	r3, [r4, #12]
 454:C:/Users/lenovo/Desktop/liteos/Project2/BearPi_LiteOS/components/connectivity/agent_tiny/atiny_lwm2m\object_access_control.c ****         accCtrlObj->createFunc  = prv_create;
 1443              		.loc 1 454 0
 1444 001c 044B     		ldr	r3, .L142+4
 1445 001e 2361     		str	r3, [r4, #16]
 455:C:/Users/lenovo/Desktop/liteos/Project2/BearPi_LiteOS/components/connectivity/agent_tiny/atiny_lwm2m\object_access_control.c ****         accCtrlObj->deleteFunc  = prv_delete;
 1446              		.loc 1 455 0
 1447 0020 044B     		ldr	r3, .L142+8
 1448 0022 E361     		str	r3, [r4, #28]
 456:C:/Users/lenovo/Desktop/liteos/Project2/BearPi_LiteOS/components/connectivity/agent_tiny/atiny_lwm2m\object_access_control.c ****     }
 1449              		.loc 1 456 0
 1450 0024 044B     		ldr	r3, .L142+12
 1451 0026 2362     		str	r3, [r4, #32]
 1452              	.L139:
 459:C:/Users/lenovo/Desktop/liteos/Project2/BearPi_LiteOS/components/connectivity/agent_tiny/atiny_lwm2m\object_access_control.c **** 
 1453              		.loc 1 459 0
 1454 0028 2046     		mov	r0, r4
 1455 002a 10BD     		pop	{r4, pc}
 1456              	.LVL217:
 1457              	.L143:
 1458              		.align	2
 1459              	.L142:
ARM GAS  c:\Users\lenovo\AppData\Local\Temp\ccp6MF8M.s 			page 42


 1460 002c 00000000 		.word	prv_read
 1461 0030 00000000 		.word	prv_write
 1462 0034 00000000 		.word	prv_create
 1463 0038 00000000 		.word	prv_delete
 1464              		.cfi_endproc
 1465              	.LFE149:
 1467              		.section	.text.acl_ctrl_free_object,"ax",%progbits
 1468              		.align	1
 1469              		.global	acl_ctrl_free_object
 1470              		.syntax unified
 1471              		.thumb
 1472              		.thumb_func
 1473              		.fpu fpv4-sp-d16
 1475              	acl_ctrl_free_object:
 1476              	.LFB150:
 462:C:/Users/lenovo/Desktop/liteos/Project2/BearPi_LiteOS/components/connectivity/agent_tiny/atiny_lwm2m\object_access_control.c ****     acc_ctrl_oi_t *accCtrlOiT;
 1477              		.loc 1 462 0
 1478              		.cfi_startproc
 1479              		@ args = 0, pretend = 0, frame = 0
 1480              		@ frame_needed = 0, uses_anonymous_args = 0
 1481              	.LVL218:
 1482 0000 70B5     		push	{r4, r5, r6, lr}
 1483              	.LCFI28:
 1484              		.cfi_def_cfa_offset 16
 1485              		.cfi_offset 4, -16
 1486              		.cfi_offset 5, -12
 1487              		.cfi_offset 6, -8
 1488              		.cfi_offset 14, -4
 1489 0002 0646     		mov	r6, r0
 464:C:/Users/lenovo/Desktop/liteos/Project2/BearPi_LiteOS/components/connectivity/agent_tiny/atiny_lwm2m\object_access_control.c ****     while (accCtrlOiP != NULL)
 1490              		.loc 1 464 0
 1491 0004 8468     		ldr	r4, [r0, #8]
 1492              	.LVL219:
 465:C:/Users/lenovo/Desktop/liteos/Project2/BearPi_LiteOS/components/connectivity/agent_tiny/atiny_lwm2m\object_access_control.c ****     {
 1493              		.loc 1 465 0
 1494 0006 07E0     		b	.L145
 1495              	.LVL220:
 1496              	.L146:
 468:C:/Users/lenovo/Desktop/liteos/Project2/BearPi_LiteOS/components/connectivity/agent_tiny/atiny_lwm2m\object_access_control.c ****         accCtrlOiT = accCtrlOiP;
 1497              		.loc 1 468 0
 1498 0008 E068     		ldr	r0, [r4, #12]
 1499 000a FFF7FEFF 		bl	lwm2m_list_free
 1500              	.LVL221:
 470:C:/Users/lenovo/Desktop/liteos/Project2/BearPi_LiteOS/components/connectivity/agent_tiny/atiny_lwm2m\object_access_control.c ****         lwm2m_free(accCtrlOiT);
 1501              		.loc 1 470 0
 1502 000e 2568     		ldr	r5, [r4]
 1503              	.LVL222:
 471:C:/Users/lenovo/Desktop/liteos/Project2/BearPi_LiteOS/components/connectivity/agent_tiny/atiny_lwm2m\object_access_control.c ****     }
 1504              		.loc 1 471 0
 1505 0010 2046     		mov	r0, r4
 1506 0012 FFF7FEFF 		bl	lwm2m_free
 1507              	.LVL223:
 470:C:/Users/lenovo/Desktop/liteos/Project2/BearPi_LiteOS/components/connectivity/agent_tiny/atiny_lwm2m\object_access_control.c ****         lwm2m_free(accCtrlOiT);
 1508              		.loc 1 470 0
 1509 0016 2C46     		mov	r4, r5
 1510              	.LVL224:
 1511              	.L145:
ARM GAS  c:\Users\lenovo\AppData\Local\Temp\ccp6MF8M.s 			page 43


 465:C:/Users/lenovo/Desktop/liteos/Project2/BearPi_LiteOS/components/connectivity/agent_tiny/atiny_lwm2m\object_access_control.c ****     {
 1512              		.loc 1 465 0
 1513 0018 002C     		cmp	r4, #0
 1514 001a F5D1     		bne	.L146
 473:C:/Users/lenovo/Desktop/liteos/Project2/BearPi_LiteOS/components/connectivity/agent_tiny/atiny_lwm2m\object_access_control.c **** }
 1515              		.loc 1 473 0
 1516 001c 3046     		mov	r0, r6
 1517 001e FFF7FEFF 		bl	lwm2m_free
 1518              	.LVL225:
 474:C:/Users/lenovo/Desktop/liteos/Project2/BearPi_LiteOS/components/connectivity/agent_tiny/atiny_lwm2m\object_access_control.c **** 
 1519              		.loc 1 474 0
 1520 0022 70BD     		pop	{r4, r5, r6, pc}
 1521              		.cfi_endproc
 1522              	.LFE150:
 1524              		.section	.text.acc_ctrl_obj_add_inst,"ax",%progbits
 1525              		.align	1
 1526              		.global	acc_ctrl_obj_add_inst
 1527              		.syntax unified
 1528              		.thumb
 1529              		.thumb_func
 1530              		.fpu fpv4-sp-d16
 1532              	acc_ctrl_obj_add_inst:
 1533              	.LFB151:
 478:C:/Users/lenovo/Desktop/liteos/Project2/BearPi_LiteOS/components/connectivity/agent_tiny/atiny_lwm2m\object_access_control.c ****     bool ret = false;
 1534              		.loc 1 478 0
 1535              		.cfi_startproc
 1536              		@ args = 4, pretend = 0, frame = 0
 1537              		@ frame_needed = 0, uses_anonymous_args = 0
 1538              	.LVL226:
 481:C:/Users/lenovo/Desktop/liteos/Project2/BearPi_LiteOS/components/connectivity/agent_tiny/atiny_lwm2m\object_access_control.c ****     {
 1539              		.loc 1 481 0
 1540 0000 C0B1     		cbz	r0, .L150
 478:C:/Users/lenovo/Desktop/liteos/Project2/BearPi_LiteOS/components/connectivity/agent_tiny/atiny_lwm2m\object_access_control.c ****     bool ret = false;
 1541              		.loc 1 478 0
 1542 0002 F8B5     		push	{r3, r4, r5, r6, r7, lr}
 1543              	.LCFI29:
 1544              		.cfi_def_cfa_offset 24
 1545              		.cfi_offset 3, -24
 1546              		.cfi_offset 4, -20
 1547              		.cfi_offset 5, -16
 1548              		.cfi_offset 6, -12
 1549              		.cfi_offset 7, -8
 1550              		.cfi_offset 14, -4
 1551 0004 0746     		mov	r7, r0
 1552 0006 1C46     		mov	r4, r3
 1553 0008 1546     		mov	r5, r2
 1554 000a 0E46     		mov	r6, r1
 1555              	.LBB12:
 489:C:/Users/lenovo/Desktop/liteos/Project2/BearPi_LiteOS/components/connectivity/agent_tiny/atiny_lwm2m\object_access_control.c ****         if (NULL == accCtrlOiP)
 1556              		.loc 1 489 0
 1557 000c 1020     		movs	r0, #16
 1558              	.LVL227:
 1559 000e FFF7FEFF 		bl	lwm2m_malloc
 1560              	.LVL228:
 490:C:/Users/lenovo/Desktop/liteos/Project2/BearPi_LiteOS/components/connectivity/agent_tiny/atiny_lwm2m\object_access_control.c ****         {
 1561              		.loc 1 490 0
 1562 0012 0146     		mov	r1, r0
ARM GAS  c:\Users\lenovo\AppData\Local\Temp\ccp6MF8M.s 			page 44


 1563 0014 80B1     		cbz	r0, .L151
 496:C:/Users/lenovo/Desktop/liteos/Project2/BearPi_LiteOS/components/connectivity/agent_tiny/atiny_lwm2m\object_access_control.c ****             // list: key
 1564              		.loc 1 496 0
 1565 0016 0023     		movs	r3, #0
 1566 0018 0360     		str	r3, [r0]	@ unaligned
 1567 001a C360     		str	r3, [r0, #12]	@ unaligned
 498:C:/Users/lenovo/Desktop/liteos/Project2/BearPi_LiteOS/components/connectivity/agent_tiny/atiny_lwm2m\object_access_control.c ****             // object instance data:
 1568              		.loc 1 498 0
 1569 001c 8680     		strh	r6, [r0, #4]	@ movhi
 500:C:/Users/lenovo/Desktop/liteos/Project2/BearPi_LiteOS/components/connectivity/agent_tiny/atiny_lwm2m\object_access_control.c ****             accCtrlOiP->objectInstId = acObjInstId;
 1570              		.loc 1 500 0
 1571 001e C580     		strh	r5, [r0, #6]	@ movhi
 501:C:/Users/lenovo/Desktop/liteos/Project2/BearPi_LiteOS/components/connectivity/agent_tiny/atiny_lwm2m\object_access_control.c ****             accCtrlOiP->accCtrlOwner = acOwner;
 1572              		.loc 1 501 0
 1573 0020 0481     		strh	r4, [r0, #8]	@ movhi
 502:C:/Users/lenovo/Desktop/liteos/Project2/BearPi_LiteOS/components/connectivity/agent_tiny/atiny_lwm2m\object_access_control.c **** 
 1574              		.loc 1 502 0
 1575 0022 BDF81830 		ldrh	r3, [sp, #24]
 1576 0026 4381     		strh	r3, [r0, #10]	@ movhi
 505:C:/Users/lenovo/Desktop/liteos/Project2/BearPi_LiteOS/components/connectivity/agent_tiny/atiny_lwm2m\object_access_control.c ****             ret = true;
 1577              		.loc 1 505 0
 1578 0028 B868     		ldr	r0, [r7, #8]
 1579              	.LVL229:
 1580 002a FFF7FEFF 		bl	lwm2m_list_add
 1581              	.LVL230:
 504:C:/Users/lenovo/Desktop/liteos/Project2/BearPi_LiteOS/components/connectivity/agent_tiny/atiny_lwm2m\object_access_control.c ****                 LWM2M_LIST_ADD(accCtrlObjP->instanceList, accCtrlOiP);
 1582              		.loc 1 504 0
 1583 002e B860     		str	r0, [r7, #8]
 1584              	.LVL231:
 1585              	.LBE12:
 509:C:/Users/lenovo/Desktop/liteos/Project2/BearPi_LiteOS/components/connectivity/agent_tiny/atiny_lwm2m\object_access_control.c **** }
 1586              		.loc 1 509 0
 1587 0030 0120     		movs	r0, #1
 1588              	.LVL232:
 1589              	.L149:
 510:C:/Users/lenovo/Desktop/liteos/Project2/BearPi_LiteOS/components/connectivity/agent_tiny/atiny_lwm2m\object_access_control.c **** 
 1590              		.loc 1 510 0
 1591 0032 F8BD     		pop	{r3, r4, r5, r6, r7, pc}
 1592              	.LVL233:
 1593              	.L150:
 1594              	.LCFI30:
 1595              		.cfi_def_cfa_offset 0
 1596              		.cfi_restore 3
 1597              		.cfi_restore 4
 1598              		.cfi_restore 5
 1599              		.cfi_restore 6
 1600              		.cfi_restore 7
 1601              		.cfi_restore 14
 483:C:/Users/lenovo/Desktop/liteos/Project2/BearPi_LiteOS/components/connectivity/agent_tiny/atiny_lwm2m\object_access_control.c ****     }
 1602              		.loc 1 483 0
 1603 0034 0020     		movs	r0, #0
 1604              	.LVL234:
 510:C:/Users/lenovo/Desktop/liteos/Project2/BearPi_LiteOS/components/connectivity/agent_tiny/atiny_lwm2m\object_access_control.c **** 
 1605              		.loc 1 510 0
 1606 0036 7047     		bx	lr
 1607              	.LVL235:
 1608              	.L151:
ARM GAS  c:\Users\lenovo\AppData\Local\Temp\ccp6MF8M.s 			page 45


 1609              	.LCFI31:
 1610              		.cfi_def_cfa_offset 24
 1611              		.cfi_offset 3, -24
 1612              		.cfi_offset 4, -20
 1613              		.cfi_offset 5, -16
 1614              		.cfi_offset 6, -12
 1615              		.cfi_offset 7, -8
 1616              		.cfi_offset 14, -4
 1617              	.LBB13:
 492:C:/Users/lenovo/Desktop/liteos/Project2/BearPi_LiteOS/components/connectivity/agent_tiny/atiny_lwm2m\object_access_control.c ****         }
 1618              		.loc 1 492 0
 1619 0038 0020     		movs	r0, #0
 1620              	.LVL236:
 1621 003a FAE7     		b	.L149
 1622              	.LBE13:
 1623              		.cfi_endproc
 1624              	.LFE151:
 1626              		.section	.text.acc_ctrl_oi_add_ac_val,"ax",%progbits
 1627              		.align	1
 1628              		.global	acc_ctrl_oi_add_ac_val
 1629              		.syntax unified
 1630              		.thumb
 1631              		.thumb_func
 1632              		.fpu fpv4-sp-d16
 1634              	acc_ctrl_oi_add_ac_val:
 1635              	.LFB152:
 514:C:/Users/lenovo/Desktop/liteos/Project2/BearPi_LiteOS/components/connectivity/agent_tiny/atiny_lwm2m\object_access_control.c ****     bool ret = false;
 1636              		.loc 1 514 0
 1637              		.cfi_startproc
 1638              		@ args = 0, pretend = 0, frame = 0
 1639              		@ frame_needed = 0, uses_anonymous_args = 0
 1640              	.LVL237:
 1641 0000 38B5     		push	{r3, r4, r5, lr}
 1642              	.LCFI32:
 1643              		.cfi_def_cfa_offset 16
 1644              		.cfi_offset 3, -16
 1645              		.cfi_offset 4, -12
 1646              		.cfi_offset 5, -8
 1647              		.cfi_offset 14, -4
 1648 0002 1446     		mov	r4, r2
 1649 0004 1D46     		mov	r5, r3
 1650              	.LVL238:
 517:C:/Users/lenovo/Desktop/liteos/Project2/BearPi_LiteOS/components/connectivity/agent_tiny/atiny_lwm2m\object_access_control.c ****                                 lwm2m_list_find(accCtrlObjP->instanceList, instId);
 1651              		.loc 1 517 0
 1652 0006 8068     		ldr	r0, [r0, #8]
 1653              	.LVL239:
 1654 0008 FFF7FEFF 		bl	lwm2m_list_find
 1655              	.LVL240:
 519:C:/Users/lenovo/Desktop/liteos/Project2/BearPi_LiteOS/components/connectivity/agent_tiny/atiny_lwm2m\object_access_control.c ****         return ret;
 1656              		.loc 1 519 0
 1657 000c 20B1     		cbz	r0, .L158
 522:C:/Users/lenovo/Desktop/liteos/Project2/BearPi_LiteOS/components/connectivity/agent_tiny/atiny_lwm2m\object_access_control.c **** }
 1658              		.loc 1 522 0
 1659 000e 2A46     		mov	r2, r5
 1660 0010 2146     		mov	r1, r4
 1661 0012 FFF7FEFF 		bl	prv_add_ac_val
 1662              	.LVL241:
ARM GAS  c:\Users\lenovo\AppData\Local\Temp\ccp6MF8M.s 			page 46


 1663              	.L157:
 523:C:/Users/lenovo/Desktop/liteos/Project2/BearPi_LiteOS/components/connectivity/agent_tiny/atiny_lwm2m\object_access_control.c **** 
 1664              		.loc 1 523 0
 1665 0016 38BD     		pop	{r3, r4, r5, pc}
 1666              	.LVL242:
 1667              	.L158:
 520:C:/Users/lenovo/Desktop/liteos/Project2/BearPi_LiteOS/components/connectivity/agent_tiny/atiny_lwm2m\object_access_control.c **** 
 1668              		.loc 1 520 0
 1669 0018 0020     		movs	r0, #0
 1670              	.LVL243:
 1671 001a FCE7     		b	.L157
 1672              		.cfi_endproc
 1673              	.LFE152:
 1675              		.section	.text.acc_auth_operate,"ax",%progbits
 1676              		.align	1
 1677              		.global	acc_auth_operate
 1678              		.syntax unified
 1679              		.thumb
 1680              		.thumb_func
 1681              		.fpu fpv4-sp-d16
 1683              	acc_auth_operate:
 1684              	.LFB161:
 704:C:/Users/lenovo/Desktop/liteos/Project2/BearPi_LiteOS/components/connectivity/agent_tiny/atiny_lwm2m\object_access_control.c **** 
 705:C:/Users/lenovo/Desktop/liteos/Project2/BearPi_LiteOS/components/connectivity/agent_tiny/atiny_lwm2m\object_access_control.c **** uint8_t acc_auth_operate(lwm2m_context_t *contextP, lwm2m_uri_t *uri,
 706:C:/Users/lenovo/Desktop/liteos/Project2/BearPi_LiteOS/components/connectivity/agent_tiny/atiny_lwm2m\object_access_control.c ****                          OBJ_ACC_OPERATE op, uint16_t serverId)
 707:C:/Users/lenovo/Desktop/liteos/Project2/BearPi_LiteOS/components/connectivity/agent_tiny/atiny_lwm2m\object_access_control.c **** {
 1685              		.loc 1 707 0
 1686              		.cfi_startproc
 1687              		@ args = 0, pretend = 0, frame = 0
 1688              		@ frame_needed = 0, uses_anonymous_args = 0
 1689              	.LVL244:
 1690 0000 F8B5     		push	{r3, r4, r5, r6, r7, lr}
 1691              	.LCFI33:
 1692              		.cfi_def_cfa_offset 24
 1693              		.cfi_offset 3, -24
 1694              		.cfi_offset 4, -20
 1695              		.cfi_offset 5, -16
 1696              		.cfi_offset 6, -12
 1697              		.cfi_offset 7, -8
 1698              		.cfi_offset 14, -4
 1699 0002 0446     		mov	r4, r0
 1700 0004 0E46     		mov	r6, r1
 1701 0006 1746     		mov	r7, r2
 1702 0008 1D46     		mov	r5, r3
 708:C:/Users/lenovo/Desktop/liteos/Project2/BearPi_LiteOS/components/connectivity/agent_tiny/atiny_lwm2m\object_access_control.c ****     uint8_t ret;
 709:C:/Users/lenovo/Desktop/liteos/Project2/BearPi_LiteOS/components/connectivity/agent_tiny/atiny_lwm2m\object_access_control.c ****     lwm2m_object_t *accCtrlObjP;
 710:C:/Users/lenovo/Desktop/liteos/Project2/BearPi_LiteOS/components/connectivity/agent_tiny/atiny_lwm2m\object_access_control.c ****     acc_ctrl_oi_t *accCtrlOiP;
 711:C:/Users/lenovo/Desktop/liteos/Project2/BearPi_LiteOS/components/connectivity/agent_tiny/atiny_lwm2m\object_access_control.c **** 
 712:C:/Users/lenovo/Desktop/liteos/Project2/BearPi_LiteOS/components/connectivity/agent_tiny/atiny_lwm2m\object_access_control.c ****     if (prv_get_srv_cnt(contextP->serverList) <= 1)
 1703              		.loc 1 712 0
 1704 000a 4069     		ldr	r0, [r0, #20]
 1705              	.LVL245:
 1706 000c FFF7FEFF 		bl	prv_get_srv_cnt
 1707              	.LVL246:
 1708 0010 0128     		cmp	r0, #1
 1709 0012 18DD     		ble	.L162
 713:C:/Users/lenovo/Desktop/liteos/Project2/BearPi_LiteOS/components/connectivity/agent_tiny/atiny_lwm2m\object_access_control.c ****     {
ARM GAS  c:\Users\lenovo\AppData\Local\Temp\ccp6MF8M.s 			page 47


 714:C:/Users/lenovo/Desktop/liteos/Project2/BearPi_LiteOS/components/connectivity/agent_tiny/atiny_lwm2m\object_access_control.c ****         return COAP_NO_ERROR;
 715:C:/Users/lenovo/Desktop/liteos/Project2/BearPi_LiteOS/components/connectivity/agent_tiny/atiny_lwm2m\object_access_control.c ****     }
 716:C:/Users/lenovo/Desktop/liteos/Project2/BearPi_LiteOS/components/connectivity/agent_tiny/atiny_lwm2m\object_access_control.c **** 
 717:C:/Users/lenovo/Desktop/liteos/Project2/BearPi_LiteOS/components/connectivity/agent_tiny/atiny_lwm2m\object_access_control.c ****     if (0 == serverId)
 1710              		.loc 1 717 0
 1711 0014 15B9     		cbnz	r5, .L167
 718:C:/Users/lenovo/Desktop/liteos/Project2/BearPi_LiteOS/components/connectivity/agent_tiny/atiny_lwm2m\object_access_control.c ****     {
 719:C:/Users/lenovo/Desktop/liteos/Project2/BearPi_LiteOS/components/connectivity/agent_tiny/atiny_lwm2m\object_access_control.c ****         return COAP_NO_ERROR;
 1712              		.loc 1 719 0
 1713 0016 0023     		movs	r3, #0
 1714              	.L161:
 720:C:/Users/lenovo/Desktop/liteos/Project2/BearPi_LiteOS/components/connectivity/agent_tiny/atiny_lwm2m\object_access_control.c ****     }
 721:C:/Users/lenovo/Desktop/liteos/Project2/BearPi_LiteOS/components/connectivity/agent_tiny/atiny_lwm2m\object_access_control.c **** 
 722:C:/Users/lenovo/Desktop/liteos/Project2/BearPi_LiteOS/components/connectivity/agent_tiny/atiny_lwm2m\object_access_control.c ****     accCtrlObjP = (lwm2m_object_t *)LWM2M_LIST_FIND(contextP->objectList, LWM2M_ACL_OBJECT_ID);
 723:C:/Users/lenovo/Desktop/liteos/Project2/BearPi_LiteOS/components/connectivity/agent_tiny/atiny_lwm2m\object_access_control.c **** 
 724:C:/Users/lenovo/Desktop/liteos/Project2/BearPi_LiteOS/components/connectivity/agent_tiny/atiny_lwm2m\object_access_control.c ****     if (NULL == accCtrlObjP)
 725:C:/Users/lenovo/Desktop/liteos/Project2/BearPi_LiteOS/components/connectivity/agent_tiny/atiny_lwm2m\object_access_control.c ****     {
 726:C:/Users/lenovo/Desktop/liteos/Project2/BearPi_LiteOS/components/connectivity/agent_tiny/atiny_lwm2m\object_access_control.c ****         return COAP_401_UNAUTHORIZED;
 727:C:/Users/lenovo/Desktop/liteos/Project2/BearPi_LiteOS/components/connectivity/agent_tiny/atiny_lwm2m\object_access_control.c ****     }
 728:C:/Users/lenovo/Desktop/liteos/Project2/BearPi_LiteOS/components/connectivity/agent_tiny/atiny_lwm2m\object_access_control.c **** 
 729:C:/Users/lenovo/Desktop/liteos/Project2/BearPi_LiteOS/components/connectivity/agent_tiny/atiny_lwm2m\object_access_control.c ****     accCtrlOiP = (acc_ctrl_oi_t *)(accCtrlObjP->instanceList);
 730:C:/Users/lenovo/Desktop/liteos/Project2/BearPi_LiteOS/components/connectivity/agent_tiny/atiny_lwm2m\object_access_control.c **** 
 731:C:/Users/lenovo/Desktop/liteos/Project2/BearPi_LiteOS/components/connectivity/agent_tiny/atiny_lwm2m\object_access_control.c ****     if (NULL == accCtrlOiP)
 732:C:/Users/lenovo/Desktop/liteos/Project2/BearPi_LiteOS/components/connectivity/agent_tiny/atiny_lwm2m\object_access_control.c ****     {
 733:C:/Users/lenovo/Desktop/liteos/Project2/BearPi_LiteOS/components/connectivity/agent_tiny/atiny_lwm2m\object_access_control.c ****         return COAP_401_UNAUTHORIZED;
 734:C:/Users/lenovo/Desktop/liteos/Project2/BearPi_LiteOS/components/connectivity/agent_tiny/atiny_lwm2m\object_access_control.c ****     }
 735:C:/Users/lenovo/Desktop/liteos/Project2/BearPi_LiteOS/components/connectivity/agent_tiny/atiny_lwm2m\object_access_control.c **** 
 736:C:/Users/lenovo/Desktop/liteos/Project2/BearPi_LiteOS/components/connectivity/agent_tiny/atiny_lwm2m\object_access_control.c ****     if ((ret = prv_pre_auth_check(accCtrlOiP, uri, op, serverId)) != COAP_NO_ERROR)
 737:C:/Users/lenovo/Desktop/liteos/Project2/BearPi_LiteOS/components/connectivity/agent_tiny/atiny_lwm2m\object_access_control.c ****     {
 738:C:/Users/lenovo/Desktop/liteos/Project2/BearPi_LiteOS/components/connectivity/agent_tiny/atiny_lwm2m\object_access_control.c ****         return ret;
 739:C:/Users/lenovo/Desktop/liteos/Project2/BearPi_LiteOS/components/connectivity/agent_tiny/atiny_lwm2m\object_access_control.c ****     }
 740:C:/Users/lenovo/Desktop/liteos/Project2/BearPi_LiteOS/components/connectivity/agent_tiny/atiny_lwm2m\object_access_control.c **** 
 741:C:/Users/lenovo/Desktop/liteos/Project2/BearPi_LiteOS/components/connectivity/agent_tiny/atiny_lwm2m\object_access_control.c ****     if ((ret = prv_post_action_check(uri, op)) != COAP_NO_ERROR)
 742:C:/Users/lenovo/Desktop/liteos/Project2/BearPi_LiteOS/components/connectivity/agent_tiny/atiny_lwm2m\object_access_control.c ****     {
 743:C:/Users/lenovo/Desktop/liteos/Project2/BearPi_LiteOS/components/connectivity/agent_tiny/atiny_lwm2m\object_access_control.c ****         return ret;
 744:C:/Users/lenovo/Desktop/liteos/Project2/BearPi_LiteOS/components/connectivity/agent_tiny/atiny_lwm2m\object_access_control.c ****     }
 745:C:/Users/lenovo/Desktop/liteos/Project2/BearPi_LiteOS/components/connectivity/agent_tiny/atiny_lwm2m\object_access_control.c **** 
 746:C:/Users/lenovo/Desktop/liteos/Project2/BearPi_LiteOS/components/connectivity/agent_tiny/atiny_lwm2m\object_access_control.c ****     return COAP_NO_ERROR;
 747:C:/Users/lenovo/Desktop/liteos/Project2/BearPi_LiteOS/components/connectivity/agent_tiny/atiny_lwm2m\object_access_control.c **** }
 1715              		.loc 1 747 0
 1716 0018 1846     		mov	r0, r3
 1717 001a F8BD     		pop	{r3, r4, r5, r6, r7, pc}
 1718              	.LVL247:
 1719              	.L167:
 722:C:/Users/lenovo/Desktop/liteos/Project2/BearPi_LiteOS/components/connectivity/agent_tiny/atiny_lwm2m\object_access_control.c **** 
 1720              		.loc 1 722 0
 1721 001c 0221     		movs	r1, #2
 1722 001e A069     		ldr	r0, [r4, #24]
 1723 0020 FFF7FEFF 		bl	lwm2m_list_find
 1724              	.LVL248:
 724:C:/Users/lenovo/Desktop/liteos/Project2/BearPi_LiteOS/components/connectivity/agent_tiny/atiny_lwm2m\object_access_control.c ****     {
 1725              		.loc 1 724 0
 1726 0024 88B1     		cbz	r0, .L164
 729:C:/Users/lenovo/Desktop/liteos/Project2/BearPi_LiteOS/components/connectivity/agent_tiny/atiny_lwm2m\object_access_control.c **** 
 1727              		.loc 1 729 0
 1728 0026 8068     		ldr	r0, [r0, #8]
 1729              	.LVL249:
ARM GAS  c:\Users\lenovo\AppData\Local\Temp\ccp6MF8M.s 			page 48


 731:C:/Users/lenovo/Desktop/liteos/Project2/BearPi_LiteOS/components/connectivity/agent_tiny/atiny_lwm2m\object_access_control.c ****     {
 1730              		.loc 1 731 0
 1731 0028 88B1     		cbz	r0, .L165
 736:C:/Users/lenovo/Desktop/liteos/Project2/BearPi_LiteOS/components/connectivity/agent_tiny/atiny_lwm2m\object_access_control.c ****     {
 1732              		.loc 1 736 0
 1733 002a 2B46     		mov	r3, r5
 1734 002c 3A46     		mov	r2, r7
 1735 002e 3146     		mov	r1, r6
 1736 0030 FFF7FEFF 		bl	prv_pre_auth_check
 1737              	.LVL250:
 1738 0034 0346     		mov	r3, r0
 1739 0036 0028     		cmp	r0, #0
 1740 0038 EED1     		bne	.L161
 741:C:/Users/lenovo/Desktop/liteos/Project2/BearPi_LiteOS/components/connectivity/agent_tiny/atiny_lwm2m\object_access_control.c ****     {
 1741              		.loc 1 741 0
 1742 003a 3946     		mov	r1, r7
 1743 003c 3046     		mov	r0, r6
 1744              	.LVL251:
 1745 003e FFF7FEFF 		bl	prv_post_action_check
 1746              	.LVL252:
 1747 0042 0346     		mov	r3, r0
 1748              	.LVL253:
 1749 0044 E8E7     		b	.L161
 1750              	.LVL254:
 1751              	.L162:
 714:C:/Users/lenovo/Desktop/liteos/Project2/BearPi_LiteOS/components/connectivity/agent_tiny/atiny_lwm2m\object_access_control.c ****     }
 1752              		.loc 1 714 0
 1753 0046 0023     		movs	r3, #0
 1754 0048 E6E7     		b	.L161
 1755              	.LVL255:
 1756              	.L164:
 726:C:/Users/lenovo/Desktop/liteos/Project2/BearPi_LiteOS/components/connectivity/agent_tiny/atiny_lwm2m\object_access_control.c ****     }
 1757              		.loc 1 726 0
 1758 004a 8123     		movs	r3, #129
 1759 004c E4E7     		b	.L161
 1760              	.LVL256:
 1761              	.L165:
 733:C:/Users/lenovo/Desktop/liteos/Project2/BearPi_LiteOS/components/connectivity/agent_tiny/atiny_lwm2m\object_access_control.c ****     }
 1762              		.loc 1 733 0
 1763 004e 8123     		movs	r3, #129
 1764 0050 E2E7     		b	.L161
 1765              		.cfi_endproc
 1766              	.LFE161:
 1768              		.section	.rodata
 1769              		.align	2
 1770              		.set	.LANCHOR0,. + 0
 1771              	.LC0:
 1772 0000 0000     		.short	0
 1773 0002 0100     		.short	1
 1774 0004 0200     		.short	2
 1775 0006 0300     		.short	3
 1776              		.text
 1777              	.Letext0:
 1778              		.file 2 "c:\\program files (x86)\\liteos studio\\resources\\arm-none-eabi\\arm-none-eabi\\include\
 1779              		.file 3 "c:\\program files (x86)\\liteos studio\\resources\\arm-none-eabi\\arm-none-eabi\\include\
 1780              		.file 4 "C:/Users/lenovo/Desktop/liteos/Project2/BearPi_LiteOS/components/connectivity/lwm2m/core/
 1781              		.file 5 "c:\\program files (x86)\\liteos studio\\resources\\arm-none-eabi\\lib\\gcc\\arm-none-eabi
ARM GAS  c:\Users\lenovo\AppData\Local\Temp\ccp6MF8M.s 			page 49


 1782              		.file 6 "c:\\program files (x86)\\liteos studio\\resources\\arm-none-eabi\\arm-none-eabi\\include\
 1783              		.file 7 "c:\\program files (x86)\\liteos studio\\resources\\arm-none-eabi\\arm-none-eabi\\include\
 1784              		.file 8 "c:\\program files (x86)\\liteos studio\\resources\\arm-none-eabi\\arm-none-eabi\\include\
 1785              		.file 9 "c:\\program files (x86)\\liteos studio\\resources\\arm-none-eabi\\arm-none-eabi\\include\
 1786              		.file 10 "c:\\program files (x86)\\liteos studio\\resources\\arm-none-eabi\\arm-none-eabi\\include
 1787              		.file 11 "C:/Users/lenovo/Desktop/liteos/Project2/BearPi_LiteOS/components/connectivity/lwm2m/core
 1788              		.file 12 "C:/Users/lenovo/Desktop/liteos/Project2/BearPi_LiteOS/kernel/include/los_typedef.h"
 1789              		.file 13 "C:/Users/lenovo/Desktop/liteos/Project2/BearPi_LiteOS/arch/arm/common/cmsis/core_cm4.h"
 1790              		.file 14 "C:/Users/lenovo/Desktop/liteos/Project2/BearPi_LiteOS/targets/STM32L431_BearPi/Inc/syste
 1791              		.file 15 "C:/Users/lenovo/Desktop/liteos/Project2/BearPi_LiteOS/kernel/include/los_list.h"
 1792              		.file 16 "C:/Users/lenovo/Desktop/liteos/Project2/BearPi_LiteOS/kernel/include/los_err.h"
 1793              		.file 17 "C:/Users/lenovo/Desktop/liteos/Project2/BearPi_LiteOS/arch/arm/arm-m/include/los_hwi.h"
 1794              		.file 18 "C:/Users/lenovo/Desktop/liteos/Project2/BearPi_LiteOS/kernel/include/los_tick.h"
 1795              		.file 19 "C:/Users/lenovo/Desktop/liteos/Project2/BearPi_LiteOS/kernel/include/los_event.h"
 1796              		.file 20 "C:/Users/lenovo/Desktop/liteos/Project2/BearPi_LiteOS/kernel/include/los_task.h"
 1797              		.file 21 "C:/Users/lenovo/Desktop/liteos/Project2/BearPi_LiteOS/kernel/base/include/los_task.ph"
 1798              		.file 22 "C:/Users/lenovo/Desktop/liteos/Project2/BearPi_LiteOS/targets/STM32L431_BearPi/Inc/main.
 1799              		.file 23 "C:/Users/lenovo/Desktop/liteos/Project2/BearPi_LiteOS/targets/STM32L431_BearPi/OS_CONFIG
 1800              		.file 24 "C:/Users/lenovo/Desktop/liteos/Project2/BearPi_LiteOS/kernel/include/los_config.h"
 1801              		.file 25 "C:/Users/lenovo/Desktop/liteos/Project2/BearPi_LiteOS/components/connectivity/lwm2m/core
 1802              		.file 26 "c:\\program files (x86)\\liteos studio\\resources\\arm-none-eabi\\arm-none-eabi\\include
 1803              		.file 27 "c:\\program files (x86)\\liteos studio\\resources\\arm-none-eabi\\arm-none-eabi\\include
 1804              		.file 28 "C:/Users/lenovo/Desktop/liteos/Project2/BearPi_LiteOS/components/connectivity/agent_tiny
 1805              		.file 29 "<built-in>"
ARM GAS  c:\Users\lenovo\AppData\Local\Temp\ccp6MF8M.s 			page 50


DEFINED SYMBOLS
                            *ABS*:00000000 object_access_control.c
c:\Users\lenovo\AppData\Local\Temp\ccp6MF8M.s:18     .text.prv_get_acc_instance:00000000 $t
c:\Users\lenovo\AppData\Local\Temp\ccp6MF8M.s:24     .text.prv_get_acc_instance:00000000 prv_get_acc_instance
c:\Users\lenovo\AppData\Local\Temp\ccp6MF8M.s:58     .text.prv_post_action_check:00000000 $t
c:\Users\lenovo\AppData\Local\Temp\ccp6MF8M.s:64     .text.prv_post_action_check:00000000 prv_post_action_check
c:\Users\lenovo\AppData\Local\Temp\ccp6MF8M.s:126    .text.prv_get_srv_cnt:00000000 $t
c:\Users\lenovo\AppData\Local\Temp\ccp6MF8M.s:132    .text.prv_get_srv_cnt:00000000 prv_get_srv_cnt
c:\Users\lenovo\AppData\Local\Temp\ccp6MF8M.s:170    .text.prv_delete:00000000 $t
c:\Users\lenovo\AppData\Local\Temp\ccp6MF8M.s:176    .text.prv_delete:00000000 prv_delete
c:\Users\lenovo\AppData\Local\Temp\ccp6MF8M.s:233    .text.prv_add_ac_val:00000000 $t
c:\Users\lenovo\AppData\Local\Temp\ccp6MF8M.s:239    .text.prv_add_ac_val:00000000 prv_add_ac_val
c:\Users\lenovo\AppData\Local\Temp\ccp6MF8M.s:296    .text.prv_acc_self_auth_check:00000000 $t
c:\Users\lenovo\AppData\Local\Temp\ccp6MF8M.s:302    .text.prv_acc_self_auth_check:00000000 prv_acc_self_auth_check
c:\Users\lenovo\AppData\Local\Temp\ccp6MF8M.s:372    .text.prv_get_acl_instance:00000000 $t
c:\Users\lenovo\AppData\Local\Temp\ccp6MF8M.s:378    .text.prv_get_acl_instance:00000000 prv_get_acl_instance
c:\Users\lenovo\AppData\Local\Temp\ccp6MF8M.s:418    .text.prv_check_instance_auth:00000000 $t
c:\Users\lenovo\AppData\Local\Temp\ccp6MF8M.s:424    .text.prv_check_instance_auth:00000000 prv_check_instance_auth
c:\Users\lenovo\AppData\Local\Temp\ccp6MF8M.s:494    .text.prv_pre_auth_check:00000000 $t
c:\Users\lenovo\AppData\Local\Temp\ccp6MF8M.s:500    .text.prv_pre_auth_check:00000000 prv_pre_auth_check
c:\Users\lenovo\AppData\Local\Temp\ccp6MF8M.s:596    .text.prv_write_resources:00000000 $t
c:\Users\lenovo\AppData\Local\Temp\ccp6MF8M.s:602    .text.prv_write_resources:00000000 prv_write_resources
c:\Users\lenovo\AppData\Local\Temp\ccp6MF8M.s:674    .text.prv_write_resources:0000004c $d
c:\Users\lenovo\AppData\Local\Temp\ccp6MF8M.s:678    .text.prv_write_resources:0000005c $t
c:\Users\lenovo\AppData\Local\Temp\ccp6MF8M.s:931    .text.prv_create:00000000 $t
c:\Users\lenovo\AppData\Local\Temp\ccp6MF8M.s:937    .text.prv_create:00000000 prv_create
c:\Users\lenovo\AppData\Local\Temp\ccp6MF8M.s:1027   .text.prv_write:00000000 $t
c:\Users\lenovo\AppData\Local\Temp\ccp6MF8M.s:1033   .text.prv_write:00000000 prv_write
c:\Users\lenovo\AppData\Local\Temp\ccp6MF8M.s:1063   .text.prv_set_tlv:00000000 $t
c:\Users\lenovo\AppData\Local\Temp\ccp6MF8M.s:1069   .text.prv_set_tlv:00000000 prv_set_tlv
c:\Users\lenovo\AppData\Local\Temp\ccp6MF8M.s:1093   .text.prv_set_tlv:00000010 $d
c:\Users\lenovo\AppData\Local\Temp\ccp6MF8M.s:1097   .text.prv_set_tlv:00000014 $t
c:\Users\lenovo\AppData\Local\Temp\ccp6MF8M.s:1230   .text.prv_read:00000000 $t
c:\Users\lenovo\AppData\Local\Temp\ccp6MF8M.s:1236   .text.prv_read:00000000 prv_read
c:\Users\lenovo\AppData\Local\Temp\ccp6MF8M.s:1401   .text.prv_read:000000c8 $d
c:\Users\lenovo\AppData\Local\Temp\ccp6MF8M.s:1406   .text.acc_ctrl_create_object:00000000 $t
c:\Users\lenovo\AppData\Local\Temp\ccp6MF8M.s:1413   .text.acc_ctrl_create_object:00000000 acc_ctrl_create_object
c:\Users\lenovo\AppData\Local\Temp\ccp6MF8M.s:1460   .text.acc_ctrl_create_object:0000002c $d
c:\Users\lenovo\AppData\Local\Temp\ccp6MF8M.s:1468   .text.acl_ctrl_free_object:00000000 $t
c:\Users\lenovo\AppData\Local\Temp\ccp6MF8M.s:1475   .text.acl_ctrl_free_object:00000000 acl_ctrl_free_object
c:\Users\lenovo\AppData\Local\Temp\ccp6MF8M.s:1525   .text.acc_ctrl_obj_add_inst:00000000 $t
c:\Users\lenovo\AppData\Local\Temp\ccp6MF8M.s:1532   .text.acc_ctrl_obj_add_inst:00000000 acc_ctrl_obj_add_inst
c:\Users\lenovo\AppData\Local\Temp\ccp6MF8M.s:1627   .text.acc_ctrl_oi_add_ac_val:00000000 $t
c:\Users\lenovo\AppData\Local\Temp\ccp6MF8M.s:1634   .text.acc_ctrl_oi_add_ac_val:00000000 acc_ctrl_oi_add_ac_val
c:\Users\lenovo\AppData\Local\Temp\ccp6MF8M.s:1676   .text.acc_auth_operate:00000000 $t
c:\Users\lenovo\AppData\Local\Temp\ccp6MF8M.s:1683   .text.acc_auth_operate:00000000 acc_auth_operate
c:\Users\lenovo\AppData\Local\Temp\ccp6MF8M.s:1769   .rodata:00000000 $d

UNDEFINED SYMBOLS
lwm2m_list_remove
lwm2m_list_free
lwm2m_free
lwm2m_malloc
lwm2m_list_add
lwm2m_list_find
lwm2m_data_decode_int
lwm2m_data_encode_int
ARM GAS  c:\Users\lenovo\AppData\Local\Temp\ccp6MF8M.s 			page 51


lwm2m_data_new
lwm2m_data_encode_instances
memset
