ARM GAS  c:\Users\lenovo\AppData\Local\Temp\cc1lzG6Z.s 			page 1


   1              		.cpu cortex-m4
   2              		.eabi_attribute 27, 1
   3              		.eabi_attribute 28, 1
   4              		.eabi_attribute 20, 1
   5              		.eabi_attribute 21, 1
   6              		.eabi_attribute 23, 3
   7              		.eabi_attribute 24, 1
   8              		.eabi_attribute 25, 1
   9              		.eabi_attribute 26, 1
  10              		.eabi_attribute 30, 1
  11              		.eabi_attribute 34, 1
  12              		.eabi_attribute 18, 4
  13              		.file	"object_connectivity_moni.c"
  14              		.text
  15              	.Ltext0:
  16              		.cfi_sections	.debug_frame
  17              		.section	.text.prv_set_value,"ax",%progbits
  18              		.align	1
  19              		.syntax unified
  20              		.thumb
  21              		.thumb_func
  22              		.fpu fpv4-sp-d16
  24              	prv_set_value:
  25              	.LFB134:
  26              		.file 1 "C:/Users/lenovo/Desktop/liteos/Project2/BearPi_LiteOS/components/connectivity/agent_tiny/
   1:C:/Users/lenovo/Desktop/liteos/Project2/BearPi_LiteOS/components/connectivity/agent_tiny/atiny_lwm2m\object_connectivity_moni.c **** /*----------------------------------------------------------------------------
   2:C:/Users/lenovo/Desktop/liteos/Project2/BearPi_LiteOS/components/connectivity/agent_tiny/atiny_lwm2m\object_connectivity_moni.c ****  * Copyright (c) <2016-2018>, <Huawei Technologies Co., Ltd>
   3:C:/Users/lenovo/Desktop/liteos/Project2/BearPi_LiteOS/components/connectivity/agent_tiny/atiny_lwm2m\object_connectivity_moni.c ****  * All rights reserved.
   4:C:/Users/lenovo/Desktop/liteos/Project2/BearPi_LiteOS/components/connectivity/agent_tiny/atiny_lwm2m\object_connectivity_moni.c ****  * Redistribution and use in source and binary forms, with or without modification,
   5:C:/Users/lenovo/Desktop/liteos/Project2/BearPi_LiteOS/components/connectivity/agent_tiny/atiny_lwm2m\object_connectivity_moni.c ****  * are permitted provided that the following conditions are met:
   6:C:/Users/lenovo/Desktop/liteos/Project2/BearPi_LiteOS/components/connectivity/agent_tiny/atiny_lwm2m\object_connectivity_moni.c ****  * 1. Redistributions of source code must retain the above copyright notice, this list of
   7:C:/Users/lenovo/Desktop/liteos/Project2/BearPi_LiteOS/components/connectivity/agent_tiny/atiny_lwm2m\object_connectivity_moni.c ****  * conditions and the following disclaimer.
   8:C:/Users/lenovo/Desktop/liteos/Project2/BearPi_LiteOS/components/connectivity/agent_tiny/atiny_lwm2m\object_connectivity_moni.c ****  * 2. Redistributions in binary form must reproduce the above copyright notice, this list
   9:C:/Users/lenovo/Desktop/liteos/Project2/BearPi_LiteOS/components/connectivity/agent_tiny/atiny_lwm2m\object_connectivity_moni.c ****  * of conditions and the following disclaimer in the documentation and/or other materials
  10:C:/Users/lenovo/Desktop/liteos/Project2/BearPi_LiteOS/components/connectivity/agent_tiny/atiny_lwm2m\object_connectivity_moni.c ****  * provided with the distribution.
  11:C:/Users/lenovo/Desktop/liteos/Project2/BearPi_LiteOS/components/connectivity/agent_tiny/atiny_lwm2m\object_connectivity_moni.c ****  * 3. Neither the name of the copyright holder nor the names of its contributors may be used
  12:C:/Users/lenovo/Desktop/liteos/Project2/BearPi_LiteOS/components/connectivity/agent_tiny/atiny_lwm2m\object_connectivity_moni.c ****  * to endorse or promote products derived from this software without specific prior written
  13:C:/Users/lenovo/Desktop/liteos/Project2/BearPi_LiteOS/components/connectivity/agent_tiny/atiny_lwm2m\object_connectivity_moni.c ****  * permission.
  14:C:/Users/lenovo/Desktop/liteos/Project2/BearPi_LiteOS/components/connectivity/agent_tiny/atiny_lwm2m\object_connectivity_moni.c ****  * THIS SOFTWARE IS PROVIDED BY THE COPYRIGHT HOLDERS AND CONTRIBUTORS
  15:C:/Users/lenovo/Desktop/liteos/Project2/BearPi_LiteOS/components/connectivity/agent_tiny/atiny_lwm2m\object_connectivity_moni.c ****  * "AS IS" AND ANY EXPRESS OR IMPLIED WARRANTIES, INCLUDING, BUT NOT LIMITED TO,
  16:C:/Users/lenovo/Desktop/liteos/Project2/BearPi_LiteOS/components/connectivity/agent_tiny/atiny_lwm2m\object_connectivity_moni.c ****  * THE IMPLIED WARRANTIES OF MERCHANTABILITY AND FITNESS FOR A PARTICULAR
  17:C:/Users/lenovo/Desktop/liteos/Project2/BearPi_LiteOS/components/connectivity/agent_tiny/atiny_lwm2m\object_connectivity_moni.c ****  * PURPOSE ARE DISCLAIMED. IN NO EVENT SHALL THE COPYRIGHT HOLDER OR
  18:C:/Users/lenovo/Desktop/liteos/Project2/BearPi_LiteOS/components/connectivity/agent_tiny/atiny_lwm2m\object_connectivity_moni.c ****  * CONTRIBUTORS BE LIABLE FOR ANY DIRECT, INDIRECT, INCIDENTAL, SPECIAL,
  19:C:/Users/lenovo/Desktop/liteos/Project2/BearPi_LiteOS/components/connectivity/agent_tiny/atiny_lwm2m\object_connectivity_moni.c ****  * EXEMPLARY, OR CONSEQUENTIAL DAMAGES (INCLUDING, BUT NOT LIMITED TO,
  20:C:/Users/lenovo/Desktop/liteos/Project2/BearPi_LiteOS/components/connectivity/agent_tiny/atiny_lwm2m\object_connectivity_moni.c ****  * PROCUREMENT OF SUBSTITUTE GOODS OR SERVICES; LOSS OF USE, DATA, OR PROFITS;
  21:C:/Users/lenovo/Desktop/liteos/Project2/BearPi_LiteOS/components/connectivity/agent_tiny/atiny_lwm2m\object_connectivity_moni.c ****  * OR BUSINESS INTERRUPTION) HOWEVER CAUSED AND ON ANY THEORY OF LIABILITY,
  22:C:/Users/lenovo/Desktop/liteos/Project2/BearPi_LiteOS/components/connectivity/agent_tiny/atiny_lwm2m\object_connectivity_moni.c ****  * WHETHER IN CONTRACT, STRICT LIABILITY, OR TORT (INCLUDING NEGLIGENCE OR
  23:C:/Users/lenovo/Desktop/liteos/Project2/BearPi_LiteOS/components/connectivity/agent_tiny/atiny_lwm2m\object_connectivity_moni.c ****  * OTHERWISE) ARISING IN ANY WAY OUT OF THE USE OF THIS SOFTWARE, EVEN IF
  24:C:/Users/lenovo/Desktop/liteos/Project2/BearPi_LiteOS/components/connectivity/agent_tiny/atiny_lwm2m\object_connectivity_moni.c ****  * ADVISED OF THE POSSIBILITY OF SUCH DAMAGE.
  25:C:/Users/lenovo/Desktop/liteos/Project2/BearPi_LiteOS/components/connectivity/agent_tiny/atiny_lwm2m\object_connectivity_moni.c ****  *---------------------------------------------------------------------------*/
  26:C:/Users/lenovo/Desktop/liteos/Project2/BearPi_LiteOS/components/connectivity/agent_tiny/atiny_lwm2m\object_connectivity_moni.c **** /*----------------------------------------------------------------------------
  27:C:/Users/lenovo/Desktop/liteos/Project2/BearPi_LiteOS/components/connectivity/agent_tiny/atiny_lwm2m\object_connectivity_moni.c ****  * Notice of Export Control Law
  28:C:/Users/lenovo/Desktop/liteos/Project2/BearPi_LiteOS/components/connectivity/agent_tiny/atiny_lwm2m\object_connectivity_moni.c ****  * ===============================================
  29:C:/Users/lenovo/Desktop/liteos/Project2/BearPi_LiteOS/components/connectivity/agent_tiny/atiny_lwm2m\object_connectivity_moni.c ****  * Huawei LiteOS may be subject to applicable export control laws and regulations, which might
  30:C:/Users/lenovo/Desktop/liteos/Project2/BearPi_LiteOS/components/connectivity/agent_tiny/atiny_lwm2m\object_connectivity_moni.c ****  * include those applicable to Huawei LiteOS of U.S. and the country in which you are located.
  31:C:/Users/lenovo/Desktop/liteos/Project2/BearPi_LiteOS/components/connectivity/agent_tiny/atiny_lwm2m\object_connectivity_moni.c ****  * Import, export and usage of Huawei LiteOS in any manner by you shall be in compliance with such
  32:C:/Users/lenovo/Desktop/liteos/Project2/BearPi_LiteOS/components/connectivity/agent_tiny/atiny_lwm2m\object_connectivity_moni.c ****  * applicable export control laws and regulations.
ARM GAS  c:\Users\lenovo\AppData\Local\Temp\cc1lzG6Z.s 			page 2


  33:C:/Users/lenovo/Desktop/liteos/Project2/BearPi_LiteOS/components/connectivity/agent_tiny/atiny_lwm2m\object_connectivity_moni.c ****  *---------------------------------------------------------------------------*/
  34:C:/Users/lenovo/Desktop/liteos/Project2/BearPi_LiteOS/components/connectivity/agent_tiny/atiny_lwm2m\object_connectivity_moni.c **** 
  35:C:/Users/lenovo/Desktop/liteos/Project2/BearPi_LiteOS/components/connectivity/agent_tiny/atiny_lwm2m\object_connectivity_moni.c **** /*******************************************************************************
  36:C:/Users/lenovo/Desktop/liteos/Project2/BearPi_LiteOS/components/connectivity/agent_tiny/atiny_lwm2m\object_connectivity_moni.c ****  *
  37:C:/Users/lenovo/Desktop/liteos/Project2/BearPi_LiteOS/components/connectivity/agent_tiny/atiny_lwm2m\object_connectivity_moni.c ****  * Copyright (c) 2014 Bosch Software Innovations GmbH Germany.
  38:C:/Users/lenovo/Desktop/liteos/Project2/BearPi_LiteOS/components/connectivity/agent_tiny/atiny_lwm2m\object_connectivity_moni.c ****  * All rights reserved. This program and the accompanying materials
  39:C:/Users/lenovo/Desktop/liteos/Project2/BearPi_LiteOS/components/connectivity/agent_tiny/atiny_lwm2m\object_connectivity_moni.c ****  * are made available under the terms of the Eclipse Public License v1.0
  40:C:/Users/lenovo/Desktop/liteos/Project2/BearPi_LiteOS/components/connectivity/agent_tiny/atiny_lwm2m\object_connectivity_moni.c ****  * and Eclipse Distribution License v1.0 which accompany this distribution.
  41:C:/Users/lenovo/Desktop/liteos/Project2/BearPi_LiteOS/components/connectivity/agent_tiny/atiny_lwm2m\object_connectivity_moni.c ****  *
  42:C:/Users/lenovo/Desktop/liteos/Project2/BearPi_LiteOS/components/connectivity/agent_tiny/atiny_lwm2m\object_connectivity_moni.c ****  * The Eclipse Public License is available at
  43:C:/Users/lenovo/Desktop/liteos/Project2/BearPi_LiteOS/components/connectivity/agent_tiny/atiny_lwm2m\object_connectivity_moni.c ****  *    http://www.eclipse.org/legal/epl-v10.html
  44:C:/Users/lenovo/Desktop/liteos/Project2/BearPi_LiteOS/components/connectivity/agent_tiny/atiny_lwm2m\object_connectivity_moni.c ****  * The Eclipse Distribution License is available at
  45:C:/Users/lenovo/Desktop/liteos/Project2/BearPi_LiteOS/components/connectivity/agent_tiny/atiny_lwm2m\object_connectivity_moni.c ****  *    http://www.eclipse.org/org/documents/edl-v10.php.
  46:C:/Users/lenovo/Desktop/liteos/Project2/BearPi_LiteOS/components/connectivity/agent_tiny/atiny_lwm2m\object_connectivity_moni.c ****  *
  47:C:/Users/lenovo/Desktop/liteos/Project2/BearPi_LiteOS/components/connectivity/agent_tiny/atiny_lwm2m\object_connectivity_moni.c ****  * Contributors:
  48:C:/Users/lenovo/Desktop/liteos/Project2/BearPi_LiteOS/components/connectivity/agent_tiny/atiny_lwm2m\object_connectivity_moni.c ****  *    Bosch Software Innovations GmbH - Please refer to git log
  49:C:/Users/lenovo/Desktop/liteos/Project2/BearPi_LiteOS/components/connectivity/agent_tiny/atiny_lwm2m\object_connectivity_moni.c ****  *    Pascal Rieux - Please refer to git log
  50:C:/Users/lenovo/Desktop/liteos/Project2/BearPi_LiteOS/components/connectivity/agent_tiny/atiny_lwm2m\object_connectivity_moni.c ****  *
  51:C:/Users/lenovo/Desktop/liteos/Project2/BearPi_LiteOS/components/connectivity/agent_tiny/atiny_lwm2m\object_connectivity_moni.c ****  *******************************************************************************/
  52:C:/Users/lenovo/Desktop/liteos/Project2/BearPi_LiteOS/components/connectivity/agent_tiny/atiny_lwm2m\object_connectivity_moni.c **** 
  53:C:/Users/lenovo/Desktop/liteos/Project2/BearPi_LiteOS/components/connectivity/agent_tiny/atiny_lwm2m\object_connectivity_moni.c **** /*
  54:C:/Users/lenovo/Desktop/liteos/Project2/BearPi_LiteOS/components/connectivity/agent_tiny/atiny_lwm2m\object_connectivity_moni.c ****  *  This Connectivity Monitoring object is optional and has a single instance
  55:C:/Users/lenovo/Desktop/liteos/Project2/BearPi_LiteOS/components/connectivity/agent_tiny/atiny_lwm2m\object_connectivity_moni.c ****  *
  56:C:/Users/lenovo/Desktop/liteos/Project2/BearPi_LiteOS/components/connectivity/agent_tiny/atiny_lwm2m\object_connectivity_moni.c ****  *  Resources:
  57:C:/Users/lenovo/Desktop/liteos/Project2/BearPi_LiteOS/components/connectivity/agent_tiny/atiny_lwm2m\object_connectivity_moni.c ****  *
  58:C:/Users/lenovo/Desktop/liteos/Project2/BearPi_LiteOS/components/connectivity/agent_tiny/atiny_lwm2m\object_connectivity_moni.c ****  *          Name             | ID | Oper. | Inst. | Mand.|  Type   | Range | Units |
  59:C:/Users/lenovo/Desktop/liteos/Project2/BearPi_LiteOS/components/connectivity/agent_tiny/atiny_lwm2m\object_connectivity_moni.c ****  *  Network Bearer           |  0 |  R    | Single|  Yes | Integer |       |       |
  60:C:/Users/lenovo/Desktop/liteos/Project2/BearPi_LiteOS/components/connectivity/agent_tiny/atiny_lwm2m\object_connectivity_moni.c ****  *  Available Network Bearer |  1 |  R    | Multi |  Yes | Integer |       |       |
  61:C:/Users/lenovo/Desktop/liteos/Project2/BearPi_LiteOS/components/connectivity/agent_tiny/atiny_lwm2m\object_connectivity_moni.c ****  *  Radio Signal Strength    |  2 |  R    | Single|  Yes | Integer |       | dBm   |
  62:C:/Users/lenovo/Desktop/liteos/Project2/BearPi_LiteOS/components/connectivity/agent_tiny/atiny_lwm2m\object_connectivity_moni.c ****  *  Link Quality             |  3 |  R    | Single|  No  | Integer | 0-100 |   %   |
  63:C:/Users/lenovo/Desktop/liteos/Project2/BearPi_LiteOS/components/connectivity/agent_tiny/atiny_lwm2m\object_connectivity_moni.c ****  *  IP Addresses             |  4 |  R    | Multi |  Yes | String  |       |       |
  64:C:/Users/lenovo/Desktop/liteos/Project2/BearPi_LiteOS/components/connectivity/agent_tiny/atiny_lwm2m\object_connectivity_moni.c ****  *  Router IP Addresses      |  5 |  R    | Multi |  No  | String  |       |       |
  65:C:/Users/lenovo/Desktop/liteos/Project2/BearPi_LiteOS/components/connectivity/agent_tiny/atiny_lwm2m\object_connectivity_moni.c ****  *  Link Utilization         |  6 |  R    | Single|  No  | Integer | 0-100 |   %   |
  66:C:/Users/lenovo/Desktop/liteos/Project2/BearPi_LiteOS/components/connectivity/agent_tiny/atiny_lwm2m\object_connectivity_moni.c ****  *  APN                      |  7 |  R    | Multi |  No  | String  |       |       |
  67:C:/Users/lenovo/Desktop/liteos/Project2/BearPi_LiteOS/components/connectivity/agent_tiny/atiny_lwm2m\object_connectivity_moni.c ****  *  Cell ID                  |  8 |  R    | Single|  No  | Integer |       |       |
  68:C:/Users/lenovo/Desktop/liteos/Project2/BearPi_LiteOS/components/connectivity/agent_tiny/atiny_lwm2m\object_connectivity_moni.c ****  *  SMNC                     |  9 |  R    | Single|  No  | Integer | 0-999 |   %   |
  69:C:/Users/lenovo/Desktop/liteos/Project2/BearPi_LiteOS/components/connectivity/agent_tiny/atiny_lwm2m\object_connectivity_moni.c ****  *  SMCC                     | 10 |  R    | Single|  No  | Integer | 0-999 |       |
  70:C:/Users/lenovo/Desktop/liteos/Project2/BearPi_LiteOS/components/connectivity/agent_tiny/atiny_lwm2m\object_connectivity_moni.c ****  *
  71:C:/Users/lenovo/Desktop/liteos/Project2/BearPi_LiteOS/components/connectivity/agent_tiny/atiny_lwm2m\object_connectivity_moni.c ****  */
  72:C:/Users/lenovo/Desktop/liteos/Project2/BearPi_LiteOS/components/connectivity/agent_tiny/atiny_lwm2m\object_connectivity_moni.c **** 
  73:C:/Users/lenovo/Desktop/liteos/Project2/BearPi_LiteOS/components/connectivity/agent_tiny/atiny_lwm2m\object_connectivity_moni.c **** #include "internals.h"
  74:C:/Users/lenovo/Desktop/liteos/Project2/BearPi_LiteOS/components/connectivity/agent_tiny/atiny_lwm2m\object_connectivity_moni.c **** #include "atiny_lwm2m/agenttiny.h"
  75:C:/Users/lenovo/Desktop/liteos/Project2/BearPi_LiteOS/components/connectivity/agent_tiny/atiny_lwm2m\object_connectivity_moni.c **** 
  76:C:/Users/lenovo/Desktop/liteos/Project2/BearPi_LiteOS/components/connectivity/agent_tiny/atiny_lwm2m\object_connectivity_moni.c **** // Resource Id's:
  77:C:/Users/lenovo/Desktop/liteos/Project2/BearPi_LiteOS/components/connectivity/agent_tiny/atiny_lwm2m\object_connectivity_moni.c **** #define RES_M_NETWORK_BEARER            0
  78:C:/Users/lenovo/Desktop/liteos/Project2/BearPi_LiteOS/components/connectivity/agent_tiny/atiny_lwm2m\object_connectivity_moni.c **** #define RES_M_AVL_NETWORK_BEARER        1
  79:C:/Users/lenovo/Desktop/liteos/Project2/BearPi_LiteOS/components/connectivity/agent_tiny/atiny_lwm2m\object_connectivity_moni.c **** #define RES_M_RADIO_SIGNAL_STRENGTH     2
  80:C:/Users/lenovo/Desktop/liteos/Project2/BearPi_LiteOS/components/connectivity/agent_tiny/atiny_lwm2m\object_connectivity_moni.c **** #define RES_O_LINK_QUALITY              3
  81:C:/Users/lenovo/Desktop/liteos/Project2/BearPi_LiteOS/components/connectivity/agent_tiny/atiny_lwm2m\object_connectivity_moni.c **** #define RES_M_IP_ADDRESSES              4
  82:C:/Users/lenovo/Desktop/liteos/Project2/BearPi_LiteOS/components/connectivity/agent_tiny/atiny_lwm2m\object_connectivity_moni.c **** #define RES_O_ROUTER_IP_ADDRESS         5
  83:C:/Users/lenovo/Desktop/liteos/Project2/BearPi_LiteOS/components/connectivity/agent_tiny/atiny_lwm2m\object_connectivity_moni.c **** #define RES_O_LINK_UTILIZATION          6
  84:C:/Users/lenovo/Desktop/liteos/Project2/BearPi_LiteOS/components/connectivity/agent_tiny/atiny_lwm2m\object_connectivity_moni.c **** #define RES_O_APN                       7
  85:C:/Users/lenovo/Desktop/liteos/Project2/BearPi_LiteOS/components/connectivity/agent_tiny/atiny_lwm2m\object_connectivity_moni.c **** #define RES_O_CELL_ID                   8
  86:C:/Users/lenovo/Desktop/liteos/Project2/BearPi_LiteOS/components/connectivity/agent_tiny/atiny_lwm2m\object_connectivity_moni.c **** #define RES_O_SMNC                      9
  87:C:/Users/lenovo/Desktop/liteos/Project2/BearPi_LiteOS/components/connectivity/agent_tiny/atiny_lwm2m\object_connectivity_moni.c **** #define RES_O_SMCC                      10
  88:C:/Users/lenovo/Desktop/liteos/Project2/BearPi_LiteOS/components/connectivity/agent_tiny/atiny_lwm2m\object_connectivity_moni.c **** 
  89:C:/Users/lenovo/Desktop/liteos/Project2/BearPi_LiteOS/components/connectivity/agent_tiny/atiny_lwm2m\object_connectivity_moni.c **** #define VALUE_NETWORK_BEARER_GSM    0   //GSM see
ARM GAS  c:\Users\lenovo\AppData\Local\Temp\cc1lzG6Z.s 			page 3


  90:C:/Users/lenovo/Desktop/liteos/Project2/BearPi_LiteOS/components/connectivity/agent_tiny/atiny_lwm2m\object_connectivity_moni.c **** #define VALUE_AVL_NETWORK_BEARER_1  0   //GSM
  91:C:/Users/lenovo/Desktop/liteos/Project2/BearPi_LiteOS/components/connectivity/agent_tiny/atiny_lwm2m\object_connectivity_moni.c **** #define VALUE_AVL_NETWORK_BEARER_2  21  //WLAN
  92:C:/Users/lenovo/Desktop/liteos/Project2/BearPi_LiteOS/components/connectivity/agent_tiny/atiny_lwm2m\object_connectivity_moni.c **** #define VALUE_AVL_NETWORK_BEARER_3  41  //Ethernet
  93:C:/Users/lenovo/Desktop/liteos/Project2/BearPi_LiteOS/components/connectivity/agent_tiny/atiny_lwm2m\object_connectivity_moni.c **** #define VALUE_AVL_NETWORK_BEARER_4  42  //DSL
  94:C:/Users/lenovo/Desktop/liteos/Project2/BearPi_LiteOS/components/connectivity/agent_tiny/atiny_lwm2m\object_connectivity_moni.c **** #define VALUE_AVL_NETWORK_BEARER_5  43  //PLC
  95:C:/Users/lenovo/Desktop/liteos/Project2/BearPi_LiteOS/components/connectivity/agent_tiny/atiny_lwm2m\object_connectivity_moni.c **** #define VALUE_IP_ADDRESS_1              "192.168.178.101"
  96:C:/Users/lenovo/Desktop/liteos/Project2/BearPi_LiteOS/components/connectivity/agent_tiny/atiny_lwm2m\object_connectivity_moni.c **** #define VALUE_IP_ADDRESS_2              "192.168.178.102"
  97:C:/Users/lenovo/Desktop/liteos/Project2/BearPi_LiteOS/components/connectivity/agent_tiny/atiny_lwm2m\object_connectivity_moni.c **** #define VALUE_ROUTER_IP_ADDRESS_1       "192.168.178.001"
  98:C:/Users/lenovo/Desktop/liteos/Project2/BearPi_LiteOS/components/connectivity/agent_tiny/atiny_lwm2m\object_connectivity_moni.c **** #define VALUE_ROUTER_IP_ADDRESS_2       "192.168.178.002"
  99:C:/Users/lenovo/Desktop/liteos/Project2/BearPi_LiteOS/components/connectivity/agent_tiny/atiny_lwm2m\object_connectivity_moni.c **** #define VALUE_APN_1                     "web.vodafone.de"
 100:C:/Users/lenovo/Desktop/liteos/Project2/BearPi_LiteOS/components/connectivity/agent_tiny/atiny_lwm2m\object_connectivity_moni.c **** #define VALUE_APN_2                     "cda.vodafone.de"
 101:C:/Users/lenovo/Desktop/liteos/Project2/BearPi_LiteOS/components/connectivity/agent_tiny/atiny_lwm2m\object_connectivity_moni.c **** #define VALUE_CELL_ID                   69696969
 102:C:/Users/lenovo/Desktop/liteos/Project2/BearPi_LiteOS/components/connectivity/agent_tiny/atiny_lwm2m\object_connectivity_moni.c **** #define VALUE_RADIO_SIGNAL_STRENGTH     80                  //dBm
 103:C:/Users/lenovo/Desktop/liteos/Project2/BearPi_LiteOS/components/connectivity/agent_tiny/atiny_lwm2m\object_connectivity_moni.c **** #define VALUE_LINK_QUALITY              98
 104:C:/Users/lenovo/Desktop/liteos/Project2/BearPi_LiteOS/components/connectivity/agent_tiny/atiny_lwm2m\object_connectivity_moni.c **** #define VALUE_LINK_UTILIZATION          666
 105:C:/Users/lenovo/Desktop/liteos/Project2/BearPi_LiteOS/components/connectivity/agent_tiny/atiny_lwm2m\object_connectivity_moni.c **** #define VALUE_SMNC                      33
 106:C:/Users/lenovo/Desktop/liteos/Project2/BearPi_LiteOS/components/connectivity/agent_tiny/atiny_lwm2m\object_connectivity_moni.c **** #define VALUE_SMCC                      44
 107:C:/Users/lenovo/Desktop/liteos/Project2/BearPi_LiteOS/components/connectivity/agent_tiny/atiny_lwm2m\object_connectivity_moni.c **** #define IP4ADDR_STRLEN_MAX              16
 108:C:/Users/lenovo/Desktop/liteos/Project2/BearPi_LiteOS/components/connectivity/agent_tiny/atiny_lwm2m\object_connectivity_moni.c **** #define IPADDRT_LIMIT 2
 109:C:/Users/lenovo/Desktop/liteos/Project2/BearPi_LiteOS/components/connectivity/agent_tiny/atiny_lwm2m\object_connectivity_moni.c **** typedef struct
 110:C:/Users/lenovo/Desktop/liteos/Project2/BearPi_LiteOS/components/connectivity/agent_tiny/atiny_lwm2m\object_connectivity_moni.c **** {
 111:C:/Users/lenovo/Desktop/liteos/Project2/BearPi_LiteOS/components/connectivity/agent_tiny/atiny_lwm2m\object_connectivity_moni.c ****     char ipAddresses[IPADDRT_LIMIT][IP4ADDR_STRLEN_MAX];        // limited to 2!
 112:C:/Users/lenovo/Desktop/liteos/Project2/BearPi_LiteOS/components/connectivity/agent_tiny/atiny_lwm2m\object_connectivity_moni.c ****     char routerIpAddresses[IPADDRT_LIMIT][IP4ADDR_STRLEN_MAX];  // limited to 2!
 113:C:/Users/lenovo/Desktop/liteos/Project2/BearPi_LiteOS/components/connectivity/agent_tiny/atiny_lwm2m\object_connectivity_moni.c ****     long cellId;
 114:C:/Users/lenovo/Desktop/liteos/Project2/BearPi_LiteOS/components/connectivity/agent_tiny/atiny_lwm2m\object_connectivity_moni.c ****     int signalStrength;
 115:C:/Users/lenovo/Desktop/liteos/Project2/BearPi_LiteOS/components/connectivity/agent_tiny/atiny_lwm2m\object_connectivity_moni.c ****     int linkQuality;
 116:C:/Users/lenovo/Desktop/liteos/Project2/BearPi_LiteOS/components/connectivity/agent_tiny/atiny_lwm2m\object_connectivity_moni.c ****     int linkUtilization;
 117:C:/Users/lenovo/Desktop/liteos/Project2/BearPi_LiteOS/components/connectivity/agent_tiny/atiny_lwm2m\object_connectivity_moni.c **** } conn_m_data_t;
 118:C:/Users/lenovo/Desktop/liteos/Project2/BearPi_LiteOS/components/connectivity/agent_tiny/atiny_lwm2m\object_connectivity_moni.c **** 
 119:C:/Users/lenovo/Desktop/liteos/Project2/BearPi_LiteOS/components/connectivity/agent_tiny/atiny_lwm2m\object_connectivity_moni.c **** static uint8_t prv_set_value(lwm2m_data_t *dataP,
 120:C:/Users/lenovo/Desktop/liteos/Project2/BearPi_LiteOS/components/connectivity/agent_tiny/atiny_lwm2m\object_connectivity_moni.c ****                              conn_m_data_t *connDataP)
 121:C:/Users/lenovo/Desktop/liteos/Project2/BearPi_LiteOS/components/connectivity/agent_tiny/atiny_lwm2m\object_connectivity_moni.c **** {
  27              		.loc 1 121 0
  28              		.cfi_startproc
  29              		@ args = 0, pretend = 0, frame = 8
  30              		@ frame_needed = 0, uses_anonymous_args = 0
  31              	.LVL0:
  32 0000 F0B5     		push	{r4, r5, r6, r7, lr}
  33              	.LCFI0:
  34              		.cfi_def_cfa_offset 20
  35              		.cfi_offset 4, -20
  36              		.cfi_offset 5, -16
  37              		.cfi_offset 6, -12
  38              		.cfi_offset 7, -8
  39              		.cfi_offset 14, -4
  40 0002 83B0     		sub	sp, sp, #12
  41              	.LCFI1:
  42              		.cfi_def_cfa_offset 32
  43 0004 0446     		mov	r4, r0
  44 0006 0D46     		mov	r5, r1
 122:C:/Users/lenovo/Desktop/liteos/Project2/BearPi_LiteOS/components/connectivity/agent_tiny/atiny_lwm2m\object_connectivity_moni.c ****     switch (dataP->id)
  45              		.loc 1 122 0
  46 0008 4388     		ldrh	r3, [r0, #2]
  47 000a 0A2B     		cmp	r3, #10
  48 000c 00F2B780 		bhi	.L20
  49 0010 DFE803F0 		tbb	[pc, r3]
  50              	.L4:
ARM GAS  c:\Users\lenovo\AppData\Local\Temp\cc1lzG6Z.s 			page 4


  51 0014 06       		.byte	(.L3-.L4)/2
  52 0015 0E       		.byte	(.L5-.L4)/2
  53 0016 2B       		.byte	(.L6-.L4)/2
  54 0017 3A       		.byte	(.L7-.L4)/2
  55 0018 47       		.byte	(.L8-.L4)/2
  56 0019 5F       		.byte	(.L9-.L4)/2
  57 001a 79       		.byte	(.L10-.L4)/2
  58 001b 86       		.byte	(.L11-.L4)/2
  59 001c 98       		.byte	(.L12-.L4)/2
  60 001d A7       		.byte	(.L13-.L4)/2
  61 001e AE       		.byte	(.L14-.L4)/2
  62 001f 00       		.p2align 1
  63              	.L3:
 123:C:/Users/lenovo/Desktop/liteos/Project2/BearPi_LiteOS/components/connectivity/agent_tiny/atiny_lwm2m\object_connectivity_moni.c ****     {
 124:C:/Users/lenovo/Desktop/liteos/Project2/BearPi_LiteOS/components/connectivity/agent_tiny/atiny_lwm2m\object_connectivity_moni.c ****     case RES_M_NETWORK_BEARER:
 125:C:/Users/lenovo/Desktop/liteos/Project2/BearPi_LiteOS/components/connectivity/agent_tiny/atiny_lwm2m\object_connectivity_moni.c ****         lwm2m_data_encode_int(VALUE_NETWORK_BEARER_GSM, dataP);
  64              		.loc 1 125 0
  65 0020 0246     		mov	r2, r0
  66 0022 0020     		movs	r0, #0
  67              	.LVL1:
  68 0024 0021     		movs	r1, #0
  69              	.LVL2:
  70 0026 FFF7FEFF 		bl	lwm2m_data_encode_int
  71              	.LVL3:
 126:C:/Users/lenovo/Desktop/liteos/Project2/BearPi_LiteOS/components/connectivity/agent_tiny/atiny_lwm2m\object_connectivity_moni.c ****         return COAP_205_CONTENT;
  72              		.loc 1 126 0
  73 002a 4520     		movs	r0, #69
  74              	.LVL4:
  75              	.L2:
 127:C:/Users/lenovo/Desktop/liteos/Project2/BearPi_LiteOS/components/connectivity/agent_tiny/atiny_lwm2m\object_connectivity_moni.c ****     case RES_M_AVL_NETWORK_BEARER:
 128:C:/Users/lenovo/Desktop/liteos/Project2/BearPi_LiteOS/components/connectivity/agent_tiny/atiny_lwm2m\object_connectivity_moni.c ****     {
 129:C:/Users/lenovo/Desktop/liteos/Project2/BearPi_LiteOS/components/connectivity/agent_tiny/atiny_lwm2m\object_connectivity_moni.c ****         int riCnt = 1;   // reduced to 1 instance to fit in one block size
 130:C:/Users/lenovo/Desktop/liteos/Project2/BearPi_LiteOS/components/connectivity/agent_tiny/atiny_lwm2m\object_connectivity_moni.c ****         lwm2m_data_t *subTlvP;
 131:C:/Users/lenovo/Desktop/liteos/Project2/BearPi_LiteOS/components/connectivity/agent_tiny/atiny_lwm2m\object_connectivity_moni.c ****         int networkbearer = 0;
 132:C:/Users/lenovo/Desktop/liteos/Project2/BearPi_LiteOS/components/connectivity/agent_tiny/atiny_lwm2m\object_connectivity_moni.c **** 
 133:C:/Users/lenovo/Desktop/liteos/Project2/BearPi_LiteOS/components/connectivity/agent_tiny/atiny_lwm2m\object_connectivity_moni.c ****         subTlvP = lwm2m_data_new(riCnt);
 134:C:/Users/lenovo/Desktop/liteos/Project2/BearPi_LiteOS/components/connectivity/agent_tiny/atiny_lwm2m\object_connectivity_moni.c ****         if (subTlvP == NULL) return COAP_500_INTERNAL_SERVER_ERROR;
 135:C:/Users/lenovo/Desktop/liteos/Project2/BearPi_LiteOS/components/connectivity/agent_tiny/atiny_lwm2m\object_connectivity_moni.c ****         subTlvP[0].id    = 0;
 136:C:/Users/lenovo/Desktop/liteos/Project2/BearPi_LiteOS/components/connectivity/agent_tiny/atiny_lwm2m\object_connectivity_moni.c ****         (void)atiny_cmd_ioctl(ATINY_GET_NETWORK_BEARER, (char *)&networkbearer, sizeof(int));
 137:C:/Users/lenovo/Desktop/liteos/Project2/BearPi_LiteOS/components/connectivity/agent_tiny/atiny_lwm2m\object_connectivity_moni.c ****         lwm2m_data_encode_int(networkbearer, subTlvP);
 138:C:/Users/lenovo/Desktop/liteos/Project2/BearPi_LiteOS/components/connectivity/agent_tiny/atiny_lwm2m\object_connectivity_moni.c ****         lwm2m_data_encode_instances(subTlvP, riCnt, dataP);
 139:C:/Users/lenovo/Desktop/liteos/Project2/BearPi_LiteOS/components/connectivity/agent_tiny/atiny_lwm2m\object_connectivity_moni.c ****         return COAP_205_CONTENT ;
 140:C:/Users/lenovo/Desktop/liteos/Project2/BearPi_LiteOS/components/connectivity/agent_tiny/atiny_lwm2m\object_connectivity_moni.c ****     }
 141:C:/Users/lenovo/Desktop/liteos/Project2/BearPi_LiteOS/components/connectivity/agent_tiny/atiny_lwm2m\object_connectivity_moni.c ****     case RES_M_RADIO_SIGNAL_STRENGTH: //s-int
 142:C:/Users/lenovo/Desktop/liteos/Project2/BearPi_LiteOS/components/connectivity/agent_tiny/atiny_lwm2m\object_connectivity_moni.c ****     {
 143:C:/Users/lenovo/Desktop/liteos/Project2/BearPi_LiteOS/components/connectivity/agent_tiny/atiny_lwm2m\object_connectivity_moni.c ****         int signalstrength = 0;
 144:C:/Users/lenovo/Desktop/liteos/Project2/BearPi_LiteOS/components/connectivity/agent_tiny/atiny_lwm2m\object_connectivity_moni.c ****         (void)atiny_cmd_ioctl(ATINY_GET_SIGNAL_STRENGTH, (char *)&signalstrength, sizeof(int));
 145:C:/Users/lenovo/Desktop/liteos/Project2/BearPi_LiteOS/components/connectivity/agent_tiny/atiny_lwm2m\object_connectivity_moni.c ****         lwm2m_data_encode_int(connDataP->signalStrength, dataP);
 146:C:/Users/lenovo/Desktop/liteos/Project2/BearPi_LiteOS/components/connectivity/agent_tiny/atiny_lwm2m\object_connectivity_moni.c ****         return COAP_205_CONTENT;
 147:C:/Users/lenovo/Desktop/liteos/Project2/BearPi_LiteOS/components/connectivity/agent_tiny/atiny_lwm2m\object_connectivity_moni.c ****     }
 148:C:/Users/lenovo/Desktop/liteos/Project2/BearPi_LiteOS/components/connectivity/agent_tiny/atiny_lwm2m\object_connectivity_moni.c ****     case RES_O_LINK_QUALITY: //s-int
 149:C:/Users/lenovo/Desktop/liteos/Project2/BearPi_LiteOS/components/connectivity/agent_tiny/atiny_lwm2m\object_connectivity_moni.c ****     {
 150:C:/Users/lenovo/Desktop/liteos/Project2/BearPi_LiteOS/components/connectivity/agent_tiny/atiny_lwm2m\object_connectivity_moni.c ****         int linkQuality;
 151:C:/Users/lenovo/Desktop/liteos/Project2/BearPi_LiteOS/components/connectivity/agent_tiny/atiny_lwm2m\object_connectivity_moni.c ****         (void)atiny_cmd_ioctl(ATINY_GET_LINK_QUALITY, (char *)&linkQuality, sizeof(int));
 152:C:/Users/lenovo/Desktop/liteos/Project2/BearPi_LiteOS/components/connectivity/agent_tiny/atiny_lwm2m\object_connectivity_moni.c ****         lwm2m_data_encode_int(linkQuality, dataP);
 153:C:/Users/lenovo/Desktop/liteos/Project2/BearPi_LiteOS/components/connectivity/agent_tiny/atiny_lwm2m\object_connectivity_moni.c ****         return COAP_205_CONTENT ;
 154:C:/Users/lenovo/Desktop/liteos/Project2/BearPi_LiteOS/components/connectivity/agent_tiny/atiny_lwm2m\object_connectivity_moni.c ****     }
ARM GAS  c:\Users\lenovo\AppData\Local\Temp\cc1lzG6Z.s 			page 5


 155:C:/Users/lenovo/Desktop/liteos/Project2/BearPi_LiteOS/components/connectivity/agent_tiny/atiny_lwm2m\object_connectivity_moni.c ****     case RES_M_IP_ADDRESSES:
 156:C:/Users/lenovo/Desktop/liteos/Project2/BearPi_LiteOS/components/connectivity/agent_tiny/atiny_lwm2m\object_connectivity_moni.c ****     {
 157:C:/Users/lenovo/Desktop/liteos/Project2/BearPi_LiteOS/components/connectivity/agent_tiny/atiny_lwm2m\object_connectivity_moni.c ****         int ri, riCnt = 1;   // reduced to 1 instance to fit in one block size
 158:C:/Users/lenovo/Desktop/liteos/Project2/BearPi_LiteOS/components/connectivity/agent_tiny/atiny_lwm2m\object_connectivity_moni.c ****         lwm2m_data_t *subTlvP = lwm2m_data_new(riCnt);
 159:C:/Users/lenovo/Desktop/liteos/Project2/BearPi_LiteOS/components/connectivity/agent_tiny/atiny_lwm2m\object_connectivity_moni.c ****         if (subTlvP == NULL) return COAP_500_INTERNAL_SERVER_ERROR;
 160:C:/Users/lenovo/Desktop/liteos/Project2/BearPi_LiteOS/components/connectivity/agent_tiny/atiny_lwm2m\object_connectivity_moni.c ****         for (ri = 0; ri < riCnt; ri++)
 161:C:/Users/lenovo/Desktop/liteos/Project2/BearPi_LiteOS/components/connectivity/agent_tiny/atiny_lwm2m\object_connectivity_moni.c ****         {
 162:C:/Users/lenovo/Desktop/liteos/Project2/BearPi_LiteOS/components/connectivity/agent_tiny/atiny_lwm2m\object_connectivity_moni.c ****             subTlvP[ri].id = ri;
 163:C:/Users/lenovo/Desktop/liteos/Project2/BearPi_LiteOS/components/connectivity/agent_tiny/atiny_lwm2m\object_connectivity_moni.c ****             lwm2m_data_encode_string(connDataP->ipAddresses[ri], subTlvP + ri);
 164:C:/Users/lenovo/Desktop/liteos/Project2/BearPi_LiteOS/components/connectivity/agent_tiny/atiny_lwm2m\object_connectivity_moni.c ****         }
 165:C:/Users/lenovo/Desktop/liteos/Project2/BearPi_LiteOS/components/connectivity/agent_tiny/atiny_lwm2m\object_connectivity_moni.c ****         lwm2m_data_encode_instances(subTlvP, riCnt, dataP);
 166:C:/Users/lenovo/Desktop/liteos/Project2/BearPi_LiteOS/components/connectivity/agent_tiny/atiny_lwm2m\object_connectivity_moni.c ****         return COAP_205_CONTENT ;
 167:C:/Users/lenovo/Desktop/liteos/Project2/BearPi_LiteOS/components/connectivity/agent_tiny/atiny_lwm2m\object_connectivity_moni.c ****     }
 168:C:/Users/lenovo/Desktop/liteos/Project2/BearPi_LiteOS/components/connectivity/agent_tiny/atiny_lwm2m\object_connectivity_moni.c ****     case RES_O_ROUTER_IP_ADDRESS:
 169:C:/Users/lenovo/Desktop/liteos/Project2/BearPi_LiteOS/components/connectivity/agent_tiny/atiny_lwm2m\object_connectivity_moni.c ****     {
 170:C:/Users/lenovo/Desktop/liteos/Project2/BearPi_LiteOS/components/connectivity/agent_tiny/atiny_lwm2m\object_connectivity_moni.c ****         int ri, riCnt = 1;   // reduced to 1 instance to fit in one block size
 171:C:/Users/lenovo/Desktop/liteos/Project2/BearPi_LiteOS/components/connectivity/agent_tiny/atiny_lwm2m\object_connectivity_moni.c ****         lwm2m_data_t *subTlvP = lwm2m_data_new(riCnt);
 172:C:/Users/lenovo/Desktop/liteos/Project2/BearPi_LiteOS/components/connectivity/agent_tiny/atiny_lwm2m\object_connectivity_moni.c ****         if (subTlvP == NULL) return COAP_500_INTERNAL_SERVER_ERROR;
 173:C:/Users/lenovo/Desktop/liteos/Project2/BearPi_LiteOS/components/connectivity/agent_tiny/atiny_lwm2m\object_connectivity_moni.c ****         for (ri = 0; ri < riCnt; ri++)
 174:C:/Users/lenovo/Desktop/liteos/Project2/BearPi_LiteOS/components/connectivity/agent_tiny/atiny_lwm2m\object_connectivity_moni.c ****         {
 175:C:/Users/lenovo/Desktop/liteos/Project2/BearPi_LiteOS/components/connectivity/agent_tiny/atiny_lwm2m\object_connectivity_moni.c ****             subTlvP[ri].id = ri;
 176:C:/Users/lenovo/Desktop/liteos/Project2/BearPi_LiteOS/components/connectivity/agent_tiny/atiny_lwm2m\object_connectivity_moni.c ****             lwm2m_data_encode_string(connDataP->routerIpAddresses[ri], subTlvP + ri);
 177:C:/Users/lenovo/Desktop/liteos/Project2/BearPi_LiteOS/components/connectivity/agent_tiny/atiny_lwm2m\object_connectivity_moni.c ****         }
 178:C:/Users/lenovo/Desktop/liteos/Project2/BearPi_LiteOS/components/connectivity/agent_tiny/atiny_lwm2m\object_connectivity_moni.c ****         lwm2m_data_encode_instances(subTlvP, riCnt, dataP);
 179:C:/Users/lenovo/Desktop/liteos/Project2/BearPi_LiteOS/components/connectivity/agent_tiny/atiny_lwm2m\object_connectivity_moni.c ****         return COAP_205_CONTENT ;
 180:C:/Users/lenovo/Desktop/liteos/Project2/BearPi_LiteOS/components/connectivity/agent_tiny/atiny_lwm2m\object_connectivity_moni.c ****     }
 181:C:/Users/lenovo/Desktop/liteos/Project2/BearPi_LiteOS/components/connectivity/agent_tiny/atiny_lwm2m\object_connectivity_moni.c ****     case RES_O_LINK_UTILIZATION:
 182:C:/Users/lenovo/Desktop/liteos/Project2/BearPi_LiteOS/components/connectivity/agent_tiny/atiny_lwm2m\object_connectivity_moni.c ****     {
 183:C:/Users/lenovo/Desktop/liteos/Project2/BearPi_LiteOS/components/connectivity/agent_tiny/atiny_lwm2m\object_connectivity_moni.c ****         int linkUtilization;
 184:C:/Users/lenovo/Desktop/liteos/Project2/BearPi_LiteOS/components/connectivity/agent_tiny/atiny_lwm2m\object_connectivity_moni.c ****         (void)atiny_cmd_ioctl(ATINY_GET_LINK_UTILIZATION, (char *)&linkUtilization, sizeof(int));
 185:C:/Users/lenovo/Desktop/liteos/Project2/BearPi_LiteOS/components/connectivity/agent_tiny/atiny_lwm2m\object_connectivity_moni.c ****         lwm2m_data_encode_int(connDataP->linkUtilization, dataP);
 186:C:/Users/lenovo/Desktop/liteos/Project2/BearPi_LiteOS/components/connectivity/agent_tiny/atiny_lwm2m\object_connectivity_moni.c ****         return COAP_205_CONTENT;
 187:C:/Users/lenovo/Desktop/liteos/Project2/BearPi_LiteOS/components/connectivity/agent_tiny/atiny_lwm2m\object_connectivity_moni.c ****     }
 188:C:/Users/lenovo/Desktop/liteos/Project2/BearPi_LiteOS/components/connectivity/agent_tiny/atiny_lwm2m\object_connectivity_moni.c ****     case RES_O_APN:
 189:C:/Users/lenovo/Desktop/liteos/Project2/BearPi_LiteOS/components/connectivity/agent_tiny/atiny_lwm2m\object_connectivity_moni.c ****     {
 190:C:/Users/lenovo/Desktop/liteos/Project2/BearPi_LiteOS/components/connectivity/agent_tiny/atiny_lwm2m\object_connectivity_moni.c ****         int riCnt = 1;   // reduced to 1 instance to fit in one block size
 191:C:/Users/lenovo/Desktop/liteos/Project2/BearPi_LiteOS/components/connectivity/agent_tiny/atiny_lwm2m\object_connectivity_moni.c ****         lwm2m_data_t *subTlvP;
 192:C:/Users/lenovo/Desktop/liteos/Project2/BearPi_LiteOS/components/connectivity/agent_tiny/atiny_lwm2m\object_connectivity_moni.c ****         subTlvP = lwm2m_data_new(riCnt);
 193:C:/Users/lenovo/Desktop/liteos/Project2/BearPi_LiteOS/components/connectivity/agent_tiny/atiny_lwm2m\object_connectivity_moni.c ****         if (subTlvP == NULL) return COAP_500_INTERNAL_SERVER_ERROR;
 194:C:/Users/lenovo/Desktop/liteos/Project2/BearPi_LiteOS/components/connectivity/agent_tiny/atiny_lwm2m\object_connectivity_moni.c ****         subTlvP[0].id     = 0;
 195:C:/Users/lenovo/Desktop/liteos/Project2/BearPi_LiteOS/components/connectivity/agent_tiny/atiny_lwm2m\object_connectivity_moni.c ****         lwm2m_data_encode_string(VALUE_APN_1, subTlvP);
 196:C:/Users/lenovo/Desktop/liteos/Project2/BearPi_LiteOS/components/connectivity/agent_tiny/atiny_lwm2m\object_connectivity_moni.c ****         lwm2m_data_encode_instances(subTlvP, riCnt, dataP);
 197:C:/Users/lenovo/Desktop/liteos/Project2/BearPi_LiteOS/components/connectivity/agent_tiny/atiny_lwm2m\object_connectivity_moni.c ****         return COAP_205_CONTENT;
 198:C:/Users/lenovo/Desktop/liteos/Project2/BearPi_LiteOS/components/connectivity/agent_tiny/atiny_lwm2m\object_connectivity_moni.c ****     }
 199:C:/Users/lenovo/Desktop/liteos/Project2/BearPi_LiteOS/components/connectivity/agent_tiny/atiny_lwm2m\object_connectivity_moni.c ****     case RES_O_CELL_ID:
 200:C:/Users/lenovo/Desktop/liteos/Project2/BearPi_LiteOS/components/connectivity/agent_tiny/atiny_lwm2m\object_connectivity_moni.c ****     {
 201:C:/Users/lenovo/Desktop/liteos/Project2/BearPi_LiteOS/components/connectivity/agent_tiny/atiny_lwm2m\object_connectivity_moni.c ****         int cellId = 0;
 202:C:/Users/lenovo/Desktop/liteos/Project2/BearPi_LiteOS/components/connectivity/agent_tiny/atiny_lwm2m\object_connectivity_moni.c ****         (void)atiny_cmd_ioctl(ATINY_GET_CELL_ID, (char *)&cellId, sizeof(int));
 203:C:/Users/lenovo/Desktop/liteos/Project2/BearPi_LiteOS/components/connectivity/agent_tiny/atiny_lwm2m\object_connectivity_moni.c ****         lwm2m_data_encode_int(cellId, dataP);
 204:C:/Users/lenovo/Desktop/liteos/Project2/BearPi_LiteOS/components/connectivity/agent_tiny/atiny_lwm2m\object_connectivity_moni.c ****         return COAP_205_CONTENT ;
 205:C:/Users/lenovo/Desktop/liteos/Project2/BearPi_LiteOS/components/connectivity/agent_tiny/atiny_lwm2m\object_connectivity_moni.c ****     }
 206:C:/Users/lenovo/Desktop/liteos/Project2/BearPi_LiteOS/components/connectivity/agent_tiny/atiny_lwm2m\object_connectivity_moni.c **** 
 207:C:/Users/lenovo/Desktop/liteos/Project2/BearPi_LiteOS/components/connectivity/agent_tiny/atiny_lwm2m\object_connectivity_moni.c ****     case RES_O_SMNC:
 208:C:/Users/lenovo/Desktop/liteos/Project2/BearPi_LiteOS/components/connectivity/agent_tiny/atiny_lwm2m\object_connectivity_moni.c ****         lwm2m_data_encode_int(VALUE_SMNC, dataP);
 209:C:/Users/lenovo/Desktop/liteos/Project2/BearPi_LiteOS/components/connectivity/agent_tiny/atiny_lwm2m\object_connectivity_moni.c ****         return COAP_205_CONTENT ;
 210:C:/Users/lenovo/Desktop/liteos/Project2/BearPi_LiteOS/components/connectivity/agent_tiny/atiny_lwm2m\object_connectivity_moni.c **** 
 211:C:/Users/lenovo/Desktop/liteos/Project2/BearPi_LiteOS/components/connectivity/agent_tiny/atiny_lwm2m\object_connectivity_moni.c ****     case RES_O_SMCC:
ARM GAS  c:\Users\lenovo\AppData\Local\Temp\cc1lzG6Z.s 			page 6


 212:C:/Users/lenovo/Desktop/liteos/Project2/BearPi_LiteOS/components/connectivity/agent_tiny/atiny_lwm2m\object_connectivity_moni.c ****         lwm2m_data_encode_int(VALUE_SMCC, dataP);
 213:C:/Users/lenovo/Desktop/liteos/Project2/BearPi_LiteOS/components/connectivity/agent_tiny/atiny_lwm2m\object_connectivity_moni.c ****         return COAP_205_CONTENT ;
 214:C:/Users/lenovo/Desktop/liteos/Project2/BearPi_LiteOS/components/connectivity/agent_tiny/atiny_lwm2m\object_connectivity_moni.c **** 
 215:C:/Users/lenovo/Desktop/liteos/Project2/BearPi_LiteOS/components/connectivity/agent_tiny/atiny_lwm2m\object_connectivity_moni.c ****     default:
 216:C:/Users/lenovo/Desktop/liteos/Project2/BearPi_LiteOS/components/connectivity/agent_tiny/atiny_lwm2m\object_connectivity_moni.c ****         return COAP_404_NOT_FOUND ;
 217:C:/Users/lenovo/Desktop/liteos/Project2/BearPi_LiteOS/components/connectivity/agent_tiny/atiny_lwm2m\object_connectivity_moni.c ****     }
 218:C:/Users/lenovo/Desktop/liteos/Project2/BearPi_LiteOS/components/connectivity/agent_tiny/atiny_lwm2m\object_connectivity_moni.c **** }
  76              		.loc 1 218 0 discriminator 1
  77 002c 03B0     		add	sp, sp, #12
  78              	.LCFI2:
  79              		.cfi_remember_state
  80              		.cfi_def_cfa_offset 20
  81              		@ sp needed
  82 002e F0BD     		pop	{r4, r5, r6, r7, pc}
  83              	.LVL5:
  84              	.L5:
  85              	.LCFI3:
  86              		.cfi_restore_state
  87              	.LBB2:
 131:C:/Users/lenovo/Desktop/liteos/Project2/BearPi_LiteOS/components/connectivity/agent_tiny/atiny_lwm2m\object_connectivity_moni.c **** 
  88              		.loc 1 131 0
  89 0030 0023     		movs	r3, #0
  90 0032 0193     		str	r3, [sp, #4]
 133:C:/Users/lenovo/Desktop/liteos/Project2/BearPi_LiteOS/components/connectivity/agent_tiny/atiny_lwm2m\object_connectivity_moni.c ****         if (subTlvP == NULL) return COAP_500_INTERNAL_SERVER_ERROR;
  91              		.loc 1 133 0
  92 0034 0120     		movs	r0, #1
  93              	.LVL6:
  94 0036 FFF7FEFF 		bl	lwm2m_data_new
  95              	.LVL7:
 134:C:/Users/lenovo/Desktop/liteos/Project2/BearPi_LiteOS/components/connectivity/agent_tiny/atiny_lwm2m\object_connectivity_moni.c ****         subTlvP[0].id    = 0;
  96              		.loc 1 134 0
  97 003a 0546     		mov	r5, r0
  98              	.LVL8:
  99 003c 98B1     		cbz	r0, .L21
 135:C:/Users/lenovo/Desktop/liteos/Project2/BearPi_LiteOS/components/connectivity/agent_tiny/atiny_lwm2m\object_connectivity_moni.c ****         (void)atiny_cmd_ioctl(ATINY_GET_NETWORK_BEARER, (char *)&networkbearer, sizeof(int));
 100              		.loc 1 135 0
 101 003e 0023     		movs	r3, #0
 102 0040 4380     		strh	r3, [r0, #2]	@ movhi
 136:C:/Users/lenovo/Desktop/liteos/Project2/BearPi_LiteOS/components/connectivity/agent_tiny/atiny_lwm2m\object_connectivity_moni.c ****         lwm2m_data_encode_int(networkbearer, subTlvP);
 103              		.loc 1 136 0
 104 0042 0422     		movs	r2, #4
 105 0044 0DEB0201 		add	r1, sp, r2
 106 0048 1520     		movs	r0, #21
 107              	.LVL9:
 108 004a FFF7FEFF 		bl	atiny_cmd_ioctl
 109              	.LVL10:
 137:C:/Users/lenovo/Desktop/liteos/Project2/BearPi_LiteOS/components/connectivity/agent_tiny/atiny_lwm2m\object_connectivity_moni.c ****         lwm2m_data_encode_instances(subTlvP, riCnt, dataP);
 110              		.loc 1 137 0
 111 004e 2A46     		mov	r2, r5
 112 0050 0198     		ldr	r0, [sp, #4]
 113 0052 C117     		asrs	r1, r0, #31
 114 0054 FFF7FEFF 		bl	lwm2m_data_encode_int
 115              	.LVL11:
 138:C:/Users/lenovo/Desktop/liteos/Project2/BearPi_LiteOS/components/connectivity/agent_tiny/atiny_lwm2m\object_connectivity_moni.c ****         return COAP_205_CONTENT ;
 116              		.loc 1 138 0
 117 0058 2246     		mov	r2, r4
 118 005a 0121     		movs	r1, #1
ARM GAS  c:\Users\lenovo\AppData\Local\Temp\cc1lzG6Z.s 			page 7


 119 005c 2846     		mov	r0, r5
 120 005e FFF7FEFF 		bl	lwm2m_data_encode_instances
 121              	.LVL12:
 139:C:/Users/lenovo/Desktop/liteos/Project2/BearPi_LiteOS/components/connectivity/agent_tiny/atiny_lwm2m\object_connectivity_moni.c ****     }
 122              		.loc 1 139 0
 123 0062 4520     		movs	r0, #69
 124 0064 E2E7     		b	.L2
 125              	.LVL13:
 126              	.L21:
 134:C:/Users/lenovo/Desktop/liteos/Project2/BearPi_LiteOS/components/connectivity/agent_tiny/atiny_lwm2m\object_connectivity_moni.c ****         subTlvP[0].id    = 0;
 127              		.loc 1 134 0
 128 0066 A020     		movs	r0, #160
 129              	.LVL14:
 130 0068 E0E7     		b	.L2
 131              	.LVL15:
 132              	.L6:
 133              	.LBE2:
 134              	.LBB3:
 143:C:/Users/lenovo/Desktop/liteos/Project2/BearPi_LiteOS/components/connectivity/agent_tiny/atiny_lwm2m\object_connectivity_moni.c ****         (void)atiny_cmd_ioctl(ATINY_GET_SIGNAL_STRENGTH, (char *)&signalstrength, sizeof(int));
 135              		.loc 1 143 0
 136 006a 02A9     		add	r1, sp, #8
 137              	.LVL16:
 138 006c 0023     		movs	r3, #0
 139 006e 41F8043D 		str	r3, [r1, #-4]!
 144:C:/Users/lenovo/Desktop/liteos/Project2/BearPi_LiteOS/components/connectivity/agent_tiny/atiny_lwm2m\object_connectivity_moni.c ****         lwm2m_data_encode_int(connDataP->signalStrength, dataP);
 140              		.loc 1 144 0
 141 0072 0422     		movs	r2, #4
 142 0074 1620     		movs	r0, #22
 143              	.LVL17:
 144 0076 FFF7FEFF 		bl	atiny_cmd_ioctl
 145              	.LVL18:
 145:C:/Users/lenovo/Desktop/liteos/Project2/BearPi_LiteOS/components/connectivity/agent_tiny/atiny_lwm2m\object_connectivity_moni.c ****         return COAP_205_CONTENT;
 146              		.loc 1 145 0
 147 007a 686C     		ldr	r0, [r5, #68]
 148 007c 2246     		mov	r2, r4
 149 007e C117     		asrs	r1, r0, #31
 150 0080 FFF7FEFF 		bl	lwm2m_data_encode_int
 151              	.LVL19:
 146:C:/Users/lenovo/Desktop/liteos/Project2/BearPi_LiteOS/components/connectivity/agent_tiny/atiny_lwm2m\object_connectivity_moni.c ****     }
 152              		.loc 1 146 0
 153 0084 4520     		movs	r0, #69
 154 0086 D1E7     		b	.L2
 155              	.LVL20:
 156              	.L7:
 157              	.LBE3:
 158              	.LBB4:
 151:C:/Users/lenovo/Desktop/liteos/Project2/BearPi_LiteOS/components/connectivity/agent_tiny/atiny_lwm2m\object_connectivity_moni.c ****         lwm2m_data_encode_int(linkQuality, dataP);
 159              		.loc 1 151 0
 160 0088 0422     		movs	r2, #4
 161 008a 0DEB0201 		add	r1, sp, r2
 162              	.LVL21:
 163 008e 1820     		movs	r0, #24
 164              	.LVL22:
 165 0090 FFF7FEFF 		bl	atiny_cmd_ioctl
 166              	.LVL23:
 152:C:/Users/lenovo/Desktop/liteos/Project2/BearPi_LiteOS/components/connectivity/agent_tiny/atiny_lwm2m\object_connectivity_moni.c ****         return COAP_205_CONTENT ;
 167              		.loc 1 152 0
ARM GAS  c:\Users\lenovo\AppData\Local\Temp\cc1lzG6Z.s 			page 8


 168 0094 2246     		mov	r2, r4
 169 0096 0198     		ldr	r0, [sp, #4]
 170 0098 C117     		asrs	r1, r0, #31
 171 009a FFF7FEFF 		bl	lwm2m_data_encode_int
 172              	.LVL24:
 153:C:/Users/lenovo/Desktop/liteos/Project2/BearPi_LiteOS/components/connectivity/agent_tiny/atiny_lwm2m\object_connectivity_moni.c ****     }
 173              		.loc 1 153 0
 174 009e 4520     		movs	r0, #69
 175 00a0 C4E7     		b	.L2
 176              	.LVL25:
 177              	.L8:
 178              	.LBE4:
 179              	.LBB5:
 158:C:/Users/lenovo/Desktop/liteos/Project2/BearPi_LiteOS/components/connectivity/agent_tiny/atiny_lwm2m\object_connectivity_moni.c ****         if (subTlvP == NULL) return COAP_500_INTERNAL_SERVER_ERROR;
 180              		.loc 1 158 0
 181 00a2 0120     		movs	r0, #1
 182              	.LVL26:
 183 00a4 FFF7FEFF 		bl	lwm2m_data_new
 184              	.LVL27:
 159:C:/Users/lenovo/Desktop/liteos/Project2/BearPi_LiteOS/components/connectivity/agent_tiny/atiny_lwm2m\object_connectivity_moni.c ****         for (ri = 0; ri < riCnt; ri++)
 185              		.loc 1 159 0
 186 00a8 0746     		mov	r7, r0
 187 00aa 0028     		cmp	r0, #0
 188 00ac 69D0     		beq	.L22
 160:C:/Users/lenovo/Desktop/liteos/Project2/BearPi_LiteOS/components/connectivity/agent_tiny/atiny_lwm2m\object_connectivity_moni.c ****         {
 189              		.loc 1 160 0
 190 00ae 0026     		movs	r6, #0
 191              	.LVL28:
 192              	.L16:
 160:C:/Users/lenovo/Desktop/liteos/Project2/BearPi_LiteOS/components/connectivity/agent_tiny/atiny_lwm2m\object_connectivity_moni.c ****         {
 193              		.loc 1 160 0 is_stmt 0 discriminator 1
 194 00b0 002E     		cmp	r6, #0
 195 00b2 06DD     		ble	.L17
 165:C:/Users/lenovo/Desktop/liteos/Project2/BearPi_LiteOS/components/connectivity/agent_tiny/atiny_lwm2m\object_connectivity_moni.c ****         return COAP_205_CONTENT ;
 196              		.loc 1 165 0 is_stmt 1
 197 00b4 2246     		mov	r2, r4
 198 00b6 0121     		movs	r1, #1
 199 00b8 3846     		mov	r0, r7
 200 00ba FFF7FEFF 		bl	lwm2m_data_encode_instances
 201              	.LVL29:
 166:C:/Users/lenovo/Desktop/liteos/Project2/BearPi_LiteOS/components/connectivity/agent_tiny/atiny_lwm2m\object_connectivity_moni.c ****     }
 202              		.loc 1 166 0
 203 00be 4520     		movs	r0, #69
 204 00c0 B4E7     		b	.L2
 205              	.L17:
 162:C:/Users/lenovo/Desktop/liteos/Project2/BearPi_LiteOS/components/connectivity/agent_tiny/atiny_lwm2m\object_connectivity_moni.c ****             lwm2m_data_encode_string(connDataP->ipAddresses[ri], subTlvP + ri);
 206              		.loc 1 162 0 discriminator 3
 207 00c2 3001     		lsls	r0, r6, #4
 208 00c4 3918     		adds	r1, r7, r0
 209 00c6 4E80     		strh	r6, [r1, #2]	@ movhi
 163:C:/Users/lenovo/Desktop/liteos/Project2/BearPi_LiteOS/components/connectivity/agent_tiny/atiny_lwm2m\object_connectivity_moni.c ****         }
 210              		.loc 1 163 0 discriminator 3
 211 00c8 2844     		add	r0, r0, r5
 212 00ca FFF7FEFF 		bl	lwm2m_data_encode_string
 213              	.LVL30:
 160:C:/Users/lenovo/Desktop/liteos/Project2/BearPi_LiteOS/components/connectivity/agent_tiny/atiny_lwm2m\object_connectivity_moni.c ****         {
 214              		.loc 1 160 0 discriminator 3
ARM GAS  c:\Users\lenovo\AppData\Local\Temp\cc1lzG6Z.s 			page 9


 215 00ce 0136     		adds	r6, r6, #1
 216              	.LVL31:
 217 00d0 EEE7     		b	.L16
 218              	.LVL32:
 219              	.L9:
 220              	.LBE5:
 221              	.LBB6:
 171:C:/Users/lenovo/Desktop/liteos/Project2/BearPi_LiteOS/components/connectivity/agent_tiny/atiny_lwm2m\object_connectivity_moni.c ****         if (subTlvP == NULL) return COAP_500_INTERNAL_SERVER_ERROR;
 222              		.loc 1 171 0
 223 00d2 0120     		movs	r0, #1
 224              	.LVL33:
 225 00d4 FFF7FEFF 		bl	lwm2m_data_new
 226              	.LVL34:
 172:C:/Users/lenovo/Desktop/liteos/Project2/BearPi_LiteOS/components/connectivity/agent_tiny/atiny_lwm2m\object_connectivity_moni.c ****         for (ri = 0; ri < riCnt; ri++)
 227              		.loc 1 172 0
 228 00d8 0746     		mov	r7, r0
 229 00da 0028     		cmp	r0, #0
 230 00dc 53D0     		beq	.L23
 173:C:/Users/lenovo/Desktop/liteos/Project2/BearPi_LiteOS/components/connectivity/agent_tiny/atiny_lwm2m\object_connectivity_moni.c ****         {
 231              		.loc 1 173 0
 232 00de 0026     		movs	r6, #0
 233              	.LVL35:
 234              	.L18:
 173:C:/Users/lenovo/Desktop/liteos/Project2/BearPi_LiteOS/components/connectivity/agent_tiny/atiny_lwm2m\object_connectivity_moni.c ****         {
 235              		.loc 1 173 0 is_stmt 0 discriminator 1
 236 00e0 002E     		cmp	r6, #0
 237 00e2 06DD     		ble	.L19
 178:C:/Users/lenovo/Desktop/liteos/Project2/BearPi_LiteOS/components/connectivity/agent_tiny/atiny_lwm2m\object_connectivity_moni.c ****         return COAP_205_CONTENT ;
 238              		.loc 1 178 0 is_stmt 1
 239 00e4 2246     		mov	r2, r4
 240 00e6 0121     		movs	r1, #1
 241 00e8 3846     		mov	r0, r7
 242 00ea FFF7FEFF 		bl	lwm2m_data_encode_instances
 243              	.LVL36:
 179:C:/Users/lenovo/Desktop/liteos/Project2/BearPi_LiteOS/components/connectivity/agent_tiny/atiny_lwm2m\object_connectivity_moni.c ****     }
 244              		.loc 1 179 0
 245 00ee 4520     		movs	r0, #69
 246 00f0 9CE7     		b	.L2
 247              	.L19:
 175:C:/Users/lenovo/Desktop/liteos/Project2/BearPi_LiteOS/components/connectivity/agent_tiny/atiny_lwm2m\object_connectivity_moni.c ****             lwm2m_data_encode_string(connDataP->routerIpAddresses[ri], subTlvP + ri);
 248              		.loc 1 175 0 discriminator 3
 249 00f2 07EB0611 		add	r1, r7, r6, lsl #4
 250 00f6 4E80     		strh	r6, [r1, #2]	@ movhi
 176:C:/Users/lenovo/Desktop/liteos/Project2/BearPi_LiteOS/components/connectivity/agent_tiny/atiny_lwm2m\object_connectivity_moni.c ****         }
 251              		.loc 1 176 0 discriminator 3
 252 00f8 B01C     		adds	r0, r6, #2
 253 00fa 05EB0010 		add	r0, r5, r0, lsl #4
 254 00fe FFF7FEFF 		bl	lwm2m_data_encode_string
 255              	.LVL37:
 173:C:/Users/lenovo/Desktop/liteos/Project2/BearPi_LiteOS/components/connectivity/agent_tiny/atiny_lwm2m\object_connectivity_moni.c ****         {
 256              		.loc 1 173 0 discriminator 3
 257 0102 0136     		adds	r6, r6, #1
 258              	.LVL38:
 259 0104 ECE7     		b	.L18
 260              	.LVL39:
 261              	.L10:
 262              	.LBE6:
ARM GAS  c:\Users\lenovo\AppData\Local\Temp\cc1lzG6Z.s 			page 10


 263              	.LBB7:
 184:C:/Users/lenovo/Desktop/liteos/Project2/BearPi_LiteOS/components/connectivity/agent_tiny/atiny_lwm2m\object_connectivity_moni.c ****         lwm2m_data_encode_int(connDataP->linkUtilization, dataP);
 264              		.loc 1 184 0
 265 0106 0422     		movs	r2, #4
 266 0108 0DEB0201 		add	r1, sp, r2
 267              	.LVL40:
 268 010c 1920     		movs	r0, #25
 269              	.LVL41:
 270 010e FFF7FEFF 		bl	atiny_cmd_ioctl
 271              	.LVL42:
 185:C:/Users/lenovo/Desktop/liteos/Project2/BearPi_LiteOS/components/connectivity/agent_tiny/atiny_lwm2m\object_connectivity_moni.c ****         return COAP_205_CONTENT;
 272              		.loc 1 185 0
 273 0112 E86C     		ldr	r0, [r5, #76]
 274 0114 2246     		mov	r2, r4
 275 0116 C117     		asrs	r1, r0, #31
 276 0118 FFF7FEFF 		bl	lwm2m_data_encode_int
 277              	.LVL43:
 186:C:/Users/lenovo/Desktop/liteos/Project2/BearPi_LiteOS/components/connectivity/agent_tiny/atiny_lwm2m\object_connectivity_moni.c ****     }
 278              		.loc 1 186 0
 279 011c 4520     		movs	r0, #69
 280 011e 85E7     		b	.L2
 281              	.LVL44:
 282              	.L11:
 283              	.LBE7:
 284              	.LBB8:
 192:C:/Users/lenovo/Desktop/liteos/Project2/BearPi_LiteOS/components/connectivity/agent_tiny/atiny_lwm2m\object_connectivity_moni.c ****         if (subTlvP == NULL) return COAP_500_INTERNAL_SERVER_ERROR;
 285              		.loc 1 192 0
 286 0120 0120     		movs	r0, #1
 287              	.LVL45:
 288 0122 FFF7FEFF 		bl	lwm2m_data_new
 289              	.LVL46:
 193:C:/Users/lenovo/Desktop/liteos/Project2/BearPi_LiteOS/components/connectivity/agent_tiny/atiny_lwm2m\object_connectivity_moni.c ****         subTlvP[0].id     = 0;
 290              		.loc 1 193 0
 291 0126 0546     		mov	r5, r0
 292              	.LVL47:
 293 0128 78B3     		cbz	r0, .L24
 194:C:/Users/lenovo/Desktop/liteos/Project2/BearPi_LiteOS/components/connectivity/agent_tiny/atiny_lwm2m\object_connectivity_moni.c ****         lwm2m_data_encode_string(VALUE_APN_1, subTlvP);
 294              		.loc 1 194 0
 295 012a 0023     		movs	r3, #0
 296 012c 4380     		strh	r3, [r0, #2]	@ movhi
 195:C:/Users/lenovo/Desktop/liteos/Project2/BearPi_LiteOS/components/connectivity/agent_tiny/atiny_lwm2m\object_connectivity_moni.c ****         lwm2m_data_encode_instances(subTlvP, riCnt, dataP);
 297              		.loc 1 195 0
 298 012e 0146     		mov	r1, r0
 299 0130 1748     		ldr	r0, .L26
 300              	.LVL48:
 301 0132 FFF7FEFF 		bl	lwm2m_data_encode_string
 302              	.LVL49:
 196:C:/Users/lenovo/Desktop/liteos/Project2/BearPi_LiteOS/components/connectivity/agent_tiny/atiny_lwm2m\object_connectivity_moni.c ****         return COAP_205_CONTENT;
 303              		.loc 1 196 0
 304 0136 2246     		mov	r2, r4
 305 0138 0121     		movs	r1, #1
 306 013a 2846     		mov	r0, r5
 307 013c FFF7FEFF 		bl	lwm2m_data_encode_instances
 308              	.LVL50:
 197:C:/Users/lenovo/Desktop/liteos/Project2/BearPi_LiteOS/components/connectivity/agent_tiny/atiny_lwm2m\object_connectivity_moni.c ****     }
 309              		.loc 1 197 0
 310 0140 4520     		movs	r0, #69
ARM GAS  c:\Users\lenovo\AppData\Local\Temp\cc1lzG6Z.s 			page 11


 311 0142 73E7     		b	.L2
 312              	.LVL51:
 313              	.L12:
 314              	.LBE8:
 315              	.LBB9:
 201:C:/Users/lenovo/Desktop/liteos/Project2/BearPi_LiteOS/components/connectivity/agent_tiny/atiny_lwm2m\object_connectivity_moni.c ****         (void)atiny_cmd_ioctl(ATINY_GET_CELL_ID, (char *)&cellId, sizeof(int));
 316              		.loc 1 201 0
 317 0144 02A9     		add	r1, sp, #8
 318              	.LVL52:
 319 0146 0023     		movs	r3, #0
 320 0148 41F8043D 		str	r3, [r1, #-4]!
 202:C:/Users/lenovo/Desktop/liteos/Project2/BearPi_LiteOS/components/connectivity/agent_tiny/atiny_lwm2m\object_connectivity_moni.c ****         lwm2m_data_encode_int(cellId, dataP);
 321              		.loc 1 202 0
 322 014c 0422     		movs	r2, #4
 323 014e 1720     		movs	r0, #23
 324              	.LVL53:
 325 0150 FFF7FEFF 		bl	atiny_cmd_ioctl
 326              	.LVL54:
 203:C:/Users/lenovo/Desktop/liteos/Project2/BearPi_LiteOS/components/connectivity/agent_tiny/atiny_lwm2m\object_connectivity_moni.c ****         return COAP_205_CONTENT ;
 327              		.loc 1 203 0
 328 0154 2246     		mov	r2, r4
 329 0156 0198     		ldr	r0, [sp, #4]
 330 0158 C117     		asrs	r1, r0, #31
 331 015a FFF7FEFF 		bl	lwm2m_data_encode_int
 332              	.LVL55:
 204:C:/Users/lenovo/Desktop/liteos/Project2/BearPi_LiteOS/components/connectivity/agent_tiny/atiny_lwm2m\object_connectivity_moni.c ****     }
 333              		.loc 1 204 0
 334 015e 4520     		movs	r0, #69
 335 0160 64E7     		b	.L2
 336              	.LVL56:
 337              	.L13:
 338              	.LBE9:
 208:C:/Users/lenovo/Desktop/liteos/Project2/BearPi_LiteOS/components/connectivity/agent_tiny/atiny_lwm2m\object_connectivity_moni.c ****         return COAP_205_CONTENT ;
 339              		.loc 1 208 0
 340 0162 0246     		mov	r2, r0
 341 0164 2120     		movs	r0, #33
 342              	.LVL57:
 343 0166 0021     		movs	r1, #0
 344              	.LVL58:
 345 0168 FFF7FEFF 		bl	lwm2m_data_encode_int
 346              	.LVL59:
 209:C:/Users/lenovo/Desktop/liteos/Project2/BearPi_LiteOS/components/connectivity/agent_tiny/atiny_lwm2m\object_connectivity_moni.c **** 
 347              		.loc 1 209 0
 348 016c 4520     		movs	r0, #69
 349 016e 5DE7     		b	.L2
 350              	.LVL60:
 351              	.L14:
 212:C:/Users/lenovo/Desktop/liteos/Project2/BearPi_LiteOS/components/connectivity/agent_tiny/atiny_lwm2m\object_connectivity_moni.c ****         return COAP_205_CONTENT ;
 352              		.loc 1 212 0
 353 0170 0246     		mov	r2, r0
 354 0172 2C20     		movs	r0, #44
 355              	.LVL61:
 356 0174 0021     		movs	r1, #0
 357              	.LVL62:
 358 0176 FFF7FEFF 		bl	lwm2m_data_encode_int
 359              	.LVL63:
 213:C:/Users/lenovo/Desktop/liteos/Project2/BearPi_LiteOS/components/connectivity/agent_tiny/atiny_lwm2m\object_connectivity_moni.c **** 
ARM GAS  c:\Users\lenovo\AppData\Local\Temp\cc1lzG6Z.s 			page 12


 360              		.loc 1 213 0
 361 017a 4520     		movs	r0, #69
 362 017c 56E7     		b	.L2
 363              	.LVL64:
 364              	.L20:
 216:C:/Users/lenovo/Desktop/liteos/Project2/BearPi_LiteOS/components/connectivity/agent_tiny/atiny_lwm2m\object_connectivity_moni.c ****     }
 365              		.loc 1 216 0
 366 017e 8420     		movs	r0, #132
 367              	.LVL65:
 368 0180 54E7     		b	.L2
 369              	.LVL66:
 370              	.L22:
 371              	.LBB10:
 159:C:/Users/lenovo/Desktop/liteos/Project2/BearPi_LiteOS/components/connectivity/agent_tiny/atiny_lwm2m\object_connectivity_moni.c ****         for (ri = 0; ri < riCnt; ri++)
 372              		.loc 1 159 0
 373 0182 A020     		movs	r0, #160
 374              	.LVL67:
 375 0184 52E7     		b	.L2
 376              	.LVL68:
 377              	.L23:
 378              	.LBE10:
 379              	.LBB11:
 172:C:/Users/lenovo/Desktop/liteos/Project2/BearPi_LiteOS/components/connectivity/agent_tiny/atiny_lwm2m\object_connectivity_moni.c ****         for (ri = 0; ri < riCnt; ri++)
 380              		.loc 1 172 0
 381 0186 A020     		movs	r0, #160
 382              	.LVL69:
 383 0188 50E7     		b	.L2
 384              	.LVL70:
 385              	.L24:
 386              	.LBE11:
 387              	.LBB12:
 193:C:/Users/lenovo/Desktop/liteos/Project2/BearPi_LiteOS/components/connectivity/agent_tiny/atiny_lwm2m\object_connectivity_moni.c ****         subTlvP[0].id     = 0;
 388              		.loc 1 193 0
 389 018a A020     		movs	r0, #160
 390              	.LVL71:
 391 018c 4EE7     		b	.L2
 392              	.L27:
 393 018e 00BF     		.align	2
 394              	.L26:
 395 0190 00000000 		.word	.LC1
 396              	.LBE12:
 397              		.cfi_endproc
 398              	.LFE134:
 400              		.section	.text.prv_read,"ax",%progbits
 401              		.align	1
 402              		.syntax unified
 403              		.thumb
 404              		.thumb_func
 405              		.fpu fpv4-sp-d16
 407              	prv_read:
 408              	.LFB135:
 219:C:/Users/lenovo/Desktop/liteos/Project2/BearPi_LiteOS/components/connectivity/agent_tiny/atiny_lwm2m\object_connectivity_moni.c **** 
 220:C:/Users/lenovo/Desktop/liteos/Project2/BearPi_LiteOS/components/connectivity/agent_tiny/atiny_lwm2m\object_connectivity_moni.c **** static uint8_t prv_read(uint16_t instanceId,
 221:C:/Users/lenovo/Desktop/liteos/Project2/BearPi_LiteOS/components/connectivity/agent_tiny/atiny_lwm2m\object_connectivity_moni.c ****                         int *numDataP,
 222:C:/Users/lenovo/Desktop/liteos/Project2/BearPi_LiteOS/components/connectivity/agent_tiny/atiny_lwm2m\object_connectivity_moni.c ****                         lwm2m_data_t **dataArrayP,
 223:C:/Users/lenovo/Desktop/liteos/Project2/BearPi_LiteOS/components/connectivity/agent_tiny/atiny_lwm2m\object_connectivity_moni.c ****                         lwm2m_data_cfg_t *dataCfg,
 224:C:/Users/lenovo/Desktop/liteos/Project2/BearPi_LiteOS/components/connectivity/agent_tiny/atiny_lwm2m\object_connectivity_moni.c ****                         lwm2m_object_t *objectP)
ARM GAS  c:\Users\lenovo\AppData\Local\Temp\cc1lzG6Z.s 			page 13


 225:C:/Users/lenovo/Desktop/liteos/Project2/BearPi_LiteOS/components/connectivity/agent_tiny/atiny_lwm2m\object_connectivity_moni.c **** {
 409              		.loc 1 225 0
 410              		.cfi_startproc
 411              		@ args = 4, pretend = 0, frame = 24
 412              		@ frame_needed = 0, uses_anonymous_args = 0
 413              	.LVL72:
 414 0000 F0B5     		push	{r4, r5, r6, r7, lr}
 415              	.LCFI4:
 416              		.cfi_def_cfa_offset 20
 417              		.cfi_offset 4, -20
 418              		.cfi_offset 5, -16
 419              		.cfi_offset 6, -12
 420              		.cfi_offset 7, -8
 421              		.cfi_offset 14, -4
 422 0002 87B0     		sub	sp, sp, #28
 423              	.LCFI5:
 424              		.cfi_def_cfa_offset 48
 425 0004 0C9F     		ldr	r7, [sp, #48]
 226:C:/Users/lenovo/Desktop/liteos/Project2/BearPi_LiteOS/components/connectivity/agent_tiny/atiny_lwm2m\object_connectivity_moni.c ****     uint8_t result;
 227:C:/Users/lenovo/Desktop/liteos/Project2/BearPi_LiteOS/components/connectivity/agent_tiny/atiny_lwm2m\object_connectivity_moni.c ****     int i;
 228:C:/Users/lenovo/Desktop/liteos/Project2/BearPi_LiteOS/components/connectivity/agent_tiny/atiny_lwm2m\object_connectivity_moni.c **** 
 229:C:/Users/lenovo/Desktop/liteos/Project2/BearPi_LiteOS/components/connectivity/agent_tiny/atiny_lwm2m\object_connectivity_moni.c ****     // this is a single instance object
 230:C:/Users/lenovo/Desktop/liteos/Project2/BearPi_LiteOS/components/connectivity/agent_tiny/atiny_lwm2m\object_connectivity_moni.c ****     if (instanceId != 0)
 426              		.loc 1 230 0
 427 0006 0028     		cmp	r0, #0
 428 0008 36D1     		bne	.L35
 429 000a 1546     		mov	r5, r2
 430 000c 0E46     		mov	r6, r1
 231:C:/Users/lenovo/Desktop/liteos/Project2/BearPi_LiteOS/components/connectivity/agent_tiny/atiny_lwm2m\object_connectivity_moni.c ****     {
 232:C:/Users/lenovo/Desktop/liteos/Project2/BearPi_LiteOS/components/connectivity/agent_tiny/atiny_lwm2m\object_connectivity_moni.c ****         return COAP_404_NOT_FOUND ;
 233:C:/Users/lenovo/Desktop/liteos/Project2/BearPi_LiteOS/components/connectivity/agent_tiny/atiny_lwm2m\object_connectivity_moni.c ****     }
 234:C:/Users/lenovo/Desktop/liteos/Project2/BearPi_LiteOS/components/connectivity/agent_tiny/atiny_lwm2m\object_connectivity_moni.c **** 
 235:C:/Users/lenovo/Desktop/liteos/Project2/BearPi_LiteOS/components/connectivity/agent_tiny/atiny_lwm2m\object_connectivity_moni.c ****     // is the server asking for the full object ?
 236:C:/Users/lenovo/Desktop/liteos/Project2/BearPi_LiteOS/components/connectivity/agent_tiny/atiny_lwm2m\object_connectivity_moni.c ****     if (*numDataP == 0)
 431              		.loc 1 236 0
 432 000e 0C68     		ldr	r4, [r1]
 433 0010 74B1     		cbz	r4, .L37
 434              	.LVL73:
 435              	.L30:
 225:C:/Users/lenovo/Desktop/liteos/Project2/BearPi_LiteOS/components/connectivity/agent_tiny/atiny_lwm2m\object_connectivity_moni.c ****     uint8_t result;
 436              		.loc 1 225 0 discriminator 2
 437 0012 0024     		movs	r4, #0
 438              	.L34:
 439              	.LVL74:
 237:C:/Users/lenovo/Desktop/liteos/Project2/BearPi_LiteOS/components/connectivity/agent_tiny/atiny_lwm2m\object_connectivity_moni.c ****     {
 238:C:/Users/lenovo/Desktop/liteos/Project2/BearPi_LiteOS/components/connectivity/agent_tiny/atiny_lwm2m\object_connectivity_moni.c ****         uint16_t resList[] =
 239:C:/Users/lenovo/Desktop/liteos/Project2/BearPi_LiteOS/components/connectivity/agent_tiny/atiny_lwm2m\object_connectivity_moni.c ****         {
 240:C:/Users/lenovo/Desktop/liteos/Project2/BearPi_LiteOS/components/connectivity/agent_tiny/atiny_lwm2m\object_connectivity_moni.c ****             RES_M_NETWORK_BEARER,
 241:C:/Users/lenovo/Desktop/liteos/Project2/BearPi_LiteOS/components/connectivity/agent_tiny/atiny_lwm2m\object_connectivity_moni.c ****             RES_M_AVL_NETWORK_BEARER,
 242:C:/Users/lenovo/Desktop/liteos/Project2/BearPi_LiteOS/components/connectivity/agent_tiny/atiny_lwm2m\object_connectivity_moni.c ****             RES_M_RADIO_SIGNAL_STRENGTH,
 243:C:/Users/lenovo/Desktop/liteos/Project2/BearPi_LiteOS/components/connectivity/agent_tiny/atiny_lwm2m\object_connectivity_moni.c ****             RES_O_LINK_QUALITY,
 244:C:/Users/lenovo/Desktop/liteos/Project2/BearPi_LiteOS/components/connectivity/agent_tiny/atiny_lwm2m\object_connectivity_moni.c ****             RES_M_IP_ADDRESSES,
 245:C:/Users/lenovo/Desktop/liteos/Project2/BearPi_LiteOS/components/connectivity/agent_tiny/atiny_lwm2m\object_connectivity_moni.c ****             RES_O_ROUTER_IP_ADDRESS,
 246:C:/Users/lenovo/Desktop/liteos/Project2/BearPi_LiteOS/components/connectivity/agent_tiny/atiny_lwm2m\object_connectivity_moni.c ****             RES_O_LINK_UTILIZATION,
 247:C:/Users/lenovo/Desktop/liteos/Project2/BearPi_LiteOS/components/connectivity/agent_tiny/atiny_lwm2m\object_connectivity_moni.c ****             RES_O_APN,
 248:C:/Users/lenovo/Desktop/liteos/Project2/BearPi_LiteOS/components/connectivity/agent_tiny/atiny_lwm2m\object_connectivity_moni.c ****             RES_O_CELL_ID,
 249:C:/Users/lenovo/Desktop/liteos/Project2/BearPi_LiteOS/components/connectivity/agent_tiny/atiny_lwm2m\object_connectivity_moni.c ****             RES_O_SMNC,
ARM GAS  c:\Users\lenovo\AppData\Local\Temp\cc1lzG6Z.s 			page 14


 250:C:/Users/lenovo/Desktop/liteos/Project2/BearPi_LiteOS/components/connectivity/agent_tiny/atiny_lwm2m\object_connectivity_moni.c ****             RES_O_SMCC
 251:C:/Users/lenovo/Desktop/liteos/Project2/BearPi_LiteOS/components/connectivity/agent_tiny/atiny_lwm2m\object_connectivity_moni.c ****         };
 252:C:/Users/lenovo/Desktop/liteos/Project2/BearPi_LiteOS/components/connectivity/agent_tiny/atiny_lwm2m\object_connectivity_moni.c ****         int nbRes = sizeof(resList) / sizeof(uint16_t);
 253:C:/Users/lenovo/Desktop/liteos/Project2/BearPi_LiteOS/components/connectivity/agent_tiny/atiny_lwm2m\object_connectivity_moni.c **** 
 254:C:/Users/lenovo/Desktop/liteos/Project2/BearPi_LiteOS/components/connectivity/agent_tiny/atiny_lwm2m\object_connectivity_moni.c ****         *dataArrayP = lwm2m_data_new(nbRes);
 255:C:/Users/lenovo/Desktop/liteos/Project2/BearPi_LiteOS/components/connectivity/agent_tiny/atiny_lwm2m\object_connectivity_moni.c ****         if (*dataArrayP == NULL)
 256:C:/Users/lenovo/Desktop/liteos/Project2/BearPi_LiteOS/components/connectivity/agent_tiny/atiny_lwm2m\object_connectivity_moni.c ****             return COAP_500_INTERNAL_SERVER_ERROR ;
 257:C:/Users/lenovo/Desktop/liteos/Project2/BearPi_LiteOS/components/connectivity/agent_tiny/atiny_lwm2m\object_connectivity_moni.c ****         *numDataP = nbRes;
 258:C:/Users/lenovo/Desktop/liteos/Project2/BearPi_LiteOS/components/connectivity/agent_tiny/atiny_lwm2m\object_connectivity_moni.c ****         for (i = 0; i < nbRes; i++)
 259:C:/Users/lenovo/Desktop/liteos/Project2/BearPi_LiteOS/components/connectivity/agent_tiny/atiny_lwm2m\object_connectivity_moni.c ****         {
 260:C:/Users/lenovo/Desktop/liteos/Project2/BearPi_LiteOS/components/connectivity/agent_tiny/atiny_lwm2m\object_connectivity_moni.c ****             (*dataArrayP)[i].id = resList[i];
 261:C:/Users/lenovo/Desktop/liteos/Project2/BearPi_LiteOS/components/connectivity/agent_tiny/atiny_lwm2m\object_connectivity_moni.c ****         }
 262:C:/Users/lenovo/Desktop/liteos/Project2/BearPi_LiteOS/components/connectivity/agent_tiny/atiny_lwm2m\object_connectivity_moni.c ****     }
 263:C:/Users/lenovo/Desktop/liteos/Project2/BearPi_LiteOS/components/connectivity/agent_tiny/atiny_lwm2m\object_connectivity_moni.c **** 
 264:C:/Users/lenovo/Desktop/liteos/Project2/BearPi_LiteOS/components/connectivity/agent_tiny/atiny_lwm2m\object_connectivity_moni.c ****     i = 0;
 265:C:/Users/lenovo/Desktop/liteos/Project2/BearPi_LiteOS/components/connectivity/agent_tiny/atiny_lwm2m\object_connectivity_moni.c ****     do
 266:C:/Users/lenovo/Desktop/liteos/Project2/BearPi_LiteOS/components/connectivity/agent_tiny/atiny_lwm2m\object_connectivity_moni.c ****     {
 267:C:/Users/lenovo/Desktop/liteos/Project2/BearPi_LiteOS/components/connectivity/agent_tiny/atiny_lwm2m\object_connectivity_moni.c ****         result = prv_set_value((*dataArrayP) + i, (conn_m_data_t *) (objectP->userData));
 440              		.loc 1 267 0 discriminator 2
 441 0014 2868     		ldr	r0, [r5]
 442 0016 B96A     		ldr	r1, [r7, #40]
 443 0018 00EB0410 		add	r0, r0, r4, lsl #4
 444 001c FFF7FEFF 		bl	prv_set_value
 445              	.LVL75:
 268:C:/Users/lenovo/Desktop/liteos/Project2/BearPi_LiteOS/components/connectivity/agent_tiny/atiny_lwm2m\object_connectivity_moni.c ****         i++;
 446              		.loc 1 268 0 discriminator 2
 447 0020 0134     		adds	r4, r4, #1
 448              	.LVL76:
 269:C:/Users/lenovo/Desktop/liteos/Project2/BearPi_LiteOS/components/connectivity/agent_tiny/atiny_lwm2m\object_connectivity_moni.c ****     }
 270:C:/Users/lenovo/Desktop/liteos/Project2/BearPi_LiteOS/components/connectivity/agent_tiny/atiny_lwm2m\object_connectivity_moni.c ****     while (i < *numDataP && result == COAP_205_CONTENT );
 449              		.loc 1 270 0 discriminator 2
 450 0022 3368     		ldr	r3, [r6]
 451 0024 A342     		cmp	r3, r4
 452 0026 01DD     		ble	.L29
 453              		.loc 1 270 0 is_stmt 0 discriminator 1
 454 0028 4528     		cmp	r0, #69
 455 002a F3D0     		beq	.L34
 456              	.LVL77:
 457              	.L29:
 271:C:/Users/lenovo/Desktop/liteos/Project2/BearPi_LiteOS/components/connectivity/agent_tiny/atiny_lwm2m\object_connectivity_moni.c **** 
 272:C:/Users/lenovo/Desktop/liteos/Project2/BearPi_LiteOS/components/connectivity/agent_tiny/atiny_lwm2m\object_connectivity_moni.c ****     return result;
 273:C:/Users/lenovo/Desktop/liteos/Project2/BearPi_LiteOS/components/connectivity/agent_tiny/atiny_lwm2m\object_connectivity_moni.c **** }
 458              		.loc 1 273 0 is_stmt 1
 459 002c 07B0     		add	sp, sp, #28
 460              	.LCFI6:
 461              		.cfi_remember_state
 462              		.cfi_def_cfa_offset 20
 463              		@ sp needed
 464 002e F0BD     		pop	{r4, r5, r6, r7, pc}
 465              	.LVL78:
 466              	.L37:
 467              	.LCFI7:
 468              		.cfi_restore_state
 469              	.LBB13:
 238:C:/Users/lenovo/Desktop/liteos/Project2/BearPi_LiteOS/components/connectivity/agent_tiny/atiny_lwm2m\object_connectivity_moni.c ****         {
 470              		.loc 1 238 0
 471 0030 EC46     		mov	ip, sp
ARM GAS  c:\Users\lenovo\AppData\Local\Temp\cc1lzG6Z.s 			page 15


 472 0032 DFF848E0 		ldr	lr, .L39
 473 0036 BEE80F00 		ldmia	lr!, {r0, r1, r2, r3}
 474              	.LVL79:
 475 003a ACE80F00 		stmia	ip!, {r0, r1, r2, r3}
 476 003e 9EE80300 		ldm	lr, {r0, r1}
 477 0042 4CF8040B 		str	r0, [ip], #4
 478 0046 ACF80010 		strh	r1, [ip]	@ movhi
 479              	.LVL80:
 254:C:/Users/lenovo/Desktop/liteos/Project2/BearPi_LiteOS/components/connectivity/agent_tiny/atiny_lwm2m\object_connectivity_moni.c ****         if (*dataArrayP == NULL)
 480              		.loc 1 254 0
 481 004a 0B20     		movs	r0, #11
 482 004c FFF7FEFF 		bl	lwm2m_data_new
 483              	.LVL81:
 484 0050 2860     		str	r0, [r5]
 255:C:/Users/lenovo/Desktop/liteos/Project2/BearPi_LiteOS/components/connectivity/agent_tiny/atiny_lwm2m\object_connectivity_moni.c ****             return COAP_500_INTERNAL_SERVER_ERROR ;
 485              		.loc 1 255 0
 486 0052 10B1     		cbz	r0, .L38
 257:C:/Users/lenovo/Desktop/liteos/Project2/BearPi_LiteOS/components/connectivity/agent_tiny/atiny_lwm2m\object_connectivity_moni.c ****         for (i = 0; i < nbRes; i++)
 487              		.loc 1 257 0
 488 0054 0B23     		movs	r3, #11
 489 0056 3360     		str	r3, [r6]
 490              	.LVL82:
 258:C:/Users/lenovo/Desktop/liteos/Project2/BearPi_LiteOS/components/connectivity/agent_tiny/atiny_lwm2m\object_connectivity_moni.c ****         {
 491              		.loc 1 258 0
 492 0058 0BE0     		b	.L32
 493              	.LVL83:
 494              	.L38:
 256:C:/Users/lenovo/Desktop/liteos/Project2/BearPi_LiteOS/components/connectivity/agent_tiny/atiny_lwm2m\object_connectivity_moni.c ****         *numDataP = nbRes;
 495              		.loc 1 256 0
 496 005a A020     		movs	r0, #160
 497 005c E6E7     		b	.L29
 498              	.LVL84:
 499              	.L33:
 260:C:/Users/lenovo/Desktop/liteos/Project2/BearPi_LiteOS/components/connectivity/agent_tiny/atiny_lwm2m\object_connectivity_moni.c ****         }
 500              		.loc 1 260 0 discriminator 3
 501 005e 2B68     		ldr	r3, [r5]
 502 0060 03EB0413 		add	r3, r3, r4, lsl #4
 503 0064 06AA     		add	r2, sp, #24
 504 0066 02EB4402 		add	r2, r2, r4, lsl #1
 505 006a 32F8182C 		ldrh	r2, [r2, #-24]
 506 006e 5A80     		strh	r2, [r3, #2]	@ movhi
 258:C:/Users/lenovo/Desktop/liteos/Project2/BearPi_LiteOS/components/connectivity/agent_tiny/atiny_lwm2m\object_connectivity_moni.c ****         {
 507              		.loc 1 258 0 discriminator 3
 508 0070 0134     		adds	r4, r4, #1
 509              	.LVL85:
 510              	.L32:
 258:C:/Users/lenovo/Desktop/liteos/Project2/BearPi_LiteOS/components/connectivity/agent_tiny/atiny_lwm2m\object_connectivity_moni.c ****         {
 511              		.loc 1 258 0 is_stmt 0 discriminator 1
 512 0072 0A2C     		cmp	r4, #10
 513 0074 F3DD     		ble	.L33
 514 0076 CCE7     		b	.L30
 515              	.LVL86:
 516              	.L35:
 517              	.LBE13:
 232:C:/Users/lenovo/Desktop/liteos/Project2/BearPi_LiteOS/components/connectivity/agent_tiny/atiny_lwm2m\object_connectivity_moni.c ****     }
 518              		.loc 1 232 0 is_stmt 1
 519 0078 8420     		movs	r0, #132
ARM GAS  c:\Users\lenovo\AppData\Local\Temp\cc1lzG6Z.s 			page 16


 520              	.LVL87:
 521 007a D7E7     		b	.L29
 522              	.L40:
 523              		.align	2
 524              	.L39:
 525 007c 00000000 		.word	.LANCHOR0
 526              		.cfi_endproc
 527              	.LFE135:
 529              		.section	.text.get_object_conn_m,"ax",%progbits
 530              		.align	1
 531              		.global	get_object_conn_m
 532              		.syntax unified
 533              		.thumb
 534              		.thumb_func
 535              		.fpu fpv4-sp-d16
 537              	get_object_conn_m:
 538              	.LFB136:
 274:C:/Users/lenovo/Desktop/liteos/Project2/BearPi_LiteOS/components/connectivity/agent_tiny/atiny_lwm2m\object_connectivity_moni.c **** 
 275:C:/Users/lenovo/Desktop/liteos/Project2/BearPi_LiteOS/components/connectivity/agent_tiny/atiny_lwm2m\object_connectivity_moni.c **** lwm2m_object_t *get_object_conn_m(atiny_param_t *atiny_params)
 276:C:/Users/lenovo/Desktop/liteos/Project2/BearPi_LiteOS/components/connectivity/agent_tiny/atiny_lwm2m\object_connectivity_moni.c **** {
 539              		.loc 1 276 0
 540              		.cfi_startproc
 541              		@ args = 0, pretend = 0, frame = 0
 542              		@ frame_needed = 0, uses_anonymous_args = 0
 543              	.LVL88:
 544 0000 70B5     		push	{r4, r5, r6, lr}
 545              	.LCFI8:
 546              		.cfi_def_cfa_offset 16
 547              		.cfi_offset 4, -16
 548              		.cfi_offset 5, -12
 549              		.cfi_offset 6, -8
 550              		.cfi_offset 14, -4
 277:C:/Users/lenovo/Desktop/liteos/Project2/BearPi_LiteOS/components/connectivity/agent_tiny/atiny_lwm2m\object_connectivity_moni.c ****     /*
 278:C:/Users/lenovo/Desktop/liteos/Project2/BearPi_LiteOS/components/connectivity/agent_tiny/atiny_lwm2m\object_connectivity_moni.c ****      * The get_object_conn_m() function create the object itself and return a pointer to the struct
 279:C:/Users/lenovo/Desktop/liteos/Project2/BearPi_LiteOS/components/connectivity/agent_tiny/atiny_lwm2m\object_connectivity_moni.c ****      */
 280:C:/Users/lenovo/Desktop/liteos/Project2/BearPi_LiteOS/components/connectivity/agent_tiny/atiny_lwm2m\object_connectivity_moni.c ****     lwm2m_object_t *connObj;
 281:C:/Users/lenovo/Desktop/liteos/Project2/BearPi_LiteOS/components/connectivity/agent_tiny/atiny_lwm2m\object_connectivity_moni.c **** 
 282:C:/Users/lenovo/Desktop/liteos/Project2/BearPi_LiteOS/components/connectivity/agent_tiny/atiny_lwm2m\object_connectivity_moni.c ****     connObj = (lwm2m_object_t *) lwm2m_malloc(sizeof(lwm2m_object_t));
 551              		.loc 1 282 0
 552 0002 2C20     		movs	r0, #44
 553              	.LVL89:
 554 0004 FFF7FEFF 		bl	lwm2m_malloc
 555              	.LVL90:
 283:C:/Users/lenovo/Desktop/liteos/Project2/BearPi_LiteOS/components/connectivity/agent_tiny/atiny_lwm2m\object_connectivity_moni.c **** 
 284:C:/Users/lenovo/Desktop/liteos/Project2/BearPi_LiteOS/components/connectivity/agent_tiny/atiny_lwm2m\object_connectivity_moni.c ****     if (NULL != connObj)
 556              		.loc 1 284 0
 557 0008 0546     		mov	r5, r0
 558 000a 0028     		cmp	r0, #0
 559 000c 4CD0     		beq	.L41
 285:C:/Users/lenovo/Desktop/liteos/Project2/BearPi_LiteOS/components/connectivity/agent_tiny/atiny_lwm2m\object_connectivity_moni.c ****     {
 286:C:/Users/lenovo/Desktop/liteos/Project2/BearPi_LiteOS/components/connectivity/agent_tiny/atiny_lwm2m\object_connectivity_moni.c ****         memset(connObj, 0, sizeof(lwm2m_object_t));
 560              		.loc 1 286 0
 561 000e 2C22     		movs	r2, #44
 562 0010 0021     		movs	r1, #0
 563 0012 FFF7FEFF 		bl	memset
 564              	.LVL91:
 287:C:/Users/lenovo/Desktop/liteos/Project2/BearPi_LiteOS/components/connectivity/agent_tiny/atiny_lwm2m\object_connectivity_moni.c **** 
ARM GAS  c:\Users\lenovo\AppData\Local\Temp\cc1lzG6Z.s 			page 17


 288:C:/Users/lenovo/Desktop/liteos/Project2/BearPi_LiteOS/components/connectivity/agent_tiny/atiny_lwm2m\object_connectivity_moni.c ****         /*
 289:C:/Users/lenovo/Desktop/liteos/Project2/BearPi_LiteOS/components/connectivity/agent_tiny/atiny_lwm2m\object_connectivity_moni.c ****          * It assigns his unique ID
 290:C:/Users/lenovo/Desktop/liteos/Project2/BearPi_LiteOS/components/connectivity/agent_tiny/atiny_lwm2m\object_connectivity_moni.c ****          */
 291:C:/Users/lenovo/Desktop/liteos/Project2/BearPi_LiteOS/components/connectivity/agent_tiny/atiny_lwm2m\object_connectivity_moni.c ****         connObj->objID = LWM2M_CONN_MONITOR_OBJECT_ID;
 565              		.loc 1 291 0
 566 0016 0423     		movs	r3, #4
 567 0018 AB80     		strh	r3, [r5, #4]	@ movhi
 292:C:/Users/lenovo/Desktop/liteos/Project2/BearPi_LiteOS/components/connectivity/agent_tiny/atiny_lwm2m\object_connectivity_moni.c **** 
 293:C:/Users/lenovo/Desktop/liteos/Project2/BearPi_LiteOS/components/connectivity/agent_tiny/atiny_lwm2m\object_connectivity_moni.c ****         /*
 294:C:/Users/lenovo/Desktop/liteos/Project2/BearPi_LiteOS/components/connectivity/agent_tiny/atiny_lwm2m\object_connectivity_moni.c ****          * and its unique instance
 295:C:/Users/lenovo/Desktop/liteos/Project2/BearPi_LiteOS/components/connectivity/agent_tiny/atiny_lwm2m\object_connectivity_moni.c ****          *
 296:C:/Users/lenovo/Desktop/liteos/Project2/BearPi_LiteOS/components/connectivity/agent_tiny/atiny_lwm2m\object_connectivity_moni.c ****          */
 297:C:/Users/lenovo/Desktop/liteos/Project2/BearPi_LiteOS/components/connectivity/agent_tiny/atiny_lwm2m\object_connectivity_moni.c ****         connObj->instanceList = (lwm2m_list_t *)lwm2m_malloc(sizeof(lwm2m_list_t));
 568              		.loc 1 297 0
 569 001a 0820     		movs	r0, #8
 570 001c FFF7FEFF 		bl	lwm2m_malloc
 571              	.LVL92:
 572 0020 A860     		str	r0, [r5, #8]
 298:C:/Users/lenovo/Desktop/liteos/Project2/BearPi_LiteOS/components/connectivity/agent_tiny/atiny_lwm2m\object_connectivity_moni.c ****         if (NULL != connObj->instanceList)
 573              		.loc 1 298 0
 574 0022 0028     		cmp	r0, #0
 575 0024 42D0     		beq	.L43
 299:C:/Users/lenovo/Desktop/liteos/Project2/BearPi_LiteOS/components/connectivity/agent_tiny/atiny_lwm2m\object_connectivity_moni.c ****         {
 300:C:/Users/lenovo/Desktop/liteos/Project2/BearPi_LiteOS/components/connectivity/agent_tiny/atiny_lwm2m\object_connectivity_moni.c ****             memset(connObj->instanceList, 0, sizeof(lwm2m_list_t));
 576              		.loc 1 300 0
 577 0026 0023     		movs	r3, #0
 578 0028 0360     		str	r3, [r0]	@ unaligned
 579 002a 4360     		str	r3, [r0, #4]	@ unaligned
 301:C:/Users/lenovo/Desktop/liteos/Project2/BearPi_LiteOS/components/connectivity/agent_tiny/atiny_lwm2m\object_connectivity_moni.c ****         }
 302:C:/Users/lenovo/Desktop/liteos/Project2/BearPi_LiteOS/components/connectivity/agent_tiny/atiny_lwm2m\object_connectivity_moni.c ****         else
 303:C:/Users/lenovo/Desktop/liteos/Project2/BearPi_LiteOS/components/connectivity/agent_tiny/atiny_lwm2m\object_connectivity_moni.c ****         {
 304:C:/Users/lenovo/Desktop/liteos/Project2/BearPi_LiteOS/components/connectivity/agent_tiny/atiny_lwm2m\object_connectivity_moni.c ****             lwm2m_free(connObj);
 305:C:/Users/lenovo/Desktop/liteos/Project2/BearPi_LiteOS/components/connectivity/agent_tiny/atiny_lwm2m\object_connectivity_moni.c ****             return NULL;
 306:C:/Users/lenovo/Desktop/liteos/Project2/BearPi_LiteOS/components/connectivity/agent_tiny/atiny_lwm2m\object_connectivity_moni.c ****         }
 307:C:/Users/lenovo/Desktop/liteos/Project2/BearPi_LiteOS/components/connectivity/agent_tiny/atiny_lwm2m\object_connectivity_moni.c **** 
 308:C:/Users/lenovo/Desktop/liteos/Project2/BearPi_LiteOS/components/connectivity/agent_tiny/atiny_lwm2m\object_connectivity_moni.c ****         /*
 309:C:/Users/lenovo/Desktop/liteos/Project2/BearPi_LiteOS/components/connectivity/agent_tiny/atiny_lwm2m\object_connectivity_moni.c ****          * And the private function that will access the object.
 310:C:/Users/lenovo/Desktop/liteos/Project2/BearPi_LiteOS/components/connectivity/agent_tiny/atiny_lwm2m\object_connectivity_moni.c ****          * Those function will be called when a read/write/execute query is made by the server. In 
 311:C:/Users/lenovo/Desktop/liteos/Project2/BearPi_LiteOS/components/connectivity/agent_tiny/atiny_lwm2m\object_connectivity_moni.c ****          * know the resources of the object, only the server does.
 312:C:/Users/lenovo/Desktop/liteos/Project2/BearPi_LiteOS/components/connectivity/agent_tiny/atiny_lwm2m\object_connectivity_moni.c ****          */
 313:C:/Users/lenovo/Desktop/liteos/Project2/BearPi_LiteOS/components/connectivity/agent_tiny/atiny_lwm2m\object_connectivity_moni.c ****         connObj->readFunc = prv_read;
 580              		.loc 1 313 0
 581 002c 264A     		ldr	r2, .L49
 582 002e EA60     		str	r2, [r5, #12]
 314:C:/Users/lenovo/Desktop/liteos/Project2/BearPi_LiteOS/components/connectivity/agent_tiny/atiny_lwm2m\object_connectivity_moni.c ****         connObj->executeFunc = NULL;
 583              		.loc 1 314 0
 584 0030 6B61     		str	r3, [r5, #20]
 315:C:/Users/lenovo/Desktop/liteos/Project2/BearPi_LiteOS/components/connectivity/agent_tiny/atiny_lwm2m\object_connectivity_moni.c ****         connObj->userData = lwm2m_malloc(sizeof(conn_m_data_t));
 585              		.loc 1 315 0
 586 0032 5020     		movs	r0, #80
 587 0034 FFF7FEFF 		bl	lwm2m_malloc
 588              	.LVL93:
 589 0038 0446     		mov	r4, r0
 590 003a A862     		str	r0, [r5, #40]
 316:C:/Users/lenovo/Desktop/liteos/Project2/BearPi_LiteOS/components/connectivity/agent_tiny/atiny_lwm2m\object_connectivity_moni.c **** 
 317:C:/Users/lenovo/Desktop/liteos/Project2/BearPi_LiteOS/components/connectivity/agent_tiny/atiny_lwm2m\object_connectivity_moni.c ****         /*
 318:C:/Users/lenovo/Desktop/liteos/Project2/BearPi_LiteOS/components/connectivity/agent_tiny/atiny_lwm2m\object_connectivity_moni.c ****          * Also some user data can be stored in the object with a private structure containing the 
ARM GAS  c:\Users\lenovo\AppData\Local\Temp\cc1lzG6Z.s 			page 18


 319:C:/Users/lenovo/Desktop/liteos/Project2/BearPi_LiteOS/components/connectivity/agent_tiny/atiny_lwm2m\object_connectivity_moni.c ****          */
 320:C:/Users/lenovo/Desktop/liteos/Project2/BearPi_LiteOS/components/connectivity/agent_tiny/atiny_lwm2m\object_connectivity_moni.c ****         if (NULL != connObj->userData)
 591              		.loc 1 320 0
 592 003c 0028     		cmp	r0, #0
 593 003e 3AD0     		beq	.L48
 594              	.LVL94:
 595              	.LBB14:
 321:C:/Users/lenovo/Desktop/liteos/Project2/BearPi_LiteOS/components/connectivity/agent_tiny/atiny_lwm2m\object_connectivity_moni.c ****         {
 322:C:/Users/lenovo/Desktop/liteos/Project2/BearPi_LiteOS/components/connectivity/agent_tiny/atiny_lwm2m\object_connectivity_moni.c ****             conn_m_data_t *myData = (conn_m_data_t *) connObj->userData;
 323:C:/Users/lenovo/Desktop/liteos/Project2/BearPi_LiteOS/components/connectivity/agent_tiny/atiny_lwm2m\object_connectivity_moni.c ****             memset((void *)myData, 0, sizeof(conn_m_data_t));
 596              		.loc 1 323 0
 597 0040 3222     		movs	r2, #50
 598 0042 0021     		movs	r1, #0
 599 0044 0E30     		adds	r0, r0, #14
 600              	.LVL95:
 601 0046 FFF7FEFF 		bl	memset
 602              	.LVL96:
 324:C:/Users/lenovo/Desktop/liteos/Project2/BearPi_LiteOS/components/connectivity/agent_tiny/atiny_lwm2m\object_connectivity_moni.c ****             myData->cellId          = VALUE_CELL_ID;
 603              		.loc 1 324 0
 604 004a 204B     		ldr	r3, .L49+4
 605 004c 2364     		str	r3, [r4, #64]
 325:C:/Users/lenovo/Desktop/liteos/Project2/BearPi_LiteOS/components/connectivity/agent_tiny/atiny_lwm2m\object_connectivity_moni.c ****             myData->signalStrength  = VALUE_RADIO_SIGNAL_STRENGTH;
 606              		.loc 1 325 0
 607 004e 5023     		movs	r3, #80
 608 0050 6364     		str	r3, [r4, #68]
 326:C:/Users/lenovo/Desktop/liteos/Project2/BearPi_LiteOS/components/connectivity/agent_tiny/atiny_lwm2m\object_connectivity_moni.c ****             myData->linkQuality     = VALUE_LINK_QUALITY;
 609              		.loc 1 326 0
 610 0052 6223     		movs	r3, #98
 611 0054 A364     		str	r3, [r4, #72]
 327:C:/Users/lenovo/Desktop/liteos/Project2/BearPi_LiteOS/components/connectivity/agent_tiny/atiny_lwm2m\object_connectivity_moni.c ****             myData->linkUtilization = VALUE_LINK_UTILIZATION;
 612              		.loc 1 327 0
 613 0056 40F29A23 		movw	r3, #666
 614 005a E364     		str	r3, [r4, #76]
 328:C:/Users/lenovo/Desktop/liteos/Project2/BearPi_LiteOS/components/connectivity/agent_tiny/atiny_lwm2m\object_connectivity_moni.c ****             strncpy(myData->ipAddresses[0], VALUE_IP_ADDRESS_1, IP4ADDR_STRLEN_MAX - 1);
 615              		.loc 1 328 0
 616 005c 1C4B     		ldr	r3, .L49+8
 617 005e 07CB     		ldmia	r3!, {r0, r1, r2}
 618 0060 2060     		str	r0, [r4]	@ unaligned
 619 0062 6160     		str	r1, [r4, #4]	@ unaligned
 620 0064 A260     		str	r2, [r4, #8]	@ unaligned
 621 0066 1A88     		ldrh	r2, [r3]	@ unaligned
 622 0068 9B78     		ldrb	r3, [r3, #2]	@ zero_extendqisi2
 623 006a A281     		strh	r2, [r4, #12]	@ unaligned
 624 006c A373     		strb	r3, [r4, #14]
 329:C:/Users/lenovo/Desktop/liteos/Project2/BearPi_LiteOS/components/connectivity/agent_tiny/atiny_lwm2m\object_connectivity_moni.c ****             strncpy(myData->ipAddresses[1], VALUE_IP_ADDRESS_2, IP4ADDR_STRLEN_MAX - 1);
 625              		.loc 1 329 0
 626 006e 194B     		ldr	r3, .L49+12
 627 0070 07CB     		ldmia	r3!, {r0, r1, r2}
 628 0072 2061     		str	r0, [r4, #16]	@ unaligned
 629 0074 6161     		str	r1, [r4, #20]	@ unaligned
 630 0076 A261     		str	r2, [r4, #24]	@ unaligned
 631 0078 1A88     		ldrh	r2, [r3]	@ unaligned
 632 007a 9B78     		ldrb	r3, [r3, #2]	@ zero_extendqisi2
 633 007c A283     		strh	r2, [r4, #28]	@ unaligned
 634 007e A377     		strb	r3, [r4, #30]
 330:C:/Users/lenovo/Desktop/liteos/Project2/BearPi_LiteOS/components/connectivity/agent_tiny/atiny_lwm2m\object_connectivity_moni.c ****             strncpy(myData->routerIpAddresses[0], VALUE_ROUTER_IP_ADDRESS_1, IP4ADDR_STRLEN_MAX - 1
 635              		.loc 1 330 0
ARM GAS  c:\Users\lenovo\AppData\Local\Temp\cc1lzG6Z.s 			page 19


 636 0080 154B     		ldr	r3, .L49+16
 637 0082 07CB     		ldmia	r3!, {r0, r1, r2}
 638 0084 2062     		str	r0, [r4, #32]	@ unaligned
 639 0086 6162     		str	r1, [r4, #36]	@ unaligned
 640 0088 A262     		str	r2, [r4, #40]	@ unaligned
 641 008a 1A88     		ldrh	r2, [r3]	@ unaligned
 642 008c 9B78     		ldrb	r3, [r3, #2]	@ zero_extendqisi2
 643 008e A285     		strh	r2, [r4, #44]	@ unaligned
 644 0090 84F82E30 		strb	r3, [r4, #46]
 331:C:/Users/lenovo/Desktop/liteos/Project2/BearPi_LiteOS/components/connectivity/agent_tiny/atiny_lwm2m\object_connectivity_moni.c ****             strncpy(myData->routerIpAddresses[1], VALUE_ROUTER_IP_ADDRESS_2, IP4ADDR_STRLEN_MAX - 1
 645              		.loc 1 331 0
 646 0094 114B     		ldr	r3, .L49+20
 647 0096 07CB     		ldmia	r3!, {r0, r1, r2}
 648 0098 2063     		str	r0, [r4, #48]	@ unaligned
 649 009a 6163     		str	r1, [r4, #52]	@ unaligned
 650 009c A263     		str	r2, [r4, #56]	@ unaligned
 651 009e 1A88     		ldrh	r2, [r3]	@ unaligned
 652 00a0 9B78     		ldrb	r3, [r3, #2]	@ zero_extendqisi2
 653 00a2 A287     		strh	r2, [r4, #60]	@ unaligned
 654 00a4 84F83E30 		strb	r3, [r4, #62]
 655              	.LVL97:
 656              	.L41:
 657              	.LBE14:
 332:C:/Users/lenovo/Desktop/liteos/Project2/BearPi_LiteOS/components/connectivity/agent_tiny/atiny_lwm2m\object_connectivity_moni.c ****         }
 333:C:/Users/lenovo/Desktop/liteos/Project2/BearPi_LiteOS/components/connectivity/agent_tiny/atiny_lwm2m\object_connectivity_moni.c ****         else
 334:C:/Users/lenovo/Desktop/liteos/Project2/BearPi_LiteOS/components/connectivity/agent_tiny/atiny_lwm2m\object_connectivity_moni.c ****         {
 335:C:/Users/lenovo/Desktop/liteos/Project2/BearPi_LiteOS/components/connectivity/agent_tiny/atiny_lwm2m\object_connectivity_moni.c ****             lwm2m_list_free(connObj->instanceList);
 336:C:/Users/lenovo/Desktop/liteos/Project2/BearPi_LiteOS/components/connectivity/agent_tiny/atiny_lwm2m\object_connectivity_moni.c ****             lwm2m_free(connObj);
 337:C:/Users/lenovo/Desktop/liteos/Project2/BearPi_LiteOS/components/connectivity/agent_tiny/atiny_lwm2m\object_connectivity_moni.c ****             connObj = NULL;
 338:C:/Users/lenovo/Desktop/liteos/Project2/BearPi_LiteOS/components/connectivity/agent_tiny/atiny_lwm2m\object_connectivity_moni.c ****         }
 339:C:/Users/lenovo/Desktop/liteos/Project2/BearPi_LiteOS/components/connectivity/agent_tiny/atiny_lwm2m\object_connectivity_moni.c ****     }
 340:C:/Users/lenovo/Desktop/liteos/Project2/BearPi_LiteOS/components/connectivity/agent_tiny/atiny_lwm2m\object_connectivity_moni.c ****     return connObj;
 341:C:/Users/lenovo/Desktop/liteos/Project2/BearPi_LiteOS/components/connectivity/agent_tiny/atiny_lwm2m\object_connectivity_moni.c **** }
 658              		.loc 1 341 0
 659 00a8 2846     		mov	r0, r5
 660 00aa 70BD     		pop	{r4, r5, r6, pc}
 661              	.LVL98:
 662              	.L43:
 304:C:/Users/lenovo/Desktop/liteos/Project2/BearPi_LiteOS/components/connectivity/agent_tiny/atiny_lwm2m\object_connectivity_moni.c ****             return NULL;
 663              		.loc 1 304 0
 664 00ac 2846     		mov	r0, r5
 665 00ae FFF7FEFF 		bl	lwm2m_free
 666              	.LVL99:
 305:C:/Users/lenovo/Desktop/liteos/Project2/BearPi_LiteOS/components/connectivity/agent_tiny/atiny_lwm2m\object_connectivity_moni.c ****         }
 667              		.loc 1 305 0
 668 00b2 0025     		movs	r5, #0
 669              	.LVL100:
 670 00b4 F8E7     		b	.L41
 671              	.LVL101:
 672              	.L48:
 335:C:/Users/lenovo/Desktop/liteos/Project2/BearPi_LiteOS/components/connectivity/agent_tiny/atiny_lwm2m\object_connectivity_moni.c ****             lwm2m_free(connObj);
 673              		.loc 1 335 0
 674 00b6 A868     		ldr	r0, [r5, #8]
 675 00b8 FFF7FEFF 		bl	lwm2m_list_free
 676              	.LVL102:
 336:C:/Users/lenovo/Desktop/liteos/Project2/BearPi_LiteOS/components/connectivity/agent_tiny/atiny_lwm2m\object_connectivity_moni.c ****             connObj = NULL;
 677              		.loc 1 336 0
ARM GAS  c:\Users\lenovo\AppData\Local\Temp\cc1lzG6Z.s 			page 20


 678 00bc 2846     		mov	r0, r5
 679 00be FFF7FEFF 		bl	lwm2m_free
 680              	.LVL103:
 337:C:/Users/lenovo/Desktop/liteos/Project2/BearPi_LiteOS/components/connectivity/agent_tiny/atiny_lwm2m\object_connectivity_moni.c ****         }
 681              		.loc 1 337 0
 682 00c2 0025     		movs	r5, #0
 683 00c4 F0E7     		b	.L41
 684              	.L50:
 685 00c6 00BF     		.align	2
 686              	.L49:
 687 00c8 00000000 		.word	prv_read
 688 00cc C97D2704 		.word	69696969
 689 00d0 00000000 		.word	.LC2
 690 00d4 10000000 		.word	.LC3
 691 00d8 20000000 		.word	.LC4
 692 00dc 30000000 		.word	.LC5
 693              		.cfi_endproc
 694              	.LFE136:
 696              		.section	.text.free_object_conn_m,"ax",%progbits
 697              		.align	1
 698              		.global	free_object_conn_m
 699              		.syntax unified
 700              		.thumb
 701              		.thumb_func
 702              		.fpu fpv4-sp-d16
 704              	free_object_conn_m:
 705              	.LFB137:
 342:C:/Users/lenovo/Desktop/liteos/Project2/BearPi_LiteOS/components/connectivity/agent_tiny/atiny_lwm2m\object_connectivity_moni.c **** 
 343:C:/Users/lenovo/Desktop/liteos/Project2/BearPi_LiteOS/components/connectivity/agent_tiny/atiny_lwm2m\object_connectivity_moni.c **** void free_object_conn_m(lwm2m_object_t *objectP)
 344:C:/Users/lenovo/Desktop/liteos/Project2/BearPi_LiteOS/components/connectivity/agent_tiny/atiny_lwm2m\object_connectivity_moni.c **** {
 706              		.loc 1 344 0
 707              		.cfi_startproc
 708              		@ args = 0, pretend = 0, frame = 0
 709              		@ frame_needed = 0, uses_anonymous_args = 0
 710              	.LVL104:
 711 0000 10B5     		push	{r4, lr}
 712              	.LCFI9:
 713              		.cfi_def_cfa_offset 8
 714              		.cfi_offset 4, -8
 715              		.cfi_offset 14, -4
 716 0002 0446     		mov	r4, r0
 345:C:/Users/lenovo/Desktop/liteos/Project2/BearPi_LiteOS/components/connectivity/agent_tiny/atiny_lwm2m\object_connectivity_moni.c ****     lwm2m_free(objectP->userData);
 717              		.loc 1 345 0
 718 0004 806A     		ldr	r0, [r0, #40]
 719              	.LVL105:
 720 0006 FFF7FEFF 		bl	lwm2m_free
 721              	.LVL106:
 346:C:/Users/lenovo/Desktop/liteos/Project2/BearPi_LiteOS/components/connectivity/agent_tiny/atiny_lwm2m\object_connectivity_moni.c ****     lwm2m_list_free(objectP->instanceList);
 722              		.loc 1 346 0
 723 000a A068     		ldr	r0, [r4, #8]
 724 000c FFF7FEFF 		bl	lwm2m_list_free
 725              	.LVL107:
 347:C:/Users/lenovo/Desktop/liteos/Project2/BearPi_LiteOS/components/connectivity/agent_tiny/atiny_lwm2m\object_connectivity_moni.c ****     lwm2m_free(objectP);
 726              		.loc 1 347 0
 727 0010 2046     		mov	r0, r4
 728 0012 FFF7FEFF 		bl	lwm2m_free
 729              	.LVL108:
ARM GAS  c:\Users\lenovo\AppData\Local\Temp\cc1lzG6Z.s 			page 21


 348:C:/Users/lenovo/Desktop/liteos/Project2/BearPi_LiteOS/components/connectivity/agent_tiny/atiny_lwm2m\object_connectivity_moni.c **** }
 730              		.loc 1 348 0
 731 0016 10BD     		pop	{r4, pc}
 732              		.cfi_endproc
 733              	.LFE137:
 735              		.section	.text.connectivity_moni_change,"ax",%progbits
 736              		.align	1
 737              		.global	connectivity_moni_change
 738              		.syntax unified
 739              		.thumb
 740              		.thumb_func
 741              		.fpu fpv4-sp-d16
 743              	connectivity_moni_change:
 744              	.LFB138:
 349:C:/Users/lenovo/Desktop/liteos/Project2/BearPi_LiteOS/components/connectivity/agent_tiny/atiny_lwm2m\object_connectivity_moni.c **** 
 350:C:/Users/lenovo/Desktop/liteos/Project2/BearPi_LiteOS/components/connectivity/agent_tiny/atiny_lwm2m\object_connectivity_moni.c **** uint8_t connectivity_moni_change(lwm2m_data_t *dataArray,
 351:C:/Users/lenovo/Desktop/liteos/Project2/BearPi_LiteOS/components/connectivity/agent_tiny/atiny_lwm2m\object_connectivity_moni.c ****                                  lwm2m_object_t *objectP)
 352:C:/Users/lenovo/Desktop/liteos/Project2/BearPi_LiteOS/components/connectivity/agent_tiny/atiny_lwm2m\object_connectivity_moni.c **** {
 745              		.loc 1 352 0
 746              		.cfi_startproc
 747              		@ args = 0, pretend = 0, frame = 8
 748              		@ frame_needed = 0, uses_anonymous_args = 0
 749              	.LVL109:
 750 0000 70B5     		push	{r4, r5, r6, lr}
 751              	.LCFI10:
 752              		.cfi_def_cfa_offset 16
 753              		.cfi_offset 4, -16
 754              		.cfi_offset 5, -12
 755              		.cfi_offset 6, -8
 756              		.cfi_offset 14, -4
 757 0002 82B0     		sub	sp, sp, #8
 758              	.LCFI11:
 759              		.cfi_def_cfa_offset 24
 760 0004 0446     		mov	r4, r0
 353:C:/Users/lenovo/Desktop/liteos/Project2/BearPi_LiteOS/components/connectivity/agent_tiny/atiny_lwm2m\object_connectivity_moni.c ****     int64_t value;
 354:C:/Users/lenovo/Desktop/liteos/Project2/BearPi_LiteOS/components/connectivity/agent_tiny/atiny_lwm2m\object_connectivity_moni.c ****     uint8_t result;
 355:C:/Users/lenovo/Desktop/liteos/Project2/BearPi_LiteOS/components/connectivity/agent_tiny/atiny_lwm2m\object_connectivity_moni.c ****     conn_m_data_t *data;
 356:C:/Users/lenovo/Desktop/liteos/Project2/BearPi_LiteOS/components/connectivity/agent_tiny/atiny_lwm2m\object_connectivity_moni.c **** 
 357:C:/Users/lenovo/Desktop/liteos/Project2/BearPi_LiteOS/components/connectivity/agent_tiny/atiny_lwm2m\object_connectivity_moni.c ****     data = (conn_m_data_t *) (objectP->userData);
 761              		.loc 1 357 0
 762 0006 8D6A     		ldr	r5, [r1, #40]
 763              	.LVL110:
 358:C:/Users/lenovo/Desktop/liteos/Project2/BearPi_LiteOS/components/connectivity/agent_tiny/atiny_lwm2m\object_connectivity_moni.c **** 
 359:C:/Users/lenovo/Desktop/liteos/Project2/BearPi_LiteOS/components/connectivity/agent_tiny/atiny_lwm2m\object_connectivity_moni.c ****     switch (dataArray->id)
 764              		.loc 1 359 0
 765 0008 4388     		ldrh	r3, [r0, #2]
 766 000a 023B     		subs	r3, r3, #2
 767 000c 062B     		cmp	r3, #6
 768 000e 50D8     		bhi	.L61
 769 0010 DFE803F0 		tbb	[pc, r3]
 770              	.L56:
 771 0014 04       		.byte	(.L55-.L56)/2
 772 0015 0F       		.byte	(.L57-.L56)/2
 773 0016 1A       		.byte	(.L58-.L56)/2
 774 0017 2E       		.byte	(.L59-.L56)/2
 775 0018 4F       		.byte	(.L61-.L56)/2
 776 0019 4F       		.byte	(.L61-.L56)/2
ARM GAS  c:\Users\lenovo\AppData\Local\Temp\cc1lzG6Z.s 			page 22


 777 001a 44       		.byte	(.L60-.L56)/2
 778 001b 00       		.p2align 1
 779              	.L55:
 360:C:/Users/lenovo/Desktop/liteos/Project2/BearPi_LiteOS/components/connectivity/agent_tiny/atiny_lwm2m\object_connectivity_moni.c ****     {
 361:C:/Users/lenovo/Desktop/liteos/Project2/BearPi_LiteOS/components/connectivity/agent_tiny/atiny_lwm2m\object_connectivity_moni.c ****     case RES_M_RADIO_SIGNAL_STRENGTH:
 362:C:/Users/lenovo/Desktop/liteos/Project2/BearPi_LiteOS/components/connectivity/agent_tiny/atiny_lwm2m\object_connectivity_moni.c ****         if (1 == lwm2m_data_decode_int(dataArray, &value))
 780              		.loc 1 362 0
 781 001c 6946     		mov	r1, sp
 782              	.LVL111:
 783 001e FFF7FEFF 		bl	lwm2m_data_decode_int
 784              	.LVL112:
 785 0022 0128     		cmp	r0, #1
 786 0024 01D0     		beq	.L68
 363:C:/Users/lenovo/Desktop/liteos/Project2/BearPi_LiteOS/components/connectivity/agent_tiny/atiny_lwm2m\object_connectivity_moni.c ****         {
 364:C:/Users/lenovo/Desktop/liteos/Project2/BearPi_LiteOS/components/connectivity/agent_tiny/atiny_lwm2m\object_connectivity_moni.c ****             data->signalStrength = value;
 365:C:/Users/lenovo/Desktop/liteos/Project2/BearPi_LiteOS/components/connectivity/agent_tiny/atiny_lwm2m\object_connectivity_moni.c ****             result = COAP_204_CHANGED;
 366:C:/Users/lenovo/Desktop/liteos/Project2/BearPi_LiteOS/components/connectivity/agent_tiny/atiny_lwm2m\object_connectivity_moni.c ****         }
 367:C:/Users/lenovo/Desktop/liteos/Project2/BearPi_LiteOS/components/connectivity/agent_tiny/atiny_lwm2m\object_connectivity_moni.c ****         else
 368:C:/Users/lenovo/Desktop/liteos/Project2/BearPi_LiteOS/components/connectivity/agent_tiny/atiny_lwm2m\object_connectivity_moni.c ****         {
 369:C:/Users/lenovo/Desktop/liteos/Project2/BearPi_LiteOS/components/connectivity/agent_tiny/atiny_lwm2m\object_connectivity_moni.c ****             result = COAP_400_BAD_REQUEST;
 787              		.loc 1 369 0
 788 0026 8020     		movs	r0, #128
 789 0028 12E0     		b	.L54
 790              	.L68:
 364:C:/Users/lenovo/Desktop/liteos/Project2/BearPi_LiteOS/components/connectivity/agent_tiny/atiny_lwm2m\object_connectivity_moni.c ****             result = COAP_204_CHANGED;
 791              		.loc 1 364 0
 792 002a 009B     		ldr	r3, [sp]
 793 002c 6B64     		str	r3, [r5, #68]
 794              	.LVL113:
 365:C:/Users/lenovo/Desktop/liteos/Project2/BearPi_LiteOS/components/connectivity/agent_tiny/atiny_lwm2m\object_connectivity_moni.c ****         }
 795              		.loc 1 365 0
 796 002e 4420     		movs	r0, #68
 797 0030 0EE0     		b	.L54
 798              	.LVL114:
 799              	.L57:
 370:C:/Users/lenovo/Desktop/liteos/Project2/BearPi_LiteOS/components/connectivity/agent_tiny/atiny_lwm2m\object_connectivity_moni.c ****         }
 371:C:/Users/lenovo/Desktop/liteos/Project2/BearPi_LiteOS/components/connectivity/agent_tiny/atiny_lwm2m\object_connectivity_moni.c ****         break;
 372:C:/Users/lenovo/Desktop/liteos/Project2/BearPi_LiteOS/components/connectivity/agent_tiny/atiny_lwm2m\object_connectivity_moni.c **** 
 373:C:/Users/lenovo/Desktop/liteos/Project2/BearPi_LiteOS/components/connectivity/agent_tiny/atiny_lwm2m\object_connectivity_moni.c ****     case RES_O_LINK_QUALITY:
 374:C:/Users/lenovo/Desktop/liteos/Project2/BearPi_LiteOS/components/connectivity/agent_tiny/atiny_lwm2m\object_connectivity_moni.c ****         if (1 == lwm2m_data_decode_int(dataArray, &value))
 800              		.loc 1 374 0
 801 0032 6946     		mov	r1, sp
 802              	.LVL115:
 803 0034 FFF7FEFF 		bl	lwm2m_data_decode_int
 804              	.LVL116:
 805 0038 0128     		cmp	r0, #1
 806 003a 01D0     		beq	.L69
 375:C:/Users/lenovo/Desktop/liteos/Project2/BearPi_LiteOS/components/connectivity/agent_tiny/atiny_lwm2m\object_connectivity_moni.c ****         {
 376:C:/Users/lenovo/Desktop/liteos/Project2/BearPi_LiteOS/components/connectivity/agent_tiny/atiny_lwm2m\object_connectivity_moni.c ****             data->linkQuality = value;
 377:C:/Users/lenovo/Desktop/liteos/Project2/BearPi_LiteOS/components/connectivity/agent_tiny/atiny_lwm2m\object_connectivity_moni.c ****             result = COAP_204_CHANGED;
 378:C:/Users/lenovo/Desktop/liteos/Project2/BearPi_LiteOS/components/connectivity/agent_tiny/atiny_lwm2m\object_connectivity_moni.c ****         }
 379:C:/Users/lenovo/Desktop/liteos/Project2/BearPi_LiteOS/components/connectivity/agent_tiny/atiny_lwm2m\object_connectivity_moni.c ****         else
 380:C:/Users/lenovo/Desktop/liteos/Project2/BearPi_LiteOS/components/connectivity/agent_tiny/atiny_lwm2m\object_connectivity_moni.c ****         {
 381:C:/Users/lenovo/Desktop/liteos/Project2/BearPi_LiteOS/components/connectivity/agent_tiny/atiny_lwm2m\object_connectivity_moni.c ****             result = COAP_400_BAD_REQUEST;
 807              		.loc 1 381 0
 808 003c 8020     		movs	r0, #128
 809 003e 07E0     		b	.L54
ARM GAS  c:\Users\lenovo\AppData\Local\Temp\cc1lzG6Z.s 			page 23


 810              	.L69:
 376:C:/Users/lenovo/Desktop/liteos/Project2/BearPi_LiteOS/components/connectivity/agent_tiny/atiny_lwm2m\object_connectivity_moni.c ****             result = COAP_204_CHANGED;
 811              		.loc 1 376 0
 812 0040 009B     		ldr	r3, [sp]
 813 0042 AB64     		str	r3, [r5, #72]
 814              	.LVL117:
 377:C:/Users/lenovo/Desktop/liteos/Project2/BearPi_LiteOS/components/connectivity/agent_tiny/atiny_lwm2m\object_connectivity_moni.c ****         }
 815              		.loc 1 377 0
 816 0044 4420     		movs	r0, #68
 817 0046 03E0     		b	.L54
 818              	.LVL118:
 819              	.L58:
 382:C:/Users/lenovo/Desktop/liteos/Project2/BearPi_LiteOS/components/connectivity/agent_tiny/atiny_lwm2m\object_connectivity_moni.c ****         }
 383:C:/Users/lenovo/Desktop/liteos/Project2/BearPi_LiteOS/components/connectivity/agent_tiny/atiny_lwm2m\object_connectivity_moni.c ****         break;
 384:C:/Users/lenovo/Desktop/liteos/Project2/BearPi_LiteOS/components/connectivity/agent_tiny/atiny_lwm2m\object_connectivity_moni.c **** 
 385:C:/Users/lenovo/Desktop/liteos/Project2/BearPi_LiteOS/components/connectivity/agent_tiny/atiny_lwm2m\object_connectivity_moni.c ****     case RES_M_IP_ADDRESSES:
 386:C:/Users/lenovo/Desktop/liteos/Project2/BearPi_LiteOS/components/connectivity/agent_tiny/atiny_lwm2m\object_connectivity_moni.c ****         if (sizeof(data->ipAddresses[0]) <= dataArray->value.asBuffer.length)
 820              		.loc 1 386 0
 821 0048 8368     		ldr	r3, [r0, #8]
 822 004a 0F2B     		cmp	r3, #15
 823 004c 02D9     		bls	.L70
 387:C:/Users/lenovo/Desktop/liteos/Project2/BearPi_LiteOS/components/connectivity/agent_tiny/atiny_lwm2m\object_connectivity_moni.c ****         {
 388:C:/Users/lenovo/Desktop/liteos/Project2/BearPi_LiteOS/components/connectivity/agent_tiny/atiny_lwm2m\object_connectivity_moni.c ****             result = COAP_400_BAD_REQUEST;
 824              		.loc 1 388 0
 825 004e 8020     		movs	r0, #128
 826              	.LVL119:
 827              	.L54:
 389:C:/Users/lenovo/Desktop/liteos/Project2/BearPi_LiteOS/components/connectivity/agent_tiny/atiny_lwm2m\object_connectivity_moni.c ****         }
 390:C:/Users/lenovo/Desktop/liteos/Project2/BearPi_LiteOS/components/connectivity/agent_tiny/atiny_lwm2m\object_connectivity_moni.c ****         else
 391:C:/Users/lenovo/Desktop/liteos/Project2/BearPi_LiteOS/components/connectivity/agent_tiny/atiny_lwm2m\object_connectivity_moni.c ****         {
 392:C:/Users/lenovo/Desktop/liteos/Project2/BearPi_LiteOS/components/connectivity/agent_tiny/atiny_lwm2m\object_connectivity_moni.c ****             memset(data->ipAddresses[0], 0, sizeof(data->ipAddresses[0]));
 393:C:/Users/lenovo/Desktop/liteos/Project2/BearPi_LiteOS/components/connectivity/agent_tiny/atiny_lwm2m\object_connectivity_moni.c ****             memcpy(data->ipAddresses[0], dataArray->value.asBuffer.buffer, dataArray->value.asBuffe
 394:C:/Users/lenovo/Desktop/liteos/Project2/BearPi_LiteOS/components/connectivity/agent_tiny/atiny_lwm2m\object_connectivity_moni.c ****             data->ipAddresses[0][dataArray->value.asBuffer.length] = 0;
 395:C:/Users/lenovo/Desktop/liteos/Project2/BearPi_LiteOS/components/connectivity/agent_tiny/atiny_lwm2m\object_connectivity_moni.c ****             result = COAP_204_CHANGED;
 396:C:/Users/lenovo/Desktop/liteos/Project2/BearPi_LiteOS/components/connectivity/agent_tiny/atiny_lwm2m\object_connectivity_moni.c ****         }
 397:C:/Users/lenovo/Desktop/liteos/Project2/BearPi_LiteOS/components/connectivity/agent_tiny/atiny_lwm2m\object_connectivity_moni.c ****         break;
 398:C:/Users/lenovo/Desktop/liteos/Project2/BearPi_LiteOS/components/connectivity/agent_tiny/atiny_lwm2m\object_connectivity_moni.c **** 
 399:C:/Users/lenovo/Desktop/liteos/Project2/BearPi_LiteOS/components/connectivity/agent_tiny/atiny_lwm2m\object_connectivity_moni.c ****     case RES_O_ROUTER_IP_ADDRESS:
 400:C:/Users/lenovo/Desktop/liteos/Project2/BearPi_LiteOS/components/connectivity/agent_tiny/atiny_lwm2m\object_connectivity_moni.c ****         if (sizeof(data->routerIpAddresses[0]) <= dataArray->value.asBuffer.length)
 401:C:/Users/lenovo/Desktop/liteos/Project2/BearPi_LiteOS/components/connectivity/agent_tiny/atiny_lwm2m\object_connectivity_moni.c ****         {
 402:C:/Users/lenovo/Desktop/liteos/Project2/BearPi_LiteOS/components/connectivity/agent_tiny/atiny_lwm2m\object_connectivity_moni.c ****             result = COAP_400_BAD_REQUEST;
 403:C:/Users/lenovo/Desktop/liteos/Project2/BearPi_LiteOS/components/connectivity/agent_tiny/atiny_lwm2m\object_connectivity_moni.c ****         }
 404:C:/Users/lenovo/Desktop/liteos/Project2/BearPi_LiteOS/components/connectivity/agent_tiny/atiny_lwm2m\object_connectivity_moni.c ****         else
 405:C:/Users/lenovo/Desktop/liteos/Project2/BearPi_LiteOS/components/connectivity/agent_tiny/atiny_lwm2m\object_connectivity_moni.c ****         {
 406:C:/Users/lenovo/Desktop/liteos/Project2/BearPi_LiteOS/components/connectivity/agent_tiny/atiny_lwm2m\object_connectivity_moni.c ****             memset(data->routerIpAddresses[0], 0, sizeof(data->routerIpAddresses[0]));
 407:C:/Users/lenovo/Desktop/liteos/Project2/BearPi_LiteOS/components/connectivity/agent_tiny/atiny_lwm2m\object_connectivity_moni.c ****             memcpy(data->routerIpAddresses[0], dataArray->value.asBuffer.buffer, dataArray->value.a
 408:C:/Users/lenovo/Desktop/liteos/Project2/BearPi_LiteOS/components/connectivity/agent_tiny/atiny_lwm2m\object_connectivity_moni.c ****             data->routerIpAddresses[0][dataArray->value.asBuffer.length] = 0;
 409:C:/Users/lenovo/Desktop/liteos/Project2/BearPi_LiteOS/components/connectivity/agent_tiny/atiny_lwm2m\object_connectivity_moni.c ****             result = COAP_204_CHANGED;
 410:C:/Users/lenovo/Desktop/liteos/Project2/BearPi_LiteOS/components/connectivity/agent_tiny/atiny_lwm2m\object_connectivity_moni.c ****         }
 411:C:/Users/lenovo/Desktop/liteos/Project2/BearPi_LiteOS/components/connectivity/agent_tiny/atiny_lwm2m\object_connectivity_moni.c ****         break;
 412:C:/Users/lenovo/Desktop/liteos/Project2/BearPi_LiteOS/components/connectivity/agent_tiny/atiny_lwm2m\object_connectivity_moni.c **** 
 413:C:/Users/lenovo/Desktop/liteos/Project2/BearPi_LiteOS/components/connectivity/agent_tiny/atiny_lwm2m\object_connectivity_moni.c ****     case RES_O_CELL_ID:
 414:C:/Users/lenovo/Desktop/liteos/Project2/BearPi_LiteOS/components/connectivity/agent_tiny/atiny_lwm2m\object_connectivity_moni.c ****         if (1 == lwm2m_data_decode_int(dataArray, &value))
 415:C:/Users/lenovo/Desktop/liteos/Project2/BearPi_LiteOS/components/connectivity/agent_tiny/atiny_lwm2m\object_connectivity_moni.c ****         {
 416:C:/Users/lenovo/Desktop/liteos/Project2/BearPi_LiteOS/components/connectivity/agent_tiny/atiny_lwm2m\object_connectivity_moni.c ****             data->cellId = value;
 417:C:/Users/lenovo/Desktop/liteos/Project2/BearPi_LiteOS/components/connectivity/agent_tiny/atiny_lwm2m\object_connectivity_moni.c ****             result = COAP_204_CHANGED;
 418:C:/Users/lenovo/Desktop/liteos/Project2/BearPi_LiteOS/components/connectivity/agent_tiny/atiny_lwm2m\object_connectivity_moni.c ****         }
ARM GAS  c:\Users\lenovo\AppData\Local\Temp\cc1lzG6Z.s 			page 24


 419:C:/Users/lenovo/Desktop/liteos/Project2/BearPi_LiteOS/components/connectivity/agent_tiny/atiny_lwm2m\object_connectivity_moni.c ****         else
 420:C:/Users/lenovo/Desktop/liteos/Project2/BearPi_LiteOS/components/connectivity/agent_tiny/atiny_lwm2m\object_connectivity_moni.c ****         {
 421:C:/Users/lenovo/Desktop/liteos/Project2/BearPi_LiteOS/components/connectivity/agent_tiny/atiny_lwm2m\object_connectivity_moni.c ****             result = COAP_400_BAD_REQUEST;
 422:C:/Users/lenovo/Desktop/liteos/Project2/BearPi_LiteOS/components/connectivity/agent_tiny/atiny_lwm2m\object_connectivity_moni.c ****         }
 423:C:/Users/lenovo/Desktop/liteos/Project2/BearPi_LiteOS/components/connectivity/agent_tiny/atiny_lwm2m\object_connectivity_moni.c ****         break;
 424:C:/Users/lenovo/Desktop/liteos/Project2/BearPi_LiteOS/components/connectivity/agent_tiny/atiny_lwm2m\object_connectivity_moni.c **** 
 425:C:/Users/lenovo/Desktop/liteos/Project2/BearPi_LiteOS/components/connectivity/agent_tiny/atiny_lwm2m\object_connectivity_moni.c ****     default:
 426:C:/Users/lenovo/Desktop/liteos/Project2/BearPi_LiteOS/components/connectivity/agent_tiny/atiny_lwm2m\object_connectivity_moni.c ****         result = COAP_405_METHOD_NOT_ALLOWED;
 427:C:/Users/lenovo/Desktop/liteos/Project2/BearPi_LiteOS/components/connectivity/agent_tiny/atiny_lwm2m\object_connectivity_moni.c ****     }
 428:C:/Users/lenovo/Desktop/liteos/Project2/BearPi_LiteOS/components/connectivity/agent_tiny/atiny_lwm2m\object_connectivity_moni.c **** 
 429:C:/Users/lenovo/Desktop/liteos/Project2/BearPi_LiteOS/components/connectivity/agent_tiny/atiny_lwm2m\object_connectivity_moni.c ****     return result;
 430:C:/Users/lenovo/Desktop/liteos/Project2/BearPi_LiteOS/components/connectivity/agent_tiny/atiny_lwm2m\object_connectivity_moni.c **** }
 828              		.loc 1 430 0
 829 0050 02B0     		add	sp, sp, #8
 830              	.LCFI12:
 831              		.cfi_remember_state
 832              		.cfi_def_cfa_offset 16
 833              		@ sp needed
 834 0052 70BD     		pop	{r4, r5, r6, pc}
 835              	.LVL120:
 836              	.L70:
 837              	.LCFI13:
 838              		.cfi_restore_state
 392:C:/Users/lenovo/Desktop/liteos/Project2/BearPi_LiteOS/components/connectivity/agent_tiny/atiny_lwm2m\object_connectivity_moni.c ****             memcpy(data->ipAddresses[0], dataArray->value.asBuffer.buffer, dataArray->value.asBuffe
 839              		.loc 1 392 0
 840 0054 0026     		movs	r6, #0
 841 0056 2E60     		str	r6, [r5]	@ unaligned
 842 0058 6E60     		str	r6, [r5, #4]	@ unaligned
 843 005a AE60     		str	r6, [r5, #8]	@ unaligned
 844 005c EE60     		str	r6, [r5, #12]	@ unaligned
 393:C:/Users/lenovo/Desktop/liteos/Project2/BearPi_LiteOS/components/connectivity/agent_tiny/atiny_lwm2m\object_connectivity_moni.c ****             data->ipAddresses[0][dataArray->value.asBuffer.length] = 0;
 845              		.loc 1 393 0
 846 005e 8268     		ldr	r2, [r0, #8]
 847 0060 C168     		ldr	r1, [r0, #12]
 848              	.LVL121:
 849 0062 2846     		mov	r0, r5
 850              	.LVL122:
 851 0064 FFF7FEFF 		bl	memcpy
 852              	.LVL123:
 394:C:/Users/lenovo/Desktop/liteos/Project2/BearPi_LiteOS/components/connectivity/agent_tiny/atiny_lwm2m\object_connectivity_moni.c ****             result = COAP_204_CHANGED;
 853              		.loc 1 394 0
 854 0068 A368     		ldr	r3, [r4, #8]
 855 006a EE54     		strb	r6, [r5, r3]
 856              	.LVL124:
 395:C:/Users/lenovo/Desktop/liteos/Project2/BearPi_LiteOS/components/connectivity/agent_tiny/atiny_lwm2m\object_connectivity_moni.c ****         }
 857              		.loc 1 395 0
 858 006c 4420     		movs	r0, #68
 859 006e EFE7     		b	.L54
 860              	.LVL125:
 861              	.L59:
 400:C:/Users/lenovo/Desktop/liteos/Project2/BearPi_LiteOS/components/connectivity/agent_tiny/atiny_lwm2m\object_connectivity_moni.c ****         {
 862              		.loc 1 400 0
 863 0070 8368     		ldr	r3, [r0, #8]
 864 0072 0F2B     		cmp	r3, #15
 865 0074 01D9     		bls	.L71
 402:C:/Users/lenovo/Desktop/liteos/Project2/BearPi_LiteOS/components/connectivity/agent_tiny/atiny_lwm2m\object_connectivity_moni.c ****         }
 866              		.loc 1 402 0
ARM GAS  c:\Users\lenovo\AppData\Local\Temp\cc1lzG6Z.s 			page 25


 867 0076 8020     		movs	r0, #128
 868              	.LVL126:
 869 0078 EAE7     		b	.L54
 870              	.LVL127:
 871              	.L71:
 406:C:/Users/lenovo/Desktop/liteos/Project2/BearPi_LiteOS/components/connectivity/agent_tiny/atiny_lwm2m\object_connectivity_moni.c ****             memcpy(data->routerIpAddresses[0], dataArray->value.asBuffer.buffer, dataArray->value.a
 872              		.loc 1 406 0
 873 007a 05F12000 		add	r0, r5, #32
 874              	.LVL128:
 875 007e 0026     		movs	r6, #0
 876 0080 2E62     		str	r6, [r5, #32]	@ unaligned
 877 0082 4660     		str	r6, [r0, #4]	@ unaligned
 878 0084 8660     		str	r6, [r0, #8]	@ unaligned
 879 0086 C660     		str	r6, [r0, #12]	@ unaligned
 407:C:/Users/lenovo/Desktop/liteos/Project2/BearPi_LiteOS/components/connectivity/agent_tiny/atiny_lwm2m\object_connectivity_moni.c ****             data->routerIpAddresses[0][dataArray->value.asBuffer.length] = 0;
 880              		.loc 1 407 0
 881 0088 A268     		ldr	r2, [r4, #8]
 882 008a E168     		ldr	r1, [r4, #12]
 883              	.LVL129:
 884 008c FFF7FEFF 		bl	memcpy
 885              	.LVL130:
 408:C:/Users/lenovo/Desktop/liteos/Project2/BearPi_LiteOS/components/connectivity/agent_tiny/atiny_lwm2m\object_connectivity_moni.c ****             result = COAP_204_CHANGED;
 886              		.loc 1 408 0
 887 0090 A368     		ldr	r3, [r4, #8]
 888 0092 1D44     		add	r5, r5, r3
 889              	.LVL131:
 890 0094 85F82060 		strb	r6, [r5, #32]
 891              	.LVL132:
 409:C:/Users/lenovo/Desktop/liteos/Project2/BearPi_LiteOS/components/connectivity/agent_tiny/atiny_lwm2m\object_connectivity_moni.c ****         }
 892              		.loc 1 409 0
 893 0098 4420     		movs	r0, #68
 894 009a D9E7     		b	.L54
 895              	.LVL133:
 896              	.L60:
 414:C:/Users/lenovo/Desktop/liteos/Project2/BearPi_LiteOS/components/connectivity/agent_tiny/atiny_lwm2m\object_connectivity_moni.c ****         {
 897              		.loc 1 414 0
 898 009c 6946     		mov	r1, sp
 899              	.LVL134:
 900 009e FFF7FEFF 		bl	lwm2m_data_decode_int
 901              	.LVL135:
 902 00a2 0128     		cmp	r0, #1
 903 00a4 01D0     		beq	.L72
 421:C:/Users/lenovo/Desktop/liteos/Project2/BearPi_LiteOS/components/connectivity/agent_tiny/atiny_lwm2m\object_connectivity_moni.c ****         }
 904              		.loc 1 421 0
 905 00a6 8020     		movs	r0, #128
 906 00a8 D2E7     		b	.L54
 907              	.L72:
 416:C:/Users/lenovo/Desktop/liteos/Project2/BearPi_LiteOS/components/connectivity/agent_tiny/atiny_lwm2m\object_connectivity_moni.c ****             result = COAP_204_CHANGED;
 908              		.loc 1 416 0
 909 00aa 009B     		ldr	r3, [sp]
 910 00ac 2B64     		str	r3, [r5, #64]
 911              	.LVL136:
 417:C:/Users/lenovo/Desktop/liteos/Project2/BearPi_LiteOS/components/connectivity/agent_tiny/atiny_lwm2m\object_connectivity_moni.c ****         }
 912              		.loc 1 417 0
 913 00ae 4420     		movs	r0, #68
 914 00b0 CEE7     		b	.L54
 915              	.LVL137:
ARM GAS  c:\Users\lenovo\AppData\Local\Temp\cc1lzG6Z.s 			page 26


 916              	.L61:
 426:C:/Users/lenovo/Desktop/liteos/Project2/BearPi_LiteOS/components/connectivity/agent_tiny/atiny_lwm2m\object_connectivity_moni.c ****     }
 917              		.loc 1 426 0
 918 00b2 8520     		movs	r0, #133
 919              	.LVL138:
 920 00b4 CCE7     		b	.L54
 921              		.cfi_endproc
 922              	.LFE138:
 924              		.section	.rodata
 925              		.align	2
 926              		.set	.LANCHOR0,. + 0
 927              	.LC0:
 928 0000 0000     		.short	0
 929 0002 0100     		.short	1
 930 0004 0200     		.short	2
 931 0006 0300     		.short	3
 932 0008 0400     		.short	4
 933 000a 0500     		.short	5
 934 000c 0600     		.short	6
 935 000e 0700     		.short	7
 936 0010 0800     		.short	8
 937 0012 0900     		.short	9
 938 0014 0A00     		.short	10
 939              		.section	.rodata.get_object_conn_m.str1.4,"aMS",%progbits,1
 940              		.align	2
 941              	.LC2:
 942 0000 3139322E 		.ascii	"192.168.178.101\000"
 942      3136382E 
 942      3137382E 
 942      31303100 
 943              	.LC3:
 944 0010 3139322E 		.ascii	"192.168.178.102\000"
 944      3136382E 
 944      3137382E 
 944      31303200 
 945              	.LC4:
 946 0020 3139322E 		.ascii	"192.168.178.001\000"
 946      3136382E 
 946      3137382E 
 946      30303100 
 947              	.LC5:
 948 0030 3139322E 		.ascii	"192.168.178.002\000"
 948      3136382E 
 948      3137382E 
 948      30303200 
 949              		.section	.rodata.prv_set_value.str1.4,"aMS",%progbits,1
 950              		.align	2
 951              	.LC1:
 952 0000 7765622E 		.ascii	"web.vodafone.de\000"
 952      766F6461 
 952      666F6E65 
 952      2E646500 
 953              		.text
 954              	.Letext0:
 955              		.file 2 "c:\\program files (x86)\\liteos studio\\resources\\arm-none-eabi\\arm-none-eabi\\include\
 956              		.file 3 "c:\\program files (x86)\\liteos studio\\resources\\arm-none-eabi\\arm-none-eabi\\include\
 957              		.file 4 "C:/Users/lenovo/Desktop/liteos/Project2/BearPi_LiteOS/components/connectivity/lwm2m/core/
ARM GAS  c:\Users\lenovo\AppData\Local\Temp\cc1lzG6Z.s 			page 27


 958              		.file 5 "c:\\program files (x86)\\liteos studio\\resources\\arm-none-eabi\\lib\\gcc\\arm-none-eabi
 959              		.file 6 "c:\\program files (x86)\\liteos studio\\resources\\arm-none-eabi\\arm-none-eabi\\include\
 960              		.file 7 "c:\\program files (x86)\\liteos studio\\resources\\arm-none-eabi\\arm-none-eabi\\include\
 961              		.file 8 "c:\\program files (x86)\\liteos studio\\resources\\arm-none-eabi\\arm-none-eabi\\include\
 962              		.file 9 "c:\\program files (x86)\\liteos studio\\resources\\arm-none-eabi\\arm-none-eabi\\include\
 963              		.file 10 "C:/Users/lenovo/Desktop/liteos/Project2/BearPi_LiteOS/components/connectivity/lwm2m/core
 964              		.file 11 "C:/Users/lenovo/Desktop/liteos/Project2/BearPi_LiteOS/kernel/include/los_typedef.h"
 965              		.file 12 "C:/Users/lenovo/Desktop/liteos/Project2/BearPi_LiteOS/arch/arm/common/cmsis/core_cm4.h"
 966              		.file 13 "C:/Users/lenovo/Desktop/liteos/Project2/BearPi_LiteOS/targets/STM32L431_BearPi/Inc/syste
 967              		.file 14 "C:/Users/lenovo/Desktop/liteos/Project2/BearPi_LiteOS/kernel/include/los_list.h"
 968              		.file 15 "C:/Users/lenovo/Desktop/liteos/Project2/BearPi_LiteOS/kernel/include/los_err.h"
 969              		.file 16 "C:/Users/lenovo/Desktop/liteos/Project2/BearPi_LiteOS/arch/arm/arm-m/include/los_hwi.h"
 970              		.file 17 "C:/Users/lenovo/Desktop/liteos/Project2/BearPi_LiteOS/kernel/include/los_tick.h"
 971              		.file 18 "C:/Users/lenovo/Desktop/liteos/Project2/BearPi_LiteOS/kernel/include/los_event.h"
 972              		.file 19 "C:/Users/lenovo/Desktop/liteos/Project2/BearPi_LiteOS/kernel/include/los_task.h"
 973              		.file 20 "C:/Users/lenovo/Desktop/liteos/Project2/BearPi_LiteOS/kernel/base/include/los_task.ph"
 974              		.file 21 "C:/Users/lenovo/Desktop/liteos/Project2/BearPi_LiteOS/targets/STM32L431_BearPi/Inc/main.
 975              		.file 22 "C:/Users/lenovo/Desktop/liteos/Project2/BearPi_LiteOS/targets/STM32L431_BearPi/OS_CONFIG
 976              		.file 23 "C:/Users/lenovo/Desktop/liteos/Project2/BearPi_LiteOS/kernel/include/los_config.h"
 977              		.file 24 "C:/Users/lenovo/Desktop/liteos/Project2/BearPi_LiteOS/components/connectivity/lwm2m/core
 978              		.file 25 "c:\\program files (x86)\\liteos studio\\resources\\arm-none-eabi\\arm-none-eabi\\include
 979              		.file 26 "c:\\program files (x86)\\liteos studio\\resources\\arm-none-eabi\\arm-none-eabi\\include
 980              		.file 27 "C:/Users/lenovo/Desktop/liteos/Project2/BearPi_LiteOS/include/atiny_lwm2m/agenttiny.h"
 981              		.file 28 "<built-in>"
ARM GAS  c:\Users\lenovo\AppData\Local\Temp\cc1lzG6Z.s 			page 28

