ARM GAS  c:\Users\lenovo\AppData\Local\Temp\ccwlAmuu.s 			page 1


   1              		.cpu cortex-m4
   2              		.eabi_attribute 27, 1
   3              		.eabi_attribute 28, 1
   4              		.eabi_attribute 20, 1
   5              		.eabi_attribute 21, 1
   6              		.eabi_attribute 23, 3
   7              		.eabi_attribute 24, 1
   8              		.eabi_attribute 25, 1
   9              		.eabi_attribute 26, 1
  10              		.eabi_attribute 30, 1
  11              		.eabi_attribute 34, 1
  12              		.eabi_attribute 18, 4
  13              		.file	"object_security.c"
  14              		.text
  15              	.Ltext0:
  16              		.cfi_sections	.debug_frame
  17              		.section	.text.prv_get_value,"ax",%progbits
  18              		.align	1
  19              		.syntax unified
  20              		.thumb
  21              		.thumb_func
  22              		.fpu fpv4-sp-d16
  24              	prv_get_value:
  25              	.LFB142:
  26              		.file 1 "C:/Users/lenovo/Desktop/liteos/Project2/BearPi_LiteOS/components/connectivity/agent_tiny/
   1:C:/Users/lenovo/Desktop/liteos/Project2/BearPi_LiteOS/components/connectivity/agent_tiny/atiny_lwm2m\object_security.c **** /*----------------------------------------------------------------------------
   2:C:/Users/lenovo/Desktop/liteos/Project2/BearPi_LiteOS/components/connectivity/agent_tiny/atiny_lwm2m\object_security.c ****  * Copyright (c) <2016-2018>, <Huawei Technologies Co., Ltd>
   3:C:/Users/lenovo/Desktop/liteos/Project2/BearPi_LiteOS/components/connectivity/agent_tiny/atiny_lwm2m\object_security.c ****  * All rights reserved.
   4:C:/Users/lenovo/Desktop/liteos/Project2/BearPi_LiteOS/components/connectivity/agent_tiny/atiny_lwm2m\object_security.c ****  * Redistribution and use in source and binary forms, with or without modification,
   5:C:/Users/lenovo/Desktop/liteos/Project2/BearPi_LiteOS/components/connectivity/agent_tiny/atiny_lwm2m\object_security.c ****  * are permitted provided that the following conditions are met:
   6:C:/Users/lenovo/Desktop/liteos/Project2/BearPi_LiteOS/components/connectivity/agent_tiny/atiny_lwm2m\object_security.c ****  * 1. Redistributions of source code must retain the above copyright notice, this list of
   7:C:/Users/lenovo/Desktop/liteos/Project2/BearPi_LiteOS/components/connectivity/agent_tiny/atiny_lwm2m\object_security.c ****  * conditions and the following disclaimer.
   8:C:/Users/lenovo/Desktop/liteos/Project2/BearPi_LiteOS/components/connectivity/agent_tiny/atiny_lwm2m\object_security.c ****  * 2. Redistributions in binary form must reproduce the above copyright notice, this list
   9:C:/Users/lenovo/Desktop/liteos/Project2/BearPi_LiteOS/components/connectivity/agent_tiny/atiny_lwm2m\object_security.c ****  * of conditions and the following disclaimer in the documentation and/or other materials
  10:C:/Users/lenovo/Desktop/liteos/Project2/BearPi_LiteOS/components/connectivity/agent_tiny/atiny_lwm2m\object_security.c ****  * provided with the distribution.
  11:C:/Users/lenovo/Desktop/liteos/Project2/BearPi_LiteOS/components/connectivity/agent_tiny/atiny_lwm2m\object_security.c ****  * 3. Neither the name of the copyright holder nor the names of its contributors may be used
  12:C:/Users/lenovo/Desktop/liteos/Project2/BearPi_LiteOS/components/connectivity/agent_tiny/atiny_lwm2m\object_security.c ****  * to endorse or promote products derived from this software without specific prior written
  13:C:/Users/lenovo/Desktop/liteos/Project2/BearPi_LiteOS/components/connectivity/agent_tiny/atiny_lwm2m\object_security.c ****  * permission.
  14:C:/Users/lenovo/Desktop/liteos/Project2/BearPi_LiteOS/components/connectivity/agent_tiny/atiny_lwm2m\object_security.c ****  * THIS SOFTWARE IS PROVIDED BY THE COPYRIGHT HOLDERS AND CONTRIBUTORS
  15:C:/Users/lenovo/Desktop/liteos/Project2/BearPi_LiteOS/components/connectivity/agent_tiny/atiny_lwm2m\object_security.c ****  * "AS IS" AND ANY EXPRESS OR IMPLIED WARRANTIES, INCLUDING, BUT NOT LIMITED TO,
  16:C:/Users/lenovo/Desktop/liteos/Project2/BearPi_LiteOS/components/connectivity/agent_tiny/atiny_lwm2m\object_security.c ****  * THE IMPLIED WARRANTIES OF MERCHANTABILITY AND FITNESS FOR A PARTICULAR
  17:C:/Users/lenovo/Desktop/liteos/Project2/BearPi_LiteOS/components/connectivity/agent_tiny/atiny_lwm2m\object_security.c ****  * PURPOSE ARE DISCLAIMED. IN NO EVENT SHALL THE COPYRIGHT HOLDER OR
  18:C:/Users/lenovo/Desktop/liteos/Project2/BearPi_LiteOS/components/connectivity/agent_tiny/atiny_lwm2m\object_security.c ****  * CONTRIBUTORS BE LIABLE FOR ANY DIRECT, INDIRECT, INCIDENTAL, SPECIAL,
  19:C:/Users/lenovo/Desktop/liteos/Project2/BearPi_LiteOS/components/connectivity/agent_tiny/atiny_lwm2m\object_security.c ****  * EXEMPLARY, OR CONSEQUENTIAL DAMAGES (INCLUDING, BUT NOT LIMITED TO,
  20:C:/Users/lenovo/Desktop/liteos/Project2/BearPi_LiteOS/components/connectivity/agent_tiny/atiny_lwm2m\object_security.c ****  * PROCUREMENT OF SUBSTITUTE GOODS OR SERVICES; LOSS OF USE, DATA, OR PROFITS;
  21:C:/Users/lenovo/Desktop/liteos/Project2/BearPi_LiteOS/components/connectivity/agent_tiny/atiny_lwm2m\object_security.c ****  * OR BUSINESS INTERRUPTION) HOWEVER CAUSED AND ON ANY THEORY OF LIABILITY,
  22:C:/Users/lenovo/Desktop/liteos/Project2/BearPi_LiteOS/components/connectivity/agent_tiny/atiny_lwm2m\object_security.c ****  * WHETHER IN CONTRACT, STRICT LIABILITY, OR TORT (INCLUDING NEGLIGENCE OR
  23:C:/Users/lenovo/Desktop/liteos/Project2/BearPi_LiteOS/components/connectivity/agent_tiny/atiny_lwm2m\object_security.c ****  * OTHERWISE) ARISING IN ANY WAY OUT OF THE USE OF THIS SOFTWARE, EVEN IF
  24:C:/Users/lenovo/Desktop/liteos/Project2/BearPi_LiteOS/components/connectivity/agent_tiny/atiny_lwm2m\object_security.c ****  * ADVISED OF THE POSSIBILITY OF SUCH DAMAGE.
  25:C:/Users/lenovo/Desktop/liteos/Project2/BearPi_LiteOS/components/connectivity/agent_tiny/atiny_lwm2m\object_security.c ****  *---------------------------------------------------------------------------*/
  26:C:/Users/lenovo/Desktop/liteos/Project2/BearPi_LiteOS/components/connectivity/agent_tiny/atiny_lwm2m\object_security.c **** /*----------------------------------------------------------------------------
  27:C:/Users/lenovo/Desktop/liteos/Project2/BearPi_LiteOS/components/connectivity/agent_tiny/atiny_lwm2m\object_security.c ****  * Notice of Export Control Law
  28:C:/Users/lenovo/Desktop/liteos/Project2/BearPi_LiteOS/components/connectivity/agent_tiny/atiny_lwm2m\object_security.c ****  * ===============================================
  29:C:/Users/lenovo/Desktop/liteos/Project2/BearPi_LiteOS/components/connectivity/agent_tiny/atiny_lwm2m\object_security.c ****  * Huawei LiteOS may be subject to applicable export control laws and regulations, which might
  30:C:/Users/lenovo/Desktop/liteos/Project2/BearPi_LiteOS/components/connectivity/agent_tiny/atiny_lwm2m\object_security.c ****  * include those applicable to Huawei LiteOS of U.S. and the country in which you are located.
  31:C:/Users/lenovo/Desktop/liteos/Project2/BearPi_LiteOS/components/connectivity/agent_tiny/atiny_lwm2m\object_security.c ****  * Import, export and usage of Huawei LiteOS in any manner by you shall be in compliance with such
  32:C:/Users/lenovo/Desktop/liteos/Project2/BearPi_LiteOS/components/connectivity/agent_tiny/atiny_lwm2m\object_security.c ****  * applicable export control laws and regulations.
ARM GAS  c:\Users\lenovo\AppData\Local\Temp\ccwlAmuu.s 			page 2


  33:C:/Users/lenovo/Desktop/liteos/Project2/BearPi_LiteOS/components/connectivity/agent_tiny/atiny_lwm2m\object_security.c ****  *---------------------------------------------------------------------------*/
  34:C:/Users/lenovo/Desktop/liteos/Project2/BearPi_LiteOS/components/connectivity/agent_tiny/atiny_lwm2m\object_security.c **** 
  35:C:/Users/lenovo/Desktop/liteos/Project2/BearPi_LiteOS/components/connectivity/agent_tiny/atiny_lwm2m\object_security.c **** /*******************************************************************************
  36:C:/Users/lenovo/Desktop/liteos/Project2/BearPi_LiteOS/components/connectivity/agent_tiny/atiny_lwm2m\object_security.c ****  *
  37:C:/Users/lenovo/Desktop/liteos/Project2/BearPi_LiteOS/components/connectivity/agent_tiny/atiny_lwm2m\object_security.c ****  * Copyright (c) 2013, 2014 Intel Corporation and others.
  38:C:/Users/lenovo/Desktop/liteos/Project2/BearPi_LiteOS/components/connectivity/agent_tiny/atiny_lwm2m\object_security.c ****  * All rights reserved. This program and the accompanying materials
  39:C:/Users/lenovo/Desktop/liteos/Project2/BearPi_LiteOS/components/connectivity/agent_tiny/atiny_lwm2m\object_security.c ****  * are made available under the terms of the Eclipse Public License v1.0
  40:C:/Users/lenovo/Desktop/liteos/Project2/BearPi_LiteOS/components/connectivity/agent_tiny/atiny_lwm2m\object_security.c ****  * and Eclipse Distribution License v1.0 which accompany this distribution.
  41:C:/Users/lenovo/Desktop/liteos/Project2/BearPi_LiteOS/components/connectivity/agent_tiny/atiny_lwm2m\object_security.c ****  *
  42:C:/Users/lenovo/Desktop/liteos/Project2/BearPi_LiteOS/components/connectivity/agent_tiny/atiny_lwm2m\object_security.c ****  * The Eclipse Public License is available at
  43:C:/Users/lenovo/Desktop/liteos/Project2/BearPi_LiteOS/components/connectivity/agent_tiny/atiny_lwm2m\object_security.c ****  *    http://www.eclipse.org/legal/epl-v10.html
  44:C:/Users/lenovo/Desktop/liteos/Project2/BearPi_LiteOS/components/connectivity/agent_tiny/atiny_lwm2m\object_security.c ****  * The Eclipse Distribution License is available at
  45:C:/Users/lenovo/Desktop/liteos/Project2/BearPi_LiteOS/components/connectivity/agent_tiny/atiny_lwm2m\object_security.c ****  *    http://www.eclipse.org/org/documents/edl-v10.php.
  46:C:/Users/lenovo/Desktop/liteos/Project2/BearPi_LiteOS/components/connectivity/agent_tiny/atiny_lwm2m\object_security.c ****  *
  47:C:/Users/lenovo/Desktop/liteos/Project2/BearPi_LiteOS/components/connectivity/agent_tiny/atiny_lwm2m\object_security.c ****  * Contributors:
  48:C:/Users/lenovo/Desktop/liteos/Project2/BearPi_LiteOS/components/connectivity/agent_tiny/atiny_lwm2m\object_security.c ****  *    David Navarro, Intel Corporation - initial API and implementation
  49:C:/Users/lenovo/Desktop/liteos/Project2/BearPi_LiteOS/components/connectivity/agent_tiny/atiny_lwm2m\object_security.c ****  *    Bosch Software Innovations GmbH - Please refer to git log
  50:C:/Users/lenovo/Desktop/liteos/Project2/BearPi_LiteOS/components/connectivity/agent_tiny/atiny_lwm2m\object_security.c ****  *    Pascal Rieux - Please refer to git log
  51:C:/Users/lenovo/Desktop/liteos/Project2/BearPi_LiteOS/components/connectivity/agent_tiny/atiny_lwm2m\object_security.c ****  *    Ville Skytt? - Please refer to git log
  52:C:/Users/lenovo/Desktop/liteos/Project2/BearPi_LiteOS/components/connectivity/agent_tiny/atiny_lwm2m\object_security.c ****  *
  53:C:/Users/lenovo/Desktop/liteos/Project2/BearPi_LiteOS/components/connectivity/agent_tiny/atiny_lwm2m\object_security.c ****  *******************************************************************************/
  54:C:/Users/lenovo/Desktop/liteos/Project2/BearPi_LiteOS/components/connectivity/agent_tiny/atiny_lwm2m\object_security.c **** 
  55:C:/Users/lenovo/Desktop/liteos/Project2/BearPi_LiteOS/components/connectivity/agent_tiny/atiny_lwm2m\object_security.c **** /*
  56:C:/Users/lenovo/Desktop/liteos/Project2/BearPi_LiteOS/components/connectivity/agent_tiny/atiny_lwm2m\object_security.c ****  *  Resources:
  57:C:/Users/lenovo/Desktop/liteos/Project2/BearPi_LiteOS/components/connectivity/agent_tiny/atiny_lwm2m\object_security.c ****  *
  58:C:/Users/lenovo/Desktop/liteos/Project2/BearPi_LiteOS/components/connectivity/agent_tiny/atiny_lwm2m\object_security.c ****  *          Name            | ID | Operations | Instances | Mandatory |  Type   |  Range  | Units |
  59:C:/Users/lenovo/Desktop/liteos/Project2/BearPi_LiteOS/components/connectivity/agent_tiny/atiny_lwm2m\object_security.c ****  *  Server URI              |  0 |            |  Single   |    Yes    | String  |         |       |
  60:C:/Users/lenovo/Desktop/liteos/Project2/BearPi_LiteOS/components/connectivity/agent_tiny/atiny_lwm2m\object_security.c ****  *  Bootstrap Server        |  1 |            |  Single   |    Yes    | Boolean |         |       |
  61:C:/Users/lenovo/Desktop/liteos/Project2/BearPi_LiteOS/components/connectivity/agent_tiny/atiny_lwm2m\object_security.c ****  *  Security Mode           |  2 |            |  Single   |    Yes    | Integer |   0-3   |       |
  62:C:/Users/lenovo/Desktop/liteos/Project2/BearPi_LiteOS/components/connectivity/agent_tiny/atiny_lwm2m\object_security.c ****  *  Public Key or ID        |  3 |            |  Single   |    Yes    | Opaque  |         |       |
  63:C:/Users/lenovo/Desktop/liteos/Project2/BearPi_LiteOS/components/connectivity/agent_tiny/atiny_lwm2m\object_security.c ****  *  Server Public Key or ID |  4 |            |  Single   |    Yes    | Opaque  |         |       |
  64:C:/Users/lenovo/Desktop/liteos/Project2/BearPi_LiteOS/components/connectivity/agent_tiny/atiny_lwm2m\object_security.c ****  *  Secret Key              |  5 |            |  Single   |    Yes    | Opaque  |         |       |
  65:C:/Users/lenovo/Desktop/liteos/Project2/BearPi_LiteOS/components/connectivity/agent_tiny/atiny_lwm2m\object_security.c ****  *  SMS Security Mode       |  6 |            |  Single   |    No     | Integer |  0-255  |       |
  66:C:/Users/lenovo/Desktop/liteos/Project2/BearPi_LiteOS/components/connectivity/agent_tiny/atiny_lwm2m\object_security.c ****  *  SMS Binding Key Param.  |  7 |            |  Single   |    No     | Opaque  |   6 B   |       |
  67:C:/Users/lenovo/Desktop/liteos/Project2/BearPi_LiteOS/components/connectivity/agent_tiny/atiny_lwm2m\object_security.c ****  *  SMS Binding Secret Keys |  8 |            |  Single   |    No     | Opaque  | 32-48 B |       |
  68:C:/Users/lenovo/Desktop/liteos/Project2/BearPi_LiteOS/components/connectivity/agent_tiny/atiny_lwm2m\object_security.c ****  *  Server SMS Number       |  9 |            |  Single   |    No     | String  |         |       |
  69:C:/Users/lenovo/Desktop/liteos/Project2/BearPi_LiteOS/components/connectivity/agent_tiny/atiny_lwm2m\object_security.c ****  *  Short Server ID         | 10 |            |  Single   |    No     | Integer | 1-65535 |       |
  70:C:/Users/lenovo/Desktop/liteos/Project2/BearPi_LiteOS/components/connectivity/agent_tiny/atiny_lwm2m\object_security.c ****  *  Client Hold Off Time    | 11 |            |  Single   |    No     | Integer |         |   s   |
  71:C:/Users/lenovo/Desktop/liteos/Project2/BearPi_LiteOS/components/connectivity/agent_tiny/atiny_lwm2m\object_security.c ****  *  BS Account Timeout      | 12 |            |  Single   |    No     | Integer |         |   s   |
  72:C:/Users/lenovo/Desktop/liteos/Project2/BearPi_LiteOS/components/connectivity/agent_tiny/atiny_lwm2m\object_security.c ****  *
  73:C:/Users/lenovo/Desktop/liteos/Project2/BearPi_LiteOS/components/connectivity/agent_tiny/atiny_lwm2m\object_security.c ****  */
  74:C:/Users/lenovo/Desktop/liteos/Project2/BearPi_LiteOS/components/connectivity/agent_tiny/atiny_lwm2m\object_security.c **** 
  75:C:/Users/lenovo/Desktop/liteos/Project2/BearPi_LiteOS/components/connectivity/agent_tiny/atiny_lwm2m\object_security.c **** /*
  76:C:/Users/lenovo/Desktop/liteos/Project2/BearPi_LiteOS/components/connectivity/agent_tiny/atiny_lwm2m\object_security.c ****  * Here we implement a very basic LWM2M Security Object which only knows NoSec security mode.
  77:C:/Users/lenovo/Desktop/liteos/Project2/BearPi_LiteOS/components/connectivity/agent_tiny/atiny_lwm2m\object_security.c ****  */
  78:C:/Users/lenovo/Desktop/liteos/Project2/BearPi_LiteOS/components/connectivity/agent_tiny/atiny_lwm2m\object_security.c **** 
  79:C:/Users/lenovo/Desktop/liteos/Project2/BearPi_LiteOS/components/connectivity/agent_tiny/atiny_lwm2m\object_security.c **** #include "internals.h"
  80:C:/Users/lenovo/Desktop/liteos/Project2/BearPi_LiteOS/components/connectivity/agent_tiny/atiny_lwm2m\object_security.c **** #include "object_comm.h"
  81:C:/Users/lenovo/Desktop/liteos/Project2/BearPi_LiteOS/components/connectivity/agent_tiny/atiny_lwm2m\object_security.c **** 
  82:C:/Users/lenovo/Desktop/liteos/Project2/BearPi_LiteOS/components/connectivity/agent_tiny/atiny_lwm2m\object_security.c **** static uint8_t prv_get_value(lwm2m_data_t *dataP,
  83:C:/Users/lenovo/Desktop/liteos/Project2/BearPi_LiteOS/components/connectivity/agent_tiny/atiny_lwm2m\object_security.c ****                              security_instance_t *targetP)
  84:C:/Users/lenovo/Desktop/liteos/Project2/BearPi_LiteOS/components/connectivity/agent_tiny/atiny_lwm2m\object_security.c **** {
  27              		.loc 1 84 0
  28              		.cfi_startproc
  29              		@ args = 0, pretend = 0, frame = 0
  30              		@ frame_needed = 0, uses_anonymous_args = 0
  31              	.LVL0:
ARM GAS  c:\Users\lenovo\AppData\Local\Temp\ccwlAmuu.s 			page 3


  32 0000 10B5     		push	{r4, lr}
  33              	.LCFI0:
  34              		.cfi_def_cfa_offset 8
  35              		.cfi_offset 4, -8
  36              		.cfi_offset 14, -4
  37 0002 0C46     		mov	r4, r1
  85:C:/Users/lenovo/Desktop/liteos/Project2/BearPi_LiteOS/components/connectivity/agent_tiny/atiny_lwm2m\object_security.c ****     switch (dataP->id)
  38              		.loc 1 85 0
  39 0004 4388     		ldrh	r3, [r0, #2]
  40 0006 0C2B     		cmp	r3, #12
  41 0008 62D8     		bhi	.L17
  42 000a DFE803F0 		tbb	[pc, r3]
  43              	.L4:
  44 000e 07       		.byte	(.L3-.L4)/2
  45 000f 0D       		.byte	(.L5-.L4)/2
  46 0010 13       		.byte	(.L6-.L4)/2
  47 0011 1A       		.byte	(.L7-.L4)/2
  48 0012 21       		.byte	(.L8-.L4)/2
  49 0013 28       		.byte	(.L9-.L4)/2
  50 0014 2F       		.byte	(.L10-.L4)/2
  51 0015 37       		.byte	(.L11-.L4)/2
  52 0016 3E       		.byte	(.L12-.L4)/2
  53 0017 45       		.byte	(.L13-.L4)/2
  54 0018 4C       		.byte	(.L14-.L4)/2
  55 0019 53       		.byte	(.L15-.L4)/2
  56 001a 5A       		.byte	(.L16-.L4)/2
  57 001b 00       		.p2align 1
  58              	.L3:
  86:C:/Users/lenovo/Desktop/liteos/Project2/BearPi_LiteOS/components/connectivity/agent_tiny/atiny_lwm2m\object_security.c ****     {
  87:C:/Users/lenovo/Desktop/liteos/Project2/BearPi_LiteOS/components/connectivity/agent_tiny/atiny_lwm2m\object_security.c ****     case LWM2M_SECURITY_URI_ID:
  88:C:/Users/lenovo/Desktop/liteos/Project2/BearPi_LiteOS/components/connectivity/agent_tiny/atiny_lwm2m\object_security.c ****         lwm2m_data_encode_string(targetP->uri, dataP);
  59              		.loc 1 88 0
  60 001c 0146     		mov	r1, r0
  61              	.LVL1:
  62 001e A068     		ldr	r0, [r4, #8]
  63              	.LVL2:
  64 0020 FFF7FEFF 		bl	lwm2m_data_encode_string
  65              	.LVL3:
  89:C:/Users/lenovo/Desktop/liteos/Project2/BearPi_LiteOS/components/connectivity/agent_tiny/atiny_lwm2m\object_security.c ****         return COAP_205_CONTENT;
  66              		.loc 1 89 0
  67 0024 4520     		movs	r0, #69
  68              	.L2:
  90:C:/Users/lenovo/Desktop/liteos/Project2/BearPi_LiteOS/components/connectivity/agent_tiny/atiny_lwm2m\object_security.c **** 
  91:C:/Users/lenovo/Desktop/liteos/Project2/BearPi_LiteOS/components/connectivity/agent_tiny/atiny_lwm2m\object_security.c ****     case LWM2M_SECURITY_BOOTSTRAP_ID:
  92:C:/Users/lenovo/Desktop/liteos/Project2/BearPi_LiteOS/components/connectivity/agent_tiny/atiny_lwm2m\object_security.c ****         lwm2m_data_encode_bool(targetP->isBootstrap, dataP);
  93:C:/Users/lenovo/Desktop/liteos/Project2/BearPi_LiteOS/components/connectivity/agent_tiny/atiny_lwm2m\object_security.c ****         return COAP_205_CONTENT;
  94:C:/Users/lenovo/Desktop/liteos/Project2/BearPi_LiteOS/components/connectivity/agent_tiny/atiny_lwm2m\object_security.c **** 
  95:C:/Users/lenovo/Desktop/liteos/Project2/BearPi_LiteOS/components/connectivity/agent_tiny/atiny_lwm2m\object_security.c ****     case LWM2M_SECURITY_SECURITY_ID:
  96:C:/Users/lenovo/Desktop/liteos/Project2/BearPi_LiteOS/components/connectivity/agent_tiny/atiny_lwm2m\object_security.c ****         lwm2m_data_encode_int(targetP->securityMode, dataP);
  97:C:/Users/lenovo/Desktop/liteos/Project2/BearPi_LiteOS/components/connectivity/agent_tiny/atiny_lwm2m\object_security.c ****         return COAP_205_CONTENT;
  98:C:/Users/lenovo/Desktop/liteos/Project2/BearPi_LiteOS/components/connectivity/agent_tiny/atiny_lwm2m\object_security.c **** 
  99:C:/Users/lenovo/Desktop/liteos/Project2/BearPi_LiteOS/components/connectivity/agent_tiny/atiny_lwm2m\object_security.c ****     case LWM2M_SECURITY_PUBLIC_KEY_ID:
 100:C:/Users/lenovo/Desktop/liteos/Project2/BearPi_LiteOS/components/connectivity/agent_tiny/atiny_lwm2m\object_security.c ****         lwm2m_data_encode_opaque((uint8_t *)targetP->publicIdentity, targetP->publicIdLen, dataP);
 101:C:/Users/lenovo/Desktop/liteos/Project2/BearPi_LiteOS/components/connectivity/agent_tiny/atiny_lwm2m\object_security.c ****         return COAP_205_CONTENT;
 102:C:/Users/lenovo/Desktop/liteos/Project2/BearPi_LiteOS/components/connectivity/agent_tiny/atiny_lwm2m\object_security.c **** 
 103:C:/Users/lenovo/Desktop/liteos/Project2/BearPi_LiteOS/components/connectivity/agent_tiny/atiny_lwm2m\object_security.c ****     case LWM2M_SECURITY_SERVER_PUBLIC_KEY_ID:
 104:C:/Users/lenovo/Desktop/liteos/Project2/BearPi_LiteOS/components/connectivity/agent_tiny/atiny_lwm2m\object_security.c ****         lwm2m_data_encode_opaque((uint8_t *)targetP->serverPublicKey, targetP->serverPublicKeyLen, 
ARM GAS  c:\Users\lenovo\AppData\Local\Temp\ccwlAmuu.s 			page 4


 105:C:/Users/lenovo/Desktop/liteos/Project2/BearPi_LiteOS/components/connectivity/agent_tiny/atiny_lwm2m\object_security.c ****         return COAP_205_CONTENT;
 106:C:/Users/lenovo/Desktop/liteos/Project2/BearPi_LiteOS/components/connectivity/agent_tiny/atiny_lwm2m\object_security.c **** 
 107:C:/Users/lenovo/Desktop/liteos/Project2/BearPi_LiteOS/components/connectivity/agent_tiny/atiny_lwm2m\object_security.c ****     case LWM2M_SECURITY_SECRET_KEY_ID:
 108:C:/Users/lenovo/Desktop/liteos/Project2/BearPi_LiteOS/components/connectivity/agent_tiny/atiny_lwm2m\object_security.c ****         lwm2m_data_encode_opaque((uint8_t *)targetP->secretKey, targetP->secretKeyLen, dataP);
 109:C:/Users/lenovo/Desktop/liteos/Project2/BearPi_LiteOS/components/connectivity/agent_tiny/atiny_lwm2m\object_security.c ****         return COAP_205_CONTENT;
 110:C:/Users/lenovo/Desktop/liteos/Project2/BearPi_LiteOS/components/connectivity/agent_tiny/atiny_lwm2m\object_security.c **** 
 111:C:/Users/lenovo/Desktop/liteos/Project2/BearPi_LiteOS/components/connectivity/agent_tiny/atiny_lwm2m\object_security.c ****     case LWM2M_SECURITY_SMS_SECURITY_ID:
 112:C:/Users/lenovo/Desktop/liteos/Project2/BearPi_LiteOS/components/connectivity/agent_tiny/atiny_lwm2m\object_security.c ****         lwm2m_data_encode_int(targetP->smsSecurityMode, dataP);
 113:C:/Users/lenovo/Desktop/liteos/Project2/BearPi_LiteOS/components/connectivity/agent_tiny/atiny_lwm2m\object_security.c ****         return COAP_205_CONTENT;
 114:C:/Users/lenovo/Desktop/liteos/Project2/BearPi_LiteOS/components/connectivity/agent_tiny/atiny_lwm2m\object_security.c **** 
 115:C:/Users/lenovo/Desktop/liteos/Project2/BearPi_LiteOS/components/connectivity/agent_tiny/atiny_lwm2m\object_security.c ****     case LWM2M_SECURITY_SMS_KEY_PARAM_ID:
 116:C:/Users/lenovo/Desktop/liteos/Project2/BearPi_LiteOS/components/connectivity/agent_tiny/atiny_lwm2m\object_security.c ****         lwm2m_data_encode_opaque((uint8_t *)targetP->smsParams, targetP->smsParamsLen, dataP);
 117:C:/Users/lenovo/Desktop/liteos/Project2/BearPi_LiteOS/components/connectivity/agent_tiny/atiny_lwm2m\object_security.c ****         return COAP_205_CONTENT;
 118:C:/Users/lenovo/Desktop/liteos/Project2/BearPi_LiteOS/components/connectivity/agent_tiny/atiny_lwm2m\object_security.c **** 
 119:C:/Users/lenovo/Desktop/liteos/Project2/BearPi_LiteOS/components/connectivity/agent_tiny/atiny_lwm2m\object_security.c ****     case LWM2M_SECURITY_SMS_SECRET_KEY_ID:
 120:C:/Users/lenovo/Desktop/liteos/Project2/BearPi_LiteOS/components/connectivity/agent_tiny/atiny_lwm2m\object_security.c ****         lwm2m_data_encode_opaque((uint8_t *)targetP->smsSecret, targetP->smsSecretLen, dataP);
 121:C:/Users/lenovo/Desktop/liteos/Project2/BearPi_LiteOS/components/connectivity/agent_tiny/atiny_lwm2m\object_security.c ****         return COAP_205_CONTENT;
 122:C:/Users/lenovo/Desktop/liteos/Project2/BearPi_LiteOS/components/connectivity/agent_tiny/atiny_lwm2m\object_security.c **** 
 123:C:/Users/lenovo/Desktop/liteos/Project2/BearPi_LiteOS/components/connectivity/agent_tiny/atiny_lwm2m\object_security.c ****     case LWM2M_SECURITY_SMS_SERVER_NUMBER_ID:
 124:C:/Users/lenovo/Desktop/liteos/Project2/BearPi_LiteOS/components/connectivity/agent_tiny/atiny_lwm2m\object_security.c ****         lwm2m_data_encode_int(0, dataP);
 125:C:/Users/lenovo/Desktop/liteos/Project2/BearPi_LiteOS/components/connectivity/agent_tiny/atiny_lwm2m\object_security.c ****         return COAP_205_CONTENT;
 126:C:/Users/lenovo/Desktop/liteos/Project2/BearPi_LiteOS/components/connectivity/agent_tiny/atiny_lwm2m\object_security.c **** 
 127:C:/Users/lenovo/Desktop/liteos/Project2/BearPi_LiteOS/components/connectivity/agent_tiny/atiny_lwm2m\object_security.c ****     case LWM2M_SECURITY_SHORT_SERVER_ID:
 128:C:/Users/lenovo/Desktop/liteos/Project2/BearPi_LiteOS/components/connectivity/agent_tiny/atiny_lwm2m\object_security.c ****         lwm2m_data_encode_int(targetP->shortID, dataP);
 129:C:/Users/lenovo/Desktop/liteos/Project2/BearPi_LiteOS/components/connectivity/agent_tiny/atiny_lwm2m\object_security.c ****         return COAP_205_CONTENT;
 130:C:/Users/lenovo/Desktop/liteos/Project2/BearPi_LiteOS/components/connectivity/agent_tiny/atiny_lwm2m\object_security.c **** 
 131:C:/Users/lenovo/Desktop/liteos/Project2/BearPi_LiteOS/components/connectivity/agent_tiny/atiny_lwm2m\object_security.c ****     case LWM2M_SECURITY_HOLD_OFF_ID:
 132:C:/Users/lenovo/Desktop/liteos/Project2/BearPi_LiteOS/components/connectivity/agent_tiny/atiny_lwm2m\object_security.c ****         lwm2m_data_encode_int(targetP->clientHoldOffTime, dataP);
 133:C:/Users/lenovo/Desktop/liteos/Project2/BearPi_LiteOS/components/connectivity/agent_tiny/atiny_lwm2m\object_security.c ****         return COAP_205_CONTENT;
 134:C:/Users/lenovo/Desktop/liteos/Project2/BearPi_LiteOS/components/connectivity/agent_tiny/atiny_lwm2m\object_security.c **** 
 135:C:/Users/lenovo/Desktop/liteos/Project2/BearPi_LiteOS/components/connectivity/agent_tiny/atiny_lwm2m\object_security.c ****     case LWM2M_SECURITY_BOOTSTRAP_TIMEOUT_ID:
 136:C:/Users/lenovo/Desktop/liteos/Project2/BearPi_LiteOS/components/connectivity/agent_tiny/atiny_lwm2m\object_security.c ****         lwm2m_data_encode_int(targetP->bootstrapServerAccountTimeout, dataP);
 137:C:/Users/lenovo/Desktop/liteos/Project2/BearPi_LiteOS/components/connectivity/agent_tiny/atiny_lwm2m\object_security.c ****         return COAP_205_CONTENT;
 138:C:/Users/lenovo/Desktop/liteos/Project2/BearPi_LiteOS/components/connectivity/agent_tiny/atiny_lwm2m\object_security.c **** 
 139:C:/Users/lenovo/Desktop/liteos/Project2/BearPi_LiteOS/components/connectivity/agent_tiny/atiny_lwm2m\object_security.c ****     default:
 140:C:/Users/lenovo/Desktop/liteos/Project2/BearPi_LiteOS/components/connectivity/agent_tiny/atiny_lwm2m\object_security.c ****         return COAP_404_NOT_FOUND;
 141:C:/Users/lenovo/Desktop/liteos/Project2/BearPi_LiteOS/components/connectivity/agent_tiny/atiny_lwm2m\object_security.c ****     }
 142:C:/Users/lenovo/Desktop/liteos/Project2/BearPi_LiteOS/components/connectivity/agent_tiny/atiny_lwm2m\object_security.c **** }
  69              		.loc 1 142 0
  70 0026 10BD     		pop	{r4, pc}
  71              	.LVL4:
  72              	.L5:
  92:C:/Users/lenovo/Desktop/liteos/Project2/BearPi_LiteOS/components/connectivity/agent_tiny/atiny_lwm2m\object_security.c ****         return COAP_205_CONTENT;
  73              		.loc 1 92 0
  74 0028 0146     		mov	r1, r0
  75              	.LVL5:
  76 002a 207B     		ldrb	r0, [r4, #12]	@ zero_extendqisi2
  77              	.LVL6:
  78 002c FFF7FEFF 		bl	lwm2m_data_encode_bool
  79              	.LVL7:
  93:C:/Users/lenovo/Desktop/liteos/Project2/BearPi_LiteOS/components/connectivity/agent_tiny/atiny_lwm2m\object_security.c **** 
  80              		.loc 1 93 0
  81 0030 4520     		movs	r0, #69
  82 0032 F8E7     		b	.L2
  83              	.LVL8:
  84              	.L6:
  96:C:/Users/lenovo/Desktop/liteos/Project2/BearPi_LiteOS/components/connectivity/agent_tiny/atiny_lwm2m\object_security.c ****         return COAP_205_CONTENT;
ARM GAS  c:\Users\lenovo\AppData\Local\Temp\ccwlAmuu.s 			page 5


  85              		.loc 1 96 0
  86 0034 0246     		mov	r2, r0
  87 0036 607B     		ldrb	r0, [r4, #13]	@ zero_extendqisi2
  88              	.LVL9:
  89 0038 0021     		movs	r1, #0
  90              	.LVL10:
  91 003a FFF7FEFF 		bl	lwm2m_data_encode_int
  92              	.LVL11:
  97:C:/Users/lenovo/Desktop/liteos/Project2/BearPi_LiteOS/components/connectivity/agent_tiny/atiny_lwm2m\object_security.c **** 
  93              		.loc 1 97 0
  94 003e 4520     		movs	r0, #69
  95 0040 F1E7     		b	.L2
  96              	.LVL12:
  97              	.L7:
 100:C:/Users/lenovo/Desktop/liteos/Project2/BearPi_LiteOS/components/connectivity/agent_tiny/atiny_lwm2m\object_security.c ****         return COAP_205_CONTENT;
  98              		.loc 1 100 0
  99 0042 0246     		mov	r2, r0
 100 0044 898A     		ldrh	r1, [r1, #20]
 101              	.LVL13:
 102 0046 2069     		ldr	r0, [r4, #16]
 103              	.LVL14:
 104 0048 FFF7FEFF 		bl	lwm2m_data_encode_opaque
 105              	.LVL15:
 101:C:/Users/lenovo/Desktop/liteos/Project2/BearPi_LiteOS/components/connectivity/agent_tiny/atiny_lwm2m\object_security.c **** 
 106              		.loc 1 101 0
 107 004c 4520     		movs	r0, #69
 108 004e EAE7     		b	.L2
 109              	.LVL16:
 110              	.L8:
 104:C:/Users/lenovo/Desktop/liteos/Project2/BearPi_LiteOS/components/connectivity/agent_tiny/atiny_lwm2m\object_security.c ****         return COAP_205_CONTENT;
 111              		.loc 1 104 0
 112 0050 0246     		mov	r2, r0
 113 0052 898B     		ldrh	r1, [r1, #28]
 114              	.LVL17:
 115 0054 A069     		ldr	r0, [r4, #24]
 116              	.LVL18:
 117 0056 FFF7FEFF 		bl	lwm2m_data_encode_opaque
 118              	.LVL19:
 105:C:/Users/lenovo/Desktop/liteos/Project2/BearPi_LiteOS/components/connectivity/agent_tiny/atiny_lwm2m\object_security.c **** 
 119              		.loc 1 105 0
 120 005a 4520     		movs	r0, #69
 121 005c E3E7     		b	.L2
 122              	.LVL20:
 123              	.L9:
 108:C:/Users/lenovo/Desktop/liteos/Project2/BearPi_LiteOS/components/connectivity/agent_tiny/atiny_lwm2m\object_security.c ****         return COAP_205_CONTENT;
 124              		.loc 1 108 0
 125 005e 0246     		mov	r2, r0
 126 0060 898C     		ldrh	r1, [r1, #36]
 127              	.LVL21:
 128 0062 206A     		ldr	r0, [r4, #32]
 129              	.LVL22:
 130 0064 FFF7FEFF 		bl	lwm2m_data_encode_opaque
 131              	.LVL23:
 109:C:/Users/lenovo/Desktop/liteos/Project2/BearPi_LiteOS/components/connectivity/agent_tiny/atiny_lwm2m\object_security.c **** 
 132              		.loc 1 109 0
 133 0068 4520     		movs	r0, #69
 134 006a DCE7     		b	.L2
ARM GAS  c:\Users\lenovo\AppData\Local\Temp\ccwlAmuu.s 			page 6


 135              	.LVL24:
 136              	.L10:
 112:C:/Users/lenovo/Desktop/liteos/Project2/BearPi_LiteOS/components/connectivity/agent_tiny/atiny_lwm2m\object_security.c ****         return COAP_205_CONTENT;
 137              		.loc 1 112 0
 138 006c 0246     		mov	r2, r0
 139 006e 94F82600 		ldrb	r0, [r4, #38]	@ zero_extendqisi2
 140              	.LVL25:
 141 0072 0021     		movs	r1, #0
 142              	.LVL26:
 143 0074 FFF7FEFF 		bl	lwm2m_data_encode_int
 144              	.LVL27:
 113:C:/Users/lenovo/Desktop/liteos/Project2/BearPi_LiteOS/components/connectivity/agent_tiny/atiny_lwm2m\object_security.c **** 
 145              		.loc 1 113 0
 146 0078 4520     		movs	r0, #69
 147 007a D4E7     		b	.L2
 148              	.LVL28:
 149              	.L11:
 116:C:/Users/lenovo/Desktop/liteos/Project2/BearPi_LiteOS/components/connectivity/agent_tiny/atiny_lwm2m\object_security.c ****         return COAP_205_CONTENT;
 150              		.loc 1 116 0
 151 007c 0246     		mov	r2, r0
 152 007e 898D     		ldrh	r1, [r1, #44]
 153              	.LVL29:
 154 0080 A06A     		ldr	r0, [r4, #40]
 155              	.LVL30:
 156 0082 FFF7FEFF 		bl	lwm2m_data_encode_opaque
 157              	.LVL31:
 117:C:/Users/lenovo/Desktop/liteos/Project2/BearPi_LiteOS/components/connectivity/agent_tiny/atiny_lwm2m\object_security.c **** 
 158              		.loc 1 117 0
 159 0086 4520     		movs	r0, #69
 160 0088 CDE7     		b	.L2
 161              	.LVL32:
 162              	.L12:
 120:C:/Users/lenovo/Desktop/liteos/Project2/BearPi_LiteOS/components/connectivity/agent_tiny/atiny_lwm2m\object_security.c ****         return COAP_205_CONTENT;
 163              		.loc 1 120 0
 164 008a 0246     		mov	r2, r0
 165 008c 898E     		ldrh	r1, [r1, #52]
 166              	.LVL33:
 167 008e 206B     		ldr	r0, [r4, #48]
 168              	.LVL34:
 169 0090 FFF7FEFF 		bl	lwm2m_data_encode_opaque
 170              	.LVL35:
 121:C:/Users/lenovo/Desktop/liteos/Project2/BearPi_LiteOS/components/connectivity/agent_tiny/atiny_lwm2m\object_security.c **** 
 171              		.loc 1 121 0
 172 0094 4520     		movs	r0, #69
 173 0096 C6E7     		b	.L2
 174              	.LVL36:
 175              	.L13:
 124:C:/Users/lenovo/Desktop/liteos/Project2/BearPi_LiteOS/components/connectivity/agent_tiny/atiny_lwm2m\object_security.c ****         return COAP_205_CONTENT;
 176              		.loc 1 124 0
 177 0098 0246     		mov	r2, r0
 178 009a 0020     		movs	r0, #0
 179              	.LVL37:
 180 009c 0021     		movs	r1, #0
 181              	.LVL38:
 182 009e FFF7FEFF 		bl	lwm2m_data_encode_int
 183              	.LVL39:
 125:C:/Users/lenovo/Desktop/liteos/Project2/BearPi_LiteOS/components/connectivity/agent_tiny/atiny_lwm2m\object_security.c **** 
ARM GAS  c:\Users\lenovo\AppData\Local\Temp\ccwlAmuu.s 			page 7


 184              		.loc 1 125 0
 185 00a2 4520     		movs	r0, #69
 186 00a4 BFE7     		b	.L2
 187              	.LVL40:
 188              	.L14:
 128:C:/Users/lenovo/Desktop/liteos/Project2/BearPi_LiteOS/components/connectivity/agent_tiny/atiny_lwm2m\object_security.c ****         return COAP_205_CONTENT;
 189              		.loc 1 128 0
 190 00a6 0246     		mov	r2, r0
 191 00a8 E08E     		ldrh	r0, [r4, #54]
 192              	.LVL41:
 193 00aa 0021     		movs	r1, #0
 194              	.LVL42:
 195 00ac FFF7FEFF 		bl	lwm2m_data_encode_int
 196              	.LVL43:
 129:C:/Users/lenovo/Desktop/liteos/Project2/BearPi_LiteOS/components/connectivity/agent_tiny/atiny_lwm2m\object_security.c **** 
 197              		.loc 1 129 0
 198 00b0 4520     		movs	r0, #69
 199 00b2 B8E7     		b	.L2
 200              	.LVL44:
 201              	.L15:
 132:C:/Users/lenovo/Desktop/liteos/Project2/BearPi_LiteOS/components/connectivity/agent_tiny/atiny_lwm2m\object_security.c ****         return COAP_205_CONTENT;
 202              		.loc 1 132 0
 203 00b4 0246     		mov	r2, r0
 204 00b6 886B     		ldr	r0, [r1, #56]
 205              	.LVL45:
 206 00b8 0021     		movs	r1, #0
 207              	.LVL46:
 208 00ba FFF7FEFF 		bl	lwm2m_data_encode_int
 209              	.LVL47:
 133:C:/Users/lenovo/Desktop/liteos/Project2/BearPi_LiteOS/components/connectivity/agent_tiny/atiny_lwm2m\object_security.c **** 
 210              		.loc 1 133 0
 211 00be 4520     		movs	r0, #69
 212 00c0 B1E7     		b	.L2
 213              	.LVL48:
 214              	.L16:
 136:C:/Users/lenovo/Desktop/liteos/Project2/BearPi_LiteOS/components/connectivity/agent_tiny/atiny_lwm2m\object_security.c ****         return COAP_205_CONTENT;
 215              		.loc 1 136 0
 216 00c2 0246     		mov	r2, r0
 217 00c4 C86B     		ldr	r0, [r1, #60]
 218              	.LVL49:
 219 00c6 0021     		movs	r1, #0
 220              	.LVL50:
 221 00c8 FFF7FEFF 		bl	lwm2m_data_encode_int
 222              	.LVL51:
 137:C:/Users/lenovo/Desktop/liteos/Project2/BearPi_LiteOS/components/connectivity/agent_tiny/atiny_lwm2m\object_security.c **** 
 223              		.loc 1 137 0
 224 00cc 4520     		movs	r0, #69
 225 00ce AAE7     		b	.L2
 226              	.LVL52:
 227              	.L17:
 140:C:/Users/lenovo/Desktop/liteos/Project2/BearPi_LiteOS/components/connectivity/agent_tiny/atiny_lwm2m\object_security.c ****     }
 228              		.loc 1 140 0
 229 00d0 8420     		movs	r0, #132
 230              	.LVL53:
 231 00d2 A8E7     		b	.L2
 232              		.cfi_endproc
 233              	.LFE142:
ARM GAS  c:\Users\lenovo\AppData\Local\Temp\ccwlAmuu.s 			page 8


 235              		.section	.text.prv_security_read,"ax",%progbits
 236              		.align	1
 237              		.syntax unified
 238              		.thumb
 239              		.thumb_func
 240              		.fpu fpv4-sp-d16
 242              	prv_security_read:
 243              	.LFB143:
 143:C:/Users/lenovo/Desktop/liteos/Project2/BearPi_LiteOS/components/connectivity/agent_tiny/atiny_lwm2m\object_security.c **** 
 144:C:/Users/lenovo/Desktop/liteos/Project2/BearPi_LiteOS/components/connectivity/agent_tiny/atiny_lwm2m\object_security.c **** static uint8_t prv_security_read(uint16_t instanceId,
 145:C:/Users/lenovo/Desktop/liteos/Project2/BearPi_LiteOS/components/connectivity/agent_tiny/atiny_lwm2m\object_security.c ****                                  int *numDataP,
 146:C:/Users/lenovo/Desktop/liteos/Project2/BearPi_LiteOS/components/connectivity/agent_tiny/atiny_lwm2m\object_security.c ****                                  lwm2m_data_t **dataArrayP,
 147:C:/Users/lenovo/Desktop/liteos/Project2/BearPi_LiteOS/components/connectivity/agent_tiny/atiny_lwm2m\object_security.c ****                                  lwm2m_data_cfg_t *dataCfg,
 148:C:/Users/lenovo/Desktop/liteos/Project2/BearPi_LiteOS/components/connectivity/agent_tiny/atiny_lwm2m\object_security.c ****                                  lwm2m_object_t *objectP)
 149:C:/Users/lenovo/Desktop/liteos/Project2/BearPi_LiteOS/components/connectivity/agent_tiny/atiny_lwm2m\object_security.c **** {
 244              		.loc 1 149 0
 245              		.cfi_startproc
 246              		@ args = 4, pretend = 0, frame = 32
 247              		@ frame_needed = 0, uses_anonymous_args = 0
 248              	.LVL54:
 249 0000 F0B5     		push	{r4, r5, r6, r7, lr}
 250              	.LCFI1:
 251              		.cfi_def_cfa_offset 20
 252              		.cfi_offset 4, -20
 253              		.cfi_offset 5, -16
 254              		.cfi_offset 6, -12
 255              		.cfi_offset 7, -8
 256              		.cfi_offset 14, -4
 257 0002 89B0     		sub	sp, sp, #36
 258              	.LCFI2:
 259              		.cfi_def_cfa_offset 56
 260 0004 0E46     		mov	r6, r1
 261 0006 1546     		mov	r5, r2
 150:C:/Users/lenovo/Desktop/liteos/Project2/BearPi_LiteOS/components/connectivity/agent_tiny/atiny_lwm2m\object_security.c ****     security_instance_t *targetP;
 151:C:/Users/lenovo/Desktop/liteos/Project2/BearPi_LiteOS/components/connectivity/agent_tiny/atiny_lwm2m\object_security.c ****     uint8_t result;
 152:C:/Users/lenovo/Desktop/liteos/Project2/BearPi_LiteOS/components/connectivity/agent_tiny/atiny_lwm2m\object_security.c ****     int i;
 153:C:/Users/lenovo/Desktop/liteos/Project2/BearPi_LiteOS/components/connectivity/agent_tiny/atiny_lwm2m\object_security.c **** 
 154:C:/Users/lenovo/Desktop/liteos/Project2/BearPi_LiteOS/components/connectivity/agent_tiny/atiny_lwm2m\object_security.c ****     targetP = (security_instance_t *)lwm2m_list_find(objectP->instanceList, instanceId);
 262              		.loc 1 154 0
 263 0008 0146     		mov	r1, r0
 264              	.LVL55:
 265 000a 0E9B     		ldr	r3, [sp, #56]
 266              	.LVL56:
 267 000c 9868     		ldr	r0, [r3, #8]
 268              	.LVL57:
 269 000e FFF7FEFF 		bl	lwm2m_list_find
 270              	.LVL58:
 155:C:/Users/lenovo/Desktop/liteos/Project2/BearPi_LiteOS/components/connectivity/agent_tiny/atiny_lwm2m\object_security.c ****     if (NULL == targetP) return COAP_404_NOT_FOUND;
 271              		.loc 1 155 0
 272 0012 B0B3     		cbz	r0, .L26
 273 0014 0746     		mov	r7, r0
 156:C:/Users/lenovo/Desktop/liteos/Project2/BearPi_LiteOS/components/connectivity/agent_tiny/atiny_lwm2m\object_security.c **** 
 157:C:/Users/lenovo/Desktop/liteos/Project2/BearPi_LiteOS/components/connectivity/agent_tiny/atiny_lwm2m\object_security.c ****     // is the server asking for the full instance ?
 158:C:/Users/lenovo/Desktop/liteos/Project2/BearPi_LiteOS/components/connectivity/agent_tiny/atiny_lwm2m\object_security.c ****     if (*numDataP == 0)
 274              		.loc 1 158 0
 275 0016 3468     		ldr	r4, [r6]
 276 0018 74B1     		cbz	r4, .L28
ARM GAS  c:\Users\lenovo\AppData\Local\Temp\ccwlAmuu.s 			page 9


 277              	.LVL59:
 278              	.L21:
 149:C:/Users/lenovo/Desktop/liteos/Project2/BearPi_LiteOS/components/connectivity/agent_tiny/atiny_lwm2m\object_security.c ****     security_instance_t *targetP;
 279              		.loc 1 149 0 discriminator 2
 280 001a 0024     		movs	r4, #0
 281              	.L25:
 282              	.LVL60:
 159:C:/Users/lenovo/Desktop/liteos/Project2/BearPi_LiteOS/components/connectivity/agent_tiny/atiny_lwm2m\object_security.c ****     {
 160:C:/Users/lenovo/Desktop/liteos/Project2/BearPi_LiteOS/components/connectivity/agent_tiny/atiny_lwm2m\object_security.c ****         uint16_t resList[] = {LWM2M_SECURITY_URI_ID,
 161:C:/Users/lenovo/Desktop/liteos/Project2/BearPi_LiteOS/components/connectivity/agent_tiny/atiny_lwm2m\object_security.c ****                               LWM2M_SECURITY_BOOTSTRAP_ID,
 162:C:/Users/lenovo/Desktop/liteos/Project2/BearPi_LiteOS/components/connectivity/agent_tiny/atiny_lwm2m\object_security.c ****                               LWM2M_SECURITY_SECURITY_ID,
 163:C:/Users/lenovo/Desktop/liteos/Project2/BearPi_LiteOS/components/connectivity/agent_tiny/atiny_lwm2m\object_security.c ****                               LWM2M_SECURITY_PUBLIC_KEY_ID,
 164:C:/Users/lenovo/Desktop/liteos/Project2/BearPi_LiteOS/components/connectivity/agent_tiny/atiny_lwm2m\object_security.c ****                               LWM2M_SECURITY_SERVER_PUBLIC_KEY_ID,
 165:C:/Users/lenovo/Desktop/liteos/Project2/BearPi_LiteOS/components/connectivity/agent_tiny/atiny_lwm2m\object_security.c ****                               LWM2M_SECURITY_SECRET_KEY_ID,
 166:C:/Users/lenovo/Desktop/liteos/Project2/BearPi_LiteOS/components/connectivity/agent_tiny/atiny_lwm2m\object_security.c ****                               LWM2M_SECURITY_SMS_SECURITY_ID,
 167:C:/Users/lenovo/Desktop/liteos/Project2/BearPi_LiteOS/components/connectivity/agent_tiny/atiny_lwm2m\object_security.c ****                               LWM2M_SECURITY_SMS_KEY_PARAM_ID,
 168:C:/Users/lenovo/Desktop/liteos/Project2/BearPi_LiteOS/components/connectivity/agent_tiny/atiny_lwm2m\object_security.c ****                               LWM2M_SECURITY_SMS_SECRET_KEY_ID,
 169:C:/Users/lenovo/Desktop/liteos/Project2/BearPi_LiteOS/components/connectivity/agent_tiny/atiny_lwm2m\object_security.c ****                               LWM2M_SECURITY_SMS_SERVER_NUMBER_ID,
 170:C:/Users/lenovo/Desktop/liteos/Project2/BearPi_LiteOS/components/connectivity/agent_tiny/atiny_lwm2m\object_security.c ****                               LWM2M_SECURITY_SHORT_SERVER_ID,
 171:C:/Users/lenovo/Desktop/liteos/Project2/BearPi_LiteOS/components/connectivity/agent_tiny/atiny_lwm2m\object_security.c ****                               LWM2M_SECURITY_HOLD_OFF_ID,
 172:C:/Users/lenovo/Desktop/liteos/Project2/BearPi_LiteOS/components/connectivity/agent_tiny/atiny_lwm2m\object_security.c ****                               LWM2M_SECURITY_BOOTSTRAP_TIMEOUT_ID
 173:C:/Users/lenovo/Desktop/liteos/Project2/BearPi_LiteOS/components/connectivity/agent_tiny/atiny_lwm2m\object_security.c ****                              };
 174:C:/Users/lenovo/Desktop/liteos/Project2/BearPi_LiteOS/components/connectivity/agent_tiny/atiny_lwm2m\object_security.c ****         int nbRes = sizeof(resList) / sizeof(uint16_t);
 175:C:/Users/lenovo/Desktop/liteos/Project2/BearPi_LiteOS/components/connectivity/agent_tiny/atiny_lwm2m\object_security.c **** 
 176:C:/Users/lenovo/Desktop/liteos/Project2/BearPi_LiteOS/components/connectivity/agent_tiny/atiny_lwm2m\object_security.c ****         *dataArrayP = lwm2m_data_new(nbRes);
 177:C:/Users/lenovo/Desktop/liteos/Project2/BearPi_LiteOS/components/connectivity/agent_tiny/atiny_lwm2m\object_security.c ****         if (*dataArrayP == NULL) return COAP_500_INTERNAL_SERVER_ERROR;
 178:C:/Users/lenovo/Desktop/liteos/Project2/BearPi_LiteOS/components/connectivity/agent_tiny/atiny_lwm2m\object_security.c ****         *numDataP = nbRes;
 179:C:/Users/lenovo/Desktop/liteos/Project2/BearPi_LiteOS/components/connectivity/agent_tiny/atiny_lwm2m\object_security.c ****         for (i = 0 ; i < nbRes ; i++)
 180:C:/Users/lenovo/Desktop/liteos/Project2/BearPi_LiteOS/components/connectivity/agent_tiny/atiny_lwm2m\object_security.c ****         {
 181:C:/Users/lenovo/Desktop/liteos/Project2/BearPi_LiteOS/components/connectivity/agent_tiny/atiny_lwm2m\object_security.c ****             (*dataArrayP)[i].id = resList[i];
 182:C:/Users/lenovo/Desktop/liteos/Project2/BearPi_LiteOS/components/connectivity/agent_tiny/atiny_lwm2m\object_security.c ****         }
 183:C:/Users/lenovo/Desktop/liteos/Project2/BearPi_LiteOS/components/connectivity/agent_tiny/atiny_lwm2m\object_security.c ****     }
 184:C:/Users/lenovo/Desktop/liteos/Project2/BearPi_LiteOS/components/connectivity/agent_tiny/atiny_lwm2m\object_security.c **** 
 185:C:/Users/lenovo/Desktop/liteos/Project2/BearPi_LiteOS/components/connectivity/agent_tiny/atiny_lwm2m\object_security.c ****     i = 0;
 186:C:/Users/lenovo/Desktop/liteos/Project2/BearPi_LiteOS/components/connectivity/agent_tiny/atiny_lwm2m\object_security.c ****     do
 187:C:/Users/lenovo/Desktop/liteos/Project2/BearPi_LiteOS/components/connectivity/agent_tiny/atiny_lwm2m\object_security.c ****     {
 188:C:/Users/lenovo/Desktop/liteos/Project2/BearPi_LiteOS/components/connectivity/agent_tiny/atiny_lwm2m\object_security.c ****         result = prv_get_value((*dataArrayP) + i, targetP);
 283              		.loc 1 188 0 discriminator 2
 284 001c 2868     		ldr	r0, [r5]
 285 001e 3946     		mov	r1, r7
 286 0020 00EB0410 		add	r0, r0, r4, lsl #4
 287 0024 FFF7FEFF 		bl	prv_get_value
 288              	.LVL61:
 189:C:/Users/lenovo/Desktop/liteos/Project2/BearPi_LiteOS/components/connectivity/agent_tiny/atiny_lwm2m\object_security.c ****         i++;
 289              		.loc 1 189 0 discriminator 2
 290 0028 0134     		adds	r4, r4, #1
 291              	.LVL62:
 190:C:/Users/lenovo/Desktop/liteos/Project2/BearPi_LiteOS/components/connectivity/agent_tiny/atiny_lwm2m\object_security.c ****     }
 191:C:/Users/lenovo/Desktop/liteos/Project2/BearPi_LiteOS/components/connectivity/agent_tiny/atiny_lwm2m\object_security.c ****     while (i < *numDataP && result == COAP_205_CONTENT);
 292              		.loc 1 191 0 discriminator 2
 293 002a 3368     		ldr	r3, [r6]
 294 002c A342     		cmp	r3, r4
 295 002e 01DD     		ble	.L20
 296              		.loc 1 191 0 is_stmt 0 discriminator 1
 297 0030 4528     		cmp	r0, #69
 298 0032 F3D0     		beq	.L25
 299              	.LVL63:
ARM GAS  c:\Users\lenovo\AppData\Local\Temp\ccwlAmuu.s 			page 10


 300              	.L20:
 192:C:/Users/lenovo/Desktop/liteos/Project2/BearPi_LiteOS/components/connectivity/agent_tiny/atiny_lwm2m\object_security.c **** 
 193:C:/Users/lenovo/Desktop/liteos/Project2/BearPi_LiteOS/components/connectivity/agent_tiny/atiny_lwm2m\object_security.c ****     return result;
 194:C:/Users/lenovo/Desktop/liteos/Project2/BearPi_LiteOS/components/connectivity/agent_tiny/atiny_lwm2m\object_security.c **** }
 301              		.loc 1 194 0 is_stmt 1
 302 0034 09B0     		add	sp, sp, #36
 303              	.LCFI3:
 304              		.cfi_remember_state
 305              		.cfi_def_cfa_offset 20
 306              		@ sp needed
 307 0036 F0BD     		pop	{r4, r5, r6, r7, pc}
 308              	.LVL64:
 309              	.L28:
 310              	.LCFI4:
 311              		.cfi_restore_state
 312              	.LBB2:
 160:C:/Users/lenovo/Desktop/liteos/Project2/BearPi_LiteOS/components/connectivity/agent_tiny/atiny_lwm2m\object_security.c ****                               LWM2M_SECURITY_BOOTSTRAP_ID,
 313              		.loc 1 160 0
 314 0038 0DF1040C 		add	ip, sp, #4
 315 003c DFF848E0 		ldr	lr, .L30
 316 0040 BEE80F00 		ldmia	lr!, {r0, r1, r2, r3}
 317              	.LVL65:
 318 0044 ACE80F00 		stmia	ip!, {r0, r1, r2, r3}
 319 0048 9EE80700 		ldm	lr, {r0, r1, r2}
 320 004c ACE80300 		stmia	ip!, {r0, r1}
 321 0050 ACF80020 		strh	r2, [ip]	@ movhi
 322              	.LVL66:
 176:C:/Users/lenovo/Desktop/liteos/Project2/BearPi_LiteOS/components/connectivity/agent_tiny/atiny_lwm2m\object_security.c ****         if (*dataArrayP == NULL) return COAP_500_INTERNAL_SERVER_ERROR;
 323              		.loc 1 176 0
 324 0054 0D20     		movs	r0, #13
 325 0056 FFF7FEFF 		bl	lwm2m_data_new
 326              	.LVL67:
 327 005a 2860     		str	r0, [r5]
 177:C:/Users/lenovo/Desktop/liteos/Project2/BearPi_LiteOS/components/connectivity/agent_tiny/atiny_lwm2m\object_security.c ****         *numDataP = nbRes;
 328              		.loc 1 177 0
 329 005c 10B1     		cbz	r0, .L29
 178:C:/Users/lenovo/Desktop/liteos/Project2/BearPi_LiteOS/components/connectivity/agent_tiny/atiny_lwm2m\object_security.c ****         for (i = 0 ; i < nbRes ; i++)
 330              		.loc 1 178 0
 331 005e 0D23     		movs	r3, #13
 332 0060 3360     		str	r3, [r6]
 333              	.LVL68:
 179:C:/Users/lenovo/Desktop/liteos/Project2/BearPi_LiteOS/components/connectivity/agent_tiny/atiny_lwm2m\object_security.c ****         {
 334              		.loc 1 179 0
 335 0062 0BE0     		b	.L23
 336              	.LVL69:
 337              	.L29:
 177:C:/Users/lenovo/Desktop/liteos/Project2/BearPi_LiteOS/components/connectivity/agent_tiny/atiny_lwm2m\object_security.c ****         *numDataP = nbRes;
 338              		.loc 1 177 0 discriminator 1
 339 0064 A020     		movs	r0, #160
 340 0066 E5E7     		b	.L20
 341              	.LVL70:
 342              	.L24:
 181:C:/Users/lenovo/Desktop/liteos/Project2/BearPi_LiteOS/components/connectivity/agent_tiny/atiny_lwm2m\object_security.c ****         }
 343              		.loc 1 181 0 discriminator 3
 344 0068 2B68     		ldr	r3, [r5]
 345 006a 03EB0413 		add	r3, r3, r4, lsl #4
 346 006e 08AA     		add	r2, sp, #32
ARM GAS  c:\Users\lenovo\AppData\Local\Temp\ccwlAmuu.s 			page 11


 347 0070 02EB4402 		add	r2, r2, r4, lsl #1
 348 0074 32F81C2C 		ldrh	r2, [r2, #-28]
 349 0078 5A80     		strh	r2, [r3, #2]	@ movhi
 179:C:/Users/lenovo/Desktop/liteos/Project2/BearPi_LiteOS/components/connectivity/agent_tiny/atiny_lwm2m\object_security.c ****         {
 350              		.loc 1 179 0 discriminator 3
 351 007a 0134     		adds	r4, r4, #1
 352              	.LVL71:
 353              	.L23:
 179:C:/Users/lenovo/Desktop/liteos/Project2/BearPi_LiteOS/components/connectivity/agent_tiny/atiny_lwm2m\object_security.c ****         {
 354              		.loc 1 179 0 is_stmt 0 discriminator 1
 355 007c 0C2C     		cmp	r4, #12
 356 007e F3DD     		ble	.L24
 357 0080 CBE7     		b	.L21
 358              	.LVL72:
 359              	.L26:
 360              	.LBE2:
 155:C:/Users/lenovo/Desktop/liteos/Project2/BearPi_LiteOS/components/connectivity/agent_tiny/atiny_lwm2m\object_security.c **** 
 361              		.loc 1 155 0 is_stmt 1
 362 0082 8420     		movs	r0, #132
 363              	.LVL73:
 364 0084 D6E7     		b	.L20
 365              	.L31:
 366 0086 00BF     		.align	2
 367              	.L30:
 368 0088 00000000 		.word	.LANCHOR0
 369              		.cfi_endproc
 370              	.LFE143:
 372              		.section	.text.copy_security_object,"ax",%progbits
 373              		.align	1
 374              		.global	copy_security_object
 375              		.syntax unified
 376              		.thumb
 377              		.thumb_func
 378              		.fpu fpv4-sp-d16
 380              	copy_security_object:
 381              	.LFB144:
 195:C:/Users/lenovo/Desktop/liteos/Project2/BearPi_LiteOS/components/connectivity/agent_tiny/atiny_lwm2m\object_security.c **** 
 196:C:/Users/lenovo/Desktop/liteos/Project2/BearPi_LiteOS/components/connectivity/agent_tiny/atiny_lwm2m\object_security.c **** #ifdef LWM2M_BOOTSTRAP
 197:C:/Users/lenovo/Desktop/liteos/Project2/BearPi_LiteOS/components/connectivity/agent_tiny/atiny_lwm2m\object_security.c **** 
 198:C:/Users/lenovo/Desktop/liteos/Project2/BearPi_LiteOS/components/connectivity/agent_tiny/atiny_lwm2m\object_security.c **** static uint8_t prv_security_write(uint16_t instanceId,
 199:C:/Users/lenovo/Desktop/liteos/Project2/BearPi_LiteOS/components/connectivity/agent_tiny/atiny_lwm2m\object_security.c ****                                   int numData,
 200:C:/Users/lenovo/Desktop/liteos/Project2/BearPi_LiteOS/components/connectivity/agent_tiny/atiny_lwm2m\object_security.c ****                                   lwm2m_data_t *dataArray,
 201:C:/Users/lenovo/Desktop/liteos/Project2/BearPi_LiteOS/components/connectivity/agent_tiny/atiny_lwm2m\object_security.c ****                                   lwm2m_object_t *objectP)
 202:C:/Users/lenovo/Desktop/liteos/Project2/BearPi_LiteOS/components/connectivity/agent_tiny/atiny_lwm2m\object_security.c **** {
 203:C:/Users/lenovo/Desktop/liteos/Project2/BearPi_LiteOS/components/connectivity/agent_tiny/atiny_lwm2m\object_security.c ****     security_instance_t *targetP;
 204:C:/Users/lenovo/Desktop/liteos/Project2/BearPi_LiteOS/components/connectivity/agent_tiny/atiny_lwm2m\object_security.c ****     int i;
 205:C:/Users/lenovo/Desktop/liteos/Project2/BearPi_LiteOS/components/connectivity/agent_tiny/atiny_lwm2m\object_security.c ****     uint8_t result = COAP_204_CHANGED;
 206:C:/Users/lenovo/Desktop/liteos/Project2/BearPi_LiteOS/components/connectivity/agent_tiny/atiny_lwm2m\object_security.c **** 
 207:C:/Users/lenovo/Desktop/liteos/Project2/BearPi_LiteOS/components/connectivity/agent_tiny/atiny_lwm2m\object_security.c ****     targetP = (security_instance_t *)lwm2m_list_find(objectP->instanceList, instanceId);
 208:C:/Users/lenovo/Desktop/liteos/Project2/BearPi_LiteOS/components/connectivity/agent_tiny/atiny_lwm2m\object_security.c ****     if (NULL == targetP)
 209:C:/Users/lenovo/Desktop/liteos/Project2/BearPi_LiteOS/components/connectivity/agent_tiny/atiny_lwm2m\object_security.c ****     {
 210:C:/Users/lenovo/Desktop/liteos/Project2/BearPi_LiteOS/components/connectivity/agent_tiny/atiny_lwm2m\object_security.c ****         return COAP_404_NOT_FOUND;
 211:C:/Users/lenovo/Desktop/liteos/Project2/BearPi_LiteOS/components/connectivity/agent_tiny/atiny_lwm2m\object_security.c ****     }
 212:C:/Users/lenovo/Desktop/liteos/Project2/BearPi_LiteOS/components/connectivity/agent_tiny/atiny_lwm2m\object_security.c **** 
 213:C:/Users/lenovo/Desktop/liteos/Project2/BearPi_LiteOS/components/connectivity/agent_tiny/atiny_lwm2m\object_security.c ****     i = 0;
 214:C:/Users/lenovo/Desktop/liteos/Project2/BearPi_LiteOS/components/connectivity/agent_tiny/atiny_lwm2m\object_security.c ****     do
 215:C:/Users/lenovo/Desktop/liteos/Project2/BearPi_LiteOS/components/connectivity/agent_tiny/atiny_lwm2m\object_security.c ****     {
ARM GAS  c:\Users\lenovo\AppData\Local\Temp\ccwlAmuu.s 			page 12


 216:C:/Users/lenovo/Desktop/liteos/Project2/BearPi_LiteOS/components/connectivity/agent_tiny/atiny_lwm2m\object_security.c ****         switch (dataArray[i].id)
 217:C:/Users/lenovo/Desktop/liteos/Project2/BearPi_LiteOS/components/connectivity/agent_tiny/atiny_lwm2m\object_security.c ****         {
 218:C:/Users/lenovo/Desktop/liteos/Project2/BearPi_LiteOS/components/connectivity/agent_tiny/atiny_lwm2m\object_security.c ****         case LWM2M_SECURITY_URI_ID:
 219:C:/Users/lenovo/Desktop/liteos/Project2/BearPi_LiteOS/components/connectivity/agent_tiny/atiny_lwm2m\object_security.c ****             if (targetP->uri != NULL) lwm2m_free(targetP->uri);
 220:C:/Users/lenovo/Desktop/liteos/Project2/BearPi_LiteOS/components/connectivity/agent_tiny/atiny_lwm2m\object_security.c ****             targetP->uri = (char *)lwm2m_malloc(dataArray[i].value.asBuffer.length + 1);
 221:C:/Users/lenovo/Desktop/liteos/Project2/BearPi_LiteOS/components/connectivity/agent_tiny/atiny_lwm2m\object_security.c ****             if (targetP->uri != NULL)
 222:C:/Users/lenovo/Desktop/liteos/Project2/BearPi_LiteOS/components/connectivity/agent_tiny/atiny_lwm2m\object_security.c ****             {
 223:C:/Users/lenovo/Desktop/liteos/Project2/BearPi_LiteOS/components/connectivity/agent_tiny/atiny_lwm2m\object_security.c ****                 memset(targetP->uri, 0, dataArray[i].value.asBuffer.length + 1);
 224:C:/Users/lenovo/Desktop/liteos/Project2/BearPi_LiteOS/components/connectivity/agent_tiny/atiny_lwm2m\object_security.c ****                 strncpy(targetP->uri, (char *)dataArray[i].value.asBuffer.buffer, dataArray[i].valu
 225:C:/Users/lenovo/Desktop/liteos/Project2/BearPi_LiteOS/components/connectivity/agent_tiny/atiny_lwm2m\object_security.c ****                 result = COAP_204_CHANGED;
 226:C:/Users/lenovo/Desktop/liteos/Project2/BearPi_LiteOS/components/connectivity/agent_tiny/atiny_lwm2m\object_security.c ****             }
 227:C:/Users/lenovo/Desktop/liteos/Project2/BearPi_LiteOS/components/connectivity/agent_tiny/atiny_lwm2m\object_security.c ****             else
 228:C:/Users/lenovo/Desktop/liteos/Project2/BearPi_LiteOS/components/connectivity/agent_tiny/atiny_lwm2m\object_security.c ****             {
 229:C:/Users/lenovo/Desktop/liteos/Project2/BearPi_LiteOS/components/connectivity/agent_tiny/atiny_lwm2m\object_security.c ****                 result = COAP_500_INTERNAL_SERVER_ERROR;
 230:C:/Users/lenovo/Desktop/liteos/Project2/BearPi_LiteOS/components/connectivity/agent_tiny/atiny_lwm2m\object_security.c ****             }
 231:C:/Users/lenovo/Desktop/liteos/Project2/BearPi_LiteOS/components/connectivity/agent_tiny/atiny_lwm2m\object_security.c ****             break;
 232:C:/Users/lenovo/Desktop/liteos/Project2/BearPi_LiteOS/components/connectivity/agent_tiny/atiny_lwm2m\object_security.c **** 
 233:C:/Users/lenovo/Desktop/liteos/Project2/BearPi_LiteOS/components/connectivity/agent_tiny/atiny_lwm2m\object_security.c ****         case LWM2M_SECURITY_BOOTSTRAP_ID:
 234:C:/Users/lenovo/Desktop/liteos/Project2/BearPi_LiteOS/components/connectivity/agent_tiny/atiny_lwm2m\object_security.c ****             if (1 == lwm2m_data_decode_bool(dataArray + i, &(targetP->isBootstrap)))
 235:C:/Users/lenovo/Desktop/liteos/Project2/BearPi_LiteOS/components/connectivity/agent_tiny/atiny_lwm2m\object_security.c ****             {
 236:C:/Users/lenovo/Desktop/liteos/Project2/BearPi_LiteOS/components/connectivity/agent_tiny/atiny_lwm2m\object_security.c ****                 result = COAP_204_CHANGED;
 237:C:/Users/lenovo/Desktop/liteos/Project2/BearPi_LiteOS/components/connectivity/agent_tiny/atiny_lwm2m\object_security.c ****             }
 238:C:/Users/lenovo/Desktop/liteos/Project2/BearPi_LiteOS/components/connectivity/agent_tiny/atiny_lwm2m\object_security.c ****             else
 239:C:/Users/lenovo/Desktop/liteos/Project2/BearPi_LiteOS/components/connectivity/agent_tiny/atiny_lwm2m\object_security.c ****             {
 240:C:/Users/lenovo/Desktop/liteos/Project2/BearPi_LiteOS/components/connectivity/agent_tiny/atiny_lwm2m\object_security.c ****                 result = COAP_400_BAD_REQUEST;
 241:C:/Users/lenovo/Desktop/liteos/Project2/BearPi_LiteOS/components/connectivity/agent_tiny/atiny_lwm2m\object_security.c ****             }
 242:C:/Users/lenovo/Desktop/liteos/Project2/BearPi_LiteOS/components/connectivity/agent_tiny/atiny_lwm2m\object_security.c ****             break;
 243:C:/Users/lenovo/Desktop/liteos/Project2/BearPi_LiteOS/components/connectivity/agent_tiny/atiny_lwm2m\object_security.c **** 
 244:C:/Users/lenovo/Desktop/liteos/Project2/BearPi_LiteOS/components/connectivity/agent_tiny/atiny_lwm2m\object_security.c ****         case LWM2M_SECURITY_SECURITY_ID:
 245:C:/Users/lenovo/Desktop/liteos/Project2/BearPi_LiteOS/components/connectivity/agent_tiny/atiny_lwm2m\object_security.c ****         {
 246:C:/Users/lenovo/Desktop/liteos/Project2/BearPi_LiteOS/components/connectivity/agent_tiny/atiny_lwm2m\object_security.c ****             int64_t value;
 247:C:/Users/lenovo/Desktop/liteos/Project2/BearPi_LiteOS/components/connectivity/agent_tiny/atiny_lwm2m\object_security.c **** 
 248:C:/Users/lenovo/Desktop/liteos/Project2/BearPi_LiteOS/components/connectivity/agent_tiny/atiny_lwm2m\object_security.c ****             if (1 == lwm2m_data_decode_int(dataArray + i, &value))
 249:C:/Users/lenovo/Desktop/liteos/Project2/BearPi_LiteOS/components/connectivity/agent_tiny/atiny_lwm2m\object_security.c ****             {
 250:C:/Users/lenovo/Desktop/liteos/Project2/BearPi_LiteOS/components/connectivity/agent_tiny/atiny_lwm2m\object_security.c ****                 if (value >= 0 && value <= 3)
 251:C:/Users/lenovo/Desktop/liteos/Project2/BearPi_LiteOS/components/connectivity/agent_tiny/atiny_lwm2m\object_security.c ****                 {
 252:C:/Users/lenovo/Desktop/liteos/Project2/BearPi_LiteOS/components/connectivity/agent_tiny/atiny_lwm2m\object_security.c ****                     targetP->securityMode = value;
 253:C:/Users/lenovo/Desktop/liteos/Project2/BearPi_LiteOS/components/connectivity/agent_tiny/atiny_lwm2m\object_security.c ****                     result = COAP_204_CHANGED;
 254:C:/Users/lenovo/Desktop/liteos/Project2/BearPi_LiteOS/components/connectivity/agent_tiny/atiny_lwm2m\object_security.c ****                 }
 255:C:/Users/lenovo/Desktop/liteos/Project2/BearPi_LiteOS/components/connectivity/agent_tiny/atiny_lwm2m\object_security.c ****                 else
 256:C:/Users/lenovo/Desktop/liteos/Project2/BearPi_LiteOS/components/connectivity/agent_tiny/atiny_lwm2m\object_security.c ****                 {
 257:C:/Users/lenovo/Desktop/liteos/Project2/BearPi_LiteOS/components/connectivity/agent_tiny/atiny_lwm2m\object_security.c ****                     result = COAP_406_NOT_ACCEPTABLE;
 258:C:/Users/lenovo/Desktop/liteos/Project2/BearPi_LiteOS/components/connectivity/agent_tiny/atiny_lwm2m\object_security.c ****                 }
 259:C:/Users/lenovo/Desktop/liteos/Project2/BearPi_LiteOS/components/connectivity/agent_tiny/atiny_lwm2m\object_security.c ****             }
 260:C:/Users/lenovo/Desktop/liteos/Project2/BearPi_LiteOS/components/connectivity/agent_tiny/atiny_lwm2m\object_security.c ****             else
 261:C:/Users/lenovo/Desktop/liteos/Project2/BearPi_LiteOS/components/connectivity/agent_tiny/atiny_lwm2m\object_security.c ****             {
 262:C:/Users/lenovo/Desktop/liteos/Project2/BearPi_LiteOS/components/connectivity/agent_tiny/atiny_lwm2m\object_security.c ****                 result = COAP_400_BAD_REQUEST;
 263:C:/Users/lenovo/Desktop/liteos/Project2/BearPi_LiteOS/components/connectivity/agent_tiny/atiny_lwm2m\object_security.c ****             }
 264:C:/Users/lenovo/Desktop/liteos/Project2/BearPi_LiteOS/components/connectivity/agent_tiny/atiny_lwm2m\object_security.c ****         }
 265:C:/Users/lenovo/Desktop/liteos/Project2/BearPi_LiteOS/components/connectivity/agent_tiny/atiny_lwm2m\object_security.c ****         break;
 266:C:/Users/lenovo/Desktop/liteos/Project2/BearPi_LiteOS/components/connectivity/agent_tiny/atiny_lwm2m\object_security.c ****         case LWM2M_SECURITY_PUBLIC_KEY_ID:
 267:C:/Users/lenovo/Desktop/liteos/Project2/BearPi_LiteOS/components/connectivity/agent_tiny/atiny_lwm2m\object_security.c ****             if (targetP->publicIdentity != NULL) lwm2m_free(targetP->publicIdentity);
 268:C:/Users/lenovo/Desktop/liteos/Project2/BearPi_LiteOS/components/connectivity/agent_tiny/atiny_lwm2m\object_security.c ****             targetP->publicIdentity = (char *)lwm2m_malloc(dataArray[i].value.asBuffer.length + 1);
 269:C:/Users/lenovo/Desktop/liteos/Project2/BearPi_LiteOS/components/connectivity/agent_tiny/atiny_lwm2m\object_security.c ****             if (targetP->publicIdentity != NULL)
 270:C:/Users/lenovo/Desktop/liteos/Project2/BearPi_LiteOS/components/connectivity/agent_tiny/atiny_lwm2m\object_security.c ****             {
 271:C:/Users/lenovo/Desktop/liteos/Project2/BearPi_LiteOS/components/connectivity/agent_tiny/atiny_lwm2m\object_security.c ****                 memset(targetP->publicIdentity, 0, dataArray[i].value.asBuffer.length + 1);
 272:C:/Users/lenovo/Desktop/liteos/Project2/BearPi_LiteOS/components/connectivity/agent_tiny/atiny_lwm2m\object_security.c ****                 memcpy(targetP->publicIdentity, (char *)dataArray[i].value.asBuffer.buffer, dataArr
ARM GAS  c:\Users\lenovo\AppData\Local\Temp\ccwlAmuu.s 			page 13


 273:C:/Users/lenovo/Desktop/liteos/Project2/BearPi_LiteOS/components/connectivity/agent_tiny/atiny_lwm2m\object_security.c ****                 targetP->publicIdLen = dataArray[i].value.asBuffer.length;
 274:C:/Users/lenovo/Desktop/liteos/Project2/BearPi_LiteOS/components/connectivity/agent_tiny/atiny_lwm2m\object_security.c ****                 result = COAP_204_CHANGED;
 275:C:/Users/lenovo/Desktop/liteos/Project2/BearPi_LiteOS/components/connectivity/agent_tiny/atiny_lwm2m\object_security.c ****             }
 276:C:/Users/lenovo/Desktop/liteos/Project2/BearPi_LiteOS/components/connectivity/agent_tiny/atiny_lwm2m\object_security.c ****             else
 277:C:/Users/lenovo/Desktop/liteos/Project2/BearPi_LiteOS/components/connectivity/agent_tiny/atiny_lwm2m\object_security.c ****             {
 278:C:/Users/lenovo/Desktop/liteos/Project2/BearPi_LiteOS/components/connectivity/agent_tiny/atiny_lwm2m\object_security.c ****                 result = COAP_500_INTERNAL_SERVER_ERROR;
 279:C:/Users/lenovo/Desktop/liteos/Project2/BearPi_LiteOS/components/connectivity/agent_tiny/atiny_lwm2m\object_security.c ****             }
 280:C:/Users/lenovo/Desktop/liteos/Project2/BearPi_LiteOS/components/connectivity/agent_tiny/atiny_lwm2m\object_security.c ****             break;
 281:C:/Users/lenovo/Desktop/liteos/Project2/BearPi_LiteOS/components/connectivity/agent_tiny/atiny_lwm2m\object_security.c **** 
 282:C:/Users/lenovo/Desktop/liteos/Project2/BearPi_LiteOS/components/connectivity/agent_tiny/atiny_lwm2m\object_security.c ****         case LWM2M_SECURITY_SERVER_PUBLIC_KEY_ID:
 283:C:/Users/lenovo/Desktop/liteos/Project2/BearPi_LiteOS/components/connectivity/agent_tiny/atiny_lwm2m\object_security.c ****             if (targetP->serverPublicKey != NULL) lwm2m_free(targetP->serverPublicKey);
 284:C:/Users/lenovo/Desktop/liteos/Project2/BearPi_LiteOS/components/connectivity/agent_tiny/atiny_lwm2m\object_security.c ****             targetP->serverPublicKey = (char *)lwm2m_malloc(dataArray[i].value.asBuffer.length + 1)
 285:C:/Users/lenovo/Desktop/liteos/Project2/BearPi_LiteOS/components/connectivity/agent_tiny/atiny_lwm2m\object_security.c ****             if (targetP->serverPublicKey != NULL)
 286:C:/Users/lenovo/Desktop/liteos/Project2/BearPi_LiteOS/components/connectivity/agent_tiny/atiny_lwm2m\object_security.c ****             {
 287:C:/Users/lenovo/Desktop/liteos/Project2/BearPi_LiteOS/components/connectivity/agent_tiny/atiny_lwm2m\object_security.c ****                 memset(targetP->serverPublicKey, 0, dataArray[i].value.asBuffer.length + 1);
 288:C:/Users/lenovo/Desktop/liteos/Project2/BearPi_LiteOS/components/connectivity/agent_tiny/atiny_lwm2m\object_security.c ****                 memcpy(targetP->serverPublicKey, (char *)dataArray[i].value.asBuffer.buffer, dataAr
 289:C:/Users/lenovo/Desktop/liteos/Project2/BearPi_LiteOS/components/connectivity/agent_tiny/atiny_lwm2m\object_security.c ****                 targetP->serverPublicKeyLen = dataArray[i].value.asBuffer.length;
 290:C:/Users/lenovo/Desktop/liteos/Project2/BearPi_LiteOS/components/connectivity/agent_tiny/atiny_lwm2m\object_security.c ****                 result = COAP_204_CHANGED;
 291:C:/Users/lenovo/Desktop/liteos/Project2/BearPi_LiteOS/components/connectivity/agent_tiny/atiny_lwm2m\object_security.c ****             }
 292:C:/Users/lenovo/Desktop/liteos/Project2/BearPi_LiteOS/components/connectivity/agent_tiny/atiny_lwm2m\object_security.c ****             else
 293:C:/Users/lenovo/Desktop/liteos/Project2/BearPi_LiteOS/components/connectivity/agent_tiny/atiny_lwm2m\object_security.c ****             {
 294:C:/Users/lenovo/Desktop/liteos/Project2/BearPi_LiteOS/components/connectivity/agent_tiny/atiny_lwm2m\object_security.c ****                 result = COAP_500_INTERNAL_SERVER_ERROR;
 295:C:/Users/lenovo/Desktop/liteos/Project2/BearPi_LiteOS/components/connectivity/agent_tiny/atiny_lwm2m\object_security.c ****             }
 296:C:/Users/lenovo/Desktop/liteos/Project2/BearPi_LiteOS/components/connectivity/agent_tiny/atiny_lwm2m\object_security.c ****             break;
 297:C:/Users/lenovo/Desktop/liteos/Project2/BearPi_LiteOS/components/connectivity/agent_tiny/atiny_lwm2m\object_security.c **** 
 298:C:/Users/lenovo/Desktop/liteos/Project2/BearPi_LiteOS/components/connectivity/agent_tiny/atiny_lwm2m\object_security.c ****         case LWM2M_SECURITY_SECRET_KEY_ID:
 299:C:/Users/lenovo/Desktop/liteos/Project2/BearPi_LiteOS/components/connectivity/agent_tiny/atiny_lwm2m\object_security.c ****             if (targetP->secretKey != NULL) lwm2m_free(targetP->secretKey);
 300:C:/Users/lenovo/Desktop/liteos/Project2/BearPi_LiteOS/components/connectivity/agent_tiny/atiny_lwm2m\object_security.c ****             targetP->secretKey = (char *)lwm2m_malloc(dataArray[i].value.asBuffer.length + 1);
 301:C:/Users/lenovo/Desktop/liteos/Project2/BearPi_LiteOS/components/connectivity/agent_tiny/atiny_lwm2m\object_security.c ****             if (targetP->secretKey != NULL)
 302:C:/Users/lenovo/Desktop/liteos/Project2/BearPi_LiteOS/components/connectivity/agent_tiny/atiny_lwm2m\object_security.c ****             {
 303:C:/Users/lenovo/Desktop/liteos/Project2/BearPi_LiteOS/components/connectivity/agent_tiny/atiny_lwm2m\object_security.c ****                 memset(targetP->secretKey, 0, dataArray[i].value.asBuffer.length + 1);
 304:C:/Users/lenovo/Desktop/liteos/Project2/BearPi_LiteOS/components/connectivity/agent_tiny/atiny_lwm2m\object_security.c ****                 memcpy(targetP->secretKey, (char *)dataArray[i].value.asBuffer.buffer, dataArray[i]
 305:C:/Users/lenovo/Desktop/liteos/Project2/BearPi_LiteOS/components/connectivity/agent_tiny/atiny_lwm2m\object_security.c ****                 targetP->secretKeyLen = dataArray[i].value.asBuffer.length;
 306:C:/Users/lenovo/Desktop/liteos/Project2/BearPi_LiteOS/components/connectivity/agent_tiny/atiny_lwm2m\object_security.c ****                 result = COAP_204_CHANGED;
 307:C:/Users/lenovo/Desktop/liteos/Project2/BearPi_LiteOS/components/connectivity/agent_tiny/atiny_lwm2m\object_security.c ****             }
 308:C:/Users/lenovo/Desktop/liteos/Project2/BearPi_LiteOS/components/connectivity/agent_tiny/atiny_lwm2m\object_security.c ****             else
 309:C:/Users/lenovo/Desktop/liteos/Project2/BearPi_LiteOS/components/connectivity/agent_tiny/atiny_lwm2m\object_security.c ****             {
 310:C:/Users/lenovo/Desktop/liteos/Project2/BearPi_LiteOS/components/connectivity/agent_tiny/atiny_lwm2m\object_security.c ****                 result = COAP_500_INTERNAL_SERVER_ERROR;
 311:C:/Users/lenovo/Desktop/liteos/Project2/BearPi_LiteOS/components/connectivity/agent_tiny/atiny_lwm2m\object_security.c ****             }
 312:C:/Users/lenovo/Desktop/liteos/Project2/BearPi_LiteOS/components/connectivity/agent_tiny/atiny_lwm2m\object_security.c ****             break;
 313:C:/Users/lenovo/Desktop/liteos/Project2/BearPi_LiteOS/components/connectivity/agent_tiny/atiny_lwm2m\object_security.c **** 
 314:C:/Users/lenovo/Desktop/liteos/Project2/BearPi_LiteOS/components/connectivity/agent_tiny/atiny_lwm2m\object_security.c ****         case LWM2M_SECURITY_SMS_SECURITY_ID:
 315:C:/Users/lenovo/Desktop/liteos/Project2/BearPi_LiteOS/components/connectivity/agent_tiny/atiny_lwm2m\object_security.c ****             // Let just ignore this
 316:C:/Users/lenovo/Desktop/liteos/Project2/BearPi_LiteOS/components/connectivity/agent_tiny/atiny_lwm2m\object_security.c ****             result = COAP_204_CHANGED;
 317:C:/Users/lenovo/Desktop/liteos/Project2/BearPi_LiteOS/components/connectivity/agent_tiny/atiny_lwm2m\object_security.c ****             break;
 318:C:/Users/lenovo/Desktop/liteos/Project2/BearPi_LiteOS/components/connectivity/agent_tiny/atiny_lwm2m\object_security.c **** 
 319:C:/Users/lenovo/Desktop/liteos/Project2/BearPi_LiteOS/components/connectivity/agent_tiny/atiny_lwm2m\object_security.c ****         case LWM2M_SECURITY_SMS_KEY_PARAM_ID:
 320:C:/Users/lenovo/Desktop/liteos/Project2/BearPi_LiteOS/components/connectivity/agent_tiny/atiny_lwm2m\object_security.c ****             // Let just ignore this
 321:C:/Users/lenovo/Desktop/liteos/Project2/BearPi_LiteOS/components/connectivity/agent_tiny/atiny_lwm2m\object_security.c ****             result = COAP_204_CHANGED;
 322:C:/Users/lenovo/Desktop/liteos/Project2/BearPi_LiteOS/components/connectivity/agent_tiny/atiny_lwm2m\object_security.c ****             break;
 323:C:/Users/lenovo/Desktop/liteos/Project2/BearPi_LiteOS/components/connectivity/agent_tiny/atiny_lwm2m\object_security.c **** 
 324:C:/Users/lenovo/Desktop/liteos/Project2/BearPi_LiteOS/components/connectivity/agent_tiny/atiny_lwm2m\object_security.c ****         case LWM2M_SECURITY_SMS_SECRET_KEY_ID:
 325:C:/Users/lenovo/Desktop/liteos/Project2/BearPi_LiteOS/components/connectivity/agent_tiny/atiny_lwm2m\object_security.c ****             // Let just ignore this
 326:C:/Users/lenovo/Desktop/liteos/Project2/BearPi_LiteOS/components/connectivity/agent_tiny/atiny_lwm2m\object_security.c ****             result = COAP_204_CHANGED;
 327:C:/Users/lenovo/Desktop/liteos/Project2/BearPi_LiteOS/components/connectivity/agent_tiny/atiny_lwm2m\object_security.c ****             break;
 328:C:/Users/lenovo/Desktop/liteos/Project2/BearPi_LiteOS/components/connectivity/agent_tiny/atiny_lwm2m\object_security.c **** 
 329:C:/Users/lenovo/Desktop/liteos/Project2/BearPi_LiteOS/components/connectivity/agent_tiny/atiny_lwm2m\object_security.c ****         case LWM2M_SECURITY_SMS_SERVER_NUMBER_ID:
ARM GAS  c:\Users\lenovo\AppData\Local\Temp\ccwlAmuu.s 			page 14


 330:C:/Users/lenovo/Desktop/liteos/Project2/BearPi_LiteOS/components/connectivity/agent_tiny/atiny_lwm2m\object_security.c ****             // Let just ignore this
 331:C:/Users/lenovo/Desktop/liteos/Project2/BearPi_LiteOS/components/connectivity/agent_tiny/atiny_lwm2m\object_security.c ****             result = COAP_204_CHANGED;
 332:C:/Users/lenovo/Desktop/liteos/Project2/BearPi_LiteOS/components/connectivity/agent_tiny/atiny_lwm2m\object_security.c ****             break;
 333:C:/Users/lenovo/Desktop/liteos/Project2/BearPi_LiteOS/components/connectivity/agent_tiny/atiny_lwm2m\object_security.c **** 
 334:C:/Users/lenovo/Desktop/liteos/Project2/BearPi_LiteOS/components/connectivity/agent_tiny/atiny_lwm2m\object_security.c ****         case LWM2M_SECURITY_SHORT_SERVER_ID:
 335:C:/Users/lenovo/Desktop/liteos/Project2/BearPi_LiteOS/components/connectivity/agent_tiny/atiny_lwm2m\object_security.c ****         {
 336:C:/Users/lenovo/Desktop/liteos/Project2/BearPi_LiteOS/components/connectivity/agent_tiny/atiny_lwm2m\object_security.c ****             int64_t value;
 337:C:/Users/lenovo/Desktop/liteos/Project2/BearPi_LiteOS/components/connectivity/agent_tiny/atiny_lwm2m\object_security.c **** 
 338:C:/Users/lenovo/Desktop/liteos/Project2/BearPi_LiteOS/components/connectivity/agent_tiny/atiny_lwm2m\object_security.c ****             if (1 == lwm2m_data_decode_int(dataArray + i, &value))
 339:C:/Users/lenovo/Desktop/liteos/Project2/BearPi_LiteOS/components/connectivity/agent_tiny/atiny_lwm2m\object_security.c ****             {
 340:C:/Users/lenovo/Desktop/liteos/Project2/BearPi_LiteOS/components/connectivity/agent_tiny/atiny_lwm2m\object_security.c ****                 if (value >= 0 && value <= 0xFFFF)
 341:C:/Users/lenovo/Desktop/liteos/Project2/BearPi_LiteOS/components/connectivity/agent_tiny/atiny_lwm2m\object_security.c ****                 {
 342:C:/Users/lenovo/Desktop/liteos/Project2/BearPi_LiteOS/components/connectivity/agent_tiny/atiny_lwm2m\object_security.c ****                     targetP->shortID = value;
 343:C:/Users/lenovo/Desktop/liteos/Project2/BearPi_LiteOS/components/connectivity/agent_tiny/atiny_lwm2m\object_security.c ****                     result = COAP_204_CHANGED;
 344:C:/Users/lenovo/Desktop/liteos/Project2/BearPi_LiteOS/components/connectivity/agent_tiny/atiny_lwm2m\object_security.c ****                 }
 345:C:/Users/lenovo/Desktop/liteos/Project2/BearPi_LiteOS/components/connectivity/agent_tiny/atiny_lwm2m\object_security.c ****                 else
 346:C:/Users/lenovo/Desktop/liteos/Project2/BearPi_LiteOS/components/connectivity/agent_tiny/atiny_lwm2m\object_security.c ****                 {
 347:C:/Users/lenovo/Desktop/liteos/Project2/BearPi_LiteOS/components/connectivity/agent_tiny/atiny_lwm2m\object_security.c ****                     result = COAP_406_NOT_ACCEPTABLE;
 348:C:/Users/lenovo/Desktop/liteos/Project2/BearPi_LiteOS/components/connectivity/agent_tiny/atiny_lwm2m\object_security.c ****                 }
 349:C:/Users/lenovo/Desktop/liteos/Project2/BearPi_LiteOS/components/connectivity/agent_tiny/atiny_lwm2m\object_security.c ****             }
 350:C:/Users/lenovo/Desktop/liteos/Project2/BearPi_LiteOS/components/connectivity/agent_tiny/atiny_lwm2m\object_security.c ****             else
 351:C:/Users/lenovo/Desktop/liteos/Project2/BearPi_LiteOS/components/connectivity/agent_tiny/atiny_lwm2m\object_security.c ****             {
 352:C:/Users/lenovo/Desktop/liteos/Project2/BearPi_LiteOS/components/connectivity/agent_tiny/atiny_lwm2m\object_security.c ****                 result = COAP_400_BAD_REQUEST;
 353:C:/Users/lenovo/Desktop/liteos/Project2/BearPi_LiteOS/components/connectivity/agent_tiny/atiny_lwm2m\object_security.c ****             }
 354:C:/Users/lenovo/Desktop/liteos/Project2/BearPi_LiteOS/components/connectivity/agent_tiny/atiny_lwm2m\object_security.c ****         }
 355:C:/Users/lenovo/Desktop/liteos/Project2/BearPi_LiteOS/components/connectivity/agent_tiny/atiny_lwm2m\object_security.c ****         break;
 356:C:/Users/lenovo/Desktop/liteos/Project2/BearPi_LiteOS/components/connectivity/agent_tiny/atiny_lwm2m\object_security.c **** 
 357:C:/Users/lenovo/Desktop/liteos/Project2/BearPi_LiteOS/components/connectivity/agent_tiny/atiny_lwm2m\object_security.c ****         case LWM2M_SECURITY_HOLD_OFF_ID:
 358:C:/Users/lenovo/Desktop/liteos/Project2/BearPi_LiteOS/components/connectivity/agent_tiny/atiny_lwm2m\object_security.c ****         {
 359:C:/Users/lenovo/Desktop/liteos/Project2/BearPi_LiteOS/components/connectivity/agent_tiny/atiny_lwm2m\object_security.c ****             int64_t value;
 360:C:/Users/lenovo/Desktop/liteos/Project2/BearPi_LiteOS/components/connectivity/agent_tiny/atiny_lwm2m\object_security.c **** 
 361:C:/Users/lenovo/Desktop/liteos/Project2/BearPi_LiteOS/components/connectivity/agent_tiny/atiny_lwm2m\object_security.c ****             if (1 == lwm2m_data_decode_int(dataArray + i, &value))
 362:C:/Users/lenovo/Desktop/liteos/Project2/BearPi_LiteOS/components/connectivity/agent_tiny/atiny_lwm2m\object_security.c ****             {
 363:C:/Users/lenovo/Desktop/liteos/Project2/BearPi_LiteOS/components/connectivity/agent_tiny/atiny_lwm2m\object_security.c ****                 if (value >= 0 && value <= UINT32_MAX)
 364:C:/Users/lenovo/Desktop/liteos/Project2/BearPi_LiteOS/components/connectivity/agent_tiny/atiny_lwm2m\object_security.c ****                 {
 365:C:/Users/lenovo/Desktop/liteos/Project2/BearPi_LiteOS/components/connectivity/agent_tiny/atiny_lwm2m\object_security.c ****                     targetP->clientHoldOffTime = value;
 366:C:/Users/lenovo/Desktop/liteos/Project2/BearPi_LiteOS/components/connectivity/agent_tiny/atiny_lwm2m\object_security.c ****                     result = COAP_204_CHANGED;
 367:C:/Users/lenovo/Desktop/liteos/Project2/BearPi_LiteOS/components/connectivity/agent_tiny/atiny_lwm2m\object_security.c ****                 }
 368:C:/Users/lenovo/Desktop/liteos/Project2/BearPi_LiteOS/components/connectivity/agent_tiny/atiny_lwm2m\object_security.c ****                 else
 369:C:/Users/lenovo/Desktop/liteos/Project2/BearPi_LiteOS/components/connectivity/agent_tiny/atiny_lwm2m\object_security.c ****                 {
 370:C:/Users/lenovo/Desktop/liteos/Project2/BearPi_LiteOS/components/connectivity/agent_tiny/atiny_lwm2m\object_security.c ****                     result = COAP_406_NOT_ACCEPTABLE;
 371:C:/Users/lenovo/Desktop/liteos/Project2/BearPi_LiteOS/components/connectivity/agent_tiny/atiny_lwm2m\object_security.c ****                 }
 372:C:/Users/lenovo/Desktop/liteos/Project2/BearPi_LiteOS/components/connectivity/agent_tiny/atiny_lwm2m\object_security.c ****             }
 373:C:/Users/lenovo/Desktop/liteos/Project2/BearPi_LiteOS/components/connectivity/agent_tiny/atiny_lwm2m\object_security.c ****             else
 374:C:/Users/lenovo/Desktop/liteos/Project2/BearPi_LiteOS/components/connectivity/agent_tiny/atiny_lwm2m\object_security.c ****             {
 375:C:/Users/lenovo/Desktop/liteos/Project2/BearPi_LiteOS/components/connectivity/agent_tiny/atiny_lwm2m\object_security.c ****                 result = COAP_400_BAD_REQUEST;
 376:C:/Users/lenovo/Desktop/liteos/Project2/BearPi_LiteOS/components/connectivity/agent_tiny/atiny_lwm2m\object_security.c ****             }
 377:C:/Users/lenovo/Desktop/liteos/Project2/BearPi_LiteOS/components/connectivity/agent_tiny/atiny_lwm2m\object_security.c ****             break;
 378:C:/Users/lenovo/Desktop/liteos/Project2/BearPi_LiteOS/components/connectivity/agent_tiny/atiny_lwm2m\object_security.c ****         }
 379:C:/Users/lenovo/Desktop/liteos/Project2/BearPi_LiteOS/components/connectivity/agent_tiny/atiny_lwm2m\object_security.c **** 
 380:C:/Users/lenovo/Desktop/liteos/Project2/BearPi_LiteOS/components/connectivity/agent_tiny/atiny_lwm2m\object_security.c ****         case LWM2M_SECURITY_BOOTSTRAP_TIMEOUT_ID:
 381:C:/Users/lenovo/Desktop/liteos/Project2/BearPi_LiteOS/components/connectivity/agent_tiny/atiny_lwm2m\object_security.c ****         {
 382:C:/Users/lenovo/Desktop/liteos/Project2/BearPi_LiteOS/components/connectivity/agent_tiny/atiny_lwm2m\object_security.c ****             int64_t value;
 383:C:/Users/lenovo/Desktop/liteos/Project2/BearPi_LiteOS/components/connectivity/agent_tiny/atiny_lwm2m\object_security.c **** 
 384:C:/Users/lenovo/Desktop/liteos/Project2/BearPi_LiteOS/components/connectivity/agent_tiny/atiny_lwm2m\object_security.c ****             if (1 == lwm2m_data_decode_int(dataArray + i, &value))
 385:C:/Users/lenovo/Desktop/liteos/Project2/BearPi_LiteOS/components/connectivity/agent_tiny/atiny_lwm2m\object_security.c ****             {
 386:C:/Users/lenovo/Desktop/liteos/Project2/BearPi_LiteOS/components/connectivity/agent_tiny/atiny_lwm2m\object_security.c ****                 if (value >= 0 && value <= UINT32_MAX)
ARM GAS  c:\Users\lenovo\AppData\Local\Temp\ccwlAmuu.s 			page 15


 387:C:/Users/lenovo/Desktop/liteos/Project2/BearPi_LiteOS/components/connectivity/agent_tiny/atiny_lwm2m\object_security.c ****                 {
 388:C:/Users/lenovo/Desktop/liteos/Project2/BearPi_LiteOS/components/connectivity/agent_tiny/atiny_lwm2m\object_security.c ****                     targetP->bootstrapServerAccountTimeout = value;
 389:C:/Users/lenovo/Desktop/liteos/Project2/BearPi_LiteOS/components/connectivity/agent_tiny/atiny_lwm2m\object_security.c ****                     result = COAP_204_CHANGED;
 390:C:/Users/lenovo/Desktop/liteos/Project2/BearPi_LiteOS/components/connectivity/agent_tiny/atiny_lwm2m\object_security.c ****                 }
 391:C:/Users/lenovo/Desktop/liteos/Project2/BearPi_LiteOS/components/connectivity/agent_tiny/atiny_lwm2m\object_security.c ****                 else
 392:C:/Users/lenovo/Desktop/liteos/Project2/BearPi_LiteOS/components/connectivity/agent_tiny/atiny_lwm2m\object_security.c ****                 {
 393:C:/Users/lenovo/Desktop/liteos/Project2/BearPi_LiteOS/components/connectivity/agent_tiny/atiny_lwm2m\object_security.c ****                     result = COAP_406_NOT_ACCEPTABLE;
 394:C:/Users/lenovo/Desktop/liteos/Project2/BearPi_LiteOS/components/connectivity/agent_tiny/atiny_lwm2m\object_security.c ****                 }
 395:C:/Users/lenovo/Desktop/liteos/Project2/BearPi_LiteOS/components/connectivity/agent_tiny/atiny_lwm2m\object_security.c ****             }
 396:C:/Users/lenovo/Desktop/liteos/Project2/BearPi_LiteOS/components/connectivity/agent_tiny/atiny_lwm2m\object_security.c ****             else
 397:C:/Users/lenovo/Desktop/liteos/Project2/BearPi_LiteOS/components/connectivity/agent_tiny/atiny_lwm2m\object_security.c ****             {
 398:C:/Users/lenovo/Desktop/liteos/Project2/BearPi_LiteOS/components/connectivity/agent_tiny/atiny_lwm2m\object_security.c ****                 result = COAP_400_BAD_REQUEST;
 399:C:/Users/lenovo/Desktop/liteos/Project2/BearPi_LiteOS/components/connectivity/agent_tiny/atiny_lwm2m\object_security.c ****             }
 400:C:/Users/lenovo/Desktop/liteos/Project2/BearPi_LiteOS/components/connectivity/agent_tiny/atiny_lwm2m\object_security.c ****             break;
 401:C:/Users/lenovo/Desktop/liteos/Project2/BearPi_LiteOS/components/connectivity/agent_tiny/atiny_lwm2m\object_security.c ****         }
 402:C:/Users/lenovo/Desktop/liteos/Project2/BearPi_LiteOS/components/connectivity/agent_tiny/atiny_lwm2m\object_security.c **** 
 403:C:/Users/lenovo/Desktop/liteos/Project2/BearPi_LiteOS/components/connectivity/agent_tiny/atiny_lwm2m\object_security.c ****         default:
 404:C:/Users/lenovo/Desktop/liteos/Project2/BearPi_LiteOS/components/connectivity/agent_tiny/atiny_lwm2m\object_security.c ****             return COAP_400_BAD_REQUEST;
 405:C:/Users/lenovo/Desktop/liteos/Project2/BearPi_LiteOS/components/connectivity/agent_tiny/atiny_lwm2m\object_security.c ****         }
 406:C:/Users/lenovo/Desktop/liteos/Project2/BearPi_LiteOS/components/connectivity/agent_tiny/atiny_lwm2m\object_security.c ****         i++;
 407:C:/Users/lenovo/Desktop/liteos/Project2/BearPi_LiteOS/components/connectivity/agent_tiny/atiny_lwm2m\object_security.c ****     }
 408:C:/Users/lenovo/Desktop/liteos/Project2/BearPi_LiteOS/components/connectivity/agent_tiny/atiny_lwm2m\object_security.c ****     while (i < numData && result == COAP_204_CHANGED);
 409:C:/Users/lenovo/Desktop/liteos/Project2/BearPi_LiteOS/components/connectivity/agent_tiny/atiny_lwm2m\object_security.c **** 
 410:C:/Users/lenovo/Desktop/liteos/Project2/BearPi_LiteOS/components/connectivity/agent_tiny/atiny_lwm2m\object_security.c ****     return result;
 411:C:/Users/lenovo/Desktop/liteos/Project2/BearPi_LiteOS/components/connectivity/agent_tiny/atiny_lwm2m\object_security.c **** }
 412:C:/Users/lenovo/Desktop/liteos/Project2/BearPi_LiteOS/components/connectivity/agent_tiny/atiny_lwm2m\object_security.c **** 
 413:C:/Users/lenovo/Desktop/liteos/Project2/BearPi_LiteOS/components/connectivity/agent_tiny/atiny_lwm2m\object_security.c **** static uint8_t prv_security_delete(uint16_t id,
 414:C:/Users/lenovo/Desktop/liteos/Project2/BearPi_LiteOS/components/connectivity/agent_tiny/atiny_lwm2m\object_security.c ****                                    lwm2m_object_t *objectP)
 415:C:/Users/lenovo/Desktop/liteos/Project2/BearPi_LiteOS/components/connectivity/agent_tiny/atiny_lwm2m\object_security.c **** {
 416:C:/Users/lenovo/Desktop/liteos/Project2/BearPi_LiteOS/components/connectivity/agent_tiny/atiny_lwm2m\object_security.c ****     security_instance_t *targetP;
 417:C:/Users/lenovo/Desktop/liteos/Project2/BearPi_LiteOS/components/connectivity/agent_tiny/atiny_lwm2m\object_security.c **** 
 418:C:/Users/lenovo/Desktop/liteos/Project2/BearPi_LiteOS/components/connectivity/agent_tiny/atiny_lwm2m\object_security.c ****     objectP->instanceList = lwm2m_list_remove(objectP->instanceList, id, (lwm2m_list_t **)&targetP)
 419:C:/Users/lenovo/Desktop/liteos/Project2/BearPi_LiteOS/components/connectivity/agent_tiny/atiny_lwm2m\object_security.c ****     if (NULL == targetP) return COAP_404_NOT_FOUND;
 420:C:/Users/lenovo/Desktop/liteos/Project2/BearPi_LiteOS/components/connectivity/agent_tiny/atiny_lwm2m\object_security.c ****     if (NULL != targetP->uri)
 421:C:/Users/lenovo/Desktop/liteos/Project2/BearPi_LiteOS/components/connectivity/agent_tiny/atiny_lwm2m\object_security.c ****     {
 422:C:/Users/lenovo/Desktop/liteos/Project2/BearPi_LiteOS/components/connectivity/agent_tiny/atiny_lwm2m\object_security.c ****         lwm2m_free(targetP->uri);
 423:C:/Users/lenovo/Desktop/liteos/Project2/BearPi_LiteOS/components/connectivity/agent_tiny/atiny_lwm2m\object_security.c ****     }
 424:C:/Users/lenovo/Desktop/liteos/Project2/BearPi_LiteOS/components/connectivity/agent_tiny/atiny_lwm2m\object_security.c **** 
 425:C:/Users/lenovo/Desktop/liteos/Project2/BearPi_LiteOS/components/connectivity/agent_tiny/atiny_lwm2m\object_security.c ****     lwm2m_free(targetP);
 426:C:/Users/lenovo/Desktop/liteos/Project2/BearPi_LiteOS/components/connectivity/agent_tiny/atiny_lwm2m\object_security.c **** 
 427:C:/Users/lenovo/Desktop/liteos/Project2/BearPi_LiteOS/components/connectivity/agent_tiny/atiny_lwm2m\object_security.c ****     return COAP_202_DELETED;
 428:C:/Users/lenovo/Desktop/liteos/Project2/BearPi_LiteOS/components/connectivity/agent_tiny/atiny_lwm2m\object_security.c **** }
 429:C:/Users/lenovo/Desktop/liteos/Project2/BearPi_LiteOS/components/connectivity/agent_tiny/atiny_lwm2m\object_security.c **** 
 430:C:/Users/lenovo/Desktop/liteos/Project2/BearPi_LiteOS/components/connectivity/agent_tiny/atiny_lwm2m\object_security.c **** static uint8_t prv_security_create(uint16_t instanceId,
 431:C:/Users/lenovo/Desktop/liteos/Project2/BearPi_LiteOS/components/connectivity/agent_tiny/atiny_lwm2m\object_security.c ****                                    int numData,
 432:C:/Users/lenovo/Desktop/liteos/Project2/BearPi_LiteOS/components/connectivity/agent_tiny/atiny_lwm2m\object_security.c ****                                    lwm2m_data_t *dataArray,
 433:C:/Users/lenovo/Desktop/liteos/Project2/BearPi_LiteOS/components/connectivity/agent_tiny/atiny_lwm2m\object_security.c ****                                    lwm2m_object_t *objectP)
 434:C:/Users/lenovo/Desktop/liteos/Project2/BearPi_LiteOS/components/connectivity/agent_tiny/atiny_lwm2m\object_security.c **** {
 435:C:/Users/lenovo/Desktop/liteos/Project2/BearPi_LiteOS/components/connectivity/agent_tiny/atiny_lwm2m\object_security.c ****     security_instance_t *targetP;
 436:C:/Users/lenovo/Desktop/liteos/Project2/BearPi_LiteOS/components/connectivity/agent_tiny/atiny_lwm2m\object_security.c ****     uint8_t result;
 437:C:/Users/lenovo/Desktop/liteos/Project2/BearPi_LiteOS/components/connectivity/agent_tiny/atiny_lwm2m\object_security.c **** 
 438:C:/Users/lenovo/Desktop/liteos/Project2/BearPi_LiteOS/components/connectivity/agent_tiny/atiny_lwm2m\object_security.c ****     targetP = (security_instance_t *)lwm2m_malloc(sizeof(security_instance_t));
 439:C:/Users/lenovo/Desktop/liteos/Project2/BearPi_LiteOS/components/connectivity/agent_tiny/atiny_lwm2m\object_security.c ****     if (NULL == targetP) return COAP_500_INTERNAL_SERVER_ERROR;
 440:C:/Users/lenovo/Desktop/liteos/Project2/BearPi_LiteOS/components/connectivity/agent_tiny/atiny_lwm2m\object_security.c ****     memset(targetP, 0, sizeof(security_instance_t));
 441:C:/Users/lenovo/Desktop/liteos/Project2/BearPi_LiteOS/components/connectivity/agent_tiny/atiny_lwm2m\object_security.c **** 
 442:C:/Users/lenovo/Desktop/liteos/Project2/BearPi_LiteOS/components/connectivity/agent_tiny/atiny_lwm2m\object_security.c ****     targetP->instanceId = instanceId;
 443:C:/Users/lenovo/Desktop/liteos/Project2/BearPi_LiteOS/components/connectivity/agent_tiny/atiny_lwm2m\object_security.c ****     objectP->instanceList = LWM2M_LIST_ADD(objectP->instanceList, targetP);
ARM GAS  c:\Users\lenovo\AppData\Local\Temp\ccwlAmuu.s 			page 16


 444:C:/Users/lenovo/Desktop/liteos/Project2/BearPi_LiteOS/components/connectivity/agent_tiny/atiny_lwm2m\object_security.c **** 
 445:C:/Users/lenovo/Desktop/liteos/Project2/BearPi_LiteOS/components/connectivity/agent_tiny/atiny_lwm2m\object_security.c ****     result = prv_security_write(instanceId, numData, dataArray, objectP);
 446:C:/Users/lenovo/Desktop/liteos/Project2/BearPi_LiteOS/components/connectivity/agent_tiny/atiny_lwm2m\object_security.c **** 
 447:C:/Users/lenovo/Desktop/liteos/Project2/BearPi_LiteOS/components/connectivity/agent_tiny/atiny_lwm2m\object_security.c ****     if (result != COAP_204_CHANGED)
 448:C:/Users/lenovo/Desktop/liteos/Project2/BearPi_LiteOS/components/connectivity/agent_tiny/atiny_lwm2m\object_security.c ****     {
 449:C:/Users/lenovo/Desktop/liteos/Project2/BearPi_LiteOS/components/connectivity/agent_tiny/atiny_lwm2m\object_security.c ****         (void)prv_security_delete(instanceId, objectP);
 450:C:/Users/lenovo/Desktop/liteos/Project2/BearPi_LiteOS/components/connectivity/agent_tiny/atiny_lwm2m\object_security.c ****     }
 451:C:/Users/lenovo/Desktop/liteos/Project2/BearPi_LiteOS/components/connectivity/agent_tiny/atiny_lwm2m\object_security.c ****     else
 452:C:/Users/lenovo/Desktop/liteos/Project2/BearPi_LiteOS/components/connectivity/agent_tiny/atiny_lwm2m\object_security.c ****     {
 453:C:/Users/lenovo/Desktop/liteos/Project2/BearPi_LiteOS/components/connectivity/agent_tiny/atiny_lwm2m\object_security.c ****         result = COAP_201_CREATED;
 454:C:/Users/lenovo/Desktop/liteos/Project2/BearPi_LiteOS/components/connectivity/agent_tiny/atiny_lwm2m\object_security.c ****     }
 455:C:/Users/lenovo/Desktop/liteos/Project2/BearPi_LiteOS/components/connectivity/agent_tiny/atiny_lwm2m\object_security.c **** 
 456:C:/Users/lenovo/Desktop/liteos/Project2/BearPi_LiteOS/components/connectivity/agent_tiny/atiny_lwm2m\object_security.c ****     return result;
 457:C:/Users/lenovo/Desktop/liteos/Project2/BearPi_LiteOS/components/connectivity/agent_tiny/atiny_lwm2m\object_security.c **** }
 458:C:/Users/lenovo/Desktop/liteos/Project2/BearPi_LiteOS/components/connectivity/agent_tiny/atiny_lwm2m\object_security.c **** #endif
 459:C:/Users/lenovo/Desktop/liteos/Project2/BearPi_LiteOS/components/connectivity/agent_tiny/atiny_lwm2m\object_security.c **** 
 460:C:/Users/lenovo/Desktop/liteos/Project2/BearPi_LiteOS/components/connectivity/agent_tiny/atiny_lwm2m\object_security.c **** void copy_security_object(lwm2m_object_t *objectDest, lwm2m_object_t *objectSrc)
 461:C:/Users/lenovo/Desktop/liteos/Project2/BearPi_LiteOS/components/connectivity/agent_tiny/atiny_lwm2m\object_security.c **** {
 382              		.loc 1 461 0
 383              		.cfi_startproc
 384              		@ args = 0, pretend = 0, frame = 0
 385              		@ frame_needed = 0, uses_anonymous_args = 0
 386              	.LVL74:
 387 0000 2DE9F843 		push	{r3, r4, r5, r6, r7, r8, r9, lr}
 388              	.LCFI5:
 389              		.cfi_def_cfa_offset 32
 390              		.cfi_offset 3, -32
 391              		.cfi_offset 4, -28
 392              		.cfi_offset 5, -24
 393              		.cfi_offset 6, -20
 394              		.cfi_offset 7, -16
 395              		.cfi_offset 8, -12
 396              		.cfi_offset 9, -8
 397              		.cfi_offset 14, -4
 398 0004 8046     		mov	r8, r0
 399              	.LVL75:
 462:C:/Users/lenovo/Desktop/liteos/Project2/BearPi_LiteOS/components/connectivity/agent_tiny/atiny_lwm2m\object_security.c ****     security_instance_t *instanceSrc;
 463:C:/Users/lenovo/Desktop/liteos/Project2/BearPi_LiteOS/components/connectivity/agent_tiny/atiny_lwm2m\object_security.c ****     security_instance_t *previousInstanceDest = NULL;
 464:C:/Users/lenovo/Desktop/liteos/Project2/BearPi_LiteOS/components/connectivity/agent_tiny/atiny_lwm2m\object_security.c ****     memcpy(objectDest, objectSrc, sizeof(lwm2m_object_t));
 400              		.loc 1 464 0
 401 0006 0B46     		mov	r3, r1
 402 0008 0246     		mov	r2, r0
 403 000a 01F12000 		add	r0, r1, #32
 404              	.LVL76:
 405              	.L33:
 406 000e 1F68     		ldr	r7, [r3]	@ unaligned
 407 0010 5E68     		ldr	r6, [r3, #4]	@ unaligned
 408 0012 9D68     		ldr	r5, [r3, #8]	@ unaligned
 409 0014 DC68     		ldr	r4, [r3, #12]	@ unaligned
 410 0016 1760     		str	r7, [r2]	@ unaligned
 411 0018 5660     		str	r6, [r2, #4]	@ unaligned
 412 001a 9560     		str	r5, [r2, #8]	@ unaligned
 413 001c D460     		str	r4, [r2, #12]	@ unaligned
 414 001e 1033     		adds	r3, r3, #16
 415 0020 1032     		adds	r2, r2, #16
 416 0022 8342     		cmp	r3, r0
 417 0024 F3D1     		bne	.L33
ARM GAS  c:\Users\lenovo\AppData\Local\Temp\ccwlAmuu.s 			page 17


 418 0026 1868     		ldr	r0, [r3]	@ unaligned
 419 0028 5B68     		ldr	r3, [r3, #4]	@ unaligned
 420 002a 1060     		str	r0, [r2]	@ unaligned
 421 002c 5360     		str	r3, [r2, #4]	@ unaligned
 465:C:/Users/lenovo/Desktop/liteos/Project2/BearPi_LiteOS/components/connectivity/agent_tiny/atiny_lwm2m\object_security.c ****     objectDest->instanceList = NULL;
 422              		.loc 1 465 0
 423 002e 0027     		movs	r7, #0
 424 0030 C8F80870 		str	r7, [r8, #8]
 466:C:/Users/lenovo/Desktop/liteos/Project2/BearPi_LiteOS/components/connectivity/agent_tiny/atiny_lwm2m\object_security.c ****     objectDest->userData = NULL;
 425              		.loc 1 466 0
 426 0034 C8F82870 		str	r7, [r8, #40]
 467:C:/Users/lenovo/Desktop/liteos/Project2/BearPi_LiteOS/components/connectivity/agent_tiny/atiny_lwm2m\object_security.c **** 
 468:C:/Users/lenovo/Desktop/liteos/Project2/BearPi_LiteOS/components/connectivity/agent_tiny/atiny_lwm2m\object_security.c ****     instanceSrc = (security_instance_t *)objectSrc->instanceList;
 427              		.loc 1 468 0
 428 0038 8C68     		ldr	r4, [r1, #8]
 429              	.LVL77:
 469:C:/Users/lenovo/Desktop/liteos/Project2/BearPi_LiteOS/components/connectivity/agent_tiny/atiny_lwm2m\object_security.c ****     while (instanceSrc != NULL)
 430              		.loc 1 469 0
 431 003a 0EE0     		b	.L34
 432              	.LVL78:
 433              	.L37:
 434              	.LBB3:
 470:C:/Users/lenovo/Desktop/liteos/Project2/BearPi_LiteOS/components/connectivity/agent_tiny/atiny_lwm2m\object_security.c ****     {
 471:C:/Users/lenovo/Desktop/liteos/Project2/BearPi_LiteOS/components/connectivity/agent_tiny/atiny_lwm2m\object_security.c ****         security_instance_t *instanceDest = (security_instance_t *)lwm2m_malloc(sizeof(security_ins
 472:C:/Users/lenovo/Desktop/liteos/Project2/BearPi_LiteOS/components/connectivity/agent_tiny/atiny_lwm2m\object_security.c ****         if (NULL == instanceDest)
 473:C:/Users/lenovo/Desktop/liteos/Project2/BearPi_LiteOS/components/connectivity/agent_tiny/atiny_lwm2m\object_security.c ****         {
 474:C:/Users/lenovo/Desktop/liteos/Project2/BearPi_LiteOS/components/connectivity/agent_tiny/atiny_lwm2m\object_security.c ****             return;
 475:C:/Users/lenovo/Desktop/liteos/Project2/BearPi_LiteOS/components/connectivity/agent_tiny/atiny_lwm2m\object_security.c ****         }
 476:C:/Users/lenovo/Desktop/liteos/Project2/BearPi_LiteOS/components/connectivity/agent_tiny/atiny_lwm2m\object_security.c ****         memcpy(instanceDest, instanceSrc, sizeof(security_instance_t));
 477:C:/Users/lenovo/Desktop/liteos/Project2/BearPi_LiteOS/components/connectivity/agent_tiny/atiny_lwm2m\object_security.c ****         instanceDest->uri = (char *)lwm2m_malloc(strlen(instanceSrc->uri) + 1);
 478:C:/Users/lenovo/Desktop/liteos/Project2/BearPi_LiteOS/components/connectivity/agent_tiny/atiny_lwm2m\object_security.c ****         if (instanceDest->uri == NULL)
 479:C:/Users/lenovo/Desktop/liteos/Project2/BearPi_LiteOS/components/connectivity/agent_tiny/atiny_lwm2m\object_security.c ****         {
 480:C:/Users/lenovo/Desktop/liteos/Project2/BearPi_LiteOS/components/connectivity/agent_tiny/atiny_lwm2m\object_security.c ****             lwm2m_free(instanceDest);
 481:C:/Users/lenovo/Desktop/liteos/Project2/BearPi_LiteOS/components/connectivity/agent_tiny/atiny_lwm2m\object_security.c ****             return;
 482:C:/Users/lenovo/Desktop/liteos/Project2/BearPi_LiteOS/components/connectivity/agent_tiny/atiny_lwm2m\object_security.c ****         }
 483:C:/Users/lenovo/Desktop/liteos/Project2/BearPi_LiteOS/components/connectivity/agent_tiny/atiny_lwm2m\object_security.c ****         strncpy(instanceDest->uri, instanceSrc->uri, strlen(instanceSrc->uri) + 1);
 435              		.loc 1 483 0
 436 003c A668     		ldr	r6, [r4, #8]
 437 003e 3046     		mov	r0, r6
 438 0040 FFF7FEFF 		bl	strlen
 439              	.LVL79:
 440 0044 421C     		adds	r2, r0, #1
 441 0046 3146     		mov	r1, r6
 442 0048 4846     		mov	r0, r9
 443 004a FFF7FEFF 		bl	strncpy
 444              	.LVL80:
 484:C:/Users/lenovo/Desktop/liteos/Project2/BearPi_LiteOS/components/connectivity/agent_tiny/atiny_lwm2m\object_security.c ****         if (instanceSrc->securityMode == LWM2M_SECURITY_MODE_PRE_SHARED_KEY)
 445              		.loc 1 484 0
 446 004e 637B     		ldrb	r3, [r4, #13]	@ zero_extendqisi2
 447 0050 63B3     		cbz	r3, .L43
 448              	.L38:
 485:C:/Users/lenovo/Desktop/liteos/Project2/BearPi_LiteOS/components/connectivity/agent_tiny/atiny_lwm2m\object_security.c ****         {
 486:C:/Users/lenovo/Desktop/liteos/Project2/BearPi_LiteOS/components/connectivity/agent_tiny/atiny_lwm2m\object_security.c ****             instanceDest->publicIdentity = lwm2m_strdup(instanceSrc->publicIdentity);
 487:C:/Users/lenovo/Desktop/liteos/Project2/BearPi_LiteOS/components/connectivity/agent_tiny/atiny_lwm2m\object_security.c ****             instanceDest->secretKey = lwm2m_strdup(instanceSrc->secretKey);
 488:C:/Users/lenovo/Desktop/liteos/Project2/BearPi_LiteOS/components/connectivity/agent_tiny/atiny_lwm2m\object_security.c ****         }
 489:C:/Users/lenovo/Desktop/liteos/Project2/BearPi_LiteOS/components/connectivity/agent_tiny/atiny_lwm2m\object_security.c ****         instanceSrc = (security_instance_t *)instanceSrc->next;
 449              		.loc 1 489 0
ARM GAS  c:\Users\lenovo\AppData\Local\Temp\ccwlAmuu.s 			page 18


 450 0052 2468     		ldr	r4, [r4]
 451              	.LVL81:
 490:C:/Users/lenovo/Desktop/liteos/Project2/BearPi_LiteOS/components/connectivity/agent_tiny/atiny_lwm2m\object_security.c ****         if (previousInstanceDest == NULL)
 452              		.loc 1 490 0
 453 0054 9FB3     		cbz	r7, .L44
 491:C:/Users/lenovo/Desktop/liteos/Project2/BearPi_LiteOS/components/connectivity/agent_tiny/atiny_lwm2m\object_security.c ****         {
 492:C:/Users/lenovo/Desktop/liteos/Project2/BearPi_LiteOS/components/connectivity/agent_tiny/atiny_lwm2m\object_security.c ****             objectDest->instanceList = (lwm2m_list_t *)instanceDest;
 493:C:/Users/lenovo/Desktop/liteos/Project2/BearPi_LiteOS/components/connectivity/agent_tiny/atiny_lwm2m\object_security.c ****         }
 494:C:/Users/lenovo/Desktop/liteos/Project2/BearPi_LiteOS/components/connectivity/agent_tiny/atiny_lwm2m\object_security.c ****         else
 495:C:/Users/lenovo/Desktop/liteos/Project2/BearPi_LiteOS/components/connectivity/agent_tiny/atiny_lwm2m\object_security.c ****         {
 496:C:/Users/lenovo/Desktop/liteos/Project2/BearPi_LiteOS/components/connectivity/agent_tiny/atiny_lwm2m\object_security.c ****             previousInstanceDest->next = instanceDest;
 454              		.loc 1 496 0
 455 0056 3D60     		str	r5, [r7]
 456              	.L40:
 457              	.LBE3:
 461:C:/Users/lenovo/Desktop/liteos/Project2/BearPi_LiteOS/components/connectivity/agent_tiny/atiny_lwm2m\object_security.c ****     security_instance_t *instanceSrc;
 458              		.loc 1 461 0
 459 0058 2F46     		mov	r7, r5
 460              	.LVL82:
 461              	.L34:
 469:C:/Users/lenovo/Desktop/liteos/Project2/BearPi_LiteOS/components/connectivity/agent_tiny/atiny_lwm2m\object_security.c ****     {
 462              		.loc 1 469 0
 463 005a 2CB3     		cbz	r4, .L32
 464              	.LBB4:
 471:C:/Users/lenovo/Desktop/liteos/Project2/BearPi_LiteOS/components/connectivity/agent_tiny/atiny_lwm2m\object_security.c ****         if (NULL == instanceDest)
 465              		.loc 1 471 0
 466 005c 4020     		movs	r0, #64
 467 005e FFF7FEFF 		bl	lwm2m_malloc
 468              	.LVL83:
 472:C:/Users/lenovo/Desktop/liteos/Project2/BearPi_LiteOS/components/connectivity/agent_tiny/atiny_lwm2m\object_security.c ****         {
 469              		.loc 1 472 0
 470 0062 0546     		mov	r5, r0
 471 0064 00B3     		cbz	r0, .L32
 476:C:/Users/lenovo/Desktop/liteos/Project2/BearPi_LiteOS/components/connectivity/agent_tiny/atiny_lwm2m\object_security.c ****         instanceDest->uri = (char *)lwm2m_malloc(strlen(instanceSrc->uri) + 1);
 472              		.loc 1 476 0
 473 0066 2346     		mov	r3, r4
 474 0068 0246     		mov	r2, r0
 475 006a 04F14001 		add	r1, r4, #64
 476              	.LVL84:
 477              	.L36:
 478 006e D3F800E0 		ldr	lr, [r3]	@ unaligned
 479 0072 D3F804C0 		ldr	ip, [r3, #4]	@ unaligned
 480 0076 9E68     		ldr	r6, [r3, #8]	@ unaligned
 481 0078 D868     		ldr	r0, [r3, #12]	@ unaligned
 482 007a C2F800E0 		str	lr, [r2]	@ unaligned
 483 007e C2F804C0 		str	ip, [r2, #4]	@ unaligned
 484 0082 9660     		str	r6, [r2, #8]	@ unaligned
 485 0084 D060     		str	r0, [r2, #12]	@ unaligned
 486 0086 1033     		adds	r3, r3, #16
 487 0088 1032     		adds	r2, r2, #16
 488 008a 8B42     		cmp	r3, r1
 489 008c EFD1     		bne	.L36
 477:C:/Users/lenovo/Desktop/liteos/Project2/BearPi_LiteOS/components/connectivity/agent_tiny/atiny_lwm2m\object_security.c ****         if (instanceDest->uri == NULL)
 490              		.loc 1 477 0
 491 008e A068     		ldr	r0, [r4, #8]
 492 0090 FFF7FEFF 		bl	strlen
 493              	.LVL85:
ARM GAS  c:\Users\lenovo\AppData\Local\Temp\ccwlAmuu.s 			page 19


 494 0094 0130     		adds	r0, r0, #1
 495 0096 FFF7FEFF 		bl	lwm2m_malloc
 496              	.LVL86:
 497 009a 8146     		mov	r9, r0
 498 009c A860     		str	r0, [r5, #8]
 478:C:/Users/lenovo/Desktop/liteos/Project2/BearPi_LiteOS/components/connectivity/agent_tiny/atiny_lwm2m\object_security.c ****         {
 499              		.loc 1 478 0
 500 009e 0028     		cmp	r0, #0
 501 00a0 CCD1     		bne	.L37
 480:C:/Users/lenovo/Desktop/liteos/Project2/BearPi_LiteOS/components/connectivity/agent_tiny/atiny_lwm2m\object_security.c ****             return;
 502              		.loc 1 480 0
 503 00a2 2846     		mov	r0, r5
 504 00a4 FFF7FEFF 		bl	lwm2m_free
 505              	.LVL87:
 506              	.L32:
 507              	.LBE4:
 497:C:/Users/lenovo/Desktop/liteos/Project2/BearPi_LiteOS/components/connectivity/agent_tiny/atiny_lwm2m\object_security.c ****         }
 498:C:/Users/lenovo/Desktop/liteos/Project2/BearPi_LiteOS/components/connectivity/agent_tiny/atiny_lwm2m\object_security.c ****         previousInstanceDest = instanceDest;
 499:C:/Users/lenovo/Desktop/liteos/Project2/BearPi_LiteOS/components/connectivity/agent_tiny/atiny_lwm2m\object_security.c ****     }
 500:C:/Users/lenovo/Desktop/liteos/Project2/BearPi_LiteOS/components/connectivity/agent_tiny/atiny_lwm2m\object_security.c **** }
 508              		.loc 1 500 0
 509 00a8 BDE8F883 		pop	{r3, r4, r5, r6, r7, r8, r9, pc}
 510              	.LVL88:
 511              	.L43:
 512              	.LBB5:
 486:C:/Users/lenovo/Desktop/liteos/Project2/BearPi_LiteOS/components/connectivity/agent_tiny/atiny_lwm2m\object_security.c ****             instanceDest->secretKey = lwm2m_strdup(instanceSrc->secretKey);
 513              		.loc 1 486 0
 514 00ac 2069     		ldr	r0, [r4, #16]
 515 00ae FFF7FEFF 		bl	lwm2m_strdup
 516              	.LVL89:
 517 00b2 2861     		str	r0, [r5, #16]
 487:C:/Users/lenovo/Desktop/liteos/Project2/BearPi_LiteOS/components/connectivity/agent_tiny/atiny_lwm2m\object_security.c ****         }
 518              		.loc 1 487 0
 519 00b4 206A     		ldr	r0, [r4, #32]
 520 00b6 FFF7FEFF 		bl	lwm2m_strdup
 521              	.LVL90:
 522 00ba 2862     		str	r0, [r5, #32]
 523 00bc C9E7     		b	.L38
 524              	.L44:
 492:C:/Users/lenovo/Desktop/liteos/Project2/BearPi_LiteOS/components/connectivity/agent_tiny/atiny_lwm2m\object_security.c ****         }
 525              		.loc 1 492 0
 526 00be C8F80850 		str	r5, [r8, #8]
 527 00c2 C9E7     		b	.L40
 528              	.LBE5:
 529              		.cfi_endproc
 530              	.LFE144:
 532              		.section	.text.display_security_object,"ax",%progbits
 533              		.align	1
 534              		.global	display_security_object
 535              		.syntax unified
 536              		.thumb
 537              		.thumb_func
 538              		.fpu fpv4-sp-d16
 540              	display_security_object:
 541              	.LFB145:
 501:C:/Users/lenovo/Desktop/liteos/Project2/BearPi_LiteOS/components/connectivity/agent_tiny/atiny_lwm2m\object_security.c **** 
 502:C:/Users/lenovo/Desktop/liteos/Project2/BearPi_LiteOS/components/connectivity/agent_tiny/atiny_lwm2m\object_security.c **** void display_security_object(lwm2m_object_t *object)
ARM GAS  c:\Users\lenovo\AppData\Local\Temp\ccwlAmuu.s 			page 20


 503:C:/Users/lenovo/Desktop/liteos/Project2/BearPi_LiteOS/components/connectivity/agent_tiny/atiny_lwm2m\object_security.c **** {
 542              		.loc 1 503 0
 543              		.cfi_startproc
 544              		@ args = 0, pretend = 0, frame = 0
 545              		@ frame_needed = 0, uses_anonymous_args = 0
 546              		@ link register save eliminated.
 547              	.LVL91:
 504:C:/Users/lenovo/Desktop/liteos/Project2/BearPi_LiteOS/components/connectivity/agent_tiny/atiny_lwm2m\object_security.c **** #ifdef WITH_LOGS
 505:C:/Users/lenovo/Desktop/liteos/Project2/BearPi_LiteOS/components/connectivity/agent_tiny/atiny_lwm2m\object_security.c ****     fprintf(stdout, "  /%u: Security object, instances:\r\n", object->objID);
 506:C:/Users/lenovo/Desktop/liteos/Project2/BearPi_LiteOS/components/connectivity/agent_tiny/atiny_lwm2m\object_security.c ****     security_instance_t *instance = (security_instance_t *)object->instanceList;
 507:C:/Users/lenovo/Desktop/liteos/Project2/BearPi_LiteOS/components/connectivity/agent_tiny/atiny_lwm2m\object_security.c ****     while (instance != NULL)
 508:C:/Users/lenovo/Desktop/liteos/Project2/BearPi_LiteOS/components/connectivity/agent_tiny/atiny_lwm2m\object_security.c ****     {
 509:C:/Users/lenovo/Desktop/liteos/Project2/BearPi_LiteOS/components/connectivity/agent_tiny/atiny_lwm2m\object_security.c ****         fprintf(stdout, "    /%u/%u: instanceId: %u, uri: %s, isBootstrap: %s, shortId: %u, clientH
 510:C:/Users/lenovo/Desktop/liteos/Project2/BearPi_LiteOS/components/connectivity/agent_tiny/atiny_lwm2m\object_security.c ****                 object->objID, instance->instanceId,
 511:C:/Users/lenovo/Desktop/liteos/Project2/BearPi_LiteOS/components/connectivity/agent_tiny/atiny_lwm2m\object_security.c ****                 instance->instanceId, instance->uri, instance->isBootstrap ? "true" : "false",
 512:C:/Users/lenovo/Desktop/liteos/Project2/BearPi_LiteOS/components/connectivity/agent_tiny/atiny_lwm2m\object_security.c ****                 instance->shortID, instance->clientHoldOffTime);
 513:C:/Users/lenovo/Desktop/liteos/Project2/BearPi_LiteOS/components/connectivity/agent_tiny/atiny_lwm2m\object_security.c ****         instance = (security_instance_t *)instance->next;
 514:C:/Users/lenovo/Desktop/liteos/Project2/BearPi_LiteOS/components/connectivity/agent_tiny/atiny_lwm2m\object_security.c ****     }
 515:C:/Users/lenovo/Desktop/liteos/Project2/BearPi_LiteOS/components/connectivity/agent_tiny/atiny_lwm2m\object_security.c **** #endif
 516:C:/Users/lenovo/Desktop/liteos/Project2/BearPi_LiteOS/components/connectivity/agent_tiny/atiny_lwm2m\object_security.c **** }
 548              		.loc 1 516 0
 549 0000 7047     		bx	lr
 550              		.cfi_endproc
 551              	.LFE145:
 553              		.section	.text.clean_security_object,"ax",%progbits
 554              		.align	1
 555              		.global	clean_security_object
 556              		.syntax unified
 557              		.thumb
 558              		.thumb_func
 559              		.fpu fpv4-sp-d16
 561              	clean_security_object:
 562              	.LFB146:
 517:C:/Users/lenovo/Desktop/liteos/Project2/BearPi_LiteOS/components/connectivity/agent_tiny/atiny_lwm2m\object_security.c **** 
 518:C:/Users/lenovo/Desktop/liteos/Project2/BearPi_LiteOS/components/connectivity/agent_tiny/atiny_lwm2m\object_security.c **** void clean_security_object(lwm2m_object_t *objectP)
 519:C:/Users/lenovo/Desktop/liteos/Project2/BearPi_LiteOS/components/connectivity/agent_tiny/atiny_lwm2m\object_security.c **** {
 563              		.loc 1 519 0
 564              		.cfi_startproc
 565              		@ args = 0, pretend = 0, frame = 0
 566              		@ frame_needed = 0, uses_anonymous_args = 0
 567              	.LVL92:
 568 0000 38B5     		push	{r3, r4, r5, lr}
 569              	.LCFI6:
 570              		.cfi_def_cfa_offset 16
 571              		.cfi_offset 3, -16
 572              		.cfi_offset 4, -12
 573              		.cfi_offset 5, -8
 574              		.cfi_offset 14, -4
 520:C:/Users/lenovo/Desktop/liteos/Project2/BearPi_LiteOS/components/connectivity/agent_tiny/atiny_lwm2m\object_security.c ****     if(NULL == objectP)
 575              		.loc 1 520 0
 576 0002 0546     		mov	r5, r0
 577 0004 28B9     		cbnz	r0, .L48
 578 0006 18E0     		b	.L46
 579              	.LVL93:
 580              	.L49:
 581              	.LBB6:
 521:C:/Users/lenovo/Desktop/liteos/Project2/BearPi_LiteOS/components/connectivity/agent_tiny/atiny_lwm2m\object_security.c ****     {
ARM GAS  c:\Users\lenovo\AppData\Local\Temp\ccwlAmuu.s 			page 21


 522:C:/Users/lenovo/Desktop/liteos/Project2/BearPi_LiteOS/components/connectivity/agent_tiny/atiny_lwm2m\object_security.c ****         return;
 523:C:/Users/lenovo/Desktop/liteos/Project2/BearPi_LiteOS/components/connectivity/agent_tiny/atiny_lwm2m\object_security.c ****     }
 524:C:/Users/lenovo/Desktop/liteos/Project2/BearPi_LiteOS/components/connectivity/agent_tiny/atiny_lwm2m\object_security.c ****     while (objectP->instanceList != NULL)
 525:C:/Users/lenovo/Desktop/liteos/Project2/BearPi_LiteOS/components/connectivity/agent_tiny/atiny_lwm2m\object_security.c ****     {
 526:C:/Users/lenovo/Desktop/liteos/Project2/BearPi_LiteOS/components/connectivity/agent_tiny/atiny_lwm2m\object_security.c ****         security_instance_t *securityInstance = (security_instance_t *)objectP->instanceList;
 527:C:/Users/lenovo/Desktop/liteos/Project2/BearPi_LiteOS/components/connectivity/agent_tiny/atiny_lwm2m\object_security.c ****         objectP->instanceList = objectP->instanceList->next;
 528:C:/Users/lenovo/Desktop/liteos/Project2/BearPi_LiteOS/components/connectivity/agent_tiny/atiny_lwm2m\object_security.c ****         if (NULL != securityInstance->uri)
 529:C:/Users/lenovo/Desktop/liteos/Project2/BearPi_LiteOS/components/connectivity/agent_tiny/atiny_lwm2m\object_security.c ****         {
 530:C:/Users/lenovo/Desktop/liteos/Project2/BearPi_LiteOS/components/connectivity/agent_tiny/atiny_lwm2m\object_security.c ****             lwm2m_free(securityInstance->uri);
 531:C:/Users/lenovo/Desktop/liteos/Project2/BearPi_LiteOS/components/connectivity/agent_tiny/atiny_lwm2m\object_security.c ****         }
 532:C:/Users/lenovo/Desktop/liteos/Project2/BearPi_LiteOS/components/connectivity/agent_tiny/atiny_lwm2m\object_security.c ****         if (securityInstance->securityMode == LWM2M_SECURITY_MODE_PRE_SHARED_KEY)
 582              		.loc 1 532 0
 583 0008 637B     		ldrb	r3, [r4, #13]	@ zero_extendqisi2
 584 000a 63B1     		cbz	r3, .L53
 585              	.L50:
 533:C:/Users/lenovo/Desktop/liteos/Project2/BearPi_LiteOS/components/connectivity/agent_tiny/atiny_lwm2m\object_security.c ****         {
 534:C:/Users/lenovo/Desktop/liteos/Project2/BearPi_LiteOS/components/connectivity/agent_tiny/atiny_lwm2m\object_security.c ****             lwm2m_free(securityInstance->publicIdentity);
 535:C:/Users/lenovo/Desktop/liteos/Project2/BearPi_LiteOS/components/connectivity/agent_tiny/atiny_lwm2m\object_security.c ****             lwm2m_free(securityInstance->secretKey);
 536:C:/Users/lenovo/Desktop/liteos/Project2/BearPi_LiteOS/components/connectivity/agent_tiny/atiny_lwm2m\object_security.c ****         }
 537:C:/Users/lenovo/Desktop/liteos/Project2/BearPi_LiteOS/components/connectivity/agent_tiny/atiny_lwm2m\object_security.c ****         lwm2m_free(securityInstance);
 586              		.loc 1 537 0
 587 000c 2046     		mov	r0, r4
 588 000e FFF7FEFF 		bl	lwm2m_free
 589              	.LVL94:
 590              	.L48:
 591              	.LBE6:
 524:C:/Users/lenovo/Desktop/liteos/Project2/BearPi_LiteOS/components/connectivity/agent_tiny/atiny_lwm2m\object_security.c ****     {
 592              		.loc 1 524 0
 593 0012 AC68     		ldr	r4, [r5, #8]
 594 0014 74B1     		cbz	r4, .L54
 595              	.LVL95:
 596              	.LBB7:
 527:C:/Users/lenovo/Desktop/liteos/Project2/BearPi_LiteOS/components/connectivity/agent_tiny/atiny_lwm2m\object_security.c ****         if (NULL != securityInstance->uri)
 597              		.loc 1 527 0
 598 0016 2368     		ldr	r3, [r4]
 599 0018 AB60     		str	r3, [r5, #8]
 528:C:/Users/lenovo/Desktop/liteos/Project2/BearPi_LiteOS/components/connectivity/agent_tiny/atiny_lwm2m\object_security.c ****         {
 600              		.loc 1 528 0
 601 001a A068     		ldr	r0, [r4, #8]
 602 001c 0028     		cmp	r0, #0
 603 001e F3D0     		beq	.L49
 530:C:/Users/lenovo/Desktop/liteos/Project2/BearPi_LiteOS/components/connectivity/agent_tiny/atiny_lwm2m\object_security.c ****         }
 604              		.loc 1 530 0
 605 0020 FFF7FEFF 		bl	lwm2m_free
 606              	.LVL96:
 607 0024 F0E7     		b	.L49
 608              	.L53:
 534:C:/Users/lenovo/Desktop/liteos/Project2/BearPi_LiteOS/components/connectivity/agent_tiny/atiny_lwm2m\object_security.c ****             lwm2m_free(securityInstance->secretKey);
 609              		.loc 1 534 0
 610 0026 2069     		ldr	r0, [r4, #16]
 611 0028 FFF7FEFF 		bl	lwm2m_free
 612              	.LVL97:
 535:C:/Users/lenovo/Desktop/liteos/Project2/BearPi_LiteOS/components/connectivity/agent_tiny/atiny_lwm2m\object_security.c ****         }
 613              		.loc 1 535 0
 614 002c 206A     		ldr	r0, [r4, #32]
 615 002e FFF7FEFF 		bl	lwm2m_free
 616              	.LVL98:
ARM GAS  c:\Users\lenovo\AppData\Local\Temp\ccwlAmuu.s 			page 22


 617 0032 EBE7     		b	.L50
 618              	.LVL99:
 619              	.L54:
 620              	.LBE7:
 538:C:/Users/lenovo/Desktop/liteos/Project2/BearPi_LiteOS/components/connectivity/agent_tiny/atiny_lwm2m\object_security.c ****     }
 539:C:/Users/lenovo/Desktop/liteos/Project2/BearPi_LiteOS/components/connectivity/agent_tiny/atiny_lwm2m\object_security.c **** 
 540:C:/Users/lenovo/Desktop/liteos/Project2/BearPi_LiteOS/components/connectivity/agent_tiny/atiny_lwm2m\object_security.c ****     lwm2m_free(objectP);
 621              		.loc 1 540 0
 622 0034 2846     		mov	r0, r5
 623 0036 FFF7FEFF 		bl	lwm2m_free
 624              	.LVL100:
 625              	.L46:
 541:C:/Users/lenovo/Desktop/liteos/Project2/BearPi_LiteOS/components/connectivity/agent_tiny/atiny_lwm2m\object_security.c **** }
 626              		.loc 1 541 0
 627 003a 38BD     		pop	{r3, r4, r5, pc}
 628              		.cfi_endproc
 629              	.LFE146:
 631              		.section	.text.get_security_object,"ax",%progbits
 632              		.align	1
 633              		.global	get_security_object
 634              		.syntax unified
 635              		.thumb
 636              		.thumb_func
 637              		.fpu fpv4-sp-d16
 639              	get_security_object:
 640              	.LFB147:
 542:C:/Users/lenovo/Desktop/liteos/Project2/BearPi_LiteOS/components/connectivity/agent_tiny/atiny_lwm2m\object_security.c **** /*
 543:C:/Users/lenovo/Desktop/liteos/Project2/BearPi_LiteOS/components/connectivity/agent_tiny/atiny_lwm2m\object_security.c ****  * modify date:  2018-06-25
 544:C:/Users/lenovo/Desktop/liteos/Project2/BearPi_LiteOS/components/connectivity/agent_tiny/atiny_lwm2m\object_security.c ****  * description:  add one or two instance for security object. id 0 for iot server(uri,psk), id 1 fo
 545:C:/Users/lenovo/Desktop/liteos/Project2/BearPi_LiteOS/components/connectivity/agent_tiny/atiny_lwm2m\object_security.c ****  * return:       a object: lwm2m_object_t
 546:C:/Users/lenovo/Desktop/liteos/Project2/BearPi_LiteOS/components/connectivity/agent_tiny/atiny_lwm2m\object_security.c ****  * pay attention:
 547:C:/Users/lenovo/Desktop/liteos/Project2/BearPi_LiteOS/components/connectivity/agent_tiny/atiny_lwm2m\object_security.c ****  */
 548:C:/Users/lenovo/Desktop/liteos/Project2/BearPi_LiteOS/components/connectivity/agent_tiny/atiny_lwm2m\object_security.c **** lwm2m_object_t *get_security_object(uint16_t serverId, atiny_param_t *atiny_params, lwm2m_context_t
 549:C:/Users/lenovo/Desktop/liteos/Project2/BearPi_LiteOS/components/connectivity/agent_tiny/atiny_lwm2m\object_security.c **** {
 641              		.loc 1 549 0
 642              		.cfi_startproc
 643              		@ args = 0, pretend = 0, frame = 80
 644              		@ frame_needed = 0, uses_anonymous_args = 0
 645              	.LVL101:
 646 0000 2DE9F04F 		push	{r4, r5, r6, r7, r8, r9, r10, fp, lr}
 647              	.LCFI7:
 648              		.cfi_def_cfa_offset 36
 649              		.cfi_offset 4, -36
 650              		.cfi_offset 5, -32
 651              		.cfi_offset 6, -28
 652              		.cfi_offset 7, -24
 653              		.cfi_offset 8, -20
 654              		.cfi_offset 9, -16
 655              		.cfi_offset 10, -12
 656              		.cfi_offset 11, -8
 657              		.cfi_offset 14, -4
 658 0004 97B0     		sub	sp, sp, #92
 659              	.LCFI8:
 660              		.cfi_def_cfa_offset 128
 661              	.LVL102:
 550:C:/Users/lenovo/Desktop/liteos/Project2/BearPi_LiteOS/components/connectivity/agent_tiny/atiny_lwm2m\object_security.c ****     //const int URI_MAX_LEN = 64;
 551:C:/Users/lenovo/Desktop/liteos/Project2/BearPi_LiteOS/components/connectivity/agent_tiny/atiny_lwm2m\object_security.c **** #define URI_MAX_LEN 64
ARM GAS  c:\Users\lenovo\AppData\Local\Temp\ccwlAmuu.s 			page 23


 552:C:/Users/lenovo/Desktop/liteos/Project2/BearPi_LiteOS/components/connectivity/agent_tiny/atiny_lwm2m\object_security.c ****     lwm2m_object_t *securityObj = NULL;
 553:C:/Users/lenovo/Desktop/liteos/Project2/BearPi_LiteOS/components/connectivity/agent_tiny/atiny_lwm2m\object_security.c ****     char serverUri[URI_MAX_LEN];
 554:C:/Users/lenovo/Desktop/liteos/Project2/BearPi_LiteOS/components/connectivity/agent_tiny/atiny_lwm2m\object_security.c ****     security_instance_t *targetP = NULL;
 555:C:/Users/lenovo/Desktop/liteos/Project2/BearPi_LiteOS/components/connectivity/agent_tiny/atiny_lwm2m\object_security.c ****     int i = 0;
 556:C:/Users/lenovo/Desktop/liteos/Project2/BearPi_LiteOS/components/connectivity/agent_tiny/atiny_lwm2m\object_security.c ****     char *bsPskId = NULL;
 557:C:/Users/lenovo/Desktop/liteos/Project2/BearPi_LiteOS/components/connectivity/agent_tiny/atiny_lwm2m\object_security.c ****     char *psk = NULL;
 558:C:/Users/lenovo/Desktop/liteos/Project2/BearPi_LiteOS/components/connectivity/agent_tiny/atiny_lwm2m\object_security.c ****     uint16_t pskLen = 0;
 559:C:/Users/lenovo/Desktop/liteos/Project2/BearPi_LiteOS/components/connectivity/agent_tiny/atiny_lwm2m\object_security.c **** 
 560:C:/Users/lenovo/Desktop/liteos/Project2/BearPi_LiteOS/components/connectivity/agent_tiny/atiny_lwm2m\object_security.c ****     const uint8_t INS_IOT_SERVER_FLAG = 0x01;
 561:C:/Users/lenovo/Desktop/liteos/Project2/BearPi_LiteOS/components/connectivity/agent_tiny/atiny_lwm2m\object_security.c ****     const uint8_t INS_BS_SERVER_FLAG = 0x02;
 562:C:/Users/lenovo/Desktop/liteos/Project2/BearPi_LiteOS/components/connectivity/agent_tiny/atiny_lwm2m\object_security.c ****     uint8_t  ins_flag = 0x00;
 563:C:/Users/lenovo/Desktop/liteos/Project2/BearPi_LiteOS/components/connectivity/agent_tiny/atiny_lwm2m\object_security.c ****     uint8_t total_ins = 1;
 564:C:/Users/lenovo/Desktop/liteos/Project2/BearPi_LiteOS/components/connectivity/agent_tiny/atiny_lwm2m\object_security.c ****     uint8_t security_params_index = 0;
 565:C:/Users/lenovo/Desktop/liteos/Project2/BearPi_LiteOS/components/connectivity/agent_tiny/atiny_lwm2m\object_security.c **** 
 566:C:/Users/lenovo/Desktop/liteos/Project2/BearPi_LiteOS/components/connectivity/agent_tiny/atiny_lwm2m\object_security.c **** 
 567:C:/Users/lenovo/Desktop/liteos/Project2/BearPi_LiteOS/components/connectivity/agent_tiny/atiny_lwm2m\object_security.c ****     switch(atiny_params->server_params.bootstrap_mode)
 662              		.loc 1 567 0
 663 0006 0B7B     		ldrb	r3, [r1, #12]	@ zero_extendqisi2
 664 0008 012B     		cmp	r3, #1
 665 000a 2AD0     		beq	.L74
 666 000c 3BB1     		cbz	r3, .L58
 667 000e 022B     		cmp	r3, #2
 668 0010 19D0     		beq	.L59
 568:C:/Users/lenovo/Desktop/liteos/Project2/BearPi_LiteOS/components/connectivity/agent_tiny/atiny_lwm2m\object_security.c ****     {
 569:C:/Users/lenovo/Desktop/liteos/Project2/BearPi_LiteOS/components/connectivity/agent_tiny/atiny_lwm2m\object_security.c ****     case BOOTSTRAP_FACTORY:
 570:C:/Users/lenovo/Desktop/liteos/Project2/BearPi_LiteOS/components/connectivity/agent_tiny/atiny_lwm2m\object_security.c ****         ins_flag |= INS_IOT_SERVER_FLAG;
 571:C:/Users/lenovo/Desktop/liteos/Project2/BearPi_LiteOS/components/connectivity/agent_tiny/atiny_lwm2m\object_security.c ****         total_ins = 1;
 572:C:/Users/lenovo/Desktop/liteos/Project2/BearPi_LiteOS/components/connectivity/agent_tiny/atiny_lwm2m\object_security.c ****         break;
 573:C:/Users/lenovo/Desktop/liteos/Project2/BearPi_LiteOS/components/connectivity/agent_tiny/atiny_lwm2m\object_security.c ****     case BOOTSTRAP_SEQUENCE:
 574:C:/Users/lenovo/Desktop/liteos/Project2/BearPi_LiteOS/components/connectivity/agent_tiny/atiny_lwm2m\object_security.c ****         if ((atiny_params->security_params[0].server_ip != NULL) && (atiny_params->security_params[
 575:C:/Users/lenovo/Desktop/liteos/Project2/BearPi_LiteOS/components/connectivity/agent_tiny/atiny_lwm2m\object_security.c ****         {
 576:C:/Users/lenovo/Desktop/liteos/Project2/BearPi_LiteOS/components/connectivity/agent_tiny/atiny_lwm2m\object_security.c ****             ins_flag |= INS_IOT_SERVER_FLAG;
 577:C:/Users/lenovo/Desktop/liteos/Project2/BearPi_LiteOS/components/connectivity/agent_tiny/atiny_lwm2m\object_security.c ****             ins_flag |= INS_BS_SERVER_FLAG;
 578:C:/Users/lenovo/Desktop/liteos/Project2/BearPi_LiteOS/components/connectivity/agent_tiny/atiny_lwm2m\object_security.c **** 
 579:C:/Users/lenovo/Desktop/liteos/Project2/BearPi_LiteOS/components/connectivity/agent_tiny/atiny_lwm2m\object_security.c ****             total_ins = 2;
 580:C:/Users/lenovo/Desktop/liteos/Project2/BearPi_LiteOS/components/connectivity/agent_tiny/atiny_lwm2m\object_security.c ****         }
 581:C:/Users/lenovo/Desktop/liteos/Project2/BearPi_LiteOS/components/connectivity/agent_tiny/atiny_lwm2m\object_security.c ****         else
 582:C:/Users/lenovo/Desktop/liteos/Project2/BearPi_LiteOS/components/connectivity/agent_tiny/atiny_lwm2m\object_security.c ****         {
 583:C:/Users/lenovo/Desktop/liteos/Project2/BearPi_LiteOS/components/connectivity/agent_tiny/atiny_lwm2m\object_security.c ****             ins_flag |= INS_BS_SERVER_FLAG;
 584:C:/Users/lenovo/Desktop/liteos/Project2/BearPi_LiteOS/components/connectivity/agent_tiny/atiny_lwm2m\object_security.c ****             total_ins = 1;
 585:C:/Users/lenovo/Desktop/liteos/Project2/BearPi_LiteOS/components/connectivity/agent_tiny/atiny_lwm2m\object_security.c ****         }
 586:C:/Users/lenovo/Desktop/liteos/Project2/BearPi_LiteOS/components/connectivity/agent_tiny/atiny_lwm2m\object_security.c ****         break;
 587:C:/Users/lenovo/Desktop/liteos/Project2/BearPi_LiteOS/components/connectivity/agent_tiny/atiny_lwm2m\object_security.c ****     case BOOTSTRAP_CLIENT_INITIATED:
 588:C:/Users/lenovo/Desktop/liteos/Project2/BearPi_LiteOS/components/connectivity/agent_tiny/atiny_lwm2m\object_security.c ****         ins_flag |= INS_BS_SERVER_FLAG;
 589:C:/Users/lenovo/Desktop/liteos/Project2/BearPi_LiteOS/components/connectivity/agent_tiny/atiny_lwm2m\object_security.c ****         total_ins = 1;
 590:C:/Users/lenovo/Desktop/liteos/Project2/BearPi_LiteOS/components/connectivity/agent_tiny/atiny_lwm2m\object_security.c ****         break;
 591:C:/Users/lenovo/Desktop/liteos/Project2/BearPi_LiteOS/components/connectivity/agent_tiny/atiny_lwm2m\object_security.c ****     default:
 592:C:/Users/lenovo/Desktop/liteos/Project2/BearPi_LiteOS/components/connectivity/agent_tiny/atiny_lwm2m\object_security.c ****         return NULL;
 669              		.loc 1 592 0
 670 0012 4FF00008 		mov	r8, #0
 671              	.LVL103:
 672              	.L55:
 593:C:/Users/lenovo/Desktop/liteos/Project2/BearPi_LiteOS/components/connectivity/agent_tiny/atiny_lwm2m\object_security.c ****         //break;
 594:C:/Users/lenovo/Desktop/liteos/Project2/BearPi_LiteOS/components/connectivity/agent_tiny/atiny_lwm2m\object_security.c ****     }
 595:C:/Users/lenovo/Desktop/liteos/Project2/BearPi_LiteOS/components/connectivity/agent_tiny/atiny_lwm2m\object_security.c **** 
 596:C:/Users/lenovo/Desktop/liteos/Project2/BearPi_LiteOS/components/connectivity/agent_tiny/atiny_lwm2m\object_security.c ****     securityObj = (lwm2m_object_t *)lwm2m_malloc(sizeof(lwm2m_object_t));
 597:C:/Users/lenovo/Desktop/liteos/Project2/BearPi_LiteOS/components/connectivity/agent_tiny/atiny_lwm2m\object_security.c ****     if (NULL == securityObj)
ARM GAS  c:\Users\lenovo\AppData\Local\Temp\ccwlAmuu.s 			page 24


 598:C:/Users/lenovo/Desktop/liteos/Project2/BearPi_LiteOS/components/connectivity/agent_tiny/atiny_lwm2m\object_security.c ****     {
 599:C:/Users/lenovo/Desktop/liteos/Project2/BearPi_LiteOS/components/connectivity/agent_tiny/atiny_lwm2m\object_security.c ****         return NULL;
 600:C:/Users/lenovo/Desktop/liteos/Project2/BearPi_LiteOS/components/connectivity/agent_tiny/atiny_lwm2m\object_security.c ****     }
 601:C:/Users/lenovo/Desktop/liteos/Project2/BearPi_LiteOS/components/connectivity/agent_tiny/atiny_lwm2m\object_security.c **** 
 602:C:/Users/lenovo/Desktop/liteos/Project2/BearPi_LiteOS/components/connectivity/agent_tiny/atiny_lwm2m\object_security.c ****     memset(securityObj, 0, sizeof(lwm2m_object_t));
 603:C:/Users/lenovo/Desktop/liteos/Project2/BearPi_LiteOS/components/connectivity/agent_tiny/atiny_lwm2m\object_security.c ****     securityObj->objID = LWM2M_SECURITY_OBJECT_ID;
 604:C:/Users/lenovo/Desktop/liteos/Project2/BearPi_LiteOS/components/connectivity/agent_tiny/atiny_lwm2m\object_security.c **** 
 605:C:/Users/lenovo/Desktop/liteos/Project2/BearPi_LiteOS/components/connectivity/agent_tiny/atiny_lwm2m\object_security.c **** 
 606:C:/Users/lenovo/Desktop/liteos/Project2/BearPi_LiteOS/components/connectivity/agent_tiny/atiny_lwm2m\object_security.c ****     //at most, have two instance. in fact
 607:C:/Users/lenovo/Desktop/liteos/Project2/BearPi_LiteOS/components/connectivity/agent_tiny/atiny_lwm2m\object_security.c ****     for(i = 0; i < total_ins; i++)
 608:C:/Users/lenovo/Desktop/liteos/Project2/BearPi_LiteOS/components/connectivity/agent_tiny/atiny_lwm2m\object_security.c ****     {
 609:C:/Users/lenovo/Desktop/liteos/Project2/BearPi_LiteOS/components/connectivity/agent_tiny/atiny_lwm2m\object_security.c ****         //Manually create an hardcoded instance
 610:C:/Users/lenovo/Desktop/liteos/Project2/BearPi_LiteOS/components/connectivity/agent_tiny/atiny_lwm2m\object_security.c ****         targetP = (security_instance_t *)lwm2m_malloc(sizeof(security_instance_t));
 611:C:/Users/lenovo/Desktop/liteos/Project2/BearPi_LiteOS/components/connectivity/agent_tiny/atiny_lwm2m\object_security.c ****         if (NULL == targetP)
 612:C:/Users/lenovo/Desktop/liteos/Project2/BearPi_LiteOS/components/connectivity/agent_tiny/atiny_lwm2m\object_security.c ****         {
 613:C:/Users/lenovo/Desktop/liteos/Project2/BearPi_LiteOS/components/connectivity/agent_tiny/atiny_lwm2m\object_security.c ****             //lwm2m_free(securityObj);
 614:C:/Users/lenovo/Desktop/liteos/Project2/BearPi_LiteOS/components/connectivity/agent_tiny/atiny_lwm2m\object_security.c ****             clean_security_object(securityObj);
 615:C:/Users/lenovo/Desktop/liteos/Project2/BearPi_LiteOS/components/connectivity/agent_tiny/atiny_lwm2m\object_security.c ****             return NULL;
 616:C:/Users/lenovo/Desktop/liteos/Project2/BearPi_LiteOS/components/connectivity/agent_tiny/atiny_lwm2m\object_security.c ****         }
 617:C:/Users/lenovo/Desktop/liteos/Project2/BearPi_LiteOS/components/connectivity/agent_tiny/atiny_lwm2m\object_security.c **** 
 618:C:/Users/lenovo/Desktop/liteos/Project2/BearPi_LiteOS/components/connectivity/agent_tiny/atiny_lwm2m\object_security.c ****         memset(targetP, 0, sizeof(security_instance_t));
 619:C:/Users/lenovo/Desktop/liteos/Project2/BearPi_LiteOS/components/connectivity/agent_tiny/atiny_lwm2m\object_security.c ****         if((ins_flag & INS_IOT_SERVER_FLAG) && (ins_flag & INS_BS_SERVER_FLAG))
 620:C:/Users/lenovo/Desktop/liteos/Project2/BearPi_LiteOS/components/connectivity/agent_tiny/atiny_lwm2m\object_security.c ****         {
 621:C:/Users/lenovo/Desktop/liteos/Project2/BearPi_LiteOS/components/connectivity/agent_tiny/atiny_lwm2m\object_security.c ****             targetP->instanceId = i;   //i=0 for iot_server, i=1 for bs_server
 622:C:/Users/lenovo/Desktop/liteos/Project2/BearPi_LiteOS/components/connectivity/agent_tiny/atiny_lwm2m\object_security.c ****             targetP->isBootstrap = ((i == 0) ? (false) : (true));
 623:C:/Users/lenovo/Desktop/liteos/Project2/BearPi_LiteOS/components/connectivity/agent_tiny/atiny_lwm2m\object_security.c ****             security_params_index = i;
 624:C:/Users/lenovo/Desktop/liteos/Project2/BearPi_LiteOS/components/connectivity/agent_tiny/atiny_lwm2m\object_security.c ****         }
 625:C:/Users/lenovo/Desktop/liteos/Project2/BearPi_LiteOS/components/connectivity/agent_tiny/atiny_lwm2m\object_security.c ****         else
 626:C:/Users/lenovo/Desktop/liteos/Project2/BearPi_LiteOS/components/connectivity/agent_tiny/atiny_lwm2m\object_security.c ****         {
 627:C:/Users/lenovo/Desktop/liteos/Project2/BearPi_LiteOS/components/connectivity/agent_tiny/atiny_lwm2m\object_security.c ****             if(ins_flag & INS_IOT_SERVER_FLAG)
 628:C:/Users/lenovo/Desktop/liteos/Project2/BearPi_LiteOS/components/connectivity/agent_tiny/atiny_lwm2m\object_security.c ****             {
 629:C:/Users/lenovo/Desktop/liteos/Project2/BearPi_LiteOS/components/connectivity/agent_tiny/atiny_lwm2m\object_security.c ****                 targetP->instanceId = 0;
 630:C:/Users/lenovo/Desktop/liteos/Project2/BearPi_LiteOS/components/connectivity/agent_tiny/atiny_lwm2m\object_security.c ****                 targetP->isBootstrap = false;
 631:C:/Users/lenovo/Desktop/liteos/Project2/BearPi_LiteOS/components/connectivity/agent_tiny/atiny_lwm2m\object_security.c ****                 security_params_index = 0;
 632:C:/Users/lenovo/Desktop/liteos/Project2/BearPi_LiteOS/components/connectivity/agent_tiny/atiny_lwm2m\object_security.c ****             }
 633:C:/Users/lenovo/Desktop/liteos/Project2/BearPi_LiteOS/components/connectivity/agent_tiny/atiny_lwm2m\object_security.c ****             else  //if(ins_flag & INS_BS_SERVER_FLAG)  //even if not set INS_BS_SERVER_FLAG, still 
 634:C:/Users/lenovo/Desktop/liteos/Project2/BearPi_LiteOS/components/connectivity/agent_tiny/atiny_lwm2m\object_security.c ****             {
 635:C:/Users/lenovo/Desktop/liteos/Project2/BearPi_LiteOS/components/connectivity/agent_tiny/atiny_lwm2m\object_security.c ****                 targetP->instanceId = 1;
 636:C:/Users/lenovo/Desktop/liteos/Project2/BearPi_LiteOS/components/connectivity/agent_tiny/atiny_lwm2m\object_security.c ****                 targetP->isBootstrap = true;
 637:C:/Users/lenovo/Desktop/liteos/Project2/BearPi_LiteOS/components/connectivity/agent_tiny/atiny_lwm2m\object_security.c ****                 security_params_index = 1;
 638:C:/Users/lenovo/Desktop/liteos/Project2/BearPi_LiteOS/components/connectivity/agent_tiny/atiny_lwm2m\object_security.c ****             }
 639:C:/Users/lenovo/Desktop/liteos/Project2/BearPi_LiteOS/components/connectivity/agent_tiny/atiny_lwm2m\object_security.c ****         }
 640:C:/Users/lenovo/Desktop/liteos/Project2/BearPi_LiteOS/components/connectivity/agent_tiny/atiny_lwm2m\object_security.c ****         // After instance id is initialized
 641:C:/Users/lenovo/Desktop/liteos/Project2/BearPi_LiteOS/components/connectivity/agent_tiny/atiny_lwm2m\object_security.c ****         securityObj->instanceList = LWM2M_LIST_ADD(securityObj->instanceList, targetP);
 642:C:/Users/lenovo/Desktop/liteos/Project2/BearPi_LiteOS/components/connectivity/agent_tiny/atiny_lwm2m\object_security.c **** 
 643:C:/Users/lenovo/Desktop/liteos/Project2/BearPi_LiteOS/components/connectivity/agent_tiny/atiny_lwm2m\object_security.c ****         bsPskId = atiny_params->security_params[security_params_index].psk_Id;
 644:C:/Users/lenovo/Desktop/liteos/Project2/BearPi_LiteOS/components/connectivity/agent_tiny/atiny_lwm2m\object_security.c ****         psk = atiny_params->security_params[security_params_index].psk;
 645:C:/Users/lenovo/Desktop/liteos/Project2/BearPi_LiteOS/components/connectivity/agent_tiny/atiny_lwm2m\object_security.c ****         pskLen = atiny_params->security_params[security_params_index].psk_len;
 646:C:/Users/lenovo/Desktop/liteos/Project2/BearPi_LiteOS/components/connectivity/agent_tiny/atiny_lwm2m\object_security.c **** 
 647:C:/Users/lenovo/Desktop/liteos/Project2/BearPi_LiteOS/components/connectivity/agent_tiny/atiny_lwm2m\object_security.c **** 
 648:C:/Users/lenovo/Desktop/liteos/Project2/BearPi_LiteOS/components/connectivity/agent_tiny/atiny_lwm2m\object_security.c ****         if (atiny_params->security_params[security_params_index].server_ip && atiny_params->securit
 649:C:/Users/lenovo/Desktop/liteos/Project2/BearPi_LiteOS/components/connectivity/agent_tiny/atiny_lwm2m\object_security.c ****         {
 650:C:/Users/lenovo/Desktop/liteos/Project2/BearPi_LiteOS/components/connectivity/agent_tiny/atiny_lwm2m\object_security.c ****             if (psk != NULL)
 651:C:/Users/lenovo/Desktop/liteos/Project2/BearPi_LiteOS/components/connectivity/agent_tiny/atiny_lwm2m\object_security.c ****             {
 652:C:/Users/lenovo/Desktop/liteos/Project2/BearPi_LiteOS/components/connectivity/agent_tiny/atiny_lwm2m\object_security.c ****                 (void)atiny_snprintf(serverUri, URI_MAX_LEN, "coaps://%s:%s", atiny_params->securit
 653:C:/Users/lenovo/Desktop/liteos/Project2/BearPi_LiteOS/components/connectivity/agent_tiny/atiny_lwm2m\object_security.c ****                                      atiny_params->security_params[security_params_index].server_po
 654:C:/Users/lenovo/Desktop/liteos/Project2/BearPi_LiteOS/components/connectivity/agent_tiny/atiny_lwm2m\object_security.c ****             }
ARM GAS  c:\Users\lenovo\AppData\Local\Temp\ccwlAmuu.s 			page 25


 655:C:/Users/lenovo/Desktop/liteos/Project2/BearPi_LiteOS/components/connectivity/agent_tiny/atiny_lwm2m\object_security.c ****             else
 656:C:/Users/lenovo/Desktop/liteos/Project2/BearPi_LiteOS/components/connectivity/agent_tiny/atiny_lwm2m\object_security.c ****             {
 657:C:/Users/lenovo/Desktop/liteos/Project2/BearPi_LiteOS/components/connectivity/agent_tiny/atiny_lwm2m\object_security.c ****                 (void)atiny_snprintf(serverUri, URI_MAX_LEN, "coap://%s:%s", atiny_params->security
 658:C:/Users/lenovo/Desktop/liteos/Project2/BearPi_LiteOS/components/connectivity/agent_tiny/atiny_lwm2m\object_security.c ****                                      atiny_params->security_params[security_params_index].server_po
 659:C:/Users/lenovo/Desktop/liteos/Project2/BearPi_LiteOS/components/connectivity/agent_tiny/atiny_lwm2m\object_security.c ****             }
 660:C:/Users/lenovo/Desktop/liteos/Project2/BearPi_LiteOS/components/connectivity/agent_tiny/atiny_lwm2m\object_security.c ****         }
 661:C:/Users/lenovo/Desktop/liteos/Project2/BearPi_LiteOS/components/connectivity/agent_tiny/atiny_lwm2m\object_security.c ****         else
 662:C:/Users/lenovo/Desktop/liteos/Project2/BearPi_LiteOS/components/connectivity/agent_tiny/atiny_lwm2m\object_security.c ****         {
 663:C:/Users/lenovo/Desktop/liteos/Project2/BearPi_LiteOS/components/connectivity/agent_tiny/atiny_lwm2m\object_security.c ****             serverUri[0] = '\0';
 664:C:/Users/lenovo/Desktop/liteos/Project2/BearPi_LiteOS/components/connectivity/agent_tiny/atiny_lwm2m\object_security.c ****         }
 665:C:/Users/lenovo/Desktop/liteos/Project2/BearPi_LiteOS/components/connectivity/agent_tiny/atiny_lwm2m\object_security.c **** 
 666:C:/Users/lenovo/Desktop/liteos/Project2/BearPi_LiteOS/components/connectivity/agent_tiny/atiny_lwm2m\object_security.c ****         targetP->uri = (char *)lwm2m_strdup(serverUri);
 667:C:/Users/lenovo/Desktop/liteos/Project2/BearPi_LiteOS/components/connectivity/agent_tiny/atiny_lwm2m\object_security.c ****         if (NULL == targetP->uri)
 668:C:/Users/lenovo/Desktop/liteos/Project2/BearPi_LiteOS/components/connectivity/agent_tiny/atiny_lwm2m\object_security.c ****         {
 669:C:/Users/lenovo/Desktop/liteos/Project2/BearPi_LiteOS/components/connectivity/agent_tiny/atiny_lwm2m\object_security.c ****             //lwm2m_free(securityObj);
 670:C:/Users/lenovo/Desktop/liteos/Project2/BearPi_LiteOS/components/connectivity/agent_tiny/atiny_lwm2m\object_security.c ****             //lwm2m_free(targetP);
 671:C:/Users/lenovo/Desktop/liteos/Project2/BearPi_LiteOS/components/connectivity/agent_tiny/atiny_lwm2m\object_security.c ****             clean_security_object(securityObj);
 672:C:/Users/lenovo/Desktop/liteos/Project2/BearPi_LiteOS/components/connectivity/agent_tiny/atiny_lwm2m\object_security.c ****             return NULL;
 673:C:/Users/lenovo/Desktop/liteos/Project2/BearPi_LiteOS/components/connectivity/agent_tiny/atiny_lwm2m\object_security.c ****         }
 674:C:/Users/lenovo/Desktop/liteos/Project2/BearPi_LiteOS/components/connectivity/agent_tiny/atiny_lwm2m\object_security.c **** 
 675:C:/Users/lenovo/Desktop/liteos/Project2/BearPi_LiteOS/components/connectivity/agent_tiny/atiny_lwm2m\object_security.c ****         targetP->securityMode = LWM2M_SECURITY_MODE_NONE;
 676:C:/Users/lenovo/Desktop/liteos/Project2/BearPi_LiteOS/components/connectivity/agent_tiny/atiny_lwm2m\object_security.c ****         if (bsPskId != NULL && psk != NULL)
 677:C:/Users/lenovo/Desktop/liteos/Project2/BearPi_LiteOS/components/connectivity/agent_tiny/atiny_lwm2m\object_security.c ****         {
 678:C:/Users/lenovo/Desktop/liteos/Project2/BearPi_LiteOS/components/connectivity/agent_tiny/atiny_lwm2m\object_security.c ****             targetP->securityMode = LWM2M_SECURITY_MODE_PRE_SHARED_KEY;
 679:C:/Users/lenovo/Desktop/liteos/Project2/BearPi_LiteOS/components/connectivity/agent_tiny/atiny_lwm2m\object_security.c ****             targetP->publicIdentity = (char *)lwm2m_strdup(bsPskId);
 680:C:/Users/lenovo/Desktop/liteos/Project2/BearPi_LiteOS/components/connectivity/agent_tiny/atiny_lwm2m\object_security.c ****             if(targetP->publicIdentity == NULL)
 681:C:/Users/lenovo/Desktop/liteos/Project2/BearPi_LiteOS/components/connectivity/agent_tiny/atiny_lwm2m\object_security.c ****             {
 682:C:/Users/lenovo/Desktop/liteos/Project2/BearPi_LiteOS/components/connectivity/agent_tiny/atiny_lwm2m\object_security.c ****                 clean_security_object(securityObj);
 683:C:/Users/lenovo/Desktop/liteos/Project2/BearPi_LiteOS/components/connectivity/agent_tiny/atiny_lwm2m\object_security.c ****                 return NULL;
 684:C:/Users/lenovo/Desktop/liteos/Project2/BearPi_LiteOS/components/connectivity/agent_tiny/atiny_lwm2m\object_security.c ****             }
 685:C:/Users/lenovo/Desktop/liteos/Project2/BearPi_LiteOS/components/connectivity/agent_tiny/atiny_lwm2m\object_security.c ****             targetP->publicIdLen = strlen(bsPskId);
 686:C:/Users/lenovo/Desktop/liteos/Project2/BearPi_LiteOS/components/connectivity/agent_tiny/atiny_lwm2m\object_security.c ****             if (pskLen > 0)
 687:C:/Users/lenovo/Desktop/liteos/Project2/BearPi_LiteOS/components/connectivity/agent_tiny/atiny_lwm2m\object_security.c ****             {
 688:C:/Users/lenovo/Desktop/liteos/Project2/BearPi_LiteOS/components/connectivity/agent_tiny/atiny_lwm2m\object_security.c ****                 targetP->secretKey = (char *)lwm2m_malloc(pskLen);
 689:C:/Users/lenovo/Desktop/liteos/Project2/BearPi_LiteOS/components/connectivity/agent_tiny/atiny_lwm2m\object_security.c ****                 if (targetP->secretKey == NULL)
 690:C:/Users/lenovo/Desktop/liteos/Project2/BearPi_LiteOS/components/connectivity/agent_tiny/atiny_lwm2m\object_security.c ****                 {
 691:C:/Users/lenovo/Desktop/liteos/Project2/BearPi_LiteOS/components/connectivity/agent_tiny/atiny_lwm2m\object_security.c ****                     clean_security_object(securityObj);
 692:C:/Users/lenovo/Desktop/liteos/Project2/BearPi_LiteOS/components/connectivity/agent_tiny/atiny_lwm2m\object_security.c ****                     return NULL;
 693:C:/Users/lenovo/Desktop/liteos/Project2/BearPi_LiteOS/components/connectivity/agent_tiny/atiny_lwm2m\object_security.c ****                 }
 694:C:/Users/lenovo/Desktop/liteos/Project2/BearPi_LiteOS/components/connectivity/agent_tiny/atiny_lwm2m\object_security.c ****                 memcpy(targetP->secretKey, psk, pskLen);
 695:C:/Users/lenovo/Desktop/liteos/Project2/BearPi_LiteOS/components/connectivity/agent_tiny/atiny_lwm2m\object_security.c ****                 targetP->secretKeyLen = pskLen;
 696:C:/Users/lenovo/Desktop/liteos/Project2/BearPi_LiteOS/components/connectivity/agent_tiny/atiny_lwm2m\object_security.c ****             }
 697:C:/Users/lenovo/Desktop/liteos/Project2/BearPi_LiteOS/components/connectivity/agent_tiny/atiny_lwm2m\object_security.c ****         }
 698:C:/Users/lenovo/Desktop/liteos/Project2/BearPi_LiteOS/components/connectivity/agent_tiny/atiny_lwm2m\object_security.c **** 
 699:C:/Users/lenovo/Desktop/liteos/Project2/BearPi_LiteOS/components/connectivity/agent_tiny/atiny_lwm2m\object_security.c ****         targetP->shortID = serverId;
 700:C:/Users/lenovo/Desktop/liteos/Project2/BearPi_LiteOS/components/connectivity/agent_tiny/atiny_lwm2m\object_security.c ****         //10? is suitable? it could be changed by the bs server. for lwm2m_server_t member lifetime
 701:C:/Users/lenovo/Desktop/liteos/Project2/BearPi_LiteOS/components/connectivity/agent_tiny/atiny_lwm2m\object_security.c ****         targetP->clientHoldOffTime = atiny_params->server_params.hold_off_time;
 702:C:/Users/lenovo/Desktop/liteos/Project2/BearPi_LiteOS/components/connectivity/agent_tiny/atiny_lwm2m\object_security.c ****     } //end for loop
 703:C:/Users/lenovo/Desktop/liteos/Project2/BearPi_LiteOS/components/connectivity/agent_tiny/atiny_lwm2m\object_security.c **** 
 704:C:/Users/lenovo/Desktop/liteos/Project2/BearPi_LiteOS/components/connectivity/agent_tiny/atiny_lwm2m\object_security.c **** 
 705:C:/Users/lenovo/Desktop/liteos/Project2/BearPi_LiteOS/components/connectivity/agent_tiny/atiny_lwm2m\object_security.c ****     securityObj->readFunc = prv_security_read;
 706:C:/Users/lenovo/Desktop/liteos/Project2/BearPi_LiteOS/components/connectivity/agent_tiny/atiny_lwm2m\object_security.c **** #ifdef LWM2M_BOOTSTRAP
 707:C:/Users/lenovo/Desktop/liteos/Project2/BearPi_LiteOS/components/connectivity/agent_tiny/atiny_lwm2m\object_security.c ****     securityObj->writeFunc = prv_security_write;
 708:C:/Users/lenovo/Desktop/liteos/Project2/BearPi_LiteOS/components/connectivity/agent_tiny/atiny_lwm2m\object_security.c ****     securityObj->createFunc = prv_security_create;
 709:C:/Users/lenovo/Desktop/liteos/Project2/BearPi_LiteOS/components/connectivity/agent_tiny/atiny_lwm2m\object_security.c ****     securityObj->deleteFunc = prv_security_delete;
 710:C:/Users/lenovo/Desktop/liteos/Project2/BearPi_LiteOS/components/connectivity/agent_tiny/atiny_lwm2m\object_security.c **** #endif
 711:C:/Users/lenovo/Desktop/liteos/Project2/BearPi_LiteOS/components/connectivity/agent_tiny/atiny_lwm2m\object_security.c **** 
ARM GAS  c:\Users\lenovo\AppData\Local\Temp\ccwlAmuu.s 			page 26


 712:C:/Users/lenovo/Desktop/liteos/Project2/BearPi_LiteOS/components/connectivity/agent_tiny/atiny_lwm2m\object_security.c ****     return securityObj;
 713:C:/Users/lenovo/Desktop/liteos/Project2/BearPi_LiteOS/components/connectivity/agent_tiny/atiny_lwm2m\object_security.c **** }
 673              		.loc 1 713 0
 674 0016 4046     		mov	r0, r8
 675 0018 17B0     		add	sp, sp, #92
 676              	.LCFI9:
 677              		.cfi_remember_state
 678              		.cfi_def_cfa_offset 36
 679              		@ sp needed
 680 001a BDE8F08F 		pop	{r4, r5, r6, r7, r8, r9, r10, fp, pc}
 681              	.LVL104:
 682              	.L58:
 683              	.LCFI10:
 684              		.cfi_restore_state
 571:C:/Users/lenovo/Desktop/liteos/Project2/BearPi_LiteOS/components/connectivity/agent_tiny/atiny_lwm2m\object_security.c ****         break;
 685              		.loc 1 571 0
 686 001e 0123     		movs	r3, #1
 687 0020 0493     		str	r3, [sp, #16]
 570:C:/Users/lenovo/Desktop/liteos/Project2/BearPi_LiteOS/components/connectivity/agent_tiny/atiny_lwm2m\object_security.c ****         total_ins = 1;
 688              		.loc 1 570 0
 689 0022 9B46     		mov	fp, r3
 690              	.L57:
 691 0024 0F46     		mov	r7, r1
 692 0026 0590     		str	r0, [sp, #20]
 693              	.LVL105:
 596:C:/Users/lenovo/Desktop/liteos/Project2/BearPi_LiteOS/components/connectivity/agent_tiny/atiny_lwm2m\object_security.c ****     if (NULL == securityObj)
 694              		.loc 1 596 0
 695 0028 2C20     		movs	r0, #44
 696              	.LVL106:
 697 002a FFF7FEFF 		bl	lwm2m_malloc
 698              	.LVL107:
 597:C:/Users/lenovo/Desktop/liteos/Project2/BearPi_LiteOS/components/connectivity/agent_tiny/atiny_lwm2m\object_security.c ****     {
 699              		.loc 1 597 0
 700 002e 8046     		mov	r8, r0
 701 0030 0028     		cmp	r0, #0
 702 0032 F0D0     		beq	.L55
 602:C:/Users/lenovo/Desktop/liteos/Project2/BearPi_LiteOS/components/connectivity/agent_tiny/atiny_lwm2m\object_security.c ****     securityObj->objID = LWM2M_SECURITY_OBJECT_ID;
 703              		.loc 1 602 0
 704 0034 2C22     		movs	r2, #44
 705 0036 0021     		movs	r1, #0
 706 0038 FFF7FEFF 		bl	memset
 707              	.LVL108:
 603:C:/Users/lenovo/Desktop/liteos/Project2/BearPi_LiteOS/components/connectivity/agent_tiny/atiny_lwm2m\object_security.c **** 
 708              		.loc 1 603 0
 709 003c 0026     		movs	r6, #0
 710 003e A8F80460 		strh	r6, [r8, #4]	@ movhi
 711 0042 B946     		mov	r9, r7
 607:C:/Users/lenovo/Desktop/liteos/Project2/BearPi_LiteOS/components/connectivity/agent_tiny/atiny_lwm2m\object_security.c ****     {
 712              		.loc 1 607 0
 713 0044 71E0     		b	.L60
 714              	.LVL109:
 715              	.L59:
 574:C:/Users/lenovo/Desktop/liteos/Project2/BearPi_LiteOS/components/connectivity/agent_tiny/atiny_lwm2m\object_security.c ****         {
 716              		.loc 1 574 0
 717 0046 4B69     		ldr	r3, [r1, #20]
 718 0048 83B1     		cbz	r3, .L75
 574:C:/Users/lenovo/Desktop/liteos/Project2/BearPi_LiteOS/components/connectivity/agent_tiny/atiny_lwm2m\object_security.c ****         {
ARM GAS  c:\Users\lenovo\AppData\Local\Temp\ccwlAmuu.s 			page 27


 719              		.loc 1 574 0 is_stmt 0 discriminator 1
 720 004a 8B69     		ldr	r3, [r1, #24]
 721 004c 23B1     		cbz	r3, .L79
 579:C:/Users/lenovo/Desktop/liteos/Project2/BearPi_LiteOS/components/connectivity/agent_tiny/atiny_lwm2m\object_security.c ****         }
 722              		.loc 1 579 0 is_stmt 1
 723 004e 0223     		movs	r3, #2
 724 0050 0493     		str	r3, [sp, #16]
 577:C:/Users/lenovo/Desktop/liteos/Project2/BearPi_LiteOS/components/connectivity/agent_tiny/atiny_lwm2m\object_security.c **** 
 725              		.loc 1 577 0
 726 0052 4FF0030B 		mov	fp, #3
 727 0056 E5E7     		b	.L57
 728              	.L79:
 584:C:/Users/lenovo/Desktop/liteos/Project2/BearPi_LiteOS/components/connectivity/agent_tiny/atiny_lwm2m\object_security.c ****         }
 729              		.loc 1 584 0
 730 0058 0123     		movs	r3, #1
 731 005a 0493     		str	r3, [sp, #16]
 583:C:/Users/lenovo/Desktop/liteos/Project2/BearPi_LiteOS/components/connectivity/agent_tiny/atiny_lwm2m\object_security.c ****             total_ins = 1;
 732              		.loc 1 583 0
 733 005c 4FF0020B 		mov	fp, #2
 734 0060 E0E7     		b	.L57
 735              	.L74:
 589:C:/Users/lenovo/Desktop/liteos/Project2/BearPi_LiteOS/components/connectivity/agent_tiny/atiny_lwm2m\object_security.c ****         break;
 736              		.loc 1 589 0
 737 0062 0123     		movs	r3, #1
 738 0064 0493     		str	r3, [sp, #16]
 588:C:/Users/lenovo/Desktop/liteos/Project2/BearPi_LiteOS/components/connectivity/agent_tiny/atiny_lwm2m\object_security.c ****         total_ins = 1;
 739              		.loc 1 588 0
 740 0066 4FF0020B 		mov	fp, #2
 741 006a DBE7     		b	.L57
 742              	.L75:
 584:C:/Users/lenovo/Desktop/liteos/Project2/BearPi_LiteOS/components/connectivity/agent_tiny/atiny_lwm2m\object_security.c ****         }
 743              		.loc 1 584 0
 744 006c 0123     		movs	r3, #1
 745 006e 0493     		str	r3, [sp, #16]
 583:C:/Users/lenovo/Desktop/liteos/Project2/BearPi_LiteOS/components/connectivity/agent_tiny/atiny_lwm2m\object_security.c ****             total_ins = 1;
 746              		.loc 1 583 0
 747 0070 4FF0020B 		mov	fp, #2
 748 0074 D6E7     		b	.L57
 749              	.LVL110:
 750              	.L84:
 614:C:/Users/lenovo/Desktop/liteos/Project2/BearPi_LiteOS/components/connectivity/agent_tiny/atiny_lwm2m\object_security.c ****             return NULL;
 751              		.loc 1 614 0
 752 0076 4046     		mov	r0, r8
 753              	.LVL111:
 754 0078 FFF7FEFF 		bl	clean_security_object
 755              	.LVL112:
 615:C:/Users/lenovo/Desktop/liteos/Project2/BearPi_LiteOS/components/connectivity/agent_tiny/atiny_lwm2m\object_security.c ****         }
 756              		.loc 1 615 0
 757 007c 4FF00008 		mov	r8, #0
 758              	.LVL113:
 759 0080 C9E7     		b	.L55
 760              	.LVL114:
 761              	.L85:
 621:C:/Users/lenovo/Desktop/liteos/Project2/BearPi_LiteOS/components/connectivity/agent_tiny/atiny_lwm2m\object_security.c ****             targetP->isBootstrap = ((i == 0) ? (false) : (true));
 762              		.loc 1 621 0
 763 0082 A680     		strh	r6, [r4, #4]	@ movhi
 622:C:/Users/lenovo/Desktop/liteos/Project2/BearPi_LiteOS/components/connectivity/agent_tiny/atiny_lwm2m\object_security.c ****             security_params_index = i;
ARM GAS  c:\Users\lenovo\AppData\Local\Temp\ccwlAmuu.s 			page 28


 764              		.loc 1 622 0
 765 0084 331C     		adds	r3, r6, #0
 766 0086 18BF     		it	ne
 767 0088 0123     		movne	r3, #1
 768 008a 2373     		strb	r3, [r4, #12]
 623:C:/Users/lenovo/Desktop/liteos/Project2/BearPi_LiteOS/components/connectivity/agent_tiny/atiny_lwm2m\object_security.c ****         }
 769              		.loc 1 623 0
 770 008c F5B2     		uxtb	r5, r6
 771              	.LVL115:
 772              	.L63:
 641:C:/Users/lenovo/Desktop/liteos/Project2/BearPi_LiteOS/components/connectivity/agent_tiny/atiny_lwm2m\object_security.c **** 
 773              		.loc 1 641 0
 774 008e 2146     		mov	r1, r4
 775 0090 D8F80800 		ldr	r0, [r8, #8]
 776 0094 FFF7FEFF 		bl	lwm2m_list_add
 777              	.LVL116:
 778 0098 C8F80800 		str	r0, [r8, #8]
 643:C:/Users/lenovo/Desktop/liteos/Project2/BearPi_LiteOS/components/connectivity/agent_tiny/atiny_lwm2m\object_security.c ****         psk = atiny_params->security_params[security_params_index].psk;
 779              		.loc 1 643 0
 780 009c AA00     		lsls	r2, r5, #2
 781 009e 2A44     		add	r2, r2, r5
 782 00a0 9300     		lsls	r3, r2, #2
 783 00a2 4B44     		add	r3, r3, r9
 784 00a4 DF69     		ldr	r7, [r3, #28]
 785              	.LVL117:
 644:C:/Users/lenovo/Desktop/liteos/Project2/BearPi_LiteOS/components/connectivity/agent_tiny/atiny_lwm2m\object_security.c ****         pskLen = atiny_params->security_params[security_params_index].psk_len;
 786              		.loc 1 644 0
 787 00a6 D3F820A0 		ldr	r10, [r3, #32]
 788              	.LVL118:
 645:C:/Users/lenovo/Desktop/liteos/Project2/BearPi_LiteOS/components/connectivity/agent_tiny/atiny_lwm2m\object_security.c **** 
 789              		.loc 1 645 0
 790 00aa 9A8C     		ldrh	r2, [r3, #36]
 791 00ac 0392     		str	r2, [sp, #12]
 792              	.LVL119:
 648:C:/Users/lenovo/Desktop/liteos/Project2/BearPi_LiteOS/components/connectivity/agent_tiny/atiny_lwm2m\object_security.c ****         {
 793              		.loc 1 648 0
 794 00ae 5B69     		ldr	r3, [r3, #20]
 795 00b0 D3B1     		cbz	r3, .L65
 648:C:/Users/lenovo/Desktop/liteos/Project2/BearPi_LiteOS/components/connectivity/agent_tiny/atiny_lwm2m\object_security.c ****         {
 796              		.loc 1 648 0 is_stmt 0 discriminator 1
 797 00b2 05EB8505 		add	r5, r5, r5, lsl #2
 798              	.LVL120:
 799 00b6 AA00     		lsls	r2, r5, #2
 800 00b8 4A44     		add	r2, r2, r9
 801 00ba 9269     		ldr	r2, [r2, #24]
 802 00bc A2B1     		cbz	r2, .L65
 650:C:/Users/lenovo/Desktop/liteos/Project2/BearPi_LiteOS/components/connectivity/agent_tiny/atiny_lwm2m\object_security.c ****             {
 803              		.loc 1 650 0 is_stmt 1
 804 00be BAF1000F 		cmp	r10, #0
 805 00c2 0AD0     		beq	.L66
 652:C:/Users/lenovo/Desktop/liteos/Project2/BearPi_LiteOS/components/connectivity/agent_tiny/atiny_lwm2m\object_security.c ****                                      atiny_params->security_params[security_params_index].server_po
 806              		.loc 1 652 0
 807 00c4 0092     		str	r2, [sp]
 808 00c6 354A     		ldr	r2, .L87
 809 00c8 4021     		movs	r1, #64
 810 00ca 06A8     		add	r0, sp, #24
 811 00cc FFF7FEFF 		bl	atiny_snprintf
ARM GAS  c:\Users\lenovo\AppData\Local\Temp\ccwlAmuu.s 			page 29


 812              	.LVL121:
 813 00d0 0DE0     		b	.L67
 814              	.LVL122:
 815              	.L64:
 635:C:/Users/lenovo/Desktop/liteos/Project2/BearPi_LiteOS/components/connectivity/agent_tiny/atiny_lwm2m\object_security.c ****                 targetP->isBootstrap = true;
 816              		.loc 1 635 0
 817 00d2 0125     		movs	r5, #1
 818 00d4 A580     		strh	r5, [r4, #4]	@ movhi
 636:C:/Users/lenovo/Desktop/liteos/Project2/BearPi_LiteOS/components/connectivity/agent_tiny/atiny_lwm2m\object_security.c ****                 security_params_index = 1;
 819              		.loc 1 636 0
 820 00d6 2573     		strb	r5, [r4, #12]
 821              	.LVL123:
 822 00d8 D9E7     		b	.L63
 823              	.LVL124:
 824              	.L66:
 657:C:/Users/lenovo/Desktop/liteos/Project2/BearPi_LiteOS/components/connectivity/agent_tiny/atiny_lwm2m\object_security.c ****                                      atiny_params->security_params[security_params_index].server_po
 825              		.loc 1 657 0
 826 00da 0092     		str	r2, [sp]
 827 00dc 304A     		ldr	r2, .L87+4
 828 00de 4021     		movs	r1, #64
 829 00e0 06A8     		add	r0, sp, #24
 830 00e2 FFF7FEFF 		bl	atiny_snprintf
 831              	.LVL125:
 832 00e6 02E0     		b	.L67
 833              	.L65:
 663:C:/Users/lenovo/Desktop/liteos/Project2/BearPi_LiteOS/components/connectivity/agent_tiny/atiny_lwm2m\object_security.c ****         }
 834              		.loc 1 663 0
 835 00e8 0023     		movs	r3, #0
 836 00ea 8DF81830 		strb	r3, [sp, #24]
 837              	.L67:
 666:C:/Users/lenovo/Desktop/liteos/Project2/BearPi_LiteOS/components/connectivity/agent_tiny/atiny_lwm2m\object_security.c ****         if (NULL == targetP->uri)
 838              		.loc 1 666 0
 839 00ee 06A8     		add	r0, sp, #24
 840 00f0 FFF7FEFF 		bl	lwm2m_strdup
 841              	.LVL126:
 842 00f4 A060     		str	r0, [r4, #8]
 667:C:/Users/lenovo/Desktop/liteos/Project2/BearPi_LiteOS/components/connectivity/agent_tiny/atiny_lwm2m\object_security.c ****         {
 843              		.loc 1 667 0
 844 00f6 78B3     		cbz	r0, .L80
 675:C:/Users/lenovo/Desktop/liteos/Project2/BearPi_LiteOS/components/connectivity/agent_tiny/atiny_lwm2m\object_security.c ****         if (bsPskId != NULL && psk != NULL)
 845              		.loc 1 675 0
 846 00f8 0323     		movs	r3, #3
 847 00fa 6373     		strb	r3, [r4, #13]
 676:C:/Users/lenovo/Desktop/liteos/Project2/BearPi_LiteOS/components/connectivity/agent_tiny/atiny_lwm2m\object_security.c ****         {
 848              		.loc 1 676 0
 849 00fc 7FB1     		cbz	r7, .L69
 676:C:/Users/lenovo/Desktop/liteos/Project2/BearPi_LiteOS/components/connectivity/agent_tiny/atiny_lwm2m\object_security.c ****         {
 850              		.loc 1 676 0 is_stmt 0 discriminator 1
 851 00fe BAF1000F 		cmp	r10, #0
 852 0102 0CD0     		beq	.L69
 678:C:/Users/lenovo/Desktop/liteos/Project2/BearPi_LiteOS/components/connectivity/agent_tiny/atiny_lwm2m\object_security.c ****             targetP->publicIdentity = (char *)lwm2m_strdup(bsPskId);
 853              		.loc 1 678 0 is_stmt 1
 854 0104 0023     		movs	r3, #0
 855 0106 6373     		strb	r3, [r4, #13]
 679:C:/Users/lenovo/Desktop/liteos/Project2/BearPi_LiteOS/components/connectivity/agent_tiny/atiny_lwm2m\object_security.c ****             if(targetP->publicIdentity == NULL)
 856              		.loc 1 679 0
 857 0108 3846     		mov	r0, r7
ARM GAS  c:\Users\lenovo\AppData\Local\Temp\ccwlAmuu.s 			page 30


 858 010a FFF7FEFF 		bl	lwm2m_strdup
 859              	.LVL127:
 860 010e 2061     		str	r0, [r4, #16]
 680:C:/Users/lenovo/Desktop/liteos/Project2/BearPi_LiteOS/components/connectivity/agent_tiny/atiny_lwm2m\object_security.c ****             {
 861              		.loc 1 680 0
 862 0110 40B3     		cbz	r0, .L81
 685:C:/Users/lenovo/Desktop/liteos/Project2/BearPi_LiteOS/components/connectivity/agent_tiny/atiny_lwm2m\object_security.c ****             if (pskLen > 0)
 863              		.loc 1 685 0
 864 0112 3846     		mov	r0, r7
 865 0114 FFF7FEFF 		bl	strlen
 866              	.LVL128:
 867 0118 A082     		strh	r0, [r4, #20]	@ movhi
 686:C:/Users/lenovo/Desktop/liteos/Project2/BearPi_LiteOS/components/connectivity/agent_tiny/atiny_lwm2m\object_security.c ****             {
 868              		.loc 1 686 0
 869 011a 039B     		ldr	r3, [sp, #12]
 870 011c 43BB     		cbnz	r3, .L82
 871              	.L69:
 699:C:/Users/lenovo/Desktop/liteos/Project2/BearPi_LiteOS/components/connectivity/agent_tiny/atiny_lwm2m\object_security.c ****         //10? is suitable? it could be changed by the bs server. for lwm2m_server_t member lifetime
 872              		.loc 1 699 0 discriminator 2
 873 011e 059B     		ldr	r3, [sp, #20]
 874 0120 E386     		strh	r3, [r4, #54]	@ movhi
 701:C:/Users/lenovo/Desktop/liteos/Project2/BearPi_LiteOS/components/connectivity/agent_tiny/atiny_lwm2m\object_security.c ****     } //end for loop
 875              		.loc 1 701 0 discriminator 2
 876 0122 D9F81030 		ldr	r3, [r9, #16]
 877 0126 A363     		str	r3, [r4, #56]
 607:C:/Users/lenovo/Desktop/liteos/Project2/BearPi_LiteOS/components/connectivity/agent_tiny/atiny_lwm2m\object_security.c ****     {
 878              		.loc 1 607 0 discriminator 2
 879 0128 0136     		adds	r6, r6, #1
 880              	.LVL129:
 881              	.L60:
 607:C:/Users/lenovo/Desktop/liteos/Project2/BearPi_LiteOS/components/connectivity/agent_tiny/atiny_lwm2m\object_security.c ****     {
 882              		.loc 1 607 0 is_stmt 0 discriminator 1
 883 012a 049B     		ldr	r3, [sp, #16]
 884 012c B342     		cmp	r3, r6
 885 012e 31DD     		ble	.L83
 610:C:/Users/lenovo/Desktop/liteos/Project2/BearPi_LiteOS/components/connectivity/agent_tiny/atiny_lwm2m\object_security.c ****         if (NULL == targetP)
 886              		.loc 1 610 0 is_stmt 1
 887 0130 4020     		movs	r0, #64
 888 0132 FFF7FEFF 		bl	lwm2m_malloc
 889              	.LVL130:
 611:C:/Users/lenovo/Desktop/liteos/Project2/BearPi_LiteOS/components/connectivity/agent_tiny/atiny_lwm2m\object_security.c ****         {
 890              		.loc 1 611 0
 891 0136 0446     		mov	r4, r0
 892 0138 0028     		cmp	r0, #0
 893 013a 9CD0     		beq	.L84
 618:C:/Users/lenovo/Desktop/liteos/Project2/BearPi_LiteOS/components/connectivity/agent_tiny/atiny_lwm2m\object_security.c ****         if((ins_flag & INS_IOT_SERVER_FLAG) && (ins_flag & INS_BS_SERVER_FLAG))
 894              		.loc 1 618 0
 895 013c 4022     		movs	r2, #64
 896 013e 0021     		movs	r1, #0
 897 0140 FFF7FEFF 		bl	memset
 898              	.LVL131:
 619:C:/Users/lenovo/Desktop/liteos/Project2/BearPi_LiteOS/components/connectivity/agent_tiny/atiny_lwm2m\object_security.c ****         {
 899              		.loc 1 619 0
 900 0144 BBF1030F 		cmp	fp, #3
 901 0148 9BD0     		beq	.L85
 627:C:/Users/lenovo/Desktop/liteos/Project2/BearPi_LiteOS/components/connectivity/agent_tiny/atiny_lwm2m\object_security.c ****             {
 902              		.loc 1 627 0
ARM GAS  c:\Users\lenovo\AppData\Local\Temp\ccwlAmuu.s 			page 31


 903 014a 1BF0010F 		tst	fp, #1
 904 014e C0D0     		beq	.L64
 629:C:/Users/lenovo/Desktop/liteos/Project2/BearPi_LiteOS/components/connectivity/agent_tiny/atiny_lwm2m\object_security.c ****                 targetP->isBootstrap = false;
 905              		.loc 1 629 0
 906 0150 0025     		movs	r5, #0
 907 0152 A580     		strh	r5, [r4, #4]	@ movhi
 630:C:/Users/lenovo/Desktop/liteos/Project2/BearPi_LiteOS/components/connectivity/agent_tiny/atiny_lwm2m\object_security.c ****                 security_params_index = 0;
 908              		.loc 1 630 0
 909 0154 2573     		strb	r5, [r4, #12]
 910              	.LVL132:
 911 0156 9AE7     		b	.L63
 912              	.LVL133:
 913              	.L80:
 671:C:/Users/lenovo/Desktop/liteos/Project2/BearPi_LiteOS/components/connectivity/agent_tiny/atiny_lwm2m\object_security.c ****             return NULL;
 914              		.loc 1 671 0
 915 0158 4046     		mov	r0, r8
 916 015a FFF7FEFF 		bl	clean_security_object
 917              	.LVL134:
 672:C:/Users/lenovo/Desktop/liteos/Project2/BearPi_LiteOS/components/connectivity/agent_tiny/atiny_lwm2m\object_security.c ****         }
 918              		.loc 1 672 0
 919 015e 4FF00008 		mov	r8, #0
 920              	.LVL135:
 921 0162 58E7     		b	.L55
 922              	.LVL136:
 923              	.L81:
 682:C:/Users/lenovo/Desktop/liteos/Project2/BearPi_LiteOS/components/connectivity/agent_tiny/atiny_lwm2m\object_security.c ****                 return NULL;
 924              		.loc 1 682 0
 925 0164 4046     		mov	r0, r8
 926 0166 FFF7FEFF 		bl	clean_security_object
 927              	.LVL137:
 683:C:/Users/lenovo/Desktop/liteos/Project2/BearPi_LiteOS/components/connectivity/agent_tiny/atiny_lwm2m\object_security.c ****             }
 928              		.loc 1 683 0
 929 016a 4FF00008 		mov	r8, #0
 930              	.LVL138:
 931 016e 52E7     		b	.L55
 932              	.LVL139:
 933              	.L82:
 688:C:/Users/lenovo/Desktop/liteos/Project2/BearPi_LiteOS/components/connectivity/agent_tiny/atiny_lwm2m\object_security.c ****                 if (targetP->secretKey == NULL)
 934              		.loc 1 688 0
 935 0170 1846     		mov	r0, r3
 936 0172 FFF7FEFF 		bl	lwm2m_malloc
 937              	.LVL140:
 938 0176 2062     		str	r0, [r4, #32]
 689:C:/Users/lenovo/Desktop/liteos/Project2/BearPi_LiteOS/components/connectivity/agent_tiny/atiny_lwm2m\object_security.c ****                 {
 939              		.loc 1 689 0
 940 0178 30B1     		cbz	r0, .L86
 694:C:/Users/lenovo/Desktop/liteos/Project2/BearPi_LiteOS/components/connectivity/agent_tiny/atiny_lwm2m\object_security.c ****                 targetP->secretKeyLen = pskLen;
 941              		.loc 1 694 0
 942 017a 039D     		ldr	r5, [sp, #12]
 943 017c 2A46     		mov	r2, r5
 944 017e 5146     		mov	r1, r10
 945 0180 FFF7FEFF 		bl	memcpy
 946              	.LVL141:
 695:C:/Users/lenovo/Desktop/liteos/Project2/BearPi_LiteOS/components/connectivity/agent_tiny/atiny_lwm2m\object_security.c ****             }
 947              		.loc 1 695 0
 948 0184 A584     		strh	r5, [r4, #36]	@ movhi
 949 0186 CAE7     		b	.L69
ARM GAS  c:\Users\lenovo\AppData\Local\Temp\ccwlAmuu.s 			page 32


 950              	.L86:
 691:C:/Users/lenovo/Desktop/liteos/Project2/BearPi_LiteOS/components/connectivity/agent_tiny/atiny_lwm2m\object_security.c ****                     return NULL;
 951              		.loc 1 691 0
 952 0188 4046     		mov	r0, r8
 953 018a FFF7FEFF 		bl	clean_security_object
 954              	.LVL142:
 692:C:/Users/lenovo/Desktop/liteos/Project2/BearPi_LiteOS/components/connectivity/agent_tiny/atiny_lwm2m\object_security.c ****                 }
 955              		.loc 1 692 0
 956 018e 4FF00008 		mov	r8, #0
 957              	.LVL143:
 958 0192 40E7     		b	.L55
 959              	.LVL144:
 960              	.L83:
 705:C:/Users/lenovo/Desktop/liteos/Project2/BearPi_LiteOS/components/connectivity/agent_tiny/atiny_lwm2m\object_security.c **** #ifdef LWM2M_BOOTSTRAP
 961              		.loc 1 705 0
 962 0194 034B     		ldr	r3, .L87+8
 963 0196 C8F80C30 		str	r3, [r8, #12]
 712:C:/Users/lenovo/Desktop/liteos/Project2/BearPi_LiteOS/components/connectivity/agent_tiny/atiny_lwm2m\object_security.c **** }
 964              		.loc 1 712 0
 965 019a 3CE7     		b	.L55
 966              	.L88:
 967              		.align	2
 968              	.L87:
 969 019c 00000000 		.word	.LC1
 970 01a0 10000000 		.word	.LC2
 971 01a4 00000000 		.word	prv_security_read
 972              		.cfi_endproc
 973              	.LFE147:
 975              		.section	.text.security_get_uri,"ax",%progbits
 976              		.align	1
 977              		.global	security_get_uri
 978              		.syntax unified
 979              		.thumb
 980              		.thumb_func
 981              		.fpu fpv4-sp-d16
 983              	security_get_uri:
 984              	.LFB148:
 714:C:/Users/lenovo/Desktop/liteos/Project2/BearPi_LiteOS/components/connectivity/agent_tiny/atiny_lwm2m\object_security.c **** 
 715:C:/Users/lenovo/Desktop/liteos/Project2/BearPi_LiteOS/components/connectivity/agent_tiny/atiny_lwm2m\object_security.c **** 
 716:C:/Users/lenovo/Desktop/liteos/Project2/BearPi_LiteOS/components/connectivity/agent_tiny/atiny_lwm2m\object_security.c **** 
 717:C:/Users/lenovo/Desktop/liteos/Project2/BearPi_LiteOS/components/connectivity/agent_tiny/atiny_lwm2m\object_security.c **** /********************* Security Obj Helpers **********************/
 718:C:/Users/lenovo/Desktop/liteos/Project2/BearPi_LiteOS/components/connectivity/agent_tiny/atiny_lwm2m\object_security.c **** 
 719:C:/Users/lenovo/Desktop/liteos/Project2/BearPi_LiteOS/components/connectivity/agent_tiny/atiny_lwm2m\object_security.c **** char *security_get_uri(lwm2m_object_t *objectP, uint16_t secObjInstID)
 720:C:/Users/lenovo/Desktop/liteos/Project2/BearPi_LiteOS/components/connectivity/agent_tiny/atiny_lwm2m\object_security.c **** {
 985              		.loc 1 720 0
 986              		.cfi_startproc
 987              		@ args = 0, pretend = 0, frame = 0
 988              		@ frame_needed = 0, uses_anonymous_args = 0
 989              	.LVL145:
 990 0000 08B5     		push	{r3, lr}
 991              	.LCFI11:
 992              		.cfi_def_cfa_offset 8
 993              		.cfi_offset 3, -8
 994              		.cfi_offset 14, -4
 721:C:/Users/lenovo/Desktop/liteos/Project2/BearPi_LiteOS/components/connectivity/agent_tiny/atiny_lwm2m\object_security.c ****     security_instance_t *targetP = (security_instance_t *)LWM2M_LIST_FIND(objectP->instanceList, se
 995              		.loc 1 721 0
 996 0002 8068     		ldr	r0, [r0, #8]
ARM GAS  c:\Users\lenovo\AppData\Local\Temp\ccwlAmuu.s 			page 33


 997              	.LVL146:
 998 0004 FFF7FEFF 		bl	lwm2m_list_find
 999              	.LVL147:
 722:C:/Users/lenovo/Desktop/liteos/Project2/BearPi_LiteOS/components/connectivity/agent_tiny/atiny_lwm2m\object_security.c **** 
 723:C:/Users/lenovo/Desktop/liteos/Project2/BearPi_LiteOS/components/connectivity/agent_tiny/atiny_lwm2m\object_security.c ****     if (NULL != targetP)
 1000              		.loc 1 723 0
 1001 0008 18B1     		cbz	r0, .L91
 724:C:/Users/lenovo/Desktop/liteos/Project2/BearPi_LiteOS/components/connectivity/agent_tiny/atiny_lwm2m\object_security.c ****     {
 725:C:/Users/lenovo/Desktop/liteos/Project2/BearPi_LiteOS/components/connectivity/agent_tiny/atiny_lwm2m\object_security.c ****         return lwm2m_strdup(targetP->uri);
 1002              		.loc 1 725 0
 1003 000a 8068     		ldr	r0, [r0, #8]
 1004              	.LVL148:
 1005 000c FFF7FEFF 		bl	lwm2m_strdup
 1006              	.LVL149:
 1007              	.L89:
 726:C:/Users/lenovo/Desktop/liteos/Project2/BearPi_LiteOS/components/connectivity/agent_tiny/atiny_lwm2m\object_security.c ****     }
 727:C:/Users/lenovo/Desktop/liteos/Project2/BearPi_LiteOS/components/connectivity/agent_tiny/atiny_lwm2m\object_security.c **** 
 728:C:/Users/lenovo/Desktop/liteos/Project2/BearPi_LiteOS/components/connectivity/agent_tiny/atiny_lwm2m\object_security.c ****     return NULL;
 729:C:/Users/lenovo/Desktop/liteos/Project2/BearPi_LiteOS/components/connectivity/agent_tiny/atiny_lwm2m\object_security.c **** }
 1008              		.loc 1 729 0
 1009 0010 08BD     		pop	{r3, pc}
 1010              	.LVL150:
 1011              	.L91:
 728:C:/Users/lenovo/Desktop/liteos/Project2/BearPi_LiteOS/components/connectivity/agent_tiny/atiny_lwm2m\object_security.c **** }
 1012              		.loc 1 728 0
 1013 0012 0020     		movs	r0, #0
 1014              	.LVL151:
 1015 0014 FCE7     		b	.L89
 1016              		.cfi_endproc
 1017              	.LFE148:
 1019              		.section	.rodata
 1020              		.align	2
 1021              		.set	.LANCHOR0,. + 0
 1022              	.LC0:
 1023 0000 0000     		.short	0
 1024 0002 0100     		.short	1
 1025 0004 0200     		.short	2
 1026 0006 0300     		.short	3
 1027 0008 0400     		.short	4
 1028 000a 0500     		.short	5
 1029 000c 0600     		.short	6
 1030 000e 0700     		.short	7
 1031 0010 0800     		.short	8
 1032 0012 0900     		.short	9
 1033 0014 0A00     		.short	10
 1034 0016 0B00     		.short	11
 1035 0018 0C00     		.short	12
 1036              		.section	.rodata.get_security_object.str1.4,"aMS",%progbits,1
 1037              		.align	2
 1038              	.LC1:
 1039 0000 636F6170 		.ascii	"coaps://%s:%s\000"
 1039      733A2F2F 
 1039      25733A25 
 1039      7300
 1040 000e 0000     		.space	2
 1041              	.LC2:
 1042 0010 636F6170 		.ascii	"coap://%s:%s\000"
ARM GAS  c:\Users\lenovo\AppData\Local\Temp\ccwlAmuu.s 			page 34


 1042      3A2F2F25 
 1042      733A2573 
 1042      00
 1043              		.text
 1044              	.Letext0:
 1045              		.file 2 "c:\\program files (x86)\\liteos studio\\resources\\arm-none-eabi\\arm-none-eabi\\include\
 1046              		.file 3 "c:\\program files (x86)\\liteos studio\\resources\\arm-none-eabi\\arm-none-eabi\\include\
 1047              		.file 4 "C:/Users/lenovo/Desktop/liteos/Project2/BearPi_LiteOS/components/connectivity/lwm2m/core/
 1048              		.file 5 "c:\\program files (x86)\\liteos studio\\resources\\arm-none-eabi\\lib\\gcc\\arm-none-eabi
 1049              		.file 6 "c:\\program files (x86)\\liteos studio\\resources\\arm-none-eabi\\arm-none-eabi\\include\
 1050              		.file 7 "c:\\program files (x86)\\liteos studio\\resources\\arm-none-eabi\\arm-none-eabi\\include\
 1051              		.file 8 "c:\\program files (x86)\\liteos studio\\resources\\arm-none-eabi\\arm-none-eabi\\include\
 1052              		.file 9 "c:\\program files (x86)\\liteos studio\\resources\\arm-none-eabi\\arm-none-eabi\\include\
 1053              		.file 10 "c:\\program files (x86)\\liteos studio\\resources\\arm-none-eabi\\arm-none-eabi\\include
 1054              		.file 11 "C:/Users/lenovo/Desktop/liteos/Project2/BearPi_LiteOS/components/connectivity/lwm2m/core
 1055              		.file 12 "C:/Users/lenovo/Desktop/liteos/Project2/BearPi_LiteOS/kernel/include/los_typedef.h"
 1056              		.file 13 "C:/Users/lenovo/Desktop/liteos/Project2/BearPi_LiteOS/arch/arm/common/cmsis/core_cm4.h"
 1057              		.file 14 "C:/Users/lenovo/Desktop/liteos/Project2/BearPi_LiteOS/targets/STM32L431_BearPi/Inc/syste
 1058              		.file 15 "C:/Users/lenovo/Desktop/liteos/Project2/BearPi_LiteOS/kernel/include/los_list.h"
 1059              		.file 16 "C:/Users/lenovo/Desktop/liteos/Project2/BearPi_LiteOS/kernel/include/los_err.h"
 1060              		.file 17 "C:/Users/lenovo/Desktop/liteos/Project2/BearPi_LiteOS/arch/arm/arm-m/include/los_hwi.h"
 1061              		.file 18 "C:/Users/lenovo/Desktop/liteos/Project2/BearPi_LiteOS/kernel/include/los_tick.h"
 1062              		.file 19 "C:/Users/lenovo/Desktop/liteos/Project2/BearPi_LiteOS/kernel/include/los_event.h"
 1063              		.file 20 "C:/Users/lenovo/Desktop/liteos/Project2/BearPi_LiteOS/kernel/include/los_task.h"
 1064              		.file 21 "C:/Users/lenovo/Desktop/liteos/Project2/BearPi_LiteOS/kernel/base/include/los_task.ph"
 1065              		.file 22 "C:/Users/lenovo/Desktop/liteos/Project2/BearPi_LiteOS/targets/STM32L431_BearPi/Inc/main.
 1066              		.file 23 "C:/Users/lenovo/Desktop/liteos/Project2/BearPi_LiteOS/targets/STM32L431_BearPi/OS_CONFIG
 1067              		.file 24 "C:/Users/lenovo/Desktop/liteos/Project2/BearPi_LiteOS/kernel/include/los_config.h"
 1068              		.file 25 "C:/Users/lenovo/Desktop/liteos/Project2/BearPi_LiteOS/components/connectivity/lwm2m/core
 1069              		.file 26 "c:\\program files (x86)\\liteos studio\\resources\\arm-none-eabi\\arm-none-eabi\\include
 1070              		.file 27 "c:\\program files (x86)\\liteos studio\\resources\\arm-none-eabi\\arm-none-eabi\\include
 1071              		.file 28 "C:/Users/lenovo/Desktop/liteos/Project2/BearPi_LiteOS/include/atiny_lwm2m/agenttiny.h"
 1072              		.file 29 "C:/Users/lenovo/Desktop/liteos/Project2/BearPi_LiteOS/components/connectivity/agent_tiny
 1073              		.file 30 "C:/Users/lenovo/Desktop/liteos/Project2/BearPi_LiteOS/include/osdepends/atiny_osdep.h"
 1074              		.file 31 "c:\\program files (x86)\\liteos studio\\resources\\arm-none-eabi\\arm-none-eabi\\include
 1075              		.file 32 "<built-in>"
ARM GAS  c:\Users\lenovo\AppData\Local\Temp\ccwlAmuu.s 			page 35

