ARM GAS  c:\Users\lenovo\AppData\Local\Temp\cca7TJX2.s 			page 1


   1              		.cpu cortex-m4
   2              		.eabi_attribute 27, 1
   3              		.eabi_attribute 28, 1
   4              		.eabi_attribute 20, 1
   5              		.eabi_attribute 21, 1
   6              		.eabi_attribute 23, 3
   7              		.eabi_attribute 24, 1
   8              		.eabi_attribute 25, 1
   9              		.eabi_attribute 26, 1
  10              		.eabi_attribute 30, 1
  11              		.eabi_attribute 34, 1
  12              		.eabi_attribute 18, 4
  13              		.file	"object_binary_app_data_container.c"
  14              		.text
  15              	.Ltext0:
  16              		.cfi_sections	.debug_frame
  17              		.section	.text.prv_destroy_data_buf,"ax",%progbits
  18              		.align	1
  19              		.syntax unified
  20              		.thumb
  21              		.thumb_func
  22              		.fpu fpv4-sp-d16
  24              	prv_destroy_data_buf:
  25              	.LFB146:
  26              		.file 1 "C:/Users/lenovo/Desktop/liteos/Project2/BearPi_LiteOS/components/connectivity/agent_tiny/
   1:C:/Users/lenovo/Desktop/liteos/Project2/BearPi_LiteOS/components/connectivity/agent_tiny/atiny_lwm2m\object_binary_app_data_container.c **** /*----------------------------------------------------------------------------
   2:C:/Users/lenovo/Desktop/liteos/Project2/BearPi_LiteOS/components/connectivity/agent_tiny/atiny_lwm2m\object_binary_app_data_container.c ****  * Copyright (c) <2016-2018>, <Huawei Technologies Co., Ltd>
   3:C:/Users/lenovo/Desktop/liteos/Project2/BearPi_LiteOS/components/connectivity/agent_tiny/atiny_lwm2m\object_binary_app_data_container.c ****  * All rights reserved.
   4:C:/Users/lenovo/Desktop/liteos/Project2/BearPi_LiteOS/components/connectivity/agent_tiny/atiny_lwm2m\object_binary_app_data_container.c ****  * Redistribution and use in source and binary forms, with or without modification,
   5:C:/Users/lenovo/Desktop/liteos/Project2/BearPi_LiteOS/components/connectivity/agent_tiny/atiny_lwm2m\object_binary_app_data_container.c ****  * are permitted provided that the following conditions are met:
   6:C:/Users/lenovo/Desktop/liteos/Project2/BearPi_LiteOS/components/connectivity/agent_tiny/atiny_lwm2m\object_binary_app_data_container.c ****  * 1. Redistributions of source code must retain the above copyright notice, this list of
   7:C:/Users/lenovo/Desktop/liteos/Project2/BearPi_LiteOS/components/connectivity/agent_tiny/atiny_lwm2m\object_binary_app_data_container.c ****  * conditions and the following disclaimer.
   8:C:/Users/lenovo/Desktop/liteos/Project2/BearPi_LiteOS/components/connectivity/agent_tiny/atiny_lwm2m\object_binary_app_data_container.c ****  * 2. Redistributions in binary form must reproduce the above copyright notice, this list
   9:C:/Users/lenovo/Desktop/liteos/Project2/BearPi_LiteOS/components/connectivity/agent_tiny/atiny_lwm2m\object_binary_app_data_container.c ****  * of conditions and the following disclaimer in the documentation and/or other materials
  10:C:/Users/lenovo/Desktop/liteos/Project2/BearPi_LiteOS/components/connectivity/agent_tiny/atiny_lwm2m\object_binary_app_data_container.c ****  * provided with the distribution.
  11:C:/Users/lenovo/Desktop/liteos/Project2/BearPi_LiteOS/components/connectivity/agent_tiny/atiny_lwm2m\object_binary_app_data_container.c ****  * 3. Neither the name of the copyright holder nor the names of its contributors may be used
  12:C:/Users/lenovo/Desktop/liteos/Project2/BearPi_LiteOS/components/connectivity/agent_tiny/atiny_lwm2m\object_binary_app_data_container.c ****  * to endorse or promote products derived from this software without specific prior written
  13:C:/Users/lenovo/Desktop/liteos/Project2/BearPi_LiteOS/components/connectivity/agent_tiny/atiny_lwm2m\object_binary_app_data_container.c ****  * permission.
  14:C:/Users/lenovo/Desktop/liteos/Project2/BearPi_LiteOS/components/connectivity/agent_tiny/atiny_lwm2m\object_binary_app_data_container.c ****  * THIS SOFTWARE IS PROVIDED BY THE COPYRIGHT HOLDERS AND CONTRIBUTORS
  15:C:/Users/lenovo/Desktop/liteos/Project2/BearPi_LiteOS/components/connectivity/agent_tiny/atiny_lwm2m\object_binary_app_data_container.c ****  * "AS IS" AND ANY EXPRESS OR IMPLIED WARRANTIES, INCLUDING, BUT NOT LIMITED TO,
  16:C:/Users/lenovo/Desktop/liteos/Project2/BearPi_LiteOS/components/connectivity/agent_tiny/atiny_lwm2m\object_binary_app_data_container.c ****  * THE IMPLIED WARRANTIES OF MERCHANTABILITY AND FITNESS FOR A PARTICULAR
  17:C:/Users/lenovo/Desktop/liteos/Project2/BearPi_LiteOS/components/connectivity/agent_tiny/atiny_lwm2m\object_binary_app_data_container.c ****  * PURPOSE ARE DISCLAIMED. IN NO EVENT SHALL THE COPYRIGHT HOLDER OR
  18:C:/Users/lenovo/Desktop/liteos/Project2/BearPi_LiteOS/components/connectivity/agent_tiny/atiny_lwm2m\object_binary_app_data_container.c ****  * CONTRIBUTORS BE LIABLE FOR ANY DIRECT, INDIRECT, INCIDENTAL, SPECIAL,
  19:C:/Users/lenovo/Desktop/liteos/Project2/BearPi_LiteOS/components/connectivity/agent_tiny/atiny_lwm2m\object_binary_app_data_container.c ****  * EXEMPLARY, OR CONSEQUENTIAL DAMAGES (INCLUDING, BUT NOT LIMITED TO,
  20:C:/Users/lenovo/Desktop/liteos/Project2/BearPi_LiteOS/components/connectivity/agent_tiny/atiny_lwm2m\object_binary_app_data_container.c ****  * PROCUREMENT OF SUBSTITUTE GOODS OR SERVICES; LOSS OF USE, DATA, OR PROFITS;
  21:C:/Users/lenovo/Desktop/liteos/Project2/BearPi_LiteOS/components/connectivity/agent_tiny/atiny_lwm2m\object_binary_app_data_container.c ****  * OR BUSINESS INTERRUPTION) HOWEVER CAUSED AND ON ANY THEORY OF LIABILITY,
  22:C:/Users/lenovo/Desktop/liteos/Project2/BearPi_LiteOS/components/connectivity/agent_tiny/atiny_lwm2m\object_binary_app_data_container.c ****  * WHETHER IN CONTRACT, STRICT LIABILITY, OR TORT (INCLUDING NEGLIGENCE OR
  23:C:/Users/lenovo/Desktop/liteos/Project2/BearPi_LiteOS/components/connectivity/agent_tiny/atiny_lwm2m\object_binary_app_data_container.c ****  * OTHERWISE) ARISING IN ANY WAY OUT OF THE USE OF THIS SOFTWARE, EVEN IF
  24:C:/Users/lenovo/Desktop/liteos/Project2/BearPi_LiteOS/components/connectivity/agent_tiny/atiny_lwm2m\object_binary_app_data_container.c ****  * ADVISED OF THE POSSIBILITY OF SUCH DAMAGE.
  25:C:/Users/lenovo/Desktop/liteos/Project2/BearPi_LiteOS/components/connectivity/agent_tiny/atiny_lwm2m\object_binary_app_data_container.c ****  *---------------------------------------------------------------------------*/
  26:C:/Users/lenovo/Desktop/liteos/Project2/BearPi_LiteOS/components/connectivity/agent_tiny/atiny_lwm2m\object_binary_app_data_container.c **** /*----------------------------------------------------------------------------
  27:C:/Users/lenovo/Desktop/liteos/Project2/BearPi_LiteOS/components/connectivity/agent_tiny/atiny_lwm2m\object_binary_app_data_container.c ****  * Notice of Export Control Law
  28:C:/Users/lenovo/Desktop/liteos/Project2/BearPi_LiteOS/components/connectivity/agent_tiny/atiny_lwm2m\object_binary_app_data_container.c ****  * ===============================================
  29:C:/Users/lenovo/Desktop/liteos/Project2/BearPi_LiteOS/components/connectivity/agent_tiny/atiny_lwm2m\object_binary_app_data_container.c ****  * Huawei LiteOS may be subject to applicable export control laws and regulations, which might
  30:C:/Users/lenovo/Desktop/liteos/Project2/BearPi_LiteOS/components/connectivity/agent_tiny/atiny_lwm2m\object_binary_app_data_container.c ****  * include those applicable to Huawei LiteOS of U.S. and the country in which you are located.
  31:C:/Users/lenovo/Desktop/liteos/Project2/BearPi_LiteOS/components/connectivity/agent_tiny/atiny_lwm2m\object_binary_app_data_container.c ****  * Import, export and usage of Huawei LiteOS in any manner by you shall be in compliance with such
  32:C:/Users/lenovo/Desktop/liteos/Project2/BearPi_LiteOS/components/connectivity/agent_tiny/atiny_lwm2m\object_binary_app_data_container.c ****  * applicable export control laws and regulations.
ARM GAS  c:\Users\lenovo\AppData\Local\Temp\cca7TJX2.s 			page 2


  33:C:/Users/lenovo/Desktop/liteos/Project2/BearPi_LiteOS/components/connectivity/agent_tiny/atiny_lwm2m\object_binary_app_data_container.c ****  *---------------------------------------------------------------------------*/
  34:C:/Users/lenovo/Desktop/liteos/Project2/BearPi_LiteOS/components/connectivity/agent_tiny/atiny_lwm2m\object_binary_app_data_container.c **** 
  35:C:/Users/lenovo/Desktop/liteos/Project2/BearPi_LiteOS/components/connectivity/agent_tiny/atiny_lwm2m\object_binary_app_data_container.c **** /*
  36:C:/Users/lenovo/Desktop/liteos/Project2/BearPi_LiteOS/components/connectivity/agent_tiny/atiny_lwm2m\object_binary_app_data_container.c ****  * Implements an object for binary_app_data_container purpose
  37:C:/Users/lenovo/Desktop/liteos/Project2/BearPi_LiteOS/components/connectivity/agent_tiny/atiny_lwm2m\object_binary_app_data_container.c ****  *
  38:C:/Users/lenovo/Desktop/liteos/Project2/BearPi_LiteOS/components/connectivity/agent_tiny/atiny_lwm2m\object_binary_app_data_container.c ****  *                  Multiple
  39:C:/Users/lenovo/Desktop/liteos/Project2/BearPi_LiteOS/components/connectivity/agent_tiny/atiny_lwm2m\object_binary_app_data_container.c ****  * Object                      |  ID   | Instances | Mandatoty |
  40:C:/Users/lenovo/Desktop/liteos/Project2/BearPi_LiteOS/components/connectivity/agent_tiny/atiny_lwm2m\object_binary_app_data_container.c ****  * binary_app_data_container   |  19   |    Yes    |    No     |
  41:C:/Users/lenovo/Desktop/liteos/Project2/BearPi_LiteOS/components/connectivity/agent_tiny/atiny_lwm2m\object_binary_app_data_container.c ****  *
  42:C:/Users/lenovo/Desktop/liteos/Project2/BearPi_LiteOS/components/connectivity/agent_tiny/atiny_lwm2m\object_binary_app_data_container.c ****  *  Resources:
  43:C:/Users/lenovo/Desktop/liteos/Project2/BearPi_LiteOS/components/connectivity/agent_tiny/atiny_lwm2m\object_binary_app_data_container.c ****  *              Supported    Multiple
  44:C:/Users/lenovo/Desktop/liteos/Project2/BearPi_LiteOS/components/connectivity/agent_tiny/atiny_lwm2m\object_binary_app_data_container.c ****  *  Name | ID | Operations | Instances | Mandatory |  Type   | Range | Units | Description |
  45:C:/Users/lenovo/Desktop/liteos/Project2/BearPi_LiteOS/components/connectivity/agent_tiny/atiny_lwm2m\object_binary_app_data_container.c ****  *  Data |  0 |    R/W     |    No     |    Yes    | Opaque  |       |       |             |
  46:C:/Users/lenovo/Desktop/liteos/Project2/BearPi_LiteOS/components/connectivity/agent_tiny/atiny_lwm2m\object_binary_app_data_container.c ****  *
  47:C:/Users/lenovo/Desktop/liteos/Project2/BearPi_LiteOS/components/connectivity/agent_tiny/atiny_lwm2m\object_binary_app_data_container.c ****  */
  48:C:/Users/lenovo/Desktop/liteos/Project2/BearPi_LiteOS/components/connectivity/agent_tiny/atiny_lwm2m\object_binary_app_data_container.c **** #include "object_comm.h"
  49:C:/Users/lenovo/Desktop/liteos/Project2/BearPi_LiteOS/components/connectivity/agent_tiny/atiny_lwm2m\object_binary_app_data_container.c **** #include "atiny_rpt.h"
  50:C:/Users/lenovo/Desktop/liteos/Project2/BearPi_LiteOS/components/connectivity/agent_tiny/atiny_lwm2m\object_binary_app_data_container.c **** #include "log/atiny_log.h"
  51:C:/Users/lenovo/Desktop/liteos/Project2/BearPi_LiteOS/components/connectivity/agent_tiny/atiny_lwm2m\object_binary_app_data_container.c **** 
  52:C:/Users/lenovo/Desktop/liteos/Project2/BearPi_LiteOS/components/connectivity/agent_tiny/atiny_lwm2m\object_binary_app_data_container.c **** 
  53:C:/Users/lenovo/Desktop/liteos/Project2/BearPi_LiteOS/components/connectivity/agent_tiny/atiny_lwm2m\object_binary_app_data_container.c **** 
  54:C:/Users/lenovo/Desktop/liteos/Project2/BearPi_LiteOS/components/connectivity/agent_tiny/atiny_lwm2m\object_binary_app_data_container.c **** #define PRV_TLV_BUFFER_SIZE 64
  55:C:/Users/lenovo/Desktop/liteos/Project2/BearPi_LiteOS/components/connectivity/agent_tiny/atiny_lwm2m\object_binary_app_data_container.c **** 
  56:C:/Users/lenovo/Desktop/liteos/Project2/BearPi_LiteOS/components/connectivity/agent_tiny/atiny_lwm2m\object_binary_app_data_container.c **** #define MIN_SAVE_CNT 1
  57:C:/Users/lenovo/Desktop/liteos/Project2/BearPi_LiteOS/components/connectivity/agent_tiny/atiny_lwm2m\object_binary_app_data_container.c **** #define BINARY_APP_DATA_OBJECT_INSTANCE_NUM 2
  58:C:/Users/lenovo/Desktop/liteos/Project2/BearPi_LiteOS/components/connectivity/agent_tiny/atiny_lwm2m\object_binary_app_data_container.c **** 
  59:C:/Users/lenovo/Desktop/liteos/Project2/BearPi_LiteOS/components/connectivity/agent_tiny/atiny_lwm2m\object_binary_app_data_container.c **** 
  60:C:/Users/lenovo/Desktop/liteos/Project2/BearPi_LiteOS/components/connectivity/agent_tiny/atiny_lwm2m\object_binary_app_data_container.c **** /*
  61:C:/Users/lenovo/Desktop/liteos/Project2/BearPi_LiteOS/components/connectivity/agent_tiny/atiny_lwm2m\object_binary_app_data_container.c ****  * Multiple instance objects can use userdata to store data that will be shared between the differe
  62:C:/Users/lenovo/Desktop/liteos/Project2/BearPi_LiteOS/components/connectivity/agent_tiny/atiny_lwm2m\object_binary_app_data_container.c ****  * The lwm2m_object_t object structure - which represent every object of the liblwm2m as seen in th
  63:C:/Users/lenovo/Desktop/liteos/Project2/BearPi_LiteOS/components/connectivity/agent_tiny/atiny_lwm2m\object_binary_app_data_container.c ****  * object - contain a chained list called instanceList with the object specific structure plat_inst
  64:C:/Users/lenovo/Desktop/liteos/Project2/BearPi_LiteOS/components/connectivity/agent_tiny/atiny_lwm2m\object_binary_app_data_container.c ****  */
  65:C:/Users/lenovo/Desktop/liteos/Project2/BearPi_LiteOS/components/connectivity/agent_tiny/atiny_lwm2m\object_binary_app_data_container.c **** typedef struct _prv_instance_
  66:C:/Users/lenovo/Desktop/liteos/Project2/BearPi_LiteOS/components/connectivity/agent_tiny/atiny_lwm2m\object_binary_app_data_container.c **** {
  67:C:/Users/lenovo/Desktop/liteos/Project2/BearPi_LiteOS/components/connectivity/agent_tiny/atiny_lwm2m\object_binary_app_data_container.c ****     /*
  68:C:/Users/lenovo/Desktop/liteos/Project2/BearPi_LiteOS/components/connectivity/agent_tiny/atiny_lwm2m\object_binary_app_data_container.c ****      * The first two are mandatories and represent the pointer to the next instance and the ID of t
  69:C:/Users/lenovo/Desktop/liteos/Project2/BearPi_LiteOS/components/connectivity/agent_tiny/atiny_lwm2m\object_binary_app_data_container.c ****      * is the instance scope user data (uint8_t test in this case)
  70:C:/Users/lenovo/Desktop/liteos/Project2/BearPi_LiteOS/components/connectivity/agent_tiny/atiny_lwm2m\object_binary_app_data_container.c ****      */
  71:C:/Users/lenovo/Desktop/liteos/Project2/BearPi_LiteOS/components/connectivity/agent_tiny/atiny_lwm2m\object_binary_app_data_container.c ****     struct _prv_instance_ *next;    // matches lwm2m_list_t::next
  72:C:/Users/lenovo/Desktop/liteos/Project2/BearPi_LiteOS/components/connectivity/agent_tiny/atiny_lwm2m\object_binary_app_data_container.c ****     uint16_t shortID;               // matches lwm2m_list_t::id
  73:C:/Users/lenovo/Desktop/liteos/Project2/BearPi_LiteOS/components/connectivity/agent_tiny/atiny_lwm2m\object_binary_app_data_container.c ****     rpt_list_t header;
  74:C:/Users/lenovo/Desktop/liteos/Project2/BearPi_LiteOS/components/connectivity/agent_tiny/atiny_lwm2m\object_binary_app_data_container.c ****     uint8_t  test;
  75:C:/Users/lenovo/Desktop/liteos/Project2/BearPi_LiteOS/components/connectivity/agent_tiny/atiny_lwm2m\object_binary_app_data_container.c ****     double   dec;
  76:C:/Users/lenovo/Desktop/liteos/Project2/BearPi_LiteOS/components/connectivity/agent_tiny/atiny_lwm2m\object_binary_app_data_container.c **** #define OPAR_NUM 5
  77:C:/Users/lenovo/Desktop/liteos/Project2/BearPi_LiteOS/components/connectivity/agent_tiny/atiny_lwm2m\object_binary_app_data_container.c ****     uint8_t  opaq[OPAR_NUM];
  78:C:/Users/lenovo/Desktop/liteos/Project2/BearPi_LiteOS/components/connectivity/agent_tiny/atiny_lwm2m\object_binary_app_data_container.c **** } plat_instance_t;
  79:C:/Users/lenovo/Desktop/liteos/Project2/BearPi_LiteOS/components/connectivity/agent_tiny/atiny_lwm2m\object_binary_app_data_container.c **** 
  80:C:/Users/lenovo/Desktop/liteos/Project2/BearPi_LiteOS/components/connectivity/agent_tiny/atiny_lwm2m\object_binary_app_data_container.c **** #define ARRAY_MAXNUM  16
  81:C:/Users/lenovo/Desktop/liteos/Project2/BearPi_LiteOS/components/connectivity/agent_tiny/atiny_lwm2m\object_binary_app_data_container.c **** static void prv_output_buffer(uint8_t *buffer,
  82:C:/Users/lenovo/Desktop/liteos/Project2/BearPi_LiteOS/components/connectivity/agent_tiny/atiny_lwm2m\object_binary_app_data_container.c ****                               int length)
  83:C:/Users/lenovo/Desktop/liteos/Project2/BearPi_LiteOS/components/connectivity/agent_tiny/atiny_lwm2m\object_binary_app_data_container.c **** {
  84:C:/Users/lenovo/Desktop/liteos/Project2/BearPi_LiteOS/components/connectivity/agent_tiny/atiny_lwm2m\object_binary_app_data_container.c ****     int i;
  85:C:/Users/lenovo/Desktop/liteos/Project2/BearPi_LiteOS/components/connectivity/agent_tiny/atiny_lwm2m\object_binary_app_data_container.c ****     uint8_t array[ARRAY_MAXNUM];
  86:C:/Users/lenovo/Desktop/liteos/Project2/BearPi_LiteOS/components/connectivity/agent_tiny/atiny_lwm2m\object_binary_app_data_container.c **** 
  87:C:/Users/lenovo/Desktop/liteos/Project2/BearPi_LiteOS/components/connectivity/agent_tiny/atiny_lwm2m\object_binary_app_data_container.c ****     i = 0;
  88:C:/Users/lenovo/Desktop/liteos/Project2/BearPi_LiteOS/components/connectivity/agent_tiny/atiny_lwm2m\object_binary_app_data_container.c ****     while (i < length)
  89:C:/Users/lenovo/Desktop/liteos/Project2/BearPi_LiteOS/components/connectivity/agent_tiny/atiny_lwm2m\object_binary_app_data_container.c ****     {
ARM GAS  c:\Users\lenovo\AppData\Local\Temp\cca7TJX2.s 			page 3


  90:C:/Users/lenovo/Desktop/liteos/Project2/BearPi_LiteOS/components/connectivity/agent_tiny/atiny_lwm2m\object_binary_app_data_container.c ****         int j;
  91:C:/Users/lenovo/Desktop/liteos/Project2/BearPi_LiteOS/components/connectivity/agent_tiny/atiny_lwm2m\object_binary_app_data_container.c ****         fprintf(stderr, "  ");
  92:C:/Users/lenovo/Desktop/liteos/Project2/BearPi_LiteOS/components/connectivity/agent_tiny/atiny_lwm2m\object_binary_app_data_container.c **** 
  93:C:/Users/lenovo/Desktop/liteos/Project2/BearPi_LiteOS/components/connectivity/agent_tiny/atiny_lwm2m\object_binary_app_data_container.c ****         memcpy(array, buffer + i, ARRAY_MAXNUM);
  94:C:/Users/lenovo/Desktop/liteos/Project2/BearPi_LiteOS/components/connectivity/agent_tiny/atiny_lwm2m\object_binary_app_data_container.c **** 
  95:C:/Users/lenovo/Desktop/liteos/Project2/BearPi_LiteOS/components/connectivity/agent_tiny/atiny_lwm2m\object_binary_app_data_container.c ****         for (j = 0 ; j < ARRAY_MAXNUM && i + j < length; j++)
  96:C:/Users/lenovo/Desktop/liteos/Project2/BearPi_LiteOS/components/connectivity/agent_tiny/atiny_lwm2m\object_binary_app_data_container.c ****         {
  97:C:/Users/lenovo/Desktop/liteos/Project2/BearPi_LiteOS/components/connectivity/agent_tiny/atiny_lwm2m\object_binary_app_data_container.c ****             fprintf(stderr, "%02X ", array[j]);
  98:C:/Users/lenovo/Desktop/liteos/Project2/BearPi_LiteOS/components/connectivity/agent_tiny/atiny_lwm2m\object_binary_app_data_container.c ****         }
  99:C:/Users/lenovo/Desktop/liteos/Project2/BearPi_LiteOS/components/connectivity/agent_tiny/atiny_lwm2m\object_binary_app_data_container.c ****         while (j < ARRAY_MAXNUM)
 100:C:/Users/lenovo/Desktop/liteos/Project2/BearPi_LiteOS/components/connectivity/agent_tiny/atiny_lwm2m\object_binary_app_data_container.c ****         {
 101:C:/Users/lenovo/Desktop/liteos/Project2/BearPi_LiteOS/components/connectivity/agent_tiny/atiny_lwm2m\object_binary_app_data_container.c ****             fprintf(stderr, "   ");
 102:C:/Users/lenovo/Desktop/liteos/Project2/BearPi_LiteOS/components/connectivity/agent_tiny/atiny_lwm2m\object_binary_app_data_container.c ****             j++;
 103:C:/Users/lenovo/Desktop/liteos/Project2/BearPi_LiteOS/components/connectivity/agent_tiny/atiny_lwm2m\object_binary_app_data_container.c ****         }
 104:C:/Users/lenovo/Desktop/liteos/Project2/BearPi_LiteOS/components/connectivity/agent_tiny/atiny_lwm2m\object_binary_app_data_container.c ****         fprintf(stderr, "  ");
 105:C:/Users/lenovo/Desktop/liteos/Project2/BearPi_LiteOS/components/connectivity/agent_tiny/atiny_lwm2m\object_binary_app_data_container.c ****         for (j = 0 ; j < ARRAY_MAXNUM && i + j < length; j++)
 106:C:/Users/lenovo/Desktop/liteos/Project2/BearPi_LiteOS/components/connectivity/agent_tiny/atiny_lwm2m\object_binary_app_data_container.c ****         {
 107:C:/Users/lenovo/Desktop/liteos/Project2/BearPi_LiteOS/components/connectivity/agent_tiny/atiny_lwm2m\object_binary_app_data_container.c ****             if (isprint(array[j]))
 108:C:/Users/lenovo/Desktop/liteos/Project2/BearPi_LiteOS/components/connectivity/agent_tiny/atiny_lwm2m\object_binary_app_data_container.c ****                 fprintf(stderr, "%c ", array[j]);
 109:C:/Users/lenovo/Desktop/liteos/Project2/BearPi_LiteOS/components/connectivity/agent_tiny/atiny_lwm2m\object_binary_app_data_container.c ****             else
 110:C:/Users/lenovo/Desktop/liteos/Project2/BearPi_LiteOS/components/connectivity/agent_tiny/atiny_lwm2m\object_binary_app_data_container.c ****                 fprintf(stderr, ". ");
 111:C:/Users/lenovo/Desktop/liteos/Project2/BearPi_LiteOS/components/connectivity/agent_tiny/atiny_lwm2m\object_binary_app_data_container.c ****         }
 112:C:/Users/lenovo/Desktop/liteos/Project2/BearPi_LiteOS/components/connectivity/agent_tiny/atiny_lwm2m\object_binary_app_data_container.c ****         fprintf(stderr, "\n");
 113:C:/Users/lenovo/Desktop/liteos/Project2/BearPi_LiteOS/components/connectivity/agent_tiny/atiny_lwm2m\object_binary_app_data_container.c **** 
 114:C:/Users/lenovo/Desktop/liteos/Project2/BearPi_LiteOS/components/connectivity/agent_tiny/atiny_lwm2m\object_binary_app_data_container.c ****         i += ARRAY_MAXNUM;
 115:C:/Users/lenovo/Desktop/liteos/Project2/BearPi_LiteOS/components/connectivity/agent_tiny/atiny_lwm2m\object_binary_app_data_container.c ****     }
 116:C:/Users/lenovo/Desktop/liteos/Project2/BearPi_LiteOS/components/connectivity/agent_tiny/atiny_lwm2m\object_binary_app_data_container.c **** }
 117:C:/Users/lenovo/Desktop/liteos/Project2/BearPi_LiteOS/components/connectivity/agent_tiny/atiny_lwm2m\object_binary_app_data_container.c **** 
 118:C:/Users/lenovo/Desktop/liteos/Project2/BearPi_LiteOS/components/connectivity/agent_tiny/atiny_lwm2m\object_binary_app_data_container.c **** static uint8_t prv_read_data(plat_instance_t *targetP,
 119:C:/Users/lenovo/Desktop/liteos/Project2/BearPi_LiteOS/components/connectivity/agent_tiny/atiny_lwm2m\object_binary_app_data_container.c ****                              int data_number,
 120:C:/Users/lenovo/Desktop/liteos/Project2/BearPi_LiteOS/components/connectivity/agent_tiny/atiny_lwm2m\object_binary_app_data_container.c ****                              lwm2m_data_t *dataArrayP,
 121:C:/Users/lenovo/Desktop/liteos/Project2/BearPi_LiteOS/components/connectivity/agent_tiny/atiny_lwm2m\object_binary_app_data_container.c ****                              lwm2m_data_cfg_t *dataCfg)
 122:C:/Users/lenovo/Desktop/liteos/Project2/BearPi_LiteOS/components/connectivity/agent_tiny/atiny_lwm2m\object_binary_app_data_container.c **** {
 123:C:/Users/lenovo/Desktop/liteos/Project2/BearPi_LiteOS/components/connectivity/agent_tiny/atiny_lwm2m\object_binary_app_data_container.c ****     int i;
 124:C:/Users/lenovo/Desktop/liteos/Project2/BearPi_LiteOS/components/connectivity/agent_tiny/atiny_lwm2m\object_binary_app_data_container.c ****     data_report_t data;
 125:C:/Users/lenovo/Desktop/liteos/Project2/BearPi_LiteOS/components/connectivity/agent_tiny/atiny_lwm2m\object_binary_app_data_container.c ****     int ret;
 126:C:/Users/lenovo/Desktop/liteos/Project2/BearPi_LiteOS/components/connectivity/agent_tiny/atiny_lwm2m\object_binary_app_data_container.c **** 
 127:C:/Users/lenovo/Desktop/liteos/Project2/BearPi_LiteOS/components/connectivity/agent_tiny/atiny_lwm2m\object_binary_app_data_container.c ****     for (i = 0 ; i < data_number ; i++)
 128:C:/Users/lenovo/Desktop/liteos/Project2/BearPi_LiteOS/components/connectivity/agent_tiny/atiny_lwm2m\object_binary_app_data_container.c ****     {
 129:C:/Users/lenovo/Desktop/liteos/Project2/BearPi_LiteOS/components/connectivity/agent_tiny/atiny_lwm2m\object_binary_app_data_container.c ****         switch (dataArrayP[i].id)
 130:C:/Users/lenovo/Desktop/liteos/Project2/BearPi_LiteOS/components/connectivity/agent_tiny/atiny_lwm2m\object_binary_app_data_container.c ****         {
 131:C:/Users/lenovo/Desktop/liteos/Project2/BearPi_LiteOS/components/connectivity/agent_tiny/atiny_lwm2m\object_binary_app_data_container.c ****         case 0:
 132:C:/Users/lenovo/Desktop/liteos/Project2/BearPi_LiteOS/components/connectivity/agent_tiny/atiny_lwm2m\object_binary_app_data_container.c ****             //printf("19/0/0 read\r\n");
 133:C:/Users/lenovo/Desktop/liteos/Project2/BearPi_LiteOS/components/connectivity/agent_tiny/atiny_lwm2m\object_binary_app_data_container.c ****             if(NULL == dataCfg)
 134:C:/Users/lenovo/Desktop/liteos/Project2/BearPi_LiteOS/components/connectivity/agent_tiny/atiny_lwm2m\object_binary_app_data_container.c ****             {
 135:C:/Users/lenovo/Desktop/liteos/Project2/BearPi_LiteOS/components/connectivity/agent_tiny/atiny_lwm2m\object_binary_app_data_container.c ****                 uint8_t *buf = lwm2m_malloc(sizeof(*buf));
 136:C:/Users/lenovo/Desktop/liteos/Project2/BearPi_LiteOS/components/connectivity/agent_tiny/atiny_lwm2m\object_binary_app_data_container.c ****                 if(NULL == buf)
 137:C:/Users/lenovo/Desktop/liteos/Project2/BearPi_LiteOS/components/connectivity/agent_tiny/atiny_lwm2m\object_binary_app_data_container.c ****                 {
 138:C:/Users/lenovo/Desktop/liteos/Project2/BearPi_LiteOS/components/connectivity/agent_tiny/atiny_lwm2m\object_binary_app_data_container.c ****                     ATINY_LOG(LOG_ERR, "malloc null");
 139:C:/Users/lenovo/Desktop/liteos/Project2/BearPi_LiteOS/components/connectivity/agent_tiny/atiny_lwm2m\object_binary_app_data_container.c ****                     return COAP_404_NOT_FOUND;
 140:C:/Users/lenovo/Desktop/liteos/Project2/BearPi_LiteOS/components/connectivity/agent_tiny/atiny_lwm2m\object_binary_app_data_container.c ****                 }
 141:C:/Users/lenovo/Desktop/liteos/Project2/BearPi_LiteOS/components/connectivity/agent_tiny/atiny_lwm2m\object_binary_app_data_container.c ****                 *buf = 0;
 142:C:/Users/lenovo/Desktop/liteos/Project2/BearPi_LiteOS/components/connectivity/agent_tiny/atiny_lwm2m\object_binary_app_data_container.c ****                 dataArrayP[i].id = 0;
 143:C:/Users/lenovo/Desktop/liteos/Project2/BearPi_LiteOS/components/connectivity/agent_tiny/atiny_lwm2m\object_binary_app_data_container.c ****                 dataArrayP[i].type = LWM2M_TYPE_OPAQUE;
 144:C:/Users/lenovo/Desktop/liteos/Project2/BearPi_LiteOS/components/connectivity/agent_tiny/atiny_lwm2m\object_binary_app_data_container.c ****                 dataArrayP[i].value.asBuffer.buffer = buf;
 145:C:/Users/lenovo/Desktop/liteos/Project2/BearPi_LiteOS/components/connectivity/agent_tiny/atiny_lwm2m\object_binary_app_data_container.c ****                 dataArrayP[i].value.asBuffer.length = 1;
 146:C:/Users/lenovo/Desktop/liteos/Project2/BearPi_LiteOS/components/connectivity/agent_tiny/atiny_lwm2m\object_binary_app_data_container.c ****             }
ARM GAS  c:\Users\lenovo\AppData\Local\Temp\cca7TJX2.s 			page 4


 147:C:/Users/lenovo/Desktop/liteos/Project2/BearPi_LiteOS/components/connectivity/agent_tiny/atiny_lwm2m\object_binary_app_data_container.c ****             else
 148:C:/Users/lenovo/Desktop/liteos/Project2/BearPi_LiteOS/components/connectivity/agent_tiny/atiny_lwm2m\object_binary_app_data_container.c ****             {
 149:C:/Users/lenovo/Desktop/liteos/Project2/BearPi_LiteOS/components/connectivity/agent_tiny/atiny_lwm2m\object_binary_app_data_container.c ****                 ret = atiny_dequeue_rpt_data((targetP->header), &data);
 150:C:/Users/lenovo/Desktop/liteos/Project2/BearPi_LiteOS/components/connectivity/agent_tiny/atiny_lwm2m\object_binary_app_data_container.c ****                 if (ret != ATINY_OK)
 151:C:/Users/lenovo/Desktop/liteos/Project2/BearPi_LiteOS/components/connectivity/agent_tiny/atiny_lwm2m\object_binary_app_data_container.c ****                 {
 152:C:/Users/lenovo/Desktop/liteos/Project2/BearPi_LiteOS/components/connectivity/agent_tiny/atiny_lwm2m\object_binary_app_data_container.c ****                     ATINY_LOG(LOG_INFO, "atiny_dequeue_rpt_data fail,ret=%d", ret);
 153:C:/Users/lenovo/Desktop/liteos/Project2/BearPi_LiteOS/components/connectivity/agent_tiny/atiny_lwm2m\object_binary_app_data_container.c ****                     return COAP_404_NOT_FOUND;
 154:C:/Users/lenovo/Desktop/liteos/Project2/BearPi_LiteOS/components/connectivity/agent_tiny/atiny_lwm2m\object_binary_app_data_container.c ****                 }
 155:C:/Users/lenovo/Desktop/liteos/Project2/BearPi_LiteOS/components/connectivity/agent_tiny/atiny_lwm2m\object_binary_app_data_container.c ****                 else
 156:C:/Users/lenovo/Desktop/liteos/Project2/BearPi_LiteOS/components/connectivity/agent_tiny/atiny_lwm2m\object_binary_app_data_container.c ****                 {
 157:C:/Users/lenovo/Desktop/liteos/Project2/BearPi_LiteOS/components/connectivity/agent_tiny/atiny_lwm2m\object_binary_app_data_container.c ****                     ATINY_LOG(LOG_DEBUG, "atiny_dequeue_rpt_data sucessfully");
 158:C:/Users/lenovo/Desktop/liteos/Project2/BearPi_LiteOS/components/connectivity/agent_tiny/atiny_lwm2m\object_binary_app_data_container.c ****                 }
 159:C:/Users/lenovo/Desktop/liteos/Project2/BearPi_LiteOS/components/connectivity/agent_tiny/atiny_lwm2m\object_binary_app_data_container.c **** 
 160:C:/Users/lenovo/Desktop/liteos/Project2/BearPi_LiteOS/components/connectivity/agent_tiny/atiny_lwm2m\object_binary_app_data_container.c ****                 dataArrayP[i].id = 0;
 161:C:/Users/lenovo/Desktop/liteos/Project2/BearPi_LiteOS/components/connectivity/agent_tiny/atiny_lwm2m\object_binary_app_data_container.c ****                 dataArrayP[i].type = LWM2M_TYPE_OPAQUE;
 162:C:/Users/lenovo/Desktop/liteos/Project2/BearPi_LiteOS/components/connectivity/agent_tiny/atiny_lwm2m\object_binary_app_data_container.c ****                 dataArrayP[i].value.asBuffer.buffer = data.buf;
 163:C:/Users/lenovo/Desktop/liteos/Project2/BearPi_LiteOS/components/connectivity/agent_tiny/atiny_lwm2m\object_binary_app_data_container.c ****                 dataArrayP[i].value.asBuffer.length = data.len;
 164:C:/Users/lenovo/Desktop/liteos/Project2/BearPi_LiteOS/components/connectivity/agent_tiny/atiny_lwm2m\object_binary_app_data_container.c ****                 dataCfg->type = data.type;
 165:C:/Users/lenovo/Desktop/liteos/Project2/BearPi_LiteOS/components/connectivity/agent_tiny/atiny_lwm2m\object_binary_app_data_container.c ****                 dataCfg->cookie = data.cookie;
 166:C:/Users/lenovo/Desktop/liteos/Project2/BearPi_LiteOS/components/connectivity/agent_tiny/atiny_lwm2m\object_binary_app_data_container.c ****                 dataCfg->callback = (lwm2m_data_process)data.callback;
 167:C:/Users/lenovo/Desktop/liteos/Project2/BearPi_LiteOS/components/connectivity/agent_tiny/atiny_lwm2m\object_binary_app_data_container.c ****             }
 168:C:/Users/lenovo/Desktop/liteos/Project2/BearPi_LiteOS/components/connectivity/agent_tiny/atiny_lwm2m\object_binary_app_data_container.c ****             break;
 169:C:/Users/lenovo/Desktop/liteos/Project2/BearPi_LiteOS/components/connectivity/agent_tiny/atiny_lwm2m\object_binary_app_data_container.c ****         default:
 170:C:/Users/lenovo/Desktop/liteos/Project2/BearPi_LiteOS/components/connectivity/agent_tiny/atiny_lwm2m\object_binary_app_data_container.c ****             return COAP_404_NOT_FOUND;
 171:C:/Users/lenovo/Desktop/liteos/Project2/BearPi_LiteOS/components/connectivity/agent_tiny/atiny_lwm2m\object_binary_app_data_container.c ****         }
 172:C:/Users/lenovo/Desktop/liteos/Project2/BearPi_LiteOS/components/connectivity/agent_tiny/atiny_lwm2m\object_binary_app_data_container.c ****     }
 173:C:/Users/lenovo/Desktop/liteos/Project2/BearPi_LiteOS/components/connectivity/agent_tiny/atiny_lwm2m\object_binary_app_data_container.c **** 
 174:C:/Users/lenovo/Desktop/liteos/Project2/BearPi_LiteOS/components/connectivity/agent_tiny/atiny_lwm2m\object_binary_app_data_container.c ****     return COAP_205_CONTENT;
 175:C:/Users/lenovo/Desktop/liteos/Project2/BearPi_LiteOS/components/connectivity/agent_tiny/atiny_lwm2m\object_binary_app_data_container.c **** }
 176:C:/Users/lenovo/Desktop/liteos/Project2/BearPi_LiteOS/components/connectivity/agent_tiny/atiny_lwm2m\object_binary_app_data_container.c **** 
 177:C:/Users/lenovo/Desktop/liteos/Project2/BearPi_LiteOS/components/connectivity/agent_tiny/atiny_lwm2m\object_binary_app_data_container.c **** static void prv_destroy_data_buf(int data_number, lwm2m_data_t *data_array)
 178:C:/Users/lenovo/Desktop/liteos/Project2/BearPi_LiteOS/components/connectivity/agent_tiny/atiny_lwm2m\object_binary_app_data_container.c **** {
  27              		.loc 1 178 0
  28              		.cfi_startproc
  29              		@ args = 0, pretend = 0, frame = 0
  30              		@ frame_needed = 0, uses_anonymous_args = 0
  31              	.LVL0:
  32 0000 F8B5     		push	{r3, r4, r5, r6, r7, lr}
  33              	.LCFI0:
  34              		.cfi_def_cfa_offset 24
  35              		.cfi_offset 3, -24
  36              		.cfi_offset 4, -20
  37              		.cfi_offset 5, -16
  38              		.cfi_offset 6, -12
  39              		.cfi_offset 7, -8
  40              		.cfi_offset 14, -4
  41 0002 0646     		mov	r6, r0
  42 0004 0F46     		mov	r7, r1
  43              	.LVL1:
 179:C:/Users/lenovo/Desktop/liteos/Project2/BearPi_LiteOS/components/connectivity/agent_tiny/atiny_lwm2m\object_binary_app_data_container.c ****     int i;
 180:C:/Users/lenovo/Desktop/liteos/Project2/BearPi_LiteOS/components/connectivity/agent_tiny/atiny_lwm2m\object_binary_app_data_container.c ****     for (i = 0 ; i < data_number; i++)
  44              		.loc 1 180 0
  45 0006 0024     		movs	r4, #0
  46 0008 00E0     		b	.L2
  47              	.LVL2:
  48              	.L3:
  49              		.loc 1 180 0 is_stmt 0 discriminator 2
ARM GAS  c:\Users\lenovo\AppData\Local\Temp\cca7TJX2.s 			page 5


  50 000a 0134     		adds	r4, r4, #1
  51              	.LVL3:
  52              	.L2:
  53              		.loc 1 180 0 discriminator 1
  54 000c B442     		cmp	r4, r6
  55 000e 0DDA     		bge	.L7
 181:C:/Users/lenovo/Desktop/liteos/Project2/BearPi_LiteOS/components/connectivity/agent_tiny/atiny_lwm2m\object_binary_app_data_container.c ****     {
 182:C:/Users/lenovo/Desktop/liteos/Project2/BearPi_LiteOS/components/connectivity/agent_tiny/atiny_lwm2m\object_binary_app_data_container.c ****         switch (data_array[i].id)
  56              		.loc 1 182 0 is_stmt 1
  57 0010 07EB0415 		add	r5, r7, r4, lsl #4
  58 0014 6B88     		ldrh	r3, [r5, #2]
  59 0016 002B     		cmp	r3, #0
  60 0018 F7D1     		bne	.L3
 183:C:/Users/lenovo/Desktop/liteos/Project2/BearPi_LiteOS/components/connectivity/agent_tiny/atiny_lwm2m\object_binary_app_data_container.c ****         {
 184:C:/Users/lenovo/Desktop/liteos/Project2/BearPi_LiteOS/components/connectivity/agent_tiny/atiny_lwm2m\object_binary_app_data_container.c ****         case 0:
 185:C:/Users/lenovo/Desktop/liteos/Project2/BearPi_LiteOS/components/connectivity/agent_tiny/atiny_lwm2m\object_binary_app_data_container.c ****             if(data_array[i].value.asBuffer.buffer != NULL)
  61              		.loc 1 185 0
  62 001a E868     		ldr	r0, [r5, #12]
  63 001c 0028     		cmp	r0, #0
  64 001e F4D0     		beq	.L3
 186:C:/Users/lenovo/Desktop/liteos/Project2/BearPi_LiteOS/components/connectivity/agent_tiny/atiny_lwm2m\object_binary_app_data_container.c ****             {
 187:C:/Users/lenovo/Desktop/liteos/Project2/BearPi_LiteOS/components/connectivity/agent_tiny/atiny_lwm2m\object_binary_app_data_container.c ****                 lwm2m_free(data_array[i].value.asBuffer.buffer);
  65              		.loc 1 187 0
  66 0020 FFF7FEFF 		bl	lwm2m_free
  67              	.LVL4:
 188:C:/Users/lenovo/Desktop/liteos/Project2/BearPi_LiteOS/components/connectivity/agent_tiny/atiny_lwm2m\object_binary_app_data_container.c ****                 data_array[i].value.asBuffer.buffer = NULL;
  68              		.loc 1 188 0
  69 0024 0023     		movs	r3, #0
  70 0026 EB60     		str	r3, [r5, #12]
 189:C:/Users/lenovo/Desktop/liteos/Project2/BearPi_LiteOS/components/connectivity/agent_tiny/atiny_lwm2m\object_binary_app_data_container.c ****                 data_array[i].value.asBuffer.length = 0;
  71              		.loc 1 189 0
  72 0028 AB60     		str	r3, [r5, #8]
  73 002a EEE7     		b	.L3
  74              	.L7:
 190:C:/Users/lenovo/Desktop/liteos/Project2/BearPi_LiteOS/components/connectivity/agent_tiny/atiny_lwm2m\object_binary_app_data_container.c ****             }
 191:C:/Users/lenovo/Desktop/liteos/Project2/BearPi_LiteOS/components/connectivity/agent_tiny/atiny_lwm2m\object_binary_app_data_container.c ****             break;
 192:C:/Users/lenovo/Desktop/liteos/Project2/BearPi_LiteOS/components/connectivity/agent_tiny/atiny_lwm2m\object_binary_app_data_container.c ****         default:
 193:C:/Users/lenovo/Desktop/liteos/Project2/BearPi_LiteOS/components/connectivity/agent_tiny/atiny_lwm2m\object_binary_app_data_container.c ****             break;
 194:C:/Users/lenovo/Desktop/liteos/Project2/BearPi_LiteOS/components/connectivity/agent_tiny/atiny_lwm2m\object_binary_app_data_container.c ****         }
 195:C:/Users/lenovo/Desktop/liteos/Project2/BearPi_LiteOS/components/connectivity/agent_tiny/atiny_lwm2m\object_binary_app_data_container.c **** 
 196:C:/Users/lenovo/Desktop/liteos/Project2/BearPi_LiteOS/components/connectivity/agent_tiny/atiny_lwm2m\object_binary_app_data_container.c ****     }
 197:C:/Users/lenovo/Desktop/liteos/Project2/BearPi_LiteOS/components/connectivity/agent_tiny/atiny_lwm2m\object_binary_app_data_container.c **** 
 198:C:/Users/lenovo/Desktop/liteos/Project2/BearPi_LiteOS/components/connectivity/agent_tiny/atiny_lwm2m\object_binary_app_data_container.c **** }
  75              		.loc 1 198 0
  76 002c F8BD     		pop	{r3, r4, r5, r6, r7, pc}
  77              		.cfi_endproc
  78              	.LFE146:
  80              		.section	.text.prv_delete,"ax",%progbits
  81              		.align	1
  82              		.syntax unified
  83              		.thumb
  84              		.thumb_func
  85              		.fpu fpv4-sp-d16
  87              	prv_delete:
  88              	.LFB150:
 199:C:/Users/lenovo/Desktop/liteos/Project2/BearPi_LiteOS/components/connectivity/agent_tiny/atiny_lwm2m\object_binary_app_data_container.c **** 
 200:C:/Users/lenovo/Desktop/liteos/Project2/BearPi_LiteOS/components/connectivity/agent_tiny/atiny_lwm2m\object_binary_app_data_container.c **** static uint8_t prv_read(uint16_t instanceId,
ARM GAS  c:\Users\lenovo\AppData\Local\Temp\cca7TJX2.s 			page 6


 201:C:/Users/lenovo/Desktop/liteos/Project2/BearPi_LiteOS/components/connectivity/agent_tiny/atiny_lwm2m\object_binary_app_data_container.c ****                         int *numDataP,
 202:C:/Users/lenovo/Desktop/liteos/Project2/BearPi_LiteOS/components/connectivity/agent_tiny/atiny_lwm2m\object_binary_app_data_container.c ****                         lwm2m_data_t **dataArrayP,
 203:C:/Users/lenovo/Desktop/liteos/Project2/BearPi_LiteOS/components/connectivity/agent_tiny/atiny_lwm2m\object_binary_app_data_container.c ****                         lwm2m_data_cfg_t *dataCfg,
 204:C:/Users/lenovo/Desktop/liteos/Project2/BearPi_LiteOS/components/connectivity/agent_tiny/atiny_lwm2m\object_binary_app_data_container.c ****                         lwm2m_object_t *objectP)
 205:C:/Users/lenovo/Desktop/liteos/Project2/BearPi_LiteOS/components/connectivity/agent_tiny/atiny_lwm2m\object_binary_app_data_container.c **** {
 206:C:/Users/lenovo/Desktop/liteos/Project2/BearPi_LiteOS/components/connectivity/agent_tiny/atiny_lwm2m\object_binary_app_data_container.c ****     plat_instance_t *targetP;
 207:C:/Users/lenovo/Desktop/liteos/Project2/BearPi_LiteOS/components/connectivity/agent_tiny/atiny_lwm2m\object_binary_app_data_container.c ****     uint8_t ret;
 208:C:/Users/lenovo/Desktop/liteos/Project2/BearPi_LiteOS/components/connectivity/agent_tiny/atiny_lwm2m\object_binary_app_data_container.c ****     int new_data_flag = false;
 209:C:/Users/lenovo/Desktop/liteos/Project2/BearPi_LiteOS/components/connectivity/agent_tiny/atiny_lwm2m\object_binary_app_data_container.c **** 
 210:C:/Users/lenovo/Desktop/liteos/Project2/BearPi_LiteOS/components/connectivity/agent_tiny/atiny_lwm2m\object_binary_app_data_container.c **** 
 211:C:/Users/lenovo/Desktop/liteos/Project2/BearPi_LiteOS/components/connectivity/agent_tiny/atiny_lwm2m\object_binary_app_data_container.c ****     targetP = (plat_instance_t *)lwm2m_list_find(objectP->instanceList, instanceId);
 212:C:/Users/lenovo/Desktop/liteos/Project2/BearPi_LiteOS/components/connectivity/agent_tiny/atiny_lwm2m\object_binary_app_data_container.c ****     if (NULL == targetP)
 213:C:/Users/lenovo/Desktop/liteos/Project2/BearPi_LiteOS/components/connectivity/agent_tiny/atiny_lwm2m\object_binary_app_data_container.c ****     {
 214:C:/Users/lenovo/Desktop/liteos/Project2/BearPi_LiteOS/components/connectivity/agent_tiny/atiny_lwm2m\object_binary_app_data_container.c ****         ATINY_LOG(LOG_ERR, "plat inst not found %d", instanceId);
 215:C:/Users/lenovo/Desktop/liteos/Project2/BearPi_LiteOS/components/connectivity/agent_tiny/atiny_lwm2m\object_binary_app_data_container.c ****         return COAP_404_NOT_FOUND;
 216:C:/Users/lenovo/Desktop/liteos/Project2/BearPi_LiteOS/components/connectivity/agent_tiny/atiny_lwm2m\object_binary_app_data_container.c ****     }
 217:C:/Users/lenovo/Desktop/liteos/Project2/BearPi_LiteOS/components/connectivity/agent_tiny/atiny_lwm2m\object_binary_app_data_container.c **** 
 218:C:/Users/lenovo/Desktop/liteos/Project2/BearPi_LiteOS/components/connectivity/agent_tiny/atiny_lwm2m\object_binary_app_data_container.c ****     if (*numDataP == 0)
 219:C:/Users/lenovo/Desktop/liteos/Project2/BearPi_LiteOS/components/connectivity/agent_tiny/atiny_lwm2m\object_binary_app_data_container.c ****     {
 220:C:/Users/lenovo/Desktop/liteos/Project2/BearPi_LiteOS/components/connectivity/agent_tiny/atiny_lwm2m\object_binary_app_data_container.c ****         *dataArrayP = lwm2m_data_new(1);
 221:C:/Users/lenovo/Desktop/liteos/Project2/BearPi_LiteOS/components/connectivity/agent_tiny/atiny_lwm2m\object_binary_app_data_container.c ****         if (*dataArrayP == NULL)
 222:C:/Users/lenovo/Desktop/liteos/Project2/BearPi_LiteOS/components/connectivity/agent_tiny/atiny_lwm2m\object_binary_app_data_container.c ****         {
 223:C:/Users/lenovo/Desktop/liteos/Project2/BearPi_LiteOS/components/connectivity/agent_tiny/atiny_lwm2m\object_binary_app_data_container.c ****             ATINY_LOG(LOG_ERR, "lwm2m_data_new null");
 224:C:/Users/lenovo/Desktop/liteos/Project2/BearPi_LiteOS/components/connectivity/agent_tiny/atiny_lwm2m\object_binary_app_data_container.c ****             return COAP_500_INTERNAL_SERVER_ERROR;
 225:C:/Users/lenovo/Desktop/liteos/Project2/BearPi_LiteOS/components/connectivity/agent_tiny/atiny_lwm2m\object_binary_app_data_container.c ****         }
 226:C:/Users/lenovo/Desktop/liteos/Project2/BearPi_LiteOS/components/connectivity/agent_tiny/atiny_lwm2m\object_binary_app_data_container.c **** 
 227:C:/Users/lenovo/Desktop/liteos/Project2/BearPi_LiteOS/components/connectivity/agent_tiny/atiny_lwm2m\object_binary_app_data_container.c ****         *numDataP = 1;
 228:C:/Users/lenovo/Desktop/liteos/Project2/BearPi_LiteOS/components/connectivity/agent_tiny/atiny_lwm2m\object_binary_app_data_container.c ****         (*dataArrayP)[0].id = 0;
 229:C:/Users/lenovo/Desktop/liteos/Project2/BearPi_LiteOS/components/connectivity/agent_tiny/atiny_lwm2m\object_binary_app_data_container.c ****         new_data_flag = true;
 230:C:/Users/lenovo/Desktop/liteos/Project2/BearPi_LiteOS/components/connectivity/agent_tiny/atiny_lwm2m\object_binary_app_data_container.c ****     }
 231:C:/Users/lenovo/Desktop/liteos/Project2/BearPi_LiteOS/components/connectivity/agent_tiny/atiny_lwm2m\object_binary_app_data_container.c **** 
 232:C:/Users/lenovo/Desktop/liteos/Project2/BearPi_LiteOS/components/connectivity/agent_tiny/atiny_lwm2m\object_binary_app_data_container.c ****     ret = prv_read_data(targetP, *numDataP, *dataArrayP, dataCfg);
 233:C:/Users/lenovo/Desktop/liteos/Project2/BearPi_LiteOS/components/connectivity/agent_tiny/atiny_lwm2m\object_binary_app_data_container.c ****     if(ret != COAP_205_CONTENT)
 234:C:/Users/lenovo/Desktop/liteos/Project2/BearPi_LiteOS/components/connectivity/agent_tiny/atiny_lwm2m\object_binary_app_data_container.c ****     {
 235:C:/Users/lenovo/Desktop/liteos/Project2/BearPi_LiteOS/components/connectivity/agent_tiny/atiny_lwm2m\object_binary_app_data_container.c **** 
 236:C:/Users/lenovo/Desktop/liteos/Project2/BearPi_LiteOS/components/connectivity/agent_tiny/atiny_lwm2m\object_binary_app_data_container.c ****         prv_destroy_data_buf(*numDataP, *dataArrayP);
 237:C:/Users/lenovo/Desktop/liteos/Project2/BearPi_LiteOS/components/connectivity/agent_tiny/atiny_lwm2m\object_binary_app_data_container.c ****         if(new_data_flag)
 238:C:/Users/lenovo/Desktop/liteos/Project2/BearPi_LiteOS/components/connectivity/agent_tiny/atiny_lwm2m\object_binary_app_data_container.c ****         {
 239:C:/Users/lenovo/Desktop/liteos/Project2/BearPi_LiteOS/components/connectivity/agent_tiny/atiny_lwm2m\object_binary_app_data_container.c ****             lwm2m_free(*dataArrayP);
 240:C:/Users/lenovo/Desktop/liteos/Project2/BearPi_LiteOS/components/connectivity/agent_tiny/atiny_lwm2m\object_binary_app_data_container.c ****             *dataArrayP = NULL;
 241:C:/Users/lenovo/Desktop/liteos/Project2/BearPi_LiteOS/components/connectivity/agent_tiny/atiny_lwm2m\object_binary_app_data_container.c ****         }
 242:C:/Users/lenovo/Desktop/liteos/Project2/BearPi_LiteOS/components/connectivity/agent_tiny/atiny_lwm2m\object_binary_app_data_container.c ****     }
 243:C:/Users/lenovo/Desktop/liteos/Project2/BearPi_LiteOS/components/connectivity/agent_tiny/atiny_lwm2m\object_binary_app_data_container.c **** 
 244:C:/Users/lenovo/Desktop/liteos/Project2/BearPi_LiteOS/components/connectivity/agent_tiny/atiny_lwm2m\object_binary_app_data_container.c ****     return ret;
 245:C:/Users/lenovo/Desktop/liteos/Project2/BearPi_LiteOS/components/connectivity/agent_tiny/atiny_lwm2m\object_binary_app_data_container.c **** }
 246:C:/Users/lenovo/Desktop/liteos/Project2/BearPi_LiteOS/components/connectivity/agent_tiny/atiny_lwm2m\object_binary_app_data_container.c **** 
 247:C:/Users/lenovo/Desktop/liteos/Project2/BearPi_LiteOS/components/connectivity/agent_tiny/atiny_lwm2m\object_binary_app_data_container.c **** static uint8_t prv_discover(uint16_t instanceId,
 248:C:/Users/lenovo/Desktop/liteos/Project2/BearPi_LiteOS/components/connectivity/agent_tiny/atiny_lwm2m\object_binary_app_data_container.c ****                             int *numDataP,
 249:C:/Users/lenovo/Desktop/liteos/Project2/BearPi_LiteOS/components/connectivity/agent_tiny/atiny_lwm2m\object_binary_app_data_container.c ****                             lwm2m_data_t **dataArrayP,
 250:C:/Users/lenovo/Desktop/liteos/Project2/BearPi_LiteOS/components/connectivity/agent_tiny/atiny_lwm2m\object_binary_app_data_container.c ****                             lwm2m_object_t *objectP)
 251:C:/Users/lenovo/Desktop/liteos/Project2/BearPi_LiteOS/components/connectivity/agent_tiny/atiny_lwm2m\object_binary_app_data_container.c **** {
 252:C:/Users/lenovo/Desktop/liteos/Project2/BearPi_LiteOS/components/connectivity/agent_tiny/atiny_lwm2m\object_binary_app_data_container.c ****     int i;
 253:C:/Users/lenovo/Desktop/liteos/Project2/BearPi_LiteOS/components/connectivity/agent_tiny/atiny_lwm2m\object_binary_app_data_container.c **** 
 254:C:/Users/lenovo/Desktop/liteos/Project2/BearPi_LiteOS/components/connectivity/agent_tiny/atiny_lwm2m\object_binary_app_data_container.c ****     // is the server asking for the full object ?
 255:C:/Users/lenovo/Desktop/liteos/Project2/BearPi_LiteOS/components/connectivity/agent_tiny/atiny_lwm2m\object_binary_app_data_container.c ****     if (*numDataP == 0)
 256:C:/Users/lenovo/Desktop/liteos/Project2/BearPi_LiteOS/components/connectivity/agent_tiny/atiny_lwm2m\object_binary_app_data_container.c ****     {
 257:C:/Users/lenovo/Desktop/liteos/Project2/BearPi_LiteOS/components/connectivity/agent_tiny/atiny_lwm2m\object_binary_app_data_container.c ****         *dataArrayP = lwm2m_data_new(3);
ARM GAS  c:\Users\lenovo\AppData\Local\Temp\cca7TJX2.s 			page 7


 258:C:/Users/lenovo/Desktop/liteos/Project2/BearPi_LiteOS/components/connectivity/agent_tiny/atiny_lwm2m\object_binary_app_data_container.c ****         if (*dataArrayP == NULL) return COAP_500_INTERNAL_SERVER_ERROR;
 259:C:/Users/lenovo/Desktop/liteos/Project2/BearPi_LiteOS/components/connectivity/agent_tiny/atiny_lwm2m\object_binary_app_data_container.c ****         *numDataP = 3;
 260:C:/Users/lenovo/Desktop/liteos/Project2/BearPi_LiteOS/components/connectivity/agent_tiny/atiny_lwm2m\object_binary_app_data_container.c ****         (*dataArrayP)[0].id = 1;
 261:C:/Users/lenovo/Desktop/liteos/Project2/BearPi_LiteOS/components/connectivity/agent_tiny/atiny_lwm2m\object_binary_app_data_container.c ****         (*dataArrayP)[1].id = 2;
 262:C:/Users/lenovo/Desktop/liteos/Project2/BearPi_LiteOS/components/connectivity/agent_tiny/atiny_lwm2m\object_binary_app_data_container.c ****         (*dataArrayP)[2].id = 3;
 263:C:/Users/lenovo/Desktop/liteos/Project2/BearPi_LiteOS/components/connectivity/agent_tiny/atiny_lwm2m\object_binary_app_data_container.c ****     }
 264:C:/Users/lenovo/Desktop/liteos/Project2/BearPi_LiteOS/components/connectivity/agent_tiny/atiny_lwm2m\object_binary_app_data_container.c ****     else
 265:C:/Users/lenovo/Desktop/liteos/Project2/BearPi_LiteOS/components/connectivity/agent_tiny/atiny_lwm2m\object_binary_app_data_container.c ****     {
 266:C:/Users/lenovo/Desktop/liteos/Project2/BearPi_LiteOS/components/connectivity/agent_tiny/atiny_lwm2m\object_binary_app_data_container.c ****         for (i = 0; i < *numDataP; i++)
 267:C:/Users/lenovo/Desktop/liteos/Project2/BearPi_LiteOS/components/connectivity/agent_tiny/atiny_lwm2m\object_binary_app_data_container.c ****         {
 268:C:/Users/lenovo/Desktop/liteos/Project2/BearPi_LiteOS/components/connectivity/agent_tiny/atiny_lwm2m\object_binary_app_data_container.c ****             switch ((*dataArrayP)[i].id)
 269:C:/Users/lenovo/Desktop/liteos/Project2/BearPi_LiteOS/components/connectivity/agent_tiny/atiny_lwm2m\object_binary_app_data_container.c ****             {
 270:C:/Users/lenovo/Desktop/liteos/Project2/BearPi_LiteOS/components/connectivity/agent_tiny/atiny_lwm2m\object_binary_app_data_container.c ****             case 1:
 271:C:/Users/lenovo/Desktop/liteos/Project2/BearPi_LiteOS/components/connectivity/agent_tiny/atiny_lwm2m\object_binary_app_data_container.c ****             case 2:
 272:C:/Users/lenovo/Desktop/liteos/Project2/BearPi_LiteOS/components/connectivity/agent_tiny/atiny_lwm2m\object_binary_app_data_container.c ****             case 3:
 273:C:/Users/lenovo/Desktop/liteos/Project2/BearPi_LiteOS/components/connectivity/agent_tiny/atiny_lwm2m\object_binary_app_data_container.c ****                 break;
 274:C:/Users/lenovo/Desktop/liteos/Project2/BearPi_LiteOS/components/connectivity/agent_tiny/atiny_lwm2m\object_binary_app_data_container.c ****             default:
 275:C:/Users/lenovo/Desktop/liteos/Project2/BearPi_LiteOS/components/connectivity/agent_tiny/atiny_lwm2m\object_binary_app_data_container.c ****                 return COAP_404_NOT_FOUND;
 276:C:/Users/lenovo/Desktop/liteos/Project2/BearPi_LiteOS/components/connectivity/agent_tiny/atiny_lwm2m\object_binary_app_data_container.c ****             }
 277:C:/Users/lenovo/Desktop/liteos/Project2/BearPi_LiteOS/components/connectivity/agent_tiny/atiny_lwm2m\object_binary_app_data_container.c ****         }
 278:C:/Users/lenovo/Desktop/liteos/Project2/BearPi_LiteOS/components/connectivity/agent_tiny/atiny_lwm2m\object_binary_app_data_container.c ****     }
 279:C:/Users/lenovo/Desktop/liteos/Project2/BearPi_LiteOS/components/connectivity/agent_tiny/atiny_lwm2m\object_binary_app_data_container.c **** 
 280:C:/Users/lenovo/Desktop/liteos/Project2/BearPi_LiteOS/components/connectivity/agent_tiny/atiny_lwm2m\object_binary_app_data_container.c ****     return COAP_205_CONTENT;
 281:C:/Users/lenovo/Desktop/liteos/Project2/BearPi_LiteOS/components/connectivity/agent_tiny/atiny_lwm2m\object_binary_app_data_container.c **** }
 282:C:/Users/lenovo/Desktop/liteos/Project2/BearPi_LiteOS/components/connectivity/agent_tiny/atiny_lwm2m\object_binary_app_data_container.c **** 
 283:C:/Users/lenovo/Desktop/liteos/Project2/BearPi_LiteOS/components/connectivity/agent_tiny/atiny_lwm2m\object_binary_app_data_container.c **** static uint8_t prv_write(uint16_t instanceId,
 284:C:/Users/lenovo/Desktop/liteos/Project2/BearPi_LiteOS/components/connectivity/agent_tiny/atiny_lwm2m\object_binary_app_data_container.c ****                          int numData,
 285:C:/Users/lenovo/Desktop/liteos/Project2/BearPi_LiteOS/components/connectivity/agent_tiny/atiny_lwm2m\object_binary_app_data_container.c ****                          lwm2m_data_t *dataArray,
 286:C:/Users/lenovo/Desktop/liteos/Project2/BearPi_LiteOS/components/connectivity/agent_tiny/atiny_lwm2m\object_binary_app_data_container.c ****                          lwm2m_object_t *objectP)
 287:C:/Users/lenovo/Desktop/liteos/Project2/BearPi_LiteOS/components/connectivity/agent_tiny/atiny_lwm2m\object_binary_app_data_container.c **** {
 288:C:/Users/lenovo/Desktop/liteos/Project2/BearPi_LiteOS/components/connectivity/agent_tiny/atiny_lwm2m\object_binary_app_data_container.c ****     plat_instance_t *targetP;
 289:C:/Users/lenovo/Desktop/liteos/Project2/BearPi_LiteOS/components/connectivity/agent_tiny/atiny_lwm2m\object_binary_app_data_container.c ****     int i;
 290:C:/Users/lenovo/Desktop/liteos/Project2/BearPi_LiteOS/components/connectivity/agent_tiny/atiny_lwm2m\object_binary_app_data_container.c **** 
 291:C:/Users/lenovo/Desktop/liteos/Project2/BearPi_LiteOS/components/connectivity/agent_tiny/atiny_lwm2m\object_binary_app_data_container.c ****     targetP = (plat_instance_t *)lwm2m_list_find(objectP->instanceList, instanceId);
 292:C:/Users/lenovo/Desktop/liteos/Project2/BearPi_LiteOS/components/connectivity/agent_tiny/atiny_lwm2m\object_binary_app_data_container.c ****     if (NULL == targetP) return COAP_404_NOT_FOUND;
 293:C:/Users/lenovo/Desktop/liteos/Project2/BearPi_LiteOS/components/connectivity/agent_tiny/atiny_lwm2m\object_binary_app_data_container.c **** 
 294:C:/Users/lenovo/Desktop/liteos/Project2/BearPi_LiteOS/components/connectivity/agent_tiny/atiny_lwm2m\object_binary_app_data_container.c ****     for (i = 0 ; i < numData ; i++)
 295:C:/Users/lenovo/Desktop/liteos/Project2/BearPi_LiteOS/components/connectivity/agent_tiny/atiny_lwm2m\object_binary_app_data_container.c ****     {
 296:C:/Users/lenovo/Desktop/liteos/Project2/BearPi_LiteOS/components/connectivity/agent_tiny/atiny_lwm2m\object_binary_app_data_container.c ****         switch (dataArray[i].id)
 297:C:/Users/lenovo/Desktop/liteos/Project2/BearPi_LiteOS/components/connectivity/agent_tiny/atiny_lwm2m\object_binary_app_data_container.c ****         {
 298:C:/Users/lenovo/Desktop/liteos/Project2/BearPi_LiteOS/components/connectivity/agent_tiny/atiny_lwm2m\object_binary_app_data_container.c ****         case 0:
 299:C:/Users/lenovo/Desktop/liteos/Project2/BearPi_LiteOS/components/connectivity/agent_tiny/atiny_lwm2m\object_binary_app_data_container.c ****         {
 300:C:/Users/lenovo/Desktop/liteos/Project2/BearPi_LiteOS/components/connectivity/agent_tiny/atiny_lwm2m\object_binary_app_data_container.c ****             (void)atiny_cmd_ioctl(ATINY_WRITE_APP_DATA, (char *)(dataArray[i].value.asBuffer.buffer
 301:C:/Users/lenovo/Desktop/liteos/Project2/BearPi_LiteOS/components/connectivity/agent_tiny/atiny_lwm2m\object_binary_app_data_container.c ****             break;
 302:C:/Users/lenovo/Desktop/liteos/Project2/BearPi_LiteOS/components/connectivity/agent_tiny/atiny_lwm2m\object_binary_app_data_container.c ****         }
 303:C:/Users/lenovo/Desktop/liteos/Project2/BearPi_LiteOS/components/connectivity/agent_tiny/atiny_lwm2m\object_binary_app_data_container.c ****         default:
 304:C:/Users/lenovo/Desktop/liteos/Project2/BearPi_LiteOS/components/connectivity/agent_tiny/atiny_lwm2m\object_binary_app_data_container.c ****             return COAP_404_NOT_FOUND;
 305:C:/Users/lenovo/Desktop/liteos/Project2/BearPi_LiteOS/components/connectivity/agent_tiny/atiny_lwm2m\object_binary_app_data_container.c ****         }
 306:C:/Users/lenovo/Desktop/liteos/Project2/BearPi_LiteOS/components/connectivity/agent_tiny/atiny_lwm2m\object_binary_app_data_container.c ****     }
 307:C:/Users/lenovo/Desktop/liteos/Project2/BearPi_LiteOS/components/connectivity/agent_tiny/atiny_lwm2m\object_binary_app_data_container.c **** 
 308:C:/Users/lenovo/Desktop/liteos/Project2/BearPi_LiteOS/components/connectivity/agent_tiny/atiny_lwm2m\object_binary_app_data_container.c ****     return COAP_204_CHANGED;
 309:C:/Users/lenovo/Desktop/liteos/Project2/BearPi_LiteOS/components/connectivity/agent_tiny/atiny_lwm2m\object_binary_app_data_container.c **** }
 310:C:/Users/lenovo/Desktop/liteos/Project2/BearPi_LiteOS/components/connectivity/agent_tiny/atiny_lwm2m\object_binary_app_data_container.c **** 
 311:C:/Users/lenovo/Desktop/liteos/Project2/BearPi_LiteOS/components/connectivity/agent_tiny/atiny_lwm2m\object_binary_app_data_container.c **** 
 312:C:/Users/lenovo/Desktop/liteos/Project2/BearPi_LiteOS/components/connectivity/agent_tiny/atiny_lwm2m\object_binary_app_data_container.c **** static uint8_t prv_delete(uint16_t id,
 313:C:/Users/lenovo/Desktop/liteos/Project2/BearPi_LiteOS/components/connectivity/agent_tiny/atiny_lwm2m\object_binary_app_data_container.c ****                           lwm2m_object_t *objectP)
 314:C:/Users/lenovo/Desktop/liteos/Project2/BearPi_LiteOS/components/connectivity/agent_tiny/atiny_lwm2m\object_binary_app_data_container.c **** {
ARM GAS  c:\Users\lenovo\AppData\Local\Temp\cca7TJX2.s 			page 8


  89              		.loc 1 314 0
  90              		.cfi_startproc
  91              		@ args = 0, pretend = 0, frame = 16
  92              		@ frame_needed = 0, uses_anonymous_args = 0
  93              	.LVL5:
  94 0000 10B5     		push	{r4, lr}
  95              	.LCFI1:
  96              		.cfi_def_cfa_offset 8
  97              		.cfi_offset 4, -8
  98              		.cfi_offset 14, -4
  99 0002 84B0     		sub	sp, sp, #16
 100              	.LCFI2:
 101              		.cfi_def_cfa_offset 24
 102 0004 0C46     		mov	r4, r1
 315:C:/Users/lenovo/Desktop/liteos/Project2/BearPi_LiteOS/components/connectivity/agent_tiny/atiny_lwm2m\object_binary_app_data_container.c ****     plat_instance_t *targetP;
 316:C:/Users/lenovo/Desktop/liteos/Project2/BearPi_LiteOS/components/connectivity/agent_tiny/atiny_lwm2m\object_binary_app_data_container.c ****     lwm2m_uri_t uri;
 317:C:/Users/lenovo/Desktop/liteos/Project2/BearPi_LiteOS/components/connectivity/agent_tiny/atiny_lwm2m\object_binary_app_data_container.c **** 
 318:C:/Users/lenovo/Desktop/liteos/Project2/BearPi_LiteOS/components/connectivity/agent_tiny/atiny_lwm2m\object_binary_app_data_container.c ****     objectP->instanceList = lwm2m_list_remove(objectP->instanceList, id, (lwm2m_list_t **)&targetP)
 103              		.loc 1 318 0
 104 0006 03AA     		add	r2, sp, #12
 105 0008 0146     		mov	r1, r0
 106              	.LVL6:
 107 000a A068     		ldr	r0, [r4, #8]
 108              	.LVL7:
 109 000c FFF7FEFF 		bl	lwm2m_list_remove
 110              	.LVL8:
 111 0010 A060     		str	r0, [r4, #8]
 319:C:/Users/lenovo/Desktop/liteos/Project2/BearPi_LiteOS/components/connectivity/agent_tiny/atiny_lwm2m\object_binary_app_data_container.c ****     if (NULL == targetP) return COAP_404_NOT_FOUND;
 112              		.loc 1 319 0
 113 0012 039B     		ldr	r3, [sp, #12]
 114 0014 A3B1     		cbz	r3, .L10
 320:C:/Users/lenovo/Desktop/liteos/Project2/BearPi_LiteOS/components/connectivity/agent_tiny/atiny_lwm2m\object_binary_app_data_container.c **** 
 321:C:/Users/lenovo/Desktop/liteos/Project2/BearPi_LiteOS/components/connectivity/agent_tiny/atiny_lwm2m\object_binary_app_data_container.c ****     get_resource_uri(objectP->objID,  targetP->shortID,  BINARY_APP_DATA_RES_ID, &uri);
 115              		.loc 1 321 0
 116 0016 A288     		ldrh	r2, [r4, #4]
 117 0018 9B88     		ldrh	r3, [r3, #4]
 118              	.LVL9:
 119              	.LBB13:
 120              	.LBB14:
 121              		.file 2 "C:/Users/lenovo/Desktop/liteos/Project2/BearPi_LiteOS/components/connectivity/agent_tiny/
   1:C:/Users/lenovo/Desktop/liteos/Project2/BearPi_LiteOS/components/connectivity/agent_tiny/atiny_lwm2m\atiny_rpt.h **** /*----------------------------------------------------------------------------
   2:C:/Users/lenovo/Desktop/liteos/Project2/BearPi_LiteOS/components/connectivity/agent_tiny/atiny_lwm2m\atiny_rpt.h ****  * Copyright (c) <2016-2018>, <Huawei Technologies Co., Ltd>
   3:C:/Users/lenovo/Desktop/liteos/Project2/BearPi_LiteOS/components/connectivity/agent_tiny/atiny_lwm2m\atiny_rpt.h ****  * All rights reserved.
   4:C:/Users/lenovo/Desktop/liteos/Project2/BearPi_LiteOS/components/connectivity/agent_tiny/atiny_lwm2m\atiny_rpt.h ****  * Redistribution and use in source and binary forms, with or without modification,
   5:C:/Users/lenovo/Desktop/liteos/Project2/BearPi_LiteOS/components/connectivity/agent_tiny/atiny_lwm2m\atiny_rpt.h ****  * are permitted provided that the following conditions are met:
   6:C:/Users/lenovo/Desktop/liteos/Project2/BearPi_LiteOS/components/connectivity/agent_tiny/atiny_lwm2m\atiny_rpt.h ****  * 1. Redistributions of source code must retain the above copyright notice, this list of
   7:C:/Users/lenovo/Desktop/liteos/Project2/BearPi_LiteOS/components/connectivity/agent_tiny/atiny_lwm2m\atiny_rpt.h ****  * conditions and the following disclaimer.
   8:C:/Users/lenovo/Desktop/liteos/Project2/BearPi_LiteOS/components/connectivity/agent_tiny/atiny_lwm2m\atiny_rpt.h ****  * 2. Redistributions in binary form must reproduce the above copyright notice, this list
   9:C:/Users/lenovo/Desktop/liteos/Project2/BearPi_LiteOS/components/connectivity/agent_tiny/atiny_lwm2m\atiny_rpt.h ****  * of conditions and the following disclaimer in the documentation and/or other materials
  10:C:/Users/lenovo/Desktop/liteos/Project2/BearPi_LiteOS/components/connectivity/agent_tiny/atiny_lwm2m\atiny_rpt.h ****  * provided with the distribution.
  11:C:/Users/lenovo/Desktop/liteos/Project2/BearPi_LiteOS/components/connectivity/agent_tiny/atiny_lwm2m\atiny_rpt.h ****  * 3. Neither the name of the copyright holder nor the names of its contributors may be used
  12:C:/Users/lenovo/Desktop/liteos/Project2/BearPi_LiteOS/components/connectivity/agent_tiny/atiny_lwm2m\atiny_rpt.h ****  * to endorse or promote products derived from this software without specific prior written
  13:C:/Users/lenovo/Desktop/liteos/Project2/BearPi_LiteOS/components/connectivity/agent_tiny/atiny_lwm2m\atiny_rpt.h ****  * permission.
  14:C:/Users/lenovo/Desktop/liteos/Project2/BearPi_LiteOS/components/connectivity/agent_tiny/atiny_lwm2m\atiny_rpt.h ****  * THIS SOFTWARE IS PROVIDED BY THE COPYRIGHT HOLDERS AND CONTRIBUTORS
  15:C:/Users/lenovo/Desktop/liteos/Project2/BearPi_LiteOS/components/connectivity/agent_tiny/atiny_lwm2m\atiny_rpt.h ****  * "AS IS" AND ANY EXPRESS OR IMPLIED WARRANTIES, INCLUDING, BUT NOT LIMITED TO,
  16:C:/Users/lenovo/Desktop/liteos/Project2/BearPi_LiteOS/components/connectivity/agent_tiny/atiny_lwm2m\atiny_rpt.h ****  * THE IMPLIED WARRANTIES OF MERCHANTABILITY AND FITNESS FOR A PARTICULAR
  17:C:/Users/lenovo/Desktop/liteos/Project2/BearPi_LiteOS/components/connectivity/agent_tiny/atiny_lwm2m\atiny_rpt.h ****  * PURPOSE ARE DISCLAIMED. IN NO EVENT SHALL THE COPYRIGHT HOLDER OR
ARM GAS  c:\Users\lenovo\AppData\Local\Temp\cca7TJX2.s 			page 9


  18:C:/Users/lenovo/Desktop/liteos/Project2/BearPi_LiteOS/components/connectivity/agent_tiny/atiny_lwm2m\atiny_rpt.h ****  * CONTRIBUTORS BE LIABLE FOR ANY DIRECT, INDIRECT, INCIDENTAL, SPECIAL,
  19:C:/Users/lenovo/Desktop/liteos/Project2/BearPi_LiteOS/components/connectivity/agent_tiny/atiny_lwm2m\atiny_rpt.h ****  * EXEMPLARY, OR CONSEQUENTIAL DAMAGES (INCLUDING, BUT NOT LIMITED TO,
  20:C:/Users/lenovo/Desktop/liteos/Project2/BearPi_LiteOS/components/connectivity/agent_tiny/atiny_lwm2m\atiny_rpt.h ****  * PROCUREMENT OF SUBSTITUTE GOODS OR SERVICES; LOSS OF USE, DATA, OR PROFITS;
  21:C:/Users/lenovo/Desktop/liteos/Project2/BearPi_LiteOS/components/connectivity/agent_tiny/atiny_lwm2m\atiny_rpt.h ****  * OR BUSINESS INTERRUPTION) HOWEVER CAUSED AND ON ANY THEORY OF LIABILITY,
  22:C:/Users/lenovo/Desktop/liteos/Project2/BearPi_LiteOS/components/connectivity/agent_tiny/atiny_lwm2m\atiny_rpt.h ****  * WHETHER IN CONTRACT, STRICT LIABILITY, OR TORT (INCLUDING NEGLIGENCE OR
  23:C:/Users/lenovo/Desktop/liteos/Project2/BearPi_LiteOS/components/connectivity/agent_tiny/atiny_lwm2m\atiny_rpt.h ****  * OTHERWISE) ARISING IN ANY WAY OUT OF THE USE OF THIS SOFTWARE, EVEN IF
  24:C:/Users/lenovo/Desktop/liteos/Project2/BearPi_LiteOS/components/connectivity/agent_tiny/atiny_lwm2m\atiny_rpt.h ****  * ADVISED OF THE POSSIBILITY OF SUCH DAMAGE.
  25:C:/Users/lenovo/Desktop/liteos/Project2/BearPi_LiteOS/components/connectivity/agent_tiny/atiny_lwm2m\atiny_rpt.h ****  *---------------------------------------------------------------------------*/
  26:C:/Users/lenovo/Desktop/liteos/Project2/BearPi_LiteOS/components/connectivity/agent_tiny/atiny_lwm2m\atiny_rpt.h **** /*----------------------------------------------------------------------------
  27:C:/Users/lenovo/Desktop/liteos/Project2/BearPi_LiteOS/components/connectivity/agent_tiny/atiny_lwm2m\atiny_rpt.h ****  * Notice of Export Control Law
  28:C:/Users/lenovo/Desktop/liteos/Project2/BearPi_LiteOS/components/connectivity/agent_tiny/atiny_lwm2m\atiny_rpt.h ****  * ===============================================
  29:C:/Users/lenovo/Desktop/liteos/Project2/BearPi_LiteOS/components/connectivity/agent_tiny/atiny_lwm2m\atiny_rpt.h ****  * Huawei LiteOS may be subject to applicable export control laws and regulations, which might
  30:C:/Users/lenovo/Desktop/liteos/Project2/BearPi_LiteOS/components/connectivity/agent_tiny/atiny_lwm2m\atiny_rpt.h ****  * include those applicable to Huawei LiteOS of U.S. and the country in which you are located.
  31:C:/Users/lenovo/Desktop/liteos/Project2/BearPi_LiteOS/components/connectivity/agent_tiny/atiny_lwm2m\atiny_rpt.h ****  * Import, export and usage of Huawei LiteOS in any manner by you shall be in compliance with such
  32:C:/Users/lenovo/Desktop/liteos/Project2/BearPi_LiteOS/components/connectivity/agent_tiny/atiny_lwm2m\atiny_rpt.h ****  * applicable export control laws and regulations.
  33:C:/Users/lenovo/Desktop/liteos/Project2/BearPi_LiteOS/components/connectivity/agent_tiny/atiny_lwm2m\atiny_rpt.h ****  *---------------------------------------------------------------------------*/
  34:C:/Users/lenovo/Desktop/liteos/Project2/BearPi_LiteOS/components/connectivity/agent_tiny/atiny_lwm2m\atiny_rpt.h **** 
  35:C:/Users/lenovo/Desktop/liteos/Project2/BearPi_LiteOS/components/connectivity/agent_tiny/atiny_lwm2m\atiny_rpt.h **** #ifndef ATINY_RPT_H
  36:C:/Users/lenovo/Desktop/liteos/Project2/BearPi_LiteOS/components/connectivity/agent_tiny/atiny_lwm2m\atiny_rpt.h **** #define ATINY_RPT_H
  37:C:/Users/lenovo/Desktop/liteos/Project2/BearPi_LiteOS/components/connectivity/agent_tiny/atiny_lwm2m\atiny_rpt.h **** #include "atiny_lwm2m/agenttiny.h"
  38:C:/Users/lenovo/Desktop/liteos/Project2/BearPi_LiteOS/components/connectivity/agent_tiny/atiny_lwm2m\atiny_rpt.h **** #include "agent_list.h"
  39:C:/Users/lenovo/Desktop/liteos/Project2/BearPi_LiteOS/components/connectivity/agent_tiny/atiny_lwm2m\atiny_rpt.h **** 
  40:C:/Users/lenovo/Desktop/liteos/Project2/BearPi_LiteOS/components/connectivity/agent_tiny/atiny_lwm2m\atiny_rpt.h **** #ifdef __cplusplus
  41:C:/Users/lenovo/Desktop/liteos/Project2/BearPi_LiteOS/components/connectivity/agent_tiny/atiny_lwm2m\atiny_rpt.h **** extern "C" {
  42:C:/Users/lenovo/Desktop/liteos/Project2/BearPi_LiteOS/components/connectivity/agent_tiny/atiny_lwm2m\atiny_rpt.h **** #endif
  43:C:/Users/lenovo/Desktop/liteos/Project2/BearPi_LiteOS/components/connectivity/agent_tiny/atiny_lwm2m\atiny_rpt.h **** 
  44:C:/Users/lenovo/Desktop/liteos/Project2/BearPi_LiteOS/components/connectivity/agent_tiny/atiny_lwm2m\atiny_rpt.h **** #define URI_FORMAT "uri(flag:0x%x, objId:%d, instId:%d, resId:%d)"
  45:C:/Users/lenovo/Desktop/liteos/Project2/BearPi_LiteOS/components/connectivity/agent_tiny/atiny_lwm2m\atiny_rpt.h **** #define URI_LOG_PARAM(uri) (uri)->flag, (uri)->objectId, (uri)->instanceId, (uri)->resourceId
  46:C:/Users/lenovo/Desktop/liteos/Project2/BearPi_LiteOS/components/connectivity/agent_tiny/atiny_lwm2m\atiny_rpt.h **** 
  47:C:/Users/lenovo/Desktop/liteos/Project2/BearPi_LiteOS/components/connectivity/agent_tiny/atiny_lwm2m\atiny_rpt.h **** ATINY_INLINE void get_instance_uri(uint16_t object_id, uint16_t instance_id, lwm2m_uri_t* uri)
  48:C:/Users/lenovo/Desktop/liteos/Project2/BearPi_LiteOS/components/connectivity/agent_tiny/atiny_lwm2m\atiny_rpt.h **** {
  49:C:/Users/lenovo/Desktop/liteos/Project2/BearPi_LiteOS/components/connectivity/agent_tiny/atiny_lwm2m\atiny_rpt.h ****     if (uri == NULL)
  50:C:/Users/lenovo/Desktop/liteos/Project2/BearPi_LiteOS/components/connectivity/agent_tiny/atiny_lwm2m\atiny_rpt.h ****     {
  51:C:/Users/lenovo/Desktop/liteos/Project2/BearPi_LiteOS/components/connectivity/agent_tiny/atiny_lwm2m\atiny_rpt.h ****         return;
  52:C:/Users/lenovo/Desktop/liteos/Project2/BearPi_LiteOS/components/connectivity/agent_tiny/atiny_lwm2m\atiny_rpt.h ****     }
  53:C:/Users/lenovo/Desktop/liteos/Project2/BearPi_LiteOS/components/connectivity/agent_tiny/atiny_lwm2m\atiny_rpt.h ****     uri->flag = LWM2M_URI_FLAG_OBJECT_ID | LWM2M_URI_FLAG_INSTANCE_ID;
  54:C:/Users/lenovo/Desktop/liteos/Project2/BearPi_LiteOS/components/connectivity/agent_tiny/atiny_lwm2m\atiny_rpt.h ****     uri->objectId = object_id;
  55:C:/Users/lenovo/Desktop/liteos/Project2/BearPi_LiteOS/components/connectivity/agent_tiny/atiny_lwm2m\atiny_rpt.h ****     uri->instanceId = instance_id;
  56:C:/Users/lenovo/Desktop/liteos/Project2/BearPi_LiteOS/components/connectivity/agent_tiny/atiny_lwm2m\atiny_rpt.h ****     uri->resourceId = 0;
  57:C:/Users/lenovo/Desktop/liteos/Project2/BearPi_LiteOS/components/connectivity/agent_tiny/atiny_lwm2m\atiny_rpt.h **** }
  58:C:/Users/lenovo/Desktop/liteos/Project2/BearPi_LiteOS/components/connectivity/agent_tiny/atiny_lwm2m\atiny_rpt.h **** 
  59:C:/Users/lenovo/Desktop/liteos/Project2/BearPi_LiteOS/components/connectivity/agent_tiny/atiny_lwm2m\atiny_rpt.h **** ATINY_INLINE void get_resource_uri(uint16_t object_id, uint16_t instance_id, uint16_t resource_id, 
  60:C:/Users/lenovo/Desktop/liteos/Project2/BearPi_LiteOS/components/connectivity/agent_tiny/atiny_lwm2m\atiny_rpt.h **** {
  61:C:/Users/lenovo/Desktop/liteos/Project2/BearPi_LiteOS/components/connectivity/agent_tiny/atiny_lwm2m\atiny_rpt.h ****     if (uri == NULL)
  62:C:/Users/lenovo/Desktop/liteos/Project2/BearPi_LiteOS/components/connectivity/agent_tiny/atiny_lwm2m\atiny_rpt.h ****     {
  63:C:/Users/lenovo/Desktop/liteos/Project2/BearPi_LiteOS/components/connectivity/agent_tiny/atiny_lwm2m\atiny_rpt.h ****         return;
  64:C:/Users/lenovo/Desktop/liteos/Project2/BearPi_LiteOS/components/connectivity/agent_tiny/atiny_lwm2m\atiny_rpt.h ****     }
  65:C:/Users/lenovo/Desktop/liteos/Project2/BearPi_LiteOS/components/connectivity/agent_tiny/atiny_lwm2m\atiny_rpt.h ****     uri->flag = LWM2M_URI_FLAG_OBJECT_ID | LWM2M_URI_FLAG_INSTANCE_ID | LWM2M_URI_FLAG_RESOURCE_ID;
 122              		.loc 2 65 0
 123 001a 0721     		movs	r1, #7
 124 001c 8DF80410 		strb	r1, [sp, #4]
  66:C:/Users/lenovo/Desktop/liteos/Project2/BearPi_LiteOS/components/connectivity/agent_tiny/atiny_lwm2m\atiny_rpt.h ****     uri->objectId = object_id;
 125              		.loc 2 66 0
 126 0020 ADF80620 		strh	r2, [sp, #6]	@ movhi
  67:C:/Users/lenovo/Desktop/liteos/Project2/BearPi_LiteOS/components/connectivity/agent_tiny/atiny_lwm2m\atiny_rpt.h ****     uri->instanceId = instance_id;
 127              		.loc 2 67 0
 128 0024 ADF80830 		strh	r3, [sp, #8]	@ movhi
ARM GAS  c:\Users\lenovo\AppData\Local\Temp\cca7TJX2.s 			page 10


  68:C:/Users/lenovo/Desktop/liteos/Project2/BearPi_LiteOS/components/connectivity/agent_tiny/atiny_lwm2m\atiny_rpt.h ****     uri->resourceId = resource_id;
 129              		.loc 2 68 0
 130 0028 0023     		movs	r3, #0
 131              	.LVL10:
 132 002a ADF80A30 		strh	r3, [sp, #10]	@ movhi
 133              	.LVL11:
 134              	.LBE14:
 135              	.LBE13:
 322:C:/Users/lenovo/Desktop/liteos/Project2/BearPi_LiteOS/components/connectivity/agent_tiny/atiny_lwm2m\object_binary_app_data_container.c ****     (void)atiny_rm_rpt_uri(&uri);
 136              		.loc 1 322 0
 137 002e 01A8     		add	r0, sp, #4
 138 0030 FFF7FEFF 		bl	atiny_rm_rpt_uri
 139              	.LVL12:
 323:C:/Users/lenovo/Desktop/liteos/Project2/BearPi_LiteOS/components/connectivity/agent_tiny/atiny_lwm2m\object_binary_app_data_container.c ****     lwm2m_free(targetP);
 140              		.loc 1 323 0
 141 0034 0398     		ldr	r0, [sp, #12]
 142 0036 FFF7FEFF 		bl	lwm2m_free
 143              	.LVL13:
 324:C:/Users/lenovo/Desktop/liteos/Project2/BearPi_LiteOS/components/connectivity/agent_tiny/atiny_lwm2m\object_binary_app_data_container.c **** 
 325:C:/Users/lenovo/Desktop/liteos/Project2/BearPi_LiteOS/components/connectivity/agent_tiny/atiny_lwm2m\object_binary_app_data_container.c ****     return COAP_202_DELETED;
 144              		.loc 1 325 0
 145 003a 4220     		movs	r0, #66
 146              	.L9:
 326:C:/Users/lenovo/Desktop/liteos/Project2/BearPi_LiteOS/components/connectivity/agent_tiny/atiny_lwm2m\object_binary_app_data_container.c **** }
 147              		.loc 1 326 0
 148 003c 04B0     		add	sp, sp, #16
 149              	.LCFI3:
 150              		.cfi_remember_state
 151              		.cfi_def_cfa_offset 8
 152              		@ sp needed
 153 003e 10BD     		pop	{r4, pc}
 154              	.LVL14:
 155              	.L10:
 156              	.LCFI4:
 157              		.cfi_restore_state
 319:C:/Users/lenovo/Desktop/liteos/Project2/BearPi_LiteOS/components/connectivity/agent_tiny/atiny_lwm2m\object_binary_app_data_container.c **** 
 158              		.loc 1 319 0
 159 0040 8420     		movs	r0, #132
 160 0042 FBE7     		b	.L9
 161              		.cfi_endproc
 162              	.LFE150:
 164              		.section	.text.free_binary_app_data_object_rpt,"ax",%progbits
 165              		.align	1
 166              		.syntax unified
 167              		.thumb
 168              		.thumb_func
 169              		.fpu fpv4-sp-d16
 171              	free_binary_app_data_object_rpt:
 172              	.LFB155:
 327:C:/Users/lenovo/Desktop/liteos/Project2/BearPi_LiteOS/components/connectivity/agent_tiny/atiny_lwm2m\object_binary_app_data_container.c **** 
 328:C:/Users/lenovo/Desktop/liteos/Project2/BearPi_LiteOS/components/connectivity/agent_tiny/atiny_lwm2m\object_binary_app_data_container.c **** static uint8_t prv_create(uint16_t instanceId,
 329:C:/Users/lenovo/Desktop/liteos/Project2/BearPi_LiteOS/components/connectivity/agent_tiny/atiny_lwm2m\object_binary_app_data_container.c ****                           int numData,
 330:C:/Users/lenovo/Desktop/liteos/Project2/BearPi_LiteOS/components/connectivity/agent_tiny/atiny_lwm2m\object_binary_app_data_container.c ****                           lwm2m_data_t *dataArray,
 331:C:/Users/lenovo/Desktop/liteos/Project2/BearPi_LiteOS/components/connectivity/agent_tiny/atiny_lwm2m\object_binary_app_data_container.c ****                           lwm2m_object_t *objectP)
 332:C:/Users/lenovo/Desktop/liteos/Project2/BearPi_LiteOS/components/connectivity/agent_tiny/atiny_lwm2m\object_binary_app_data_container.c **** {
 333:C:/Users/lenovo/Desktop/liteos/Project2/BearPi_LiteOS/components/connectivity/agent_tiny/atiny_lwm2m\object_binary_app_data_container.c ****     plat_instance_t *targetP;
 334:C:/Users/lenovo/Desktop/liteos/Project2/BearPi_LiteOS/components/connectivity/agent_tiny/atiny_lwm2m\object_binary_app_data_container.c ****     uint8_t result;
ARM GAS  c:\Users\lenovo\AppData\Local\Temp\cca7TJX2.s 			page 11


 335:C:/Users/lenovo/Desktop/liteos/Project2/BearPi_LiteOS/components/connectivity/agent_tiny/atiny_lwm2m\object_binary_app_data_container.c ****     int ret;
 336:C:/Users/lenovo/Desktop/liteos/Project2/BearPi_LiteOS/components/connectivity/agent_tiny/atiny_lwm2m\object_binary_app_data_container.c ****     lwm2m_uri_t uri;
 337:C:/Users/lenovo/Desktop/liteos/Project2/BearPi_LiteOS/components/connectivity/agent_tiny/atiny_lwm2m\object_binary_app_data_container.c **** 
 338:C:/Users/lenovo/Desktop/liteos/Project2/BearPi_LiteOS/components/connectivity/agent_tiny/atiny_lwm2m\object_binary_app_data_container.c **** 
 339:C:/Users/lenovo/Desktop/liteos/Project2/BearPi_LiteOS/components/connectivity/agent_tiny/atiny_lwm2m\object_binary_app_data_container.c ****     targetP = (plat_instance_t *)lwm2m_malloc(sizeof(plat_instance_t));
 340:C:/Users/lenovo/Desktop/liteos/Project2/BearPi_LiteOS/components/connectivity/agent_tiny/atiny_lwm2m\object_binary_app_data_container.c ****     if (NULL == targetP) return COAP_500_INTERNAL_SERVER_ERROR;
 341:C:/Users/lenovo/Desktop/liteos/Project2/BearPi_LiteOS/components/connectivity/agent_tiny/atiny_lwm2m\object_binary_app_data_container.c ****     memset(targetP, 0, sizeof(plat_instance_t));
 342:C:/Users/lenovo/Desktop/liteos/Project2/BearPi_LiteOS/components/connectivity/agent_tiny/atiny_lwm2m\object_binary_app_data_container.c ****     //atiny_list_init(&(targetP->header));
 343:C:/Users/lenovo/Desktop/liteos/Project2/BearPi_LiteOS/components/connectivity/agent_tiny/atiny_lwm2m\object_binary_app_data_container.c **** 
 344:C:/Users/lenovo/Desktop/liteos/Project2/BearPi_LiteOS/components/connectivity/agent_tiny/atiny_lwm2m\object_binary_app_data_container.c ****     //TODO: if instanceId not valid
 345:C:/Users/lenovo/Desktop/liteos/Project2/BearPi_LiteOS/components/connectivity/agent_tiny/atiny_lwm2m\object_binary_app_data_container.c ****     get_resource_uri(BINARY_APP_DATA_OBJECT_ID, instanceId, BINARY_APP_DATA_RES_ID, &uri);
 346:C:/Users/lenovo/Desktop/liteos/Project2/BearPi_LiteOS/components/connectivity/agent_tiny/atiny_lwm2m\object_binary_app_data_container.c ****     ret = atiny_add_rpt_uri(&uri, &targetP->header);
 347:C:/Users/lenovo/Desktop/liteos/Project2/BearPi_LiteOS/components/connectivity/agent_tiny/atiny_lwm2m\object_binary_app_data_container.c ****     if(ret != ATINY_OK)
 348:C:/Users/lenovo/Desktop/liteos/Project2/BearPi_LiteOS/components/connectivity/agent_tiny/atiny_lwm2m\object_binary_app_data_container.c ****     {
 349:C:/Users/lenovo/Desktop/liteos/Project2/BearPi_LiteOS/components/connectivity/agent_tiny/atiny_lwm2m\object_binary_app_data_container.c ****         ATINY_LOG(LOG_ERR, "atiny_add_rpt_uri fail %d", ret);
 350:C:/Users/lenovo/Desktop/liteos/Project2/BearPi_LiteOS/components/connectivity/agent_tiny/atiny_lwm2m\object_binary_app_data_container.c ****         lwm2m_free(targetP);
 351:C:/Users/lenovo/Desktop/liteos/Project2/BearPi_LiteOS/components/connectivity/agent_tiny/atiny_lwm2m\object_binary_app_data_container.c ****         return COAP_404_NOT_FOUND;
 352:C:/Users/lenovo/Desktop/liteos/Project2/BearPi_LiteOS/components/connectivity/agent_tiny/atiny_lwm2m\object_binary_app_data_container.c ****     }
 353:C:/Users/lenovo/Desktop/liteos/Project2/BearPi_LiteOS/components/connectivity/agent_tiny/atiny_lwm2m\object_binary_app_data_container.c **** 
 354:C:/Users/lenovo/Desktop/liteos/Project2/BearPi_LiteOS/components/connectivity/agent_tiny/atiny_lwm2m\object_binary_app_data_container.c ****     targetP->shortID = instanceId;
 355:C:/Users/lenovo/Desktop/liteos/Project2/BearPi_LiteOS/components/connectivity/agent_tiny/atiny_lwm2m\object_binary_app_data_container.c ****     objectP->instanceList = LWM2M_LIST_ADD(objectP->instanceList, targetP);
 356:C:/Users/lenovo/Desktop/liteos/Project2/BearPi_LiteOS/components/connectivity/agent_tiny/atiny_lwm2m\object_binary_app_data_container.c **** 
 357:C:/Users/lenovo/Desktop/liteos/Project2/BearPi_LiteOS/components/connectivity/agent_tiny/atiny_lwm2m\object_binary_app_data_container.c ****     result = prv_write(instanceId, numData, dataArray, objectP);
 358:C:/Users/lenovo/Desktop/liteos/Project2/BearPi_LiteOS/components/connectivity/agent_tiny/atiny_lwm2m\object_binary_app_data_container.c **** 
 359:C:/Users/lenovo/Desktop/liteos/Project2/BearPi_LiteOS/components/connectivity/agent_tiny/atiny_lwm2m\object_binary_app_data_container.c ****     if (result != COAP_204_CHANGED)
 360:C:/Users/lenovo/Desktop/liteos/Project2/BearPi_LiteOS/components/connectivity/agent_tiny/atiny_lwm2m\object_binary_app_data_container.c ****     {
 361:C:/Users/lenovo/Desktop/liteos/Project2/BearPi_LiteOS/components/connectivity/agent_tiny/atiny_lwm2m\object_binary_app_data_container.c ****         (void)prv_delete(instanceId, objectP);
 362:C:/Users/lenovo/Desktop/liteos/Project2/BearPi_LiteOS/components/connectivity/agent_tiny/atiny_lwm2m\object_binary_app_data_container.c ****     }
 363:C:/Users/lenovo/Desktop/liteos/Project2/BearPi_LiteOS/components/connectivity/agent_tiny/atiny_lwm2m\object_binary_app_data_container.c ****     else
 364:C:/Users/lenovo/Desktop/liteos/Project2/BearPi_LiteOS/components/connectivity/agent_tiny/atiny_lwm2m\object_binary_app_data_container.c ****     {
 365:C:/Users/lenovo/Desktop/liteos/Project2/BearPi_LiteOS/components/connectivity/agent_tiny/atiny_lwm2m\object_binary_app_data_container.c ****         result = COAP_201_CREATED;
 366:C:/Users/lenovo/Desktop/liteos/Project2/BearPi_LiteOS/components/connectivity/agent_tiny/atiny_lwm2m\object_binary_app_data_container.c ****     }
 367:C:/Users/lenovo/Desktop/liteos/Project2/BearPi_LiteOS/components/connectivity/agent_tiny/atiny_lwm2m\object_binary_app_data_container.c **** 
 368:C:/Users/lenovo/Desktop/liteos/Project2/BearPi_LiteOS/components/connectivity/agent_tiny/atiny_lwm2m\object_binary_app_data_container.c ****     return result;
 369:C:/Users/lenovo/Desktop/liteos/Project2/BearPi_LiteOS/components/connectivity/agent_tiny/atiny_lwm2m\object_binary_app_data_container.c **** }
 370:C:/Users/lenovo/Desktop/liteos/Project2/BearPi_LiteOS/components/connectivity/agent_tiny/atiny_lwm2m\object_binary_app_data_container.c **** 
 371:C:/Users/lenovo/Desktop/liteos/Project2/BearPi_LiteOS/components/connectivity/agent_tiny/atiny_lwm2m\object_binary_app_data_container.c **** static uint8_t prv_exec(uint16_t instanceId,
 372:C:/Users/lenovo/Desktop/liteos/Project2/BearPi_LiteOS/components/connectivity/agent_tiny/atiny_lwm2m\object_binary_app_data_container.c ****                         uint16_t resourceId,
 373:C:/Users/lenovo/Desktop/liteos/Project2/BearPi_LiteOS/components/connectivity/agent_tiny/atiny_lwm2m\object_binary_app_data_container.c ****                         uint8_t *buffer,
 374:C:/Users/lenovo/Desktop/liteos/Project2/BearPi_LiteOS/components/connectivity/agent_tiny/atiny_lwm2m\object_binary_app_data_container.c ****                         int length,
 375:C:/Users/lenovo/Desktop/liteos/Project2/BearPi_LiteOS/components/connectivity/agent_tiny/atiny_lwm2m\object_binary_app_data_container.c ****                         lwm2m_object_t *objectP)
 376:C:/Users/lenovo/Desktop/liteos/Project2/BearPi_LiteOS/components/connectivity/agent_tiny/atiny_lwm2m\object_binary_app_data_container.c **** {
 377:C:/Users/lenovo/Desktop/liteos/Project2/BearPi_LiteOS/components/connectivity/agent_tiny/atiny_lwm2m\object_binary_app_data_container.c **** 
 378:C:/Users/lenovo/Desktop/liteos/Project2/BearPi_LiteOS/components/connectivity/agent_tiny/atiny_lwm2m\object_binary_app_data_container.c ****     if (NULL == lwm2m_list_find(objectP->instanceList, instanceId)) return COAP_404_NOT_FOUND;
 379:C:/Users/lenovo/Desktop/liteos/Project2/BearPi_LiteOS/components/connectivity/agent_tiny/atiny_lwm2m\object_binary_app_data_container.c **** 
 380:C:/Users/lenovo/Desktop/liteos/Project2/BearPi_LiteOS/components/connectivity/agent_tiny/atiny_lwm2m\object_binary_app_data_container.c ****     switch (resourceId)
 381:C:/Users/lenovo/Desktop/liteos/Project2/BearPi_LiteOS/components/connectivity/agent_tiny/atiny_lwm2m\object_binary_app_data_container.c ****     {
 382:C:/Users/lenovo/Desktop/liteos/Project2/BearPi_LiteOS/components/connectivity/agent_tiny/atiny_lwm2m\object_binary_app_data_container.c ****     case 0:
 383:C:/Users/lenovo/Desktop/liteos/Project2/BearPi_LiteOS/components/connectivity/agent_tiny/atiny_lwm2m\object_binary_app_data_container.c ****     {
 384:C:/Users/lenovo/Desktop/liteos/Project2/BearPi_LiteOS/components/connectivity/agent_tiny/atiny_lwm2m\object_binary_app_data_container.c ****         ATINY_LOG(LOG_INFO, "no in prv_exec+++++++++++++++++++++++++++");
 385:C:/Users/lenovo/Desktop/liteos/Project2/BearPi_LiteOS/components/connectivity/agent_tiny/atiny_lwm2m\object_binary_app_data_container.c ****         return COAP_204_CHANGED;
 386:C:/Users/lenovo/Desktop/liteos/Project2/BearPi_LiteOS/components/connectivity/agent_tiny/atiny_lwm2m\object_binary_app_data_container.c ****     }
 387:C:/Users/lenovo/Desktop/liteos/Project2/BearPi_LiteOS/components/connectivity/agent_tiny/atiny_lwm2m\object_binary_app_data_container.c ****     case 1:
 388:C:/Users/lenovo/Desktop/liteos/Project2/BearPi_LiteOS/components/connectivity/agent_tiny/atiny_lwm2m\object_binary_app_data_container.c ****         return COAP_405_METHOD_NOT_ALLOWED;
 389:C:/Users/lenovo/Desktop/liteos/Project2/BearPi_LiteOS/components/connectivity/agent_tiny/atiny_lwm2m\object_binary_app_data_container.c ****     case 2:
 390:C:/Users/lenovo/Desktop/liteos/Project2/BearPi_LiteOS/components/connectivity/agent_tiny/atiny_lwm2m\object_binary_app_data_container.c ****         fprintf(stdout, "\r\n-----------------\r\n"
 391:C:/Users/lenovo/Desktop/liteos/Project2/BearPi_LiteOS/components/connectivity/agent_tiny/atiny_lwm2m\object_binary_app_data_container.c ****                 "Execute on %hu/%d/%d\r\n"
ARM GAS  c:\Users\lenovo\AppData\Local\Temp\cca7TJX2.s 			page 12


 392:C:/Users/lenovo/Desktop/liteos/Project2/BearPi_LiteOS/components/connectivity/agent_tiny/atiny_lwm2m\object_binary_app_data_container.c ****                 " Parameter (%d bytes):\r\n",
 393:C:/Users/lenovo/Desktop/liteos/Project2/BearPi_LiteOS/components/connectivity/agent_tiny/atiny_lwm2m\object_binary_app_data_container.c ****                 objectP->objID, instanceId, resourceId, length);
 394:C:/Users/lenovo/Desktop/liteos/Project2/BearPi_LiteOS/components/connectivity/agent_tiny/atiny_lwm2m\object_binary_app_data_container.c ****         prv_output_buffer((uint8_t *)buffer, length);
 395:C:/Users/lenovo/Desktop/liteos/Project2/BearPi_LiteOS/components/connectivity/agent_tiny/atiny_lwm2m\object_binary_app_data_container.c ****         fprintf(stdout, "-----------------\r\n\r\n");
 396:C:/Users/lenovo/Desktop/liteos/Project2/BearPi_LiteOS/components/connectivity/agent_tiny/atiny_lwm2m\object_binary_app_data_container.c ****         return COAP_204_CHANGED;
 397:C:/Users/lenovo/Desktop/liteos/Project2/BearPi_LiteOS/components/connectivity/agent_tiny/atiny_lwm2m\object_binary_app_data_container.c ****     case 3:
 398:C:/Users/lenovo/Desktop/liteos/Project2/BearPi_LiteOS/components/connectivity/agent_tiny/atiny_lwm2m\object_binary_app_data_container.c ****         return COAP_405_METHOD_NOT_ALLOWED;
 399:C:/Users/lenovo/Desktop/liteos/Project2/BearPi_LiteOS/components/connectivity/agent_tiny/atiny_lwm2m\object_binary_app_data_container.c ****     default:
 400:C:/Users/lenovo/Desktop/liteos/Project2/BearPi_LiteOS/components/connectivity/agent_tiny/atiny_lwm2m\object_binary_app_data_container.c ****         return COAP_404_NOT_FOUND;
 401:C:/Users/lenovo/Desktop/liteos/Project2/BearPi_LiteOS/components/connectivity/agent_tiny/atiny_lwm2m\object_binary_app_data_container.c ****     }
 402:C:/Users/lenovo/Desktop/liteos/Project2/BearPi_LiteOS/components/connectivity/agent_tiny/atiny_lwm2m\object_binary_app_data_container.c **** }
 403:C:/Users/lenovo/Desktop/liteos/Project2/BearPi_LiteOS/components/connectivity/agent_tiny/atiny_lwm2m\object_binary_app_data_container.c **** 
 404:C:/Users/lenovo/Desktop/liteos/Project2/BearPi_LiteOS/components/connectivity/agent_tiny/atiny_lwm2m\object_binary_app_data_container.c **** void display_binary_app_data_object(lwm2m_object_t *object)
 405:C:/Users/lenovo/Desktop/liteos/Project2/BearPi_LiteOS/components/connectivity/agent_tiny/atiny_lwm2m\object_binary_app_data_container.c **** {
 406:C:/Users/lenovo/Desktop/liteos/Project2/BearPi_LiteOS/components/connectivity/agent_tiny/atiny_lwm2m\object_binary_app_data_container.c **** #ifdef WITH_LOGS
 407:C:/Users/lenovo/Desktop/liteos/Project2/BearPi_LiteOS/components/connectivity/agent_tiny/atiny_lwm2m\object_binary_app_data_container.c ****     fprintf(stdout, "  /%u: Test object, instances:\r\n", object->objID);
 408:C:/Users/lenovo/Desktop/liteos/Project2/BearPi_LiteOS/components/connectivity/agent_tiny/atiny_lwm2m\object_binary_app_data_container.c ****     plat_instance_t *instance = (plat_instance_t *)object->instanceList;
 409:C:/Users/lenovo/Desktop/liteos/Project2/BearPi_LiteOS/components/connectivity/agent_tiny/atiny_lwm2m\object_binary_app_data_container.c ****     while (instance != NULL)
 410:C:/Users/lenovo/Desktop/liteos/Project2/BearPi_LiteOS/components/connectivity/agent_tiny/atiny_lwm2m\object_binary_app_data_container.c ****     {
 411:C:/Users/lenovo/Desktop/liteos/Project2/BearPi_LiteOS/components/connectivity/agent_tiny/atiny_lwm2m\object_binary_app_data_container.c ****         fprintf(stdout, "    /%u/%u: shortId: %u, test: %u\r\n",
 412:C:/Users/lenovo/Desktop/liteos/Project2/BearPi_LiteOS/components/connectivity/agent_tiny/atiny_lwm2m\object_binary_app_data_container.c ****                 object->objID, instance->shortID,
 413:C:/Users/lenovo/Desktop/liteos/Project2/BearPi_LiteOS/components/connectivity/agent_tiny/atiny_lwm2m\object_binary_app_data_container.c ****                 instance->shortID, instance->test);
 414:C:/Users/lenovo/Desktop/liteos/Project2/BearPi_LiteOS/components/connectivity/agent_tiny/atiny_lwm2m\object_binary_app_data_container.c ****         instance = (plat_instance_t *)instance->next;
 415:C:/Users/lenovo/Desktop/liteos/Project2/BearPi_LiteOS/components/connectivity/agent_tiny/atiny_lwm2m\object_binary_app_data_container.c ****     }
 416:C:/Users/lenovo/Desktop/liteos/Project2/BearPi_LiteOS/components/connectivity/agent_tiny/atiny_lwm2m\object_binary_app_data_container.c **** #endif
 417:C:/Users/lenovo/Desktop/liteos/Project2/BearPi_LiteOS/components/connectivity/agent_tiny/atiny_lwm2m\object_binary_app_data_container.c **** }
 418:C:/Users/lenovo/Desktop/liteos/Project2/BearPi_LiteOS/components/connectivity/agent_tiny/atiny_lwm2m\object_binary_app_data_container.c **** 
 419:C:/Users/lenovo/Desktop/liteos/Project2/BearPi_LiteOS/components/connectivity/agent_tiny/atiny_lwm2m\object_binary_app_data_container.c **** lwm2m_object_t *get_binary_app_data_object(atiny_param_t *atiny_params)
 420:C:/Users/lenovo/Desktop/liteos/Project2/BearPi_LiteOS/components/connectivity/agent_tiny/atiny_lwm2m\object_binary_app_data_container.c **** {
 421:C:/Users/lenovo/Desktop/liteos/Project2/BearPi_LiteOS/components/connectivity/agent_tiny/atiny_lwm2m\object_binary_app_data_container.c ****     lwm2m_object_t *appObj;
 422:C:/Users/lenovo/Desktop/liteos/Project2/BearPi_LiteOS/components/connectivity/agent_tiny/atiny_lwm2m\object_binary_app_data_container.c **** 
 423:C:/Users/lenovo/Desktop/liteos/Project2/BearPi_LiteOS/components/connectivity/agent_tiny/atiny_lwm2m\object_binary_app_data_container.c ****     appObj = (lwm2m_object_t *)lwm2m_malloc(sizeof(lwm2m_object_t));
 424:C:/Users/lenovo/Desktop/liteos/Project2/BearPi_LiteOS/components/connectivity/agent_tiny/atiny_lwm2m\object_binary_app_data_container.c **** 
 425:C:/Users/lenovo/Desktop/liteos/Project2/BearPi_LiteOS/components/connectivity/agent_tiny/atiny_lwm2m\object_binary_app_data_container.c ****     if (NULL != appObj)
 426:C:/Users/lenovo/Desktop/liteos/Project2/BearPi_LiteOS/components/connectivity/agent_tiny/atiny_lwm2m\object_binary_app_data_container.c ****     {
 427:C:/Users/lenovo/Desktop/liteos/Project2/BearPi_LiteOS/components/connectivity/agent_tiny/atiny_lwm2m\object_binary_app_data_container.c ****         int i;
 428:C:/Users/lenovo/Desktop/liteos/Project2/BearPi_LiteOS/components/connectivity/agent_tiny/atiny_lwm2m\object_binary_app_data_container.c ****         plat_instance_t *targetP;
 429:C:/Users/lenovo/Desktop/liteos/Project2/BearPi_LiteOS/components/connectivity/agent_tiny/atiny_lwm2m\object_binary_app_data_container.c ****         lwm2m_uri_t uri;
 430:C:/Users/lenovo/Desktop/liteos/Project2/BearPi_LiteOS/components/connectivity/agent_tiny/atiny_lwm2m\object_binary_app_data_container.c ****         int ret = ATINY_OK;
 431:C:/Users/lenovo/Desktop/liteos/Project2/BearPi_LiteOS/components/connectivity/agent_tiny/atiny_lwm2m\object_binary_app_data_container.c **** 
 432:C:/Users/lenovo/Desktop/liteos/Project2/BearPi_LiteOS/components/connectivity/agent_tiny/atiny_lwm2m\object_binary_app_data_container.c ****         memset(appObj, 0, sizeof(lwm2m_object_t));
 433:C:/Users/lenovo/Desktop/liteos/Project2/BearPi_LiteOS/components/connectivity/agent_tiny/atiny_lwm2m\object_binary_app_data_container.c **** 
 434:C:/Users/lenovo/Desktop/liteos/Project2/BearPi_LiteOS/components/connectivity/agent_tiny/atiny_lwm2m\object_binary_app_data_container.c ****         appObj->objID = BINARY_APP_DATA_OBJECT_ID;
 435:C:/Users/lenovo/Desktop/liteos/Project2/BearPi_LiteOS/components/connectivity/agent_tiny/atiny_lwm2m\object_binary_app_data_container.c ****         for (i = 0 ; i < BINARY_APP_DATA_OBJECT_INSTANCE_NUM; i++)
 436:C:/Users/lenovo/Desktop/liteos/Project2/BearPi_LiteOS/components/connectivity/agent_tiny/atiny_lwm2m\object_binary_app_data_container.c ****         {
 437:C:/Users/lenovo/Desktop/liteos/Project2/BearPi_LiteOS/components/connectivity/agent_tiny/atiny_lwm2m\object_binary_app_data_container.c ****             targetP = (plat_instance_t *)lwm2m_malloc(sizeof(plat_instance_t));
 438:C:/Users/lenovo/Desktop/liteos/Project2/BearPi_LiteOS/components/connectivity/agent_tiny/atiny_lwm2m\object_binary_app_data_container.c ****             if (NULL == targetP)
 439:C:/Users/lenovo/Desktop/liteos/Project2/BearPi_LiteOS/components/connectivity/agent_tiny/atiny_lwm2m\object_binary_app_data_container.c ****             {
 440:C:/Users/lenovo/Desktop/liteos/Project2/BearPi_LiteOS/components/connectivity/agent_tiny/atiny_lwm2m\object_binary_app_data_container.c ****                 break;
 441:C:/Users/lenovo/Desktop/liteos/Project2/BearPi_LiteOS/components/connectivity/agent_tiny/atiny_lwm2m\object_binary_app_data_container.c ****             }
 442:C:/Users/lenovo/Desktop/liteos/Project2/BearPi_LiteOS/components/connectivity/agent_tiny/atiny_lwm2m\object_binary_app_data_container.c ****             memset(targetP, 0, sizeof(plat_instance_t));
 443:C:/Users/lenovo/Desktop/liteos/Project2/BearPi_LiteOS/components/connectivity/agent_tiny/atiny_lwm2m\object_binary_app_data_container.c ****             get_resource_uri(BINARY_APP_DATA_OBJECT_ID, i, BINARY_APP_DATA_RES_ID, &uri);
 444:C:/Users/lenovo/Desktop/liteos/Project2/BearPi_LiteOS/components/connectivity/agent_tiny/atiny_lwm2m\object_binary_app_data_container.c ****             ret = atiny_add_rpt_uri(&uri, &targetP->header);
 445:C:/Users/lenovo/Desktop/liteos/Project2/BearPi_LiteOS/components/connectivity/agent_tiny/atiny_lwm2m\object_binary_app_data_container.c ****             if(ret != ATINY_OK)
 446:C:/Users/lenovo/Desktop/liteos/Project2/BearPi_LiteOS/components/connectivity/agent_tiny/atiny_lwm2m\object_binary_app_data_container.c ****             {
 447:C:/Users/lenovo/Desktop/liteos/Project2/BearPi_LiteOS/components/connectivity/agent_tiny/atiny_lwm2m\object_binary_app_data_container.c ****                 ATINY_LOG(LOG_ERR, "atiny_add_rpt_uri fail %d", ret);
 448:C:/Users/lenovo/Desktop/liteos/Project2/BearPi_LiteOS/components/connectivity/agent_tiny/atiny_lwm2m\object_binary_app_data_container.c ****                 lwm2m_free(targetP);
ARM GAS  c:\Users\lenovo\AppData\Local\Temp\cca7TJX2.s 			page 13


 449:C:/Users/lenovo/Desktop/liteos/Project2/BearPi_LiteOS/components/connectivity/agent_tiny/atiny_lwm2m\object_binary_app_data_container.c ****                 break;
 450:C:/Users/lenovo/Desktop/liteos/Project2/BearPi_LiteOS/components/connectivity/agent_tiny/atiny_lwm2m\object_binary_app_data_container.c ****             }
 451:C:/Users/lenovo/Desktop/liteos/Project2/BearPi_LiteOS/components/connectivity/agent_tiny/atiny_lwm2m\object_binary_app_data_container.c ****             (void)atiny_set_max_rpt_cnt(&uri, MAX(MIN_SAVE_CNT, atiny_params->server_params.storing
 452:C:/Users/lenovo/Desktop/liteos/Project2/BearPi_LiteOS/components/connectivity/agent_tiny/atiny_lwm2m\object_binary_app_data_container.c ****             targetP->shortID = i;
 453:C:/Users/lenovo/Desktop/liteos/Project2/BearPi_LiteOS/components/connectivity/agent_tiny/atiny_lwm2m\object_binary_app_data_container.c ****             appObj->instanceList = LWM2M_LIST_ADD(appObj->instanceList, targetP);
 454:C:/Users/lenovo/Desktop/liteos/Project2/BearPi_LiteOS/components/connectivity/agent_tiny/atiny_lwm2m\object_binary_app_data_container.c ****         }
 455:C:/Users/lenovo/Desktop/liteos/Project2/BearPi_LiteOS/components/connectivity/agent_tiny/atiny_lwm2m\object_binary_app_data_container.c **** 
 456:C:/Users/lenovo/Desktop/liteos/Project2/BearPi_LiteOS/components/connectivity/agent_tiny/atiny_lwm2m\object_binary_app_data_container.c ****         if(i < BINARY_APP_DATA_OBJECT_INSTANCE_NUM)
 457:C:/Users/lenovo/Desktop/liteos/Project2/BearPi_LiteOS/components/connectivity/agent_tiny/atiny_lwm2m\object_binary_app_data_container.c ****         {
 458:C:/Users/lenovo/Desktop/liteos/Project2/BearPi_LiteOS/components/connectivity/agent_tiny/atiny_lwm2m\object_binary_app_data_container.c ****             free_binary_app_data_object(appObj);
 459:C:/Users/lenovo/Desktop/liteos/Project2/BearPi_LiteOS/components/connectivity/agent_tiny/atiny_lwm2m\object_binary_app_data_container.c ****             return NULL;
 460:C:/Users/lenovo/Desktop/liteos/Project2/BearPi_LiteOS/components/connectivity/agent_tiny/atiny_lwm2m\object_binary_app_data_container.c ****         }
 461:C:/Users/lenovo/Desktop/liteos/Project2/BearPi_LiteOS/components/connectivity/agent_tiny/atiny_lwm2m\object_binary_app_data_container.c **** 
 462:C:/Users/lenovo/Desktop/liteos/Project2/BearPi_LiteOS/components/connectivity/agent_tiny/atiny_lwm2m\object_binary_app_data_container.c ****         /*
 463:C:/Users/lenovo/Desktop/liteos/Project2/BearPi_LiteOS/components/connectivity/agent_tiny/atiny_lwm2m\object_binary_app_data_container.c ****          * From a single instance object, two more functions are available.
 464:C:/Users/lenovo/Desktop/liteos/Project2/BearPi_LiteOS/components/connectivity/agent_tiny/atiny_lwm2m\object_binary_app_data_container.c ****          * - The first one (createFunc) create a new instance and filled it with the provided infor
 465:C:/Users/lenovo/Desktop/liteos/Project2/BearPi_LiteOS/components/connectivity/agent_tiny/atiny_lwm2m\object_binary_app_data_container.c ****          *   provided a check is done for verifying his disponibility, or a new one is generated.
 466:C:/Users/lenovo/Desktop/liteos/Project2/BearPi_LiteOS/components/connectivity/agent_tiny/atiny_lwm2m\object_binary_app_data_container.c ****          * - The other one (deleteFunc) delete an instance by removing it from the instance list (a
 467:C:/Users/lenovo/Desktop/liteos/Project2/BearPi_LiteOS/components/connectivity/agent_tiny/atiny_lwm2m\object_binary_app_data_container.c ****          *   allocated to it)
 468:C:/Users/lenovo/Desktop/liteos/Project2/BearPi_LiteOS/components/connectivity/agent_tiny/atiny_lwm2m\object_binary_app_data_container.c ****          */
 469:C:/Users/lenovo/Desktop/liteos/Project2/BearPi_LiteOS/components/connectivity/agent_tiny/atiny_lwm2m\object_binary_app_data_container.c ****         appObj->readFunc = prv_read;
 470:C:/Users/lenovo/Desktop/liteos/Project2/BearPi_LiteOS/components/connectivity/agent_tiny/atiny_lwm2m\object_binary_app_data_container.c ****         appObj->discoverFunc = prv_discover;
 471:C:/Users/lenovo/Desktop/liteos/Project2/BearPi_LiteOS/components/connectivity/agent_tiny/atiny_lwm2m\object_binary_app_data_container.c ****         appObj->writeFunc = prv_write;
 472:C:/Users/lenovo/Desktop/liteos/Project2/BearPi_LiteOS/components/connectivity/agent_tiny/atiny_lwm2m\object_binary_app_data_container.c ****         appObj->executeFunc = prv_exec;
 473:C:/Users/lenovo/Desktop/liteos/Project2/BearPi_LiteOS/components/connectivity/agent_tiny/atiny_lwm2m\object_binary_app_data_container.c ****         appObj->createFunc = prv_create;
 474:C:/Users/lenovo/Desktop/liteos/Project2/BearPi_LiteOS/components/connectivity/agent_tiny/atiny_lwm2m\object_binary_app_data_container.c ****         appObj->deleteFunc = prv_delete;
 475:C:/Users/lenovo/Desktop/liteos/Project2/BearPi_LiteOS/components/connectivity/agent_tiny/atiny_lwm2m\object_binary_app_data_container.c ****     }
 476:C:/Users/lenovo/Desktop/liteos/Project2/BearPi_LiteOS/components/connectivity/agent_tiny/atiny_lwm2m\object_binary_app_data_container.c **** 
 477:C:/Users/lenovo/Desktop/liteos/Project2/BearPi_LiteOS/components/connectivity/agent_tiny/atiny_lwm2m\object_binary_app_data_container.c ****     return appObj;
 478:C:/Users/lenovo/Desktop/liteos/Project2/BearPi_LiteOS/components/connectivity/agent_tiny/atiny_lwm2m\object_binary_app_data_container.c **** }
 479:C:/Users/lenovo/Desktop/liteos/Project2/BearPi_LiteOS/components/connectivity/agent_tiny/atiny_lwm2m\object_binary_app_data_container.c **** 
 480:C:/Users/lenovo/Desktop/liteos/Project2/BearPi_LiteOS/components/connectivity/agent_tiny/atiny_lwm2m\object_binary_app_data_container.c **** static void free_binary_app_data_object_rpt(lwm2m_object_t *object)
 481:C:/Users/lenovo/Desktop/liteos/Project2/BearPi_LiteOS/components/connectivity/agent_tiny/atiny_lwm2m\object_binary_app_data_container.c **** {
 173              		.loc 1 481 0
 174              		.cfi_startproc
 175              		@ args = 0, pretend = 0, frame = 8
 176              		@ frame_needed = 0, uses_anonymous_args = 0
 177              	.LVL15:
 178 0000 30B5     		push	{r4, r5, lr}
 179              	.LCFI5:
 180              		.cfi_def_cfa_offset 12
 181              		.cfi_offset 4, -12
 182              		.cfi_offset 5, -8
 183              		.cfi_offset 14, -4
 184 0002 83B0     		sub	sp, sp, #12
 185              	.LCFI6:
 186              		.cfi_def_cfa_offset 24
 187 0004 0546     		mov	r5, r0
 482:C:/Users/lenovo/Desktop/liteos/Project2/BearPi_LiteOS/components/connectivity/agent_tiny/atiny_lwm2m\object_binary_app_data_container.c ****     lwm2m_list_t *cur = object->instanceList;
 188              		.loc 1 482 0
 189 0006 8468     		ldr	r4, [r0, #8]
 190              	.LVL16:
 483:C:/Users/lenovo/Desktop/liteos/Project2/BearPi_LiteOS/components/connectivity/agent_tiny/atiny_lwm2m\object_binary_app_data_container.c ****     lwm2m_uri_t uri;
 484:C:/Users/lenovo/Desktop/liteos/Project2/BearPi_LiteOS/components/connectivity/agent_tiny/atiny_lwm2m\object_binary_app_data_container.c ****     while(cur)
 191              		.loc 1 484 0
 192 0008 0FE0     		b	.L13
 193              	.LVL17:
ARM GAS  c:\Users\lenovo\AppData\Local\Temp\cca7TJX2.s 			page 14


 194              	.L14:
 485:C:/Users/lenovo/Desktop/liteos/Project2/BearPi_LiteOS/components/connectivity/agent_tiny/atiny_lwm2m\object_binary_app_data_container.c ****     {
 486:C:/Users/lenovo/Desktop/liteos/Project2/BearPi_LiteOS/components/connectivity/agent_tiny/atiny_lwm2m\object_binary_app_data_container.c ****         get_resource_uri(object->objID, ((plat_instance_t *)cur)->shortID, BINARY_APP_DATA_RES_ID, 
 195              		.loc 1 486 0
 196 000a AA88     		ldrh	r2, [r5, #4]
 197 000c A388     		ldrh	r3, [r4, #4]
 198              	.LVL18:
 199              	.LBB15:
 200              	.LBB16:
  65:C:/Users/lenovo/Desktop/liteos/Project2/BearPi_LiteOS/components/connectivity/agent_tiny/atiny_lwm2m\atiny_rpt.h ****     uri->objectId = object_id;
 201              		.loc 2 65 0
 202 000e 0721     		movs	r1, #7
 203 0010 8DF80010 		strb	r1, [sp]
  66:C:/Users/lenovo/Desktop/liteos/Project2/BearPi_LiteOS/components/connectivity/agent_tiny/atiny_lwm2m\atiny_rpt.h ****     uri->instanceId = instance_id;
 204              		.loc 2 66 0
 205 0014 ADF80220 		strh	r2, [sp, #2]	@ movhi
  67:C:/Users/lenovo/Desktop/liteos/Project2/BearPi_LiteOS/components/connectivity/agent_tiny/atiny_lwm2m\atiny_rpt.h ****     uri->resourceId = resource_id;
 206              		.loc 2 67 0
 207 0018 ADF80430 		strh	r3, [sp, #4]	@ movhi
 208              		.loc 2 68 0
 209 001c 0023     		movs	r3, #0
 210              	.LVL19:
 211 001e ADF80630 		strh	r3, [sp, #6]	@ movhi
 212              	.LVL20:
 213              	.LBE16:
 214              	.LBE15:
 487:C:/Users/lenovo/Desktop/liteos/Project2/BearPi_LiteOS/components/connectivity/agent_tiny/atiny_lwm2m\object_binary_app_data_container.c ****         (void)atiny_rm_rpt_uri(&uri);
 215              		.loc 1 487 0
 216 0022 6846     		mov	r0, sp
 217 0024 FFF7FEFF 		bl	atiny_rm_rpt_uri
 218              	.LVL21:
 488:C:/Users/lenovo/Desktop/liteos/Project2/BearPi_LiteOS/components/connectivity/agent_tiny/atiny_lwm2m\object_binary_app_data_container.c ****         cur = cur->next;
 219              		.loc 1 488 0
 220 0028 2468     		ldr	r4, [r4]
 221              	.LVL22:
 222              	.L13:
 484:C:/Users/lenovo/Desktop/liteos/Project2/BearPi_LiteOS/components/connectivity/agent_tiny/atiny_lwm2m\object_binary_app_data_container.c ****     {
 223              		.loc 1 484 0
 224 002a 002C     		cmp	r4, #0
 225 002c EDD1     		bne	.L14
 489:C:/Users/lenovo/Desktop/liteos/Project2/BearPi_LiteOS/components/connectivity/agent_tiny/atiny_lwm2m\object_binary_app_data_container.c ****     }
 490:C:/Users/lenovo/Desktop/liteos/Project2/BearPi_LiteOS/components/connectivity/agent_tiny/atiny_lwm2m\object_binary_app_data_container.c **** }
 226              		.loc 1 490 0
 227 002e 03B0     		add	sp, sp, #12
 228              	.LCFI7:
 229              		.cfi_def_cfa_offset 12
 230              		@ sp needed
 231 0030 30BD     		pop	{r4, r5, pc}
 232              		.cfi_endproc
 233              	.LFE155:
 235              		.section	.text.prv_output_buffer,"ax",%progbits
 236              		.align	1
 237              		.syntax unified
 238              		.thumb
 239              		.thumb_func
 240              		.fpu fpv4-sp-d16
 242              	prv_output_buffer:
ARM GAS  c:\Users\lenovo\AppData\Local\Temp\cca7TJX2.s 			page 15


 243              	.LFB144:
  83:C:/Users/lenovo/Desktop/liteos/Project2/BearPi_LiteOS/components/connectivity/agent_tiny/atiny_lwm2m\object_binary_app_data_container.c ****     int i;
 244              		.loc 1 83 0
 245              		.cfi_startproc
 246              		@ args = 0, pretend = 0, frame = 16
 247              		@ frame_needed = 0, uses_anonymous_args = 0
 248              	.LVL23:
 249 0000 F0B5     		push	{r4, r5, r6, r7, lr}
 250              	.LCFI8:
 251              		.cfi_def_cfa_offset 20
 252              		.cfi_offset 4, -20
 253              		.cfi_offset 5, -16
 254              		.cfi_offset 6, -12
 255              		.cfi_offset 7, -8
 256              		.cfi_offset 14, -4
 257 0002 85B0     		sub	sp, sp, #20
 258              	.LCFI9:
 259              		.cfi_def_cfa_offset 40
 260 0004 0746     		mov	r7, r0
 261 0006 0E46     		mov	r6, r1
 262              	.LVL24:
  87:C:/Users/lenovo/Desktop/liteos/Project2/BearPi_LiteOS/components/connectivity/agent_tiny/atiny_lwm2m\object_binary_app_data_container.c ****     while (i < length)
 263              		.loc 1 87 0
 264 0008 0025     		movs	r5, #0
  88:C:/Users/lenovo/Desktop/liteos/Project2/BearPi_LiteOS/components/connectivity/agent_tiny/atiny_lwm2m\object_binary_app_data_container.c ****     {
 265              		.loc 1 88 0
 266 000a 4CE0     		b	.L17
 267              	.LVL25:
 268              	.L20:
 269              	.LBB17:
  97:C:/Users/lenovo/Desktop/liteos/Project2/BearPi_LiteOS/components/connectivity/agent_tiny/atiny_lwm2m\object_binary_app_data_container.c ****         }
 270              		.loc 1 97 0 discriminator 4
 271 000c 304B     		ldr	r3, .L31
 272 000e 1B68     		ldr	r3, [r3]
 273 0010 04AA     		add	r2, sp, #16
 274 0012 2244     		add	r2, r2, r4
 275 0014 12F8102C 		ldrb	r2, [r2, #-16]	@ zero_extendqisi2
 276 0018 2E49     		ldr	r1, .L31+4
 277 001a D868     		ldr	r0, [r3, #12]
 278 001c FFF7FEFF 		bl	fprintf
 279              	.LVL26:
  95:C:/Users/lenovo/Desktop/liteos/Project2/BearPi_LiteOS/components/connectivity/agent_tiny/atiny_lwm2m\object_binary_app_data_container.c ****         {
 280              		.loc 1 95 0 discriminator 4
 281 0020 0134     		adds	r4, r4, #1
 282              	.LVL27:
 283              	.L18:
  95:C:/Users/lenovo/Desktop/liteos/Project2/BearPi_LiteOS/components/connectivity/agent_tiny/atiny_lwm2m\object_binary_app_data_container.c ****         {
 284              		.loc 1 95 0 is_stmt 0 discriminator 1
 285 0022 0F2C     		cmp	r4, #15
 286 0024 0CDC     		bgt	.L21
  95:C:/Users/lenovo/Desktop/liteos/Project2/BearPi_LiteOS/components/connectivity/agent_tiny/atiny_lwm2m\object_binary_app_data_container.c ****         {
 287              		.loc 1 95 0 discriminator 3
 288 0026 2B19     		adds	r3, r5, r4
 289 0028 B342     		cmp	r3, r6
 290 002a EFDB     		blt	.L20
 291 002c 08E0     		b	.L21
 292              	.L22:
ARM GAS  c:\Users\lenovo\AppData\Local\Temp\cca7TJX2.s 			page 16


 101:C:/Users/lenovo/Desktop/liteos/Project2/BearPi_LiteOS/components/connectivity/agent_tiny/atiny_lwm2m\object_binary_app_data_container.c ****             j++;
 293              		.loc 1 101 0 is_stmt 1
 294 002e 284B     		ldr	r3, .L31
 295 0030 1B68     		ldr	r3, [r3]
 296 0032 DB68     		ldr	r3, [r3, #12]
 297 0034 0322     		movs	r2, #3
 298 0036 0121     		movs	r1, #1
 299 0038 2748     		ldr	r0, .L31+8
 300 003a FFF7FEFF 		bl	fwrite
 301              	.LVL28:
 102:C:/Users/lenovo/Desktop/liteos/Project2/BearPi_LiteOS/components/connectivity/agent_tiny/atiny_lwm2m\object_binary_app_data_container.c ****         }
 302              		.loc 1 102 0
 303 003e 0134     		adds	r4, r4, #1
 304              	.LVL29:
 305              	.L21:
  99:C:/Users/lenovo/Desktop/liteos/Project2/BearPi_LiteOS/components/connectivity/agent_tiny/atiny_lwm2m\object_binary_app_data_container.c ****         {
 306              		.loc 1 99 0
 307 0040 0F2C     		cmp	r4, #15
 308 0042 F4DD     		ble	.L22
 104:C:/Users/lenovo/Desktop/liteos/Project2/BearPi_LiteOS/components/connectivity/agent_tiny/atiny_lwm2m\object_binary_app_data_container.c ****         for (j = 0 ; j < ARRAY_MAXNUM && i + j < length; j++)
 309              		.loc 1 104 0
 310 0044 224B     		ldr	r3, .L31
 311 0046 1B68     		ldr	r3, [r3]
 312 0048 DB68     		ldr	r3, [r3, #12]
 313 004a 0222     		movs	r2, #2
 314 004c 0121     		movs	r1, #1
 315 004e 2348     		ldr	r0, .L31+12
 316 0050 FFF7FEFF 		bl	fwrite
 317              	.LVL30:
 105:C:/Users/lenovo/Desktop/liteos/Project2/BearPi_LiteOS/components/connectivity/agent_tiny/atiny_lwm2m\object_binary_app_data_container.c ****         {
 318              		.loc 1 105 0
 319 0054 0024     		movs	r4, #0
 320 0056 08E0     		b	.L23
 321              	.LVL31:
 322              	.L24:
 110:C:/Users/lenovo/Desktop/liteos/Project2/BearPi_LiteOS/components/connectivity/agent_tiny/atiny_lwm2m\object_binary_app_data_container.c ****         }
 323              		.loc 1 110 0
 324 0058 1D4B     		ldr	r3, .L31
 325 005a 1B68     		ldr	r3, [r3]
 326 005c DB68     		ldr	r3, [r3, #12]
 327 005e 0222     		movs	r2, #2
 328 0060 0121     		movs	r1, #1
 329 0062 1F48     		ldr	r0, .L31+16
 330 0064 FFF7FEFF 		bl	fwrite
 331              	.LVL32:
 332              	.L25:
 105:C:/Users/lenovo/Desktop/liteos/Project2/BearPi_LiteOS/components/connectivity/agent_tiny/atiny_lwm2m\object_binary_app_data_container.c ****         {
 333              		.loc 1 105 0 discriminator 2
 334 0068 0134     		adds	r4, r4, #1
 335              	.LVL33:
 336              	.L23:
 105:C:/Users/lenovo/Desktop/liteos/Project2/BearPi_LiteOS/components/connectivity/agent_tiny/atiny_lwm2m\object_binary_app_data_container.c ****         {
 337              		.loc 1 105 0 is_stmt 0 discriminator 1
 338 006a 0F2C     		cmp	r4, #15
 339 006c 14DC     		bgt	.L26
 105:C:/Users/lenovo/Desktop/liteos/Project2/BearPi_LiteOS/components/connectivity/agent_tiny/atiny_lwm2m\object_binary_app_data_container.c ****         {
 340              		.loc 1 105 0 discriminator 3
ARM GAS  c:\Users\lenovo\AppData\Local\Temp\cca7TJX2.s 			page 17


 341 006e 2B19     		adds	r3, r5, r4
 342 0070 B342     		cmp	r3, r6
 343 0072 11DA     		bge	.L26
 107:C:/Users/lenovo/Desktop/liteos/Project2/BearPi_LiteOS/components/connectivity/agent_tiny/atiny_lwm2m\object_binary_app_data_container.c ****                 fprintf(stderr, "%c ", array[j]);
 344              		.loc 1 107 0 is_stmt 1
 345 0074 FFF7FEFF 		bl	__locale_ctype_ptr
 346              	.LVL34:
 347 0078 04AB     		add	r3, sp, #16
 348 007a 2344     		add	r3, r3, r4
 349 007c 13F8102C 		ldrb	r2, [r3, #-16]	@ zero_extendqisi2
 350 0080 1044     		add	r0, r0, r2
 351 0082 4378     		ldrb	r3, [r0, #1]	@ zero_extendqisi2
 352 0084 13F0970F 		tst	r3, #151
 353 0088 E6D0     		beq	.L24
 108:C:/Users/lenovo/Desktop/liteos/Project2/BearPi_LiteOS/components/connectivity/agent_tiny/atiny_lwm2m\object_binary_app_data_container.c ****             else
 354              		.loc 1 108 0
 355 008a 114B     		ldr	r3, .L31
 356 008c 1B68     		ldr	r3, [r3]
 357 008e 1549     		ldr	r1, .L31+20
 358 0090 D868     		ldr	r0, [r3, #12]
 359 0092 FFF7FEFF 		bl	fprintf
 360              	.LVL35:
 361 0096 E7E7     		b	.L25
 362              	.L26:
 112:C:/Users/lenovo/Desktop/liteos/Project2/BearPi_LiteOS/components/connectivity/agent_tiny/atiny_lwm2m\object_binary_app_data_container.c **** 
 363              		.loc 1 112 0
 364 0098 0D4B     		ldr	r3, .L31
 365 009a 1B68     		ldr	r3, [r3]
 366 009c D968     		ldr	r1, [r3, #12]
 367 009e 0A20     		movs	r0, #10
 368 00a0 FFF7FEFF 		bl	fputc
 369              	.LVL36:
 114:C:/Users/lenovo/Desktop/liteos/Project2/BearPi_LiteOS/components/connectivity/agent_tiny/atiny_lwm2m\object_binary_app_data_container.c ****     }
 370              		.loc 1 114 0
 371 00a4 1035     		adds	r5, r5, #16
 372              	.LVL37:
 373              	.L17:
 374              	.LBE17:
  88:C:/Users/lenovo/Desktop/liteos/Project2/BearPi_LiteOS/components/connectivity/agent_tiny/atiny_lwm2m\object_binary_app_data_container.c ****     {
 375              		.loc 1 88 0
 376 00a6 B542     		cmp	r5, r6
 377 00a8 10DA     		bge	.L30
 378              	.LBB18:
  91:C:/Users/lenovo/Desktop/liteos/Project2/BearPi_LiteOS/components/connectivity/agent_tiny/atiny_lwm2m\object_binary_app_data_container.c **** 
 379              		.loc 1 91 0
 380 00aa 094B     		ldr	r3, .L31
 381 00ac 1B68     		ldr	r3, [r3]
 382 00ae DB68     		ldr	r3, [r3, #12]
 383 00b0 0222     		movs	r2, #2
 384 00b2 0121     		movs	r1, #1
 385 00b4 0948     		ldr	r0, .L31+12
 386 00b6 FFF7FEFF 		bl	fwrite
 387              	.LVL38:
  93:C:/Users/lenovo/Desktop/liteos/Project2/BearPi_LiteOS/components/connectivity/agent_tiny/atiny_lwm2m\object_binary_app_data_container.c **** 
 388              		.loc 1 93 0
 389 00ba 7B19     		adds	r3, r7, r5
 390 00bc 6C46     		mov	r4, sp
ARM GAS  c:\Users\lenovo\AppData\Local\Temp\cca7TJX2.s 			page 18


 391 00be 1868     		ldr	r0, [r3]	@ unaligned
 392 00c0 5968     		ldr	r1, [r3, #4]	@ unaligned
 393 00c2 9A68     		ldr	r2, [r3, #8]	@ unaligned
 394 00c4 DB68     		ldr	r3, [r3, #12]	@ unaligned
 395 00c6 0FC4     		stmia	r4!, {r0, r1, r2, r3}
 396              	.LVL39:
  95:C:/Users/lenovo/Desktop/liteos/Project2/BearPi_LiteOS/components/connectivity/agent_tiny/atiny_lwm2m\object_binary_app_data_container.c ****         {
 397              		.loc 1 95 0
 398 00c8 0024     		movs	r4, #0
 399 00ca AAE7     		b	.L18
 400              	.LVL40:
 401              	.L30:
 402              	.LBE18:
 116:C:/Users/lenovo/Desktop/liteos/Project2/BearPi_LiteOS/components/connectivity/agent_tiny/atiny_lwm2m\object_binary_app_data_container.c **** 
 403              		.loc 1 116 0
 404 00cc 05B0     		add	sp, sp, #20
 405              	.LCFI10:
 406              		.cfi_def_cfa_offset 20
 407              		@ sp needed
 408 00ce F0BD     		pop	{r4, r5, r6, r7, pc}
 409              	.LVL41:
 410              	.L32:
 411              		.align	2
 412              	.L31:
 413 00d0 00000000 		.word	_impure_ptr
 414 00d4 04000000 		.word	.LC1
 415 00d8 0C000000 		.word	.LC2
 416 00dc 00000000 		.word	.LC0
 417 00e0 14000000 		.word	.LC4
 418 00e4 10000000 		.word	.LC3
 419              		.cfi_endproc
 420              	.LFE144:
 422              		.section	.text.prv_exec,"ax",%progbits
 423              		.align	1
 424              		.syntax unified
 425              		.thumb
 426              		.thumb_func
 427              		.fpu fpv4-sp-d16
 429              	prv_exec:
 430              	.LFB152:
 376:C:/Users/lenovo/Desktop/liteos/Project2/BearPi_LiteOS/components/connectivity/agent_tiny/atiny_lwm2m\object_binary_app_data_container.c **** 
 431              		.loc 1 376 0
 432              		.cfi_startproc
 433              		@ args = 4, pretend = 0, frame = 0
 434              		@ frame_needed = 0, uses_anonymous_args = 0
 435              	.LVL42:
 436 0000 2DE9F043 		push	{r4, r5, r6, r7, r8, r9, lr}
 437              	.LCFI11:
 438              		.cfi_def_cfa_offset 28
 439              		.cfi_offset 4, -28
 440              		.cfi_offset 5, -24
 441              		.cfi_offset 6, -20
 442              		.cfi_offset 7, -16
 443              		.cfi_offset 8, -12
 444              		.cfi_offset 9, -8
 445              		.cfi_offset 14, -4
 446 0004 83B0     		sub	sp, sp, #12
ARM GAS  c:\Users\lenovo\AppData\Local\Temp\cca7TJX2.s 			page 19


 447              	.LCFI12:
 448              		.cfi_def_cfa_offset 40
 449 0006 0546     		mov	r5, r0
 450 0008 0C46     		mov	r4, r1
 451 000a 9046     		mov	r8, r2
 452 000c 1F46     		mov	r7, r3
 453 000e 0A9E     		ldr	r6, [sp, #40]
 378:C:/Users/lenovo/Desktop/liteos/Project2/BearPi_LiteOS/components/connectivity/agent_tiny/atiny_lwm2m\object_binary_app_data_container.c **** 
 454              		.loc 1 378 0
 455 0010 0146     		mov	r1, r0
 456              	.LVL43:
 457 0012 B068     		ldr	r0, [r6, #8]
 458              	.LVL44:
 459 0014 FFF7FEFF 		bl	lwm2m_list_find
 460              	.LVL45:
 461 0018 0028     		cmp	r0, #0
 462 001a 38D0     		beq	.L39
 380:C:/Users/lenovo/Desktop/liteos/Project2/BearPi_LiteOS/components/connectivity/agent_tiny/atiny_lwm2m\object_binary_app_data_container.c ****     {
 463              		.loc 1 380 0
 464 001c 032C     		cmp	r4, #3
 465 001e 3AD8     		bhi	.L40
 466 0020 DFE804F0 		tbb	[pc, r4]
 467              	.L36:
 468 0024 04       		.byte	(.L35-.L36)/2
 469 0025 02       		.byte	(.L37-.L36)/2
 470 0026 1B       		.byte	(.L38-.L36)/2
 471 0027 02       		.byte	(.L37-.L36)/2
 472              		.p2align 1
 473              	.L37:
 388:C:/Users/lenovo/Desktop/liteos/Project2/BearPi_LiteOS/components/connectivity/agent_tiny/atiny_lwm2m\object_binary_app_data_container.c ****     case 2:
 474              		.loc 1 388 0
 475 0028 8520     		movs	r0, #133
 476 002a 31E0     		b	.L34
 477              	.L35:
 384:C:/Users/lenovo/Desktop/liteos/Project2/BearPi_LiteOS/components/connectivity/agent_tiny/atiny_lwm2m\object_binary_app_data_container.c ****         return COAP_204_CHANGED;
 478              		.loc 1 384 0
 479 002c FFF7FEFF 		bl	atiny_get_log_level
 480              	.LVL46:
 481 0030 0128     		cmp	r0, #1
 482 0032 01D9     		bls	.L43
 385:C:/Users/lenovo/Desktop/liteos/Project2/BearPi_LiteOS/components/connectivity/agent_tiny/atiny_lwm2m\object_binary_app_data_container.c ****     }
 483              		.loc 1 385 0
 484 0034 4420     		movs	r0, #68
 485 0036 2BE0     		b	.L34
 486              	.L43:
 384:C:/Users/lenovo/Desktop/liteos/Project2/BearPi_LiteOS/components/connectivity/agent_tiny/atiny_lwm2m\object_binary_app_data_container.c ****         return COAP_204_CHANGED;
 487              		.loc 1 384 0 discriminator 1
 488 0038 0120     		movs	r0, #1
 489 003a FFF7FEFF 		bl	atiny_get_log_level_name
 490              	.LVL47:
 491 003e 0446     		mov	r4, r0
 492 0040 FFF7FEFF 		bl	atiny_gettime_ms
 493              	.LVL48:
 494 0044 4FF4C073 		mov	r3, #384
 495 0048 0093     		str	r3, [sp]
 496 004a 144B     		ldr	r3, .L44
 497 004c 0246     		mov	r2, r0
ARM GAS  c:\Users\lenovo\AppData\Local\Temp\cca7TJX2.s 			page 20


 498 004e 2146     		mov	r1, r4
 499 0050 1348     		ldr	r0, .L44+4
 500 0052 FFF7FEFF 		bl	atiny_printf
 501              	.LVL49:
 385:C:/Users/lenovo/Desktop/liteos/Project2/BearPi_LiteOS/components/connectivity/agent_tiny/atiny_lwm2m\object_binary_app_data_container.c ****     }
 502              		.loc 1 385 0 discriminator 1
 503 0056 4420     		movs	r0, #68
 504 0058 1AE0     		b	.L34
 505              	.L38:
 390:C:/Users/lenovo/Desktop/liteos/Project2/BearPi_LiteOS/components/connectivity/agent_tiny/atiny_lwm2m\object_binary_app_data_container.c ****                 "Execute on %hu/%d/%d\r\n"
 506              		.loc 1 390 0
 507 005a DFF85090 		ldr	r9, .L44+16
 508 005e D9F80030 		ldr	r3, [r9]
 509 0062 9868     		ldr	r0, [r3, #8]
 393:C:/Users/lenovo/Desktop/liteos/Project2/BearPi_LiteOS/components/connectivity/agent_tiny/atiny_lwm2m\object_binary_app_data_container.c ****         prv_output_buffer((uint8_t *)buffer, length);
 510              		.loc 1 393 0
 511 0064 B288     		ldrh	r2, [r6, #4]
 390:C:/Users/lenovo/Desktop/liteos/Project2/BearPi_LiteOS/components/connectivity/agent_tiny/atiny_lwm2m\object_binary_app_data_container.c ****                 "Execute on %hu/%d/%d\r\n"
 512              		.loc 1 390 0
 513 0066 0197     		str	r7, [sp, #4]
 514 0068 0094     		str	r4, [sp]
 515 006a 2B46     		mov	r3, r5
 516 006c 0D49     		ldr	r1, .L44+8
 517 006e FFF7FEFF 		bl	fprintf
 518              	.LVL50:
 394:C:/Users/lenovo/Desktop/liteos/Project2/BearPi_LiteOS/components/connectivity/agent_tiny/atiny_lwm2m\object_binary_app_data_container.c ****         fprintf(stdout, "-----------------\r\n\r\n");
 519              		.loc 1 394 0
 520 0072 3946     		mov	r1, r7
 521 0074 4046     		mov	r0, r8
 522 0076 FFF7FEFF 		bl	prv_output_buffer
 523              	.LVL51:
 395:C:/Users/lenovo/Desktop/liteos/Project2/BearPi_LiteOS/components/connectivity/agent_tiny/atiny_lwm2m\object_binary_app_data_container.c ****         return COAP_204_CHANGED;
 524              		.loc 1 395 0
 525 007a D9F80030 		ldr	r3, [r9]
 526 007e 9B68     		ldr	r3, [r3, #8]
 527 0080 1522     		movs	r2, #21
 528 0082 0121     		movs	r1, #1
 529 0084 0848     		ldr	r0, .L44+12
 530 0086 FFF7FEFF 		bl	fwrite
 531              	.LVL52:
 396:C:/Users/lenovo/Desktop/liteos/Project2/BearPi_LiteOS/components/connectivity/agent_tiny/atiny_lwm2m\object_binary_app_data_container.c ****     case 3:
 532              		.loc 1 396 0
 533 008a 4420     		movs	r0, #68
 534 008c 00E0     		b	.L34
 535              	.L39:
 378:C:/Users/lenovo/Desktop/liteos/Project2/BearPi_LiteOS/components/connectivity/agent_tiny/atiny_lwm2m\object_binary_app_data_container.c **** 
 536              		.loc 1 378 0
 537 008e 8420     		movs	r0, #132
 538              	.L34:
 402:C:/Users/lenovo/Desktop/liteos/Project2/BearPi_LiteOS/components/connectivity/agent_tiny/atiny_lwm2m\object_binary_app_data_container.c **** 
 539              		.loc 1 402 0
 540 0090 03B0     		add	sp, sp, #12
 541              	.LCFI13:
 542              		.cfi_def_cfa_offset 28
 543              		@ sp needed
 544 0092 BDE8F083 		pop	{r4, r5, r6, r7, r8, r9, pc}
 545              	.LVL53:
ARM GAS  c:\Users\lenovo\AppData\Local\Temp\cca7TJX2.s 			page 21


 546              	.L40:
 400:C:/Users/lenovo/Desktop/liteos/Project2/BearPi_LiteOS/components/connectivity/agent_tiny/atiny_lwm2m\object_binary_app_data_container.c ****     }
 547              		.loc 1 400 0
 548 0096 8420     		movs	r0, #132
 549 0098 FAE7     		b	.L34
 550              	.L45:
 551 009a 00BF     		.align	2
 552              	.L44:
 553 009c 00000000 		.word	.LANCHOR0
 554 00a0 00000000 		.word	.LC5
 555 00a4 3C000000 		.word	.LC6
 556 00a8 80000000 		.word	.LC7
 557 00ac 00000000 		.word	_impure_ptr
 558              		.cfi_endproc
 559              	.LFE152:
 561              		.section	.text.prv_write,"ax",%progbits
 562              		.align	1
 563              		.syntax unified
 564              		.thumb
 565              		.thumb_func
 566              		.fpu fpv4-sp-d16
 568              	prv_write:
 569              	.LFB149:
 287:C:/Users/lenovo/Desktop/liteos/Project2/BearPi_LiteOS/components/connectivity/agent_tiny/atiny_lwm2m\object_binary_app_data_container.c ****     plat_instance_t *targetP;
 570              		.loc 1 287 0
 571              		.cfi_startproc
 572              		@ args = 0, pretend = 0, frame = 0
 573              		@ frame_needed = 0, uses_anonymous_args = 0
 574              	.LVL54:
 575 0000 70B5     		push	{r4, r5, r6, lr}
 576              	.LCFI14:
 577              		.cfi_def_cfa_offset 16
 578              		.cfi_offset 4, -16
 579              		.cfi_offset 5, -12
 580              		.cfi_offset 6, -8
 581              		.cfi_offset 14, -4
 582 0002 0E46     		mov	r6, r1
 583 0004 1546     		mov	r5, r2
 291:C:/Users/lenovo/Desktop/liteos/Project2/BearPi_LiteOS/components/connectivity/agent_tiny/atiny_lwm2m\object_binary_app_data_container.c ****     if (NULL == targetP) return COAP_404_NOT_FOUND;
 584              		.loc 1 291 0
 585 0006 0146     		mov	r1, r0
 586              	.LVL55:
 587 0008 9868     		ldr	r0, [r3, #8]
 588              	.LVL56:
 589 000a FFF7FEFF 		bl	lwm2m_list_find
 590              	.LVL57:
 292:C:/Users/lenovo/Desktop/liteos/Project2/BearPi_LiteOS/components/connectivity/agent_tiny/atiny_lwm2m\object_binary_app_data_container.c **** 
 591              		.loc 1 292 0
 592 000e 78B1     		cbz	r0, .L51
 294:C:/Users/lenovo/Desktop/liteos/Project2/BearPi_LiteOS/components/connectivity/agent_tiny/atiny_lwm2m\object_binary_app_data_container.c ****     {
 593              		.loc 1 294 0
 594 0010 0024     		movs	r4, #0
 595              	.LVL58:
 596              	.L48:
 294:C:/Users/lenovo/Desktop/liteos/Project2/BearPi_LiteOS/components/connectivity/agent_tiny/atiny_lwm2m\object_binary_app_data_container.c ****     {
 597              		.loc 1 294 0 is_stmt 0 discriminator 1
 598 0012 B442     		cmp	r4, r6
ARM GAS  c:\Users\lenovo\AppData\Local\Temp\cca7TJX2.s 			page 22


 599 0014 0ADA     		bge	.L55
 296:C:/Users/lenovo/Desktop/liteos/Project2/BearPi_LiteOS/components/connectivity/agent_tiny/atiny_lwm2m\object_binary_app_data_container.c ****         {
 600              		.loc 1 296 0 is_stmt 1
 601 0016 05EB0413 		add	r3, r5, r4, lsl #4
 602 001a 5A88     		ldrh	r2, [r3, #2]
 603 001c 52B9     		cbnz	r2, .L53
 300:C:/Users/lenovo/Desktop/liteos/Project2/BearPi_LiteOS/components/connectivity/agent_tiny/atiny_lwm2m\object_binary_app_data_container.c ****             break;
 604              		.loc 1 300 0
 605 001e AA68     		ldr	r2, [r5, #8]
 606 0020 D968     		ldr	r1, [r3, #12]
 607 0022 1A20     		movs	r0, #26
 608 0024 FFF7FEFF 		bl	atiny_cmd_ioctl
 609              	.LVL59:
 294:C:/Users/lenovo/Desktop/liteos/Project2/BearPi_LiteOS/components/connectivity/agent_tiny/atiny_lwm2m\object_binary_app_data_container.c ****     {
 610              		.loc 1 294 0
 611 0028 0134     		adds	r4, r4, #1
 612              	.LVL60:
 613 002a F2E7     		b	.L48
 614              	.L55:
 308:C:/Users/lenovo/Desktop/liteos/Project2/BearPi_LiteOS/components/connectivity/agent_tiny/atiny_lwm2m\object_binary_app_data_container.c **** }
 615              		.loc 1 308 0
 616 002c 4420     		movs	r0, #68
 617              	.LVL61:
 618              	.L47:
 309:C:/Users/lenovo/Desktop/liteos/Project2/BearPi_LiteOS/components/connectivity/agent_tiny/atiny_lwm2m\object_binary_app_data_container.c **** 
 619              		.loc 1 309 0
 620 002e 70BD     		pop	{r4, r5, r6, pc}
 621              	.LVL62:
 622              	.L51:
 292:C:/Users/lenovo/Desktop/liteos/Project2/BearPi_LiteOS/components/connectivity/agent_tiny/atiny_lwm2m\object_binary_app_data_container.c **** 
 623              		.loc 1 292 0
 624 0030 8420     		movs	r0, #132
 625              	.LVL63:
 626 0032 FCE7     		b	.L47
 627              	.LVL64:
 628              	.L53:
 304:C:/Users/lenovo/Desktop/liteos/Project2/BearPi_LiteOS/components/connectivity/agent_tiny/atiny_lwm2m\object_binary_app_data_container.c ****         }
 629              		.loc 1 304 0
 630 0034 8420     		movs	r0, #132
 631 0036 FAE7     		b	.L47
 632              		.cfi_endproc
 633              	.LFE149:
 635              		.section	.text.prv_create,"ax",%progbits
 636              		.align	1
 637              		.syntax unified
 638              		.thumb
 639              		.thumb_func
 640              		.fpu fpv4-sp-d16
 642              	prv_create:
 643              	.LFB151:
 332:C:/Users/lenovo/Desktop/liteos/Project2/BearPi_LiteOS/components/connectivity/agent_tiny/atiny_lwm2m\object_binary_app_data_container.c ****     plat_instance_t *targetP;
 644              		.loc 1 332 0
 645              		.cfi_startproc
 646              		@ args = 0, pretend = 0, frame = 8
 647              		@ frame_needed = 0, uses_anonymous_args = 0
 648              	.LVL65:
 649 0000 2DE9F043 		push	{r4, r5, r6, r7, r8, r9, lr}
ARM GAS  c:\Users\lenovo\AppData\Local\Temp\cca7TJX2.s 			page 23


 650              	.LCFI15:
 651              		.cfi_def_cfa_offset 28
 652              		.cfi_offset 4, -28
 653              		.cfi_offset 5, -24
 654              		.cfi_offset 6, -20
 655              		.cfi_offset 7, -16
 656              		.cfi_offset 8, -12
 657              		.cfi_offset 9, -8
 658              		.cfi_offset 14, -4
 659 0004 85B0     		sub	sp, sp, #20
 660              	.LCFI16:
 661              		.cfi_def_cfa_offset 48
 662 0006 0546     		mov	r5, r0
 663 0008 0F46     		mov	r7, r1
 664 000a 9046     		mov	r8, r2
 665 000c 1E46     		mov	r6, r3
 339:C:/Users/lenovo/Desktop/liteos/Project2/BearPi_LiteOS/components/connectivity/agent_tiny/atiny_lwm2m\object_binary_app_data_container.c ****     if (NULL == targetP) return COAP_500_INTERNAL_SERVER_ERROR;
 666              		.loc 1 339 0
 667 000e 2020     		movs	r0, #32
 668              	.LVL66:
 669 0010 FFF7FEFF 		bl	lwm2m_malloc
 670              	.LVL67:
 340:C:/Users/lenovo/Desktop/liteos/Project2/BearPi_LiteOS/components/connectivity/agent_tiny/atiny_lwm2m\object_binary_app_data_container.c ****     memset(targetP, 0, sizeof(plat_instance_t));
 671              		.loc 1 340 0
 672 0014 0028     		cmp	r0, #0
 673 0016 48D0     		beq	.L60
 674 0018 0446     		mov	r4, r0
 341:C:/Users/lenovo/Desktop/liteos/Project2/BearPi_LiteOS/components/connectivity/agent_tiny/atiny_lwm2m\object_binary_app_data_container.c ****     //atiny_list_init(&(targetP->header));
 675              		.loc 1 341 0
 676 001a 2022     		movs	r2, #32
 677 001c 0021     		movs	r1, #0
 678 001e FFF7FEFF 		bl	memset
 679              	.LVL68:
 680              	.LBB19:
 681              	.LBB20:
  65:C:/Users/lenovo/Desktop/liteos/Project2/BearPi_LiteOS/components/connectivity/agent_tiny/atiny_lwm2m\atiny_rpt.h ****     uri->objectId = object_id;
 682              		.loc 2 65 0
 683 0022 0723     		movs	r3, #7
 684 0024 8DF80830 		strb	r3, [sp, #8]
  66:C:/Users/lenovo/Desktop/liteos/Project2/BearPi_LiteOS/components/connectivity/agent_tiny/atiny_lwm2m\atiny_rpt.h ****     uri->instanceId = instance_id;
 685              		.loc 2 66 0
 686 0028 1323     		movs	r3, #19
 687 002a ADF80A30 		strh	r3, [sp, #10]	@ movhi
  67:C:/Users/lenovo/Desktop/liteos/Project2/BearPi_LiteOS/components/connectivity/agent_tiny/atiny_lwm2m\atiny_rpt.h ****     uri->resourceId = resource_id;
 688              		.loc 2 67 0
 689 002e ADF80C50 		strh	r5, [sp, #12]	@ movhi
 690              		.loc 2 68 0
 691 0032 0023     		movs	r3, #0
 692 0034 ADF80E30 		strh	r3, [sp, #14]	@ movhi
 693              	.LVL69:
 694              	.LBE20:
 695              	.LBE19:
 346:C:/Users/lenovo/Desktop/liteos/Project2/BearPi_LiteOS/components/connectivity/agent_tiny/atiny_lwm2m\object_binary_app_data_container.c ****     if(ret != ATINY_OK)
 696              		.loc 1 346 0
 697 0038 04F10801 		add	r1, r4, #8
 698 003c 02A8     		add	r0, sp, #8
 699 003e FFF7FEFF 		bl	atiny_add_rpt_uri
ARM GAS  c:\Users\lenovo\AppData\Local\Temp\cca7TJX2.s 			page 24


 700              	.LVL70:
 347:C:/Users/lenovo/Desktop/liteos/Project2/BearPi_LiteOS/components/connectivity/agent_tiny/atiny_lwm2m\object_binary_app_data_container.c ****     {
 701              		.loc 1 347 0
 702 0042 8146     		mov	r9, r0
 703 0044 B0B9     		cbnz	r0, .L63
 354:C:/Users/lenovo/Desktop/liteos/Project2/BearPi_LiteOS/components/connectivity/agent_tiny/atiny_lwm2m\object_binary_app_data_container.c ****     objectP->instanceList = LWM2M_LIST_ADD(objectP->instanceList, targetP);
 704              		.loc 1 354 0
 705 0046 A580     		strh	r5, [r4, #4]	@ movhi
 355:C:/Users/lenovo/Desktop/liteos/Project2/BearPi_LiteOS/components/connectivity/agent_tiny/atiny_lwm2m\object_binary_app_data_container.c **** 
 706              		.loc 1 355 0
 707 0048 2146     		mov	r1, r4
 708 004a B068     		ldr	r0, [r6, #8]
 709              	.LVL71:
 710 004c FFF7FEFF 		bl	lwm2m_list_add
 711              	.LVL72:
 712 0050 B060     		str	r0, [r6, #8]
 357:C:/Users/lenovo/Desktop/liteos/Project2/BearPi_LiteOS/components/connectivity/agent_tiny/atiny_lwm2m\object_binary_app_data_container.c **** 
 713              		.loc 1 357 0
 714 0052 3346     		mov	r3, r6
 715 0054 4246     		mov	r2, r8
 716 0056 3946     		mov	r1, r7
 717 0058 2846     		mov	r0, r5
 718 005a FFF7FEFF 		bl	prv_write
 719              	.LVL73:
 720 005e 0446     		mov	r4, r0
 721              	.LVL74:
 359:C:/Users/lenovo/Desktop/liteos/Project2/BearPi_LiteOS/components/connectivity/agent_tiny/atiny_lwm2m\object_binary_app_data_container.c ****     {
 722              		.loc 1 359 0
 723 0060 4428     		cmp	r0, #68
 724 0062 24D0     		beq	.L61
 361:C:/Users/lenovo/Desktop/liteos/Project2/BearPi_LiteOS/components/connectivity/agent_tiny/atiny_lwm2m\object_binary_app_data_container.c ****     }
 725              		.loc 1 361 0
 726 0064 3146     		mov	r1, r6
 727 0066 2846     		mov	r0, r5
 728              	.LVL75:
 729 0068 FFF7FEFF 		bl	prv_delete
 730              	.LVL76:
 731              	.L57:
 369:C:/Users/lenovo/Desktop/liteos/Project2/BearPi_LiteOS/components/connectivity/agent_tiny/atiny_lwm2m\object_binary_app_data_container.c **** 
 732              		.loc 1 369 0
 733 006c 2046     		mov	r0, r4
 734 006e 05B0     		add	sp, sp, #20
 735              	.LCFI17:
 736              		.cfi_remember_state
 737              		.cfi_def_cfa_offset 28
 738              		@ sp needed
 739 0070 BDE8F083 		pop	{r4, r5, r6, r7, r8, r9, pc}
 740              	.LVL77:
 741              	.L63:
 742              	.LCFI18:
 743              		.cfi_restore_state
 349:C:/Users/lenovo/Desktop/liteos/Project2/BearPi_LiteOS/components/connectivity/agent_tiny/atiny_lwm2m\object_binary_app_data_container.c ****         lwm2m_free(targetP);
 744              		.loc 1 349 0
 745 0074 FFF7FEFF 		bl	atiny_get_log_level
 746              	.LVL78:
 747 0078 0328     		cmp	r0, #3
 748 007a 04D9     		bls	.L64
ARM GAS  c:\Users\lenovo\AppData\Local\Temp\cca7TJX2.s 			page 25


 749              	.L59:
 350:C:/Users/lenovo/Desktop/liteos/Project2/BearPi_LiteOS/components/connectivity/agent_tiny/atiny_lwm2m\object_binary_app_data_container.c ****         return COAP_404_NOT_FOUND;
 750              		.loc 1 350 0
 751 007c 2046     		mov	r0, r4
 752 007e FFF7FEFF 		bl	lwm2m_free
 753              	.LVL79:
 351:C:/Users/lenovo/Desktop/liteos/Project2/BearPi_LiteOS/components/connectivity/agent_tiny/atiny_lwm2m\object_binary_app_data_container.c ****     }
 754              		.loc 1 351 0
 755 0082 8424     		movs	r4, #132
 756              	.LVL80:
 757 0084 F2E7     		b	.L57
 758              	.LVL81:
 759              	.L64:
 349:C:/Users/lenovo/Desktop/liteos/Project2/BearPi_LiteOS/components/connectivity/agent_tiny/atiny_lwm2m\object_binary_app_data_container.c ****         lwm2m_free(targetP);
 760              		.loc 1 349 0 discriminator 1
 761 0086 0320     		movs	r0, #3
 762 0088 FFF7FEFF 		bl	atiny_get_log_level_name
 763              	.LVL82:
 764 008c 0546     		mov	r5, r0
 765 008e FFF7FEFF 		bl	atiny_gettime_ms
 766              	.LVL83:
 767 0092 CDF80490 		str	r9, [sp, #4]
 768 0096 40F25D13 		movw	r3, #349
 769 009a 0093     		str	r3, [sp]
 770 009c 054B     		ldr	r3, .L65
 771 009e 0246     		mov	r2, r0
 772 00a0 2946     		mov	r1, r5
 773 00a2 0548     		ldr	r0, .L65+4
 774 00a4 FFF7FEFF 		bl	atiny_printf
 775              	.LVL84:
 776 00a8 E8E7     		b	.L59
 777              	.LVL85:
 778              	.L60:
 340:C:/Users/lenovo/Desktop/liteos/Project2/BearPi_LiteOS/components/connectivity/agent_tiny/atiny_lwm2m\object_binary_app_data_container.c ****     memset(targetP, 0, sizeof(plat_instance_t));
 779              		.loc 1 340 0
 780 00aa A024     		movs	r4, #160
 781 00ac DEE7     		b	.L57
 782              	.LVL86:
 783              	.L61:
 365:C:/Users/lenovo/Desktop/liteos/Project2/BearPi_LiteOS/components/connectivity/agent_tiny/atiny_lwm2m\object_binary_app_data_container.c ****     }
 784              		.loc 1 365 0
 785 00ae 4124     		movs	r4, #65
 786 00b0 DCE7     		b	.L57
 787              	.L66:
 788 00b2 00BF     		.align	2
 789              	.L65:
 790 00b4 00000000 		.word	.LANCHOR1
 791 00b8 00000000 		.word	.LC8
 792              		.cfi_endproc
 793              	.LFE151:
 795              		.section	.text.prv_discover,"ax",%progbits
 796              		.align	1
 797              		.syntax unified
 798              		.thumb
 799              		.thumb_func
 800              		.fpu fpv4-sp-d16
 802              	prv_discover:
ARM GAS  c:\Users\lenovo\AppData\Local\Temp\cca7TJX2.s 			page 26


 803              	.LFB148:
 251:C:/Users/lenovo/Desktop/liteos/Project2/BearPi_LiteOS/components/connectivity/agent_tiny/atiny_lwm2m\object_binary_app_data_container.c ****     int i;
 804              		.loc 1 251 0
 805              		.cfi_startproc
 806              		@ args = 0, pretend = 0, frame = 0
 807              		@ frame_needed = 0, uses_anonymous_args = 0
 808              	.LVL87:
 809 0000 38B5     		push	{r3, r4, r5, lr}
 810              	.LCFI19:
 811              		.cfi_def_cfa_offset 16
 812              		.cfi_offset 3, -16
 813              		.cfi_offset 4, -12
 814              		.cfi_offset 5, -8
 815              		.cfi_offset 14, -4
 255:C:/Users/lenovo/Desktop/liteos/Project2/BearPi_LiteOS/components/connectivity/agent_tiny/atiny_lwm2m\object_binary_app_data_container.c ****     {
 816              		.loc 1 255 0
 817 0002 0868     		ldr	r0, [r1]
 818              	.LVL88:
 819 0004 58B1     		cbz	r0, .L76
 266:C:/Users/lenovo/Desktop/liteos/Project2/BearPi_LiteOS/components/connectivity/agent_tiny/atiny_lwm2m\object_binary_app_data_container.c ****         {
 820              		.loc 1 266 0
 821 0006 0023     		movs	r3, #0
 822              	.LVL89:
 823              	.L68:
 266:C:/Users/lenovo/Desktop/liteos/Project2/BearPi_LiteOS/components/connectivity/agent_tiny/atiny_lwm2m\object_binary_app_data_container.c ****         {
 824              		.loc 1 266 0 is_stmt 0 discriminator 1
 825 0008 9842     		cmp	r0, r3
 826 000a 1BDD     		ble	.L77
 268:C:/Users/lenovo/Desktop/liteos/Project2/BearPi_LiteOS/components/connectivity/agent_tiny/atiny_lwm2m\object_binary_app_data_container.c ****             {
 827              		.loc 1 268 0 is_stmt 1
 828 000c 1168     		ldr	r1, [r2]
 829 000e 01EB0311 		add	r1, r1, r3, lsl #4
 830 0012 4988     		ldrh	r1, [r1, #2]
 831 0014 0139     		subs	r1, r1, #1
 832 0016 0229     		cmp	r1, #2
 833 0018 18D8     		bhi	.L74
 266:C:/Users/lenovo/Desktop/liteos/Project2/BearPi_LiteOS/components/connectivity/agent_tiny/atiny_lwm2m\object_binary_app_data_container.c ****         {
 834              		.loc 1 266 0 discriminator 2
 835 001a 0133     		adds	r3, r3, #1
 836              	.LVL90:
 837 001c F4E7     		b	.L68
 838              	.LVL91:
 839              	.L76:
 840 001e 1446     		mov	r4, r2
 841 0020 0D46     		mov	r5, r1
 257:C:/Users/lenovo/Desktop/liteos/Project2/BearPi_LiteOS/components/connectivity/agent_tiny/atiny_lwm2m\object_binary_app_data_container.c ****         if (*dataArrayP == NULL) return COAP_500_INTERNAL_SERVER_ERROR;
 842              		.loc 1 257 0
 843 0022 0320     		movs	r0, #3
 844 0024 FFF7FEFF 		bl	lwm2m_data_new
 845              	.LVL92:
 846 0028 2060     		str	r0, [r4]
 258:C:/Users/lenovo/Desktop/liteos/Project2/BearPi_LiteOS/components/connectivity/agent_tiny/atiny_lwm2m\object_binary_app_data_container.c ****         *numDataP = 3;
 847              		.loc 1 258 0
 848 002a 68B1     		cbz	r0, .L73
 259:C:/Users/lenovo/Desktop/liteos/Project2/BearPi_LiteOS/components/connectivity/agent_tiny/atiny_lwm2m\object_binary_app_data_container.c ****         (*dataArrayP)[0].id = 1;
 849              		.loc 1 259 0
 850 002c 0323     		movs	r3, #3
ARM GAS  c:\Users\lenovo\AppData\Local\Temp\cca7TJX2.s 			page 27


 851 002e 2B60     		str	r3, [r5]
 260:C:/Users/lenovo/Desktop/liteos/Project2/BearPi_LiteOS/components/connectivity/agent_tiny/atiny_lwm2m\object_binary_app_data_container.c ****         (*dataArrayP)[1].id = 2;
 852              		.loc 1 260 0
 853 0030 2268     		ldr	r2, [r4]
 854 0032 0121     		movs	r1, #1
 855 0034 5180     		strh	r1, [r2, #2]	@ movhi
 261:C:/Users/lenovo/Desktop/liteos/Project2/BearPi_LiteOS/components/connectivity/agent_tiny/atiny_lwm2m\object_binary_app_data_container.c ****         (*dataArrayP)[2].id = 3;
 856              		.loc 1 261 0
 857 0036 2268     		ldr	r2, [r4]
 858 0038 0221     		movs	r1, #2
 859 003a 5182     		strh	r1, [r2, #18]	@ movhi
 262:C:/Users/lenovo/Desktop/liteos/Project2/BearPi_LiteOS/components/connectivity/agent_tiny/atiny_lwm2m\object_binary_app_data_container.c ****     }
 860              		.loc 1 262 0
 861 003c 2268     		ldr	r2, [r4]
 862 003e 5384     		strh	r3, [r2, #34]	@ movhi
 280:C:/Users/lenovo/Desktop/liteos/Project2/BearPi_LiteOS/components/connectivity/agent_tiny/atiny_lwm2m\object_binary_app_data_container.c **** }
 863              		.loc 1 280 0
 864 0040 4520     		movs	r0, #69
 865 0042 00E0     		b	.L69
 866              	.LVL93:
 867              	.L77:
 868 0044 4520     		movs	r0, #69
 869              	.LVL94:
 870              	.L69:
 281:C:/Users/lenovo/Desktop/liteos/Project2/BearPi_LiteOS/components/connectivity/agent_tiny/atiny_lwm2m\object_binary_app_data_container.c **** 
 871              		.loc 1 281 0
 872 0046 38BD     		pop	{r3, r4, r5, pc}
 873              	.LVL95:
 874              	.L73:
 258:C:/Users/lenovo/Desktop/liteos/Project2/BearPi_LiteOS/components/connectivity/agent_tiny/atiny_lwm2m\object_binary_app_data_container.c ****         *numDataP = 3;
 875              		.loc 1 258 0
 876 0048 A020     		movs	r0, #160
 877 004a FCE7     		b	.L69
 878              	.LVL96:
 879              	.L74:
 275:C:/Users/lenovo/Desktop/liteos/Project2/BearPi_LiteOS/components/connectivity/agent_tiny/atiny_lwm2m\object_binary_app_data_container.c ****             }
 880              		.loc 1 275 0
 881 004c 8420     		movs	r0, #132
 882 004e FAE7     		b	.L69
 883              		.cfi_endproc
 884              	.LFE148:
 886              		.section	.text.prv_read_data,"ax",%progbits
 887              		.align	1
 888              		.syntax unified
 889              		.thumb
 890              		.thumb_func
 891              		.fpu fpv4-sp-d16
 893              	prv_read_data:
 894              	.LFB145:
 122:C:/Users/lenovo/Desktop/liteos/Project2/BearPi_LiteOS/components/connectivity/agent_tiny/atiny_lwm2m\object_binary_app_data_container.c ****     int i;
 895              		.loc 1 122 0
 896              		.cfi_startproc
 897              		@ args = 0, pretend = 0, frame = 24
 898              		@ frame_needed = 0, uses_anonymous_args = 0
 899              	.LVL97:
 900 0000 2DE9F04F 		push	{r4, r5, r6, r7, r8, r9, r10, fp, lr}
 901              	.LCFI20:
ARM GAS  c:\Users\lenovo\AppData\Local\Temp\cca7TJX2.s 			page 28


 902              		.cfi_def_cfa_offset 36
 903              		.cfi_offset 4, -36
 904              		.cfi_offset 5, -32
 905              		.cfi_offset 6, -28
 906              		.cfi_offset 7, -24
 907              		.cfi_offset 8, -20
 908              		.cfi_offset 9, -16
 909              		.cfi_offset 10, -12
 910              		.cfi_offset 11, -8
 911              		.cfi_offset 14, -4
 912 0004 89B0     		sub	sp, sp, #36
 913              	.LCFI21:
 914              		.cfi_def_cfa_offset 72
 915 0006 8246     		mov	r10, r0
 916 0008 8946     		mov	r9, r1
 917 000a 9046     		mov	r8, r2
 918 000c 1E46     		mov	r6, r3
 919              	.LVL98:
 127:C:/Users/lenovo/Desktop/liteos/Project2/BearPi_LiteOS/components/connectivity/agent_tiny/atiny_lwm2m\object_binary_app_data_container.c ****     {
 920              		.loc 1 127 0
 921 000e 0025     		movs	r5, #0
 922 0010 4CE0     		b	.L79
 923              	.LVL99:
 924              	.L97:
 925              	.LBB21:
 135:C:/Users/lenovo/Desktop/liteos/Project2/BearPi_LiteOS/components/connectivity/agent_tiny/atiny_lwm2m\object_binary_app_data_container.c ****                 if(NULL == buf)
 926              		.loc 1 135 0
 927 0012 0120     		movs	r0, #1
 928 0014 FFF7FEFF 		bl	lwm2m_malloc
 929              	.LVL100:
 136:C:/Users/lenovo/Desktop/liteos/Project2/BearPi_LiteOS/components/connectivity/agent_tiny/atiny_lwm2m\object_binary_app_data_container.c ****                 {
 930              		.loc 1 136 0
 931 0018 48B1     		cbz	r0, .L93
 141:C:/Users/lenovo/Desktop/liteos/Project2/BearPi_LiteOS/components/connectivity/agent_tiny/atiny_lwm2m\object_binary_app_data_container.c ****                 dataArrayP[i].id = 0;
 932              		.loc 1 141 0
 933 001a 0022     		movs	r2, #0
 934 001c 0270     		strb	r2, [r0]
 142:C:/Users/lenovo/Desktop/liteos/Project2/BearPi_LiteOS/components/connectivity/agent_tiny/atiny_lwm2m\object_binary_app_data_container.c ****                 dataArrayP[i].type = LWM2M_TYPE_OPAQUE;
 935              		.loc 1 142 0
 936 001e 6280     		strh	r2, [r4, #2]	@ movhi
 143:C:/Users/lenovo/Desktop/liteos/Project2/BearPi_LiteOS/components/connectivity/agent_tiny/atiny_lwm2m\object_binary_app_data_container.c ****                 dataArrayP[i].value.asBuffer.buffer = buf;
 937              		.loc 1 143 0
 938 0020 0522     		movs	r2, #5
 939 0022 08F80720 		strb	r2, [r8, r7]
 144:C:/Users/lenovo/Desktop/liteos/Project2/BearPi_LiteOS/components/connectivity/agent_tiny/atiny_lwm2m\object_binary_app_data_container.c ****                 dataArrayP[i].value.asBuffer.length = 1;
 940              		.loc 1 144 0
 941 0026 E060     		str	r0, [r4, #12]
 145:C:/Users/lenovo/Desktop/liteos/Project2/BearPi_LiteOS/components/connectivity/agent_tiny/atiny_lwm2m\object_binary_app_data_container.c ****             }
 942              		.loc 1 145 0
 943 0028 0123     		movs	r3, #1
 944 002a A360     		str	r3, [r4, #8]
 945              	.LBE21:
 946 002c 3DE0     		b	.L84
 947              	.L93:
 948              	.LBB22:
 138:C:/Users/lenovo/Desktop/liteos/Project2/BearPi_LiteOS/components/connectivity/agent_tiny/atiny_lwm2m\object_binary_app_data_container.c ****                     return COAP_404_NOT_FOUND;
 949              		.loc 1 138 0
ARM GAS  c:\Users\lenovo\AppData\Local\Temp\cca7TJX2.s 			page 29


 950 002e FFF7FEFF 		bl	atiny_get_log_level
 951              	.LVL101:
 952 0032 0328     		cmp	r0, #3
 953 0034 01D9     		bls	.L94
 139:C:/Users/lenovo/Desktop/liteos/Project2/BearPi_LiteOS/components/connectivity/agent_tiny/atiny_lwm2m\object_binary_app_data_container.c ****                 }
 954              		.loc 1 139 0
 955 0036 8420     		movs	r0, #132
 956 0038 5CE0     		b	.L80
 957              	.L94:
 138:C:/Users/lenovo/Desktop/liteos/Project2/BearPi_LiteOS/components/connectivity/agent_tiny/atiny_lwm2m\object_binary_app_data_container.c ****                     return COAP_404_NOT_FOUND;
 958              		.loc 1 138 0 discriminator 1
 959 003a 0320     		movs	r0, #3
 960 003c FFF7FEFF 		bl	atiny_get_log_level_name
 961              	.LVL102:
 962 0040 0446     		mov	r4, r0
 963 0042 FFF7FEFF 		bl	atiny_gettime_ms
 964              	.LVL103:
 965 0046 8A23     		movs	r3, #138
 966 0048 0093     		str	r3, [sp]
 967 004a 2D4B     		ldr	r3, .L99
 968 004c 0246     		mov	r2, r0
 969 004e 2146     		mov	r1, r4
 970 0050 2C48     		ldr	r0, .L99+4
 971 0052 FFF7FEFF 		bl	atiny_printf
 972              	.LVL104:
 139:C:/Users/lenovo/Desktop/liteos/Project2/BearPi_LiteOS/components/connectivity/agent_tiny/atiny_lwm2m\object_binary_app_data_container.c ****                 }
 973              		.loc 1 139 0 discriminator 1
 974 0056 8420     		movs	r0, #132
 975 0058 4CE0     		b	.L80
 976              	.LVL105:
 977              	.L98:
 978              	.LBE22:
 152:C:/Users/lenovo/Desktop/liteos/Project2/BearPi_LiteOS/components/connectivity/agent_tiny/atiny_lwm2m\object_binary_app_data_container.c ****                     return COAP_404_NOT_FOUND;
 979              		.loc 1 152 0
 980 005a FFF7FEFF 		bl	atiny_get_log_level
 981              	.LVL106:
 982 005e 0128     		cmp	r0, #1
 983 0060 01D9     		bls	.L95
 153:C:/Users/lenovo/Desktop/liteos/Project2/BearPi_LiteOS/components/connectivity/agent_tiny/atiny_lwm2m\object_binary_app_data_container.c ****                 }
 984              		.loc 1 153 0
 985 0062 8420     		movs	r0, #132
 986 0064 46E0     		b	.L80
 987              	.L95:
 152:C:/Users/lenovo/Desktop/liteos/Project2/BearPi_LiteOS/components/connectivity/agent_tiny/atiny_lwm2m\object_binary_app_data_container.c ****                     return COAP_404_NOT_FOUND;
 988              		.loc 1 152 0 discriminator 1
 989 0066 0120     		movs	r0, #1
 990 0068 FFF7FEFF 		bl	atiny_get_log_level_name
 991              	.LVL107:
 992 006c 0446     		mov	r4, r0
 993 006e FFF7FEFF 		bl	atiny_gettime_ms
 994              	.LVL108:
 995 0072 CDF804B0 		str	fp, [sp, #4]
 996 0076 9823     		movs	r3, #152
 997 0078 0093     		str	r3, [sp]
 998 007a 214B     		ldr	r3, .L99
 999 007c 0246     		mov	r2, r0
 1000 007e 2146     		mov	r1, r4
ARM GAS  c:\Users\lenovo\AppData\Local\Temp\cca7TJX2.s 			page 30


 1001 0080 2148     		ldr	r0, .L99+8
 1002 0082 FFF7FEFF 		bl	atiny_printf
 1003              	.LVL109:
 153:C:/Users/lenovo/Desktop/liteos/Project2/BearPi_LiteOS/components/connectivity/agent_tiny/atiny_lwm2m\object_binary_app_data_container.c ****                 }
 1004              		.loc 1 153 0 discriminator 1
 1005 0086 8420     		movs	r0, #132
 1006 0088 34E0     		b	.L80
 1007              	.LVL110:
 1008              	.L86:
 160:C:/Users/lenovo/Desktop/liteos/Project2/BearPi_LiteOS/components/connectivity/agent_tiny/atiny_lwm2m\object_binary_app_data_container.c ****                 dataArrayP[i].type = LWM2M_TYPE_OPAQUE;
 1009              		.loc 1 160 0
 1010 008a 0023     		movs	r3, #0
 1011 008c 6380     		strh	r3, [r4, #2]	@ movhi
 161:C:/Users/lenovo/Desktop/liteos/Project2/BearPi_LiteOS/components/connectivity/agent_tiny/atiny_lwm2m\object_binary_app_data_container.c ****                 dataArrayP[i].value.asBuffer.buffer = data.buf;
 1012              		.loc 1 161 0
 1013 008e 0523     		movs	r3, #5
 1014 0090 08F80730 		strb	r3, [r8, r7]
 162:C:/Users/lenovo/Desktop/liteos/Project2/BearPi_LiteOS/components/connectivity/agent_tiny/atiny_lwm2m\object_binary_app_data_container.c ****                 dataArrayP[i].value.asBuffer.length = data.len;
 1015              		.loc 1 162 0
 1016 0094 069B     		ldr	r3, [sp, #24]
 1017 0096 E360     		str	r3, [r4, #12]
 163:C:/Users/lenovo/Desktop/liteos/Project2/BearPi_LiteOS/components/connectivity/agent_tiny/atiny_lwm2m\object_binary_app_data_container.c ****                 dataCfg->type = data.type;
 1018              		.loc 1 163 0
 1019 0098 059B     		ldr	r3, [sp, #20]
 1020 009a A360     		str	r3, [r4, #8]
 164:C:/Users/lenovo/Desktop/liteos/Project2/BearPi_LiteOS/components/connectivity/agent_tiny/atiny_lwm2m\object_binary_app_data_container.c ****                 dataCfg->cookie = data.cookie;
 1021              		.loc 1 164 0
 1022 009c 9DF80C30 		ldrb	r3, [sp, #12]	@ zero_extendqisi2
 1023 00a0 3360     		str	r3, [r6]
 165:C:/Users/lenovo/Desktop/liteos/Project2/BearPi_LiteOS/components/connectivity/agent_tiny/atiny_lwm2m\object_binary_app_data_container.c ****                 dataCfg->callback = (lwm2m_data_process)data.callback;
 1024              		.loc 1 165 0
 1025 00a2 049B     		ldr	r3, [sp, #16]
 1026 00a4 7360     		str	r3, [r6, #4]
 166:C:/Users/lenovo/Desktop/liteos/Project2/BearPi_LiteOS/components/connectivity/agent_tiny/atiny_lwm2m\object_binary_app_data_container.c ****             }
 1027              		.loc 1 166 0
 1028 00a6 079B     		ldr	r3, [sp, #28]
 1029 00a8 B360     		str	r3, [r6, #8]
 1030              	.L84:
 127:C:/Users/lenovo/Desktop/liteos/Project2/BearPi_LiteOS/components/connectivity/agent_tiny/atiny_lwm2m\object_binary_app_data_container.c ****     {
 1031              		.loc 1 127 0 discriminator 2
 1032 00aa 0135     		adds	r5, r5, #1
 1033              	.LVL111:
 1034              	.L79:
 127:C:/Users/lenovo/Desktop/liteos/Project2/BearPi_LiteOS/components/connectivity/agent_tiny/atiny_lwm2m\object_binary_app_data_container.c ****     {
 1035              		.loc 1 127 0 is_stmt 0 discriminator 1
 1036 00ac 4D45     		cmp	r5, r9
 1037 00ae 20DA     		bge	.L96
 129:C:/Users/lenovo/Desktop/liteos/Project2/BearPi_LiteOS/components/connectivity/agent_tiny/atiny_lwm2m\object_binary_app_data_container.c ****         {
 1038              		.loc 1 129 0 is_stmt 1
 1039 00b0 2F01     		lsls	r7, r5, #4
 1040 00b2 08EB0704 		add	r4, r8, r7
 1041 00b6 6388     		ldrh	r3, [r4, #2]
 1042 00b8 FBB9     		cbnz	r3, .L91
 133:C:/Users/lenovo/Desktop/liteos/Project2/BearPi_LiteOS/components/connectivity/agent_tiny/atiny_lwm2m\object_binary_app_data_container.c ****             {
 1043              		.loc 1 133 0
 1044 00ba 002E     		cmp	r6, #0
 1045 00bc A9D0     		beq	.L97
ARM GAS  c:\Users\lenovo\AppData\Local\Temp\cca7TJX2.s 			page 31


 149:C:/Users/lenovo/Desktop/liteos/Project2/BearPi_LiteOS/components/connectivity/agent_tiny/atiny_lwm2m\object_binary_app_data_container.c ****                 if (ret != ATINY_OK)
 1046              		.loc 1 149 0
 1047 00be 03A9     		add	r1, sp, #12
 1048 00c0 DAF80800 		ldr	r0, [r10, #8]
 1049 00c4 FFF7FEFF 		bl	atiny_dequeue_rpt_data
 1050              	.LVL112:
 150:C:/Users/lenovo/Desktop/liteos/Project2/BearPi_LiteOS/components/connectivity/agent_tiny/atiny_lwm2m\object_binary_app_data_container.c ****                 {
 1051              		.loc 1 150 0
 1052 00c8 8346     		mov	fp, r0
 1053 00ca 0028     		cmp	r0, #0
 1054 00cc C5D1     		bne	.L98
 157:C:/Users/lenovo/Desktop/liteos/Project2/BearPi_LiteOS/components/connectivity/agent_tiny/atiny_lwm2m\object_binary_app_data_container.c ****                 }
 1055              		.loc 1 157 0
 1056 00ce FFF7FEFF 		bl	atiny_get_log_level
 1057              	.LVL113:
 1058 00d2 0028     		cmp	r0, #0
 1059 00d4 D9D1     		bne	.L86
 157:C:/Users/lenovo/Desktop/liteos/Project2/BearPi_LiteOS/components/connectivity/agent_tiny/atiny_lwm2m\object_binary_app_data_container.c ****                 }
 1060              		.loc 1 157 0 is_stmt 0 discriminator 1
 1061 00d6 FFF7FEFF 		bl	atiny_get_log_level_name
 1062              	.LVL114:
 1063 00da 8346     		mov	fp, r0
 1064              	.LVL115:
 1065 00dc FFF7FEFF 		bl	atiny_gettime_ms
 1066              	.LVL116:
 1067 00e0 9D23     		movs	r3, #157
 1068 00e2 0093     		str	r3, [sp]
 1069 00e4 064B     		ldr	r3, .L99
 1070 00e6 0246     		mov	r2, r0
 1071 00e8 5946     		mov	r1, fp
 1072 00ea 0848     		ldr	r0, .L99+12
 1073 00ec FFF7FEFF 		bl	atiny_printf
 1074              	.LVL117:
 1075 00f0 CBE7     		b	.L86
 1076              	.L96:
 174:C:/Users/lenovo/Desktop/liteos/Project2/BearPi_LiteOS/components/connectivity/agent_tiny/atiny_lwm2m\object_binary_app_data_container.c **** }
 1077              		.loc 1 174 0 is_stmt 1
 1078 00f2 4520     		movs	r0, #69
 1079              	.L80:
 175:C:/Users/lenovo/Desktop/liteos/Project2/BearPi_LiteOS/components/connectivity/agent_tiny/atiny_lwm2m\object_binary_app_data_container.c **** 
 1080              		.loc 1 175 0
 1081 00f4 09B0     		add	sp, sp, #36
 1082              	.LCFI22:
 1083              		.cfi_remember_state
 1084              		.cfi_def_cfa_offset 36
 1085              		@ sp needed
 1086 00f6 BDE8F08F 		pop	{r4, r5, r6, r7, r8, r9, r10, fp, pc}
 1087              	.LVL118:
 1088              	.L91:
 1089              	.LCFI23:
 1090              		.cfi_restore_state
 170:C:/Users/lenovo/Desktop/liteos/Project2/BearPi_LiteOS/components/connectivity/agent_tiny/atiny_lwm2m\object_binary_app_data_container.c ****         }
 1091              		.loc 1 170 0
 1092 00fa 8420     		movs	r0, #132
 1093 00fc FAE7     		b	.L80
 1094              	.L100:
 1095 00fe 00BF     		.align	2
ARM GAS  c:\Users\lenovo\AppData\Local\Temp\cca7TJX2.s 			page 32


 1096              	.L99:
 1097 0100 00000000 		.word	.LANCHOR2
 1098 0104 00000000 		.word	.LC9
 1099 0108 20000000 		.word	.LC10
 1100 010c 58000000 		.word	.LC11
 1101              		.cfi_endproc
 1102              	.LFE145:
 1104              		.section	.text.prv_read,"ax",%progbits
 1105              		.align	1
 1106              		.syntax unified
 1107              		.thumb
 1108              		.thumb_func
 1109              		.fpu fpv4-sp-d16
 1111              	prv_read:
 1112              	.LFB147:
 205:C:/Users/lenovo/Desktop/liteos/Project2/BearPi_LiteOS/components/connectivity/agent_tiny/atiny_lwm2m\object_binary_app_data_container.c ****     plat_instance_t *targetP;
 1113              		.loc 1 205 0
 1114              		.cfi_startproc
 1115              		@ args = 4, pretend = 0, frame = 0
 1116              		@ frame_needed = 0, uses_anonymous_args = 0
 1117              	.LVL119:
 1118 0000 2DE9F043 		push	{r4, r5, r6, r7, r8, r9, lr}
 1119              	.LCFI24:
 1120              		.cfi_def_cfa_offset 28
 1121              		.cfi_offset 4, -28
 1122              		.cfi_offset 5, -24
 1123              		.cfi_offset 6, -20
 1124              		.cfi_offset 7, -16
 1125              		.cfi_offset 8, -12
 1126              		.cfi_offset 9, -8
 1127              		.cfi_offset 14, -4
 1128 0004 83B0     		sub	sp, sp, #12
 1129              	.LCFI25:
 1130              		.cfi_def_cfa_offset 40
 1131 0006 0646     		mov	r6, r0
 1132 0008 0C46     		mov	r4, r1
 1133 000a 1546     		mov	r5, r2
 1134 000c 9946     		mov	r9, r3
 1135              	.LVL120:
 211:C:/Users/lenovo/Desktop/liteos/Project2/BearPi_LiteOS/components/connectivity/agent_tiny/atiny_lwm2m\object_binary_app_data_container.c ****     if (NULL == targetP)
 1136              		.loc 1 211 0
 1137 000e 0146     		mov	r1, r0
 1138              	.LVL121:
 1139 0010 0A9B     		ldr	r3, [sp, #40]
 1140              	.LVL122:
 1141 0012 9868     		ldr	r0, [r3, #8]
 1142              	.LVL123:
 1143 0014 FFF7FEFF 		bl	lwm2m_list_find
 1144              	.LVL124:
 212:C:/Users/lenovo/Desktop/liteos/Project2/BearPi_LiteOS/components/connectivity/agent_tiny/atiny_lwm2m\object_binary_app_data_container.c ****     {
 1145              		.loc 1 212 0
 1146 0018 70B1     		cbz	r0, .L110
 1147 001a 8046     		mov	r8, r0
 218:C:/Users/lenovo/Desktop/liteos/Project2/BearPi_LiteOS/components/connectivity/agent_tiny/atiny_lwm2m\object_binary_app_data_container.c ****     {
 1148              		.loc 1 218 0
 1149 001c 2368     		ldr	r3, [r4]
 1150 001e 002B     		cmp	r3, #0
ARM GAS  c:\Users\lenovo\AppData\Local\Temp\cca7TJX2.s 			page 33


 1151 0020 37D1     		bne	.L107
 220:C:/Users/lenovo/Desktop/liteos/Project2/BearPi_LiteOS/components/connectivity/agent_tiny/atiny_lwm2m\object_binary_app_data_container.c ****         if (*dataArrayP == NULL)
 1152              		.loc 1 220 0
 1153 0022 0120     		movs	r0, #1
 1154              	.LVL125:
 1155 0024 FFF7FEFF 		bl	lwm2m_data_new
 1156              	.LVL126:
 1157 0028 2860     		str	r0, [r5]
 221:C:/Users/lenovo/Desktop/liteos/Project2/BearPi_LiteOS/components/connectivity/agent_tiny/atiny_lwm2m\object_binary_app_data_container.c ****         {
 1158              		.loc 1 221 0
 1159 002a E0B1     		cbz	r0, .L111
 227:C:/Users/lenovo/Desktop/liteos/Project2/BearPi_LiteOS/components/connectivity/agent_tiny/atiny_lwm2m\object_binary_app_data_container.c ****         (*dataArrayP)[0].id = 0;
 1160              		.loc 1 227 0
 1161 002c 0127     		movs	r7, #1
 1162 002e 2760     		str	r7, [r4]
 228:C:/Users/lenovo/Desktop/liteos/Project2/BearPi_LiteOS/components/connectivity/agent_tiny/atiny_lwm2m\object_binary_app_data_container.c ****         new_data_flag = true;
 1163              		.loc 1 228 0
 1164 0030 2B68     		ldr	r3, [r5]
 1165 0032 0022     		movs	r2, #0
 1166 0034 5A80     		strh	r2, [r3, #2]	@ movhi
 1167              	.LVL127:
 1168 0036 2DE0     		b	.L104
 1169              	.LVL128:
 1170              	.L110:
 214:C:/Users/lenovo/Desktop/liteos/Project2/BearPi_LiteOS/components/connectivity/agent_tiny/atiny_lwm2m\object_binary_app_data_container.c ****         return COAP_404_NOT_FOUND;
 1171              		.loc 1 214 0
 1172 0038 FFF7FEFF 		bl	atiny_get_log_level
 1173              	.LVL129:
 1174 003c 0328     		cmp	r0, #3
 1175 003e 01D9     		bls	.L112
 215:C:/Users/lenovo/Desktop/liteos/Project2/BearPi_LiteOS/components/connectivity/agent_tiny/atiny_lwm2m\object_binary_app_data_container.c ****     }
 1176              		.loc 1 215 0
 1177 0040 8426     		movs	r6, #132
 1178 0042 35E0     		b	.L103
 1179              	.L112:
 214:C:/Users/lenovo/Desktop/liteos/Project2/BearPi_LiteOS/components/connectivity/agent_tiny/atiny_lwm2m\object_binary_app_data_container.c ****         return COAP_404_NOT_FOUND;
 1180              		.loc 1 214 0 discriminator 1
 1181 0044 0320     		movs	r0, #3
 1182 0046 FFF7FEFF 		bl	atiny_get_log_level_name
 1183              	.LVL130:
 1184 004a 0446     		mov	r4, r0
 1185              	.LVL131:
 1186 004c FFF7FEFF 		bl	atiny_gettime_ms
 1187              	.LVL132:
 1188 0050 0196     		str	r6, [sp, #4]
 1189 0052 D623     		movs	r3, #214
 1190 0054 0093     		str	r3, [sp]
 1191 0056 1B4B     		ldr	r3, .L115
 1192 0058 0246     		mov	r2, r0
 1193 005a 2146     		mov	r1, r4
 1194 005c 1A48     		ldr	r0, .L115+4
 1195 005e FFF7FEFF 		bl	atiny_printf
 1196              	.LVL133:
 215:C:/Users/lenovo/Desktop/liteos/Project2/BearPi_LiteOS/components/connectivity/agent_tiny/atiny_lwm2m\object_binary_app_data_container.c ****     }
 1197              		.loc 1 215 0 discriminator 1
 1198 0062 8426     		movs	r6, #132
 1199 0064 24E0     		b	.L103
ARM GAS  c:\Users\lenovo\AppData\Local\Temp\cca7TJX2.s 			page 34


 1200              	.LVL134:
 1201              	.L111:
 223:C:/Users/lenovo/Desktop/liteos/Project2/BearPi_LiteOS/components/connectivity/agent_tiny/atiny_lwm2m\object_binary_app_data_container.c ****             return COAP_500_INTERNAL_SERVER_ERROR;
 1202              		.loc 1 223 0
 1203 0066 FFF7FEFF 		bl	atiny_get_log_level
 1204              	.LVL135:
 1205 006a 0328     		cmp	r0, #3
 1206 006c 01D9     		bls	.L113
 224:C:/Users/lenovo/Desktop/liteos/Project2/BearPi_LiteOS/components/connectivity/agent_tiny/atiny_lwm2m\object_binary_app_data_container.c ****         }
 1207              		.loc 1 224 0
 1208 006e A026     		movs	r6, #160
 1209 0070 1EE0     		b	.L103
 1210              	.L113:
 223:C:/Users/lenovo/Desktop/liteos/Project2/BearPi_LiteOS/components/connectivity/agent_tiny/atiny_lwm2m\object_binary_app_data_container.c ****             return COAP_500_INTERNAL_SERVER_ERROR;
 1211              		.loc 1 223 0 discriminator 1
 1212 0072 0320     		movs	r0, #3
 1213 0074 FFF7FEFF 		bl	atiny_get_log_level_name
 1214              	.LVL136:
 1215 0078 0446     		mov	r4, r0
 1216              	.LVL137:
 1217 007a FFF7FEFF 		bl	atiny_gettime_ms
 1218              	.LVL138:
 1219 007e DF23     		movs	r3, #223
 1220 0080 0093     		str	r3, [sp]
 1221 0082 104B     		ldr	r3, .L115
 1222 0084 0246     		mov	r2, r0
 1223 0086 2146     		mov	r1, r4
 1224 0088 1048     		ldr	r0, .L115+8
 1225 008a FFF7FEFF 		bl	atiny_printf
 1226              	.LVL139:
 224:C:/Users/lenovo/Desktop/liteos/Project2/BearPi_LiteOS/components/connectivity/agent_tiny/atiny_lwm2m\object_binary_app_data_container.c ****         }
 1227              		.loc 1 224 0 discriminator 1
 1228 008e A026     		movs	r6, #160
 1229 0090 0EE0     		b	.L103
 1230              	.LVL140:
 1231              	.L107:
 208:C:/Users/lenovo/Desktop/liteos/Project2/BearPi_LiteOS/components/connectivity/agent_tiny/atiny_lwm2m\object_binary_app_data_container.c **** 
 1232              		.loc 1 208 0
 1233 0092 0027     		movs	r7, #0
 1234              	.LVL141:
 1235              	.L104:
 232:C:/Users/lenovo/Desktop/liteos/Project2/BearPi_LiteOS/components/connectivity/agent_tiny/atiny_lwm2m\object_binary_app_data_container.c ****     if(ret != COAP_205_CONTENT)
 1236              		.loc 1 232 0
 1237 0094 4B46     		mov	r3, r9
 1238 0096 2A68     		ldr	r2, [r5]
 1239 0098 2168     		ldr	r1, [r4]
 1240 009a 4046     		mov	r0, r8
 1241 009c FFF7FEFF 		bl	prv_read_data
 1242              	.LVL142:
 1243 00a0 0646     		mov	r6, r0
 1244              	.LVL143:
 233:C:/Users/lenovo/Desktop/liteos/Project2/BearPi_LiteOS/components/connectivity/agent_tiny/atiny_lwm2m\object_binary_app_data_container.c ****     {
 1245              		.loc 1 233 0
 1246 00a2 4528     		cmp	r0, #69
 1247 00a4 04D0     		beq	.L103
 236:C:/Users/lenovo/Desktop/liteos/Project2/BearPi_LiteOS/components/connectivity/agent_tiny/atiny_lwm2m\object_binary_app_data_container.c ****         if(new_data_flag)
 1248              		.loc 1 236 0
ARM GAS  c:\Users\lenovo\AppData\Local\Temp\cca7TJX2.s 			page 35


 1249 00a6 2968     		ldr	r1, [r5]
 1250 00a8 2068     		ldr	r0, [r4]
 1251              	.LVL144:
 1252 00aa FFF7FEFF 		bl	prv_destroy_data_buf
 1253              	.LVL145:
 237:C:/Users/lenovo/Desktop/liteos/Project2/BearPi_LiteOS/components/connectivity/agent_tiny/atiny_lwm2m\object_binary_app_data_container.c ****         {
 1254              		.loc 1 237 0
 1255 00ae 1FB9     		cbnz	r7, .L114
 1256              	.LVL146:
 1257              	.L103:
 245:C:/Users/lenovo/Desktop/liteos/Project2/BearPi_LiteOS/components/connectivity/agent_tiny/atiny_lwm2m\object_binary_app_data_container.c **** 
 1258              		.loc 1 245 0
 1259 00b0 3046     		mov	r0, r6
 1260 00b2 03B0     		add	sp, sp, #12
 1261              	.LCFI26:
 1262              		.cfi_remember_state
 1263              		.cfi_def_cfa_offset 28
 1264              		@ sp needed
 1265 00b4 BDE8F083 		pop	{r4, r5, r6, r7, r8, r9, pc}
 1266              	.LVL147:
 1267              	.L114:
 1268              	.LCFI27:
 1269              		.cfi_restore_state
 239:C:/Users/lenovo/Desktop/liteos/Project2/BearPi_LiteOS/components/connectivity/agent_tiny/atiny_lwm2m\object_binary_app_data_container.c ****             *dataArrayP = NULL;
 1270              		.loc 1 239 0
 1271 00b8 2868     		ldr	r0, [r5]
 1272 00ba FFF7FEFF 		bl	lwm2m_free
 1273              	.LVL148:
 240:C:/Users/lenovo/Desktop/liteos/Project2/BearPi_LiteOS/components/connectivity/agent_tiny/atiny_lwm2m\object_binary_app_data_container.c ****         }
 1274              		.loc 1 240 0
 1275 00be 0023     		movs	r3, #0
 1276 00c0 2B60     		str	r3, [r5]
 1277 00c2 F5E7     		b	.L103
 1278              	.L116:
 1279              		.align	2
 1280              	.L115:
 1281 00c4 00000000 		.word	.LANCHOR3
 1282 00c8 00000000 		.word	.LC12
 1283 00cc 2C000000 		.word	.LC13
 1284              		.cfi_endproc
 1285              	.LFE147:
 1287              		.section	.text.display_binary_app_data_object,"ax",%progbits
 1288              		.align	1
 1289              		.global	display_binary_app_data_object
 1290              		.syntax unified
 1291              		.thumb
 1292              		.thumb_func
 1293              		.fpu fpv4-sp-d16
 1295              	display_binary_app_data_object:
 1296              	.LFB153:
 405:C:/Users/lenovo/Desktop/liteos/Project2/BearPi_LiteOS/components/connectivity/agent_tiny/atiny_lwm2m\object_binary_app_data_container.c **** #ifdef WITH_LOGS
 1297              		.loc 1 405 0
 1298              		.cfi_startproc
 1299              		@ args = 0, pretend = 0, frame = 0
 1300              		@ frame_needed = 0, uses_anonymous_args = 0
 1301              		@ link register save eliminated.
 1302              	.LVL149:
ARM GAS  c:\Users\lenovo\AppData\Local\Temp\cca7TJX2.s 			page 36


 417:C:/Users/lenovo/Desktop/liteos/Project2/BearPi_LiteOS/components/connectivity/agent_tiny/atiny_lwm2m\object_binary_app_data_container.c **** 
 1303              		.loc 1 417 0
 1304 0000 7047     		bx	lr
 1305              		.cfi_endproc
 1306              	.LFE153:
 1308              		.section	.text.free_binary_app_data_object,"ax",%progbits
 1309              		.align	1
 1310              		.global	free_binary_app_data_object
 1311              		.syntax unified
 1312              		.thumb
 1313              		.thumb_func
 1314              		.fpu fpv4-sp-d16
 1316              	free_binary_app_data_object:
 1317              	.LFB156:
 491:C:/Users/lenovo/Desktop/liteos/Project2/BearPi_LiteOS/components/connectivity/agent_tiny/atiny_lwm2m\object_binary_app_data_container.c **** 
 492:C:/Users/lenovo/Desktop/liteos/Project2/BearPi_LiteOS/components/connectivity/agent_tiny/atiny_lwm2m\object_binary_app_data_container.c **** void free_binary_app_data_object(lwm2m_object_t *object)
 493:C:/Users/lenovo/Desktop/liteos/Project2/BearPi_LiteOS/components/connectivity/agent_tiny/atiny_lwm2m\object_binary_app_data_container.c **** {
 1318              		.loc 1 493 0
 1319              		.cfi_startproc
 1320              		@ args = 0, pretend = 0, frame = 0
 1321              		@ frame_needed = 0, uses_anonymous_args = 0
 1322              	.LVL150:
 1323 0000 10B5     		push	{r4, lr}
 1324              	.LCFI28:
 1325              		.cfi_def_cfa_offset 8
 1326              		.cfi_offset 4, -8
 1327              		.cfi_offset 14, -4
 1328 0002 0446     		mov	r4, r0
 494:C:/Users/lenovo/Desktop/liteos/Project2/BearPi_LiteOS/components/connectivity/agent_tiny/atiny_lwm2m\object_binary_app_data_container.c ****     free_binary_app_data_object_rpt(object);
 1329              		.loc 1 494 0
 1330 0004 FFF7FEFF 		bl	free_binary_app_data_object_rpt
 1331              	.LVL151:
 495:C:/Users/lenovo/Desktop/liteos/Project2/BearPi_LiteOS/components/connectivity/agent_tiny/atiny_lwm2m\object_binary_app_data_container.c ****     LWM2M_LIST_FREE(object->instanceList);
 1332              		.loc 1 495 0
 1333 0008 A068     		ldr	r0, [r4, #8]
 1334 000a FFF7FEFF 		bl	lwm2m_list_free
 1335              	.LVL152:
 496:C:/Users/lenovo/Desktop/liteos/Project2/BearPi_LiteOS/components/connectivity/agent_tiny/atiny_lwm2m\object_binary_app_data_container.c ****     if (object->userData != NULL)
 1336              		.loc 1 496 0
 1337 000e A06A     		ldr	r0, [r4, #40]
 1338 0010 18B1     		cbz	r0, .L119
 497:C:/Users/lenovo/Desktop/liteos/Project2/BearPi_LiteOS/components/connectivity/agent_tiny/atiny_lwm2m\object_binary_app_data_container.c ****     {
 498:C:/Users/lenovo/Desktop/liteos/Project2/BearPi_LiteOS/components/connectivity/agent_tiny/atiny_lwm2m\object_binary_app_data_container.c ****         lwm2m_free(object->userData);
 1339              		.loc 1 498 0
 1340 0012 FFF7FEFF 		bl	lwm2m_free
 1341              	.LVL153:
 499:C:/Users/lenovo/Desktop/liteos/Project2/BearPi_LiteOS/components/connectivity/agent_tiny/atiny_lwm2m\object_binary_app_data_container.c ****         object->userData = NULL;
 1342              		.loc 1 499 0
 1343 0016 0023     		movs	r3, #0
 1344 0018 A362     		str	r3, [r4, #40]
 1345              	.L119:
 500:C:/Users/lenovo/Desktop/liteos/Project2/BearPi_LiteOS/components/connectivity/agent_tiny/atiny_lwm2m\object_binary_app_data_container.c ****     }
 501:C:/Users/lenovo/Desktop/liteos/Project2/BearPi_LiteOS/components/connectivity/agent_tiny/atiny_lwm2m\object_binary_app_data_container.c ****     lwm2m_free(object);
 1346              		.loc 1 501 0
 1347 001a 2046     		mov	r0, r4
 1348 001c FFF7FEFF 		bl	lwm2m_free
 1349              	.LVL154:
ARM GAS  c:\Users\lenovo\AppData\Local\Temp\cca7TJX2.s 			page 37


 502:C:/Users/lenovo/Desktop/liteos/Project2/BearPi_LiteOS/components/connectivity/agent_tiny/atiny_lwm2m\object_binary_app_data_container.c **** }
 1350              		.loc 1 502 0
 1351 0020 10BD     		pop	{r4, pc}
 1352              		.cfi_endproc
 1353              	.LFE156:
 1355              		.section	.text.get_binary_app_data_object,"ax",%progbits
 1356              		.align	1
 1357              		.global	get_binary_app_data_object
 1358              		.syntax unified
 1359              		.thumb
 1360              		.thumb_func
 1361              		.fpu fpv4-sp-d16
 1363              	get_binary_app_data_object:
 1364              	.LFB154:
 420:C:/Users/lenovo/Desktop/liteos/Project2/BearPi_LiteOS/components/connectivity/agent_tiny/atiny_lwm2m\object_binary_app_data_container.c ****     lwm2m_object_t *appObj;
 1365              		.loc 1 420 0
 1366              		.cfi_startproc
 1367              		@ args = 0, pretend = 0, frame = 8
 1368              		@ frame_needed = 0, uses_anonymous_args = 0
 1369              	.LVL155:
 1370 0000 2DE9F043 		push	{r4, r5, r6, r7, r8, r9, lr}
 1371              	.LCFI29:
 1372              		.cfi_def_cfa_offset 28
 1373              		.cfi_offset 4, -28
 1374              		.cfi_offset 5, -24
 1375              		.cfi_offset 6, -20
 1376              		.cfi_offset 7, -16
 1377              		.cfi_offset 8, -12
 1378              		.cfi_offset 9, -8
 1379              		.cfi_offset 14, -4
 1380 0004 85B0     		sub	sp, sp, #20
 1381              	.LCFI30:
 1382              		.cfi_def_cfa_offset 48
 1383 0006 8046     		mov	r8, r0
 423:C:/Users/lenovo/Desktop/liteos/Project2/BearPi_LiteOS/components/connectivity/agent_tiny/atiny_lwm2m\object_binary_app_data_container.c **** 
 1384              		.loc 1 423 0
 1385 0008 2C20     		movs	r0, #44
 1386              	.LVL156:
 1387 000a FFF7FEFF 		bl	lwm2m_malloc
 1388              	.LVL157:
 425:C:/Users/lenovo/Desktop/liteos/Project2/BearPi_LiteOS/components/connectivity/agent_tiny/atiny_lwm2m\object_binary_app_data_container.c ****     {
 1389              		.loc 1 425 0
 1390 000e 0446     		mov	r4, r0
 1391 0010 0028     		cmp	r0, #0
 1392 0012 49D0     		beq	.L121
 1393              	.LVL158:
 1394              	.LBB23:
 432:C:/Users/lenovo/Desktop/liteos/Project2/BearPi_LiteOS/components/connectivity/agent_tiny/atiny_lwm2m\object_binary_app_data_container.c **** 
 1395              		.loc 1 432 0
 1396 0014 2C22     		movs	r2, #44
 1397 0016 0021     		movs	r1, #0
 1398 0018 FFF7FEFF 		bl	memset
 1399              	.LVL159:
 434:C:/Users/lenovo/Desktop/liteos/Project2/BearPi_LiteOS/components/connectivity/agent_tiny/atiny_lwm2m\object_binary_app_data_container.c ****         for (i = 0 ; i < BINARY_APP_DATA_OBJECT_INSTANCE_NUM; i++)
 1400              		.loc 1 434 0
 1401 001c 1323     		movs	r3, #19
 1402 001e A380     		strh	r3, [r4, #4]	@ movhi
ARM GAS  c:\Users\lenovo\AppData\Local\Temp\cca7TJX2.s 			page 38


 1403              	.LVL160:
 435:C:/Users/lenovo/Desktop/liteos/Project2/BearPi_LiteOS/components/connectivity/agent_tiny/atiny_lwm2m\object_binary_app_data_container.c ****         {
 1404              		.loc 1 435 0
 1405 0020 0025     		movs	r5, #0
 1406              	.LVL161:
 1407              	.L123:
 435:C:/Users/lenovo/Desktop/liteos/Project2/BearPi_LiteOS/components/connectivity/agent_tiny/atiny_lwm2m\object_binary_app_data_container.c ****         {
 1408              		.loc 1 435 0 is_stmt 0 discriminator 1
 1409 0022 012D     		cmp	r5, #1
 1410 0024 32DC     		bgt	.L124
 437:C:/Users/lenovo/Desktop/liteos/Project2/BearPi_LiteOS/components/connectivity/agent_tiny/atiny_lwm2m\object_binary_app_data_container.c ****             if (NULL == targetP)
 1411              		.loc 1 437 0 is_stmt 1
 1412 0026 2020     		movs	r0, #32
 1413 0028 FFF7FEFF 		bl	lwm2m_malloc
 1414              	.LVL162:
 438:C:/Users/lenovo/Desktop/liteos/Project2/BearPi_LiteOS/components/connectivity/agent_tiny/atiny_lwm2m\object_binary_app_data_container.c ****             {
 1415              		.loc 1 438 0
 1416 002c 0646     		mov	r6, r0
 1417 002e 68B3     		cbz	r0, .L124
 442:C:/Users/lenovo/Desktop/liteos/Project2/BearPi_LiteOS/components/connectivity/agent_tiny/atiny_lwm2m\object_binary_app_data_container.c ****             get_resource_uri(BINARY_APP_DATA_OBJECT_ID, i, BINARY_APP_DATA_RES_ID, &uri);
 1418              		.loc 1 442 0
 1419 0030 2022     		movs	r2, #32
 1420 0032 0021     		movs	r1, #0
 1421 0034 FFF7FEFF 		bl	memset
 1422              	.LVL163:
 443:C:/Users/lenovo/Desktop/liteos/Project2/BearPi_LiteOS/components/connectivity/agent_tiny/atiny_lwm2m\object_binary_app_data_container.c ****             ret = atiny_add_rpt_uri(&uri, &targetP->header);
 1423              		.loc 1 443 0
 1424 0038 AFB2     		uxth	r7, r5
 1425              	.LVL164:
 1426              	.LBB24:
 1427              	.LBB25:
  65:C:/Users/lenovo/Desktop/liteos/Project2/BearPi_LiteOS/components/connectivity/agent_tiny/atiny_lwm2m\atiny_rpt.h ****     uri->objectId = object_id;
 1428              		.loc 2 65 0
 1429 003a 0723     		movs	r3, #7
 1430 003c 8DF80830 		strb	r3, [sp, #8]
  66:C:/Users/lenovo/Desktop/liteos/Project2/BearPi_LiteOS/components/connectivity/agent_tiny/atiny_lwm2m\atiny_rpt.h ****     uri->instanceId = instance_id;
 1431              		.loc 2 66 0
 1432 0040 1323     		movs	r3, #19
 1433 0042 ADF80A30 		strh	r3, [sp, #10]	@ movhi
  67:C:/Users/lenovo/Desktop/liteos/Project2/BearPi_LiteOS/components/connectivity/agent_tiny/atiny_lwm2m\atiny_rpt.h ****     uri->resourceId = resource_id;
 1434              		.loc 2 67 0
 1435 0046 ADF80C70 		strh	r7, [sp, #12]	@ movhi
 1436              		.loc 2 68 0
 1437 004a 0023     		movs	r3, #0
 1438 004c ADF80E30 		strh	r3, [sp, #14]	@ movhi
 1439              	.LVL165:
 1440              	.LBE25:
 1441              	.LBE24:
 444:C:/Users/lenovo/Desktop/liteos/Project2/BearPi_LiteOS/components/connectivity/agent_tiny/atiny_lwm2m\object_binary_app_data_container.c ****             if(ret != ATINY_OK)
 1442              		.loc 1 444 0
 1443 0050 06F10801 		add	r1, r6, #8
 1444 0054 02A8     		add	r0, sp, #8
 1445 0056 FFF7FEFF 		bl	atiny_add_rpt_uri
 1446              	.LVL166:
 445:C:/Users/lenovo/Desktop/liteos/Project2/BearPi_LiteOS/components/connectivity/agent_tiny/atiny_lwm2m\object_binary_app_data_container.c ****             {
 1447              		.loc 1 445 0
 1448 005a 8146     		mov	r9, r0
ARM GAS  c:\Users\lenovo\AppData\Local\Temp\cca7TJX2.s 			page 39


 1449 005c 78B9     		cbnz	r0, .L130
 451:C:/Users/lenovo/Desktop/liteos/Project2/BearPi_LiteOS/components/connectivity/agent_tiny/atiny_lwm2m\object_binary_app_data_container.c ****             targetP->shortID = i;
 1450              		.loc 1 451 0 discriminator 2
 1451 005e D8F80810 		ldr	r1, [r8, #8]
 1452 0062 0129     		cmp	r1, #1
 1453 0064 38BF     		it	cc
 1454 0066 0121     		movcc	r1, #1
 1455 0068 02A8     		add	r0, sp, #8
 1456              	.LVL167:
 1457 006a FFF7FEFF 		bl	atiny_set_max_rpt_cnt
 1458              	.LVL168:
 452:C:/Users/lenovo/Desktop/liteos/Project2/BearPi_LiteOS/components/connectivity/agent_tiny/atiny_lwm2m\object_binary_app_data_container.c ****             appObj->instanceList = LWM2M_LIST_ADD(appObj->instanceList, targetP);
 1459              		.loc 1 452 0 discriminator 2
 1460 006e B780     		strh	r7, [r6, #4]	@ movhi
 453:C:/Users/lenovo/Desktop/liteos/Project2/BearPi_LiteOS/components/connectivity/agent_tiny/atiny_lwm2m\object_binary_app_data_container.c ****         }
 1461              		.loc 1 453 0 discriminator 2
 1462 0070 3146     		mov	r1, r6
 1463 0072 A068     		ldr	r0, [r4, #8]
 1464 0074 FFF7FEFF 		bl	lwm2m_list_add
 1465              	.LVL169:
 1466 0078 A060     		str	r0, [r4, #8]
 435:C:/Users/lenovo/Desktop/liteos/Project2/BearPi_LiteOS/components/connectivity/agent_tiny/atiny_lwm2m\object_binary_app_data_container.c ****         {
 1467              		.loc 1 435 0 discriminator 2
 1468 007a 0135     		adds	r5, r5, #1
 1469              	.LVL170:
 1470 007c D1E7     		b	.L123
 1471              	.LVL171:
 1472              	.L130:
 447:C:/Users/lenovo/Desktop/liteos/Project2/BearPi_LiteOS/components/connectivity/agent_tiny/atiny_lwm2m\object_binary_app_data_container.c ****                 lwm2m_free(targetP);
 1473              		.loc 1 447 0
 1474 007e FFF7FEFF 		bl	atiny_get_log_level
 1475              	.LVL172:
 1476 0082 0328     		cmp	r0, #3
 1477 0084 14D9     		bls	.L131
 1478              	.L126:
 448:C:/Users/lenovo/Desktop/liteos/Project2/BearPi_LiteOS/components/connectivity/agent_tiny/atiny_lwm2m\object_binary_app_data_container.c ****                 break;
 1479              		.loc 1 448 0
 1480 0086 3046     		mov	r0, r6
 1481 0088 FFF7FEFF 		bl	lwm2m_free
 1482              	.LVL173:
 1483              	.L124:
 456:C:/Users/lenovo/Desktop/liteos/Project2/BearPi_LiteOS/components/connectivity/agent_tiny/atiny_lwm2m\object_binary_app_data_container.c ****         {
 1484              		.loc 1 456 0
 1485 008c 012D     		cmp	r5, #1
 1486 008e 21DD     		ble	.L132
 469:C:/Users/lenovo/Desktop/liteos/Project2/BearPi_LiteOS/components/connectivity/agent_tiny/atiny_lwm2m\object_binary_app_data_container.c ****         appObj->discoverFunc = prv_discover;
 1487              		.loc 1 469 0
 1488 0090 134B     		ldr	r3, .L133
 1489 0092 E360     		str	r3, [r4, #12]
 470:C:/Users/lenovo/Desktop/liteos/Project2/BearPi_LiteOS/components/connectivity/agent_tiny/atiny_lwm2m\object_binary_app_data_container.c ****         appObj->writeFunc = prv_write;
 1490              		.loc 1 470 0
 1491 0094 134B     		ldr	r3, .L133+4
 1492 0096 6362     		str	r3, [r4, #36]
 471:C:/Users/lenovo/Desktop/liteos/Project2/BearPi_LiteOS/components/connectivity/agent_tiny/atiny_lwm2m\object_binary_app_data_container.c ****         appObj->executeFunc = prv_exec;
 1493              		.loc 1 471 0
 1494 0098 134B     		ldr	r3, .L133+8
 1495 009a 2361     		str	r3, [r4, #16]
ARM GAS  c:\Users\lenovo\AppData\Local\Temp\cca7TJX2.s 			page 40


 472:C:/Users/lenovo/Desktop/liteos/Project2/BearPi_LiteOS/components/connectivity/agent_tiny/atiny_lwm2m\object_binary_app_data_container.c ****         appObj->createFunc = prv_create;
 1496              		.loc 1 472 0
 1497 009c 134B     		ldr	r3, .L133+12
 1498 009e 6361     		str	r3, [r4, #20]
 473:C:/Users/lenovo/Desktop/liteos/Project2/BearPi_LiteOS/components/connectivity/agent_tiny/atiny_lwm2m\object_binary_app_data_container.c ****         appObj->deleteFunc = prv_delete;
 1499              		.loc 1 473 0
 1500 00a0 134B     		ldr	r3, .L133+16
 1501 00a2 E361     		str	r3, [r4, #28]
 474:C:/Users/lenovo/Desktop/liteos/Project2/BearPi_LiteOS/components/connectivity/agent_tiny/atiny_lwm2m\object_binary_app_data_container.c ****     }
 1502              		.loc 1 474 0
 1503 00a4 134B     		ldr	r3, .L133+20
 1504 00a6 2362     		str	r3, [r4, #32]
 1505              	.LVL174:
 1506              	.L121:
 1507              	.LBE23:
 478:C:/Users/lenovo/Desktop/liteos/Project2/BearPi_LiteOS/components/connectivity/agent_tiny/atiny_lwm2m\object_binary_app_data_container.c **** 
 1508              		.loc 1 478 0
 1509 00a8 2046     		mov	r0, r4
 1510 00aa 05B0     		add	sp, sp, #20
 1511              	.LCFI31:
 1512              		.cfi_remember_state
 1513              		.cfi_def_cfa_offset 28
 1514              		@ sp needed
 1515 00ac BDE8F083 		pop	{r4, r5, r6, r7, r8, r9, pc}
 1516              	.LVL175:
 1517              	.L131:
 1518              	.LCFI32:
 1519              		.cfi_restore_state
 1520              	.LBB26:
 447:C:/Users/lenovo/Desktop/liteos/Project2/BearPi_LiteOS/components/connectivity/agent_tiny/atiny_lwm2m\object_binary_app_data_container.c ****                 lwm2m_free(targetP);
 1521              		.loc 1 447 0 discriminator 1
 1522 00b0 0320     		movs	r0, #3
 1523 00b2 FFF7FEFF 		bl	atiny_get_log_level_name
 1524              	.LVL176:
 1525 00b6 0746     		mov	r7, r0
 1526 00b8 FFF7FEFF 		bl	atiny_gettime_ms
 1527              	.LVL177:
 1528 00bc CDF80490 		str	r9, [sp, #4]
 1529 00c0 40F2BF13 		movw	r3, #447
 1530 00c4 0093     		str	r3, [sp]
 1531 00c6 0C4B     		ldr	r3, .L133+24
 1532 00c8 0246     		mov	r2, r0
 1533 00ca 3946     		mov	r1, r7
 1534 00cc 0B48     		ldr	r0, .L133+28
 1535 00ce FFF7FEFF 		bl	atiny_printf
 1536              	.LVL178:
 1537 00d2 D8E7     		b	.L126
 1538              	.LVL179:
 1539              	.L132:
 458:C:/Users/lenovo/Desktop/liteos/Project2/BearPi_LiteOS/components/connectivity/agent_tiny/atiny_lwm2m\object_binary_app_data_container.c ****             return NULL;
 1540              		.loc 1 458 0
 1541 00d4 2046     		mov	r0, r4
 1542 00d6 FFF7FEFF 		bl	free_binary_app_data_object
 1543              	.LVL180:
 459:C:/Users/lenovo/Desktop/liteos/Project2/BearPi_LiteOS/components/connectivity/agent_tiny/atiny_lwm2m\object_binary_app_data_container.c ****         }
 1544              		.loc 1 459 0
 1545 00da 0024     		movs	r4, #0
ARM GAS  c:\Users\lenovo\AppData\Local\Temp\cca7TJX2.s 			page 41


 1546              	.LVL181:
 1547 00dc E4E7     		b	.L121
 1548              	.L134:
 1549 00de 00BF     		.align	2
 1550              	.L133:
 1551 00e0 00000000 		.word	prv_read
 1552 00e4 00000000 		.word	prv_discover
 1553 00e8 00000000 		.word	prv_write
 1554 00ec 00000000 		.word	prv_exec
 1555 00f0 00000000 		.word	prv_create
 1556 00f4 00000000 		.word	prv_delete
 1557 00f8 00000000 		.word	.LANCHOR4
 1558 00fc 00000000 		.word	.LC8
 1559              	.LBE26:
 1560              		.cfi_endproc
 1561              	.LFE154:
 1563              		.section	.text.set_binary_app_data_object_rpt_max_cnt,"ax",%progbits
 1564              		.align	1
 1565              		.global	set_binary_app_data_object_rpt_max_cnt
 1566              		.syntax unified
 1567              		.thumb
 1568              		.thumb_func
 1569              		.fpu fpv4-sp-d16
 1571              	set_binary_app_data_object_rpt_max_cnt:
 1572              	.LFB157:
 503:C:/Users/lenovo/Desktop/liteos/Project2/BearPi_LiteOS/components/connectivity/agent_tiny/atiny_lwm2m\object_binary_app_data_container.c **** 
 504:C:/Users/lenovo/Desktop/liteos/Project2/BearPi_LiteOS/components/connectivity/agent_tiny/atiny_lwm2m\object_binary_app_data_container.c **** void set_binary_app_data_object_rpt_max_cnt(uint32_t max_rpt_cnt)
 505:C:/Users/lenovo/Desktop/liteos/Project2/BearPi_LiteOS/components/connectivity/agent_tiny/atiny_lwm2m\object_binary_app_data_container.c **** {
 1573              		.loc 1 505 0
 1574              		.cfi_startproc
 1575              		@ args = 0, pretend = 0, frame = 8
 1576              		@ frame_needed = 0, uses_anonymous_args = 0
 1577              	.LVL182:
 1578 0000 00B5     		push	{lr}
 1579              	.LCFI33:
 1580              		.cfi_def_cfa_offset 4
 1581              		.cfi_offset 14, -4
 1582 0002 83B0     		sub	sp, sp, #12
 1583              	.LCFI34:
 1584              		.cfi_def_cfa_offset 16
 1585              	.LVL183:
 1586              	.LBB27:
 1587              	.LBB28:
  65:C:/Users/lenovo/Desktop/liteos/Project2/BearPi_LiteOS/components/connectivity/agent_tiny/atiny_lwm2m\atiny_rpt.h ****     uri->objectId = object_id;
 1588              		.loc 2 65 0
 1589 0004 0723     		movs	r3, #7
 1590 0006 8DF80030 		strb	r3, [sp]
  66:C:/Users/lenovo/Desktop/liteos/Project2/BearPi_LiteOS/components/connectivity/agent_tiny/atiny_lwm2m\atiny_rpt.h ****     uri->instanceId = instance_id;
 1591              		.loc 2 66 0
 1592 000a 1323     		movs	r3, #19
 1593 000c ADF80230 		strh	r3, [sp, #2]	@ movhi
  67:C:/Users/lenovo/Desktop/liteos/Project2/BearPi_LiteOS/components/connectivity/agent_tiny/atiny_lwm2m\atiny_rpt.h ****     uri->resourceId = resource_id;
 1594              		.loc 2 67 0
 1595 0010 0023     		movs	r3, #0
 1596 0012 ADF80430 		strh	r3, [sp, #4]	@ movhi
 1597              		.loc 2 68 0
 1598 0016 ADF80630 		strh	r3, [sp, #6]	@ movhi
ARM GAS  c:\Users\lenovo\AppData\Local\Temp\cca7TJX2.s 			page 42


 1599              	.LVL184:
 1600              	.LBE28:
 1601              	.LBE27:
 506:C:/Users/lenovo/Desktop/liteos/Project2/BearPi_LiteOS/components/connectivity/agent_tiny/atiny_lwm2m\object_binary_app_data_container.c ****     lwm2m_uri_t uri;
 507:C:/Users/lenovo/Desktop/liteos/Project2/BearPi_LiteOS/components/connectivity/agent_tiny/atiny_lwm2m\object_binary_app_data_container.c **** 
 508:C:/Users/lenovo/Desktop/liteos/Project2/BearPi_LiteOS/components/connectivity/agent_tiny/atiny_lwm2m\object_binary_app_data_container.c ****     get_resource_uri(BINARY_APP_DATA_OBJECT_ID, 0, BINARY_APP_DATA_RES_ID, &uri);
 509:C:/Users/lenovo/Desktop/liteos/Project2/BearPi_LiteOS/components/connectivity/agent_tiny/atiny_lwm2m\object_binary_app_data_container.c ****     (void)atiny_set_max_rpt_cnt(&uri, MAX(MIN_SAVE_CNT, max_rpt_cnt));
 1602              		.loc 1 509 0
 1603 001a 0146     		mov	r1, r0
 1604 001c 0128     		cmp	r0, #1
 1605 001e 38BF     		it	cc
 1606 0020 0121     		movcc	r1, #1
 1607 0022 6846     		mov	r0, sp
 1608              	.LVL185:
 1609 0024 FFF7FEFF 		bl	atiny_set_max_rpt_cnt
 1610              	.LVL186:
 510:C:/Users/lenovo/Desktop/liteos/Project2/BearPi_LiteOS/components/connectivity/agent_tiny/atiny_lwm2m\object_binary_app_data_container.c **** }
 1611              		.loc 1 510 0
 1612 0028 03B0     		add	sp, sp, #12
 1613              	.LCFI35:
 1614              		.cfi_def_cfa_offset 4
 1615              		@ sp needed
 1616 002a 5DF804FB 		ldr	pc, [sp], #4
 1617              		.cfi_endproc
 1618              	.LFE157:
 1620              		.section	.rodata.__FUNCTION__.12003,"a",%progbits
 1621              		.align	2
 1622              		.set	.LANCHOR2,. + 0
 1625              	__FUNCTION__.12003:
 1626 0000 7072765F 		.ascii	"prv_read_data\000"
 1626      72656164 
 1626      5F646174 
 1626      6100
 1627              		.section	.rodata.__FUNCTION__.12030,"a",%progbits
 1628              		.align	2
 1629              		.set	.LANCHOR3,. + 0
 1632              	__FUNCTION__.12030:
 1633 0000 7072765F 		.ascii	"prv_read\000"
 1633      72656164 
 1633      00
 1634              		.section	.rodata.__FUNCTION__.12076,"a",%progbits
 1635              		.align	2
 1636              		.set	.LANCHOR1,. + 0
 1639              	__FUNCTION__.12076:
 1640 0000 7072765F 		.ascii	"prv_create\000"
 1640      63726561 
 1640      746500
 1641              		.section	.rodata.__FUNCTION__.12085,"a",%progbits
 1642              		.align	2
 1643              		.set	.LANCHOR0,. + 0
 1646              	__FUNCTION__.12085:
 1647 0000 7072765F 		.ascii	"prv_exec\000"
 1647      65786563 
 1647      00
 1648              		.section	.rodata.__FUNCTION__.12102,"a",%progbits
 1649              		.align	2
 1650              		.set	.LANCHOR4,. + 0
ARM GAS  c:\Users\lenovo\AppData\Local\Temp\cca7TJX2.s 			page 43


 1653              	__FUNCTION__.12102:
 1654 0000 6765745F 		.ascii	"get_binary_app_data_object\000"
 1654      62696E61 
 1654      72795F61 
 1654      70705F64 
 1654      6174615F 
 1655              		.section	.rodata.prv_create.str1.4,"aMS",%progbits,1
 1656              		.align	2
 1657              	.LC8:
 1658 0000 5B25735D 		.ascii	"[%s][%u][%s:%d] atiny_add_rpt_uri fail %d\015\012\000"
 1658      5B25755D 
 1658      5B25733A 
 1658      25645D20 
 1658      6174696E 
 1659              		.section	.rodata.prv_exec.str1.4,"aMS",%progbits,1
 1660              		.align	2
 1661              	.LC5:
 1662 0000 5B25735D 		.ascii	"[%s][%u][%s:%d] no in prv_exec+++++++++++++++++++++"
 1662      5B25755D 
 1662      5B25733A 
 1662      25645D20 
 1662      6E6F2069 
 1663 0033 2B2B2B2B 		.ascii	"++++++\015\012\000"
 1663      2B2B0D0A 
 1663      00
 1664              	.LC6:
 1665 003c 0D0A2D2D 		.ascii	"\015\012-----------------\015\012Execute on %hu/%d/"
 1665      2D2D2D2D 
 1665      2D2D2D2D 
 1665      2D2D2D2D 
 1665      2D2D2D0D 
 1666 0063 25640D0A 		.ascii	"%d\015\012 Parameter (%d bytes):\015\012\000"
 1666      20506172 
 1666      616D6574 
 1666      65722028 
 1666      25642062 
 1667              	.LC7:
 1668 0080 2D2D2D2D 		.ascii	"-----------------\015\012\015\012\000"
 1668      2D2D2D2D 
 1668      2D2D2D2D 
 1668      2D2D2D2D 
 1668      2D0D0A0D 
 1669              		.section	.rodata.prv_output_buffer.str1.4,"aMS",%progbits,1
 1670              		.align	2
 1671              	.LC0:
 1672 0000 202000   		.ascii	"  \000"
 1673 0003 00       		.space	1
 1674              	.LC1:
 1675 0004 25303258 		.ascii	"%02X \000"
 1675      2000
 1676 000a 0000     		.space	2
 1677              	.LC2:
 1678 000c 20202000 		.ascii	"   \000"
 1679              	.LC3:
 1680 0010 25632000 		.ascii	"%c \000"
 1681              	.LC4:
 1682 0014 2E2000   		.ascii	". \000"
ARM GAS  c:\Users\lenovo\AppData\Local\Temp\cca7TJX2.s 			page 44


 1683              		.section	.rodata.prv_read.str1.4,"aMS",%progbits,1
 1684              		.align	2
 1685              	.LC12:
 1686 0000 5B25735D 		.ascii	"[%s][%u][%s:%d] plat inst not found %d\015\012\000"
 1686      5B25755D 
 1686      5B25733A 
 1686      25645D20 
 1686      706C6174 
 1687 0029 000000   		.space	3
 1688              	.LC13:
 1689 002c 5B25735D 		.ascii	"[%s][%u][%s:%d] lwm2m_data_new null\015\012\000"
 1689      5B25755D 
 1689      5B25733A 
 1689      25645D20 
 1689      6C776D32 
 1690              		.section	.rodata.prv_read_data.str1.4,"aMS",%progbits,1
 1691              		.align	2
 1692              	.LC9:
 1693 0000 5B25735D 		.ascii	"[%s][%u][%s:%d] malloc null\015\012\000"
 1693      5B25755D 
 1693      5B25733A 
 1693      25645D20 
 1693      6D616C6C 
 1694 001e 0000     		.space	2
 1695              	.LC10:
 1696 0020 5B25735D 		.ascii	"[%s][%u][%s:%d] atiny_dequeue_rpt_data fail,ret=%d\015"
 1696      5B25755D 
 1696      5B25733A 
 1696      25645D20 
 1696      6174696E 
 1697 0053 0A00     		.ascii	"\012\000"
 1698 0055 000000   		.space	3
 1699              	.LC11:
 1700 0058 5B25735D 		.ascii	"[%s][%u][%s:%d] atiny_dequeue_rpt_data sucessfully\015"
 1700      5B25755D 
 1700      5B25733A 
 1700      25645D20 
 1700      6174696E 
 1701 008b 0A00     		.ascii	"\012\000"
 1702              		.text
 1703              	.Letext0:
 1704              		.file 3 "c:\\program files (x86)\\liteos studio\\resources\\arm-none-eabi\\arm-none-eabi\\include\
 1705              		.file 4 "c:\\program files (x86)\\liteos studio\\resources\\arm-none-eabi\\arm-none-eabi\\include\
 1706              		.file 5 "C:/Users/lenovo/Desktop/liteos/Project2/BearPi_LiteOS/components/connectivity/lwm2m/core/
 1707              		.file 6 "c:\\program files (x86)\\liteos studio\\resources\\arm-none-eabi\\lib\\gcc\\arm-none-eabi
 1708              		.file 7 "c:\\program files (x86)\\liteos studio\\resources\\arm-none-eabi\\arm-none-eabi\\include\
 1709              		.file 8 "c:\\program files (x86)\\liteos studio\\resources\\arm-none-eabi\\arm-none-eabi\\include\
 1710              		.file 9 "c:\\program files (x86)\\liteos studio\\resources\\arm-none-eabi\\arm-none-eabi\\include\
 1711              		.file 10 "c:\\program files (x86)\\liteos studio\\resources\\arm-none-eabi\\arm-none-eabi\\include
 1712              		.file 11 "C:/Users/lenovo/Desktop/liteos/Project2/BearPi_LiteOS/components/connectivity/lwm2m/core
 1713              		.file 12 "C:/Users/lenovo/Desktop/liteos/Project2/BearPi_LiteOS/kernel/include/los_typedef.h"
 1714              		.file 13 "C:/Users/lenovo/Desktop/liteos/Project2/BearPi_LiteOS/arch/arm/common/cmsis/core_cm4.h"
 1715              		.file 14 "C:/Users/lenovo/Desktop/liteos/Project2/BearPi_LiteOS/targets/STM32L431_BearPi/Inc/syste
 1716              		.file 15 "C:/Users/lenovo/Desktop/liteos/Project2/BearPi_LiteOS/kernel/include/los_list.h"
 1717              		.file 16 "C:/Users/lenovo/Desktop/liteos/Project2/BearPi_LiteOS/kernel/include/los_err.h"
 1718              		.file 17 "C:/Users/lenovo/Desktop/liteos/Project2/BearPi_LiteOS/arch/arm/arm-m/include/los_hwi.h"
 1719              		.file 18 "C:/Users/lenovo/Desktop/liteos/Project2/BearPi_LiteOS/kernel/include/los_tick.h"
ARM GAS  c:\Users\lenovo\AppData\Local\Temp\cca7TJX2.s 			page 45


 1720              		.file 19 "C:/Users/lenovo/Desktop/liteos/Project2/BearPi_LiteOS/kernel/include/los_event.h"
 1721              		.file 20 "C:/Users/lenovo/Desktop/liteos/Project2/BearPi_LiteOS/kernel/include/los_task.h"
 1722              		.file 21 "C:/Users/lenovo/Desktop/liteos/Project2/BearPi_LiteOS/kernel/base/include/los_task.ph"
 1723              		.file 22 "C:/Users/lenovo/Desktop/liteos/Project2/BearPi_LiteOS/targets/STM32L431_BearPi/Inc/main.
 1724              		.file 23 "C:/Users/lenovo/Desktop/liteos/Project2/BearPi_LiteOS/targets/STM32L431_BearPi/OS_CONFIG
 1725              		.file 24 "C:/Users/lenovo/Desktop/liteos/Project2/BearPi_LiteOS/kernel/include/los_config.h"
 1726              		.file 25 "C:/Users/lenovo/Desktop/liteos/Project2/BearPi_LiteOS/components/connectivity/lwm2m/core
 1727              		.file 26 "c:\\program files (x86)\\liteos studio\\resources\\arm-none-eabi\\arm-none-eabi\\include
 1728              		.file 27 "c:\\program files (x86)\\liteos studio\\resources\\arm-none-eabi\\arm-none-eabi\\include
 1729              		.file 28 "C:/Users/lenovo/Desktop/liteos/Project2/BearPi_LiteOS/include/atiny_error.h"
 1730              		.file 29 "C:/Users/lenovo/Desktop/liteos/Project2/BearPi_LiteOS/include/log/atiny_log.h"
 1731              		.file 30 "C:/Users/lenovo/Desktop/liteos/Project2/BearPi_LiteOS/include/atiny_lwm2m/agenttiny.h"
 1732              		.file 31 "C:/Users/lenovo/Desktop/liteos/Project2/BearPi_LiteOS/components/connectivity/agent_tiny
 1733              		.file 32 "C:/Users/lenovo/Desktop/liteos/Project2/BearPi_LiteOS/include/osdepends/atiny_osdep.h"
 1734              		.file 33 "c:\\program files (x86)\\liteos studio\\resources\\arm-none-eabi\\arm-none-eabi\\include
 1735              		.file 34 "<built-in>"
ARM GAS  c:\Users\lenovo\AppData\Local\Temp\cca7TJX2.s 			page 46

