ARM GAS  c:\Users\lenovo\AppData\Local\Temp\ccEIXAak.s 			page 1


   1              		.cpu cortex-m4
   2              		.eabi_attribute 27, 1
   3              		.eabi_attribute 28, 1
   4              		.eabi_attribute 20, 1
   5              		.eabi_attribute 21, 1
   6              		.eabi_attribute 23, 3
   7              		.eabi_attribute 24, 1
   8              		.eabi_attribute 25, 1
   9              		.eabi_attribute 26, 1
  10              		.eabi_attribute 30, 1
  11              		.eabi_attribute 34, 1
  12              		.eabi_attribute 18, 4
  13              		.file	"object_device.c"
  14              		.text
  15              	.Ltext0:
  16              		.cfi_sections	.debug_frame
  17              		.section	.text.prv_check_time_offset,"ax",%progbits
  18              		.align	1
  19              		.syntax unified
  20              		.thumb
  21              		.thumb_func
  22              		.fpu fpv4-sp-d16
  24              	prv_check_time_offset:
  25              	.LFB142:
  26              		.file 1 "C:/Users/lenovo/Desktop/liteos/Project2/BearPi_LiteOS/components/connectivity/agent_tiny/
   1:C:/Users/lenovo/Desktop/liteos/Project2/BearPi_LiteOS/components/connectivity/agent_tiny/atiny_lwm2m\object_device.c **** /*----------------------------------------------------------------------------
   2:C:/Users/lenovo/Desktop/liteos/Project2/BearPi_LiteOS/components/connectivity/agent_tiny/atiny_lwm2m\object_device.c ****  * Copyright (c) <2016-2018>, <Huawei Technologies Co., Ltd>
   3:C:/Users/lenovo/Desktop/liteos/Project2/BearPi_LiteOS/components/connectivity/agent_tiny/atiny_lwm2m\object_device.c ****  * All rights reserved.
   4:C:/Users/lenovo/Desktop/liteos/Project2/BearPi_LiteOS/components/connectivity/agent_tiny/atiny_lwm2m\object_device.c ****  * Redistribution and use in source and binary forms, with or without modification,
   5:C:/Users/lenovo/Desktop/liteos/Project2/BearPi_LiteOS/components/connectivity/agent_tiny/atiny_lwm2m\object_device.c ****  * are permitted provided that the following conditions are met:
   6:C:/Users/lenovo/Desktop/liteos/Project2/BearPi_LiteOS/components/connectivity/agent_tiny/atiny_lwm2m\object_device.c ****  * 1. Redistributions of source code must retain the above copyright notice, this list of
   7:C:/Users/lenovo/Desktop/liteos/Project2/BearPi_LiteOS/components/connectivity/agent_tiny/atiny_lwm2m\object_device.c ****  * conditions and the following disclaimer.
   8:C:/Users/lenovo/Desktop/liteos/Project2/BearPi_LiteOS/components/connectivity/agent_tiny/atiny_lwm2m\object_device.c ****  * 2. Redistributions in binary form must reproduce the above copyright notice, this list
   9:C:/Users/lenovo/Desktop/liteos/Project2/BearPi_LiteOS/components/connectivity/agent_tiny/atiny_lwm2m\object_device.c ****  * of conditions and the following disclaimer in the documentation and/or other materials
  10:C:/Users/lenovo/Desktop/liteos/Project2/BearPi_LiteOS/components/connectivity/agent_tiny/atiny_lwm2m\object_device.c ****  * provided with the distribution.
  11:C:/Users/lenovo/Desktop/liteos/Project2/BearPi_LiteOS/components/connectivity/agent_tiny/atiny_lwm2m\object_device.c ****  * 3. Neither the name of the copyright holder nor the names of its contributors may be used
  12:C:/Users/lenovo/Desktop/liteos/Project2/BearPi_LiteOS/components/connectivity/agent_tiny/atiny_lwm2m\object_device.c ****  * to endorse or promote products derived from this software without specific prior written
  13:C:/Users/lenovo/Desktop/liteos/Project2/BearPi_LiteOS/components/connectivity/agent_tiny/atiny_lwm2m\object_device.c ****  * permission.
  14:C:/Users/lenovo/Desktop/liteos/Project2/BearPi_LiteOS/components/connectivity/agent_tiny/atiny_lwm2m\object_device.c ****  * THIS SOFTWARE IS PROVIDED BY THE COPYRIGHT HOLDERS AND CONTRIBUTORS
  15:C:/Users/lenovo/Desktop/liteos/Project2/BearPi_LiteOS/components/connectivity/agent_tiny/atiny_lwm2m\object_device.c ****  * "AS IS" AND ANY EXPRESS OR IMPLIED WARRANTIES, INCLUDING, BUT NOT LIMITED TO,
  16:C:/Users/lenovo/Desktop/liteos/Project2/BearPi_LiteOS/components/connectivity/agent_tiny/atiny_lwm2m\object_device.c ****  * THE IMPLIED WARRANTIES OF MERCHANTABILITY AND FITNESS FOR A PARTICULAR
  17:C:/Users/lenovo/Desktop/liteos/Project2/BearPi_LiteOS/components/connectivity/agent_tiny/atiny_lwm2m\object_device.c ****  * PURPOSE ARE DISCLAIMED. IN NO EVENT SHALL THE COPYRIGHT HOLDER OR
  18:C:/Users/lenovo/Desktop/liteos/Project2/BearPi_LiteOS/components/connectivity/agent_tiny/atiny_lwm2m\object_device.c ****  * CONTRIBUTORS BE LIABLE FOR ANY DIRECT, INDIRECT, INCIDENTAL, SPECIAL,
  19:C:/Users/lenovo/Desktop/liteos/Project2/BearPi_LiteOS/components/connectivity/agent_tiny/atiny_lwm2m\object_device.c ****  * EXEMPLARY, OR CONSEQUENTIAL DAMAGES (INCLUDING, BUT NOT LIMITED TO,
  20:C:/Users/lenovo/Desktop/liteos/Project2/BearPi_LiteOS/components/connectivity/agent_tiny/atiny_lwm2m\object_device.c ****  * PROCUREMENT OF SUBSTITUTE GOODS OR SERVICES; LOSS OF USE, DATA, OR PROFITS;
  21:C:/Users/lenovo/Desktop/liteos/Project2/BearPi_LiteOS/components/connectivity/agent_tiny/atiny_lwm2m\object_device.c ****  * OR BUSINESS INTERRUPTION) HOWEVER CAUSED AND ON ANY THEORY OF LIABILITY,
  22:C:/Users/lenovo/Desktop/liteos/Project2/BearPi_LiteOS/components/connectivity/agent_tiny/atiny_lwm2m\object_device.c ****  * WHETHER IN CONTRACT, STRICT LIABILITY, OR TORT (INCLUDING NEGLIGENCE OR
  23:C:/Users/lenovo/Desktop/liteos/Project2/BearPi_LiteOS/components/connectivity/agent_tiny/atiny_lwm2m\object_device.c ****  * OTHERWISE) ARISING IN ANY WAY OUT OF THE USE OF THIS SOFTWARE, EVEN IF
  24:C:/Users/lenovo/Desktop/liteos/Project2/BearPi_LiteOS/components/connectivity/agent_tiny/atiny_lwm2m\object_device.c ****  * ADVISED OF THE POSSIBILITY OF SUCH DAMAGE.
  25:C:/Users/lenovo/Desktop/liteos/Project2/BearPi_LiteOS/components/connectivity/agent_tiny/atiny_lwm2m\object_device.c ****  *---------------------------------------------------------------------------*/
  26:C:/Users/lenovo/Desktop/liteos/Project2/BearPi_LiteOS/components/connectivity/agent_tiny/atiny_lwm2m\object_device.c **** /*----------------------------------------------------------------------------
  27:C:/Users/lenovo/Desktop/liteos/Project2/BearPi_LiteOS/components/connectivity/agent_tiny/atiny_lwm2m\object_device.c ****  * Notice of Export Control Law
  28:C:/Users/lenovo/Desktop/liteos/Project2/BearPi_LiteOS/components/connectivity/agent_tiny/atiny_lwm2m\object_device.c ****  * ===============================================
  29:C:/Users/lenovo/Desktop/liteos/Project2/BearPi_LiteOS/components/connectivity/agent_tiny/atiny_lwm2m\object_device.c ****  * Huawei LiteOS may be subject to applicable export control laws and regulations, which might
  30:C:/Users/lenovo/Desktop/liteos/Project2/BearPi_LiteOS/components/connectivity/agent_tiny/atiny_lwm2m\object_device.c ****  * include those applicable to Huawei LiteOS of U.S. and the country in which you are located.
  31:C:/Users/lenovo/Desktop/liteos/Project2/BearPi_LiteOS/components/connectivity/agent_tiny/atiny_lwm2m\object_device.c ****  * Import, export and usage of Huawei LiteOS in any manner by you shall be in compliance with such
  32:C:/Users/lenovo/Desktop/liteos/Project2/BearPi_LiteOS/components/connectivity/agent_tiny/atiny_lwm2m\object_device.c ****  * applicable export control laws and regulations.
ARM GAS  c:\Users\lenovo\AppData\Local\Temp\ccEIXAak.s 			page 2


  33:C:/Users/lenovo/Desktop/liteos/Project2/BearPi_LiteOS/components/connectivity/agent_tiny/atiny_lwm2m\object_device.c ****  *---------------------------------------------------------------------------*/
  34:C:/Users/lenovo/Desktop/liteos/Project2/BearPi_LiteOS/components/connectivity/agent_tiny/atiny_lwm2m\object_device.c **** 
  35:C:/Users/lenovo/Desktop/liteos/Project2/BearPi_LiteOS/components/connectivity/agent_tiny/atiny_lwm2m\object_device.c **** /*******************************************************************************
  36:C:/Users/lenovo/Desktop/liteos/Project2/BearPi_LiteOS/components/connectivity/agent_tiny/atiny_lwm2m\object_device.c ****  *
  37:C:/Users/lenovo/Desktop/liteos/Project2/BearPi_LiteOS/components/connectivity/agent_tiny/atiny_lwm2m\object_device.c ****  * Copyright (c) 2013, 2014 Intel Corporation and others.
  38:C:/Users/lenovo/Desktop/liteos/Project2/BearPi_LiteOS/components/connectivity/agent_tiny/atiny_lwm2m\object_device.c ****  * All rights reserved. This program and the accompanying materials
  39:C:/Users/lenovo/Desktop/liteos/Project2/BearPi_LiteOS/components/connectivity/agent_tiny/atiny_lwm2m\object_device.c ****  * are made available under the terms of the Eclipse Public License v1.0
  40:C:/Users/lenovo/Desktop/liteos/Project2/BearPi_LiteOS/components/connectivity/agent_tiny/atiny_lwm2m\object_device.c ****  * and Eclipse Distribution License v1.0 which accompany this distribution.
  41:C:/Users/lenovo/Desktop/liteos/Project2/BearPi_LiteOS/components/connectivity/agent_tiny/atiny_lwm2m\object_device.c ****  *
  42:C:/Users/lenovo/Desktop/liteos/Project2/BearPi_LiteOS/components/connectivity/agent_tiny/atiny_lwm2m\object_device.c ****  * The Eclipse Public License is available at
  43:C:/Users/lenovo/Desktop/liteos/Project2/BearPi_LiteOS/components/connectivity/agent_tiny/atiny_lwm2m\object_device.c ****  *    http://www.eclipse.org/legal/epl-v10.html
  44:C:/Users/lenovo/Desktop/liteos/Project2/BearPi_LiteOS/components/connectivity/agent_tiny/atiny_lwm2m\object_device.c ****  * The Eclipse Distribution License is available at
  45:C:/Users/lenovo/Desktop/liteos/Project2/BearPi_LiteOS/components/connectivity/agent_tiny/atiny_lwm2m\object_device.c ****  *    http://www.eclipse.org/org/documents/edl-v10.php.
  46:C:/Users/lenovo/Desktop/liteos/Project2/BearPi_LiteOS/components/connectivity/agent_tiny/atiny_lwm2m\object_device.c ****  *
  47:C:/Users/lenovo/Desktop/liteos/Project2/BearPi_LiteOS/components/connectivity/agent_tiny/atiny_lwm2m\object_device.c ****  * Contributors:
  48:C:/Users/lenovo/Desktop/liteos/Project2/BearPi_LiteOS/components/connectivity/agent_tiny/atiny_lwm2m\object_device.c ****  *    David Navarro, Intel Corporation - initial API and implementation
  49:C:/Users/lenovo/Desktop/liteos/Project2/BearPi_LiteOS/components/connectivity/agent_tiny/atiny_lwm2m\object_device.c ****  *    domedambrosio - Please refer to git log
  50:C:/Users/lenovo/Desktop/liteos/Project2/BearPi_LiteOS/components/connectivity/agent_tiny/atiny_lwm2m\object_device.c ****  *    Fabien Fleutot - Please refer to git log
  51:C:/Users/lenovo/Desktop/liteos/Project2/BearPi_LiteOS/components/connectivity/agent_tiny/atiny_lwm2m\object_device.c ****  *    Axel Lorente - Please refer to git log
  52:C:/Users/lenovo/Desktop/liteos/Project2/BearPi_LiteOS/components/connectivity/agent_tiny/atiny_lwm2m\object_device.c ****  *    Bosch Software Innovations GmbH - Please refer to git log
  53:C:/Users/lenovo/Desktop/liteos/Project2/BearPi_LiteOS/components/connectivity/agent_tiny/atiny_lwm2m\object_device.c ****  *    Pascal Rieux - Please refer to git log
  54:C:/Users/lenovo/Desktop/liteos/Project2/BearPi_LiteOS/components/connectivity/agent_tiny/atiny_lwm2m\object_device.c ****  *
  55:C:/Users/lenovo/Desktop/liteos/Project2/BearPi_LiteOS/components/connectivity/agent_tiny/atiny_lwm2m\object_device.c ****  *******************************************************************************/
  56:C:/Users/lenovo/Desktop/liteos/Project2/BearPi_LiteOS/components/connectivity/agent_tiny/atiny_lwm2m\object_device.c **** 
  57:C:/Users/lenovo/Desktop/liteos/Project2/BearPi_LiteOS/components/connectivity/agent_tiny/atiny_lwm2m\object_device.c **** /*
  58:C:/Users/lenovo/Desktop/liteos/Project2/BearPi_LiteOS/components/connectivity/agent_tiny/atiny_lwm2m\object_device.c ****  Copyright (c) 2013, 2014 Intel Corporation
  59:C:/Users/lenovo/Desktop/liteos/Project2/BearPi_LiteOS/components/connectivity/agent_tiny/atiny_lwm2m\object_device.c **** 
  60:C:/Users/lenovo/Desktop/liteos/Project2/BearPi_LiteOS/components/connectivity/agent_tiny/atiny_lwm2m\object_device.c ****  Redistribution and use in source and binary forms, with or without modification,
  61:C:/Users/lenovo/Desktop/liteos/Project2/BearPi_LiteOS/components/connectivity/agent_tiny/atiny_lwm2m\object_device.c ****  are permitted provided that the following conditions are met:
  62:C:/Users/lenovo/Desktop/liteos/Project2/BearPi_LiteOS/components/connectivity/agent_tiny/atiny_lwm2m\object_device.c **** 
  63:C:/Users/lenovo/Desktop/liteos/Project2/BearPi_LiteOS/components/connectivity/agent_tiny/atiny_lwm2m\object_device.c ****      * Redistributions of source code must retain the above copyright notice,
  64:C:/Users/lenovo/Desktop/liteos/Project2/BearPi_LiteOS/components/connectivity/agent_tiny/atiny_lwm2m\object_device.c ****        this list of conditions and the following disclaimer.
  65:C:/Users/lenovo/Desktop/liteos/Project2/BearPi_LiteOS/components/connectivity/agent_tiny/atiny_lwm2m\object_device.c ****      * Redistributions in binary form must reproduce the above copyright notice,
  66:C:/Users/lenovo/Desktop/liteos/Project2/BearPi_LiteOS/components/connectivity/agent_tiny/atiny_lwm2m\object_device.c ****        this list of conditions and the following disclaimer in the documentation
  67:C:/Users/lenovo/Desktop/liteos/Project2/BearPi_LiteOS/components/connectivity/agent_tiny/atiny_lwm2m\object_device.c ****        and/or other materials provided with the distribution.
  68:C:/Users/lenovo/Desktop/liteos/Project2/BearPi_LiteOS/components/connectivity/agent_tiny/atiny_lwm2m\object_device.c ****      * Neither the name of Intel Corporation nor the names of its contributors
  69:C:/Users/lenovo/Desktop/liteos/Project2/BearPi_LiteOS/components/connectivity/agent_tiny/atiny_lwm2m\object_device.c ****        may be used to endorse or promote products derived from this software
  70:C:/Users/lenovo/Desktop/liteos/Project2/BearPi_LiteOS/components/connectivity/agent_tiny/atiny_lwm2m\object_device.c ****        without specific prior written permission.
  71:C:/Users/lenovo/Desktop/liteos/Project2/BearPi_LiteOS/components/connectivity/agent_tiny/atiny_lwm2m\object_device.c **** 
  72:C:/Users/lenovo/Desktop/liteos/Project2/BearPi_LiteOS/components/connectivity/agent_tiny/atiny_lwm2m\object_device.c ****  THIS SOFTWARE IS PROVIDED BY THE COPYRIGHT HOLDERS AND CONTRIBUTORS "AS IS" AND
  73:C:/Users/lenovo/Desktop/liteos/Project2/BearPi_LiteOS/components/connectivity/agent_tiny/atiny_lwm2m\object_device.c ****  ANY EXPRESS OR IMPLIED WARRANTIES, INCLUDING, BUT NOT LIMITED TO, THE IMPLIED
  74:C:/Users/lenovo/Desktop/liteos/Project2/BearPi_LiteOS/components/connectivity/agent_tiny/atiny_lwm2m\object_device.c ****  WARRANTIES OF MERCHANTABILITY AND FITNESS FOR A PARTICULAR PURPOSE ARE DISCLAIMED.
  75:C:/Users/lenovo/Desktop/liteos/Project2/BearPi_LiteOS/components/connectivity/agent_tiny/atiny_lwm2m\object_device.c ****  IN NO EVENT SHALL THE COPYRIGHT OWNER OR CONTRIBUTORS BE LIABLE FOR ANY DIRECT,
  76:C:/Users/lenovo/Desktop/liteos/Project2/BearPi_LiteOS/components/connectivity/agent_tiny/atiny_lwm2m\object_device.c ****  INDIRECT, INCIDENTAL, SPECIAL, EXEMPLARY, OR CONSEQUENTIAL DAMAGES (INCLUDING,
  77:C:/Users/lenovo/Desktop/liteos/Project2/BearPi_LiteOS/components/connectivity/agent_tiny/atiny_lwm2m\object_device.c ****  BUT NOT LIMITED TO, PROCUREMENT OF SUBSTITUTE GOODS OR SERVICES; LOSS OF USE,
  78:C:/Users/lenovo/Desktop/liteos/Project2/BearPi_LiteOS/components/connectivity/agent_tiny/atiny_lwm2m\object_device.c ****  DATA, OR PROFITS; OR BUSINESS INTERRUPTION) HOWEVER CAUSED AND ON ANY THEORY OF
  79:C:/Users/lenovo/Desktop/liteos/Project2/BearPi_LiteOS/components/connectivity/agent_tiny/atiny_lwm2m\object_device.c ****  LIABILITY, WHETHER IN CONTRACT, STRICT LIABILITY, OR TORT (INCLUDING NEGLIGENCE OR
  80:C:/Users/lenovo/Desktop/liteos/Project2/BearPi_LiteOS/components/connectivity/agent_tiny/atiny_lwm2m\object_device.c ****  OTHERWISE) ARISING IN ANY WAY OUT OF THE USE OF THIS SOFTWARE, EVEN IF ADVISED OF
  81:C:/Users/lenovo/Desktop/liteos/Project2/BearPi_LiteOS/components/connectivity/agent_tiny/atiny_lwm2m\object_device.c ****  THE POSSIBILITY OF SUCH DAMAGE.
  82:C:/Users/lenovo/Desktop/liteos/Project2/BearPi_LiteOS/components/connectivity/agent_tiny/atiny_lwm2m\object_device.c **** 
  83:C:/Users/lenovo/Desktop/liteos/Project2/BearPi_LiteOS/components/connectivity/agent_tiny/atiny_lwm2m\object_device.c ****  David Navarro <david.navarro@intel.com>
  84:C:/Users/lenovo/Desktop/liteos/Project2/BearPi_LiteOS/components/connectivity/agent_tiny/atiny_lwm2m\object_device.c **** 
  85:C:/Users/lenovo/Desktop/liteos/Project2/BearPi_LiteOS/components/connectivity/agent_tiny/atiny_lwm2m\object_device.c **** */
  86:C:/Users/lenovo/Desktop/liteos/Project2/BearPi_LiteOS/components/connectivity/agent_tiny/atiny_lwm2m\object_device.c **** 
  87:C:/Users/lenovo/Desktop/liteos/Project2/BearPi_LiteOS/components/connectivity/agent_tiny/atiny_lwm2m\object_device.c **** /*
  88:C:/Users/lenovo/Desktop/liteos/Project2/BearPi_LiteOS/components/connectivity/agent_tiny/atiny_lwm2m\object_device.c ****  * This object is single instance only, and is mandatory to all LWM2M device as it describe the obj
  89:C:/Users/lenovo/Desktop/liteos/Project2/BearPi_LiteOS/components/connectivity/agent_tiny/atiny_lwm2m\object_device.c ****  * manufacturer, model, etc...
ARM GAS  c:\Users\lenovo\AppData\Local\Temp\ccEIXAak.s 			page 3


  90:C:/Users/lenovo/Desktop/liteos/Project2/BearPi_LiteOS/components/connectivity/agent_tiny/atiny_lwm2m\object_device.c ****  */
  91:C:/Users/lenovo/Desktop/liteos/Project2/BearPi_LiteOS/components/connectivity/agent_tiny/atiny_lwm2m\object_device.c **** 
  92:C:/Users/lenovo/Desktop/liteos/Project2/BearPi_LiteOS/components/connectivity/agent_tiny/atiny_lwm2m\object_device.c **** #include "object_comm.h"
  93:C:/Users/lenovo/Desktop/liteos/Project2/BearPi_LiteOS/components/connectivity/agent_tiny/atiny_lwm2m\object_device.c **** 
  94:C:/Users/lenovo/Desktop/liteos/Project2/BearPi_LiteOS/components/connectivity/agent_tiny/atiny_lwm2m\object_device.c **** #define PRV_OFFSET_MAXLEN   7 //+HH:MM\0 at max
  95:C:/Users/lenovo/Desktop/liteos/Project2/BearPi_LiteOS/components/connectivity/agent_tiny/atiny_lwm2m\object_device.c **** #define PRV_TIMEZONE_MAXLEN 25
  96:C:/Users/lenovo/Desktop/liteos/Project2/BearPi_LiteOS/components/connectivity/agent_tiny/atiny_lwm2m\object_device.c **** #define MAX_STRING_LEN  64
  97:C:/Users/lenovo/Desktop/liteos/Project2/BearPi_LiteOS/components/connectivity/agent_tiny/atiny_lwm2m\object_device.c **** 
  98:C:/Users/lenovo/Desktop/liteos/Project2/BearPi_LiteOS/components/connectivity/agent_tiny/atiny_lwm2m\object_device.c **** // Resource Id's:
  99:C:/Users/lenovo/Desktop/liteos/Project2/BearPi_LiteOS/components/connectivity/agent_tiny/atiny_lwm2m\object_device.c **** #define RES_O_MANUFACTURER          0
 100:C:/Users/lenovo/Desktop/liteos/Project2/BearPi_LiteOS/components/connectivity/agent_tiny/atiny_lwm2m\object_device.c **** #define RES_O_MODEL_NUMBER          1
 101:C:/Users/lenovo/Desktop/liteos/Project2/BearPi_LiteOS/components/connectivity/agent_tiny/atiny_lwm2m\object_device.c **** #define RES_O_SERIAL_NUMBER         2
 102:C:/Users/lenovo/Desktop/liteos/Project2/BearPi_LiteOS/components/connectivity/agent_tiny/atiny_lwm2m\object_device.c **** #define RES_O_FIRMWARE_VERSION      3
 103:C:/Users/lenovo/Desktop/liteos/Project2/BearPi_LiteOS/components/connectivity/agent_tiny/atiny_lwm2m\object_device.c **** #define RES_M_REBOOT                4
 104:C:/Users/lenovo/Desktop/liteos/Project2/BearPi_LiteOS/components/connectivity/agent_tiny/atiny_lwm2m\object_device.c **** #define RES_O_FACTORY_RESET         5
 105:C:/Users/lenovo/Desktop/liteos/Project2/BearPi_LiteOS/components/connectivity/agent_tiny/atiny_lwm2m\object_device.c **** #define RES_O_AVL_POWER_SOURCES     6
 106:C:/Users/lenovo/Desktop/liteos/Project2/BearPi_LiteOS/components/connectivity/agent_tiny/atiny_lwm2m\object_device.c **** #define RES_O_POWER_SOURCE_VOLTAGE  7
 107:C:/Users/lenovo/Desktop/liteos/Project2/BearPi_LiteOS/components/connectivity/agent_tiny/atiny_lwm2m\object_device.c **** #define RES_O_POWER_SOURCE_CURRENT  8
 108:C:/Users/lenovo/Desktop/liteos/Project2/BearPi_LiteOS/components/connectivity/agent_tiny/atiny_lwm2m\object_device.c **** #define RES_O_BATTERY_LEVEL         9
 109:C:/Users/lenovo/Desktop/liteos/Project2/BearPi_LiteOS/components/connectivity/agent_tiny/atiny_lwm2m\object_device.c **** #define RES_O_MEMORY_FREE           10
 110:C:/Users/lenovo/Desktop/liteos/Project2/BearPi_LiteOS/components/connectivity/agent_tiny/atiny_lwm2m\object_device.c **** #define RES_M_ERROR_CODE            11
 111:C:/Users/lenovo/Desktop/liteos/Project2/BearPi_LiteOS/components/connectivity/agent_tiny/atiny_lwm2m\object_device.c **** #define RES_O_RESET_ERROR_CODE      12
 112:C:/Users/lenovo/Desktop/liteos/Project2/BearPi_LiteOS/components/connectivity/agent_tiny/atiny_lwm2m\object_device.c **** #define RES_O_CURRENT_TIME          13
 113:C:/Users/lenovo/Desktop/liteos/Project2/BearPi_LiteOS/components/connectivity/agent_tiny/atiny_lwm2m\object_device.c **** #define RES_O_UTC_OFFSET            14
 114:C:/Users/lenovo/Desktop/liteos/Project2/BearPi_LiteOS/components/connectivity/agent_tiny/atiny_lwm2m\object_device.c **** #define RES_O_TIMEZONE              15
 115:C:/Users/lenovo/Desktop/liteos/Project2/BearPi_LiteOS/components/connectivity/agent_tiny/atiny_lwm2m\object_device.c **** #define RES_M_BINDING_MODES         16
 116:C:/Users/lenovo/Desktop/liteos/Project2/BearPi_LiteOS/components/connectivity/agent_tiny/atiny_lwm2m\object_device.c **** // since TS 20141126-C:
 117:C:/Users/lenovo/Desktop/liteos/Project2/BearPi_LiteOS/components/connectivity/agent_tiny/atiny_lwm2m\object_device.c **** #define RES_O_DEVICE_TYPE           17
 118:C:/Users/lenovo/Desktop/liteos/Project2/BearPi_LiteOS/components/connectivity/agent_tiny/atiny_lwm2m\object_device.c **** #define RES_O_HARDWARE_VERSION      18
 119:C:/Users/lenovo/Desktop/liteos/Project2/BearPi_LiteOS/components/connectivity/agent_tiny/atiny_lwm2m\object_device.c **** #define RES_O_SOFTWARE_VERSION      19
 120:C:/Users/lenovo/Desktop/liteos/Project2/BearPi_LiteOS/components/connectivity/agent_tiny/atiny_lwm2m\object_device.c **** #define RES_O_BATTERY_STATUS        20
 121:C:/Users/lenovo/Desktop/liteos/Project2/BearPi_LiteOS/components/connectivity/agent_tiny/atiny_lwm2m\object_device.c **** #define RES_O_MEMORY_TOTAL          21
 122:C:/Users/lenovo/Desktop/liteos/Project2/BearPi_LiteOS/components/connectivity/agent_tiny/atiny_lwm2m\object_device.c **** 
 123:C:/Users/lenovo/Desktop/liteos/Project2/BearPi_LiteOS/components/connectivity/agent_tiny/atiny_lwm2m\object_device.c **** // basic check that the time offset value is at ISO 8601 format
 124:C:/Users/lenovo/Desktop/liteos/Project2/BearPi_LiteOS/components/connectivity/agent_tiny/atiny_lwm2m\object_device.c **** // bug: +12:30 is considered a valid value by this function
 125:C:/Users/lenovo/Desktop/liteos/Project2/BearPi_LiteOS/components/connectivity/agent_tiny/atiny_lwm2m\object_device.c **** static int prv_check_time_offset(char *buffer,
 126:C:/Users/lenovo/Desktop/liteos/Project2/BearPi_LiteOS/components/connectivity/agent_tiny/atiny_lwm2m\object_device.c ****                                  int length)
 127:C:/Users/lenovo/Desktop/liteos/Project2/BearPi_LiteOS/components/connectivity/agent_tiny/atiny_lwm2m\object_device.c **** {
  27              		.loc 1 127 0
  28              		.cfi_startproc
  29              		@ args = 0, pretend = 0, frame = 0
  30              		@ frame_needed = 0, uses_anonymous_args = 0
  31              		@ link register save eliminated.
  32              	.LVL0:
 128:C:/Users/lenovo/Desktop/liteos/Project2/BearPi_LiteOS/components/connectivity/agent_tiny/atiny_lwm2m\object_device.c ****     int min_index;
 129:C:/Users/lenovo/Desktop/liteos/Project2/BearPi_LiteOS/components/connectivity/agent_tiny/atiny_lwm2m\object_device.c **** 
 130:C:/Users/lenovo/Desktop/liteos/Project2/BearPi_LiteOS/components/connectivity/agent_tiny/atiny_lwm2m\object_device.c ****     if (length != 3 && length != 5 && length != 6) return 0;
  33              		.loc 1 130 0
  34 0000 0329     		cmp	r1, #3
  35 0002 05D0     		beq	.L2
  36              		.loc 1 130 0 is_stmt 0 discriminator 1
  37 0004 0529     		cmp	r1, #5
  38 0006 03D0     		beq	.L2
  39              		.loc 1 130 0 discriminator 2
  40 0008 0629     		cmp	r1, #6
  41 000a 01D0     		beq	.L2
  42              		.loc 1 130 0
ARM GAS  c:\Users\lenovo\AppData\Local\Temp\ccEIXAak.s 			page 4


  43 000c 0020     		movs	r0, #0
  44              	.LVL1:
  45 000e 7047     		bx	lr
  46              	.LVL2:
  47              	.L2:
 131:C:/Users/lenovo/Desktop/liteos/Project2/BearPi_LiteOS/components/connectivity/agent_tiny/atiny_lwm2m\object_device.c ****     if (buffer[0] != '-' && buffer[0] != '+') return 0;
  48              		.loc 1 131 0 is_stmt 1
  49 0010 0378     		ldrb	r3, [r0]	@ zero_extendqisi2
  50 0012 2D2B     		cmp	r3, #45
  51 0014 03D0     		beq	.L4
  52              		.loc 1 131 0 is_stmt 0 discriminator 1
  53 0016 2B2B     		cmp	r3, #43
  54 0018 01D0     		beq	.L4
  55              		.loc 1 131 0
  56 001a 0020     		movs	r0, #0
  57              	.LVL3:
  58 001c 7047     		bx	lr
  59              	.LVL4:
  60              	.L4:
 132:C:/Users/lenovo/Desktop/liteos/Project2/BearPi_LiteOS/components/connectivity/agent_tiny/atiny_lwm2m\object_device.c ****     switch (buffer[1])
  61              		.loc 1 132 0 is_stmt 1
  62 001e 4378     		ldrb	r3, [r0, #1]	@ zero_extendqisi2
  63 0020 302B     		cmp	r3, #48
  64 0022 03D0     		beq	.L5
  65 0024 312B     		cmp	r3, #49
  66 0026 0ED0     		beq	.L6
 133:C:/Users/lenovo/Desktop/liteos/Project2/BearPi_LiteOS/components/connectivity/agent_tiny/atiny_lwm2m\object_device.c ****     {
 134:C:/Users/lenovo/Desktop/liteos/Project2/BearPi_LiteOS/components/connectivity/agent_tiny/atiny_lwm2m\object_device.c ****     case '0':
 135:C:/Users/lenovo/Desktop/liteos/Project2/BearPi_LiteOS/components/connectivity/agent_tiny/atiny_lwm2m\object_device.c ****         if (buffer[2] < '0' || buffer[2] > '9') return 0;
 136:C:/Users/lenovo/Desktop/liteos/Project2/BearPi_LiteOS/components/connectivity/agent_tiny/atiny_lwm2m\object_device.c ****         break;
 137:C:/Users/lenovo/Desktop/liteos/Project2/BearPi_LiteOS/components/connectivity/agent_tiny/atiny_lwm2m\object_device.c ****     case '1':
 138:C:/Users/lenovo/Desktop/liteos/Project2/BearPi_LiteOS/components/connectivity/agent_tiny/atiny_lwm2m\object_device.c ****         if (buffer[2] < '0' || buffer[2] > '2') return 0;
 139:C:/Users/lenovo/Desktop/liteos/Project2/BearPi_LiteOS/components/connectivity/agent_tiny/atiny_lwm2m\object_device.c ****         break;
 140:C:/Users/lenovo/Desktop/liteos/Project2/BearPi_LiteOS/components/connectivity/agent_tiny/atiny_lwm2m\object_device.c ****     default:
 141:C:/Users/lenovo/Desktop/liteos/Project2/BearPi_LiteOS/components/connectivity/agent_tiny/atiny_lwm2m\object_device.c ****         return 0;
  67              		.loc 1 141 0
  68 0028 0020     		movs	r0, #0
  69              	.LVL5:
  70 002a 7047     		bx	lr
  71              	.LVL6:
  72              	.L5:
 135:C:/Users/lenovo/Desktop/liteos/Project2/BearPi_LiteOS/components/connectivity/agent_tiny/atiny_lwm2m\object_device.c ****         break;
  73              		.loc 1 135 0
  74 002c 8378     		ldrb	r3, [r0, #2]	@ zero_extendqisi2
  75 002e 303B     		subs	r3, r3, #48
  76 0030 DBB2     		uxtb	r3, r3
  77 0032 092B     		cmp	r3, #9
  78 0034 27D8     		bhi	.L23
  79              	.L7:
 142:C:/Users/lenovo/Desktop/liteos/Project2/BearPi_LiteOS/components/connectivity/agent_tiny/atiny_lwm2m\object_device.c ****     }
 143:C:/Users/lenovo/Desktop/liteos/Project2/BearPi_LiteOS/components/connectivity/agent_tiny/atiny_lwm2m\object_device.c ****     switch (length)
  80              		.loc 1 143 0
  81 0036 0529     		cmp	r1, #5
  82 0038 15D0     		beq	.L17
  83 003a 0629     		cmp	r1, #6
  84 003c 0CD0     		beq	.L9
  85 003e 0329     		cmp	r1, #3
ARM GAS  c:\Users\lenovo\AppData\Local\Temp\ccEIXAak.s 			page 5


  86 0040 08D0     		beq	.L24
 144:C:/Users/lenovo/Desktop/liteos/Project2/BearPi_LiteOS/components/connectivity/agent_tiny/atiny_lwm2m\object_device.c ****     {
 145:C:/Users/lenovo/Desktop/liteos/Project2/BearPi_LiteOS/components/connectivity/agent_tiny/atiny_lwm2m\object_device.c ****     case 3:
 146:C:/Users/lenovo/Desktop/liteos/Project2/BearPi_LiteOS/components/connectivity/agent_tiny/atiny_lwm2m\object_device.c ****         return 1;
 147:C:/Users/lenovo/Desktop/liteos/Project2/BearPi_LiteOS/components/connectivity/agent_tiny/atiny_lwm2m\object_device.c ****     case 5:
 148:C:/Users/lenovo/Desktop/liteos/Project2/BearPi_LiteOS/components/connectivity/agent_tiny/atiny_lwm2m\object_device.c ****         min_index = 3;
 149:C:/Users/lenovo/Desktop/liteos/Project2/BearPi_LiteOS/components/connectivity/agent_tiny/atiny_lwm2m\object_device.c ****         break;
 150:C:/Users/lenovo/Desktop/liteos/Project2/BearPi_LiteOS/components/connectivity/agent_tiny/atiny_lwm2m\object_device.c ****     case 6:
 151:C:/Users/lenovo/Desktop/liteos/Project2/BearPi_LiteOS/components/connectivity/agent_tiny/atiny_lwm2m\object_device.c ****         if (buffer[3] != ':') return 0;
 152:C:/Users/lenovo/Desktop/liteos/Project2/BearPi_LiteOS/components/connectivity/agent_tiny/atiny_lwm2m\object_device.c ****         min_index = 4;
 153:C:/Users/lenovo/Desktop/liteos/Project2/BearPi_LiteOS/components/connectivity/agent_tiny/atiny_lwm2m\object_device.c ****         break;
 154:C:/Users/lenovo/Desktop/liteos/Project2/BearPi_LiteOS/components/connectivity/agent_tiny/atiny_lwm2m\object_device.c ****     default:
 155:C:/Users/lenovo/Desktop/liteos/Project2/BearPi_LiteOS/components/connectivity/agent_tiny/atiny_lwm2m\object_device.c ****         // never happen
 156:C:/Users/lenovo/Desktop/liteos/Project2/BearPi_LiteOS/components/connectivity/agent_tiny/atiny_lwm2m\object_device.c ****         return 0;
  87              		.loc 1 156 0
  88 0042 0020     		movs	r0, #0
  89              	.LVL7:
  90 0044 7047     		bx	lr
  91              	.LVL8:
  92              	.L6:
 138:C:/Users/lenovo/Desktop/liteos/Project2/BearPi_LiteOS/components/connectivity/agent_tiny/atiny_lwm2m\object_device.c ****         break;
  93              		.loc 1 138 0
  94 0046 8378     		ldrb	r3, [r0, #2]	@ zero_extendqisi2
  95 0048 303B     		subs	r3, r3, #48
  96 004a DBB2     		uxtb	r3, r3
  97 004c 022B     		cmp	r3, #2
  98 004e F2D9     		bls	.L7
  99 0050 0020     		movs	r0, #0
 100              	.LVL9:
 101 0052 7047     		bx	lr
 102              	.LVL10:
 103              	.L24:
 146:C:/Users/lenovo/Desktop/liteos/Project2/BearPi_LiteOS/components/connectivity/agent_tiny/atiny_lwm2m\object_device.c ****     case 5:
 104              		.loc 1 146 0
 105 0054 0120     		movs	r0, #1
 106              	.LVL11:
 107 0056 7047     		bx	lr
 108              	.LVL12:
 109              	.L9:
 151:C:/Users/lenovo/Desktop/liteos/Project2/BearPi_LiteOS/components/connectivity/agent_tiny/atiny_lwm2m\object_device.c ****         min_index = 4;
 110              		.loc 1 151 0
 111 0058 C378     		ldrb	r3, [r0, #3]	@ zero_extendqisi2
 112 005a 3A2B     		cmp	r3, #58
 113 005c 01D0     		beq	.L25
 114 005e 0020     		movs	r0, #0
 115              	.LVL13:
 116 0060 7047     		bx	lr
 117              	.LVL14:
 118              	.L25:
 152:C:/Users/lenovo/Desktop/liteos/Project2/BearPi_LiteOS/components/connectivity/agent_tiny/atiny_lwm2m\object_device.c ****         break;
 119              		.loc 1 152 0
 120 0062 0422     		movs	r2, #4
 121 0064 00E0     		b	.L8
 122              	.L17:
 148:C:/Users/lenovo/Desktop/liteos/Project2/BearPi_LiteOS/components/connectivity/agent_tiny/atiny_lwm2m\object_device.c ****         break;
 123              		.loc 1 148 0
 124 0066 0322     		movs	r2, #3
ARM GAS  c:\Users\lenovo\AppData\Local\Temp\ccEIXAak.s 			page 6


 125              	.L8:
 126              	.LVL15:
 157:C:/Users/lenovo/Desktop/liteos/Project2/BearPi_LiteOS/components/connectivity/agent_tiny/atiny_lwm2m\object_device.c ****     }
 158:C:/Users/lenovo/Desktop/liteos/Project2/BearPi_LiteOS/components/connectivity/agent_tiny/atiny_lwm2m\object_device.c ****     if (buffer[min_index] < '0' || buffer[min_index] > '5') return 0;
 127              		.loc 1 158 0
 128 0068 835C     		ldrb	r3, [r0, r2]	@ zero_extendqisi2
 129 006a 303B     		subs	r3, r3, #48
 130 006c DBB2     		uxtb	r3, r3
 131 006e 052B     		cmp	r3, #5
 132 0070 0BD8     		bhi	.L19
 159:C:/Users/lenovo/Desktop/liteos/Project2/BearPi_LiteOS/components/connectivity/agent_tiny/atiny_lwm2m\object_device.c ****     if (buffer[min_index + 1] < '0' || buffer[min_index + 1] > '9') return 0;
 133              		.loc 1 159 0
 134 0072 1044     		add	r0, r0, r2
 135              	.LVL16:
 136 0074 4378     		ldrb	r3, [r0, #1]	@ zero_extendqisi2
 137 0076 303B     		subs	r3, r3, #48
 138 0078 DBB2     		uxtb	r3, r3
 139 007a 092B     		cmp	r3, #9
 140 007c 01D8     		bhi	.L26
 160:C:/Users/lenovo/Desktop/liteos/Project2/BearPi_LiteOS/components/connectivity/agent_tiny/atiny_lwm2m\object_device.c **** 
 161:C:/Users/lenovo/Desktop/liteos/Project2/BearPi_LiteOS/components/connectivity/agent_tiny/atiny_lwm2m\object_device.c ****     return 1;
 141              		.loc 1 161 0
 142 007e 0120     		movs	r0, #1
 162:C:/Users/lenovo/Desktop/liteos/Project2/BearPi_LiteOS/components/connectivity/agent_tiny/atiny_lwm2m\object_device.c **** }
 143              		.loc 1 162 0
 144 0080 7047     		bx	lr
 145              	.L26:
 159:C:/Users/lenovo/Desktop/liteos/Project2/BearPi_LiteOS/components/connectivity/agent_tiny/atiny_lwm2m\object_device.c ****     if (buffer[min_index + 1] < '0' || buffer[min_index + 1] > '9') return 0;
 146              		.loc 1 159 0
 147 0082 0020     		movs	r0, #0
 148 0084 7047     		bx	lr
 149              	.LVL17:
 150              	.L23:
 135:C:/Users/lenovo/Desktop/liteos/Project2/BearPi_LiteOS/components/connectivity/agent_tiny/atiny_lwm2m\object_device.c ****         break;
 151              		.loc 1 135 0
 152 0086 0020     		movs	r0, #0
 153              	.LVL18:
 154 0088 7047     		bx	lr
 155              	.LVL19:
 156              	.L19:
 158:C:/Users/lenovo/Desktop/liteos/Project2/BearPi_LiteOS/components/connectivity/agent_tiny/atiny_lwm2m\object_device.c ****     if (buffer[min_index + 1] < '0' || buffer[min_index + 1] > '9') return 0;
 157              		.loc 1 158 0
 158 008a 0020     		movs	r0, #0
 159              	.LVL20:
 160 008c 7047     		bx	lr
 161              		.cfi_endproc
 162              	.LFE142:
 164              		.section	.text.prv_device_execute,"ax",%progbits
 165              		.align	1
 166              		.syntax unified
 167              		.thumb
 168              		.thumb_func
 169              		.fpu fpv4-sp-d16
 171              	prv_device_execute:
 172              	.LFB147:
 163:C:/Users/lenovo/Desktop/liteos/Project2/BearPi_LiteOS/components/connectivity/agent_tiny/atiny_lwm2m\object_device.c **** 
 164:C:/Users/lenovo/Desktop/liteos/Project2/BearPi_LiteOS/components/connectivity/agent_tiny/atiny_lwm2m\object_device.c **** static uint8_t prv_set_value(lwm2m_data_t *dataP)
ARM GAS  c:\Users\lenovo\AppData\Local\Temp\ccEIXAak.s 			page 7


 165:C:/Users/lenovo/Desktop/liteos/Project2/BearPi_LiteOS/components/connectivity/agent_tiny/atiny_lwm2m\object_device.c **** {
 166:C:/Users/lenovo/Desktop/liteos/Project2/BearPi_LiteOS/components/connectivity/agent_tiny/atiny_lwm2m\object_device.c ****     char str[MAX_STRING_LEN + 1] = {0};
 167:C:/Users/lenovo/Desktop/liteos/Project2/BearPi_LiteOS/components/connectivity/agent_tiny/atiny_lwm2m\object_device.c ****     int64_t current_time;
 168:C:/Users/lenovo/Desktop/liteos/Project2/BearPi_LiteOS/components/connectivity/agent_tiny/atiny_lwm2m\object_device.c ****     char UTC_offset[PRV_OFFSET_MAXLEN];
 169:C:/Users/lenovo/Desktop/liteos/Project2/BearPi_LiteOS/components/connectivity/agent_tiny/atiny_lwm2m\object_device.c ****     char timezone[PRV_TIMEZONE_MAXLEN];
 170:C:/Users/lenovo/Desktop/liteos/Project2/BearPi_LiteOS/components/connectivity/agent_tiny/atiny_lwm2m\object_device.c ****     lwm2m_data_t *subTlvP;
 171:C:/Users/lenovo/Desktop/liteos/Project2/BearPi_LiteOS/components/connectivity/agent_tiny/atiny_lwm2m\object_device.c ****     int power;
 172:C:/Users/lenovo/Desktop/liteos/Project2/BearPi_LiteOS/components/connectivity/agent_tiny/atiny_lwm2m\object_device.c ****     int voltage;
 173:C:/Users/lenovo/Desktop/liteos/Project2/BearPi_LiteOS/components/connectivity/agent_tiny/atiny_lwm2m\object_device.c ****     int battery_level;
 174:C:/Users/lenovo/Desktop/liteos/Project2/BearPi_LiteOS/components/connectivity/agent_tiny/atiny_lwm2m\object_device.c ****     int free_memory;
 175:C:/Users/lenovo/Desktop/liteos/Project2/BearPi_LiteOS/components/connectivity/agent_tiny/atiny_lwm2m\object_device.c ****     int err;
 176:C:/Users/lenovo/Desktop/liteos/Project2/BearPi_LiteOS/components/connectivity/agent_tiny/atiny_lwm2m\object_device.c ****     int result;
 177:C:/Users/lenovo/Desktop/liteos/Project2/BearPi_LiteOS/components/connectivity/agent_tiny/atiny_lwm2m\object_device.c ****     // a simple switch structure is used to respond at the specified resource asked
 178:C:/Users/lenovo/Desktop/liteos/Project2/BearPi_LiteOS/components/connectivity/agent_tiny/atiny_lwm2m\object_device.c ****     switch (dataP->id)
 179:C:/Users/lenovo/Desktop/liteos/Project2/BearPi_LiteOS/components/connectivity/agent_tiny/atiny_lwm2m\object_device.c ****     {
 180:C:/Users/lenovo/Desktop/liteos/Project2/BearPi_LiteOS/components/connectivity/agent_tiny/atiny_lwm2m\object_device.c ****     case RES_O_MANUFACTURER:
 181:C:/Users/lenovo/Desktop/liteos/Project2/BearPi_LiteOS/components/connectivity/agent_tiny/atiny_lwm2m\object_device.c ****         result = atiny_cmd_ioctl(ATINY_GET_MANUFACTURER, str, MAX_STRING_LEN);
 182:C:/Users/lenovo/Desktop/liteos/Project2/BearPi_LiteOS/components/connectivity/agent_tiny/atiny_lwm2m\object_device.c ****         if(result == ATINY_OK)
 183:C:/Users/lenovo/Desktop/liteos/Project2/BearPi_LiteOS/components/connectivity/agent_tiny/atiny_lwm2m\object_device.c ****         {
 184:C:/Users/lenovo/Desktop/liteos/Project2/BearPi_LiteOS/components/connectivity/agent_tiny/atiny_lwm2m\object_device.c ****             lwm2m_data_encode_string(str, dataP);
 185:C:/Users/lenovo/Desktop/liteos/Project2/BearPi_LiteOS/components/connectivity/agent_tiny/atiny_lwm2m\object_device.c ****             return COAP_205_CONTENT;
 186:C:/Users/lenovo/Desktop/liteos/Project2/BearPi_LiteOS/components/connectivity/agent_tiny/atiny_lwm2m\object_device.c ****         }
 187:C:/Users/lenovo/Desktop/liteos/Project2/BearPi_LiteOS/components/connectivity/agent_tiny/atiny_lwm2m\object_device.c ****         else
 188:C:/Users/lenovo/Desktop/liteos/Project2/BearPi_LiteOS/components/connectivity/agent_tiny/atiny_lwm2m\object_device.c ****         {
 189:C:/Users/lenovo/Desktop/liteos/Project2/BearPi_LiteOS/components/connectivity/agent_tiny/atiny_lwm2m\object_device.c ****             return COAP_400_BAD_REQUEST;
 190:C:/Users/lenovo/Desktop/liteos/Project2/BearPi_LiteOS/components/connectivity/agent_tiny/atiny_lwm2m\object_device.c ****         }
 191:C:/Users/lenovo/Desktop/liteos/Project2/BearPi_LiteOS/components/connectivity/agent_tiny/atiny_lwm2m\object_device.c **** 
 192:C:/Users/lenovo/Desktop/liteos/Project2/BearPi_LiteOS/components/connectivity/agent_tiny/atiny_lwm2m\object_device.c ****     case RES_O_MODEL_NUMBER:
 193:C:/Users/lenovo/Desktop/liteos/Project2/BearPi_LiteOS/components/connectivity/agent_tiny/atiny_lwm2m\object_device.c ****         result = atiny_cmd_ioctl(ATINY_GET_MODEL_NUMBER, str, MAX_STRING_LEN);
 194:C:/Users/lenovo/Desktop/liteos/Project2/BearPi_LiteOS/components/connectivity/agent_tiny/atiny_lwm2m\object_device.c ****         if(result == ATINY_OK)
 195:C:/Users/lenovo/Desktop/liteos/Project2/BearPi_LiteOS/components/connectivity/agent_tiny/atiny_lwm2m\object_device.c ****         {
 196:C:/Users/lenovo/Desktop/liteos/Project2/BearPi_LiteOS/components/connectivity/agent_tiny/atiny_lwm2m\object_device.c ****             lwm2m_data_encode_string(str, dataP);
 197:C:/Users/lenovo/Desktop/liteos/Project2/BearPi_LiteOS/components/connectivity/agent_tiny/atiny_lwm2m\object_device.c ****             return COAP_205_CONTENT;
 198:C:/Users/lenovo/Desktop/liteos/Project2/BearPi_LiteOS/components/connectivity/agent_tiny/atiny_lwm2m\object_device.c ****         }
 199:C:/Users/lenovo/Desktop/liteos/Project2/BearPi_LiteOS/components/connectivity/agent_tiny/atiny_lwm2m\object_device.c ****         else
 200:C:/Users/lenovo/Desktop/liteos/Project2/BearPi_LiteOS/components/connectivity/agent_tiny/atiny_lwm2m\object_device.c ****         {
 201:C:/Users/lenovo/Desktop/liteos/Project2/BearPi_LiteOS/components/connectivity/agent_tiny/atiny_lwm2m\object_device.c ****             return COAP_400_BAD_REQUEST;
 202:C:/Users/lenovo/Desktop/liteos/Project2/BearPi_LiteOS/components/connectivity/agent_tiny/atiny_lwm2m\object_device.c ****         }
 203:C:/Users/lenovo/Desktop/liteos/Project2/BearPi_LiteOS/components/connectivity/agent_tiny/atiny_lwm2m\object_device.c **** 
 204:C:/Users/lenovo/Desktop/liteos/Project2/BearPi_LiteOS/components/connectivity/agent_tiny/atiny_lwm2m\object_device.c ****     case RES_O_SERIAL_NUMBER:
 205:C:/Users/lenovo/Desktop/liteos/Project2/BearPi_LiteOS/components/connectivity/agent_tiny/atiny_lwm2m\object_device.c ****         result = atiny_cmd_ioctl(ATINY_GET_SERIAL_NUMBER, str, MAX_STRING_LEN);
 206:C:/Users/lenovo/Desktop/liteos/Project2/BearPi_LiteOS/components/connectivity/agent_tiny/atiny_lwm2m\object_device.c ****         if(result == ATINY_OK)
 207:C:/Users/lenovo/Desktop/liteos/Project2/BearPi_LiteOS/components/connectivity/agent_tiny/atiny_lwm2m\object_device.c ****         {
 208:C:/Users/lenovo/Desktop/liteos/Project2/BearPi_LiteOS/components/connectivity/agent_tiny/atiny_lwm2m\object_device.c ****             lwm2m_data_encode_string(str, dataP);
 209:C:/Users/lenovo/Desktop/liteos/Project2/BearPi_LiteOS/components/connectivity/agent_tiny/atiny_lwm2m\object_device.c ****             return COAP_205_CONTENT;
 210:C:/Users/lenovo/Desktop/liteos/Project2/BearPi_LiteOS/components/connectivity/agent_tiny/atiny_lwm2m\object_device.c ****         }
 211:C:/Users/lenovo/Desktop/liteos/Project2/BearPi_LiteOS/components/connectivity/agent_tiny/atiny_lwm2m\object_device.c ****         else
 212:C:/Users/lenovo/Desktop/liteos/Project2/BearPi_LiteOS/components/connectivity/agent_tiny/atiny_lwm2m\object_device.c ****         {
 213:C:/Users/lenovo/Desktop/liteos/Project2/BearPi_LiteOS/components/connectivity/agent_tiny/atiny_lwm2m\object_device.c ****             return COAP_400_BAD_REQUEST;
 214:C:/Users/lenovo/Desktop/liteos/Project2/BearPi_LiteOS/components/connectivity/agent_tiny/atiny_lwm2m\object_device.c ****         }
 215:C:/Users/lenovo/Desktop/liteos/Project2/BearPi_LiteOS/components/connectivity/agent_tiny/atiny_lwm2m\object_device.c **** 
 216:C:/Users/lenovo/Desktop/liteos/Project2/BearPi_LiteOS/components/connectivity/agent_tiny/atiny_lwm2m\object_device.c ****     case RES_O_FIRMWARE_VERSION:
 217:C:/Users/lenovo/Desktop/liteos/Project2/BearPi_LiteOS/components/connectivity/agent_tiny/atiny_lwm2m\object_device.c ****         result = atiny_cmd_ioctl(ATINY_GET_FIRMWARE_VER, str, MAX_STRING_LEN);
 218:C:/Users/lenovo/Desktop/liteos/Project2/BearPi_LiteOS/components/connectivity/agent_tiny/atiny_lwm2m\object_device.c ****         if(result == ATINY_OK)
 219:C:/Users/lenovo/Desktop/liteos/Project2/BearPi_LiteOS/components/connectivity/agent_tiny/atiny_lwm2m\object_device.c ****         {
 220:C:/Users/lenovo/Desktop/liteos/Project2/BearPi_LiteOS/components/connectivity/agent_tiny/atiny_lwm2m\object_device.c ****             lwm2m_data_encode_string(str, dataP);
 221:C:/Users/lenovo/Desktop/liteos/Project2/BearPi_LiteOS/components/connectivity/agent_tiny/atiny_lwm2m\object_device.c ****             return COAP_205_CONTENT;
ARM GAS  c:\Users\lenovo\AppData\Local\Temp\ccEIXAak.s 			page 8


 222:C:/Users/lenovo/Desktop/liteos/Project2/BearPi_LiteOS/components/connectivity/agent_tiny/atiny_lwm2m\object_device.c ****         }
 223:C:/Users/lenovo/Desktop/liteos/Project2/BearPi_LiteOS/components/connectivity/agent_tiny/atiny_lwm2m\object_device.c ****         else
 224:C:/Users/lenovo/Desktop/liteos/Project2/BearPi_LiteOS/components/connectivity/agent_tiny/atiny_lwm2m\object_device.c ****         {
 225:C:/Users/lenovo/Desktop/liteos/Project2/BearPi_LiteOS/components/connectivity/agent_tiny/atiny_lwm2m\object_device.c ****             return COAP_400_BAD_REQUEST;
 226:C:/Users/lenovo/Desktop/liteos/Project2/BearPi_LiteOS/components/connectivity/agent_tiny/atiny_lwm2m\object_device.c ****         }
 227:C:/Users/lenovo/Desktop/liteos/Project2/BearPi_LiteOS/components/connectivity/agent_tiny/atiny_lwm2m\object_device.c **** 
 228:C:/Users/lenovo/Desktop/liteos/Project2/BearPi_LiteOS/components/connectivity/agent_tiny/atiny_lwm2m\object_device.c ****     case RES_M_REBOOT:
 229:C:/Users/lenovo/Desktop/liteos/Project2/BearPi_LiteOS/components/connectivity/agent_tiny/atiny_lwm2m\object_device.c ****         return COAP_405_METHOD_NOT_ALLOWED;
 230:C:/Users/lenovo/Desktop/liteos/Project2/BearPi_LiteOS/components/connectivity/agent_tiny/atiny_lwm2m\object_device.c **** 
 231:C:/Users/lenovo/Desktop/liteos/Project2/BearPi_LiteOS/components/connectivity/agent_tiny/atiny_lwm2m\object_device.c ****     case RES_O_FACTORY_RESET:
 232:C:/Users/lenovo/Desktop/liteos/Project2/BearPi_LiteOS/components/connectivity/agent_tiny/atiny_lwm2m\object_device.c ****         return COAP_405_METHOD_NOT_ALLOWED;
 233:C:/Users/lenovo/Desktop/liteos/Project2/BearPi_LiteOS/components/connectivity/agent_tiny/atiny_lwm2m\object_device.c **** 
 234:C:/Users/lenovo/Desktop/liteos/Project2/BearPi_LiteOS/components/connectivity/agent_tiny/atiny_lwm2m\object_device.c ****     case RES_O_AVL_POWER_SOURCES:
 235:C:/Users/lenovo/Desktop/liteos/Project2/BearPi_LiteOS/components/connectivity/agent_tiny/atiny_lwm2m\object_device.c ****     {
 236:C:/Users/lenovo/Desktop/liteos/Project2/BearPi_LiteOS/components/connectivity/agent_tiny/atiny_lwm2m\object_device.c ****         subTlvP = lwm2m_data_new(1);
 237:C:/Users/lenovo/Desktop/liteos/Project2/BearPi_LiteOS/components/connectivity/agent_tiny/atiny_lwm2m\object_device.c ****         if (subTlvP == NULL) return COAP_500_INTERNAL_SERVER_ERROR;
 238:C:/Users/lenovo/Desktop/liteos/Project2/BearPi_LiteOS/components/connectivity/agent_tiny/atiny_lwm2m\object_device.c ****         subTlvP[0].id = 0;
 239:C:/Users/lenovo/Desktop/liteos/Project2/BearPi_LiteOS/components/connectivity/agent_tiny/atiny_lwm2m\object_device.c ****         result = atiny_cmd_ioctl(ATINY_GET_POWER_SOURCE, (char *)&power, sizeof(int));
 240:C:/Users/lenovo/Desktop/liteos/Project2/BearPi_LiteOS/components/connectivity/agent_tiny/atiny_lwm2m\object_device.c ****         if(result == ATINY_OK)
 241:C:/Users/lenovo/Desktop/liteos/Project2/BearPi_LiteOS/components/connectivity/agent_tiny/atiny_lwm2m\object_device.c ****         {
 242:C:/Users/lenovo/Desktop/liteos/Project2/BearPi_LiteOS/components/connectivity/agent_tiny/atiny_lwm2m\object_device.c ****             lwm2m_data_encode_int(power, subTlvP);
 243:C:/Users/lenovo/Desktop/liteos/Project2/BearPi_LiteOS/components/connectivity/agent_tiny/atiny_lwm2m\object_device.c ****             lwm2m_data_encode_instances(subTlvP, 1, dataP);
 244:C:/Users/lenovo/Desktop/liteos/Project2/BearPi_LiteOS/components/connectivity/agent_tiny/atiny_lwm2m\object_device.c ****             return COAP_205_CONTENT;
 245:C:/Users/lenovo/Desktop/liteos/Project2/BearPi_LiteOS/components/connectivity/agent_tiny/atiny_lwm2m\object_device.c ****         }
 246:C:/Users/lenovo/Desktop/liteos/Project2/BearPi_LiteOS/components/connectivity/agent_tiny/atiny_lwm2m\object_device.c ****         else
 247:C:/Users/lenovo/Desktop/liteos/Project2/BearPi_LiteOS/components/connectivity/agent_tiny/atiny_lwm2m\object_device.c ****         {
 248:C:/Users/lenovo/Desktop/liteos/Project2/BearPi_LiteOS/components/connectivity/agent_tiny/atiny_lwm2m\object_device.c ****             lwm2m_free(subTlvP);
 249:C:/Users/lenovo/Desktop/liteos/Project2/BearPi_LiteOS/components/connectivity/agent_tiny/atiny_lwm2m\object_device.c ****             return COAP_400_BAD_REQUEST;
 250:C:/Users/lenovo/Desktop/liteos/Project2/BearPi_LiteOS/components/connectivity/agent_tiny/atiny_lwm2m\object_device.c ****         }
 251:C:/Users/lenovo/Desktop/liteos/Project2/BearPi_LiteOS/components/connectivity/agent_tiny/atiny_lwm2m\object_device.c ****     }
 252:C:/Users/lenovo/Desktop/liteos/Project2/BearPi_LiteOS/components/connectivity/agent_tiny/atiny_lwm2m\object_device.c **** 
 253:C:/Users/lenovo/Desktop/liteos/Project2/BearPi_LiteOS/components/connectivity/agent_tiny/atiny_lwm2m\object_device.c ****     case RES_O_POWER_SOURCE_VOLTAGE:
 254:C:/Users/lenovo/Desktop/liteos/Project2/BearPi_LiteOS/components/connectivity/agent_tiny/atiny_lwm2m\object_device.c ****     {
 255:C:/Users/lenovo/Desktop/liteos/Project2/BearPi_LiteOS/components/connectivity/agent_tiny/atiny_lwm2m\object_device.c ****         subTlvP = lwm2m_data_new(1);
 256:C:/Users/lenovo/Desktop/liteos/Project2/BearPi_LiteOS/components/connectivity/agent_tiny/atiny_lwm2m\object_device.c ****         if (subTlvP == NULL) return COAP_500_INTERNAL_SERVER_ERROR;
 257:C:/Users/lenovo/Desktop/liteos/Project2/BearPi_LiteOS/components/connectivity/agent_tiny/atiny_lwm2m\object_device.c ****         subTlvP[0].id = 0;
 258:C:/Users/lenovo/Desktop/liteos/Project2/BearPi_LiteOS/components/connectivity/agent_tiny/atiny_lwm2m\object_device.c ****         result = atiny_cmd_ioctl(ATINY_GET_SOURCE_VOLTAGE, (char *)&voltage, sizeof(int));
 259:C:/Users/lenovo/Desktop/liteos/Project2/BearPi_LiteOS/components/connectivity/agent_tiny/atiny_lwm2m\object_device.c ****         if(result == ATINY_OK)
 260:C:/Users/lenovo/Desktop/liteos/Project2/BearPi_LiteOS/components/connectivity/agent_tiny/atiny_lwm2m\object_device.c ****         {
 261:C:/Users/lenovo/Desktop/liteos/Project2/BearPi_LiteOS/components/connectivity/agent_tiny/atiny_lwm2m\object_device.c ****             lwm2m_data_encode_int(voltage, subTlvP);
 262:C:/Users/lenovo/Desktop/liteos/Project2/BearPi_LiteOS/components/connectivity/agent_tiny/atiny_lwm2m\object_device.c ****             lwm2m_data_encode_instances(subTlvP, 1, dataP);
 263:C:/Users/lenovo/Desktop/liteos/Project2/BearPi_LiteOS/components/connectivity/agent_tiny/atiny_lwm2m\object_device.c ****             return COAP_205_CONTENT;
 264:C:/Users/lenovo/Desktop/liteos/Project2/BearPi_LiteOS/components/connectivity/agent_tiny/atiny_lwm2m\object_device.c ****         }
 265:C:/Users/lenovo/Desktop/liteos/Project2/BearPi_LiteOS/components/connectivity/agent_tiny/atiny_lwm2m\object_device.c ****         else
 266:C:/Users/lenovo/Desktop/liteos/Project2/BearPi_LiteOS/components/connectivity/agent_tiny/atiny_lwm2m\object_device.c ****         {
 267:C:/Users/lenovo/Desktop/liteos/Project2/BearPi_LiteOS/components/connectivity/agent_tiny/atiny_lwm2m\object_device.c ****             lwm2m_free(subTlvP);
 268:C:/Users/lenovo/Desktop/liteos/Project2/BearPi_LiteOS/components/connectivity/agent_tiny/atiny_lwm2m\object_device.c ****             return COAP_400_BAD_REQUEST;
 269:C:/Users/lenovo/Desktop/liteos/Project2/BearPi_LiteOS/components/connectivity/agent_tiny/atiny_lwm2m\object_device.c ****         }
 270:C:/Users/lenovo/Desktop/liteos/Project2/BearPi_LiteOS/components/connectivity/agent_tiny/atiny_lwm2m\object_device.c ****     }
 271:C:/Users/lenovo/Desktop/liteos/Project2/BearPi_LiteOS/components/connectivity/agent_tiny/atiny_lwm2m\object_device.c **** 
 272:C:/Users/lenovo/Desktop/liteos/Project2/BearPi_LiteOS/components/connectivity/agent_tiny/atiny_lwm2m\object_device.c ****     case RES_O_POWER_SOURCE_CURRENT:
 273:C:/Users/lenovo/Desktop/liteos/Project2/BearPi_LiteOS/components/connectivity/agent_tiny/atiny_lwm2m\object_device.c ****     {
 274:C:/Users/lenovo/Desktop/liteos/Project2/BearPi_LiteOS/components/connectivity/agent_tiny/atiny_lwm2m\object_device.c ****         subTlvP = lwm2m_data_new(1);
 275:C:/Users/lenovo/Desktop/liteos/Project2/BearPi_LiteOS/components/connectivity/agent_tiny/atiny_lwm2m\object_device.c ****         if (subTlvP == NULL) return COAP_500_INTERNAL_SERVER_ERROR;
 276:C:/Users/lenovo/Desktop/liteos/Project2/BearPi_LiteOS/components/connectivity/agent_tiny/atiny_lwm2m\object_device.c ****         subTlvP[0].id = 0;
 277:C:/Users/lenovo/Desktop/liteos/Project2/BearPi_LiteOS/components/connectivity/agent_tiny/atiny_lwm2m\object_device.c ****         result = atiny_cmd_ioctl(ATINY_GET_POWER_CURRENT, (char *)&power, sizeof(int));
 278:C:/Users/lenovo/Desktop/liteos/Project2/BearPi_LiteOS/components/connectivity/agent_tiny/atiny_lwm2m\object_device.c ****         if(result == ATINY_OK)
ARM GAS  c:\Users\lenovo\AppData\Local\Temp\ccEIXAak.s 			page 9


 279:C:/Users/lenovo/Desktop/liteos/Project2/BearPi_LiteOS/components/connectivity/agent_tiny/atiny_lwm2m\object_device.c ****         {
 280:C:/Users/lenovo/Desktop/liteos/Project2/BearPi_LiteOS/components/connectivity/agent_tiny/atiny_lwm2m\object_device.c ****             lwm2m_data_encode_int(power, &subTlvP[0]);
 281:C:/Users/lenovo/Desktop/liteos/Project2/BearPi_LiteOS/components/connectivity/agent_tiny/atiny_lwm2m\object_device.c ****             lwm2m_data_encode_instances(subTlvP, 1, dataP);
 282:C:/Users/lenovo/Desktop/liteos/Project2/BearPi_LiteOS/components/connectivity/agent_tiny/atiny_lwm2m\object_device.c ****             return COAP_205_CONTENT;
 283:C:/Users/lenovo/Desktop/liteos/Project2/BearPi_LiteOS/components/connectivity/agent_tiny/atiny_lwm2m\object_device.c ****         }
 284:C:/Users/lenovo/Desktop/liteos/Project2/BearPi_LiteOS/components/connectivity/agent_tiny/atiny_lwm2m\object_device.c ****         else
 285:C:/Users/lenovo/Desktop/liteos/Project2/BearPi_LiteOS/components/connectivity/agent_tiny/atiny_lwm2m\object_device.c ****         {
 286:C:/Users/lenovo/Desktop/liteos/Project2/BearPi_LiteOS/components/connectivity/agent_tiny/atiny_lwm2m\object_device.c ****             lwm2m_free(subTlvP);
 287:C:/Users/lenovo/Desktop/liteos/Project2/BearPi_LiteOS/components/connectivity/agent_tiny/atiny_lwm2m\object_device.c ****             return COAP_400_BAD_REQUEST;
 288:C:/Users/lenovo/Desktop/liteos/Project2/BearPi_LiteOS/components/connectivity/agent_tiny/atiny_lwm2m\object_device.c ****         }
 289:C:/Users/lenovo/Desktop/liteos/Project2/BearPi_LiteOS/components/connectivity/agent_tiny/atiny_lwm2m\object_device.c ****     }
 290:C:/Users/lenovo/Desktop/liteos/Project2/BearPi_LiteOS/components/connectivity/agent_tiny/atiny_lwm2m\object_device.c **** 
 291:C:/Users/lenovo/Desktop/liteos/Project2/BearPi_LiteOS/components/connectivity/agent_tiny/atiny_lwm2m\object_device.c ****     case RES_O_BATTERY_LEVEL:
 292:C:/Users/lenovo/Desktop/liteos/Project2/BearPi_LiteOS/components/connectivity/agent_tiny/atiny_lwm2m\object_device.c ****     {
 293:C:/Users/lenovo/Desktop/liteos/Project2/BearPi_LiteOS/components/connectivity/agent_tiny/atiny_lwm2m\object_device.c ****         result = atiny_cmd_ioctl(ATINY_GET_BATERRY_LEVEL, (char *)&battery_level, sizeof(int));
 294:C:/Users/lenovo/Desktop/liteos/Project2/BearPi_LiteOS/components/connectivity/agent_tiny/atiny_lwm2m\object_device.c ****         if(result == ATINY_OK)
 295:C:/Users/lenovo/Desktop/liteos/Project2/BearPi_LiteOS/components/connectivity/agent_tiny/atiny_lwm2m\object_device.c ****         {
 296:C:/Users/lenovo/Desktop/liteos/Project2/BearPi_LiteOS/components/connectivity/agent_tiny/atiny_lwm2m\object_device.c ****             lwm2m_data_encode_int(battery_level, dataP);
 297:C:/Users/lenovo/Desktop/liteos/Project2/BearPi_LiteOS/components/connectivity/agent_tiny/atiny_lwm2m\object_device.c ****             return COAP_205_CONTENT;
 298:C:/Users/lenovo/Desktop/liteos/Project2/BearPi_LiteOS/components/connectivity/agent_tiny/atiny_lwm2m\object_device.c ****         }
 299:C:/Users/lenovo/Desktop/liteos/Project2/BearPi_LiteOS/components/connectivity/agent_tiny/atiny_lwm2m\object_device.c ****         else
 300:C:/Users/lenovo/Desktop/liteos/Project2/BearPi_LiteOS/components/connectivity/agent_tiny/atiny_lwm2m\object_device.c ****         {
 301:C:/Users/lenovo/Desktop/liteos/Project2/BearPi_LiteOS/components/connectivity/agent_tiny/atiny_lwm2m\object_device.c ****             return COAP_400_BAD_REQUEST;
 302:C:/Users/lenovo/Desktop/liteos/Project2/BearPi_LiteOS/components/connectivity/agent_tiny/atiny_lwm2m\object_device.c ****         }
 303:C:/Users/lenovo/Desktop/liteos/Project2/BearPi_LiteOS/components/connectivity/agent_tiny/atiny_lwm2m\object_device.c ****     }
 304:C:/Users/lenovo/Desktop/liteos/Project2/BearPi_LiteOS/components/connectivity/agent_tiny/atiny_lwm2m\object_device.c **** 
 305:C:/Users/lenovo/Desktop/liteos/Project2/BearPi_LiteOS/components/connectivity/agent_tiny/atiny_lwm2m\object_device.c ****     case RES_O_MEMORY_FREE:
 306:C:/Users/lenovo/Desktop/liteos/Project2/BearPi_LiteOS/components/connectivity/agent_tiny/atiny_lwm2m\object_device.c ****     {
 307:C:/Users/lenovo/Desktop/liteos/Project2/BearPi_LiteOS/components/connectivity/agent_tiny/atiny_lwm2m\object_device.c ****         result = atiny_cmd_ioctl(ATINY_GET_MEMORY_FREE, (char *)&free_memory, sizeof(int));
 308:C:/Users/lenovo/Desktop/liteos/Project2/BearPi_LiteOS/components/connectivity/agent_tiny/atiny_lwm2m\object_device.c ****         if(result == ATINY_OK)
 309:C:/Users/lenovo/Desktop/liteos/Project2/BearPi_LiteOS/components/connectivity/agent_tiny/atiny_lwm2m\object_device.c ****         {
 310:C:/Users/lenovo/Desktop/liteos/Project2/BearPi_LiteOS/components/connectivity/agent_tiny/atiny_lwm2m\object_device.c ****             lwm2m_data_encode_int(free_memory, dataP);
 311:C:/Users/lenovo/Desktop/liteos/Project2/BearPi_LiteOS/components/connectivity/agent_tiny/atiny_lwm2m\object_device.c ****             return COAP_205_CONTENT;
 312:C:/Users/lenovo/Desktop/liteos/Project2/BearPi_LiteOS/components/connectivity/agent_tiny/atiny_lwm2m\object_device.c ****         }
 313:C:/Users/lenovo/Desktop/liteos/Project2/BearPi_LiteOS/components/connectivity/agent_tiny/atiny_lwm2m\object_device.c ****         else
 314:C:/Users/lenovo/Desktop/liteos/Project2/BearPi_LiteOS/components/connectivity/agent_tiny/atiny_lwm2m\object_device.c ****         {
 315:C:/Users/lenovo/Desktop/liteos/Project2/BearPi_LiteOS/components/connectivity/agent_tiny/atiny_lwm2m\object_device.c ****             return COAP_400_BAD_REQUEST;
 316:C:/Users/lenovo/Desktop/liteos/Project2/BearPi_LiteOS/components/connectivity/agent_tiny/atiny_lwm2m\object_device.c ****         }
 317:C:/Users/lenovo/Desktop/liteos/Project2/BearPi_LiteOS/components/connectivity/agent_tiny/atiny_lwm2m\object_device.c ****     }
 318:C:/Users/lenovo/Desktop/liteos/Project2/BearPi_LiteOS/components/connectivity/agent_tiny/atiny_lwm2m\object_device.c **** 
 319:C:/Users/lenovo/Desktop/liteos/Project2/BearPi_LiteOS/components/connectivity/agent_tiny/atiny_lwm2m\object_device.c ****     case RES_M_ERROR_CODE:
 320:C:/Users/lenovo/Desktop/liteos/Project2/BearPi_LiteOS/components/connectivity/agent_tiny/atiny_lwm2m\object_device.c ****     {
 321:C:/Users/lenovo/Desktop/liteos/Project2/BearPi_LiteOS/components/connectivity/agent_tiny/atiny_lwm2m\object_device.c ****         subTlvP = lwm2m_data_new(1);
 322:C:/Users/lenovo/Desktop/liteos/Project2/BearPi_LiteOS/components/connectivity/agent_tiny/atiny_lwm2m\object_device.c ****         if (subTlvP == NULL) return COAP_500_INTERNAL_SERVER_ERROR;
 323:C:/Users/lenovo/Desktop/liteos/Project2/BearPi_LiteOS/components/connectivity/agent_tiny/atiny_lwm2m\object_device.c ****         subTlvP[0].id = 0;
 324:C:/Users/lenovo/Desktop/liteos/Project2/BearPi_LiteOS/components/connectivity/agent_tiny/atiny_lwm2m\object_device.c ****         result = atiny_cmd_ioctl(ATINY_GET_DEV_ERR, (char *)&err, sizeof(int));
 325:C:/Users/lenovo/Desktop/liteos/Project2/BearPi_LiteOS/components/connectivity/agent_tiny/atiny_lwm2m\object_device.c ****         if(result == ATINY_OK)
 326:C:/Users/lenovo/Desktop/liteos/Project2/BearPi_LiteOS/components/connectivity/agent_tiny/atiny_lwm2m\object_device.c ****         {
 327:C:/Users/lenovo/Desktop/liteos/Project2/BearPi_LiteOS/components/connectivity/agent_tiny/atiny_lwm2m\object_device.c ****             lwm2m_data_encode_int(err, subTlvP);
 328:C:/Users/lenovo/Desktop/liteos/Project2/BearPi_LiteOS/components/connectivity/agent_tiny/atiny_lwm2m\object_device.c ****             lwm2m_data_encode_instances(subTlvP, 1, dataP);
 329:C:/Users/lenovo/Desktop/liteos/Project2/BearPi_LiteOS/components/connectivity/agent_tiny/atiny_lwm2m\object_device.c ****             return COAP_205_CONTENT;
 330:C:/Users/lenovo/Desktop/liteos/Project2/BearPi_LiteOS/components/connectivity/agent_tiny/atiny_lwm2m\object_device.c ****         }
 331:C:/Users/lenovo/Desktop/liteos/Project2/BearPi_LiteOS/components/connectivity/agent_tiny/atiny_lwm2m\object_device.c ****         else
 332:C:/Users/lenovo/Desktop/liteos/Project2/BearPi_LiteOS/components/connectivity/agent_tiny/atiny_lwm2m\object_device.c ****         {
 333:C:/Users/lenovo/Desktop/liteos/Project2/BearPi_LiteOS/components/connectivity/agent_tiny/atiny_lwm2m\object_device.c ****             lwm2m_free(subTlvP);
 334:C:/Users/lenovo/Desktop/liteos/Project2/BearPi_LiteOS/components/connectivity/agent_tiny/atiny_lwm2m\object_device.c ****             return COAP_400_BAD_REQUEST;
 335:C:/Users/lenovo/Desktop/liteos/Project2/BearPi_LiteOS/components/connectivity/agent_tiny/atiny_lwm2m\object_device.c ****         }
ARM GAS  c:\Users\lenovo\AppData\Local\Temp\ccEIXAak.s 			page 10


 336:C:/Users/lenovo/Desktop/liteos/Project2/BearPi_LiteOS/components/connectivity/agent_tiny/atiny_lwm2m\object_device.c ****     }
 337:C:/Users/lenovo/Desktop/liteos/Project2/BearPi_LiteOS/components/connectivity/agent_tiny/atiny_lwm2m\object_device.c ****     case RES_O_RESET_ERROR_CODE:
 338:C:/Users/lenovo/Desktop/liteos/Project2/BearPi_LiteOS/components/connectivity/agent_tiny/atiny_lwm2m\object_device.c ****         return COAP_405_METHOD_NOT_ALLOWED;
 339:C:/Users/lenovo/Desktop/liteos/Project2/BearPi_LiteOS/components/connectivity/agent_tiny/atiny_lwm2m\object_device.c **** 
 340:C:/Users/lenovo/Desktop/liteos/Project2/BearPi_LiteOS/components/connectivity/agent_tiny/atiny_lwm2m\object_device.c ****     case RES_O_CURRENT_TIME:
 341:C:/Users/lenovo/Desktop/liteos/Project2/BearPi_LiteOS/components/connectivity/agent_tiny/atiny_lwm2m\object_device.c ****         result = atiny_cmd_ioctl(ATINY_GET_CURRENT_TIME, (char *)&current_time, sizeof(int64_t));
 342:C:/Users/lenovo/Desktop/liteos/Project2/BearPi_LiteOS/components/connectivity/agent_tiny/atiny_lwm2m\object_device.c ****         if(result == ATINY_OK)
 343:C:/Users/lenovo/Desktop/liteos/Project2/BearPi_LiteOS/components/connectivity/agent_tiny/atiny_lwm2m\object_device.c ****         {
 344:C:/Users/lenovo/Desktop/liteos/Project2/BearPi_LiteOS/components/connectivity/agent_tiny/atiny_lwm2m\object_device.c ****             lwm2m_data_encode_int(current_time, dataP);
 345:C:/Users/lenovo/Desktop/liteos/Project2/BearPi_LiteOS/components/connectivity/agent_tiny/atiny_lwm2m\object_device.c ****             return COAP_205_CONTENT;
 346:C:/Users/lenovo/Desktop/liteos/Project2/BearPi_LiteOS/components/connectivity/agent_tiny/atiny_lwm2m\object_device.c ****         }
 347:C:/Users/lenovo/Desktop/liteos/Project2/BearPi_LiteOS/components/connectivity/agent_tiny/atiny_lwm2m\object_device.c ****         else
 348:C:/Users/lenovo/Desktop/liteos/Project2/BearPi_LiteOS/components/connectivity/agent_tiny/atiny_lwm2m\object_device.c ****         {
 349:C:/Users/lenovo/Desktop/liteos/Project2/BearPi_LiteOS/components/connectivity/agent_tiny/atiny_lwm2m\object_device.c ****             return COAP_400_BAD_REQUEST;
 350:C:/Users/lenovo/Desktop/liteos/Project2/BearPi_LiteOS/components/connectivity/agent_tiny/atiny_lwm2m\object_device.c ****         }
 351:C:/Users/lenovo/Desktop/liteos/Project2/BearPi_LiteOS/components/connectivity/agent_tiny/atiny_lwm2m\object_device.c **** 
 352:C:/Users/lenovo/Desktop/liteos/Project2/BearPi_LiteOS/components/connectivity/agent_tiny/atiny_lwm2m\object_device.c ****     case RES_O_UTC_OFFSET:
 353:C:/Users/lenovo/Desktop/liteos/Project2/BearPi_LiteOS/components/connectivity/agent_tiny/atiny_lwm2m\object_device.c ****         result = atiny_cmd_ioctl(ATINY_GET_UTC_OFFSET, UTC_offset, PRV_OFFSET_MAXLEN);
 354:C:/Users/lenovo/Desktop/liteos/Project2/BearPi_LiteOS/components/connectivity/agent_tiny/atiny_lwm2m\object_device.c ****         if(result == ATINY_OK)
 355:C:/Users/lenovo/Desktop/liteos/Project2/BearPi_LiteOS/components/connectivity/agent_tiny/atiny_lwm2m\object_device.c ****         {
 356:C:/Users/lenovo/Desktop/liteos/Project2/BearPi_LiteOS/components/connectivity/agent_tiny/atiny_lwm2m\object_device.c ****             lwm2m_data_encode_string(UTC_offset, dataP);
 357:C:/Users/lenovo/Desktop/liteos/Project2/BearPi_LiteOS/components/connectivity/agent_tiny/atiny_lwm2m\object_device.c ****             return COAP_205_CONTENT;
 358:C:/Users/lenovo/Desktop/liteos/Project2/BearPi_LiteOS/components/connectivity/agent_tiny/atiny_lwm2m\object_device.c ****         }
 359:C:/Users/lenovo/Desktop/liteos/Project2/BearPi_LiteOS/components/connectivity/agent_tiny/atiny_lwm2m\object_device.c ****         else
 360:C:/Users/lenovo/Desktop/liteos/Project2/BearPi_LiteOS/components/connectivity/agent_tiny/atiny_lwm2m\object_device.c ****         {
 361:C:/Users/lenovo/Desktop/liteos/Project2/BearPi_LiteOS/components/connectivity/agent_tiny/atiny_lwm2m\object_device.c ****             return COAP_400_BAD_REQUEST;
 362:C:/Users/lenovo/Desktop/liteos/Project2/BearPi_LiteOS/components/connectivity/agent_tiny/atiny_lwm2m\object_device.c ****         }
 363:C:/Users/lenovo/Desktop/liteos/Project2/BearPi_LiteOS/components/connectivity/agent_tiny/atiny_lwm2m\object_device.c **** 
 364:C:/Users/lenovo/Desktop/liteos/Project2/BearPi_LiteOS/components/connectivity/agent_tiny/atiny_lwm2m\object_device.c ****     case RES_O_TIMEZONE:
 365:C:/Users/lenovo/Desktop/liteos/Project2/BearPi_LiteOS/components/connectivity/agent_tiny/atiny_lwm2m\object_device.c ****         result = atiny_cmd_ioctl(ATINY_GET_TIMEZONE, timezone, PRV_TIMEZONE_MAXLEN);
 366:C:/Users/lenovo/Desktop/liteos/Project2/BearPi_LiteOS/components/connectivity/agent_tiny/atiny_lwm2m\object_device.c ****         if(result == ATINY_OK)
 367:C:/Users/lenovo/Desktop/liteos/Project2/BearPi_LiteOS/components/connectivity/agent_tiny/atiny_lwm2m\object_device.c ****         {
 368:C:/Users/lenovo/Desktop/liteos/Project2/BearPi_LiteOS/components/connectivity/agent_tiny/atiny_lwm2m\object_device.c ****             lwm2m_data_encode_string(timezone, dataP);
 369:C:/Users/lenovo/Desktop/liteos/Project2/BearPi_LiteOS/components/connectivity/agent_tiny/atiny_lwm2m\object_device.c ****             return COAP_205_CONTENT;
 370:C:/Users/lenovo/Desktop/liteos/Project2/BearPi_LiteOS/components/connectivity/agent_tiny/atiny_lwm2m\object_device.c ****         }
 371:C:/Users/lenovo/Desktop/liteos/Project2/BearPi_LiteOS/components/connectivity/agent_tiny/atiny_lwm2m\object_device.c ****         else
 372:C:/Users/lenovo/Desktop/liteos/Project2/BearPi_LiteOS/components/connectivity/agent_tiny/atiny_lwm2m\object_device.c ****         {
 373:C:/Users/lenovo/Desktop/liteos/Project2/BearPi_LiteOS/components/connectivity/agent_tiny/atiny_lwm2m\object_device.c ****             return COAP_400_BAD_REQUEST;
 374:C:/Users/lenovo/Desktop/liteos/Project2/BearPi_LiteOS/components/connectivity/agent_tiny/atiny_lwm2m\object_device.c ****         }
 375:C:/Users/lenovo/Desktop/liteos/Project2/BearPi_LiteOS/components/connectivity/agent_tiny/atiny_lwm2m\object_device.c **** 
 376:C:/Users/lenovo/Desktop/liteos/Project2/BearPi_LiteOS/components/connectivity/agent_tiny/atiny_lwm2m\object_device.c ****     case RES_M_BINDING_MODES:
 377:C:/Users/lenovo/Desktop/liteos/Project2/BearPi_LiteOS/components/connectivity/agent_tiny/atiny_lwm2m\object_device.c ****         result = atiny_cmd_ioctl(ATINY_GET_BINDING_MODES, str, MAX_STRING_LEN);
 378:C:/Users/lenovo/Desktop/liteos/Project2/BearPi_LiteOS/components/connectivity/agent_tiny/atiny_lwm2m\object_device.c ****         if(result == ATINY_OK)
 379:C:/Users/lenovo/Desktop/liteos/Project2/BearPi_LiteOS/components/connectivity/agent_tiny/atiny_lwm2m\object_device.c ****         {
 380:C:/Users/lenovo/Desktop/liteos/Project2/BearPi_LiteOS/components/connectivity/agent_tiny/atiny_lwm2m\object_device.c ****             lwm2m_data_encode_string(str, dataP);
 381:C:/Users/lenovo/Desktop/liteos/Project2/BearPi_LiteOS/components/connectivity/agent_tiny/atiny_lwm2m\object_device.c ****             return COAP_205_CONTENT;
 382:C:/Users/lenovo/Desktop/liteos/Project2/BearPi_LiteOS/components/connectivity/agent_tiny/atiny_lwm2m\object_device.c ****         }
 383:C:/Users/lenovo/Desktop/liteos/Project2/BearPi_LiteOS/components/connectivity/agent_tiny/atiny_lwm2m\object_device.c ****         else
 384:C:/Users/lenovo/Desktop/liteos/Project2/BearPi_LiteOS/components/connectivity/agent_tiny/atiny_lwm2m\object_device.c ****         {
 385:C:/Users/lenovo/Desktop/liteos/Project2/BearPi_LiteOS/components/connectivity/agent_tiny/atiny_lwm2m\object_device.c ****             return COAP_400_BAD_REQUEST;
 386:C:/Users/lenovo/Desktop/liteos/Project2/BearPi_LiteOS/components/connectivity/agent_tiny/atiny_lwm2m\object_device.c ****         }
 387:C:/Users/lenovo/Desktop/liteos/Project2/BearPi_LiteOS/components/connectivity/agent_tiny/atiny_lwm2m\object_device.c ****     default:
 388:C:/Users/lenovo/Desktop/liteos/Project2/BearPi_LiteOS/components/connectivity/agent_tiny/atiny_lwm2m\object_device.c ****         return COAP_404_NOT_FOUND;
 389:C:/Users/lenovo/Desktop/liteos/Project2/BearPi_LiteOS/components/connectivity/agent_tiny/atiny_lwm2m\object_device.c ****     }
 390:C:/Users/lenovo/Desktop/liteos/Project2/BearPi_LiteOS/components/connectivity/agent_tiny/atiny_lwm2m\object_device.c **** }
 391:C:/Users/lenovo/Desktop/liteos/Project2/BearPi_LiteOS/components/connectivity/agent_tiny/atiny_lwm2m\object_device.c **** 
 392:C:/Users/lenovo/Desktop/liteos/Project2/BearPi_LiteOS/components/connectivity/agent_tiny/atiny_lwm2m\object_device.c **** static uint8_t prv_device_read(uint16_t instanceId,
ARM GAS  c:\Users\lenovo\AppData\Local\Temp\ccEIXAak.s 			page 11


 393:C:/Users/lenovo/Desktop/liteos/Project2/BearPi_LiteOS/components/connectivity/agent_tiny/atiny_lwm2m\object_device.c ****                                int *numDataP,
 394:C:/Users/lenovo/Desktop/liteos/Project2/BearPi_LiteOS/components/connectivity/agent_tiny/atiny_lwm2m\object_device.c ****                                lwm2m_data_t **dataArrayP,
 395:C:/Users/lenovo/Desktop/liteos/Project2/BearPi_LiteOS/components/connectivity/agent_tiny/atiny_lwm2m\object_device.c ****                                lwm2m_data_cfg_t *dataCfg,
 396:C:/Users/lenovo/Desktop/liteos/Project2/BearPi_LiteOS/components/connectivity/agent_tiny/atiny_lwm2m\object_device.c ****                                lwm2m_object_t *objectP)
 397:C:/Users/lenovo/Desktop/liteos/Project2/BearPi_LiteOS/components/connectivity/agent_tiny/atiny_lwm2m\object_device.c **** {
 398:C:/Users/lenovo/Desktop/liteos/Project2/BearPi_LiteOS/components/connectivity/agent_tiny/atiny_lwm2m\object_device.c ****     uint8_t result;
 399:C:/Users/lenovo/Desktop/liteos/Project2/BearPi_LiteOS/components/connectivity/agent_tiny/atiny_lwm2m\object_device.c ****     int i;
 400:C:/Users/lenovo/Desktop/liteos/Project2/BearPi_LiteOS/components/connectivity/agent_tiny/atiny_lwm2m\object_device.c **** 
 401:C:/Users/lenovo/Desktop/liteos/Project2/BearPi_LiteOS/components/connectivity/agent_tiny/atiny_lwm2m\object_device.c ****     // this is a single instance object
 402:C:/Users/lenovo/Desktop/liteos/Project2/BearPi_LiteOS/components/connectivity/agent_tiny/atiny_lwm2m\object_device.c ****     if (instanceId != 0)
 403:C:/Users/lenovo/Desktop/liteos/Project2/BearPi_LiteOS/components/connectivity/agent_tiny/atiny_lwm2m\object_device.c ****     {
 404:C:/Users/lenovo/Desktop/liteos/Project2/BearPi_LiteOS/components/connectivity/agent_tiny/atiny_lwm2m\object_device.c ****         return COAP_404_NOT_FOUND;
 405:C:/Users/lenovo/Desktop/liteos/Project2/BearPi_LiteOS/components/connectivity/agent_tiny/atiny_lwm2m\object_device.c ****     }
 406:C:/Users/lenovo/Desktop/liteos/Project2/BearPi_LiteOS/components/connectivity/agent_tiny/atiny_lwm2m\object_device.c **** 
 407:C:/Users/lenovo/Desktop/liteos/Project2/BearPi_LiteOS/components/connectivity/agent_tiny/atiny_lwm2m\object_device.c ****     // is the server asking for the full object ?
 408:C:/Users/lenovo/Desktop/liteos/Project2/BearPi_LiteOS/components/connectivity/agent_tiny/atiny_lwm2m\object_device.c ****     if (*numDataP == 0)
 409:C:/Users/lenovo/Desktop/liteos/Project2/BearPi_LiteOS/components/connectivity/agent_tiny/atiny_lwm2m\object_device.c ****     {
 410:C:/Users/lenovo/Desktop/liteos/Project2/BearPi_LiteOS/components/connectivity/agent_tiny/atiny_lwm2m\object_device.c ****         uint16_t resList[] =
 411:C:/Users/lenovo/Desktop/liteos/Project2/BearPi_LiteOS/components/connectivity/agent_tiny/atiny_lwm2m\object_device.c ****         {
 412:C:/Users/lenovo/Desktop/liteos/Project2/BearPi_LiteOS/components/connectivity/agent_tiny/atiny_lwm2m\object_device.c ****             RES_O_MANUFACTURER,
 413:C:/Users/lenovo/Desktop/liteos/Project2/BearPi_LiteOS/components/connectivity/agent_tiny/atiny_lwm2m\object_device.c ****             RES_O_MODEL_NUMBER,
 414:C:/Users/lenovo/Desktop/liteos/Project2/BearPi_LiteOS/components/connectivity/agent_tiny/atiny_lwm2m\object_device.c ****             RES_O_SERIAL_NUMBER,
 415:C:/Users/lenovo/Desktop/liteos/Project2/BearPi_LiteOS/components/connectivity/agent_tiny/atiny_lwm2m\object_device.c ****             RES_O_FIRMWARE_VERSION,
 416:C:/Users/lenovo/Desktop/liteos/Project2/BearPi_LiteOS/components/connectivity/agent_tiny/atiny_lwm2m\object_device.c ****             //E: RES_M_REBOOT,
 417:C:/Users/lenovo/Desktop/liteos/Project2/BearPi_LiteOS/components/connectivity/agent_tiny/atiny_lwm2m\object_device.c ****             //E: RES_O_FACTORY_RESET,
 418:C:/Users/lenovo/Desktop/liteos/Project2/BearPi_LiteOS/components/connectivity/agent_tiny/atiny_lwm2m\object_device.c ****             RES_O_AVL_POWER_SOURCES,
 419:C:/Users/lenovo/Desktop/liteos/Project2/BearPi_LiteOS/components/connectivity/agent_tiny/atiny_lwm2m\object_device.c ****             RES_O_POWER_SOURCE_VOLTAGE,
 420:C:/Users/lenovo/Desktop/liteos/Project2/BearPi_LiteOS/components/connectivity/agent_tiny/atiny_lwm2m\object_device.c ****             RES_O_POWER_SOURCE_CURRENT,
 421:C:/Users/lenovo/Desktop/liteos/Project2/BearPi_LiteOS/components/connectivity/agent_tiny/atiny_lwm2m\object_device.c ****             RES_O_BATTERY_LEVEL,
 422:C:/Users/lenovo/Desktop/liteos/Project2/BearPi_LiteOS/components/connectivity/agent_tiny/atiny_lwm2m\object_device.c ****             RES_O_MEMORY_FREE,
 423:C:/Users/lenovo/Desktop/liteos/Project2/BearPi_LiteOS/components/connectivity/agent_tiny/atiny_lwm2m\object_device.c ****             RES_M_ERROR_CODE,
 424:C:/Users/lenovo/Desktop/liteos/Project2/BearPi_LiteOS/components/connectivity/agent_tiny/atiny_lwm2m\object_device.c ****             //E: RES_O_RESET_ERROR_CODE,
 425:C:/Users/lenovo/Desktop/liteos/Project2/BearPi_LiteOS/components/connectivity/agent_tiny/atiny_lwm2m\object_device.c ****             RES_O_CURRENT_TIME,
 426:C:/Users/lenovo/Desktop/liteos/Project2/BearPi_LiteOS/components/connectivity/agent_tiny/atiny_lwm2m\object_device.c ****             RES_O_UTC_OFFSET,
 427:C:/Users/lenovo/Desktop/liteos/Project2/BearPi_LiteOS/components/connectivity/agent_tiny/atiny_lwm2m\object_device.c ****             RES_O_TIMEZONE,
 428:C:/Users/lenovo/Desktop/liteos/Project2/BearPi_LiteOS/components/connectivity/agent_tiny/atiny_lwm2m\object_device.c ****             RES_M_BINDING_MODES
 429:C:/Users/lenovo/Desktop/liteos/Project2/BearPi_LiteOS/components/connectivity/agent_tiny/atiny_lwm2m\object_device.c ****         };
 430:C:/Users/lenovo/Desktop/liteos/Project2/BearPi_LiteOS/components/connectivity/agent_tiny/atiny_lwm2m\object_device.c ****         int nbRes = sizeof(resList) / sizeof(uint16_t);
 431:C:/Users/lenovo/Desktop/liteos/Project2/BearPi_LiteOS/components/connectivity/agent_tiny/atiny_lwm2m\object_device.c **** 
 432:C:/Users/lenovo/Desktop/liteos/Project2/BearPi_LiteOS/components/connectivity/agent_tiny/atiny_lwm2m\object_device.c ****         *dataArrayP = lwm2m_data_new(nbRes);
 433:C:/Users/lenovo/Desktop/liteos/Project2/BearPi_LiteOS/components/connectivity/agent_tiny/atiny_lwm2m\object_device.c ****         if (*dataArrayP == NULL) return COAP_500_INTERNAL_SERVER_ERROR;
 434:C:/Users/lenovo/Desktop/liteos/Project2/BearPi_LiteOS/components/connectivity/agent_tiny/atiny_lwm2m\object_device.c ****         *numDataP = nbRes;
 435:C:/Users/lenovo/Desktop/liteos/Project2/BearPi_LiteOS/components/connectivity/agent_tiny/atiny_lwm2m\object_device.c ****         for (i = 0 ; i < nbRes ; i++)
 436:C:/Users/lenovo/Desktop/liteos/Project2/BearPi_LiteOS/components/connectivity/agent_tiny/atiny_lwm2m\object_device.c ****         {
 437:C:/Users/lenovo/Desktop/liteos/Project2/BearPi_LiteOS/components/connectivity/agent_tiny/atiny_lwm2m\object_device.c ****             (*dataArrayP)[i].id = resList[i];
 438:C:/Users/lenovo/Desktop/liteos/Project2/BearPi_LiteOS/components/connectivity/agent_tiny/atiny_lwm2m\object_device.c ****         }
 439:C:/Users/lenovo/Desktop/liteos/Project2/BearPi_LiteOS/components/connectivity/agent_tiny/atiny_lwm2m\object_device.c ****     }
 440:C:/Users/lenovo/Desktop/liteos/Project2/BearPi_LiteOS/components/connectivity/agent_tiny/atiny_lwm2m\object_device.c **** 
 441:C:/Users/lenovo/Desktop/liteos/Project2/BearPi_LiteOS/components/connectivity/agent_tiny/atiny_lwm2m\object_device.c ****     i = 0;
 442:C:/Users/lenovo/Desktop/liteos/Project2/BearPi_LiteOS/components/connectivity/agent_tiny/atiny_lwm2m\object_device.c ****     do
 443:C:/Users/lenovo/Desktop/liteos/Project2/BearPi_LiteOS/components/connectivity/agent_tiny/atiny_lwm2m\object_device.c ****     {
 444:C:/Users/lenovo/Desktop/liteos/Project2/BearPi_LiteOS/components/connectivity/agent_tiny/atiny_lwm2m\object_device.c ****         result = prv_set_value((*dataArrayP) + i);
 445:C:/Users/lenovo/Desktop/liteos/Project2/BearPi_LiteOS/components/connectivity/agent_tiny/atiny_lwm2m\object_device.c ****         i++;
 446:C:/Users/lenovo/Desktop/liteos/Project2/BearPi_LiteOS/components/connectivity/agent_tiny/atiny_lwm2m\object_device.c ****     }
 447:C:/Users/lenovo/Desktop/liteos/Project2/BearPi_LiteOS/components/connectivity/agent_tiny/atiny_lwm2m\object_device.c ****     while (i < *numDataP && result == COAP_205_CONTENT);
 448:C:/Users/lenovo/Desktop/liteos/Project2/BearPi_LiteOS/components/connectivity/agent_tiny/atiny_lwm2m\object_device.c **** 
 449:C:/Users/lenovo/Desktop/liteos/Project2/BearPi_LiteOS/components/connectivity/agent_tiny/atiny_lwm2m\object_device.c ****     return result;
ARM GAS  c:\Users\lenovo\AppData\Local\Temp\ccEIXAak.s 			page 12


 450:C:/Users/lenovo/Desktop/liteos/Project2/BearPi_LiteOS/components/connectivity/agent_tiny/atiny_lwm2m\object_device.c **** }
 451:C:/Users/lenovo/Desktop/liteos/Project2/BearPi_LiteOS/components/connectivity/agent_tiny/atiny_lwm2m\object_device.c **** 
 452:C:/Users/lenovo/Desktop/liteos/Project2/BearPi_LiteOS/components/connectivity/agent_tiny/atiny_lwm2m\object_device.c **** static uint8_t prv_device_discover(uint16_t instanceId,
 453:C:/Users/lenovo/Desktop/liteos/Project2/BearPi_LiteOS/components/connectivity/agent_tiny/atiny_lwm2m\object_device.c ****                                    int *numDataP,
 454:C:/Users/lenovo/Desktop/liteos/Project2/BearPi_LiteOS/components/connectivity/agent_tiny/atiny_lwm2m\object_device.c ****                                    lwm2m_data_t **dataArrayP,
 455:C:/Users/lenovo/Desktop/liteos/Project2/BearPi_LiteOS/components/connectivity/agent_tiny/atiny_lwm2m\object_device.c ****                                    lwm2m_object_t *objectP)
 456:C:/Users/lenovo/Desktop/liteos/Project2/BearPi_LiteOS/components/connectivity/agent_tiny/atiny_lwm2m\object_device.c **** {
 457:C:/Users/lenovo/Desktop/liteos/Project2/BearPi_LiteOS/components/connectivity/agent_tiny/atiny_lwm2m\object_device.c ****     uint8_t result;
 458:C:/Users/lenovo/Desktop/liteos/Project2/BearPi_LiteOS/components/connectivity/agent_tiny/atiny_lwm2m\object_device.c ****     int i;
 459:C:/Users/lenovo/Desktop/liteos/Project2/BearPi_LiteOS/components/connectivity/agent_tiny/atiny_lwm2m\object_device.c **** 
 460:C:/Users/lenovo/Desktop/liteos/Project2/BearPi_LiteOS/components/connectivity/agent_tiny/atiny_lwm2m\object_device.c ****     // this is a single instance object
 461:C:/Users/lenovo/Desktop/liteos/Project2/BearPi_LiteOS/components/connectivity/agent_tiny/atiny_lwm2m\object_device.c ****     if (instanceId != 0)
 462:C:/Users/lenovo/Desktop/liteos/Project2/BearPi_LiteOS/components/connectivity/agent_tiny/atiny_lwm2m\object_device.c ****     {
 463:C:/Users/lenovo/Desktop/liteos/Project2/BearPi_LiteOS/components/connectivity/agent_tiny/atiny_lwm2m\object_device.c ****         return COAP_404_NOT_FOUND;
 464:C:/Users/lenovo/Desktop/liteos/Project2/BearPi_LiteOS/components/connectivity/agent_tiny/atiny_lwm2m\object_device.c ****     }
 465:C:/Users/lenovo/Desktop/liteos/Project2/BearPi_LiteOS/components/connectivity/agent_tiny/atiny_lwm2m\object_device.c **** 
 466:C:/Users/lenovo/Desktop/liteos/Project2/BearPi_LiteOS/components/connectivity/agent_tiny/atiny_lwm2m\object_device.c ****     result = COAP_205_CONTENT;
 467:C:/Users/lenovo/Desktop/liteos/Project2/BearPi_LiteOS/components/connectivity/agent_tiny/atiny_lwm2m\object_device.c **** 
 468:C:/Users/lenovo/Desktop/liteos/Project2/BearPi_LiteOS/components/connectivity/agent_tiny/atiny_lwm2m\object_device.c ****     // is the server asking for the full object ?
 469:C:/Users/lenovo/Desktop/liteos/Project2/BearPi_LiteOS/components/connectivity/agent_tiny/atiny_lwm2m\object_device.c ****     if (*numDataP == 0)
 470:C:/Users/lenovo/Desktop/liteos/Project2/BearPi_LiteOS/components/connectivity/agent_tiny/atiny_lwm2m\object_device.c ****     {
 471:C:/Users/lenovo/Desktop/liteos/Project2/BearPi_LiteOS/components/connectivity/agent_tiny/atiny_lwm2m\object_device.c ****         uint16_t resList[] =
 472:C:/Users/lenovo/Desktop/liteos/Project2/BearPi_LiteOS/components/connectivity/agent_tiny/atiny_lwm2m\object_device.c ****         {
 473:C:/Users/lenovo/Desktop/liteos/Project2/BearPi_LiteOS/components/connectivity/agent_tiny/atiny_lwm2m\object_device.c ****             RES_O_MANUFACTURER,
 474:C:/Users/lenovo/Desktop/liteos/Project2/BearPi_LiteOS/components/connectivity/agent_tiny/atiny_lwm2m\object_device.c ****             RES_O_MODEL_NUMBER,
 475:C:/Users/lenovo/Desktop/liteos/Project2/BearPi_LiteOS/components/connectivity/agent_tiny/atiny_lwm2m\object_device.c ****             RES_O_SERIAL_NUMBER,
 476:C:/Users/lenovo/Desktop/liteos/Project2/BearPi_LiteOS/components/connectivity/agent_tiny/atiny_lwm2m\object_device.c ****             RES_O_FIRMWARE_VERSION,
 477:C:/Users/lenovo/Desktop/liteos/Project2/BearPi_LiteOS/components/connectivity/agent_tiny/atiny_lwm2m\object_device.c ****             RES_M_REBOOT,
 478:C:/Users/lenovo/Desktop/liteos/Project2/BearPi_LiteOS/components/connectivity/agent_tiny/atiny_lwm2m\object_device.c ****             RES_O_FACTORY_RESET,
 479:C:/Users/lenovo/Desktop/liteos/Project2/BearPi_LiteOS/components/connectivity/agent_tiny/atiny_lwm2m\object_device.c ****             RES_O_AVL_POWER_SOURCES,
 480:C:/Users/lenovo/Desktop/liteos/Project2/BearPi_LiteOS/components/connectivity/agent_tiny/atiny_lwm2m\object_device.c ****             RES_O_POWER_SOURCE_VOLTAGE,
 481:C:/Users/lenovo/Desktop/liteos/Project2/BearPi_LiteOS/components/connectivity/agent_tiny/atiny_lwm2m\object_device.c ****             RES_O_POWER_SOURCE_CURRENT,
 482:C:/Users/lenovo/Desktop/liteos/Project2/BearPi_LiteOS/components/connectivity/agent_tiny/atiny_lwm2m\object_device.c ****             RES_O_BATTERY_LEVEL,
 483:C:/Users/lenovo/Desktop/liteos/Project2/BearPi_LiteOS/components/connectivity/agent_tiny/atiny_lwm2m\object_device.c ****             RES_O_MEMORY_FREE,
 484:C:/Users/lenovo/Desktop/liteos/Project2/BearPi_LiteOS/components/connectivity/agent_tiny/atiny_lwm2m\object_device.c ****             RES_M_ERROR_CODE,
 485:C:/Users/lenovo/Desktop/liteos/Project2/BearPi_LiteOS/components/connectivity/agent_tiny/atiny_lwm2m\object_device.c ****             RES_O_RESET_ERROR_CODE,
 486:C:/Users/lenovo/Desktop/liteos/Project2/BearPi_LiteOS/components/connectivity/agent_tiny/atiny_lwm2m\object_device.c ****             RES_O_CURRENT_TIME,
 487:C:/Users/lenovo/Desktop/liteos/Project2/BearPi_LiteOS/components/connectivity/agent_tiny/atiny_lwm2m\object_device.c ****             RES_O_UTC_OFFSET,
 488:C:/Users/lenovo/Desktop/liteos/Project2/BearPi_LiteOS/components/connectivity/agent_tiny/atiny_lwm2m\object_device.c ****             RES_O_TIMEZONE,
 489:C:/Users/lenovo/Desktop/liteos/Project2/BearPi_LiteOS/components/connectivity/agent_tiny/atiny_lwm2m\object_device.c ****             RES_M_BINDING_MODES
 490:C:/Users/lenovo/Desktop/liteos/Project2/BearPi_LiteOS/components/connectivity/agent_tiny/atiny_lwm2m\object_device.c ****         };
 491:C:/Users/lenovo/Desktop/liteos/Project2/BearPi_LiteOS/components/connectivity/agent_tiny/atiny_lwm2m\object_device.c ****         int nbRes = sizeof(resList) / sizeof(uint16_t);
 492:C:/Users/lenovo/Desktop/liteos/Project2/BearPi_LiteOS/components/connectivity/agent_tiny/atiny_lwm2m\object_device.c **** 
 493:C:/Users/lenovo/Desktop/liteos/Project2/BearPi_LiteOS/components/connectivity/agent_tiny/atiny_lwm2m\object_device.c ****         *dataArrayP = lwm2m_data_new(nbRes);
 494:C:/Users/lenovo/Desktop/liteos/Project2/BearPi_LiteOS/components/connectivity/agent_tiny/atiny_lwm2m\object_device.c ****         if (*dataArrayP == NULL) return COAP_500_INTERNAL_SERVER_ERROR;
 495:C:/Users/lenovo/Desktop/liteos/Project2/BearPi_LiteOS/components/connectivity/agent_tiny/atiny_lwm2m\object_device.c ****         *numDataP = nbRes;
 496:C:/Users/lenovo/Desktop/liteos/Project2/BearPi_LiteOS/components/connectivity/agent_tiny/atiny_lwm2m\object_device.c ****         for (i = 0; i < nbRes; i++)
 497:C:/Users/lenovo/Desktop/liteos/Project2/BearPi_LiteOS/components/connectivity/agent_tiny/atiny_lwm2m\object_device.c ****         {
 498:C:/Users/lenovo/Desktop/liteos/Project2/BearPi_LiteOS/components/connectivity/agent_tiny/atiny_lwm2m\object_device.c ****             (*dataArrayP)[i].id = resList[i];
 499:C:/Users/lenovo/Desktop/liteos/Project2/BearPi_LiteOS/components/connectivity/agent_tiny/atiny_lwm2m\object_device.c ****         }
 500:C:/Users/lenovo/Desktop/liteos/Project2/BearPi_LiteOS/components/connectivity/agent_tiny/atiny_lwm2m\object_device.c ****     }
 501:C:/Users/lenovo/Desktop/liteos/Project2/BearPi_LiteOS/components/connectivity/agent_tiny/atiny_lwm2m\object_device.c ****     else
 502:C:/Users/lenovo/Desktop/liteos/Project2/BearPi_LiteOS/components/connectivity/agent_tiny/atiny_lwm2m\object_device.c ****     {
 503:C:/Users/lenovo/Desktop/liteos/Project2/BearPi_LiteOS/components/connectivity/agent_tiny/atiny_lwm2m\object_device.c ****         for (i = 0; i < *numDataP && result == COAP_205_CONTENT; i++)
 504:C:/Users/lenovo/Desktop/liteos/Project2/BearPi_LiteOS/components/connectivity/agent_tiny/atiny_lwm2m\object_device.c ****         {
 505:C:/Users/lenovo/Desktop/liteos/Project2/BearPi_LiteOS/components/connectivity/agent_tiny/atiny_lwm2m\object_device.c ****             switch ((*dataArrayP)[i].id)
 506:C:/Users/lenovo/Desktop/liteos/Project2/BearPi_LiteOS/components/connectivity/agent_tiny/atiny_lwm2m\object_device.c ****             {
ARM GAS  c:\Users\lenovo\AppData\Local\Temp\ccEIXAak.s 			page 13


 507:C:/Users/lenovo/Desktop/liteos/Project2/BearPi_LiteOS/components/connectivity/agent_tiny/atiny_lwm2m\object_device.c ****             case RES_O_MANUFACTURER:
 508:C:/Users/lenovo/Desktop/liteos/Project2/BearPi_LiteOS/components/connectivity/agent_tiny/atiny_lwm2m\object_device.c ****             case RES_O_MODEL_NUMBER:
 509:C:/Users/lenovo/Desktop/liteos/Project2/BearPi_LiteOS/components/connectivity/agent_tiny/atiny_lwm2m\object_device.c ****             case RES_O_SERIAL_NUMBER:
 510:C:/Users/lenovo/Desktop/liteos/Project2/BearPi_LiteOS/components/connectivity/agent_tiny/atiny_lwm2m\object_device.c ****             case RES_O_FIRMWARE_VERSION:
 511:C:/Users/lenovo/Desktop/liteos/Project2/BearPi_LiteOS/components/connectivity/agent_tiny/atiny_lwm2m\object_device.c ****             case RES_M_REBOOT:
 512:C:/Users/lenovo/Desktop/liteos/Project2/BearPi_LiteOS/components/connectivity/agent_tiny/atiny_lwm2m\object_device.c ****             case RES_O_FACTORY_RESET:
 513:C:/Users/lenovo/Desktop/liteos/Project2/BearPi_LiteOS/components/connectivity/agent_tiny/atiny_lwm2m\object_device.c ****             case RES_O_AVL_POWER_SOURCES:
 514:C:/Users/lenovo/Desktop/liteos/Project2/BearPi_LiteOS/components/connectivity/agent_tiny/atiny_lwm2m\object_device.c ****             case RES_O_POWER_SOURCE_VOLTAGE:
 515:C:/Users/lenovo/Desktop/liteos/Project2/BearPi_LiteOS/components/connectivity/agent_tiny/atiny_lwm2m\object_device.c ****             case RES_O_POWER_SOURCE_CURRENT:
 516:C:/Users/lenovo/Desktop/liteos/Project2/BearPi_LiteOS/components/connectivity/agent_tiny/atiny_lwm2m\object_device.c ****             case RES_O_BATTERY_LEVEL:
 517:C:/Users/lenovo/Desktop/liteos/Project2/BearPi_LiteOS/components/connectivity/agent_tiny/atiny_lwm2m\object_device.c ****             case RES_O_MEMORY_FREE:
 518:C:/Users/lenovo/Desktop/liteos/Project2/BearPi_LiteOS/components/connectivity/agent_tiny/atiny_lwm2m\object_device.c ****             case RES_M_ERROR_CODE:
 519:C:/Users/lenovo/Desktop/liteos/Project2/BearPi_LiteOS/components/connectivity/agent_tiny/atiny_lwm2m\object_device.c ****             case RES_O_RESET_ERROR_CODE:
 520:C:/Users/lenovo/Desktop/liteos/Project2/BearPi_LiteOS/components/connectivity/agent_tiny/atiny_lwm2m\object_device.c ****             case RES_O_CURRENT_TIME:
 521:C:/Users/lenovo/Desktop/liteos/Project2/BearPi_LiteOS/components/connectivity/agent_tiny/atiny_lwm2m\object_device.c ****             case RES_O_UTC_OFFSET:
 522:C:/Users/lenovo/Desktop/liteos/Project2/BearPi_LiteOS/components/connectivity/agent_tiny/atiny_lwm2m\object_device.c ****             case RES_O_TIMEZONE:
 523:C:/Users/lenovo/Desktop/liteos/Project2/BearPi_LiteOS/components/connectivity/agent_tiny/atiny_lwm2m\object_device.c ****             case RES_M_BINDING_MODES:
 524:C:/Users/lenovo/Desktop/liteos/Project2/BearPi_LiteOS/components/connectivity/agent_tiny/atiny_lwm2m\object_device.c ****                 break;
 525:C:/Users/lenovo/Desktop/liteos/Project2/BearPi_LiteOS/components/connectivity/agent_tiny/atiny_lwm2m\object_device.c ****             default:
 526:C:/Users/lenovo/Desktop/liteos/Project2/BearPi_LiteOS/components/connectivity/agent_tiny/atiny_lwm2m\object_device.c ****                 result = COAP_404_NOT_FOUND;
 527:C:/Users/lenovo/Desktop/liteos/Project2/BearPi_LiteOS/components/connectivity/agent_tiny/atiny_lwm2m\object_device.c ****             }
 528:C:/Users/lenovo/Desktop/liteos/Project2/BearPi_LiteOS/components/connectivity/agent_tiny/atiny_lwm2m\object_device.c ****         }
 529:C:/Users/lenovo/Desktop/liteos/Project2/BearPi_LiteOS/components/connectivity/agent_tiny/atiny_lwm2m\object_device.c ****     }
 530:C:/Users/lenovo/Desktop/liteos/Project2/BearPi_LiteOS/components/connectivity/agent_tiny/atiny_lwm2m\object_device.c **** 
 531:C:/Users/lenovo/Desktop/liteos/Project2/BearPi_LiteOS/components/connectivity/agent_tiny/atiny_lwm2m\object_device.c ****     return result;
 532:C:/Users/lenovo/Desktop/liteos/Project2/BearPi_LiteOS/components/connectivity/agent_tiny/atiny_lwm2m\object_device.c **** }
 533:C:/Users/lenovo/Desktop/liteos/Project2/BearPi_LiteOS/components/connectivity/agent_tiny/atiny_lwm2m\object_device.c **** 
 534:C:/Users/lenovo/Desktop/liteos/Project2/BearPi_LiteOS/components/connectivity/agent_tiny/atiny_lwm2m\object_device.c **** static uint8_t prv_device_write(uint16_t instanceId,
 535:C:/Users/lenovo/Desktop/liteos/Project2/BearPi_LiteOS/components/connectivity/agent_tiny/atiny_lwm2m\object_device.c ****                                 int numData,
 536:C:/Users/lenovo/Desktop/liteos/Project2/BearPi_LiteOS/components/connectivity/agent_tiny/atiny_lwm2m\object_device.c ****                                 lwm2m_data_t *dataArray,
 537:C:/Users/lenovo/Desktop/liteos/Project2/BearPi_LiteOS/components/connectivity/agent_tiny/atiny_lwm2m\object_device.c ****                                 lwm2m_object_t *objectP)
 538:C:/Users/lenovo/Desktop/liteos/Project2/BearPi_LiteOS/components/connectivity/agent_tiny/atiny_lwm2m\object_device.c **** {
 539:C:/Users/lenovo/Desktop/liteos/Project2/BearPi_LiteOS/components/connectivity/agent_tiny/atiny_lwm2m\object_device.c ****     int i;
 540:C:/Users/lenovo/Desktop/liteos/Project2/BearPi_LiteOS/components/connectivity/agent_tiny/atiny_lwm2m\object_device.c ****     uint8_t result;
 541:C:/Users/lenovo/Desktop/liteos/Project2/BearPi_LiteOS/components/connectivity/agent_tiny/atiny_lwm2m\object_device.c ****     int64_t current_time;
 542:C:/Users/lenovo/Desktop/liteos/Project2/BearPi_LiteOS/components/connectivity/agent_tiny/atiny_lwm2m\object_device.c **** 
 543:C:/Users/lenovo/Desktop/liteos/Project2/BearPi_LiteOS/components/connectivity/agent_tiny/atiny_lwm2m\object_device.c ****     // this is a single instance object
 544:C:/Users/lenovo/Desktop/liteos/Project2/BearPi_LiteOS/components/connectivity/agent_tiny/atiny_lwm2m\object_device.c ****     if (instanceId != 0)
 545:C:/Users/lenovo/Desktop/liteos/Project2/BearPi_LiteOS/components/connectivity/agent_tiny/atiny_lwm2m\object_device.c ****     {
 546:C:/Users/lenovo/Desktop/liteos/Project2/BearPi_LiteOS/components/connectivity/agent_tiny/atiny_lwm2m\object_device.c ****         return COAP_404_NOT_FOUND;
 547:C:/Users/lenovo/Desktop/liteos/Project2/BearPi_LiteOS/components/connectivity/agent_tiny/atiny_lwm2m\object_device.c ****     }
 548:C:/Users/lenovo/Desktop/liteos/Project2/BearPi_LiteOS/components/connectivity/agent_tiny/atiny_lwm2m\object_device.c **** 
 549:C:/Users/lenovo/Desktop/liteos/Project2/BearPi_LiteOS/components/connectivity/agent_tiny/atiny_lwm2m\object_device.c ****     i = 0;
 550:C:/Users/lenovo/Desktop/liteos/Project2/BearPi_LiteOS/components/connectivity/agent_tiny/atiny_lwm2m\object_device.c **** 
 551:C:/Users/lenovo/Desktop/liteos/Project2/BearPi_LiteOS/components/connectivity/agent_tiny/atiny_lwm2m\object_device.c ****     do
 552:C:/Users/lenovo/Desktop/liteos/Project2/BearPi_LiteOS/components/connectivity/agent_tiny/atiny_lwm2m\object_device.c ****     {
 553:C:/Users/lenovo/Desktop/liteos/Project2/BearPi_LiteOS/components/connectivity/agent_tiny/atiny_lwm2m\object_device.c ****         switch (dataArray[i].id)
 554:C:/Users/lenovo/Desktop/liteos/Project2/BearPi_LiteOS/components/connectivity/agent_tiny/atiny_lwm2m\object_device.c ****         {
 555:C:/Users/lenovo/Desktop/liteos/Project2/BearPi_LiteOS/components/connectivity/agent_tiny/atiny_lwm2m\object_device.c ****         case RES_O_CURRENT_TIME:
 556:C:/Users/lenovo/Desktop/liteos/Project2/BearPi_LiteOS/components/connectivity/agent_tiny/atiny_lwm2m\object_device.c ****             if (1 == lwm2m_data_decode_int(dataArray + i, &current_time))
 557:C:/Users/lenovo/Desktop/liteos/Project2/BearPi_LiteOS/components/connectivity/agent_tiny/atiny_lwm2m\object_device.c ****             {
 558:C:/Users/lenovo/Desktop/liteos/Project2/BearPi_LiteOS/components/connectivity/agent_tiny/atiny_lwm2m\object_device.c ****                 result = atiny_cmd_ioctl(ATINY_SET_CURRENT_TIME, (char *)&current_time, sizeof(int6
 559:C:/Users/lenovo/Desktop/liteos/Project2/BearPi_LiteOS/components/connectivity/agent_tiny/atiny_lwm2m\object_device.c ****                 if(result == ATINY_OK)
 560:C:/Users/lenovo/Desktop/liteos/Project2/BearPi_LiteOS/components/connectivity/agent_tiny/atiny_lwm2m\object_device.c ****                 {
 561:C:/Users/lenovo/Desktop/liteos/Project2/BearPi_LiteOS/components/connectivity/agent_tiny/atiny_lwm2m\object_device.c ****                     return COAP_204_CHANGED;
 562:C:/Users/lenovo/Desktop/liteos/Project2/BearPi_LiteOS/components/connectivity/agent_tiny/atiny_lwm2m\object_device.c ****                 }
 563:C:/Users/lenovo/Desktop/liteos/Project2/BearPi_LiteOS/components/connectivity/agent_tiny/atiny_lwm2m\object_device.c ****                 else
ARM GAS  c:\Users\lenovo\AppData\Local\Temp\ccEIXAak.s 			page 14


 564:C:/Users/lenovo/Desktop/liteos/Project2/BearPi_LiteOS/components/connectivity/agent_tiny/atiny_lwm2m\object_device.c ****                 {
 565:C:/Users/lenovo/Desktop/liteos/Project2/BearPi_LiteOS/components/connectivity/agent_tiny/atiny_lwm2m\object_device.c ****                     return COAP_400_BAD_REQUEST;
 566:C:/Users/lenovo/Desktop/liteos/Project2/BearPi_LiteOS/components/connectivity/agent_tiny/atiny_lwm2m\object_device.c ****                 }
 567:C:/Users/lenovo/Desktop/liteos/Project2/BearPi_LiteOS/components/connectivity/agent_tiny/atiny_lwm2m\object_device.c ****             }
 568:C:/Users/lenovo/Desktop/liteos/Project2/BearPi_LiteOS/components/connectivity/agent_tiny/atiny_lwm2m\object_device.c ****             else
 569:C:/Users/lenovo/Desktop/liteos/Project2/BearPi_LiteOS/components/connectivity/agent_tiny/atiny_lwm2m\object_device.c ****             {
 570:C:/Users/lenovo/Desktop/liteos/Project2/BearPi_LiteOS/components/connectivity/agent_tiny/atiny_lwm2m\object_device.c ****                 result = COAP_400_BAD_REQUEST;
 571:C:/Users/lenovo/Desktop/liteos/Project2/BearPi_LiteOS/components/connectivity/agent_tiny/atiny_lwm2m\object_device.c ****             }
 572:C:/Users/lenovo/Desktop/liteos/Project2/BearPi_LiteOS/components/connectivity/agent_tiny/atiny_lwm2m\object_device.c ****             break;
 573:C:/Users/lenovo/Desktop/liteos/Project2/BearPi_LiteOS/components/connectivity/agent_tiny/atiny_lwm2m\object_device.c **** 
 574:C:/Users/lenovo/Desktop/liteos/Project2/BearPi_LiteOS/components/connectivity/agent_tiny/atiny_lwm2m\object_device.c ****         case RES_O_UTC_OFFSET:
 575:C:/Users/lenovo/Desktop/liteos/Project2/BearPi_LiteOS/components/connectivity/agent_tiny/atiny_lwm2m\object_device.c ****             if (1 == prv_check_time_offset((char *)dataArray[i].value.asBuffer.buffer, dataArray[i]
 576:C:/Users/lenovo/Desktop/liteos/Project2/BearPi_LiteOS/components/connectivity/agent_tiny/atiny_lwm2m\object_device.c ****             {
 577:C:/Users/lenovo/Desktop/liteos/Project2/BearPi_LiteOS/components/connectivity/agent_tiny/atiny_lwm2m\object_device.c ****                 result = atiny_cmd_ioctl(ATINY_SET_UTC_OFFSET, (char *)dataArray[i].value.asBuffer.
 578:C:/Users/lenovo/Desktop/liteos/Project2/BearPi_LiteOS/components/connectivity/agent_tiny/atiny_lwm2m\object_device.c ****                 if(result == ATINY_OK)
 579:C:/Users/lenovo/Desktop/liteos/Project2/BearPi_LiteOS/components/connectivity/agent_tiny/atiny_lwm2m\object_device.c ****                 {
 580:C:/Users/lenovo/Desktop/liteos/Project2/BearPi_LiteOS/components/connectivity/agent_tiny/atiny_lwm2m\object_device.c ****                     return COAP_204_CHANGED;
 581:C:/Users/lenovo/Desktop/liteos/Project2/BearPi_LiteOS/components/connectivity/agent_tiny/atiny_lwm2m\object_device.c ****                 }
 582:C:/Users/lenovo/Desktop/liteos/Project2/BearPi_LiteOS/components/connectivity/agent_tiny/atiny_lwm2m\object_device.c ****                 else
 583:C:/Users/lenovo/Desktop/liteos/Project2/BearPi_LiteOS/components/connectivity/agent_tiny/atiny_lwm2m\object_device.c ****                 {
 584:C:/Users/lenovo/Desktop/liteos/Project2/BearPi_LiteOS/components/connectivity/agent_tiny/atiny_lwm2m\object_device.c ****                     return COAP_400_BAD_REQUEST;
 585:C:/Users/lenovo/Desktop/liteos/Project2/BearPi_LiteOS/components/connectivity/agent_tiny/atiny_lwm2m\object_device.c ****                 }
 586:C:/Users/lenovo/Desktop/liteos/Project2/BearPi_LiteOS/components/connectivity/agent_tiny/atiny_lwm2m\object_device.c ****             }
 587:C:/Users/lenovo/Desktop/liteos/Project2/BearPi_LiteOS/components/connectivity/agent_tiny/atiny_lwm2m\object_device.c ****             else
 588:C:/Users/lenovo/Desktop/liteos/Project2/BearPi_LiteOS/components/connectivity/agent_tiny/atiny_lwm2m\object_device.c ****             {
 589:C:/Users/lenovo/Desktop/liteos/Project2/BearPi_LiteOS/components/connectivity/agent_tiny/atiny_lwm2m\object_device.c ****                 result = COAP_400_BAD_REQUEST;
 590:C:/Users/lenovo/Desktop/liteos/Project2/BearPi_LiteOS/components/connectivity/agent_tiny/atiny_lwm2m\object_device.c ****             }
 591:C:/Users/lenovo/Desktop/liteos/Project2/BearPi_LiteOS/components/connectivity/agent_tiny/atiny_lwm2m\object_device.c ****             break;
 592:C:/Users/lenovo/Desktop/liteos/Project2/BearPi_LiteOS/components/connectivity/agent_tiny/atiny_lwm2m\object_device.c **** 
 593:C:/Users/lenovo/Desktop/liteos/Project2/BearPi_LiteOS/components/connectivity/agent_tiny/atiny_lwm2m\object_device.c ****         case RES_O_TIMEZONE:
 594:C:/Users/lenovo/Desktop/liteos/Project2/BearPi_LiteOS/components/connectivity/agent_tiny/atiny_lwm2m\object_device.c ****             result = atiny_cmd_ioctl(ATINY_SET_TIMEZONE, (char *)dataArray[i].value.asBuffer.buffer
 595:C:/Users/lenovo/Desktop/liteos/Project2/BearPi_LiteOS/components/connectivity/agent_tiny/atiny_lwm2m\object_device.c ****             if(result == ATINY_OK)
 596:C:/Users/lenovo/Desktop/liteos/Project2/BearPi_LiteOS/components/connectivity/agent_tiny/atiny_lwm2m\object_device.c ****             {
 597:C:/Users/lenovo/Desktop/liteos/Project2/BearPi_LiteOS/components/connectivity/agent_tiny/atiny_lwm2m\object_device.c ****                 return COAP_204_CHANGED;
 598:C:/Users/lenovo/Desktop/liteos/Project2/BearPi_LiteOS/components/connectivity/agent_tiny/atiny_lwm2m\object_device.c ****             }
 599:C:/Users/lenovo/Desktop/liteos/Project2/BearPi_LiteOS/components/connectivity/agent_tiny/atiny_lwm2m\object_device.c ****             else
 600:C:/Users/lenovo/Desktop/liteos/Project2/BearPi_LiteOS/components/connectivity/agent_tiny/atiny_lwm2m\object_device.c ****             {
 601:C:/Users/lenovo/Desktop/liteos/Project2/BearPi_LiteOS/components/connectivity/agent_tiny/atiny_lwm2m\object_device.c ****                 return COAP_400_BAD_REQUEST;
 602:C:/Users/lenovo/Desktop/liteos/Project2/BearPi_LiteOS/components/connectivity/agent_tiny/atiny_lwm2m\object_device.c ****             }
 603:C:/Users/lenovo/Desktop/liteos/Project2/BearPi_LiteOS/components/connectivity/agent_tiny/atiny_lwm2m\object_device.c ****         //break;
 604:C:/Users/lenovo/Desktop/liteos/Project2/BearPi_LiteOS/components/connectivity/agent_tiny/atiny_lwm2m\object_device.c **** 
 605:C:/Users/lenovo/Desktop/liteos/Project2/BearPi_LiteOS/components/connectivity/agent_tiny/atiny_lwm2m\object_device.c ****         default:
 606:C:/Users/lenovo/Desktop/liteos/Project2/BearPi_LiteOS/components/connectivity/agent_tiny/atiny_lwm2m\object_device.c ****             result = COAP_405_METHOD_NOT_ALLOWED;
 607:C:/Users/lenovo/Desktop/liteos/Project2/BearPi_LiteOS/components/connectivity/agent_tiny/atiny_lwm2m\object_device.c ****         }
 608:C:/Users/lenovo/Desktop/liteos/Project2/BearPi_LiteOS/components/connectivity/agent_tiny/atiny_lwm2m\object_device.c **** 
 609:C:/Users/lenovo/Desktop/liteos/Project2/BearPi_LiteOS/components/connectivity/agent_tiny/atiny_lwm2m\object_device.c ****         i++;
 610:C:/Users/lenovo/Desktop/liteos/Project2/BearPi_LiteOS/components/connectivity/agent_tiny/atiny_lwm2m\object_device.c ****     }
 611:C:/Users/lenovo/Desktop/liteos/Project2/BearPi_LiteOS/components/connectivity/agent_tiny/atiny_lwm2m\object_device.c ****     while (i < numData && result == COAP_204_CHANGED);
 612:C:/Users/lenovo/Desktop/liteos/Project2/BearPi_LiteOS/components/connectivity/agent_tiny/atiny_lwm2m\object_device.c **** 
 613:C:/Users/lenovo/Desktop/liteos/Project2/BearPi_LiteOS/components/connectivity/agent_tiny/atiny_lwm2m\object_device.c ****     return result;
 614:C:/Users/lenovo/Desktop/liteos/Project2/BearPi_LiteOS/components/connectivity/agent_tiny/atiny_lwm2m\object_device.c **** }
 615:C:/Users/lenovo/Desktop/liteos/Project2/BearPi_LiteOS/components/connectivity/agent_tiny/atiny_lwm2m\object_device.c **** 
 616:C:/Users/lenovo/Desktop/liteos/Project2/BearPi_LiteOS/components/connectivity/agent_tiny/atiny_lwm2m\object_device.c **** static uint8_t prv_device_execute(uint16_t instanceId,
 617:C:/Users/lenovo/Desktop/liteos/Project2/BearPi_LiteOS/components/connectivity/agent_tiny/atiny_lwm2m\object_device.c ****                                   uint16_t resourceId,
 618:C:/Users/lenovo/Desktop/liteos/Project2/BearPi_LiteOS/components/connectivity/agent_tiny/atiny_lwm2m\object_device.c ****                                   uint8_t *buffer,
 619:C:/Users/lenovo/Desktop/liteos/Project2/BearPi_LiteOS/components/connectivity/agent_tiny/atiny_lwm2m\object_device.c ****                                   int length,
 620:C:/Users/lenovo/Desktop/liteos/Project2/BearPi_LiteOS/components/connectivity/agent_tiny/atiny_lwm2m\object_device.c ****                                   lwm2m_object_t *objectP)
ARM GAS  c:\Users\lenovo\AppData\Local\Temp\ccEIXAak.s 			page 15


 621:C:/Users/lenovo/Desktop/liteos/Project2/BearPi_LiteOS/components/connectivity/agent_tiny/atiny_lwm2m\object_device.c **** {
 173              		.loc 1 621 0
 174              		.cfi_startproc
 175              		@ args = 4, pretend = 0, frame = 0
 176              		@ frame_needed = 0, uses_anonymous_args = 0
 177              	.LVL21:
 622:C:/Users/lenovo/Desktop/liteos/Project2/BearPi_LiteOS/components/connectivity/agent_tiny/atiny_lwm2m\object_device.c ****     int result;
 623:C:/Users/lenovo/Desktop/liteos/Project2/BearPi_LiteOS/components/connectivity/agent_tiny/atiny_lwm2m\object_device.c ****     // this is a single instance object
 624:C:/Users/lenovo/Desktop/liteos/Project2/BearPi_LiteOS/components/connectivity/agent_tiny/atiny_lwm2m\object_device.c ****     if (instanceId != 0)
 178              		.loc 1 624 0
 179 0000 00BB     		cbnz	r0, .L32
 625:C:/Users/lenovo/Desktop/liteos/Project2/BearPi_LiteOS/components/connectivity/agent_tiny/atiny_lwm2m\object_device.c ****     {
 626:C:/Users/lenovo/Desktop/liteos/Project2/BearPi_LiteOS/components/connectivity/agent_tiny/atiny_lwm2m\object_device.c ****         return COAP_404_NOT_FOUND;
 627:C:/Users/lenovo/Desktop/liteos/Project2/BearPi_LiteOS/components/connectivity/agent_tiny/atiny_lwm2m\object_device.c ****     }
 628:C:/Users/lenovo/Desktop/liteos/Project2/BearPi_LiteOS/components/connectivity/agent_tiny/atiny_lwm2m\object_device.c **** 
 629:C:/Users/lenovo/Desktop/liteos/Project2/BearPi_LiteOS/components/connectivity/agent_tiny/atiny_lwm2m\object_device.c ****     if (length != 0) return COAP_400_BAD_REQUEST;
 180              		.loc 1 629 0
 181 0002 0BBB     		cbnz	r3, .L33
 621:C:/Users/lenovo/Desktop/liteos/Project2/BearPi_LiteOS/components/connectivity/agent_tiny/atiny_lwm2m\object_device.c ****     int result;
 182              		.loc 1 621 0
 183 0004 08B5     		push	{r3, lr}
 184              	.LCFI0:
 185              		.cfi_def_cfa_offset 8
 186              		.cfi_offset 3, -8
 187              		.cfi_offset 14, -4
 630:C:/Users/lenovo/Desktop/liteos/Project2/BearPi_LiteOS/components/connectivity/agent_tiny/atiny_lwm2m\object_device.c **** 
 631:C:/Users/lenovo/Desktop/liteos/Project2/BearPi_LiteOS/components/connectivity/agent_tiny/atiny_lwm2m\object_device.c ****     switch (resourceId)
 188              		.loc 1 631 0
 189 0006 0529     		cmp	r1, #5
 190 0008 0AD0     		beq	.L29
 191 000a 0C29     		cmp	r1, #12
 192 000c 10D0     		beq	.L30
 193 000e 0429     		cmp	r1, #4
 194 0010 01D0     		beq	.L42
 632:C:/Users/lenovo/Desktop/liteos/Project2/BearPi_LiteOS/components/connectivity/agent_tiny/atiny_lwm2m\object_device.c ****     {
 633:C:/Users/lenovo/Desktop/liteos/Project2/BearPi_LiteOS/components/connectivity/agent_tiny/atiny_lwm2m\object_device.c ****     case RES_M_REBOOT:
 634:C:/Users/lenovo/Desktop/liteos/Project2/BearPi_LiteOS/components/connectivity/agent_tiny/atiny_lwm2m\object_device.c ****         g_reboot = 1;
 635:C:/Users/lenovo/Desktop/liteos/Project2/BearPi_LiteOS/components/connectivity/agent_tiny/atiny_lwm2m\object_device.c ****         return COAP_204_CHANGED;
 636:C:/Users/lenovo/Desktop/liteos/Project2/BearPi_LiteOS/components/connectivity/agent_tiny/atiny_lwm2m\object_device.c ****     case RES_O_FACTORY_RESET:
 637:C:/Users/lenovo/Desktop/liteos/Project2/BearPi_LiteOS/components/connectivity/agent_tiny/atiny_lwm2m\object_device.c ****         result = atiny_cmd_ioctl(ATINY_DO_FACTORY_RESET, NULL, 0);
 638:C:/Users/lenovo/Desktop/liteos/Project2/BearPi_LiteOS/components/connectivity/agent_tiny/atiny_lwm2m\object_device.c ****         if(result == ATINY_OK)
 639:C:/Users/lenovo/Desktop/liteos/Project2/BearPi_LiteOS/components/connectivity/agent_tiny/atiny_lwm2m\object_device.c ****         {
 640:C:/Users/lenovo/Desktop/liteos/Project2/BearPi_LiteOS/components/connectivity/agent_tiny/atiny_lwm2m\object_device.c ****             return COAP_204_CHANGED;
 641:C:/Users/lenovo/Desktop/liteos/Project2/BearPi_LiteOS/components/connectivity/agent_tiny/atiny_lwm2m\object_device.c ****         }
 642:C:/Users/lenovo/Desktop/liteos/Project2/BearPi_LiteOS/components/connectivity/agent_tiny/atiny_lwm2m\object_device.c ****         else
 643:C:/Users/lenovo/Desktop/liteos/Project2/BearPi_LiteOS/components/connectivity/agent_tiny/atiny_lwm2m\object_device.c ****         {
 644:C:/Users/lenovo/Desktop/liteos/Project2/BearPi_LiteOS/components/connectivity/agent_tiny/atiny_lwm2m\object_device.c ****             return COAP_503_SERVICE_UNAVAILABLE;
 645:C:/Users/lenovo/Desktop/liteos/Project2/BearPi_LiteOS/components/connectivity/agent_tiny/atiny_lwm2m\object_device.c ****         }
 646:C:/Users/lenovo/Desktop/liteos/Project2/BearPi_LiteOS/components/connectivity/agent_tiny/atiny_lwm2m\object_device.c ****     case RES_O_RESET_ERROR_CODE:
 647:C:/Users/lenovo/Desktop/liteos/Project2/BearPi_LiteOS/components/connectivity/agent_tiny/atiny_lwm2m\object_device.c ****         result = atiny_cmd_ioctl(ATINY_DO_RESET_DEV_ERR, NULL, 0);
 648:C:/Users/lenovo/Desktop/liteos/Project2/BearPi_LiteOS/components/connectivity/agent_tiny/atiny_lwm2m\object_device.c ****         if(result == ATINY_OK)
 649:C:/Users/lenovo/Desktop/liteos/Project2/BearPi_LiteOS/components/connectivity/agent_tiny/atiny_lwm2m\object_device.c ****         {
 650:C:/Users/lenovo/Desktop/liteos/Project2/BearPi_LiteOS/components/connectivity/agent_tiny/atiny_lwm2m\object_device.c ****             return COAP_204_CHANGED;
 651:C:/Users/lenovo/Desktop/liteos/Project2/BearPi_LiteOS/components/connectivity/agent_tiny/atiny_lwm2m\object_device.c ****         }
 652:C:/Users/lenovo/Desktop/liteos/Project2/BearPi_LiteOS/components/connectivity/agent_tiny/atiny_lwm2m\object_device.c ****         else
 653:C:/Users/lenovo/Desktop/liteos/Project2/BearPi_LiteOS/components/connectivity/agent_tiny/atiny_lwm2m\object_device.c ****         {
 654:C:/Users/lenovo/Desktop/liteos/Project2/BearPi_LiteOS/components/connectivity/agent_tiny/atiny_lwm2m\object_device.c ****             return COAP_503_SERVICE_UNAVAILABLE;
ARM GAS  c:\Users\lenovo\AppData\Local\Temp\ccEIXAak.s 			page 16


 655:C:/Users/lenovo/Desktop/liteos/Project2/BearPi_LiteOS/components/connectivity/agent_tiny/atiny_lwm2m\object_device.c ****         }
 656:C:/Users/lenovo/Desktop/liteos/Project2/BearPi_LiteOS/components/connectivity/agent_tiny/atiny_lwm2m\object_device.c ****     default:
 657:C:/Users/lenovo/Desktop/liteos/Project2/BearPi_LiteOS/components/connectivity/agent_tiny/atiny_lwm2m\object_device.c ****         return COAP_405_METHOD_NOT_ALLOWED;
 195              		.loc 1 657 0
 196 0012 8520     		movs	r0, #133
 197              	.LVL22:
 198 0014 03E0     		b	.L28
 199              	.LVL23:
 200              	.L42:
 634:C:/Users/lenovo/Desktop/liteos/Project2/BearPi_LiteOS/components/connectivity/agent_tiny/atiny_lwm2m\object_device.c ****         return COAP_204_CHANGED;
 201              		.loc 1 634 0
 202 0016 0E4B     		ldr	r3, .L44
 203              	.LVL24:
 204 0018 0122     		movs	r2, #1
 205              	.LVL25:
 206 001a 1A60     		str	r2, [r3]
 635:C:/Users/lenovo/Desktop/liteos/Project2/BearPi_LiteOS/components/connectivity/agent_tiny/atiny_lwm2m\object_device.c ****     case RES_O_FACTORY_RESET:
 207              		.loc 1 635 0
 208 001c 4420     		movs	r0, #68
 209              	.LVL26:
 210              	.L28:
 658:C:/Users/lenovo/Desktop/liteos/Project2/BearPi_LiteOS/components/connectivity/agent_tiny/atiny_lwm2m\object_device.c ****     }
 659:C:/Users/lenovo/Desktop/liteos/Project2/BearPi_LiteOS/components/connectivity/agent_tiny/atiny_lwm2m\object_device.c **** }
 211              		.loc 1 659 0
 212 001e 08BD     		pop	{r3, pc}
 213              	.LVL27:
 214              	.L29:
 637:C:/Users/lenovo/Desktop/liteos/Project2/BearPi_LiteOS/components/connectivity/agent_tiny/atiny_lwm2m\object_device.c ****         if(result == ATINY_OK)
 215              		.loc 1 637 0
 216 0020 0022     		movs	r2, #0
 217              	.LVL28:
 218 0022 1146     		mov	r1, r2
 219              	.LVL29:
 220 0024 0520     		movs	r0, #5
 221              	.LVL30:
 222 0026 FFF7FEFF 		bl	atiny_cmd_ioctl
 223              	.LVL31:
 638:C:/Users/lenovo/Desktop/liteos/Project2/BearPi_LiteOS/components/connectivity/agent_tiny/atiny_lwm2m\object_device.c ****         {
 224              		.loc 1 638 0
 225 002a 78B9     		cbnz	r0, .L35
 640:C:/Users/lenovo/Desktop/liteos/Project2/BearPi_LiteOS/components/connectivity/agent_tiny/atiny_lwm2m\object_device.c ****         }
 226              		.loc 1 640 0
 227 002c 4420     		movs	r0, #68
 228              	.LVL32:
 229 002e F6E7     		b	.L28
 230              	.LVL33:
 231              	.L30:
 647:C:/Users/lenovo/Desktop/liteos/Project2/BearPi_LiteOS/components/connectivity/agent_tiny/atiny_lwm2m\object_device.c ****         if(result == ATINY_OK)
 232              		.loc 1 647 0
 233 0030 0022     		movs	r2, #0
 234              	.LVL34:
 235 0032 1146     		mov	r1, r2
 236              	.LVL35:
 237 0034 0C20     		movs	r0, #12
 238              	.LVL36:
 239 0036 FFF7FEFF 		bl	atiny_cmd_ioctl
 240              	.LVL37:
ARM GAS  c:\Users\lenovo\AppData\Local\Temp\ccEIXAak.s 			page 17


 648:C:/Users/lenovo/Desktop/liteos/Project2/BearPi_LiteOS/components/connectivity/agent_tiny/atiny_lwm2m\object_device.c ****         {
 241              		.loc 1 648 0
 242 003a 08B1     		cbz	r0, .L43
 654:C:/Users/lenovo/Desktop/liteos/Project2/BearPi_LiteOS/components/connectivity/agent_tiny/atiny_lwm2m\object_device.c ****         }
 243              		.loc 1 654 0
 244 003c A320     		movs	r0, #163
 245              	.LVL38:
 246 003e EEE7     		b	.L28
 247              	.LVL39:
 248              	.L43:
 650:C:/Users/lenovo/Desktop/liteos/Project2/BearPi_LiteOS/components/connectivity/agent_tiny/atiny_lwm2m\object_device.c ****         }
 249              		.loc 1 650 0
 250 0040 4420     		movs	r0, #68
 251              	.LVL40:
 252 0042 ECE7     		b	.L28
 253              	.LVL41:
 254              	.L32:
 255              	.LCFI1:
 256              		.cfi_def_cfa_offset 0
 257              		.cfi_restore 3
 258              		.cfi_restore 14
 626:C:/Users/lenovo/Desktop/liteos/Project2/BearPi_LiteOS/components/connectivity/agent_tiny/atiny_lwm2m\object_device.c ****     }
 259              		.loc 1 626 0
 260 0044 8420     		movs	r0, #132
 261              	.LVL42:
 262 0046 7047     		bx	lr
 263              	.LVL43:
 264              	.L33:
 629:C:/Users/lenovo/Desktop/liteos/Project2/BearPi_LiteOS/components/connectivity/agent_tiny/atiny_lwm2m\object_device.c **** 
 265              		.loc 1 629 0
 266 0048 8020     		movs	r0, #128
 267              	.LVL44:
 268              		.loc 1 659 0
 269 004a 7047     		bx	lr
 270              	.LVL45:
 271              	.L35:
 272              	.LCFI2:
 273              		.cfi_def_cfa_offset 8
 274              		.cfi_offset 3, -8
 275              		.cfi_offset 14, -4
 644:C:/Users/lenovo/Desktop/liteos/Project2/BearPi_LiteOS/components/connectivity/agent_tiny/atiny_lwm2m\object_device.c ****         }
 276              		.loc 1 644 0
 277 004c A320     		movs	r0, #163
 278              	.LVL46:
 279 004e E6E7     		b	.L28
 280              	.L45:
 281              		.align	2
 282              	.L44:
 283 0050 00000000 		.word	g_reboot
 284              		.cfi_endproc
 285              	.LFE147:
 287              		.section	.text.prv_device_write,"ax",%progbits
 288              		.align	1
 289              		.syntax unified
 290              		.thumb
 291              		.thumb_func
 292              		.fpu fpv4-sp-d16
ARM GAS  c:\Users\lenovo\AppData\Local\Temp\ccEIXAak.s 			page 18


 294              	prv_device_write:
 295              	.LFB146:
 538:C:/Users/lenovo/Desktop/liteos/Project2/BearPi_LiteOS/components/connectivity/agent_tiny/atiny_lwm2m\object_device.c ****     int i;
 296              		.loc 1 538 0
 297              		.cfi_startproc
 298              		@ args = 0, pretend = 0, frame = 8
 299              		@ frame_needed = 0, uses_anonymous_args = 0
 300              	.LVL47:
 544:C:/Users/lenovo/Desktop/liteos/Project2/BearPi_LiteOS/components/connectivity/agent_tiny/atiny_lwm2m\object_device.c ****     {
 301              		.loc 1 544 0
 302 0000 0028     		cmp	r0, #0
 303 0002 44D1     		bne	.L53
 538:C:/Users/lenovo/Desktop/liteos/Project2/BearPi_LiteOS/components/connectivity/agent_tiny/atiny_lwm2m\object_device.c ****     int i;
 304              		.loc 1 538 0
 305 0004 2DE9F041 		push	{r4, r5, r6, r7, r8, lr}
 306              	.LCFI3:
 307              		.cfi_def_cfa_offset 24
 308              		.cfi_offset 4, -24
 309              		.cfi_offset 5, -20
 310              		.cfi_offset 6, -16
 311              		.cfi_offset 7, -12
 312              		.cfi_offset 8, -8
 313              		.cfi_offset 14, -4
 314 0008 82B0     		sub	sp, sp, #8
 315              	.LCFI4:
 316              		.cfi_def_cfa_offset 32
 317 000a 1546     		mov	r5, r2
 318 000c 0E46     		mov	r6, r1
 549:C:/Users/lenovo/Desktop/liteos/Project2/BearPi_LiteOS/components/connectivity/agent_tiny/atiny_lwm2m\object_device.c **** 
 319              		.loc 1 549 0
 320 000e 0024     		movs	r4, #0
 321 0010 0AE0     		b	.L52
 322              	.LVL48:
 323              	.L66:
 556:C:/Users/lenovo/Desktop/liteos/Project2/BearPi_LiteOS/components/connectivity/agent_tiny/atiny_lwm2m\object_device.c ****             {
 324              		.loc 1 556 0
 325 0012 6946     		mov	r1, sp
 326 0014 FFF7FEFF 		bl	lwm2m_data_decode_int
 327              	.LVL49:
 328 0018 0128     		cmp	r0, #1
 329 001a 10D0     		beq	.L65
 570:C:/Users/lenovo/Desktop/liteos/Project2/BearPi_LiteOS/components/connectivity/agent_tiny/atiny_lwm2m\object_device.c ****             }
 330              		.loc 1 570 0
 331 001c 8020     		movs	r0, #128
 332              	.L48:
 333              	.LVL50:
 609:C:/Users/lenovo/Desktop/liteos/Project2/BearPi_LiteOS/components/connectivity/agent_tiny/atiny_lwm2m\object_device.c ****     }
 334              		.loc 1 609 0
 335 001e 0134     		adds	r4, r4, #1
 336              	.LVL51:
 611:C:/Users/lenovo/Desktop/liteos/Project2/BearPi_LiteOS/components/connectivity/agent_tiny/atiny_lwm2m\object_device.c **** 
 337              		.loc 1 611 0
 338 0020 B442     		cmp	r4, r6
 339 0022 31DA     		bge	.L47
 611:C:/Users/lenovo/Desktop/liteos/Project2/BearPi_LiteOS/components/connectivity/agent_tiny/atiny_lwm2m\object_device.c **** 
 340              		.loc 1 611 0 is_stmt 0 discriminator 1
 341 0024 4428     		cmp	r0, #68
ARM GAS  c:\Users\lenovo\AppData\Local\Temp\ccEIXAak.s 			page 19


 342 0026 2FD1     		bne	.L47
 343              	.LVL52:
 344              	.L52:
 553:C:/Users/lenovo/Desktop/liteos/Project2/BearPi_LiteOS/components/connectivity/agent_tiny/atiny_lwm2m\object_device.c ****         {
 345              		.loc 1 553 0 is_stmt 1
 346 0028 05EB0410 		add	r0, r5, r4, lsl #4
 347 002c 4388     		ldrh	r3, [r0, #2]
 348 002e 0E2B     		cmp	r3, #14
 349 0030 0ED0     		beq	.L49
 350 0032 0F2B     		cmp	r3, #15
 351 0034 20D0     		beq	.L50
 352 0036 0D2B     		cmp	r3, #13
 353 0038 EBD0     		beq	.L66
 606:C:/Users/lenovo/Desktop/liteos/Project2/BearPi_LiteOS/components/connectivity/agent_tiny/atiny_lwm2m\object_device.c ****         }
 354              		.loc 1 606 0
 355 003a 8520     		movs	r0, #133
 356 003c EFE7     		b	.L48
 357              	.L65:
 558:C:/Users/lenovo/Desktop/liteos/Project2/BearPi_LiteOS/components/connectivity/agent_tiny/atiny_lwm2m\object_device.c ****                 if(result == ATINY_OK)
 358              		.loc 1 558 0
 359 003e 0822     		movs	r2, #8
 360 0040 6946     		mov	r1, sp
 361 0042 0E20     		movs	r0, #14
 362 0044 FFF7FEFF 		bl	atiny_cmd_ioctl
 363              	.LVL53:
 364 0048 C0B2     		uxtb	r0, r0
 365              	.LVL54:
 559:C:/Users/lenovo/Desktop/liteos/Project2/BearPi_LiteOS/components/connectivity/agent_tiny/atiny_lwm2m\object_device.c ****                 {
 366              		.loc 1 559 0
 367 004a 10BB     		cbnz	r0, .L56
 561:C:/Users/lenovo/Desktop/liteos/Project2/BearPi_LiteOS/components/connectivity/agent_tiny/atiny_lwm2m\object_device.c ****                 }
 368              		.loc 1 561 0
 369 004c 4420     		movs	r0, #68
 370              	.LVL55:
 371 004e 1BE0     		b	.L47
 372              	.L49:
 575:C:/Users/lenovo/Desktop/liteos/Project2/BearPi_LiteOS/components/connectivity/agent_tiny/atiny_lwm2m\object_device.c ****             {
 373              		.loc 1 575 0
 374 0050 C768     		ldr	r7, [r0, #12]
 375 0052 D0F80880 		ldr	r8, [r0, #8]
 376 0056 4146     		mov	r1, r8
 377 0058 3846     		mov	r0, r7
 378 005a FFF7FEFF 		bl	prv_check_time_offset
 379              	.LVL56:
 380 005e 0128     		cmp	r0, #1
 381 0060 01D0     		beq	.L67
 589:C:/Users/lenovo/Desktop/liteos/Project2/BearPi_LiteOS/components/connectivity/agent_tiny/atiny_lwm2m\object_device.c ****             }
 382              		.loc 1 589 0
 383 0062 8020     		movs	r0, #128
 384 0064 DBE7     		b	.L48
 385              	.L67:
 577:C:/Users/lenovo/Desktop/liteos/Project2/BearPi_LiteOS/components/connectivity/agent_tiny/atiny_lwm2m\object_device.c ****                 if(result == ATINY_OK)
 386              		.loc 1 577 0
 387 0066 4246     		mov	r2, r8
 388 0068 3946     		mov	r1, r7
 389 006a 1020     		movs	r0, #16
 390 006c FFF7FEFF 		bl	atiny_cmd_ioctl
ARM GAS  c:\Users\lenovo\AppData\Local\Temp\ccEIXAak.s 			page 20


 391              	.LVL57:
 392 0070 C0B2     		uxtb	r0, r0
 393              	.LVL58:
 578:C:/Users/lenovo/Desktop/liteos/Project2/BearPi_LiteOS/components/connectivity/agent_tiny/atiny_lwm2m\object_device.c ****                 {
 394              		.loc 1 578 0
 395 0072 80B9     		cbnz	r0, .L58
 580:C:/Users/lenovo/Desktop/liteos/Project2/BearPi_LiteOS/components/connectivity/agent_tiny/atiny_lwm2m\object_device.c ****                 }
 396              		.loc 1 580 0
 397 0074 4420     		movs	r0, #68
 398              	.LVL59:
 399 0076 07E0     		b	.L47
 400              	.L50:
 594:C:/Users/lenovo/Desktop/liteos/Project2/BearPi_LiteOS/components/connectivity/agent_tiny/atiny_lwm2m\object_device.c ****             if(result == ATINY_OK)
 401              		.loc 1 594 0
 402 0078 8268     		ldr	r2, [r0, #8]
 403 007a C168     		ldr	r1, [r0, #12]
 404 007c 1220     		movs	r0, #18
 405 007e FFF7FEFF 		bl	atiny_cmd_ioctl
 406              	.LVL60:
 407 0082 C0B2     		uxtb	r0, r0
 408              	.LVL61:
 595:C:/Users/lenovo/Desktop/liteos/Project2/BearPi_LiteOS/components/connectivity/agent_tiny/atiny_lwm2m\object_device.c ****             {
 409              		.loc 1 595 0
 410 0084 48B9     		cbnz	r0, .L59
 597:C:/Users/lenovo/Desktop/liteos/Project2/BearPi_LiteOS/components/connectivity/agent_tiny/atiny_lwm2m\object_device.c ****             }
 411              		.loc 1 597 0
 412 0086 4420     		movs	r0, #68
 413              	.LVL62:
 414              	.L47:
 614:C:/Users/lenovo/Desktop/liteos/Project2/BearPi_LiteOS/components/connectivity/agent_tiny/atiny_lwm2m\object_device.c **** 
 415              		.loc 1 614 0
 416 0088 02B0     		add	sp, sp, #8
 417              	.LCFI5:
 418              		.cfi_def_cfa_offset 24
 419              		@ sp needed
 420 008a BDE8F081 		pop	{r4, r5, r6, r7, r8, pc}
 421              	.LVL63:
 422              	.L53:
 423              	.LCFI6:
 424              		.cfi_def_cfa_offset 0
 425              		.cfi_restore 4
 426              		.cfi_restore 5
 427              		.cfi_restore 6
 428              		.cfi_restore 7
 429              		.cfi_restore 8
 430              		.cfi_restore 14
 546:C:/Users/lenovo/Desktop/liteos/Project2/BearPi_LiteOS/components/connectivity/agent_tiny/atiny_lwm2m\object_device.c ****     }
 431              		.loc 1 546 0
 432 008e 8420     		movs	r0, #132
 433              	.LVL64:
 614:C:/Users/lenovo/Desktop/liteos/Project2/BearPi_LiteOS/components/connectivity/agent_tiny/atiny_lwm2m\object_device.c **** 
 434              		.loc 1 614 0
 435 0090 7047     		bx	lr
 436              	.LVL65:
 437              	.L56:
 438              	.LCFI7:
 439              		.cfi_def_cfa_offset 32
ARM GAS  c:\Users\lenovo\AppData\Local\Temp\ccEIXAak.s 			page 21


 440              		.cfi_offset 4, -24
 441              		.cfi_offset 5, -20
 442              		.cfi_offset 6, -16
 443              		.cfi_offset 7, -12
 444              		.cfi_offset 8, -8
 445              		.cfi_offset 14, -4
 565:C:/Users/lenovo/Desktop/liteos/Project2/BearPi_LiteOS/components/connectivity/agent_tiny/atiny_lwm2m\object_device.c ****                 }
 446              		.loc 1 565 0
 447 0092 8020     		movs	r0, #128
 448              	.LVL66:
 449 0094 F8E7     		b	.L47
 450              	.LVL67:
 451              	.L58:
 584:C:/Users/lenovo/Desktop/liteos/Project2/BearPi_LiteOS/components/connectivity/agent_tiny/atiny_lwm2m\object_device.c ****                 }
 452              		.loc 1 584 0
 453 0096 8020     		movs	r0, #128
 454              	.LVL68:
 455 0098 F6E7     		b	.L47
 456              	.LVL69:
 457              	.L59:
 601:C:/Users/lenovo/Desktop/liteos/Project2/BearPi_LiteOS/components/connectivity/agent_tiny/atiny_lwm2m\object_device.c ****             }
 458              		.loc 1 601 0
 459 009a 8020     		movs	r0, #128
 460              	.LVL70:
 461 009c F4E7     		b	.L47
 462              		.cfi_endproc
 463              	.LFE146:
 465              		.section	.text.prv_device_discover,"ax",%progbits
 466              		.align	1
 467              		.syntax unified
 468              		.thumb
 469              		.thumb_func
 470              		.fpu fpv4-sp-d16
 472              	prv_device_discover:
 473              	.LFB145:
 456:C:/Users/lenovo/Desktop/liteos/Project2/BearPi_LiteOS/components/connectivity/agent_tiny/atiny_lwm2m\object_device.c ****     uint8_t result;
 474              		.loc 1 456 0
 475              		.cfi_startproc
 476              		@ args = 0, pretend = 0, frame = 40
 477              		@ frame_needed = 0, uses_anonymous_args = 0
 478              	.LVL71:
 461:C:/Users/lenovo/Desktop/liteos/Project2/BearPi_LiteOS/components/connectivity/agent_tiny/atiny_lwm2m\object_device.c ****     {
 479              		.loc 1 461 0
 480 0000 0028     		cmp	r0, #0
 481 0002 39D1     		bne	.L77
 456:C:/Users/lenovo/Desktop/liteos/Project2/BearPi_LiteOS/components/connectivity/agent_tiny/atiny_lwm2m\object_device.c ****     uint8_t result;
 482              		.loc 1 456 0
 483 0004 2DE9F041 		push	{r4, r5, r6, r7, r8, lr}
 484              	.LCFI8:
 485              		.cfi_def_cfa_offset 24
 486              		.cfi_offset 4, -24
 487              		.cfi_offset 5, -20
 488              		.cfi_offset 6, -16
 489              		.cfi_offset 7, -12
 490              		.cfi_offset 8, -8
 491              		.cfi_offset 14, -4
 492 0008 8AB0     		sub	sp, sp, #40
ARM GAS  c:\Users\lenovo\AppData\Local\Temp\ccEIXAak.s 			page 22


 493              	.LCFI9:
 494              		.cfi_def_cfa_offset 64
 495              	.LVL72:
 469:C:/Users/lenovo/Desktop/liteos/Project2/BearPi_LiteOS/components/connectivity/agent_tiny/atiny_lwm2m\object_device.c ****     {
 496              		.loc 1 469 0
 497 000a 0C68     		ldr	r4, [r1]
 498 000c 14B1     		cbz	r4, .L84
 503:C:/Users/lenovo/Desktop/liteos/Project2/BearPi_LiteOS/components/connectivity/agent_tiny/atiny_lwm2m\object_device.c ****         {
 499              		.loc 1 503 0
 500 000e 0023     		movs	r3, #0
 501              	.LVL73:
 466:C:/Users/lenovo/Desktop/liteos/Project2/BearPi_LiteOS/components/connectivity/agent_tiny/atiny_lwm2m\object_device.c **** 
 502              		.loc 1 466 0
 503 0010 4520     		movs	r0, #69
 504              	.LVL74:
 505 0012 25E0     		b	.L70
 506              	.LVL75:
 507              	.L84:
 508 0014 1546     		mov	r5, r2
 509 0016 8846     		mov	r8, r1
 510              	.LBB2:
 471:C:/Users/lenovo/Desktop/liteos/Project2/BearPi_LiteOS/components/connectivity/agent_tiny/atiny_lwm2m\object_device.c ****         {
 511              		.loc 1 471 0
 512 0018 01AE     		add	r6, sp, #4
 513 001a 184F     		ldr	r7, .L86
 514 001c 0FCF     		ldmia	r7!, {r0, r1, r2, r3}
 515              	.LVL76:
 516 001e 0FC6     		stmia	r6!, {r0, r1, r2, r3}
 517 0020 0FCF     		ldmia	r7!, {r0, r1, r2, r3}
 518 0022 0FC6     		stmia	r6!, {r0, r1, r2, r3}
 519 0024 3B68     		ldr	r3, [r7]
 520 0026 3380     		strh	r3, [r6]	@ movhi
 521              	.LVL77:
 493:C:/Users/lenovo/Desktop/liteos/Project2/BearPi_LiteOS/components/connectivity/agent_tiny/atiny_lwm2m\object_device.c ****         if (*dataArrayP == NULL) return COAP_500_INTERNAL_SERVER_ERROR;
 522              		.loc 1 493 0
 523 0028 1120     		movs	r0, #17
 524 002a FFF7FEFF 		bl	lwm2m_data_new
 525              	.LVL78:
 526 002e 2860     		str	r0, [r5]
 494:C:/Users/lenovo/Desktop/liteos/Project2/BearPi_LiteOS/components/connectivity/agent_tiny/atiny_lwm2m\object_device.c ****         *numDataP = nbRes;
 527              		.loc 1 494 0
 528 0030 18B1     		cbz	r0, .L85
 495:C:/Users/lenovo/Desktop/liteos/Project2/BearPi_LiteOS/components/connectivity/agent_tiny/atiny_lwm2m\object_device.c ****         for (i = 0; i < nbRes; i++)
 529              		.loc 1 495 0
 530 0032 1123     		movs	r3, #17
 531 0034 C8F80030 		str	r3, [r8]
 532              	.LVL79:
 496:C:/Users/lenovo/Desktop/liteos/Project2/BearPi_LiteOS/components/connectivity/agent_tiny/atiny_lwm2m\object_device.c ****         {
 533              		.loc 1 496 0
 534 0038 0BE0     		b	.L72
 535              	.LVL80:
 536              	.L85:
 494:C:/Users/lenovo/Desktop/liteos/Project2/BearPi_LiteOS/components/connectivity/agent_tiny/atiny_lwm2m\object_device.c ****         *numDataP = nbRes;
 537              		.loc 1 494 0 discriminator 1
 538 003a A020     		movs	r0, #160
 539 003c 0CE0     		b	.L69
 540              	.LVL81:
ARM GAS  c:\Users\lenovo\AppData\Local\Temp\ccEIXAak.s 			page 23


 541              	.L73:
 498:C:/Users/lenovo/Desktop/liteos/Project2/BearPi_LiteOS/components/connectivity/agent_tiny/atiny_lwm2m\object_device.c ****         }
 542              		.loc 1 498 0 discriminator 3
 543 003e 2B68     		ldr	r3, [r5]
 544 0040 03EB0413 		add	r3, r3, r4, lsl #4
 545 0044 0AAA     		add	r2, sp, #40
 546 0046 02EB4402 		add	r2, r2, r4, lsl #1
 547 004a 32F8242C 		ldrh	r2, [r2, #-36]
 548 004e 5A80     		strh	r2, [r3, #2]	@ movhi
 496:C:/Users/lenovo/Desktop/liteos/Project2/BearPi_LiteOS/components/connectivity/agent_tiny/atiny_lwm2m\object_device.c ****         {
 549              		.loc 1 496 0 discriminator 3
 550 0050 0134     		adds	r4, r4, #1
 551              	.LVL82:
 552              	.L72:
 496:C:/Users/lenovo/Desktop/liteos/Project2/BearPi_LiteOS/components/connectivity/agent_tiny/atiny_lwm2m\object_device.c ****         {
 553              		.loc 1 496 0 is_stmt 0 discriminator 1
 554 0052 102C     		cmp	r4, #16
 555 0054 F3DD     		ble	.L73
 556              	.LBE2:
 466:C:/Users/lenovo/Desktop/liteos/Project2/BearPi_LiteOS/components/connectivity/agent_tiny/atiny_lwm2m\object_device.c **** 
 557              		.loc 1 466 0 is_stmt 1
 558 0056 4520     		movs	r0, #69
 559              	.LVL83:
 560              	.L69:
 532:C:/Users/lenovo/Desktop/liteos/Project2/BearPi_LiteOS/components/connectivity/agent_tiny/atiny_lwm2m\object_device.c **** 
 561              		.loc 1 532 0
 562 0058 0AB0     		add	sp, sp, #40
 563              	.LCFI10:
 564              		.cfi_remember_state
 565              		.cfi_def_cfa_offset 24
 566              		@ sp needed
 567 005a BDE8F081 		pop	{r4, r5, r6, r7, r8, pc}
 568              	.LVL84:
 569              	.L74:
 570              	.LCFI11:
 571              		.cfi_restore_state
 503:C:/Users/lenovo/Desktop/liteos/Project2/BearPi_LiteOS/components/connectivity/agent_tiny/atiny_lwm2m\object_device.c ****         {
 572              		.loc 1 503 0 discriminator 2
 573 005e 0133     		adds	r3, r3, #1
 574              	.LVL85:
 575              	.L70:
 503:C:/Users/lenovo/Desktop/liteos/Project2/BearPi_LiteOS/components/connectivity/agent_tiny/atiny_lwm2m\object_device.c ****         {
 576              		.loc 1 503 0 is_stmt 0 discriminator 1
 577 0060 9C42     		cmp	r4, r3
 578 0062 F9DD     		ble	.L69
 503:C:/Users/lenovo/Desktop/liteos/Project2/BearPi_LiteOS/components/connectivity/agent_tiny/atiny_lwm2m\object_device.c ****         {
 579              		.loc 1 503 0 discriminator 3
 580 0064 4528     		cmp	r0, #69
 581 0066 F7D1     		bne	.L69
 505:C:/Users/lenovo/Desktop/liteos/Project2/BearPi_LiteOS/components/connectivity/agent_tiny/atiny_lwm2m\object_device.c ****             {
 582              		.loc 1 505 0 is_stmt 1
 583 0068 1168     		ldr	r1, [r2]
 584 006a 01EB0311 		add	r1, r1, r3, lsl #4
 585 006e 4988     		ldrh	r1, [r1, #2]
 586 0070 1029     		cmp	r1, #16
 587 0072 F4D9     		bls	.L74
 526:C:/Users/lenovo/Desktop/liteos/Project2/BearPi_LiteOS/components/connectivity/agent_tiny/atiny_lwm2m\object_device.c ****             }
ARM GAS  c:\Users\lenovo\AppData\Local\Temp\ccEIXAak.s 			page 24


 588              		.loc 1 526 0
 589 0074 8420     		movs	r0, #132
 590              	.LVL86:
 591 0076 F2E7     		b	.L74
 592              	.LVL87:
 593              	.L77:
 594              	.LCFI12:
 595              		.cfi_def_cfa_offset 0
 596              		.cfi_restore 4
 597              		.cfi_restore 5
 598              		.cfi_restore 6
 599              		.cfi_restore 7
 600              		.cfi_restore 8
 601              		.cfi_restore 14
 463:C:/Users/lenovo/Desktop/liteos/Project2/BearPi_LiteOS/components/connectivity/agent_tiny/atiny_lwm2m\object_device.c ****     }
 602              		.loc 1 463 0
 603 0078 8420     		movs	r0, #132
 604              	.LVL88:
 532:C:/Users/lenovo/Desktop/liteos/Project2/BearPi_LiteOS/components/connectivity/agent_tiny/atiny_lwm2m\object_device.c **** 
 605              		.loc 1 532 0
 606 007a 7047     		bx	lr
 607              	.L87:
 608              		.align	2
 609              	.L86:
 610 007c 00000000 		.word	.LANCHOR0
 611              		.cfi_endproc
 612              	.LFE145:
 614              		.section	.text.prv_set_value,"ax",%progbits
 615              		.align	1
 616              		.syntax unified
 617              		.thumb
 618              		.thumb_func
 619              		.fpu fpv4-sp-d16
 621              	prv_set_value:
 622              	.LFB143:
 165:C:/Users/lenovo/Desktop/liteos/Project2/BearPi_LiteOS/components/connectivity/agent_tiny/atiny_lwm2m\object_device.c ****     char str[MAX_STRING_LEN + 1] = {0};
 623              		.loc 1 165 0
 624              		.cfi_startproc
 625              		@ args = 0, pretend = 0, frame = 136
 626              		@ frame_needed = 0, uses_anonymous_args = 0
 627              	.LVL89:
 628 0000 30B5     		push	{r4, r5, lr}
 629              	.LCFI13:
 630              		.cfi_def_cfa_offset 12
 631              		.cfi_offset 4, -12
 632              		.cfi_offset 5, -8
 633              		.cfi_offset 14, -4
 634 0002 A3B0     		sub	sp, sp, #140
 635              	.LCFI14:
 636              		.cfi_def_cfa_offset 152
 637 0004 0446     		mov	r4, r0
 166:C:/Users/lenovo/Desktop/liteos/Project2/BearPi_LiteOS/components/connectivity/agent_tiny/atiny_lwm2m\object_device.c ****     int64_t current_time;
 638              		.loc 1 166 0
 639 0006 4122     		movs	r2, #65
 640 0008 0021     		movs	r1, #0
 641 000a 11A8     		add	r0, sp, #68
 642              	.LVL90:
ARM GAS  c:\Users\lenovo\AppData\Local\Temp\ccEIXAak.s 			page 25


 643 000c FFF7FEFF 		bl	memset
 644              	.LVL91:
 178:C:/Users/lenovo/Desktop/liteos/Project2/BearPi_LiteOS/components/connectivity/agent_tiny/atiny_lwm2m\object_device.c ****     {
 645              		.loc 1 178 0
 646 0010 6388     		ldrh	r3, [r4, #2]
 647 0012 102B     		cmp	r3, #16
 648 0014 00F22581 		bhi	.L110
 649 0018 DFE813F0 		tbh	[pc, r3, lsl #1]
 650              	.L91:
 651 001c 1400     		.2byte	(.L90-.L91)/2
 652 001e 2200     		.2byte	(.L92-.L91)/2
 653 0020 3000     		.2byte	(.L93-.L91)/2
 654 0022 3E00     		.2byte	(.L94-.L91)/2
 655 0024 1100     		.2byte	(.L95-.L91)/2
 656 0026 1100     		.2byte	(.L95-.L91)/2
 657 0028 4C00     		.2byte	(.L96-.L91)/2
 658 002a 6C00     		.2byte	(.L97-.L91)/2
 659 002c 8C00     		.2byte	(.L98-.L91)/2
 660 002e AC00     		.2byte	(.L99-.L91)/2
 661 0030 BB00     		.2byte	(.L100-.L91)/2
 662 0032 CB00     		.2byte	(.L101-.L91)/2
 663 0034 1100     		.2byte	(.L95-.L91)/2
 664 0036 EA00     		.2byte	(.L102-.L91)/2
 665 0038 F900     		.2byte	(.L103-.L91)/2
 666 003a 0701     		.2byte	(.L104-.L91)/2
 667 003c 1501     		.2byte	(.L105-.L91)/2
 668              		.p2align 1
 669              	.L95:
 229:C:/Users/lenovo/Desktop/liteos/Project2/BearPi_LiteOS/components/connectivity/agent_tiny/atiny_lwm2m\object_device.c **** 
 670              		.loc 1 229 0
 671 003e 8520     		movs	r0, #133
 672              	.L89:
 390:C:/Users/lenovo/Desktop/liteos/Project2/BearPi_LiteOS/components/connectivity/agent_tiny/atiny_lwm2m\object_device.c **** 
 673              		.loc 1 390 0
 674 0040 23B0     		add	sp, sp, #140
 675              	.LCFI15:
 676              		.cfi_remember_state
 677              		.cfi_def_cfa_offset 12
 678              		@ sp needed
 679 0042 30BD     		pop	{r4, r5, pc}
 680              	.LVL92:
 681              	.L90:
 682              	.LCFI16:
 683              		.cfi_restore_state
 181:C:/Users/lenovo/Desktop/liteos/Project2/BearPi_LiteOS/components/connectivity/agent_tiny/atiny_lwm2m\object_device.c ****         if(result == ATINY_OK)
 684              		.loc 1 181 0
 685 0044 4022     		movs	r2, #64
 686 0046 11A9     		add	r1, sp, #68
 687 0048 0020     		movs	r0, #0
 688 004a FFF7FEFF 		bl	atiny_cmd_ioctl
 689              	.LVL93:
 182:C:/Users/lenovo/Desktop/liteos/Project2/BearPi_LiteOS/components/connectivity/agent_tiny/atiny_lwm2m\object_device.c ****         {
 690              		.loc 1 182 0
 691 004e 08B1     		cbz	r0, .L126
 189:C:/Users/lenovo/Desktop/liteos/Project2/BearPi_LiteOS/components/connectivity/agent_tiny/atiny_lwm2m\object_device.c ****         }
 692              		.loc 1 189 0
 693 0050 8020     		movs	r0, #128
ARM GAS  c:\Users\lenovo\AppData\Local\Temp\ccEIXAak.s 			page 26


 694              	.LVL94:
 695 0052 F5E7     		b	.L89
 696              	.LVL95:
 697              	.L126:
 184:C:/Users/lenovo/Desktop/liteos/Project2/BearPi_LiteOS/components/connectivity/agent_tiny/atiny_lwm2m\object_device.c ****             return COAP_205_CONTENT;
 698              		.loc 1 184 0
 699 0054 2146     		mov	r1, r4
 700 0056 11A8     		add	r0, sp, #68
 701              	.LVL96:
 702 0058 FFF7FEFF 		bl	lwm2m_data_encode_string
 703              	.LVL97:
 185:C:/Users/lenovo/Desktop/liteos/Project2/BearPi_LiteOS/components/connectivity/agent_tiny/atiny_lwm2m\object_device.c ****         }
 704              		.loc 1 185 0
 705 005c 4520     		movs	r0, #69
 706 005e EFE7     		b	.L89
 707              	.L92:
 193:C:/Users/lenovo/Desktop/liteos/Project2/BearPi_LiteOS/components/connectivity/agent_tiny/atiny_lwm2m\object_device.c ****         if(result == ATINY_OK)
 708              		.loc 1 193 0
 709 0060 4022     		movs	r2, #64
 710 0062 11A9     		add	r1, sp, #68
 711 0064 0120     		movs	r0, #1
 712 0066 FFF7FEFF 		bl	atiny_cmd_ioctl
 713              	.LVL98:
 194:C:/Users/lenovo/Desktop/liteos/Project2/BearPi_LiteOS/components/connectivity/agent_tiny/atiny_lwm2m\object_device.c ****         {
 714              		.loc 1 194 0
 715 006a 08B1     		cbz	r0, .L127
 201:C:/Users/lenovo/Desktop/liteos/Project2/BearPi_LiteOS/components/connectivity/agent_tiny/atiny_lwm2m\object_device.c ****         }
 716              		.loc 1 201 0
 717 006c 8020     		movs	r0, #128
 718              	.LVL99:
 719 006e E7E7     		b	.L89
 720              	.LVL100:
 721              	.L127:
 196:C:/Users/lenovo/Desktop/liteos/Project2/BearPi_LiteOS/components/connectivity/agent_tiny/atiny_lwm2m\object_device.c ****             return COAP_205_CONTENT;
 722              		.loc 1 196 0
 723 0070 2146     		mov	r1, r4
 724 0072 11A8     		add	r0, sp, #68
 725              	.LVL101:
 726 0074 FFF7FEFF 		bl	lwm2m_data_encode_string
 727              	.LVL102:
 197:C:/Users/lenovo/Desktop/liteos/Project2/BearPi_LiteOS/components/connectivity/agent_tiny/atiny_lwm2m\object_device.c ****         }
 728              		.loc 1 197 0
 729 0078 4520     		movs	r0, #69
 730 007a E1E7     		b	.L89
 731              	.L93:
 205:C:/Users/lenovo/Desktop/liteos/Project2/BearPi_LiteOS/components/connectivity/agent_tiny/atiny_lwm2m\object_device.c ****         if(result == ATINY_OK)
 732              		.loc 1 205 0
 733 007c 4022     		movs	r2, #64
 734 007e 11A9     		add	r1, sp, #68
 735 0080 0220     		movs	r0, #2
 736 0082 FFF7FEFF 		bl	atiny_cmd_ioctl
 737              	.LVL103:
 206:C:/Users/lenovo/Desktop/liteos/Project2/BearPi_LiteOS/components/connectivity/agent_tiny/atiny_lwm2m\object_device.c ****         {
 738              		.loc 1 206 0
 739 0086 08B1     		cbz	r0, .L128
 213:C:/Users/lenovo/Desktop/liteos/Project2/BearPi_LiteOS/components/connectivity/agent_tiny/atiny_lwm2m\object_device.c ****         }
 740              		.loc 1 213 0
ARM GAS  c:\Users\lenovo\AppData\Local\Temp\ccEIXAak.s 			page 27


 741 0088 8020     		movs	r0, #128
 742              	.LVL104:
 743 008a D9E7     		b	.L89
 744              	.LVL105:
 745              	.L128:
 208:C:/Users/lenovo/Desktop/liteos/Project2/BearPi_LiteOS/components/connectivity/agent_tiny/atiny_lwm2m\object_device.c ****             return COAP_205_CONTENT;
 746              		.loc 1 208 0
 747 008c 2146     		mov	r1, r4
 748 008e 11A8     		add	r0, sp, #68
 749              	.LVL106:
 750 0090 FFF7FEFF 		bl	lwm2m_data_encode_string
 751              	.LVL107:
 209:C:/Users/lenovo/Desktop/liteos/Project2/BearPi_LiteOS/components/connectivity/agent_tiny/atiny_lwm2m\object_device.c ****         }
 752              		.loc 1 209 0
 753 0094 4520     		movs	r0, #69
 754 0096 D3E7     		b	.L89
 755              	.L94:
 217:C:/Users/lenovo/Desktop/liteos/Project2/BearPi_LiteOS/components/connectivity/agent_tiny/atiny_lwm2m\object_device.c ****         if(result == ATINY_OK)
 756              		.loc 1 217 0
 757 0098 4022     		movs	r2, #64
 758 009a 11A9     		add	r1, sp, #68
 759 009c 0320     		movs	r0, #3
 760 009e FFF7FEFF 		bl	atiny_cmd_ioctl
 761              	.LVL108:
 218:C:/Users/lenovo/Desktop/liteos/Project2/BearPi_LiteOS/components/connectivity/agent_tiny/atiny_lwm2m\object_device.c ****         {
 762              		.loc 1 218 0
 763 00a2 08B1     		cbz	r0, .L129
 225:C:/Users/lenovo/Desktop/liteos/Project2/BearPi_LiteOS/components/connectivity/agent_tiny/atiny_lwm2m\object_device.c ****         }
 764              		.loc 1 225 0
 765 00a4 8020     		movs	r0, #128
 766              	.LVL109:
 767 00a6 CBE7     		b	.L89
 768              	.LVL110:
 769              	.L129:
 220:C:/Users/lenovo/Desktop/liteos/Project2/BearPi_LiteOS/components/connectivity/agent_tiny/atiny_lwm2m\object_device.c ****             return COAP_205_CONTENT;
 770              		.loc 1 220 0
 771 00a8 2146     		mov	r1, r4
 772 00aa 11A8     		add	r0, sp, #68
 773              	.LVL111:
 774 00ac FFF7FEFF 		bl	lwm2m_data_encode_string
 775              	.LVL112:
 221:C:/Users/lenovo/Desktop/liteos/Project2/BearPi_LiteOS/components/connectivity/agent_tiny/atiny_lwm2m\object_device.c ****         }
 776              		.loc 1 221 0
 777 00b0 4520     		movs	r0, #69
 778 00b2 C5E7     		b	.L89
 779              	.L96:
 236:C:/Users/lenovo/Desktop/liteos/Project2/BearPi_LiteOS/components/connectivity/agent_tiny/atiny_lwm2m\object_device.c ****         if (subTlvP == NULL) return COAP_500_INTERNAL_SERVER_ERROR;
 780              		.loc 1 236 0
 781 00b4 0120     		movs	r0, #1
 782 00b6 FFF7FEFF 		bl	lwm2m_data_new
 783              	.LVL113:
 237:C:/Users/lenovo/Desktop/liteos/Project2/BearPi_LiteOS/components/connectivity/agent_tiny/atiny_lwm2m\object_device.c ****         subTlvP[0].id = 0;
 784              		.loc 1 237 0
 785 00ba 0546     		mov	r5, r0
 786 00bc 0028     		cmp	r0, #0
 787 00be 00F0D280 		beq	.L115
 238:C:/Users/lenovo/Desktop/liteos/Project2/BearPi_LiteOS/components/connectivity/agent_tiny/atiny_lwm2m\object_device.c ****         result = atiny_cmd_ioctl(ATINY_GET_POWER_SOURCE, (char *)&power, sizeof(int));
ARM GAS  c:\Users\lenovo\AppData\Local\Temp\ccEIXAak.s 			page 28


 788              		.loc 1 238 0
 789 00c2 0023     		movs	r3, #0
 790 00c4 4380     		strh	r3, [r0, #2]	@ movhi
 239:C:/Users/lenovo/Desktop/liteos/Project2/BearPi_LiteOS/components/connectivity/agent_tiny/atiny_lwm2m\object_device.c ****         if(result == ATINY_OK)
 791              		.loc 1 239 0
 792 00c6 0422     		movs	r2, #4
 793 00c8 04A9     		add	r1, sp, #16
 794 00ca 0620     		movs	r0, #6
 795              	.LVL114:
 796 00cc FFF7FEFF 		bl	atiny_cmd_ioctl
 797              	.LVL115:
 240:C:/Users/lenovo/Desktop/liteos/Project2/BearPi_LiteOS/components/connectivity/agent_tiny/atiny_lwm2m\object_device.c ****         {
 798              		.loc 1 240 0
 799 00d0 58B9     		cbnz	r0, .L106
 242:C:/Users/lenovo/Desktop/liteos/Project2/BearPi_LiteOS/components/connectivity/agent_tiny/atiny_lwm2m\object_device.c ****             lwm2m_data_encode_instances(subTlvP, 1, dataP);
 800              		.loc 1 242 0
 801 00d2 2A46     		mov	r2, r5
 802 00d4 0498     		ldr	r0, [sp, #16]
 803              	.LVL116:
 804 00d6 C117     		asrs	r1, r0, #31
 805 00d8 FFF7FEFF 		bl	lwm2m_data_encode_int
 806              	.LVL117:
 243:C:/Users/lenovo/Desktop/liteos/Project2/BearPi_LiteOS/components/connectivity/agent_tiny/atiny_lwm2m\object_device.c ****             return COAP_205_CONTENT;
 807              		.loc 1 243 0
 808 00dc 2246     		mov	r2, r4
 809 00de 0121     		movs	r1, #1
 810 00e0 2846     		mov	r0, r5
 811 00e2 FFF7FEFF 		bl	lwm2m_data_encode_instances
 812              	.LVL118:
 244:C:/Users/lenovo/Desktop/liteos/Project2/BearPi_LiteOS/components/connectivity/agent_tiny/atiny_lwm2m\object_device.c ****         }
 813              		.loc 1 244 0
 814 00e6 4520     		movs	r0, #69
 815 00e8 AAE7     		b	.L89
 816              	.LVL119:
 817              	.L106:
 248:C:/Users/lenovo/Desktop/liteos/Project2/BearPi_LiteOS/components/connectivity/agent_tiny/atiny_lwm2m\object_device.c ****             return COAP_400_BAD_REQUEST;
 818              		.loc 1 248 0
 819 00ea 2846     		mov	r0, r5
 820              	.LVL120:
 821 00ec FFF7FEFF 		bl	lwm2m_free
 822              	.LVL121:
 249:C:/Users/lenovo/Desktop/liteos/Project2/BearPi_LiteOS/components/connectivity/agent_tiny/atiny_lwm2m\object_device.c ****         }
 823              		.loc 1 249 0
 824 00f0 8020     		movs	r0, #128
 825 00f2 A5E7     		b	.L89
 826              	.LVL122:
 827              	.L97:
 255:C:/Users/lenovo/Desktop/liteos/Project2/BearPi_LiteOS/components/connectivity/agent_tiny/atiny_lwm2m\object_device.c ****         if (subTlvP == NULL) return COAP_500_INTERNAL_SERVER_ERROR;
 828              		.loc 1 255 0
 829 00f4 0120     		movs	r0, #1
 830 00f6 FFF7FEFF 		bl	lwm2m_data_new
 831              	.LVL123:
 256:C:/Users/lenovo/Desktop/liteos/Project2/BearPi_LiteOS/components/connectivity/agent_tiny/atiny_lwm2m\object_device.c ****         subTlvP[0].id = 0;
 832              		.loc 1 256 0
 833 00fa 0546     		mov	r5, r0
 834 00fc 0028     		cmp	r0, #0
 835 00fe 00F0B480 		beq	.L116
ARM GAS  c:\Users\lenovo\AppData\Local\Temp\ccEIXAak.s 			page 29


 257:C:/Users/lenovo/Desktop/liteos/Project2/BearPi_LiteOS/components/connectivity/agent_tiny/atiny_lwm2m\object_device.c ****         result = atiny_cmd_ioctl(ATINY_GET_SOURCE_VOLTAGE, (char *)&voltage, sizeof(int));
 836              		.loc 1 257 0
 837 0102 0023     		movs	r3, #0
 838 0104 4380     		strh	r3, [r0, #2]	@ movhi
 258:C:/Users/lenovo/Desktop/liteos/Project2/BearPi_LiteOS/components/connectivity/agent_tiny/atiny_lwm2m\object_device.c ****         if(result == ATINY_OK)
 839              		.loc 1 258 0
 840 0106 0422     		movs	r2, #4
 841 0108 03A9     		add	r1, sp, #12
 842 010a 0720     		movs	r0, #7
 843              	.LVL124:
 844 010c FFF7FEFF 		bl	atiny_cmd_ioctl
 845              	.LVL125:
 259:C:/Users/lenovo/Desktop/liteos/Project2/BearPi_LiteOS/components/connectivity/agent_tiny/atiny_lwm2m\object_device.c ****         {
 846              		.loc 1 259 0
 847 0110 58B9     		cbnz	r0, .L107
 261:C:/Users/lenovo/Desktop/liteos/Project2/BearPi_LiteOS/components/connectivity/agent_tiny/atiny_lwm2m\object_device.c ****             lwm2m_data_encode_instances(subTlvP, 1, dataP);
 848              		.loc 1 261 0
 849 0112 2A46     		mov	r2, r5
 850 0114 0398     		ldr	r0, [sp, #12]
 851              	.LVL126:
 852 0116 C117     		asrs	r1, r0, #31
 853 0118 FFF7FEFF 		bl	lwm2m_data_encode_int
 854              	.LVL127:
 262:C:/Users/lenovo/Desktop/liteos/Project2/BearPi_LiteOS/components/connectivity/agent_tiny/atiny_lwm2m\object_device.c ****             return COAP_205_CONTENT;
 855              		.loc 1 262 0
 856 011c 2246     		mov	r2, r4
 857 011e 0121     		movs	r1, #1
 858 0120 2846     		mov	r0, r5
 859 0122 FFF7FEFF 		bl	lwm2m_data_encode_instances
 860              	.LVL128:
 263:C:/Users/lenovo/Desktop/liteos/Project2/BearPi_LiteOS/components/connectivity/agent_tiny/atiny_lwm2m\object_device.c ****         }
 861              		.loc 1 263 0
 862 0126 4520     		movs	r0, #69
 863 0128 8AE7     		b	.L89
 864              	.LVL129:
 865              	.L107:
 267:C:/Users/lenovo/Desktop/liteos/Project2/BearPi_LiteOS/components/connectivity/agent_tiny/atiny_lwm2m\object_device.c ****             return COAP_400_BAD_REQUEST;
 866              		.loc 1 267 0
 867 012a 2846     		mov	r0, r5
 868              	.LVL130:
 869 012c FFF7FEFF 		bl	lwm2m_free
 870              	.LVL131:
 268:C:/Users/lenovo/Desktop/liteos/Project2/BearPi_LiteOS/components/connectivity/agent_tiny/atiny_lwm2m\object_device.c ****         }
 871              		.loc 1 268 0
 872 0130 8020     		movs	r0, #128
 873 0132 85E7     		b	.L89
 874              	.LVL132:
 875              	.L98:
 274:C:/Users/lenovo/Desktop/liteos/Project2/BearPi_LiteOS/components/connectivity/agent_tiny/atiny_lwm2m\object_device.c ****         if (subTlvP == NULL) return COAP_500_INTERNAL_SERVER_ERROR;
 876              		.loc 1 274 0
 877 0134 0120     		movs	r0, #1
 878 0136 FFF7FEFF 		bl	lwm2m_data_new
 879              	.LVL133:
 275:C:/Users/lenovo/Desktop/liteos/Project2/BearPi_LiteOS/components/connectivity/agent_tiny/atiny_lwm2m\object_device.c ****         subTlvP[0].id = 0;
 880              		.loc 1 275 0
 881 013a 0546     		mov	r5, r0
 882 013c 0028     		cmp	r0, #0
ARM GAS  c:\Users\lenovo\AppData\Local\Temp\ccEIXAak.s 			page 30


 883 013e 00F09680 		beq	.L117
 276:C:/Users/lenovo/Desktop/liteos/Project2/BearPi_LiteOS/components/connectivity/agent_tiny/atiny_lwm2m\object_device.c ****         result = atiny_cmd_ioctl(ATINY_GET_POWER_CURRENT, (char *)&power, sizeof(int));
 884              		.loc 1 276 0
 885 0142 0023     		movs	r3, #0
 886 0144 4380     		strh	r3, [r0, #2]	@ movhi
 277:C:/Users/lenovo/Desktop/liteos/Project2/BearPi_LiteOS/components/connectivity/agent_tiny/atiny_lwm2m\object_device.c ****         if(result == ATINY_OK)
 887              		.loc 1 277 0
 888 0146 0422     		movs	r2, #4
 889 0148 04A9     		add	r1, sp, #16
 890 014a 0820     		movs	r0, #8
 891              	.LVL134:
 892 014c FFF7FEFF 		bl	atiny_cmd_ioctl
 893              	.LVL135:
 278:C:/Users/lenovo/Desktop/liteos/Project2/BearPi_LiteOS/components/connectivity/agent_tiny/atiny_lwm2m\object_device.c ****         {
 894              		.loc 1 278 0
 895 0150 58B9     		cbnz	r0, .L108
 280:C:/Users/lenovo/Desktop/liteos/Project2/BearPi_LiteOS/components/connectivity/agent_tiny/atiny_lwm2m\object_device.c ****             lwm2m_data_encode_instances(subTlvP, 1, dataP);
 896              		.loc 1 280 0
 897 0152 2A46     		mov	r2, r5
 898 0154 0498     		ldr	r0, [sp, #16]
 899              	.LVL136:
 900 0156 C117     		asrs	r1, r0, #31
 901 0158 FFF7FEFF 		bl	lwm2m_data_encode_int
 902              	.LVL137:
 281:C:/Users/lenovo/Desktop/liteos/Project2/BearPi_LiteOS/components/connectivity/agent_tiny/atiny_lwm2m\object_device.c ****             return COAP_205_CONTENT;
 903              		.loc 1 281 0
 904 015c 2246     		mov	r2, r4
 905 015e 0121     		movs	r1, #1
 906 0160 2846     		mov	r0, r5
 907 0162 FFF7FEFF 		bl	lwm2m_data_encode_instances
 908              	.LVL138:
 282:C:/Users/lenovo/Desktop/liteos/Project2/BearPi_LiteOS/components/connectivity/agent_tiny/atiny_lwm2m\object_device.c ****         }
 909              		.loc 1 282 0
 910 0166 4520     		movs	r0, #69
 911 0168 6AE7     		b	.L89
 912              	.LVL139:
 913              	.L108:
 286:C:/Users/lenovo/Desktop/liteos/Project2/BearPi_LiteOS/components/connectivity/agent_tiny/atiny_lwm2m\object_device.c ****             return COAP_400_BAD_REQUEST;
 914              		.loc 1 286 0
 915 016a 2846     		mov	r0, r5
 916              	.LVL140:
 917 016c FFF7FEFF 		bl	lwm2m_free
 918              	.LVL141:
 287:C:/Users/lenovo/Desktop/liteos/Project2/BearPi_LiteOS/components/connectivity/agent_tiny/atiny_lwm2m\object_device.c ****         }
 919              		.loc 1 287 0
 920 0170 8020     		movs	r0, #128
 921 0172 65E7     		b	.L89
 922              	.LVL142:
 923              	.L99:
 293:C:/Users/lenovo/Desktop/liteos/Project2/BearPi_LiteOS/components/connectivity/agent_tiny/atiny_lwm2m\object_device.c ****         if(result == ATINY_OK)
 924              		.loc 1 293 0
 925 0174 0422     		movs	r2, #4
 926 0176 02A9     		add	r1, sp, #8
 927 0178 0920     		movs	r0, #9
 928 017a FFF7FEFF 		bl	atiny_cmd_ioctl
 929              	.LVL143:
 294:C:/Users/lenovo/Desktop/liteos/Project2/BearPi_LiteOS/components/connectivity/agent_tiny/atiny_lwm2m\object_device.c ****         {
ARM GAS  c:\Users\lenovo\AppData\Local\Temp\ccEIXAak.s 			page 31


 930              		.loc 1 294 0
 931 017e 08B1     		cbz	r0, .L130
 301:C:/Users/lenovo/Desktop/liteos/Project2/BearPi_LiteOS/components/connectivity/agent_tiny/atiny_lwm2m\object_device.c ****         }
 932              		.loc 1 301 0
 933 0180 8020     		movs	r0, #128
 934              	.LVL144:
 935 0182 5DE7     		b	.L89
 936              	.LVL145:
 937              	.L130:
 296:C:/Users/lenovo/Desktop/liteos/Project2/BearPi_LiteOS/components/connectivity/agent_tiny/atiny_lwm2m\object_device.c ****             return COAP_205_CONTENT;
 938              		.loc 1 296 0
 939 0184 2246     		mov	r2, r4
 940 0186 0298     		ldr	r0, [sp, #8]
 941              	.LVL146:
 942 0188 C117     		asrs	r1, r0, #31
 943 018a FFF7FEFF 		bl	lwm2m_data_encode_int
 944              	.LVL147:
 297:C:/Users/lenovo/Desktop/liteos/Project2/BearPi_LiteOS/components/connectivity/agent_tiny/atiny_lwm2m\object_device.c ****         }
 945              		.loc 1 297 0
 946 018e 4520     		movs	r0, #69
 947 0190 56E7     		b	.L89
 948              	.L100:
 307:C:/Users/lenovo/Desktop/liteos/Project2/BearPi_LiteOS/components/connectivity/agent_tiny/atiny_lwm2m\object_device.c ****         if(result == ATINY_OK)
 949              		.loc 1 307 0
 950 0192 0422     		movs	r2, #4
 951 0194 0DEB0201 		add	r1, sp, r2
 952 0198 0A20     		movs	r0, #10
 953 019a FFF7FEFF 		bl	atiny_cmd_ioctl
 954              	.LVL148:
 308:C:/Users/lenovo/Desktop/liteos/Project2/BearPi_LiteOS/components/connectivity/agent_tiny/atiny_lwm2m\object_device.c ****         {
 955              		.loc 1 308 0
 956 019e 08B1     		cbz	r0, .L131
 315:C:/Users/lenovo/Desktop/liteos/Project2/BearPi_LiteOS/components/connectivity/agent_tiny/atiny_lwm2m\object_device.c ****         }
 957              		.loc 1 315 0
 958 01a0 8020     		movs	r0, #128
 959              	.LVL149:
 960 01a2 4DE7     		b	.L89
 961              	.LVL150:
 962              	.L131:
 310:C:/Users/lenovo/Desktop/liteos/Project2/BearPi_LiteOS/components/connectivity/agent_tiny/atiny_lwm2m\object_device.c ****             return COAP_205_CONTENT;
 963              		.loc 1 310 0
 964 01a4 2246     		mov	r2, r4
 965 01a6 0198     		ldr	r0, [sp, #4]
 966              	.LVL151:
 967 01a8 C117     		asrs	r1, r0, #31
 968 01aa FFF7FEFF 		bl	lwm2m_data_encode_int
 969              	.LVL152:
 311:C:/Users/lenovo/Desktop/liteos/Project2/BearPi_LiteOS/components/connectivity/agent_tiny/atiny_lwm2m\object_device.c ****         }
 970              		.loc 1 311 0
 971 01ae 4520     		movs	r0, #69
 972 01b0 46E7     		b	.L89
 973              	.L101:
 321:C:/Users/lenovo/Desktop/liteos/Project2/BearPi_LiteOS/components/connectivity/agent_tiny/atiny_lwm2m\object_device.c ****         if (subTlvP == NULL) return COAP_500_INTERNAL_SERVER_ERROR;
 974              		.loc 1 321 0
 975 01b2 0120     		movs	r0, #1
 976 01b4 FFF7FEFF 		bl	lwm2m_data_new
 977              	.LVL153:
ARM GAS  c:\Users\lenovo\AppData\Local\Temp\ccEIXAak.s 			page 32


 322:C:/Users/lenovo/Desktop/liteos/Project2/BearPi_LiteOS/components/connectivity/agent_tiny/atiny_lwm2m\object_device.c ****         subTlvP[0].id = 0;
 978              		.loc 1 322 0
 979 01b8 0546     		mov	r5, r0
 980 01ba 0028     		cmp	r0, #0
 981 01bc 59D0     		beq	.L120
 323:C:/Users/lenovo/Desktop/liteos/Project2/BearPi_LiteOS/components/connectivity/agent_tiny/atiny_lwm2m\object_device.c ****         result = atiny_cmd_ioctl(ATINY_GET_DEV_ERR, (char *)&err, sizeof(int));
 982              		.loc 1 323 0
 983 01be 0023     		movs	r3, #0
 984 01c0 4380     		strh	r3, [r0, #2]	@ movhi
 324:C:/Users/lenovo/Desktop/liteos/Project2/BearPi_LiteOS/components/connectivity/agent_tiny/atiny_lwm2m\object_device.c ****         if(result == ATINY_OK)
 985              		.loc 1 324 0
 986 01c2 0422     		movs	r2, #4
 987 01c4 6946     		mov	r1, sp
 988 01c6 0B20     		movs	r0, #11
 989              	.LVL154:
 990 01c8 FFF7FEFF 		bl	atiny_cmd_ioctl
 991              	.LVL155:
 325:C:/Users/lenovo/Desktop/liteos/Project2/BearPi_LiteOS/components/connectivity/agent_tiny/atiny_lwm2m\object_device.c ****         {
 992              		.loc 1 325 0
 993 01cc 58B9     		cbnz	r0, .L109
 327:C:/Users/lenovo/Desktop/liteos/Project2/BearPi_LiteOS/components/connectivity/agent_tiny/atiny_lwm2m\object_device.c ****             lwm2m_data_encode_instances(subTlvP, 1, dataP);
 994              		.loc 1 327 0
 995 01ce 2A46     		mov	r2, r5
 996 01d0 0098     		ldr	r0, [sp]
 997              	.LVL156:
 998 01d2 C117     		asrs	r1, r0, #31
 999 01d4 FFF7FEFF 		bl	lwm2m_data_encode_int
 1000              	.LVL157:
 328:C:/Users/lenovo/Desktop/liteos/Project2/BearPi_LiteOS/components/connectivity/agent_tiny/atiny_lwm2m\object_device.c ****             return COAP_205_CONTENT;
 1001              		.loc 1 328 0
 1002 01d8 2246     		mov	r2, r4
 1003 01da 0121     		movs	r1, #1
 1004 01dc 2846     		mov	r0, r5
 1005 01de FFF7FEFF 		bl	lwm2m_data_encode_instances
 1006              	.LVL158:
 329:C:/Users/lenovo/Desktop/liteos/Project2/BearPi_LiteOS/components/connectivity/agent_tiny/atiny_lwm2m\object_device.c ****         }
 1007              		.loc 1 329 0
 1008 01e2 4520     		movs	r0, #69
 1009 01e4 2CE7     		b	.L89
 1010              	.LVL159:
 1011              	.L109:
 333:C:/Users/lenovo/Desktop/liteos/Project2/BearPi_LiteOS/components/connectivity/agent_tiny/atiny_lwm2m\object_device.c ****             return COAP_400_BAD_REQUEST;
 1012              		.loc 1 333 0
 1013 01e6 2846     		mov	r0, r5
 1014              	.LVL160:
 1015 01e8 FFF7FEFF 		bl	lwm2m_free
 1016              	.LVL161:
 334:C:/Users/lenovo/Desktop/liteos/Project2/BearPi_LiteOS/components/connectivity/agent_tiny/atiny_lwm2m\object_device.c ****         }
 1017              		.loc 1 334 0
 1018 01ec 8020     		movs	r0, #128
 1019 01ee 27E7     		b	.L89
 1020              	.LVL162:
 1021              	.L102:
 341:C:/Users/lenovo/Desktop/liteos/Project2/BearPi_LiteOS/components/connectivity/agent_tiny/atiny_lwm2m\object_device.c ****         if(result == ATINY_OK)
 1022              		.loc 1 341 0
 1023 01f0 0822     		movs	r2, #8
 1024 01f2 0EA9     		add	r1, sp, #56
ARM GAS  c:\Users\lenovo\AppData\Local\Temp\ccEIXAak.s 			page 33


 1025 01f4 0D20     		movs	r0, #13
 1026 01f6 FFF7FEFF 		bl	atiny_cmd_ioctl
 1027              	.LVL163:
 342:C:/Users/lenovo/Desktop/liteos/Project2/BearPi_LiteOS/components/connectivity/agent_tiny/atiny_lwm2m\object_device.c ****         {
 1028              		.loc 1 342 0
 1029 01fa 08B1     		cbz	r0, .L132
 349:C:/Users/lenovo/Desktop/liteos/Project2/BearPi_LiteOS/components/connectivity/agent_tiny/atiny_lwm2m\object_device.c ****         }
 1030              		.loc 1 349 0
 1031 01fc 8020     		movs	r0, #128
 1032              	.LVL164:
 1033 01fe 1FE7     		b	.L89
 1034              	.LVL165:
 1035              	.L132:
 344:C:/Users/lenovo/Desktop/liteos/Project2/BearPi_LiteOS/components/connectivity/agent_tiny/atiny_lwm2m\object_device.c ****             return COAP_205_CONTENT;
 1036              		.loc 1 344 0
 1037 0200 2246     		mov	r2, r4
 1038 0202 DDE90E01 		ldrd	r0, [sp, #56]
 1039              	.LVL166:
 1040 0206 FFF7FEFF 		bl	lwm2m_data_encode_int
 1041              	.LVL167:
 345:C:/Users/lenovo/Desktop/liteos/Project2/BearPi_LiteOS/components/connectivity/agent_tiny/atiny_lwm2m\object_device.c ****         }
 1042              		.loc 1 345 0
 1043 020a 4520     		movs	r0, #69
 1044 020c 18E7     		b	.L89
 1045              	.L103:
 353:C:/Users/lenovo/Desktop/liteos/Project2/BearPi_LiteOS/components/connectivity/agent_tiny/atiny_lwm2m\object_device.c ****         if(result == ATINY_OK)
 1046              		.loc 1 353 0
 1047 020e 0722     		movs	r2, #7
 1048 0210 0CA9     		add	r1, sp, #48
 1049 0212 0F20     		movs	r0, #15
 1050 0214 FFF7FEFF 		bl	atiny_cmd_ioctl
 1051              	.LVL168:
 354:C:/Users/lenovo/Desktop/liteos/Project2/BearPi_LiteOS/components/connectivity/agent_tiny/atiny_lwm2m\object_device.c ****         {
 1052              		.loc 1 354 0
 1053 0218 08B1     		cbz	r0, .L133
 361:C:/Users/lenovo/Desktop/liteos/Project2/BearPi_LiteOS/components/connectivity/agent_tiny/atiny_lwm2m\object_device.c ****         }
 1054              		.loc 1 361 0
 1055 021a 8020     		movs	r0, #128
 1056              	.LVL169:
 1057 021c 10E7     		b	.L89
 1058              	.LVL170:
 1059              	.L133:
 356:C:/Users/lenovo/Desktop/liteos/Project2/BearPi_LiteOS/components/connectivity/agent_tiny/atiny_lwm2m\object_device.c ****             return COAP_205_CONTENT;
 1060              		.loc 1 356 0
 1061 021e 2146     		mov	r1, r4
 1062 0220 0CA8     		add	r0, sp, #48
 1063              	.LVL171:
 1064 0222 FFF7FEFF 		bl	lwm2m_data_encode_string
 1065              	.LVL172:
 357:C:/Users/lenovo/Desktop/liteos/Project2/BearPi_LiteOS/components/connectivity/agent_tiny/atiny_lwm2m\object_device.c ****         }
 1066              		.loc 1 357 0
 1067 0226 4520     		movs	r0, #69
 1068 0228 0AE7     		b	.L89
 1069              	.L104:
 365:C:/Users/lenovo/Desktop/liteos/Project2/BearPi_LiteOS/components/connectivity/agent_tiny/atiny_lwm2m\object_device.c ****         if(result == ATINY_OK)
 1070              		.loc 1 365 0
 1071 022a 1922     		movs	r2, #25
ARM GAS  c:\Users\lenovo\AppData\Local\Temp\ccEIXAak.s 			page 34


 1072 022c 05A9     		add	r1, sp, #20
 1073 022e 1120     		movs	r0, #17
 1074 0230 FFF7FEFF 		bl	atiny_cmd_ioctl
 1075              	.LVL173:
 366:C:/Users/lenovo/Desktop/liteos/Project2/BearPi_LiteOS/components/connectivity/agent_tiny/atiny_lwm2m\object_device.c ****         {
 1076              		.loc 1 366 0
 1077 0234 08B1     		cbz	r0, .L134
 373:C:/Users/lenovo/Desktop/liteos/Project2/BearPi_LiteOS/components/connectivity/agent_tiny/atiny_lwm2m\object_device.c ****         }
 1078              		.loc 1 373 0
 1079 0236 8020     		movs	r0, #128
 1080              	.LVL174:
 1081 0238 02E7     		b	.L89
 1082              	.LVL175:
 1083              	.L134:
 368:C:/Users/lenovo/Desktop/liteos/Project2/BearPi_LiteOS/components/connectivity/agent_tiny/atiny_lwm2m\object_device.c ****             return COAP_205_CONTENT;
 1084              		.loc 1 368 0
 1085 023a 2146     		mov	r1, r4
 1086 023c 05A8     		add	r0, sp, #20
 1087              	.LVL176:
 1088 023e FFF7FEFF 		bl	lwm2m_data_encode_string
 1089              	.LVL177:
 369:C:/Users/lenovo/Desktop/liteos/Project2/BearPi_LiteOS/components/connectivity/agent_tiny/atiny_lwm2m\object_device.c ****         }
 1090              		.loc 1 369 0
 1091 0242 4520     		movs	r0, #69
 1092 0244 FCE6     		b	.L89
 1093              	.L105:
 377:C:/Users/lenovo/Desktop/liteos/Project2/BearPi_LiteOS/components/connectivity/agent_tiny/atiny_lwm2m\object_device.c ****         if(result == ATINY_OK)
 1094              		.loc 1 377 0
 1095 0246 4022     		movs	r2, #64
 1096 0248 11A9     		add	r1, sp, #68
 1097 024a 1320     		movs	r0, #19
 1098 024c FFF7FEFF 		bl	atiny_cmd_ioctl
 1099              	.LVL178:
 378:C:/Users/lenovo/Desktop/liteos/Project2/BearPi_LiteOS/components/connectivity/agent_tiny/atiny_lwm2m\object_device.c ****         {
 1100              		.loc 1 378 0
 1101 0250 08B1     		cbz	r0, .L135
 385:C:/Users/lenovo/Desktop/liteos/Project2/BearPi_LiteOS/components/connectivity/agent_tiny/atiny_lwm2m\object_device.c ****         }
 1102              		.loc 1 385 0
 1103 0252 8020     		movs	r0, #128
 1104              	.LVL179:
 1105 0254 F4E6     		b	.L89
 1106              	.LVL180:
 1107              	.L135:
 380:C:/Users/lenovo/Desktop/liteos/Project2/BearPi_LiteOS/components/connectivity/agent_tiny/atiny_lwm2m\object_device.c ****             return COAP_205_CONTENT;
 1108              		.loc 1 380 0
 1109 0256 2146     		mov	r1, r4
 1110 0258 11A8     		add	r0, sp, #68
 1111              	.LVL181:
 1112 025a FFF7FEFF 		bl	lwm2m_data_encode_string
 1113              	.LVL182:
 381:C:/Users/lenovo/Desktop/liteos/Project2/BearPi_LiteOS/components/connectivity/agent_tiny/atiny_lwm2m\object_device.c ****         }
 1114              		.loc 1 381 0
 1115 025e 4520     		movs	r0, #69
 1116 0260 EEE6     		b	.L89
 1117              	.L110:
 388:C:/Users/lenovo/Desktop/liteos/Project2/BearPi_LiteOS/components/connectivity/agent_tiny/atiny_lwm2m\object_device.c ****     }
 1118              		.loc 1 388 0
ARM GAS  c:\Users\lenovo\AppData\Local\Temp\ccEIXAak.s 			page 35


 1119 0262 8420     		movs	r0, #132
 1120 0264 ECE6     		b	.L89
 1121              	.LVL183:
 1122              	.L115:
 237:C:/Users/lenovo/Desktop/liteos/Project2/BearPi_LiteOS/components/connectivity/agent_tiny/atiny_lwm2m\object_device.c ****         subTlvP[0].id = 0;
 1123              		.loc 1 237 0
 1124 0266 A020     		movs	r0, #160
 1125              	.LVL184:
 1126 0268 EAE6     		b	.L89
 1127              	.LVL185:
 1128              	.L116:
 256:C:/Users/lenovo/Desktop/liteos/Project2/BearPi_LiteOS/components/connectivity/agent_tiny/atiny_lwm2m\object_device.c ****         subTlvP[0].id = 0;
 1129              		.loc 1 256 0
 1130 026a A020     		movs	r0, #160
 1131              	.LVL186:
 1132 026c E8E6     		b	.L89
 1133              	.LVL187:
 1134              	.L117:
 275:C:/Users/lenovo/Desktop/liteos/Project2/BearPi_LiteOS/components/connectivity/agent_tiny/atiny_lwm2m\object_device.c ****         subTlvP[0].id = 0;
 1135              		.loc 1 275 0
 1136 026e A020     		movs	r0, #160
 1137              	.LVL188:
 1138 0270 E6E6     		b	.L89
 1139              	.LVL189:
 1140              	.L120:
 322:C:/Users/lenovo/Desktop/liteos/Project2/BearPi_LiteOS/components/connectivity/agent_tiny/atiny_lwm2m\object_device.c ****         subTlvP[0].id = 0;
 1141              		.loc 1 322 0
 1142 0272 A020     		movs	r0, #160
 1143              	.LVL190:
 1144 0274 E4E6     		b	.L89
 1145              		.cfi_endproc
 1146              	.LFE143:
 1148              		.section	.text.prv_device_read,"ax",%progbits
 1149              		.align	1
 1150              		.syntax unified
 1151              		.thumb
 1152              		.thumb_func
 1153              		.fpu fpv4-sp-d16
 1155              	prv_device_read:
 1156              	.LFB144:
 397:C:/Users/lenovo/Desktop/liteos/Project2/BearPi_LiteOS/components/connectivity/agent_tiny/atiny_lwm2m\object_device.c ****     uint8_t result;
 1157              		.loc 1 397 0
 1158              		.cfi_startproc
 1159              		@ args = 4, pretend = 0, frame = 32
 1160              		@ frame_needed = 0, uses_anonymous_args = 0
 1161              	.LVL191:
 402:C:/Users/lenovo/Desktop/liteos/Project2/BearPi_LiteOS/components/connectivity/agent_tiny/atiny_lwm2m\object_device.c ****     {
 1162              		.loc 1 402 0
 1163 0000 0028     		cmp	r0, #0
 1164 0002 34D1     		bne	.L143
 397:C:/Users/lenovo/Desktop/liteos/Project2/BearPi_LiteOS/components/connectivity/agent_tiny/atiny_lwm2m\object_device.c ****     uint8_t result;
 1165              		.loc 1 397 0
 1166 0004 F0B5     		push	{r4, r5, r6, r7, lr}
 1167              	.LCFI17:
 1168              		.cfi_def_cfa_offset 20
 1169              		.cfi_offset 4, -20
 1170              		.cfi_offset 5, -16
ARM GAS  c:\Users\lenovo\AppData\Local\Temp\ccEIXAak.s 			page 36


 1171              		.cfi_offset 6, -12
 1172              		.cfi_offset 7, -8
 1173              		.cfi_offset 14, -4
 1174 0006 89B0     		sub	sp, sp, #36
 1175              	.LCFI18:
 1176              		.cfi_def_cfa_offset 56
 1177 0008 1546     		mov	r5, r2
 1178 000a 0E46     		mov	r6, r1
 408:C:/Users/lenovo/Desktop/liteos/Project2/BearPi_LiteOS/components/connectivity/agent_tiny/atiny_lwm2m\object_device.c ****     {
 1179              		.loc 1 408 0
 1180 000c 0C68     		ldr	r4, [r1]
 1181 000e 6CB1     		cbz	r4, .L148
 1182              	.LVL192:
 1183              	.L138:
 397:C:/Users/lenovo/Desktop/liteos/Project2/BearPi_LiteOS/components/connectivity/agent_tiny/atiny_lwm2m\object_device.c ****     uint8_t result;
 1184              		.loc 1 397 0 discriminator 2
 1185 0010 0024     		movs	r4, #0
 1186              	.L142:
 1187              	.LVL193:
 444:C:/Users/lenovo/Desktop/liteos/Project2/BearPi_LiteOS/components/connectivity/agent_tiny/atiny_lwm2m\object_device.c ****         i++;
 1188              		.loc 1 444 0 discriminator 2
 1189 0012 2868     		ldr	r0, [r5]
 1190 0014 00EB0410 		add	r0, r0, r4, lsl #4
 1191 0018 FFF7FEFF 		bl	prv_set_value
 1192              	.LVL194:
 445:C:/Users/lenovo/Desktop/liteos/Project2/BearPi_LiteOS/components/connectivity/agent_tiny/atiny_lwm2m\object_device.c ****     }
 1193              		.loc 1 445 0 discriminator 2
 1194 001c 0134     		adds	r4, r4, #1
 1195              	.LVL195:
 447:C:/Users/lenovo/Desktop/liteos/Project2/BearPi_LiteOS/components/connectivity/agent_tiny/atiny_lwm2m\object_device.c **** 
 1196              		.loc 1 447 0 discriminator 2
 1197 001e 3368     		ldr	r3, [r6]
 1198 0020 A342     		cmp	r3, r4
 1199 0022 01DD     		ble	.L137
 447:C:/Users/lenovo/Desktop/liteos/Project2/BearPi_LiteOS/components/connectivity/agent_tiny/atiny_lwm2m\object_device.c **** 
 1200              		.loc 1 447 0 is_stmt 0 discriminator 1
 1201 0024 4528     		cmp	r0, #69
 1202 0026 F4D0     		beq	.L142
 1203              	.LVL196:
 1204              	.L137:
 450:C:/Users/lenovo/Desktop/liteos/Project2/BearPi_LiteOS/components/connectivity/agent_tiny/atiny_lwm2m\object_device.c **** 
 1205              		.loc 1 450 0 is_stmt 1
 1206 0028 09B0     		add	sp, sp, #36
 1207              	.LCFI19:
 1208              		.cfi_remember_state
 1209              		.cfi_def_cfa_offset 20
 1210              		@ sp needed
 1211 002a F0BD     		pop	{r4, r5, r6, r7, pc}
 1212              	.LVL197:
 1213              	.L148:
 1214              	.LCFI20:
 1215              		.cfi_restore_state
 1216              	.LBB3:
 410:C:/Users/lenovo/Desktop/liteos/Project2/BearPi_LiteOS/components/connectivity/agent_tiny/atiny_lwm2m\object_device.c ****         {
 1217              		.loc 1 410 0
 1218 002c 01AF     		add	r7, sp, #4
 1219 002e DFF844C0 		ldr	ip, .L150
ARM GAS  c:\Users\lenovo\AppData\Local\Temp\ccEIXAak.s 			page 37


 1220 0032 BCE80F00 		ldmia	ip!, {r0, r1, r2, r3}
 1221              	.LVL198:
 1222 0036 0FC7     		stmia	r7!, {r0, r1, r2, r3}
 1223 0038 9CE80700 		ldm	ip, {r0, r1, r2}
 1224 003c 87E80700 		stm	r7, {r0, r1, r2}
 1225              	.LVL199:
 432:C:/Users/lenovo/Desktop/liteos/Project2/BearPi_LiteOS/components/connectivity/agent_tiny/atiny_lwm2m\object_device.c ****         if (*dataArrayP == NULL) return COAP_500_INTERNAL_SERVER_ERROR;
 1226              		.loc 1 432 0
 1227 0040 0E20     		movs	r0, #14
 1228 0042 FFF7FEFF 		bl	lwm2m_data_new
 1229              	.LVL200:
 1230 0046 2860     		str	r0, [r5]
 433:C:/Users/lenovo/Desktop/liteos/Project2/BearPi_LiteOS/components/connectivity/agent_tiny/atiny_lwm2m\object_device.c ****         *numDataP = nbRes;
 1231              		.loc 1 433 0
 1232 0048 10B1     		cbz	r0, .L149
 434:C:/Users/lenovo/Desktop/liteos/Project2/BearPi_LiteOS/components/connectivity/agent_tiny/atiny_lwm2m\object_device.c ****         for (i = 0 ; i < nbRes ; i++)
 1233              		.loc 1 434 0
 1234 004a 0E23     		movs	r3, #14
 1235 004c 3360     		str	r3, [r6]
 1236              	.LVL201:
 435:C:/Users/lenovo/Desktop/liteos/Project2/BearPi_LiteOS/components/connectivity/agent_tiny/atiny_lwm2m\object_device.c ****         {
 1237              		.loc 1 435 0
 1238 004e 0BE0     		b	.L140
 1239              	.LVL202:
 1240              	.L149:
 433:C:/Users/lenovo/Desktop/liteos/Project2/BearPi_LiteOS/components/connectivity/agent_tiny/atiny_lwm2m\object_device.c ****         *numDataP = nbRes;
 1241              		.loc 1 433 0 discriminator 1
 1242 0050 A020     		movs	r0, #160
 1243 0052 E9E7     		b	.L137
 1244              	.LVL203:
 1245              	.L141:
 437:C:/Users/lenovo/Desktop/liteos/Project2/BearPi_LiteOS/components/connectivity/agent_tiny/atiny_lwm2m\object_device.c ****         }
 1246              		.loc 1 437 0 discriminator 3
 1247 0054 2B68     		ldr	r3, [r5]
 1248 0056 03EB0413 		add	r3, r3, r4, lsl #4
 1249 005a 08AA     		add	r2, sp, #32
 1250 005c 02EB4402 		add	r2, r2, r4, lsl #1
 1251 0060 32F81C2C 		ldrh	r2, [r2, #-28]
 1252 0064 5A80     		strh	r2, [r3, #2]	@ movhi
 435:C:/Users/lenovo/Desktop/liteos/Project2/BearPi_LiteOS/components/connectivity/agent_tiny/atiny_lwm2m\object_device.c ****         {
 1253              		.loc 1 435 0 discriminator 3
 1254 0066 0134     		adds	r4, r4, #1
 1255              	.LVL204:
 1256              	.L140:
 435:C:/Users/lenovo/Desktop/liteos/Project2/BearPi_LiteOS/components/connectivity/agent_tiny/atiny_lwm2m\object_device.c ****         {
 1257              		.loc 1 435 0 is_stmt 0 discriminator 1
 1258 0068 0D2C     		cmp	r4, #13
 1259 006a F3DD     		ble	.L141
 1260 006c D0E7     		b	.L138
 1261              	.LVL205:
 1262              	.L143:
 1263              	.LCFI21:
 1264              		.cfi_def_cfa_offset 0
 1265              		.cfi_restore 4
 1266              		.cfi_restore 5
 1267              		.cfi_restore 6
 1268              		.cfi_restore 7
ARM GAS  c:\Users\lenovo\AppData\Local\Temp\ccEIXAak.s 			page 38


 1269              		.cfi_restore 14
 1270              	.LBE3:
 404:C:/Users/lenovo/Desktop/liteos/Project2/BearPi_LiteOS/components/connectivity/agent_tiny/atiny_lwm2m\object_device.c ****     }
 1271              		.loc 1 404 0 is_stmt 1
 1272 006e 8420     		movs	r0, #132
 1273              	.LVL206:
 450:C:/Users/lenovo/Desktop/liteos/Project2/BearPi_LiteOS/components/connectivity/agent_tiny/atiny_lwm2m\object_device.c **** 
 1274              		.loc 1 450 0
 1275 0070 7047     		bx	lr
 1276              	.L151:
 1277 0072 00BF     		.align	2
 1278              	.L150:
 1279 0074 24000000 		.word	.LANCHOR0+36
 1280              		.cfi_endproc
 1281              	.LFE144:
 1283              		.section	.text.display_device_object,"ax",%progbits
 1284              		.align	1
 1285              		.global	display_device_object
 1286              		.syntax unified
 1287              		.thumb
 1288              		.thumb_func
 1289              		.fpu fpv4-sp-d16
 1291              	display_device_object:
 1292              	.LFB148:
 660:C:/Users/lenovo/Desktop/liteos/Project2/BearPi_LiteOS/components/connectivity/agent_tiny/atiny_lwm2m\object_device.c **** 
 661:C:/Users/lenovo/Desktop/liteos/Project2/BearPi_LiteOS/components/connectivity/agent_tiny/atiny_lwm2m\object_device.c **** void display_device_object(lwm2m_object_t *object)
 662:C:/Users/lenovo/Desktop/liteos/Project2/BearPi_LiteOS/components/connectivity/agent_tiny/atiny_lwm2m\object_device.c **** {
 1293              		.loc 1 662 0
 1294              		.cfi_startproc
 1295              		@ args = 0, pretend = 0, frame = 0
 1296              		@ frame_needed = 0, uses_anonymous_args = 0
 1297              		@ link register save eliminated.
 1298              	.LVL207:
 663:C:/Users/lenovo/Desktop/liteos/Project2/BearPi_LiteOS/components/connectivity/agent_tiny/atiny_lwm2m\object_device.c **** #ifdef WITH_LOGS
 664:C:/Users/lenovo/Desktop/liteos/Project2/BearPi_LiteOS/components/connectivity/agent_tiny/atiny_lwm2m\object_device.c **** 
 665:C:/Users/lenovo/Desktop/liteos/Project2/BearPi_LiteOS/components/connectivity/agent_tiny/atiny_lwm2m\object_device.c **** #endif
 666:C:/Users/lenovo/Desktop/liteos/Project2/BearPi_LiteOS/components/connectivity/agent_tiny/atiny_lwm2m\object_device.c **** }
 1299              		.loc 1 666 0
 1300 0000 7047     		bx	lr
 1301              		.cfi_endproc
 1302              	.LFE148:
 1304              		.section	.text.get_object_device,"ax",%progbits
 1305              		.align	1
 1306              		.global	get_object_device
 1307              		.syntax unified
 1308              		.thumb
 1309              		.thumb_func
 1310              		.fpu fpv4-sp-d16
 1312              	get_object_device:
 1313              	.LFB149:
 667:C:/Users/lenovo/Desktop/liteos/Project2/BearPi_LiteOS/components/connectivity/agent_tiny/atiny_lwm2m\object_device.c **** 
 668:C:/Users/lenovo/Desktop/liteos/Project2/BearPi_LiteOS/components/connectivity/agent_tiny/atiny_lwm2m\object_device.c **** 
 669:C:/Users/lenovo/Desktop/liteos/Project2/BearPi_LiteOS/components/connectivity/agent_tiny/atiny_lwm2m\object_device.c **** lwm2m_object_t *get_object_device(atiny_param_t *atiny_params, const char *manufacturer)
 670:C:/Users/lenovo/Desktop/liteos/Project2/BearPi_LiteOS/components/connectivity/agent_tiny/atiny_lwm2m\object_device.c **** {
 1314              		.loc 1 670 0
 1315              		.cfi_startproc
 1316              		@ args = 0, pretend = 0, frame = 0
ARM GAS  c:\Users\lenovo\AppData\Local\Temp\ccEIXAak.s 			page 39


 1317              		@ frame_needed = 0, uses_anonymous_args = 0
 1318              	.LVL208:
 1319 0000 10B5     		push	{r4, lr}
 1320              	.LCFI22:
 1321              		.cfi_def_cfa_offset 8
 1322              		.cfi_offset 4, -8
 1323              		.cfi_offset 14, -4
 671:C:/Users/lenovo/Desktop/liteos/Project2/BearPi_LiteOS/components/connectivity/agent_tiny/atiny_lwm2m\object_device.c ****     /*
 672:C:/Users/lenovo/Desktop/liteos/Project2/BearPi_LiteOS/components/connectivity/agent_tiny/atiny_lwm2m\object_device.c ****      * The get_object_device function create the object itself and return a pointer to the structur
 673:C:/Users/lenovo/Desktop/liteos/Project2/BearPi_LiteOS/components/connectivity/agent_tiny/atiny_lwm2m\object_device.c ****      */
 674:C:/Users/lenovo/Desktop/liteos/Project2/BearPi_LiteOS/components/connectivity/agent_tiny/atiny_lwm2m\object_device.c ****     lwm2m_object_t *deviceObj;
 675:C:/Users/lenovo/Desktop/liteos/Project2/BearPi_LiteOS/components/connectivity/agent_tiny/atiny_lwm2m\object_device.c **** 
 676:C:/Users/lenovo/Desktop/liteos/Project2/BearPi_LiteOS/components/connectivity/agent_tiny/atiny_lwm2m\object_device.c ****     deviceObj = (lwm2m_object_t *)lwm2m_malloc(sizeof(lwm2m_object_t));
 1324              		.loc 1 676 0
 1325 0002 2C20     		movs	r0, #44
 1326              	.LVL209:
 1327 0004 FFF7FEFF 		bl	lwm2m_malloc
 1328              	.LVL210:
 677:C:/Users/lenovo/Desktop/liteos/Project2/BearPi_LiteOS/components/connectivity/agent_tiny/atiny_lwm2m\object_device.c **** 
 678:C:/Users/lenovo/Desktop/liteos/Project2/BearPi_LiteOS/components/connectivity/agent_tiny/atiny_lwm2m\object_device.c ****     if (NULL != deviceObj)
 1329              		.loc 1 678 0
 1330 0008 0446     		mov	r4, r0
 1331 000a A8B1     		cbz	r0, .L153
 679:C:/Users/lenovo/Desktop/liteos/Project2/BearPi_LiteOS/components/connectivity/agent_tiny/atiny_lwm2m\object_device.c ****     {
 680:C:/Users/lenovo/Desktop/liteos/Project2/BearPi_LiteOS/components/connectivity/agent_tiny/atiny_lwm2m\object_device.c ****         memset(deviceObj, 0, sizeof(lwm2m_object_t));
 1332              		.loc 1 680 0
 1333 000c 2C22     		movs	r2, #44
 1334 000e 0021     		movs	r1, #0
 1335 0010 FFF7FEFF 		bl	memset
 1336              	.LVL211:
 681:C:/Users/lenovo/Desktop/liteos/Project2/BearPi_LiteOS/components/connectivity/agent_tiny/atiny_lwm2m\object_device.c **** 
 682:C:/Users/lenovo/Desktop/liteos/Project2/BearPi_LiteOS/components/connectivity/agent_tiny/atiny_lwm2m\object_device.c ****         /*
 683:C:/Users/lenovo/Desktop/liteos/Project2/BearPi_LiteOS/components/connectivity/agent_tiny/atiny_lwm2m\object_device.c ****          * It assigns his unique ID
 684:C:/Users/lenovo/Desktop/liteos/Project2/BearPi_LiteOS/components/connectivity/agent_tiny/atiny_lwm2m\object_device.c ****          * The 3 is the standard ID for the mandatory object "Object device".
 685:C:/Users/lenovo/Desktop/liteos/Project2/BearPi_LiteOS/components/connectivity/agent_tiny/atiny_lwm2m\object_device.c ****          */
 686:C:/Users/lenovo/Desktop/liteos/Project2/BearPi_LiteOS/components/connectivity/agent_tiny/atiny_lwm2m\object_device.c ****         deviceObj->objID = LWM2M_DEVICE_OBJECT_ID;
 1337              		.loc 1 686 0
 1338 0014 0323     		movs	r3, #3
 1339 0016 A380     		strh	r3, [r4, #4]	@ movhi
 687:C:/Users/lenovo/Desktop/liteos/Project2/BearPi_LiteOS/components/connectivity/agent_tiny/atiny_lwm2m\object_device.c **** 
 688:C:/Users/lenovo/Desktop/liteos/Project2/BearPi_LiteOS/components/connectivity/agent_tiny/atiny_lwm2m\object_device.c ****         /*
 689:C:/Users/lenovo/Desktop/liteos/Project2/BearPi_LiteOS/components/connectivity/agent_tiny/atiny_lwm2m\object_device.c ****          * and its unique instance
 690:C:/Users/lenovo/Desktop/liteos/Project2/BearPi_LiteOS/components/connectivity/agent_tiny/atiny_lwm2m\object_device.c ****          *
 691:C:/Users/lenovo/Desktop/liteos/Project2/BearPi_LiteOS/components/connectivity/agent_tiny/atiny_lwm2m\object_device.c ****          */
 692:C:/Users/lenovo/Desktop/liteos/Project2/BearPi_LiteOS/components/connectivity/agent_tiny/atiny_lwm2m\object_device.c ****         deviceObj->instanceList = (lwm2m_list_t *)lwm2m_malloc(sizeof(lwm2m_list_t));
 1340              		.loc 1 692 0
 1341 0018 0820     		movs	r0, #8
 1342 001a FFF7FEFF 		bl	lwm2m_malloc
 1343              	.LVL212:
 1344 001e A060     		str	r0, [r4, #8]
 693:C:/Users/lenovo/Desktop/liteos/Project2/BearPi_LiteOS/components/connectivity/agent_tiny/atiny_lwm2m\object_device.c ****         if (NULL != deviceObj->instanceList)
 1345              		.loc 1 693 0
 1346 0020 60B1     		cbz	r0, .L155
 694:C:/Users/lenovo/Desktop/liteos/Project2/BearPi_LiteOS/components/connectivity/agent_tiny/atiny_lwm2m\object_device.c ****         {
 695:C:/Users/lenovo/Desktop/liteos/Project2/BearPi_LiteOS/components/connectivity/agent_tiny/atiny_lwm2m\object_device.c ****             memset(deviceObj->instanceList, 0, sizeof(lwm2m_list_t));
 1347              		.loc 1 695 0
 1348 0022 0023     		movs	r3, #0
ARM GAS  c:\Users\lenovo\AppData\Local\Temp\ccEIXAak.s 			page 40


 1349 0024 0360     		str	r3, [r0]	@ unaligned
 1350 0026 4360     		str	r3, [r0, #4]	@ unaligned
 696:C:/Users/lenovo/Desktop/liteos/Project2/BearPi_LiteOS/components/connectivity/agent_tiny/atiny_lwm2m\object_device.c ****         }
 697:C:/Users/lenovo/Desktop/liteos/Project2/BearPi_LiteOS/components/connectivity/agent_tiny/atiny_lwm2m\object_device.c ****         else
 698:C:/Users/lenovo/Desktop/liteos/Project2/BearPi_LiteOS/components/connectivity/agent_tiny/atiny_lwm2m\object_device.c ****         {
 699:C:/Users/lenovo/Desktop/liteos/Project2/BearPi_LiteOS/components/connectivity/agent_tiny/atiny_lwm2m\object_device.c ****             lwm2m_free(deviceObj);
 700:C:/Users/lenovo/Desktop/liteos/Project2/BearPi_LiteOS/components/connectivity/agent_tiny/atiny_lwm2m\object_device.c ****             return NULL;
 701:C:/Users/lenovo/Desktop/liteos/Project2/BearPi_LiteOS/components/connectivity/agent_tiny/atiny_lwm2m\object_device.c ****         }
 702:C:/Users/lenovo/Desktop/liteos/Project2/BearPi_LiteOS/components/connectivity/agent_tiny/atiny_lwm2m\object_device.c **** 
 703:C:/Users/lenovo/Desktop/liteos/Project2/BearPi_LiteOS/components/connectivity/agent_tiny/atiny_lwm2m\object_device.c ****         /*
 704:C:/Users/lenovo/Desktop/liteos/Project2/BearPi_LiteOS/components/connectivity/agent_tiny/atiny_lwm2m\object_device.c ****          * And the private function that will access the object.
 705:C:/Users/lenovo/Desktop/liteos/Project2/BearPi_LiteOS/components/connectivity/agent_tiny/atiny_lwm2m\object_device.c ****          * Those function will be called when a read/write/execute query is made by the server. In 
 706:C:/Users/lenovo/Desktop/liteos/Project2/BearPi_LiteOS/components/connectivity/agent_tiny/atiny_lwm2m\object_device.c ****          * know the resources of the object, only the server does.
 707:C:/Users/lenovo/Desktop/liteos/Project2/BearPi_LiteOS/components/connectivity/agent_tiny/atiny_lwm2m\object_device.c ****          */
 708:C:/Users/lenovo/Desktop/liteos/Project2/BearPi_LiteOS/components/connectivity/agent_tiny/atiny_lwm2m\object_device.c ****         deviceObj->readFunc     = prv_device_read;
 1351              		.loc 1 708 0
 1352 0028 074B     		ldr	r3, .L157
 1353 002a E360     		str	r3, [r4, #12]
 709:C:/Users/lenovo/Desktop/liteos/Project2/BearPi_LiteOS/components/connectivity/agent_tiny/atiny_lwm2m\object_device.c ****         deviceObj->discoverFunc = prv_device_discover;
 1354              		.loc 1 709 0
 1355 002c 074B     		ldr	r3, .L157+4
 1356 002e 6362     		str	r3, [r4, #36]
 710:C:/Users/lenovo/Desktop/liteos/Project2/BearPi_LiteOS/components/connectivity/agent_tiny/atiny_lwm2m\object_device.c ****         deviceObj->writeFunc    = prv_device_write;
 1357              		.loc 1 710 0
 1358 0030 074B     		ldr	r3, .L157+8
 1359 0032 2361     		str	r3, [r4, #16]
 711:C:/Users/lenovo/Desktop/liteos/Project2/BearPi_LiteOS/components/connectivity/agent_tiny/atiny_lwm2m\object_device.c ****         deviceObj->executeFunc  = prv_device_execute;
 1360              		.loc 1 711 0
 1361 0034 074B     		ldr	r3, .L157+12
 1362 0036 6361     		str	r3, [r4, #20]
 1363              	.LVL213:
 1364              	.L153:
 712:C:/Users/lenovo/Desktop/liteos/Project2/BearPi_LiteOS/components/connectivity/agent_tiny/atiny_lwm2m\object_device.c ****     }
 713:C:/Users/lenovo/Desktop/liteos/Project2/BearPi_LiteOS/components/connectivity/agent_tiny/atiny_lwm2m\object_device.c **** 
 714:C:/Users/lenovo/Desktop/liteos/Project2/BearPi_LiteOS/components/connectivity/agent_tiny/atiny_lwm2m\object_device.c ****     return deviceObj;
 715:C:/Users/lenovo/Desktop/liteos/Project2/BearPi_LiteOS/components/connectivity/agent_tiny/atiny_lwm2m\object_device.c **** }
 1365              		.loc 1 715 0
 1366 0038 2046     		mov	r0, r4
 1367 003a 10BD     		pop	{r4, pc}
 1368              	.LVL214:
 1369              	.L155:
 699:C:/Users/lenovo/Desktop/liteos/Project2/BearPi_LiteOS/components/connectivity/agent_tiny/atiny_lwm2m\object_device.c ****             return NULL;
 1370              		.loc 1 699 0
 1371 003c 2046     		mov	r0, r4
 1372 003e FFF7FEFF 		bl	lwm2m_free
 1373              	.LVL215:
 700:C:/Users/lenovo/Desktop/liteos/Project2/BearPi_LiteOS/components/connectivity/agent_tiny/atiny_lwm2m\object_device.c ****         }
 1374              		.loc 1 700 0
 1375 0042 0024     		movs	r4, #0
 1376              	.LVL216:
 1377 0044 F8E7     		b	.L153
 1378              	.L158:
 1379 0046 00BF     		.align	2
 1380              	.L157:
 1381 0048 00000000 		.word	prv_device_read
 1382 004c 00000000 		.word	prv_device_discover
 1383 0050 00000000 		.word	prv_device_write
ARM GAS  c:\Users\lenovo\AppData\Local\Temp\ccEIXAak.s 			page 41


 1384 0054 00000000 		.word	prv_device_execute
 1385              		.cfi_endproc
 1386              	.LFE149:
 1388              		.section	.text.free_object_device,"ax",%progbits
 1389              		.align	1
 1390              		.global	free_object_device
 1391              		.syntax unified
 1392              		.thumb
 1393              		.thumb_func
 1394              		.fpu fpv4-sp-d16
 1396              	free_object_device:
 1397              	.LFB150:
 716:C:/Users/lenovo/Desktop/liteos/Project2/BearPi_LiteOS/components/connectivity/agent_tiny/atiny_lwm2m\object_device.c **** 
 717:C:/Users/lenovo/Desktop/liteos/Project2/BearPi_LiteOS/components/connectivity/agent_tiny/atiny_lwm2m\object_device.c **** void free_object_device(lwm2m_object_t *objectP)
 718:C:/Users/lenovo/Desktop/liteos/Project2/BearPi_LiteOS/components/connectivity/agent_tiny/atiny_lwm2m\object_device.c **** {
 1398              		.loc 1 718 0
 1399              		.cfi_startproc
 1400              		@ args = 0, pretend = 0, frame = 0
 1401              		@ frame_needed = 0, uses_anonymous_args = 0
 1402              	.LVL217:
 1403 0000 10B5     		push	{r4, lr}
 1404              	.LCFI23:
 1405              		.cfi_def_cfa_offset 8
 1406              		.cfi_offset 4, -8
 1407              		.cfi_offset 14, -4
 1408 0002 0446     		mov	r4, r0
 719:C:/Users/lenovo/Desktop/liteos/Project2/BearPi_LiteOS/components/connectivity/agent_tiny/atiny_lwm2m\object_device.c ****     if (NULL != objectP->userData)
 1409              		.loc 1 719 0
 1410 0004 806A     		ldr	r0, [r0, #40]
 1411              	.LVL218:
 1412 0006 18B1     		cbz	r0, .L160
 720:C:/Users/lenovo/Desktop/liteos/Project2/BearPi_LiteOS/components/connectivity/agent_tiny/atiny_lwm2m\object_device.c ****     {
 721:C:/Users/lenovo/Desktop/liteos/Project2/BearPi_LiteOS/components/connectivity/agent_tiny/atiny_lwm2m\object_device.c ****         lwm2m_free(objectP->userData);
 1413              		.loc 1 721 0
 1414 0008 FFF7FEFF 		bl	lwm2m_free
 1415              	.LVL219:
 722:C:/Users/lenovo/Desktop/liteos/Project2/BearPi_LiteOS/components/connectivity/agent_tiny/atiny_lwm2m\object_device.c ****         objectP->userData = NULL;
 1416              		.loc 1 722 0
 1417 000c 0023     		movs	r3, #0
 1418 000e A362     		str	r3, [r4, #40]
 1419              	.L160:
 723:C:/Users/lenovo/Desktop/liteos/Project2/BearPi_LiteOS/components/connectivity/agent_tiny/atiny_lwm2m\object_device.c ****     }
 724:C:/Users/lenovo/Desktop/liteos/Project2/BearPi_LiteOS/components/connectivity/agent_tiny/atiny_lwm2m\object_device.c ****     if (NULL != objectP->instanceList)
 1420              		.loc 1 724 0
 1421 0010 A068     		ldr	r0, [r4, #8]
 1422 0012 18B1     		cbz	r0, .L161
 725:C:/Users/lenovo/Desktop/liteos/Project2/BearPi_LiteOS/components/connectivity/agent_tiny/atiny_lwm2m\object_device.c ****     {
 726:C:/Users/lenovo/Desktop/liteos/Project2/BearPi_LiteOS/components/connectivity/agent_tiny/atiny_lwm2m\object_device.c ****         lwm2m_list_free(objectP->instanceList);
 1423              		.loc 1 726 0
 1424 0014 FFF7FEFF 		bl	lwm2m_list_free
 1425              	.LVL220:
 727:C:/Users/lenovo/Desktop/liteos/Project2/BearPi_LiteOS/components/connectivity/agent_tiny/atiny_lwm2m\object_device.c ****         objectP->instanceList = NULL;
 1426              		.loc 1 727 0
 1427 0018 0023     		movs	r3, #0
 1428 001a A360     		str	r3, [r4, #8]
 1429              	.L161:
 728:C:/Users/lenovo/Desktop/liteos/Project2/BearPi_LiteOS/components/connectivity/agent_tiny/atiny_lwm2m\object_device.c ****     }
ARM GAS  c:\Users\lenovo\AppData\Local\Temp\ccEIXAak.s 			page 42


 729:C:/Users/lenovo/Desktop/liteos/Project2/BearPi_LiteOS/components/connectivity/agent_tiny/atiny_lwm2m\object_device.c **** 
 730:C:/Users/lenovo/Desktop/liteos/Project2/BearPi_LiteOS/components/connectivity/agent_tiny/atiny_lwm2m\object_device.c ****     lwm2m_free(objectP);
 1430              		.loc 1 730 0
 1431 001c 2046     		mov	r0, r4
 1432 001e FFF7FEFF 		bl	lwm2m_free
 1433              	.LVL221:
 731:C:/Users/lenovo/Desktop/liteos/Project2/BearPi_LiteOS/components/connectivity/agent_tiny/atiny_lwm2m\object_device.c **** }
 1434              		.loc 1 731 0
 1435 0022 10BD     		pop	{r4, pc}
 1436              		.cfi_endproc
 1437              	.LFE150:
 1439              		.section	.rodata
 1440              		.align	2
 1441              		.set	.LANCHOR0,. + 0
 1442              	.LC0:
 1443 0000 0000     		.short	0
 1444 0002 0100     		.short	1
 1445 0004 0200     		.short	2
 1446 0006 0300     		.short	3
 1447 0008 0400     		.short	4
 1448 000a 0500     		.short	5
 1449 000c 0600     		.short	6
 1450 000e 0700     		.short	7
 1451 0010 0800     		.short	8
 1452 0012 0900     		.short	9
 1453 0014 0A00     		.short	10
 1454 0016 0B00     		.short	11
 1455 0018 0C00     		.short	12
 1456 001a 0D00     		.short	13
 1457 001c 0E00     		.short	14
 1458 001e 0F00     		.short	15
 1459 0020 1000     		.short	16
 1460 0022 0000     		.space	2
 1461              	.LC1:
 1462 0024 0000     		.short	0
 1463 0026 0100     		.short	1
 1464 0028 0200     		.short	2
 1465 002a 0300     		.short	3
 1466 002c 0600     		.short	6
 1467 002e 0700     		.short	7
 1468 0030 0800     		.short	8
 1469 0032 0900     		.short	9
 1470 0034 0A00     		.short	10
 1471 0036 0B00     		.short	11
 1472 0038 0D00     		.short	13
 1473 003a 0E00     		.short	14
 1474 003c 0F00     		.short	15
 1475 003e 1000     		.short	16
 1476              		.text
 1477              	.Letext0:
 1478              		.file 2 "c:\\program files (x86)\\liteos studio\\resources\\arm-none-eabi\\arm-none-eabi\\include\
 1479              		.file 3 "c:\\program files (x86)\\liteos studio\\resources\\arm-none-eabi\\arm-none-eabi\\include\
 1480              		.file 4 "C:/Users/lenovo/Desktop/liteos/Project2/BearPi_LiteOS/components/connectivity/lwm2m/core/
 1481              		.file 5 "c:\\program files (x86)\\liteos studio\\resources\\arm-none-eabi\\lib\\gcc\\arm-none-eabi
 1482              		.file 6 "c:\\program files (x86)\\liteos studio\\resources\\arm-none-eabi\\arm-none-eabi\\include\
 1483              		.file 7 "c:\\program files (x86)\\liteos studio\\resources\\arm-none-eabi\\arm-none-eabi\\include\
 1484              		.file 8 "c:\\program files (x86)\\liteos studio\\resources\\arm-none-eabi\\arm-none-eabi\\include\
ARM GAS  c:\Users\lenovo\AppData\Local\Temp\ccEIXAak.s 			page 43


 1485              		.file 9 "c:\\program files (x86)\\liteos studio\\resources\\arm-none-eabi\\arm-none-eabi\\include\
 1486              		.file 10 "C:/Users/lenovo/Desktop/liteos/Project2/BearPi_LiteOS/components/connectivity/lwm2m/core
 1487              		.file 11 "C:/Users/lenovo/Desktop/liteos/Project2/BearPi_LiteOS/kernel/include/los_typedef.h"
 1488              		.file 12 "C:/Users/lenovo/Desktop/liteos/Project2/BearPi_LiteOS/arch/arm/common/cmsis/core_cm4.h"
 1489              		.file 13 "C:/Users/lenovo/Desktop/liteos/Project2/BearPi_LiteOS/targets/STM32L431_BearPi/Inc/syste
 1490              		.file 14 "C:/Users/lenovo/Desktop/liteos/Project2/BearPi_LiteOS/kernel/include/los_list.h"
 1491              		.file 15 "C:/Users/lenovo/Desktop/liteos/Project2/BearPi_LiteOS/kernel/include/los_err.h"
 1492              		.file 16 "C:/Users/lenovo/Desktop/liteos/Project2/BearPi_LiteOS/arch/arm/arm-m/include/los_hwi.h"
 1493              		.file 17 "C:/Users/lenovo/Desktop/liteos/Project2/BearPi_LiteOS/kernel/include/los_tick.h"
 1494              		.file 18 "C:/Users/lenovo/Desktop/liteos/Project2/BearPi_LiteOS/kernel/include/los_event.h"
 1495              		.file 19 "C:/Users/lenovo/Desktop/liteos/Project2/BearPi_LiteOS/kernel/include/los_task.h"
 1496              		.file 20 "C:/Users/lenovo/Desktop/liteos/Project2/BearPi_LiteOS/kernel/base/include/los_task.ph"
 1497              		.file 21 "C:/Users/lenovo/Desktop/liteos/Project2/BearPi_LiteOS/targets/STM32L431_BearPi/Inc/main.
 1498              		.file 22 "C:/Users/lenovo/Desktop/liteos/Project2/BearPi_LiteOS/targets/STM32L431_BearPi/OS_CONFIG
 1499              		.file 23 "C:/Users/lenovo/Desktop/liteos/Project2/BearPi_LiteOS/kernel/include/los_config.h"
 1500              		.file 24 "C:/Users/lenovo/Desktop/liteos/Project2/BearPi_LiteOS/components/connectivity/lwm2m/core
 1501              		.file 25 "c:\\program files (x86)\\liteos studio\\resources\\arm-none-eabi\\arm-none-eabi\\include
 1502              		.file 26 "c:\\program files (x86)\\liteos studio\\resources\\arm-none-eabi\\arm-none-eabi\\include
 1503              		.file 27 "C:/Users/lenovo/Desktop/liteos/Project2/BearPi_LiteOS/include/atiny_error.h"
 1504              		.file 28 "C:/Users/lenovo/Desktop/liteos/Project2/BearPi_LiteOS/include/atiny_lwm2m/agenttiny.h"
 1505              		.file 29 "C:/Users/lenovo/Desktop/liteos/Project2/BearPi_LiteOS/components/connectivity/agent_tiny
 1506              		.file 30 "<built-in>"
ARM GAS  c:\Users\lenovo\AppData\Local\Temp\ccEIXAak.s 			page 44


DEFINED SYMBOLS
                            *ABS*:00000000 object_device.c
c:\Users\lenovo\AppData\Local\Temp\ccEIXAak.s:18     .text.prv_check_time_offset:00000000 $t
c:\Users\lenovo\AppData\Local\Temp\ccEIXAak.s:24     .text.prv_check_time_offset:00000000 prv_check_time_offset
c:\Users\lenovo\AppData\Local\Temp\ccEIXAak.s:165    .text.prv_device_execute:00000000 $t
c:\Users\lenovo\AppData\Local\Temp\ccEIXAak.s:171    .text.prv_device_execute:00000000 prv_device_execute
c:\Users\lenovo\AppData\Local\Temp\ccEIXAak.s:283    .text.prv_device_execute:00000050 $d
c:\Users\lenovo\AppData\Local\Temp\ccEIXAak.s:288    .text.prv_device_write:00000000 $t
c:\Users\lenovo\AppData\Local\Temp\ccEIXAak.s:294    .text.prv_device_write:00000000 prv_device_write
c:\Users\lenovo\AppData\Local\Temp\ccEIXAak.s:466    .text.prv_device_discover:00000000 $t
c:\Users\lenovo\AppData\Local\Temp\ccEIXAak.s:472    .text.prv_device_discover:00000000 prv_device_discover
c:\Users\lenovo\AppData\Local\Temp\ccEIXAak.s:610    .text.prv_device_discover:0000007c $d
c:\Users\lenovo\AppData\Local\Temp\ccEIXAak.s:615    .text.prv_set_value:00000000 $t
c:\Users\lenovo\AppData\Local\Temp\ccEIXAak.s:621    .text.prv_set_value:00000000 prv_set_value
c:\Users\lenovo\AppData\Local\Temp\ccEIXAak.s:651    .text.prv_set_value:0000001c $d
c:\Users\lenovo\AppData\Local\Temp\ccEIXAak.s:668    .text.prv_set_value:0000003e $t
c:\Users\lenovo\AppData\Local\Temp\ccEIXAak.s:1149   .text.prv_device_read:00000000 $t
c:\Users\lenovo\AppData\Local\Temp\ccEIXAak.s:1155   .text.prv_device_read:00000000 prv_device_read
c:\Users\lenovo\AppData\Local\Temp\ccEIXAak.s:1279   .text.prv_device_read:00000074 $d
c:\Users\lenovo\AppData\Local\Temp\ccEIXAak.s:1284   .text.display_device_object:00000000 $t
c:\Users\lenovo\AppData\Local\Temp\ccEIXAak.s:1291   .text.display_device_object:00000000 display_device_object
c:\Users\lenovo\AppData\Local\Temp\ccEIXAak.s:1305   .text.get_object_device:00000000 $t
c:\Users\lenovo\AppData\Local\Temp\ccEIXAak.s:1312   .text.get_object_device:00000000 get_object_device
c:\Users\lenovo\AppData\Local\Temp\ccEIXAak.s:1381   .text.get_object_device:00000048 $d
c:\Users\lenovo\AppData\Local\Temp\ccEIXAak.s:1389   .text.free_object_device:00000000 $t
c:\Users\lenovo\AppData\Local\Temp\ccEIXAak.s:1396   .text.free_object_device:00000000 free_object_device
c:\Users\lenovo\AppData\Local\Temp\ccEIXAak.s:1440   .rodata:00000000 $d

UNDEFINED SYMBOLS
atiny_cmd_ioctl
g_reboot
lwm2m_data_decode_int
lwm2m_data_new
memset
lwm2m_data_encode_string
lwm2m_data_encode_int
lwm2m_data_encode_instances
lwm2m_free
lwm2m_malloc
lwm2m_list_free
