ARM GAS  c:\Users\lenovo\AppData\Local\Temp\cchOsOqP.s 			page 1


   1              		.cpu cortex-m4
   2              		.eabi_attribute 27, 1
   3              		.eabi_attribute 28, 1
   4              		.eabi_attribute 20, 1
   5              		.eabi_attribute 21, 1
   6              		.eabi_attribute 23, 3
   7              		.eabi_attribute 24, 1
   8              		.eabi_attribute 25, 1
   9              		.eabi_attribute 26, 1
  10              		.eabi_attribute 30, 1
  11              		.eabi_attribute 34, 1
  12              		.eabi_attribute 18, 4
  13              		.file	"object_server.c"
  14              		.text
  15              	.Ltext0:
  16              		.cfi_sections	.debug_frame
  17              		.section	.text.prv_server_execute,"ax",%progbits
  18              		.align	1
  19              		.syntax unified
  20              		.thumb
  21              		.thumb_func
  22              		.fpu fpv4-sp-d16
  24              	prv_server_execute:
  25              	.LFB148:
  26              		.file 1 "C:/Users/lenovo/Desktop/liteos/Project2/BearPi_LiteOS/components/connectivity/agent_tiny/
   1:C:/Users/lenovo/Desktop/liteos/Project2/BearPi_LiteOS/components/connectivity/agent_tiny/atiny_lwm2m\object_server.c **** /*----------------------------------------------------------------------------
   2:C:/Users/lenovo/Desktop/liteos/Project2/BearPi_LiteOS/components/connectivity/agent_tiny/atiny_lwm2m\object_server.c ****  * Copyright (c) <2016-2018>, <Huawei Technologies Co., Ltd>
   3:C:/Users/lenovo/Desktop/liteos/Project2/BearPi_LiteOS/components/connectivity/agent_tiny/atiny_lwm2m\object_server.c ****  * All rights reserved.
   4:C:/Users/lenovo/Desktop/liteos/Project2/BearPi_LiteOS/components/connectivity/agent_tiny/atiny_lwm2m\object_server.c ****  * Redistribution and use in source and binary forms, with or without modification,
   5:C:/Users/lenovo/Desktop/liteos/Project2/BearPi_LiteOS/components/connectivity/agent_tiny/atiny_lwm2m\object_server.c ****  * are permitted provided that the following conditions are met:
   6:C:/Users/lenovo/Desktop/liteos/Project2/BearPi_LiteOS/components/connectivity/agent_tiny/atiny_lwm2m\object_server.c ****  * 1. Redistributions of source code must retain the above copyright notice, this list of
   7:C:/Users/lenovo/Desktop/liteos/Project2/BearPi_LiteOS/components/connectivity/agent_tiny/atiny_lwm2m\object_server.c ****  * conditions and the following disclaimer.
   8:C:/Users/lenovo/Desktop/liteos/Project2/BearPi_LiteOS/components/connectivity/agent_tiny/atiny_lwm2m\object_server.c ****  * 2. Redistributions in binary form must reproduce the above copyright notice, this list
   9:C:/Users/lenovo/Desktop/liteos/Project2/BearPi_LiteOS/components/connectivity/agent_tiny/atiny_lwm2m\object_server.c ****  * of conditions and the following disclaimer in the documentation and/or other materials
  10:C:/Users/lenovo/Desktop/liteos/Project2/BearPi_LiteOS/components/connectivity/agent_tiny/atiny_lwm2m\object_server.c ****  * provided with the distribution.
  11:C:/Users/lenovo/Desktop/liteos/Project2/BearPi_LiteOS/components/connectivity/agent_tiny/atiny_lwm2m\object_server.c ****  * 3. Neither the name of the copyright holder nor the names of its contributors may be used
  12:C:/Users/lenovo/Desktop/liteos/Project2/BearPi_LiteOS/components/connectivity/agent_tiny/atiny_lwm2m\object_server.c ****  * to endorse or promote products derived from this software without specific prior written
  13:C:/Users/lenovo/Desktop/liteos/Project2/BearPi_LiteOS/components/connectivity/agent_tiny/atiny_lwm2m\object_server.c ****  * permission.
  14:C:/Users/lenovo/Desktop/liteos/Project2/BearPi_LiteOS/components/connectivity/agent_tiny/atiny_lwm2m\object_server.c ****  * THIS SOFTWARE IS PROVIDED BY THE COPYRIGHT HOLDERS AND CONTRIBUTORS
  15:C:/Users/lenovo/Desktop/liteos/Project2/BearPi_LiteOS/components/connectivity/agent_tiny/atiny_lwm2m\object_server.c ****  * "AS IS" AND ANY EXPRESS OR IMPLIED WARRANTIES, INCLUDING, BUT NOT LIMITED TO,
  16:C:/Users/lenovo/Desktop/liteos/Project2/BearPi_LiteOS/components/connectivity/agent_tiny/atiny_lwm2m\object_server.c ****  * THE IMPLIED WARRANTIES OF MERCHANTABILITY AND FITNESS FOR A PARTICULAR
  17:C:/Users/lenovo/Desktop/liteos/Project2/BearPi_LiteOS/components/connectivity/agent_tiny/atiny_lwm2m\object_server.c ****  * PURPOSE ARE DISCLAIMED. IN NO EVENT SHALL THE COPYRIGHT HOLDER OR
  18:C:/Users/lenovo/Desktop/liteos/Project2/BearPi_LiteOS/components/connectivity/agent_tiny/atiny_lwm2m\object_server.c ****  * CONTRIBUTORS BE LIABLE FOR ANY DIRECT, INDIRECT, INCIDENTAL, SPECIAL,
  19:C:/Users/lenovo/Desktop/liteos/Project2/BearPi_LiteOS/components/connectivity/agent_tiny/atiny_lwm2m\object_server.c ****  * EXEMPLARY, OR CONSEQUENTIAL DAMAGES (INCLUDING, BUT NOT LIMITED TO,
  20:C:/Users/lenovo/Desktop/liteos/Project2/BearPi_LiteOS/components/connectivity/agent_tiny/atiny_lwm2m\object_server.c ****  * PROCUREMENT OF SUBSTITUTE GOODS OR SERVICES; LOSS OF USE, DATA, OR PROFITS;
  21:C:/Users/lenovo/Desktop/liteos/Project2/BearPi_LiteOS/components/connectivity/agent_tiny/atiny_lwm2m\object_server.c ****  * OR BUSINESS INTERRUPTION) HOWEVER CAUSED AND ON ANY THEORY OF LIABILITY,
  22:C:/Users/lenovo/Desktop/liteos/Project2/BearPi_LiteOS/components/connectivity/agent_tiny/atiny_lwm2m\object_server.c ****  * WHETHER IN CONTRACT, STRICT LIABILITY, OR TORT (INCLUDING NEGLIGENCE OR
  23:C:/Users/lenovo/Desktop/liteos/Project2/BearPi_LiteOS/components/connectivity/agent_tiny/atiny_lwm2m\object_server.c ****  * OTHERWISE) ARISING IN ANY WAY OUT OF THE USE OF THIS SOFTWARE, EVEN IF
  24:C:/Users/lenovo/Desktop/liteos/Project2/BearPi_LiteOS/components/connectivity/agent_tiny/atiny_lwm2m\object_server.c ****  * ADVISED OF THE POSSIBILITY OF SUCH DAMAGE.
  25:C:/Users/lenovo/Desktop/liteos/Project2/BearPi_LiteOS/components/connectivity/agent_tiny/atiny_lwm2m\object_server.c ****  *---------------------------------------------------------------------------*/
  26:C:/Users/lenovo/Desktop/liteos/Project2/BearPi_LiteOS/components/connectivity/agent_tiny/atiny_lwm2m\object_server.c **** /*----------------------------------------------------------------------------
  27:C:/Users/lenovo/Desktop/liteos/Project2/BearPi_LiteOS/components/connectivity/agent_tiny/atiny_lwm2m\object_server.c ****  * Notice of Export Control Law
  28:C:/Users/lenovo/Desktop/liteos/Project2/BearPi_LiteOS/components/connectivity/agent_tiny/atiny_lwm2m\object_server.c ****  * ===============================================
  29:C:/Users/lenovo/Desktop/liteos/Project2/BearPi_LiteOS/components/connectivity/agent_tiny/atiny_lwm2m\object_server.c ****  * Huawei LiteOS may be subject to applicable export control laws and regulations, which might
  30:C:/Users/lenovo/Desktop/liteos/Project2/BearPi_LiteOS/components/connectivity/agent_tiny/atiny_lwm2m\object_server.c ****  * include those applicable to Huawei LiteOS of U.S. and the country in which you are located.
  31:C:/Users/lenovo/Desktop/liteos/Project2/BearPi_LiteOS/components/connectivity/agent_tiny/atiny_lwm2m\object_server.c ****  * Import, export and usage of Huawei LiteOS in any manner by you shall be in compliance with such
  32:C:/Users/lenovo/Desktop/liteos/Project2/BearPi_LiteOS/components/connectivity/agent_tiny/atiny_lwm2m\object_server.c ****  * applicable export control laws and regulations.
ARM GAS  c:\Users\lenovo\AppData\Local\Temp\cchOsOqP.s 			page 2


  33:C:/Users/lenovo/Desktop/liteos/Project2/BearPi_LiteOS/components/connectivity/agent_tiny/atiny_lwm2m\object_server.c ****  *---------------------------------------------------------------------------*/
  34:C:/Users/lenovo/Desktop/liteos/Project2/BearPi_LiteOS/components/connectivity/agent_tiny/atiny_lwm2m\object_server.c **** 
  35:C:/Users/lenovo/Desktop/liteos/Project2/BearPi_LiteOS/components/connectivity/agent_tiny/atiny_lwm2m\object_server.c **** /*******************************************************************************
  36:C:/Users/lenovo/Desktop/liteos/Project2/BearPi_LiteOS/components/connectivity/agent_tiny/atiny_lwm2m\object_server.c ****  *
  37:C:/Users/lenovo/Desktop/liteos/Project2/BearPi_LiteOS/components/connectivity/agent_tiny/atiny_lwm2m\object_server.c ****  * Copyright (c) 2013, 2014 Intel Corporation and others.
  38:C:/Users/lenovo/Desktop/liteos/Project2/BearPi_LiteOS/components/connectivity/agent_tiny/atiny_lwm2m\object_server.c ****  * All rights reserved. This program and the accompanying materials
  39:C:/Users/lenovo/Desktop/liteos/Project2/BearPi_LiteOS/components/connectivity/agent_tiny/atiny_lwm2m\object_server.c ****  * are made available under the terms of the Eclipse Public License v1.0
  40:C:/Users/lenovo/Desktop/liteos/Project2/BearPi_LiteOS/components/connectivity/agent_tiny/atiny_lwm2m\object_server.c ****  * and Eclipse Distribution License v1.0 which accompany this distribution.
  41:C:/Users/lenovo/Desktop/liteos/Project2/BearPi_LiteOS/components/connectivity/agent_tiny/atiny_lwm2m\object_server.c ****  *
  42:C:/Users/lenovo/Desktop/liteos/Project2/BearPi_LiteOS/components/connectivity/agent_tiny/atiny_lwm2m\object_server.c ****  * The Eclipse Public License is available at
  43:C:/Users/lenovo/Desktop/liteos/Project2/BearPi_LiteOS/components/connectivity/agent_tiny/atiny_lwm2m\object_server.c ****  *    http://www.eclipse.org/legal/epl-v10.html
  44:C:/Users/lenovo/Desktop/liteos/Project2/BearPi_LiteOS/components/connectivity/agent_tiny/atiny_lwm2m\object_server.c ****  * The Eclipse Distribution License is available at
  45:C:/Users/lenovo/Desktop/liteos/Project2/BearPi_LiteOS/components/connectivity/agent_tiny/atiny_lwm2m\object_server.c ****  *    http://www.eclipse.org/org/documents/edl-v10.php.
  46:C:/Users/lenovo/Desktop/liteos/Project2/BearPi_LiteOS/components/connectivity/agent_tiny/atiny_lwm2m\object_server.c ****  *
  47:C:/Users/lenovo/Desktop/liteos/Project2/BearPi_LiteOS/components/connectivity/agent_tiny/atiny_lwm2m\object_server.c ****  * Contributors:
  48:C:/Users/lenovo/Desktop/liteos/Project2/BearPi_LiteOS/components/connectivity/agent_tiny/atiny_lwm2m\object_server.c ****  *    David Navarro, Intel Corporation - initial API and implementation
  49:C:/Users/lenovo/Desktop/liteos/Project2/BearPi_LiteOS/components/connectivity/agent_tiny/atiny_lwm2m\object_server.c ****  *    Julien Vermillard, Sierra Wireless
  50:C:/Users/lenovo/Desktop/liteos/Project2/BearPi_LiteOS/components/connectivity/agent_tiny/atiny_lwm2m\object_server.c ****  *    Bosch Software Innovations GmbH - Please refer to git log
  51:C:/Users/lenovo/Desktop/liteos/Project2/BearPi_LiteOS/components/connectivity/agent_tiny/atiny_lwm2m\object_server.c ****  *    Pascal Rieux - Please refer to git log
  52:C:/Users/lenovo/Desktop/liteos/Project2/BearPi_LiteOS/components/connectivity/agent_tiny/atiny_lwm2m\object_server.c ****  *
  53:C:/Users/lenovo/Desktop/liteos/Project2/BearPi_LiteOS/components/connectivity/agent_tiny/atiny_lwm2m\object_server.c ****  *******************************************************************************/
  54:C:/Users/lenovo/Desktop/liteos/Project2/BearPi_LiteOS/components/connectivity/agent_tiny/atiny_lwm2m\object_server.c **** 
  55:C:/Users/lenovo/Desktop/liteos/Project2/BearPi_LiteOS/components/connectivity/agent_tiny/atiny_lwm2m\object_server.c **** /*
  56:C:/Users/lenovo/Desktop/liteos/Project2/BearPi_LiteOS/components/connectivity/agent_tiny/atiny_lwm2m\object_server.c ****  *  Resources:
  57:C:/Users/lenovo/Desktop/liteos/Project2/BearPi_LiteOS/components/connectivity/agent_tiny/atiny_lwm2m\object_server.c ****  *
  58:C:/Users/lenovo/Desktop/liteos/Project2/BearPi_LiteOS/components/connectivity/agent_tiny/atiny_lwm2m\object_server.c ****  *          Name         | ID | Operations | Instances | Mandatory |  Type   |  Range  | Units |
  59:C:/Users/lenovo/Desktop/liteos/Project2/BearPi_LiteOS/components/connectivity/agent_tiny/atiny_lwm2m\object_server.c ****  *  Short ID             |  0 |     R      |  Single   |    Yes    | Integer | 1-65535 |       |
  60:C:/Users/lenovo/Desktop/liteos/Project2/BearPi_LiteOS/components/connectivity/agent_tiny/atiny_lwm2m\object_server.c ****  *  Lifetime             |  1 |    R/W     |  Single   |    Yes    | Integer |         |   s   |
  61:C:/Users/lenovo/Desktop/liteos/Project2/BearPi_LiteOS/components/connectivity/agent_tiny/atiny_lwm2m\object_server.c ****  *  Default Min Period   |  2 |    R/W     |  Single   |    No     | Integer |         |   s   |
  62:C:/Users/lenovo/Desktop/liteos/Project2/BearPi_LiteOS/components/connectivity/agent_tiny/atiny_lwm2m\object_server.c ****  *  Default Max Period   |  3 |    R/W     |  Single   |    No     | Integer |         |   s   |
  63:C:/Users/lenovo/Desktop/liteos/Project2/BearPi_LiteOS/components/connectivity/agent_tiny/atiny_lwm2m\object_server.c ****  *  Disable              |  4 |     E      |  Single   |    No     |         |         |       |
  64:C:/Users/lenovo/Desktop/liteos/Project2/BearPi_LiteOS/components/connectivity/agent_tiny/atiny_lwm2m\object_server.c ****  *  Disable Timeout      |  5 |    R/W     |  Single   |    No     | Integer |         |   s   |
  65:C:/Users/lenovo/Desktop/liteos/Project2/BearPi_LiteOS/components/connectivity/agent_tiny/atiny_lwm2m\object_server.c ****  *  Notification Storing |  6 |    R/W     |  Single   |    Yes    | Boolean |         |       |
  66:C:/Users/lenovo/Desktop/liteos/Project2/BearPi_LiteOS/components/connectivity/agent_tiny/atiny_lwm2m\object_server.c ****  *  Binding              |  7 |    R/W     |  Single   |    Yes    | String  |         |       |
  67:C:/Users/lenovo/Desktop/liteos/Project2/BearPi_LiteOS/components/connectivity/agent_tiny/atiny_lwm2m\object_server.c ****  *  Registration Update  |  8 |     E      |  Single   |    Yes    |         |         |       |
  68:C:/Users/lenovo/Desktop/liteos/Project2/BearPi_LiteOS/components/connectivity/agent_tiny/atiny_lwm2m\object_server.c ****  *
  69:C:/Users/lenovo/Desktop/liteos/Project2/BearPi_LiteOS/components/connectivity/agent_tiny/atiny_lwm2m\object_server.c ****  */
  70:C:/Users/lenovo/Desktop/liteos/Project2/BearPi_LiteOS/components/connectivity/agent_tiny/atiny_lwm2m\object_server.c **** 
  71:C:/Users/lenovo/Desktop/liteos/Project2/BearPi_LiteOS/components/connectivity/agent_tiny/atiny_lwm2m\object_server.c **** #include "internals.h"
  72:C:/Users/lenovo/Desktop/liteos/Project2/BearPi_LiteOS/components/connectivity/agent_tiny/atiny_lwm2m\object_server.c **** #include "object_comm.h"
  73:C:/Users/lenovo/Desktop/liteos/Project2/BearPi_LiteOS/components/connectivity/agent_tiny/atiny_lwm2m\object_server.c **** 
  74:C:/Users/lenovo/Desktop/liteos/Project2/BearPi_LiteOS/components/connectivity/agent_tiny/atiny_lwm2m\object_server.c **** typedef struct _server_instance_
  75:C:/Users/lenovo/Desktop/liteos/Project2/BearPi_LiteOS/components/connectivity/agent_tiny/atiny_lwm2m\object_server.c **** {
  76:C:/Users/lenovo/Desktop/liteos/Project2/BearPi_LiteOS/components/connectivity/agent_tiny/atiny_lwm2m\object_server.c ****     struct _server_instance_ *next;    // matches lwm2m_list_t::next
  77:C:/Users/lenovo/Desktop/liteos/Project2/BearPi_LiteOS/components/connectivity/agent_tiny/atiny_lwm2m\object_server.c ****     uint16_t    instanceId;            // matches lwm2m_list_t::id
  78:C:/Users/lenovo/Desktop/liteos/Project2/BearPi_LiteOS/components/connectivity/agent_tiny/atiny_lwm2m\object_server.c ****     uint16_t    shortServerId;
  79:C:/Users/lenovo/Desktop/liteos/Project2/BearPi_LiteOS/components/connectivity/agent_tiny/atiny_lwm2m\object_server.c ****     uint32_t    lifetime;
  80:C:/Users/lenovo/Desktop/liteos/Project2/BearPi_LiteOS/components/connectivity/agent_tiny/atiny_lwm2m\object_server.c ****     uint32_t    defaultMinPeriod;
  81:C:/Users/lenovo/Desktop/liteos/Project2/BearPi_LiteOS/components/connectivity/agent_tiny/atiny_lwm2m\object_server.c ****     uint32_t    defaultMaxPeriod;
  82:C:/Users/lenovo/Desktop/liteos/Project2/BearPi_LiteOS/components/connectivity/agent_tiny/atiny_lwm2m\object_server.c ****     uint32_t    disableTimeout;
  83:C:/Users/lenovo/Desktop/liteos/Project2/BearPi_LiteOS/components/connectivity/agent_tiny/atiny_lwm2m\object_server.c ****     bool        storing;
  84:C:/Users/lenovo/Desktop/liteos/Project2/BearPi_LiteOS/components/connectivity/agent_tiny/atiny_lwm2m\object_server.c ****     char        binding[4];
  85:C:/Users/lenovo/Desktop/liteos/Project2/BearPi_LiteOS/components/connectivity/agent_tiny/atiny_lwm2m\object_server.c **** } server_instance_t;
  86:C:/Users/lenovo/Desktop/liteos/Project2/BearPi_LiteOS/components/connectivity/agent_tiny/atiny_lwm2m\object_server.c **** 
  87:C:/Users/lenovo/Desktop/liteos/Project2/BearPi_LiteOS/components/connectivity/agent_tiny/atiny_lwm2m\object_server.c **** static uint8_t prv_get_value(lwm2m_data_t *dataP,
  88:C:/Users/lenovo/Desktop/liteos/Project2/BearPi_LiteOS/components/connectivity/agent_tiny/atiny_lwm2m\object_server.c ****                              server_instance_t *targetP)
  89:C:/Users/lenovo/Desktop/liteos/Project2/BearPi_LiteOS/components/connectivity/agent_tiny/atiny_lwm2m\object_server.c **** {
ARM GAS  c:\Users\lenovo\AppData\Local\Temp\cchOsOqP.s 			page 3


  90:C:/Users/lenovo/Desktop/liteos/Project2/BearPi_LiteOS/components/connectivity/agent_tiny/atiny_lwm2m\object_server.c ****     switch (dataP->id)
  91:C:/Users/lenovo/Desktop/liteos/Project2/BearPi_LiteOS/components/connectivity/agent_tiny/atiny_lwm2m\object_server.c ****     {
  92:C:/Users/lenovo/Desktop/liteos/Project2/BearPi_LiteOS/components/connectivity/agent_tiny/atiny_lwm2m\object_server.c ****     case LWM2M_SERVER_SHORT_ID_ID:
  93:C:/Users/lenovo/Desktop/liteos/Project2/BearPi_LiteOS/components/connectivity/agent_tiny/atiny_lwm2m\object_server.c ****         lwm2m_data_encode_int(targetP->shortServerId, dataP);
  94:C:/Users/lenovo/Desktop/liteos/Project2/BearPi_LiteOS/components/connectivity/agent_tiny/atiny_lwm2m\object_server.c ****         return COAP_205_CONTENT;
  95:C:/Users/lenovo/Desktop/liteos/Project2/BearPi_LiteOS/components/connectivity/agent_tiny/atiny_lwm2m\object_server.c **** 
  96:C:/Users/lenovo/Desktop/liteos/Project2/BearPi_LiteOS/components/connectivity/agent_tiny/atiny_lwm2m\object_server.c ****     case LWM2M_SERVER_LIFETIME_ID:
  97:C:/Users/lenovo/Desktop/liteos/Project2/BearPi_LiteOS/components/connectivity/agent_tiny/atiny_lwm2m\object_server.c ****         lwm2m_data_encode_int(targetP->lifetime, dataP);
  98:C:/Users/lenovo/Desktop/liteos/Project2/BearPi_LiteOS/components/connectivity/agent_tiny/atiny_lwm2m\object_server.c ****         return COAP_205_CONTENT;
  99:C:/Users/lenovo/Desktop/liteos/Project2/BearPi_LiteOS/components/connectivity/agent_tiny/atiny_lwm2m\object_server.c **** 
 100:C:/Users/lenovo/Desktop/liteos/Project2/BearPi_LiteOS/components/connectivity/agent_tiny/atiny_lwm2m\object_server.c ****     case LWM2M_SERVER_MIN_PERIOD_ID:
 101:C:/Users/lenovo/Desktop/liteos/Project2/BearPi_LiteOS/components/connectivity/agent_tiny/atiny_lwm2m\object_server.c ****         lwm2m_data_encode_int(targetP->defaultMinPeriod, dataP);
 102:C:/Users/lenovo/Desktop/liteos/Project2/BearPi_LiteOS/components/connectivity/agent_tiny/atiny_lwm2m\object_server.c ****         return COAP_205_CONTENT;
 103:C:/Users/lenovo/Desktop/liteos/Project2/BearPi_LiteOS/components/connectivity/agent_tiny/atiny_lwm2m\object_server.c **** 
 104:C:/Users/lenovo/Desktop/liteos/Project2/BearPi_LiteOS/components/connectivity/agent_tiny/atiny_lwm2m\object_server.c ****     case LWM2M_SERVER_MAX_PERIOD_ID:
 105:C:/Users/lenovo/Desktop/liteos/Project2/BearPi_LiteOS/components/connectivity/agent_tiny/atiny_lwm2m\object_server.c ****         lwm2m_data_encode_int(targetP->defaultMaxPeriod, dataP);
 106:C:/Users/lenovo/Desktop/liteos/Project2/BearPi_LiteOS/components/connectivity/agent_tiny/atiny_lwm2m\object_server.c ****         return COAP_205_CONTENT;
 107:C:/Users/lenovo/Desktop/liteos/Project2/BearPi_LiteOS/components/connectivity/agent_tiny/atiny_lwm2m\object_server.c **** 
 108:C:/Users/lenovo/Desktop/liteos/Project2/BearPi_LiteOS/components/connectivity/agent_tiny/atiny_lwm2m\object_server.c ****     case LWM2M_SERVER_DISABLE_ID:
 109:C:/Users/lenovo/Desktop/liteos/Project2/BearPi_LiteOS/components/connectivity/agent_tiny/atiny_lwm2m\object_server.c ****         return COAP_405_METHOD_NOT_ALLOWED;
 110:C:/Users/lenovo/Desktop/liteos/Project2/BearPi_LiteOS/components/connectivity/agent_tiny/atiny_lwm2m\object_server.c **** 
 111:C:/Users/lenovo/Desktop/liteos/Project2/BearPi_LiteOS/components/connectivity/agent_tiny/atiny_lwm2m\object_server.c ****     case LWM2M_SERVER_TIMEOUT_ID:
 112:C:/Users/lenovo/Desktop/liteos/Project2/BearPi_LiteOS/components/connectivity/agent_tiny/atiny_lwm2m\object_server.c ****         lwm2m_data_encode_int(targetP->disableTimeout, dataP);
 113:C:/Users/lenovo/Desktop/liteos/Project2/BearPi_LiteOS/components/connectivity/agent_tiny/atiny_lwm2m\object_server.c ****         return COAP_205_CONTENT;
 114:C:/Users/lenovo/Desktop/liteos/Project2/BearPi_LiteOS/components/connectivity/agent_tiny/atiny_lwm2m\object_server.c **** 
 115:C:/Users/lenovo/Desktop/liteos/Project2/BearPi_LiteOS/components/connectivity/agent_tiny/atiny_lwm2m\object_server.c ****     case LWM2M_SERVER_STORING_ID:
 116:C:/Users/lenovo/Desktop/liteos/Project2/BearPi_LiteOS/components/connectivity/agent_tiny/atiny_lwm2m\object_server.c ****         lwm2m_data_encode_bool(targetP->storing, dataP);
 117:C:/Users/lenovo/Desktop/liteos/Project2/BearPi_LiteOS/components/connectivity/agent_tiny/atiny_lwm2m\object_server.c ****         return COAP_205_CONTENT;
 118:C:/Users/lenovo/Desktop/liteos/Project2/BearPi_LiteOS/components/connectivity/agent_tiny/atiny_lwm2m\object_server.c **** 
 119:C:/Users/lenovo/Desktop/liteos/Project2/BearPi_LiteOS/components/connectivity/agent_tiny/atiny_lwm2m\object_server.c ****     case LWM2M_SERVER_BINDING_ID:
 120:C:/Users/lenovo/Desktop/liteos/Project2/BearPi_LiteOS/components/connectivity/agent_tiny/atiny_lwm2m\object_server.c ****         lwm2m_data_encode_string(targetP->binding, dataP);
 121:C:/Users/lenovo/Desktop/liteos/Project2/BearPi_LiteOS/components/connectivity/agent_tiny/atiny_lwm2m\object_server.c ****         return COAP_205_CONTENT;
 122:C:/Users/lenovo/Desktop/liteos/Project2/BearPi_LiteOS/components/connectivity/agent_tiny/atiny_lwm2m\object_server.c **** 
 123:C:/Users/lenovo/Desktop/liteos/Project2/BearPi_LiteOS/components/connectivity/agent_tiny/atiny_lwm2m\object_server.c ****     case LWM2M_SERVER_UPDATE_ID:
 124:C:/Users/lenovo/Desktop/liteos/Project2/BearPi_LiteOS/components/connectivity/agent_tiny/atiny_lwm2m\object_server.c ****         return COAP_405_METHOD_NOT_ALLOWED;
 125:C:/Users/lenovo/Desktop/liteos/Project2/BearPi_LiteOS/components/connectivity/agent_tiny/atiny_lwm2m\object_server.c **** 
 126:C:/Users/lenovo/Desktop/liteos/Project2/BearPi_LiteOS/components/connectivity/agent_tiny/atiny_lwm2m\object_server.c ****     default:
 127:C:/Users/lenovo/Desktop/liteos/Project2/BearPi_LiteOS/components/connectivity/agent_tiny/atiny_lwm2m\object_server.c ****         return COAP_404_NOT_FOUND;
 128:C:/Users/lenovo/Desktop/liteos/Project2/BearPi_LiteOS/components/connectivity/agent_tiny/atiny_lwm2m\object_server.c ****     }
 129:C:/Users/lenovo/Desktop/liteos/Project2/BearPi_LiteOS/components/connectivity/agent_tiny/atiny_lwm2m\object_server.c **** }
 130:C:/Users/lenovo/Desktop/liteos/Project2/BearPi_LiteOS/components/connectivity/agent_tiny/atiny_lwm2m\object_server.c **** 
 131:C:/Users/lenovo/Desktop/liteos/Project2/BearPi_LiteOS/components/connectivity/agent_tiny/atiny_lwm2m\object_server.c **** static uint8_t prv_server_read(uint16_t instanceId,
 132:C:/Users/lenovo/Desktop/liteos/Project2/BearPi_LiteOS/components/connectivity/agent_tiny/atiny_lwm2m\object_server.c ****                                int *numDataP,
 133:C:/Users/lenovo/Desktop/liteos/Project2/BearPi_LiteOS/components/connectivity/agent_tiny/atiny_lwm2m\object_server.c ****                                lwm2m_data_t **dataArrayP,
 134:C:/Users/lenovo/Desktop/liteos/Project2/BearPi_LiteOS/components/connectivity/agent_tiny/atiny_lwm2m\object_server.c ****                                lwm2m_data_cfg_t *dataCfg,
 135:C:/Users/lenovo/Desktop/liteos/Project2/BearPi_LiteOS/components/connectivity/agent_tiny/atiny_lwm2m\object_server.c ****                                lwm2m_object_t *objectP)
 136:C:/Users/lenovo/Desktop/liteos/Project2/BearPi_LiteOS/components/connectivity/agent_tiny/atiny_lwm2m\object_server.c **** {
 137:C:/Users/lenovo/Desktop/liteos/Project2/BearPi_LiteOS/components/connectivity/agent_tiny/atiny_lwm2m\object_server.c ****     server_instance_t *targetP;
 138:C:/Users/lenovo/Desktop/liteos/Project2/BearPi_LiteOS/components/connectivity/agent_tiny/atiny_lwm2m\object_server.c ****     uint8_t result;
 139:C:/Users/lenovo/Desktop/liteos/Project2/BearPi_LiteOS/components/connectivity/agent_tiny/atiny_lwm2m\object_server.c ****     int i;
 140:C:/Users/lenovo/Desktop/liteos/Project2/BearPi_LiteOS/components/connectivity/agent_tiny/atiny_lwm2m\object_server.c **** 
 141:C:/Users/lenovo/Desktop/liteos/Project2/BearPi_LiteOS/components/connectivity/agent_tiny/atiny_lwm2m\object_server.c ****     targetP = (server_instance_t *)lwm2m_list_find(objectP->instanceList, instanceId);
 142:C:/Users/lenovo/Desktop/liteos/Project2/BearPi_LiteOS/components/connectivity/agent_tiny/atiny_lwm2m\object_server.c ****     if (NULL == targetP) return COAP_404_NOT_FOUND;
 143:C:/Users/lenovo/Desktop/liteos/Project2/BearPi_LiteOS/components/connectivity/agent_tiny/atiny_lwm2m\object_server.c **** 
 144:C:/Users/lenovo/Desktop/liteos/Project2/BearPi_LiteOS/components/connectivity/agent_tiny/atiny_lwm2m\object_server.c ****     // is the server asking for the full instance ?
 145:C:/Users/lenovo/Desktop/liteos/Project2/BearPi_LiteOS/components/connectivity/agent_tiny/atiny_lwm2m\object_server.c ****     if (*numDataP == 0)
 146:C:/Users/lenovo/Desktop/liteos/Project2/BearPi_LiteOS/components/connectivity/agent_tiny/atiny_lwm2m\object_server.c ****     {
ARM GAS  c:\Users\lenovo\AppData\Local\Temp\cchOsOqP.s 			page 4


 147:C:/Users/lenovo/Desktop/liteos/Project2/BearPi_LiteOS/components/connectivity/agent_tiny/atiny_lwm2m\object_server.c ****         uint16_t resList[] =
 148:C:/Users/lenovo/Desktop/liteos/Project2/BearPi_LiteOS/components/connectivity/agent_tiny/atiny_lwm2m\object_server.c ****         {
 149:C:/Users/lenovo/Desktop/liteos/Project2/BearPi_LiteOS/components/connectivity/agent_tiny/atiny_lwm2m\object_server.c ****             LWM2M_SERVER_SHORT_ID_ID,
 150:C:/Users/lenovo/Desktop/liteos/Project2/BearPi_LiteOS/components/connectivity/agent_tiny/atiny_lwm2m\object_server.c ****             LWM2M_SERVER_LIFETIME_ID,
 151:C:/Users/lenovo/Desktop/liteos/Project2/BearPi_LiteOS/components/connectivity/agent_tiny/atiny_lwm2m\object_server.c ****             LWM2M_SERVER_MIN_PERIOD_ID,
 152:C:/Users/lenovo/Desktop/liteos/Project2/BearPi_LiteOS/components/connectivity/agent_tiny/atiny_lwm2m\object_server.c ****             LWM2M_SERVER_MAX_PERIOD_ID,
 153:C:/Users/lenovo/Desktop/liteos/Project2/BearPi_LiteOS/components/connectivity/agent_tiny/atiny_lwm2m\object_server.c ****             LWM2M_SERVER_TIMEOUT_ID,
 154:C:/Users/lenovo/Desktop/liteos/Project2/BearPi_LiteOS/components/connectivity/agent_tiny/atiny_lwm2m\object_server.c ****             LWM2M_SERVER_STORING_ID,
 155:C:/Users/lenovo/Desktop/liteos/Project2/BearPi_LiteOS/components/connectivity/agent_tiny/atiny_lwm2m\object_server.c ****             LWM2M_SERVER_BINDING_ID
 156:C:/Users/lenovo/Desktop/liteos/Project2/BearPi_LiteOS/components/connectivity/agent_tiny/atiny_lwm2m\object_server.c ****         };
 157:C:/Users/lenovo/Desktop/liteos/Project2/BearPi_LiteOS/components/connectivity/agent_tiny/atiny_lwm2m\object_server.c ****         int nbRes = sizeof(resList) / sizeof(uint16_t);
 158:C:/Users/lenovo/Desktop/liteos/Project2/BearPi_LiteOS/components/connectivity/agent_tiny/atiny_lwm2m\object_server.c **** 
 159:C:/Users/lenovo/Desktop/liteos/Project2/BearPi_LiteOS/components/connectivity/agent_tiny/atiny_lwm2m\object_server.c ****         *dataArrayP = lwm2m_data_new(nbRes);
 160:C:/Users/lenovo/Desktop/liteos/Project2/BearPi_LiteOS/components/connectivity/agent_tiny/atiny_lwm2m\object_server.c ****         if (*dataArrayP == NULL) return COAP_500_INTERNAL_SERVER_ERROR;
 161:C:/Users/lenovo/Desktop/liteos/Project2/BearPi_LiteOS/components/connectivity/agent_tiny/atiny_lwm2m\object_server.c ****         *numDataP = nbRes;
 162:C:/Users/lenovo/Desktop/liteos/Project2/BearPi_LiteOS/components/connectivity/agent_tiny/atiny_lwm2m\object_server.c ****         for (i = 0 ; i < nbRes ; i++)
 163:C:/Users/lenovo/Desktop/liteos/Project2/BearPi_LiteOS/components/connectivity/agent_tiny/atiny_lwm2m\object_server.c ****         {
 164:C:/Users/lenovo/Desktop/liteos/Project2/BearPi_LiteOS/components/connectivity/agent_tiny/atiny_lwm2m\object_server.c ****             (*dataArrayP)[i].id = resList[i];
 165:C:/Users/lenovo/Desktop/liteos/Project2/BearPi_LiteOS/components/connectivity/agent_tiny/atiny_lwm2m\object_server.c ****         }
 166:C:/Users/lenovo/Desktop/liteos/Project2/BearPi_LiteOS/components/connectivity/agent_tiny/atiny_lwm2m\object_server.c ****     }
 167:C:/Users/lenovo/Desktop/liteos/Project2/BearPi_LiteOS/components/connectivity/agent_tiny/atiny_lwm2m\object_server.c **** 
 168:C:/Users/lenovo/Desktop/liteos/Project2/BearPi_LiteOS/components/connectivity/agent_tiny/atiny_lwm2m\object_server.c ****     i = 0;
 169:C:/Users/lenovo/Desktop/liteos/Project2/BearPi_LiteOS/components/connectivity/agent_tiny/atiny_lwm2m\object_server.c ****     do
 170:C:/Users/lenovo/Desktop/liteos/Project2/BearPi_LiteOS/components/connectivity/agent_tiny/atiny_lwm2m\object_server.c ****     {
 171:C:/Users/lenovo/Desktop/liteos/Project2/BearPi_LiteOS/components/connectivity/agent_tiny/atiny_lwm2m\object_server.c ****         result = prv_get_value((*dataArrayP) + i, targetP);
 172:C:/Users/lenovo/Desktop/liteos/Project2/BearPi_LiteOS/components/connectivity/agent_tiny/atiny_lwm2m\object_server.c ****         i++;
 173:C:/Users/lenovo/Desktop/liteos/Project2/BearPi_LiteOS/components/connectivity/agent_tiny/atiny_lwm2m\object_server.c ****     }
 174:C:/Users/lenovo/Desktop/liteos/Project2/BearPi_LiteOS/components/connectivity/agent_tiny/atiny_lwm2m\object_server.c ****     while (i < *numDataP && result == COAP_205_CONTENT);
 175:C:/Users/lenovo/Desktop/liteos/Project2/BearPi_LiteOS/components/connectivity/agent_tiny/atiny_lwm2m\object_server.c **** 
 176:C:/Users/lenovo/Desktop/liteos/Project2/BearPi_LiteOS/components/connectivity/agent_tiny/atiny_lwm2m\object_server.c ****     return result;
 177:C:/Users/lenovo/Desktop/liteos/Project2/BearPi_LiteOS/components/connectivity/agent_tiny/atiny_lwm2m\object_server.c **** }
 178:C:/Users/lenovo/Desktop/liteos/Project2/BearPi_LiteOS/components/connectivity/agent_tiny/atiny_lwm2m\object_server.c **** 
 179:C:/Users/lenovo/Desktop/liteos/Project2/BearPi_LiteOS/components/connectivity/agent_tiny/atiny_lwm2m\object_server.c **** static uint8_t prv_server_discover(uint16_t instanceId,
 180:C:/Users/lenovo/Desktop/liteos/Project2/BearPi_LiteOS/components/connectivity/agent_tiny/atiny_lwm2m\object_server.c ****                                    int *numDataP,
 181:C:/Users/lenovo/Desktop/liteos/Project2/BearPi_LiteOS/components/connectivity/agent_tiny/atiny_lwm2m\object_server.c ****                                    lwm2m_data_t **dataArrayP,
 182:C:/Users/lenovo/Desktop/liteos/Project2/BearPi_LiteOS/components/connectivity/agent_tiny/atiny_lwm2m\object_server.c ****                                    lwm2m_object_t *objectP)
 183:C:/Users/lenovo/Desktop/liteos/Project2/BearPi_LiteOS/components/connectivity/agent_tiny/atiny_lwm2m\object_server.c **** {
 184:C:/Users/lenovo/Desktop/liteos/Project2/BearPi_LiteOS/components/connectivity/agent_tiny/atiny_lwm2m\object_server.c ****     uint8_t result;
 185:C:/Users/lenovo/Desktop/liteos/Project2/BearPi_LiteOS/components/connectivity/agent_tiny/atiny_lwm2m\object_server.c ****     int i;
 186:C:/Users/lenovo/Desktop/liteos/Project2/BearPi_LiteOS/components/connectivity/agent_tiny/atiny_lwm2m\object_server.c **** 
 187:C:/Users/lenovo/Desktop/liteos/Project2/BearPi_LiteOS/components/connectivity/agent_tiny/atiny_lwm2m\object_server.c ****     result = COAP_205_CONTENT;
 188:C:/Users/lenovo/Desktop/liteos/Project2/BearPi_LiteOS/components/connectivity/agent_tiny/atiny_lwm2m\object_server.c **** 
 189:C:/Users/lenovo/Desktop/liteos/Project2/BearPi_LiteOS/components/connectivity/agent_tiny/atiny_lwm2m\object_server.c ****     // is the server asking for the full object ?
 190:C:/Users/lenovo/Desktop/liteos/Project2/BearPi_LiteOS/components/connectivity/agent_tiny/atiny_lwm2m\object_server.c ****     if (*numDataP == 0)
 191:C:/Users/lenovo/Desktop/liteos/Project2/BearPi_LiteOS/components/connectivity/agent_tiny/atiny_lwm2m\object_server.c ****     {
 192:C:/Users/lenovo/Desktop/liteos/Project2/BearPi_LiteOS/components/connectivity/agent_tiny/atiny_lwm2m\object_server.c ****         uint16_t resList[] =
 193:C:/Users/lenovo/Desktop/liteos/Project2/BearPi_LiteOS/components/connectivity/agent_tiny/atiny_lwm2m\object_server.c ****         {
 194:C:/Users/lenovo/Desktop/liteos/Project2/BearPi_LiteOS/components/connectivity/agent_tiny/atiny_lwm2m\object_server.c ****             LWM2M_SERVER_SHORT_ID_ID,
 195:C:/Users/lenovo/Desktop/liteos/Project2/BearPi_LiteOS/components/connectivity/agent_tiny/atiny_lwm2m\object_server.c ****             LWM2M_SERVER_LIFETIME_ID,
 196:C:/Users/lenovo/Desktop/liteos/Project2/BearPi_LiteOS/components/connectivity/agent_tiny/atiny_lwm2m\object_server.c ****             LWM2M_SERVER_MIN_PERIOD_ID,
 197:C:/Users/lenovo/Desktop/liteos/Project2/BearPi_LiteOS/components/connectivity/agent_tiny/atiny_lwm2m\object_server.c ****             LWM2M_SERVER_MAX_PERIOD_ID,
 198:C:/Users/lenovo/Desktop/liteos/Project2/BearPi_LiteOS/components/connectivity/agent_tiny/atiny_lwm2m\object_server.c ****             LWM2M_SERVER_DISABLE_ID,
 199:C:/Users/lenovo/Desktop/liteos/Project2/BearPi_LiteOS/components/connectivity/agent_tiny/atiny_lwm2m\object_server.c ****             LWM2M_SERVER_TIMEOUT_ID,
 200:C:/Users/lenovo/Desktop/liteos/Project2/BearPi_LiteOS/components/connectivity/agent_tiny/atiny_lwm2m\object_server.c ****             LWM2M_SERVER_STORING_ID,
 201:C:/Users/lenovo/Desktop/liteos/Project2/BearPi_LiteOS/components/connectivity/agent_tiny/atiny_lwm2m\object_server.c ****             LWM2M_SERVER_BINDING_ID,
 202:C:/Users/lenovo/Desktop/liteos/Project2/BearPi_LiteOS/components/connectivity/agent_tiny/atiny_lwm2m\object_server.c ****             LWM2M_SERVER_UPDATE_ID
 203:C:/Users/lenovo/Desktop/liteos/Project2/BearPi_LiteOS/components/connectivity/agent_tiny/atiny_lwm2m\object_server.c ****         };
ARM GAS  c:\Users\lenovo\AppData\Local\Temp\cchOsOqP.s 			page 5


 204:C:/Users/lenovo/Desktop/liteos/Project2/BearPi_LiteOS/components/connectivity/agent_tiny/atiny_lwm2m\object_server.c ****         int nbRes = sizeof(resList) / sizeof(uint16_t);
 205:C:/Users/lenovo/Desktop/liteos/Project2/BearPi_LiteOS/components/connectivity/agent_tiny/atiny_lwm2m\object_server.c **** 
 206:C:/Users/lenovo/Desktop/liteos/Project2/BearPi_LiteOS/components/connectivity/agent_tiny/atiny_lwm2m\object_server.c ****         *dataArrayP = lwm2m_data_new(nbRes);
 207:C:/Users/lenovo/Desktop/liteos/Project2/BearPi_LiteOS/components/connectivity/agent_tiny/atiny_lwm2m\object_server.c ****         if (*dataArrayP == NULL) return COAP_500_INTERNAL_SERVER_ERROR;
 208:C:/Users/lenovo/Desktop/liteos/Project2/BearPi_LiteOS/components/connectivity/agent_tiny/atiny_lwm2m\object_server.c ****         *numDataP = nbRes;
 209:C:/Users/lenovo/Desktop/liteos/Project2/BearPi_LiteOS/components/connectivity/agent_tiny/atiny_lwm2m\object_server.c ****         for (i = 0; i < nbRes; i++)
 210:C:/Users/lenovo/Desktop/liteos/Project2/BearPi_LiteOS/components/connectivity/agent_tiny/atiny_lwm2m\object_server.c ****         {
 211:C:/Users/lenovo/Desktop/liteos/Project2/BearPi_LiteOS/components/connectivity/agent_tiny/atiny_lwm2m\object_server.c ****             (*dataArrayP)[i].id = resList[i];
 212:C:/Users/lenovo/Desktop/liteos/Project2/BearPi_LiteOS/components/connectivity/agent_tiny/atiny_lwm2m\object_server.c ****         }
 213:C:/Users/lenovo/Desktop/liteos/Project2/BearPi_LiteOS/components/connectivity/agent_tiny/atiny_lwm2m\object_server.c ****     }
 214:C:/Users/lenovo/Desktop/liteos/Project2/BearPi_LiteOS/components/connectivity/agent_tiny/atiny_lwm2m\object_server.c ****     else
 215:C:/Users/lenovo/Desktop/liteos/Project2/BearPi_LiteOS/components/connectivity/agent_tiny/atiny_lwm2m\object_server.c ****     {
 216:C:/Users/lenovo/Desktop/liteos/Project2/BearPi_LiteOS/components/connectivity/agent_tiny/atiny_lwm2m\object_server.c ****         for (i = 0; i < *numDataP && result == COAP_205_CONTENT; i++)
 217:C:/Users/lenovo/Desktop/liteos/Project2/BearPi_LiteOS/components/connectivity/agent_tiny/atiny_lwm2m\object_server.c ****         {
 218:C:/Users/lenovo/Desktop/liteos/Project2/BearPi_LiteOS/components/connectivity/agent_tiny/atiny_lwm2m\object_server.c ****             switch ((*dataArrayP)[i].id)
 219:C:/Users/lenovo/Desktop/liteos/Project2/BearPi_LiteOS/components/connectivity/agent_tiny/atiny_lwm2m\object_server.c ****             {
 220:C:/Users/lenovo/Desktop/liteos/Project2/BearPi_LiteOS/components/connectivity/agent_tiny/atiny_lwm2m\object_server.c ****             case LWM2M_SERVER_SHORT_ID_ID:
 221:C:/Users/lenovo/Desktop/liteos/Project2/BearPi_LiteOS/components/connectivity/agent_tiny/atiny_lwm2m\object_server.c ****             case LWM2M_SERVER_LIFETIME_ID:
 222:C:/Users/lenovo/Desktop/liteos/Project2/BearPi_LiteOS/components/connectivity/agent_tiny/atiny_lwm2m\object_server.c ****             case LWM2M_SERVER_MIN_PERIOD_ID:
 223:C:/Users/lenovo/Desktop/liteos/Project2/BearPi_LiteOS/components/connectivity/agent_tiny/atiny_lwm2m\object_server.c ****             case LWM2M_SERVER_MAX_PERIOD_ID:
 224:C:/Users/lenovo/Desktop/liteos/Project2/BearPi_LiteOS/components/connectivity/agent_tiny/atiny_lwm2m\object_server.c ****             case LWM2M_SERVER_DISABLE_ID:
 225:C:/Users/lenovo/Desktop/liteos/Project2/BearPi_LiteOS/components/connectivity/agent_tiny/atiny_lwm2m\object_server.c ****             case LWM2M_SERVER_TIMEOUT_ID:
 226:C:/Users/lenovo/Desktop/liteos/Project2/BearPi_LiteOS/components/connectivity/agent_tiny/atiny_lwm2m\object_server.c ****             case LWM2M_SERVER_STORING_ID:
 227:C:/Users/lenovo/Desktop/liteos/Project2/BearPi_LiteOS/components/connectivity/agent_tiny/atiny_lwm2m\object_server.c ****             case LWM2M_SERVER_BINDING_ID:
 228:C:/Users/lenovo/Desktop/liteos/Project2/BearPi_LiteOS/components/connectivity/agent_tiny/atiny_lwm2m\object_server.c ****             case LWM2M_SERVER_UPDATE_ID:
 229:C:/Users/lenovo/Desktop/liteos/Project2/BearPi_LiteOS/components/connectivity/agent_tiny/atiny_lwm2m\object_server.c ****                 break;
 230:C:/Users/lenovo/Desktop/liteos/Project2/BearPi_LiteOS/components/connectivity/agent_tiny/atiny_lwm2m\object_server.c ****             default:
 231:C:/Users/lenovo/Desktop/liteos/Project2/BearPi_LiteOS/components/connectivity/agent_tiny/atiny_lwm2m\object_server.c ****                 result = COAP_404_NOT_FOUND;
 232:C:/Users/lenovo/Desktop/liteos/Project2/BearPi_LiteOS/components/connectivity/agent_tiny/atiny_lwm2m\object_server.c ****             }
 233:C:/Users/lenovo/Desktop/liteos/Project2/BearPi_LiteOS/components/connectivity/agent_tiny/atiny_lwm2m\object_server.c ****         }
 234:C:/Users/lenovo/Desktop/liteos/Project2/BearPi_LiteOS/components/connectivity/agent_tiny/atiny_lwm2m\object_server.c ****     }
 235:C:/Users/lenovo/Desktop/liteos/Project2/BearPi_LiteOS/components/connectivity/agent_tiny/atiny_lwm2m\object_server.c **** 
 236:C:/Users/lenovo/Desktop/liteos/Project2/BearPi_LiteOS/components/connectivity/agent_tiny/atiny_lwm2m\object_server.c ****     return result;
 237:C:/Users/lenovo/Desktop/liteos/Project2/BearPi_LiteOS/components/connectivity/agent_tiny/atiny_lwm2m\object_server.c **** }
 238:C:/Users/lenovo/Desktop/liteos/Project2/BearPi_LiteOS/components/connectivity/agent_tiny/atiny_lwm2m\object_server.c **** 
 239:C:/Users/lenovo/Desktop/liteos/Project2/BearPi_LiteOS/components/connectivity/agent_tiny/atiny_lwm2m\object_server.c **** static uint8_t prv_set_int_value(lwm2m_data_t *dataArray, uint32_t *data)
 240:C:/Users/lenovo/Desktop/liteos/Project2/BearPi_LiteOS/components/connectivity/agent_tiny/atiny_lwm2m\object_server.c **** {
 241:C:/Users/lenovo/Desktop/liteos/Project2/BearPi_LiteOS/components/connectivity/agent_tiny/atiny_lwm2m\object_server.c ****     uint8_t result;
 242:C:/Users/lenovo/Desktop/liteos/Project2/BearPi_LiteOS/components/connectivity/agent_tiny/atiny_lwm2m\object_server.c ****     int64_t value;
 243:C:/Users/lenovo/Desktop/liteos/Project2/BearPi_LiteOS/components/connectivity/agent_tiny/atiny_lwm2m\object_server.c **** 
 244:C:/Users/lenovo/Desktop/liteos/Project2/BearPi_LiteOS/components/connectivity/agent_tiny/atiny_lwm2m\object_server.c ****     if (1 == lwm2m_data_decode_int(dataArray, &value))
 245:C:/Users/lenovo/Desktop/liteos/Project2/BearPi_LiteOS/components/connectivity/agent_tiny/atiny_lwm2m\object_server.c ****     {
 246:C:/Users/lenovo/Desktop/liteos/Project2/BearPi_LiteOS/components/connectivity/agent_tiny/atiny_lwm2m\object_server.c ****         if (value >= 0 && value <= 0xFFFFFFFF)
 247:C:/Users/lenovo/Desktop/liteos/Project2/BearPi_LiteOS/components/connectivity/agent_tiny/atiny_lwm2m\object_server.c ****         {
 248:C:/Users/lenovo/Desktop/liteos/Project2/BearPi_LiteOS/components/connectivity/agent_tiny/atiny_lwm2m\object_server.c ****             *data = value;
 249:C:/Users/lenovo/Desktop/liteos/Project2/BearPi_LiteOS/components/connectivity/agent_tiny/atiny_lwm2m\object_server.c ****             result = COAP_204_CHANGED;
 250:C:/Users/lenovo/Desktop/liteos/Project2/BearPi_LiteOS/components/connectivity/agent_tiny/atiny_lwm2m\object_server.c ****         }
 251:C:/Users/lenovo/Desktop/liteos/Project2/BearPi_LiteOS/components/connectivity/agent_tiny/atiny_lwm2m\object_server.c ****         else
 252:C:/Users/lenovo/Desktop/liteos/Project2/BearPi_LiteOS/components/connectivity/agent_tiny/atiny_lwm2m\object_server.c ****         {
 253:C:/Users/lenovo/Desktop/liteos/Project2/BearPi_LiteOS/components/connectivity/agent_tiny/atiny_lwm2m\object_server.c ****             result = COAP_406_NOT_ACCEPTABLE;
 254:C:/Users/lenovo/Desktop/liteos/Project2/BearPi_LiteOS/components/connectivity/agent_tiny/atiny_lwm2m\object_server.c ****         }
 255:C:/Users/lenovo/Desktop/liteos/Project2/BearPi_LiteOS/components/connectivity/agent_tiny/atiny_lwm2m\object_server.c ****     }
 256:C:/Users/lenovo/Desktop/liteos/Project2/BearPi_LiteOS/components/connectivity/agent_tiny/atiny_lwm2m\object_server.c ****     else
 257:C:/Users/lenovo/Desktop/liteos/Project2/BearPi_LiteOS/components/connectivity/agent_tiny/atiny_lwm2m\object_server.c ****     {
 258:C:/Users/lenovo/Desktop/liteos/Project2/BearPi_LiteOS/components/connectivity/agent_tiny/atiny_lwm2m\object_server.c ****         result = COAP_400_BAD_REQUEST;
 259:C:/Users/lenovo/Desktop/liteos/Project2/BearPi_LiteOS/components/connectivity/agent_tiny/atiny_lwm2m\object_server.c ****     }
 260:C:/Users/lenovo/Desktop/liteos/Project2/BearPi_LiteOS/components/connectivity/agent_tiny/atiny_lwm2m\object_server.c ****     return result;
ARM GAS  c:\Users\lenovo\AppData\Local\Temp\cchOsOqP.s 			page 6


 261:C:/Users/lenovo/Desktop/liteos/Project2/BearPi_LiteOS/components/connectivity/agent_tiny/atiny_lwm2m\object_server.c **** }
 262:C:/Users/lenovo/Desktop/liteos/Project2/BearPi_LiteOS/components/connectivity/agent_tiny/atiny_lwm2m\object_server.c **** 
 263:C:/Users/lenovo/Desktop/liteos/Project2/BearPi_LiteOS/components/connectivity/agent_tiny/atiny_lwm2m\object_server.c **** bool prv_server_check_binding_valid(const char *binding, size_t size)
 264:C:/Users/lenovo/Desktop/liteos/Project2/BearPi_LiteOS/components/connectivity/agent_tiny/atiny_lwm2m\object_server.c **** {
 265:C:/Users/lenovo/Desktop/liteos/Project2/BearPi_LiteOS/components/connectivity/agent_tiny/atiny_lwm2m\object_server.c ****     if (binding != NULL && (strncmp(binding, "U", size) == 0
 266:C:/Users/lenovo/Desktop/liteos/Project2/BearPi_LiteOS/components/connectivity/agent_tiny/atiny_lwm2m\object_server.c ****             || strncmp(binding, "UQ", size) == 0
 267:C:/Users/lenovo/Desktop/liteos/Project2/BearPi_LiteOS/components/connectivity/agent_tiny/atiny_lwm2m\object_server.c ****             || strncmp(binding, "S", size) == 0
 268:C:/Users/lenovo/Desktop/liteos/Project2/BearPi_LiteOS/components/connectivity/agent_tiny/atiny_lwm2m\object_server.c ****             || strncmp(binding, "SQ", size) == 0
 269:C:/Users/lenovo/Desktop/liteos/Project2/BearPi_LiteOS/components/connectivity/agent_tiny/atiny_lwm2m\object_server.c ****             || strncmp(binding, "US", size) == 0
 270:C:/Users/lenovo/Desktop/liteos/Project2/BearPi_LiteOS/components/connectivity/agent_tiny/atiny_lwm2m\object_server.c ****             || strncmp(binding, "UQS", size) == 0))
 271:C:/Users/lenovo/Desktop/liteos/Project2/BearPi_LiteOS/components/connectivity/agent_tiny/atiny_lwm2m\object_server.c ****     {
 272:C:/Users/lenovo/Desktop/liteos/Project2/BearPi_LiteOS/components/connectivity/agent_tiny/atiny_lwm2m\object_server.c ****         return true;
 273:C:/Users/lenovo/Desktop/liteos/Project2/BearPi_LiteOS/components/connectivity/agent_tiny/atiny_lwm2m\object_server.c ****     }
 274:C:/Users/lenovo/Desktop/liteos/Project2/BearPi_LiteOS/components/connectivity/agent_tiny/atiny_lwm2m\object_server.c ****     else
 275:C:/Users/lenovo/Desktop/liteos/Project2/BearPi_LiteOS/components/connectivity/agent_tiny/atiny_lwm2m\object_server.c ****     {
 276:C:/Users/lenovo/Desktop/liteos/Project2/BearPi_LiteOS/components/connectivity/agent_tiny/atiny_lwm2m\object_server.c ****         return false;
 277:C:/Users/lenovo/Desktop/liteos/Project2/BearPi_LiteOS/components/connectivity/agent_tiny/atiny_lwm2m\object_server.c ****     }
 278:C:/Users/lenovo/Desktop/liteos/Project2/BearPi_LiteOS/components/connectivity/agent_tiny/atiny_lwm2m\object_server.c **** }
 279:C:/Users/lenovo/Desktop/liteos/Project2/BearPi_LiteOS/components/connectivity/agent_tiny/atiny_lwm2m\object_server.c **** static uint8_t prv_server_write(uint16_t instanceId,
 280:C:/Users/lenovo/Desktop/liteos/Project2/BearPi_LiteOS/components/connectivity/agent_tiny/atiny_lwm2m\object_server.c ****                                 int numData,
 281:C:/Users/lenovo/Desktop/liteos/Project2/BearPi_LiteOS/components/connectivity/agent_tiny/atiny_lwm2m\object_server.c ****                                 lwm2m_data_t *dataArray,
 282:C:/Users/lenovo/Desktop/liteos/Project2/BearPi_LiteOS/components/connectivity/agent_tiny/atiny_lwm2m\object_server.c ****                                 lwm2m_object_t *objectP)
 283:C:/Users/lenovo/Desktop/liteos/Project2/BearPi_LiteOS/components/connectivity/agent_tiny/atiny_lwm2m\object_server.c **** {
 284:C:/Users/lenovo/Desktop/liteos/Project2/BearPi_LiteOS/components/connectivity/agent_tiny/atiny_lwm2m\object_server.c ****     server_instance_t *targetP;
 285:C:/Users/lenovo/Desktop/liteos/Project2/BearPi_LiteOS/components/connectivity/agent_tiny/atiny_lwm2m\object_server.c ****     int i;
 286:C:/Users/lenovo/Desktop/liteos/Project2/BearPi_LiteOS/components/connectivity/agent_tiny/atiny_lwm2m\object_server.c ****     uint8_t result;
 287:C:/Users/lenovo/Desktop/liteos/Project2/BearPi_LiteOS/components/connectivity/agent_tiny/atiny_lwm2m\object_server.c **** 
 288:C:/Users/lenovo/Desktop/liteos/Project2/BearPi_LiteOS/components/connectivity/agent_tiny/atiny_lwm2m\object_server.c ****     targetP = (server_instance_t *)lwm2m_list_find(objectP->instanceList, instanceId);
 289:C:/Users/lenovo/Desktop/liteos/Project2/BearPi_LiteOS/components/connectivity/agent_tiny/atiny_lwm2m\object_server.c ****     if (NULL == targetP)
 290:C:/Users/lenovo/Desktop/liteos/Project2/BearPi_LiteOS/components/connectivity/agent_tiny/atiny_lwm2m\object_server.c ****     {
 291:C:/Users/lenovo/Desktop/liteos/Project2/BearPi_LiteOS/components/connectivity/agent_tiny/atiny_lwm2m\object_server.c ****         return COAP_404_NOT_FOUND;
 292:C:/Users/lenovo/Desktop/liteos/Project2/BearPi_LiteOS/components/connectivity/agent_tiny/atiny_lwm2m\object_server.c ****     }
 293:C:/Users/lenovo/Desktop/liteos/Project2/BearPi_LiteOS/components/connectivity/agent_tiny/atiny_lwm2m\object_server.c **** 
 294:C:/Users/lenovo/Desktop/liteos/Project2/BearPi_LiteOS/components/connectivity/agent_tiny/atiny_lwm2m\object_server.c ****     i = 0;
 295:C:/Users/lenovo/Desktop/liteos/Project2/BearPi_LiteOS/components/connectivity/agent_tiny/atiny_lwm2m\object_server.c ****     do
 296:C:/Users/lenovo/Desktop/liteos/Project2/BearPi_LiteOS/components/connectivity/agent_tiny/atiny_lwm2m\object_server.c ****     {
 297:C:/Users/lenovo/Desktop/liteos/Project2/BearPi_LiteOS/components/connectivity/agent_tiny/atiny_lwm2m\object_server.c ****         switch (dataArray[i].id)
 298:C:/Users/lenovo/Desktop/liteos/Project2/BearPi_LiteOS/components/connectivity/agent_tiny/atiny_lwm2m\object_server.c ****         {
 299:C:/Users/lenovo/Desktop/liteos/Project2/BearPi_LiteOS/components/connectivity/agent_tiny/atiny_lwm2m\object_server.c ****         case LWM2M_SERVER_SHORT_ID_ID:
 300:C:/Users/lenovo/Desktop/liteos/Project2/BearPi_LiteOS/components/connectivity/agent_tiny/atiny_lwm2m\object_server.c ****         {
 301:C:/Users/lenovo/Desktop/liteos/Project2/BearPi_LiteOS/components/connectivity/agent_tiny/atiny_lwm2m\object_server.c ****             uint32_t value = targetP->shortServerId;
 302:C:/Users/lenovo/Desktop/liteos/Project2/BearPi_LiteOS/components/connectivity/agent_tiny/atiny_lwm2m\object_server.c ****             result = prv_set_int_value(dataArray + i, &value);
 303:C:/Users/lenovo/Desktop/liteos/Project2/BearPi_LiteOS/components/connectivity/agent_tiny/atiny_lwm2m\object_server.c ****             if (COAP_204_CHANGED == result)
 304:C:/Users/lenovo/Desktop/liteos/Project2/BearPi_LiteOS/components/connectivity/agent_tiny/atiny_lwm2m\object_server.c ****             {
 305:C:/Users/lenovo/Desktop/liteos/Project2/BearPi_LiteOS/components/connectivity/agent_tiny/atiny_lwm2m\object_server.c ****                 if (0 < value && 0xFFFF >= value)
 306:C:/Users/lenovo/Desktop/liteos/Project2/BearPi_LiteOS/components/connectivity/agent_tiny/atiny_lwm2m\object_server.c ****                 {
 307:C:/Users/lenovo/Desktop/liteos/Project2/BearPi_LiteOS/components/connectivity/agent_tiny/atiny_lwm2m\object_server.c ****                     targetP->shortServerId = value;
 308:C:/Users/lenovo/Desktop/liteos/Project2/BearPi_LiteOS/components/connectivity/agent_tiny/atiny_lwm2m\object_server.c ****                 }
 309:C:/Users/lenovo/Desktop/liteos/Project2/BearPi_LiteOS/components/connectivity/agent_tiny/atiny_lwm2m\object_server.c ****                 else
 310:C:/Users/lenovo/Desktop/liteos/Project2/BearPi_LiteOS/components/connectivity/agent_tiny/atiny_lwm2m\object_server.c ****                 {
 311:C:/Users/lenovo/Desktop/liteos/Project2/BearPi_LiteOS/components/connectivity/agent_tiny/atiny_lwm2m\object_server.c ****                     result = COAP_406_NOT_ACCEPTABLE;
 312:C:/Users/lenovo/Desktop/liteos/Project2/BearPi_LiteOS/components/connectivity/agent_tiny/atiny_lwm2m\object_server.c ****                 }
 313:C:/Users/lenovo/Desktop/liteos/Project2/BearPi_LiteOS/components/connectivity/agent_tiny/atiny_lwm2m\object_server.c ****             }
 314:C:/Users/lenovo/Desktop/liteos/Project2/BearPi_LiteOS/components/connectivity/agent_tiny/atiny_lwm2m\object_server.c ****         }
 315:C:/Users/lenovo/Desktop/liteos/Project2/BearPi_LiteOS/components/connectivity/agent_tiny/atiny_lwm2m\object_server.c ****         break;
 316:C:/Users/lenovo/Desktop/liteos/Project2/BearPi_LiteOS/components/connectivity/agent_tiny/atiny_lwm2m\object_server.c **** 
 317:C:/Users/lenovo/Desktop/liteos/Project2/BearPi_LiteOS/components/connectivity/agent_tiny/atiny_lwm2m\object_server.c ****         case LWM2M_SERVER_LIFETIME_ID:
ARM GAS  c:\Users\lenovo\AppData\Local\Temp\cchOsOqP.s 			page 7


 318:C:/Users/lenovo/Desktop/liteos/Project2/BearPi_LiteOS/components/connectivity/agent_tiny/atiny_lwm2m\object_server.c ****             result = prv_set_int_value(dataArray + i, (uint32_t *) & (targetP->lifetime));
 319:C:/Users/lenovo/Desktop/liteos/Project2/BearPi_LiteOS/components/connectivity/agent_tiny/atiny_lwm2m\object_server.c ****             break;
 320:C:/Users/lenovo/Desktop/liteos/Project2/BearPi_LiteOS/components/connectivity/agent_tiny/atiny_lwm2m\object_server.c **** 
 321:C:/Users/lenovo/Desktop/liteos/Project2/BearPi_LiteOS/components/connectivity/agent_tiny/atiny_lwm2m\object_server.c ****         case LWM2M_SERVER_MIN_PERIOD_ID:
 322:C:/Users/lenovo/Desktop/liteos/Project2/BearPi_LiteOS/components/connectivity/agent_tiny/atiny_lwm2m\object_server.c ****             result = prv_set_int_value(dataArray + i, &(targetP->defaultMinPeriod));
 323:C:/Users/lenovo/Desktop/liteos/Project2/BearPi_LiteOS/components/connectivity/agent_tiny/atiny_lwm2m\object_server.c ****             break;
 324:C:/Users/lenovo/Desktop/liteos/Project2/BearPi_LiteOS/components/connectivity/agent_tiny/atiny_lwm2m\object_server.c **** 
 325:C:/Users/lenovo/Desktop/liteos/Project2/BearPi_LiteOS/components/connectivity/agent_tiny/atiny_lwm2m\object_server.c ****         case LWM2M_SERVER_MAX_PERIOD_ID:
 326:C:/Users/lenovo/Desktop/liteos/Project2/BearPi_LiteOS/components/connectivity/agent_tiny/atiny_lwm2m\object_server.c ****             result = prv_set_int_value(dataArray + i, &(targetP->defaultMaxPeriod));
 327:C:/Users/lenovo/Desktop/liteos/Project2/BearPi_LiteOS/components/connectivity/agent_tiny/atiny_lwm2m\object_server.c ****             break;
 328:C:/Users/lenovo/Desktop/liteos/Project2/BearPi_LiteOS/components/connectivity/agent_tiny/atiny_lwm2m\object_server.c **** 
 329:C:/Users/lenovo/Desktop/liteos/Project2/BearPi_LiteOS/components/connectivity/agent_tiny/atiny_lwm2m\object_server.c ****         case LWM2M_SERVER_DISABLE_ID:
 330:C:/Users/lenovo/Desktop/liteos/Project2/BearPi_LiteOS/components/connectivity/agent_tiny/atiny_lwm2m\object_server.c ****             result = COAP_405_METHOD_NOT_ALLOWED;
 331:C:/Users/lenovo/Desktop/liteos/Project2/BearPi_LiteOS/components/connectivity/agent_tiny/atiny_lwm2m\object_server.c ****             break;
 332:C:/Users/lenovo/Desktop/liteos/Project2/BearPi_LiteOS/components/connectivity/agent_tiny/atiny_lwm2m\object_server.c **** 
 333:C:/Users/lenovo/Desktop/liteos/Project2/BearPi_LiteOS/components/connectivity/agent_tiny/atiny_lwm2m\object_server.c ****         case LWM2M_SERVER_TIMEOUT_ID:
 334:C:/Users/lenovo/Desktop/liteos/Project2/BearPi_LiteOS/components/connectivity/agent_tiny/atiny_lwm2m\object_server.c ****             result = prv_set_int_value(dataArray + i, &(targetP->disableTimeout));
 335:C:/Users/lenovo/Desktop/liteos/Project2/BearPi_LiteOS/components/connectivity/agent_tiny/atiny_lwm2m\object_server.c ****             break;
 336:C:/Users/lenovo/Desktop/liteos/Project2/BearPi_LiteOS/components/connectivity/agent_tiny/atiny_lwm2m\object_server.c **** 
 337:C:/Users/lenovo/Desktop/liteos/Project2/BearPi_LiteOS/components/connectivity/agent_tiny/atiny_lwm2m\object_server.c ****         case LWM2M_SERVER_STORING_ID:
 338:C:/Users/lenovo/Desktop/liteos/Project2/BearPi_LiteOS/components/connectivity/agent_tiny/atiny_lwm2m\object_server.c ****         {
 339:C:/Users/lenovo/Desktop/liteos/Project2/BearPi_LiteOS/components/connectivity/agent_tiny/atiny_lwm2m\object_server.c ****             bool value;
 340:C:/Users/lenovo/Desktop/liteos/Project2/BearPi_LiteOS/components/connectivity/agent_tiny/atiny_lwm2m\object_server.c **** 
 341:C:/Users/lenovo/Desktop/liteos/Project2/BearPi_LiteOS/components/connectivity/agent_tiny/atiny_lwm2m\object_server.c ****             if (1 == lwm2m_data_decode_bool(dataArray + i, &value))
 342:C:/Users/lenovo/Desktop/liteos/Project2/BearPi_LiteOS/components/connectivity/agent_tiny/atiny_lwm2m\object_server.c ****             {
 343:C:/Users/lenovo/Desktop/liteos/Project2/BearPi_LiteOS/components/connectivity/agent_tiny/atiny_lwm2m\object_server.c ****                 targetP->storing = value;
 344:C:/Users/lenovo/Desktop/liteos/Project2/BearPi_LiteOS/components/connectivity/agent_tiny/atiny_lwm2m\object_server.c ****                 if(!value)
 345:C:/Users/lenovo/Desktop/liteos/Project2/BearPi_LiteOS/components/connectivity/agent_tiny/atiny_lwm2m\object_server.c ****                 {
 346:C:/Users/lenovo/Desktop/liteos/Project2/BearPi_LiteOS/components/connectivity/agent_tiny/atiny_lwm2m\object_server.c ****                     set_binary_app_data_object_rpt_max_cnt(value);
 347:C:/Users/lenovo/Desktop/liteos/Project2/BearPi_LiteOS/components/connectivity/agent_tiny/atiny_lwm2m\object_server.c ****                 }
 348:C:/Users/lenovo/Desktop/liteos/Project2/BearPi_LiteOS/components/connectivity/agent_tiny/atiny_lwm2m\object_server.c ****                 result = COAP_204_CHANGED;
 349:C:/Users/lenovo/Desktop/liteos/Project2/BearPi_LiteOS/components/connectivity/agent_tiny/atiny_lwm2m\object_server.c ****             }
 350:C:/Users/lenovo/Desktop/liteos/Project2/BearPi_LiteOS/components/connectivity/agent_tiny/atiny_lwm2m\object_server.c ****             else
 351:C:/Users/lenovo/Desktop/liteos/Project2/BearPi_LiteOS/components/connectivity/agent_tiny/atiny_lwm2m\object_server.c ****             {
 352:C:/Users/lenovo/Desktop/liteos/Project2/BearPi_LiteOS/components/connectivity/agent_tiny/atiny_lwm2m\object_server.c ****                 result = COAP_400_BAD_REQUEST;
 353:C:/Users/lenovo/Desktop/liteos/Project2/BearPi_LiteOS/components/connectivity/agent_tiny/atiny_lwm2m\object_server.c ****             }
 354:C:/Users/lenovo/Desktop/liteos/Project2/BearPi_LiteOS/components/connectivity/agent_tiny/atiny_lwm2m\object_server.c ****         }
 355:C:/Users/lenovo/Desktop/liteos/Project2/BearPi_LiteOS/components/connectivity/agent_tiny/atiny_lwm2m\object_server.c ****         break;
 356:C:/Users/lenovo/Desktop/liteos/Project2/BearPi_LiteOS/components/connectivity/agent_tiny/atiny_lwm2m\object_server.c **** 
 357:C:/Users/lenovo/Desktop/liteos/Project2/BearPi_LiteOS/components/connectivity/agent_tiny/atiny_lwm2m\object_server.c ****         case LWM2M_SERVER_BINDING_ID:
 358:C:/Users/lenovo/Desktop/liteos/Project2/BearPi_LiteOS/components/connectivity/agent_tiny/atiny_lwm2m\object_server.c ****             if ((dataArray[i].type == LWM2M_TYPE_STRING || dataArray[i].type == LWM2M_TYPE_OPAQUE)
 359:C:/Users/lenovo/Desktop/liteos/Project2/BearPi_LiteOS/components/connectivity/agent_tiny/atiny_lwm2m\object_server.c ****                     && dataArray[i].value.asBuffer.length > 0 && dataArray[i].value.asBuffer.length
 360:C:/Users/lenovo/Desktop/liteos/Project2/BearPi_LiteOS/components/connectivity/agent_tiny/atiny_lwm2m\object_server.c ****                     && prv_server_check_binding_valid((char *)dataArray[i].value.asBuffer.buffer, d
 361:C:/Users/lenovo/Desktop/liteos/Project2/BearPi_LiteOS/components/connectivity/agent_tiny/atiny_lwm2m\object_server.c ****             {
 362:C:/Users/lenovo/Desktop/liteos/Project2/BearPi_LiteOS/components/connectivity/agent_tiny/atiny_lwm2m\object_server.c ****                 memset(targetP->binding, 0, sizeof(targetP->binding));
 363:C:/Users/lenovo/Desktop/liteos/Project2/BearPi_LiteOS/components/connectivity/agent_tiny/atiny_lwm2m\object_server.c ****                 strncpy(targetP->binding, (char *)dataArray[i].value.asBuffer.buffer, dataArray[i].
 364:C:/Users/lenovo/Desktop/liteos/Project2/BearPi_LiteOS/components/connectivity/agent_tiny/atiny_lwm2m\object_server.c ****                 result = COAP_204_CHANGED;
 365:C:/Users/lenovo/Desktop/liteos/Project2/BearPi_LiteOS/components/connectivity/agent_tiny/atiny_lwm2m\object_server.c ****             }
 366:C:/Users/lenovo/Desktop/liteos/Project2/BearPi_LiteOS/components/connectivity/agent_tiny/atiny_lwm2m\object_server.c ****             else
 367:C:/Users/lenovo/Desktop/liteos/Project2/BearPi_LiteOS/components/connectivity/agent_tiny/atiny_lwm2m\object_server.c ****             {
 368:C:/Users/lenovo/Desktop/liteos/Project2/BearPi_LiteOS/components/connectivity/agent_tiny/atiny_lwm2m\object_server.c ****                 result = COAP_400_BAD_REQUEST;
 369:C:/Users/lenovo/Desktop/liteos/Project2/BearPi_LiteOS/components/connectivity/agent_tiny/atiny_lwm2m\object_server.c ****             }
 370:C:/Users/lenovo/Desktop/liteos/Project2/BearPi_LiteOS/components/connectivity/agent_tiny/atiny_lwm2m\object_server.c ****             break;
 371:C:/Users/lenovo/Desktop/liteos/Project2/BearPi_LiteOS/components/connectivity/agent_tiny/atiny_lwm2m\object_server.c **** 
 372:C:/Users/lenovo/Desktop/liteos/Project2/BearPi_LiteOS/components/connectivity/agent_tiny/atiny_lwm2m\object_server.c ****         case LWM2M_SERVER_UPDATE_ID:
 373:C:/Users/lenovo/Desktop/liteos/Project2/BearPi_LiteOS/components/connectivity/agent_tiny/atiny_lwm2m\object_server.c ****             result = COAP_405_METHOD_NOT_ALLOWED;
 374:C:/Users/lenovo/Desktop/liteos/Project2/BearPi_LiteOS/components/connectivity/agent_tiny/atiny_lwm2m\object_server.c ****             break;
ARM GAS  c:\Users\lenovo\AppData\Local\Temp\cchOsOqP.s 			page 8


 375:C:/Users/lenovo/Desktop/liteos/Project2/BearPi_LiteOS/components/connectivity/agent_tiny/atiny_lwm2m\object_server.c **** 
 376:C:/Users/lenovo/Desktop/liteos/Project2/BearPi_LiteOS/components/connectivity/agent_tiny/atiny_lwm2m\object_server.c ****         default:
 377:C:/Users/lenovo/Desktop/liteos/Project2/BearPi_LiteOS/components/connectivity/agent_tiny/atiny_lwm2m\object_server.c ****             return COAP_404_NOT_FOUND;
 378:C:/Users/lenovo/Desktop/liteos/Project2/BearPi_LiteOS/components/connectivity/agent_tiny/atiny_lwm2m\object_server.c ****         }
 379:C:/Users/lenovo/Desktop/liteos/Project2/BearPi_LiteOS/components/connectivity/agent_tiny/atiny_lwm2m\object_server.c ****         i++;
 380:C:/Users/lenovo/Desktop/liteos/Project2/BearPi_LiteOS/components/connectivity/agent_tiny/atiny_lwm2m\object_server.c ****     }
 381:C:/Users/lenovo/Desktop/liteos/Project2/BearPi_LiteOS/components/connectivity/agent_tiny/atiny_lwm2m\object_server.c ****     while (i < numData && result == COAP_204_CHANGED);
 382:C:/Users/lenovo/Desktop/liteos/Project2/BearPi_LiteOS/components/connectivity/agent_tiny/atiny_lwm2m\object_server.c **** 
 383:C:/Users/lenovo/Desktop/liteos/Project2/BearPi_LiteOS/components/connectivity/agent_tiny/atiny_lwm2m\object_server.c ****     return result;
 384:C:/Users/lenovo/Desktop/liteos/Project2/BearPi_LiteOS/components/connectivity/agent_tiny/atiny_lwm2m\object_server.c **** }
 385:C:/Users/lenovo/Desktop/liteos/Project2/BearPi_LiteOS/components/connectivity/agent_tiny/atiny_lwm2m\object_server.c **** 
 386:C:/Users/lenovo/Desktop/liteos/Project2/BearPi_LiteOS/components/connectivity/agent_tiny/atiny_lwm2m\object_server.c **** static uint8_t prv_server_execute(uint16_t instanceId,
 387:C:/Users/lenovo/Desktop/liteos/Project2/BearPi_LiteOS/components/connectivity/agent_tiny/atiny_lwm2m\object_server.c ****                                   uint16_t resourceId,
 388:C:/Users/lenovo/Desktop/liteos/Project2/BearPi_LiteOS/components/connectivity/agent_tiny/atiny_lwm2m\object_server.c ****                                   uint8_t *buffer,
 389:C:/Users/lenovo/Desktop/liteos/Project2/BearPi_LiteOS/components/connectivity/agent_tiny/atiny_lwm2m\object_server.c ****                                   int length,
 390:C:/Users/lenovo/Desktop/liteos/Project2/BearPi_LiteOS/components/connectivity/agent_tiny/atiny_lwm2m\object_server.c ****                                   lwm2m_object_t *objectP)
 391:C:/Users/lenovo/Desktop/liteos/Project2/BearPi_LiteOS/components/connectivity/agent_tiny/atiny_lwm2m\object_server.c **** 
 392:C:/Users/lenovo/Desktop/liteos/Project2/BearPi_LiteOS/components/connectivity/agent_tiny/atiny_lwm2m\object_server.c **** {
  27              		.loc 1 392 0
  28              		.cfi_startproc
  29              		@ args = 4, pretend = 0, frame = 0
  30              		@ frame_needed = 0, uses_anonymous_args = 0
  31              	.LVL0:
  32 0000 10B5     		push	{r4, lr}
  33              	.LCFI0:
  34              		.cfi_def_cfa_offset 8
  35              		.cfi_offset 4, -8
  36              		.cfi_offset 14, -4
  37 0002 0C46     		mov	r4, r1
 393:C:/Users/lenovo/Desktop/liteos/Project2/BearPi_LiteOS/components/connectivity/agent_tiny/atiny_lwm2m\object_server.c ****     server_instance_t *targetP;
 394:C:/Users/lenovo/Desktop/liteos/Project2/BearPi_LiteOS/components/connectivity/agent_tiny/atiny_lwm2m\object_server.c **** 
 395:C:/Users/lenovo/Desktop/liteos/Project2/BearPi_LiteOS/components/connectivity/agent_tiny/atiny_lwm2m\object_server.c ****     targetP = (server_instance_t *)lwm2m_list_find(objectP->instanceList, instanceId);
  38              		.loc 1 395 0
  39 0004 0146     		mov	r1, r0
  40              	.LVL1:
  41 0006 029B     		ldr	r3, [sp, #8]
  42              	.LVL2:
  43 0008 9868     		ldr	r0, [r3, #8]
  44              	.LVL3:
  45 000a FFF7FEFF 		bl	lwm2m_list_find
  46              	.LVL4:
 396:C:/Users/lenovo/Desktop/liteos/Project2/BearPi_LiteOS/components/connectivity/agent_tiny/atiny_lwm2m\object_server.c ****     if (NULL == targetP) return COAP_404_NOT_FOUND;
  47              		.loc 1 396 0
  48 000e 48B1     		cbz	r0, .L5
 397:C:/Users/lenovo/Desktop/liteos/Project2/BearPi_LiteOS/components/connectivity/agent_tiny/atiny_lwm2m\object_server.c **** 
 398:C:/Users/lenovo/Desktop/liteos/Project2/BearPi_LiteOS/components/connectivity/agent_tiny/atiny_lwm2m\object_server.c ****     switch (resourceId)
  49              		.loc 1 398 0
  50 0010 042C     		cmp	r4, #4
  51 0012 03D0     		beq	.L3
  52 0014 082C     		cmp	r4, #8
  53 0016 07D1     		bne	.L8
 399:C:/Users/lenovo/Desktop/liteos/Project2/BearPi_LiteOS/components/connectivity/agent_tiny/atiny_lwm2m\object_server.c ****     {
 400:C:/Users/lenovo/Desktop/liteos/Project2/BearPi_LiteOS/components/connectivity/agent_tiny/atiny_lwm2m\object_server.c ****     case LWM2M_SERVER_DISABLE_ID:
 401:C:/Users/lenovo/Desktop/liteos/Project2/BearPi_LiteOS/components/connectivity/agent_tiny/atiny_lwm2m\object_server.c ****         // executed in core, if COAP_204_CHANGED is returned
 402:C:/Users/lenovo/Desktop/liteos/Project2/BearPi_LiteOS/components/connectivity/agent_tiny/atiny_lwm2m\object_server.c ****         if (0 < targetP->disableTimeout) return COAP_204_CHANGED;
 403:C:/Users/lenovo/Desktop/liteos/Project2/BearPi_LiteOS/components/connectivity/agent_tiny/atiny_lwm2m\object_server.c ****         else return COAP_405_METHOD_NOT_ALLOWED;
 404:C:/Users/lenovo/Desktop/liteos/Project2/BearPi_LiteOS/components/connectivity/agent_tiny/atiny_lwm2m\object_server.c ****     case LWM2M_SERVER_UPDATE_ID:
ARM GAS  c:\Users\lenovo\AppData\Local\Temp\cchOsOqP.s 			page 9


 405:C:/Users/lenovo/Desktop/liteos/Project2/BearPi_LiteOS/components/connectivity/agent_tiny/atiny_lwm2m\object_server.c ****         // executed in core, if COAP_204_CHANGED is returned
 406:C:/Users/lenovo/Desktop/liteos/Project2/BearPi_LiteOS/components/connectivity/agent_tiny/atiny_lwm2m\object_server.c ****         return COAP_204_CHANGED;
  54              		.loc 1 406 0
  55 0018 4420     		movs	r0, #68
  56              	.LVL5:
  57 001a 04E0     		b	.L2
  58              	.LVL6:
  59              	.L3:
 402:C:/Users/lenovo/Desktop/liteos/Project2/BearPi_LiteOS/components/connectivity/agent_tiny/atiny_lwm2m\object_server.c ****         else return COAP_405_METHOD_NOT_ALLOWED;
  60              		.loc 1 402 0
  61 001c 4369     		ldr	r3, [r0, #20]
  62 001e 2BB1     		cbz	r3, .L7
  63 0020 4420     		movs	r0, #68
  64              	.LVL7:
  65 0022 00E0     		b	.L2
  66              	.LVL8:
  67              	.L5:
 396:C:/Users/lenovo/Desktop/liteos/Project2/BearPi_LiteOS/components/connectivity/agent_tiny/atiny_lwm2m\object_server.c **** 
  68              		.loc 1 396 0
  69 0024 8420     		movs	r0, #132
  70              	.LVL9:
  71              	.L2:
 407:C:/Users/lenovo/Desktop/liteos/Project2/BearPi_LiteOS/components/connectivity/agent_tiny/atiny_lwm2m\object_server.c ****     default:
 408:C:/Users/lenovo/Desktop/liteos/Project2/BearPi_LiteOS/components/connectivity/agent_tiny/atiny_lwm2m\object_server.c ****         return COAP_405_METHOD_NOT_ALLOWED;
 409:C:/Users/lenovo/Desktop/liteos/Project2/BearPi_LiteOS/components/connectivity/agent_tiny/atiny_lwm2m\object_server.c ****     }
 410:C:/Users/lenovo/Desktop/liteos/Project2/BearPi_LiteOS/components/connectivity/agent_tiny/atiny_lwm2m\object_server.c **** }
  72              		.loc 1 410 0
  73 0026 10BD     		pop	{r4, pc}
  74              	.LVL10:
  75              	.L8:
 408:C:/Users/lenovo/Desktop/liteos/Project2/BearPi_LiteOS/components/connectivity/agent_tiny/atiny_lwm2m\object_server.c ****     }
  76              		.loc 1 408 0
  77 0028 8520     		movs	r0, #133
  78              	.LVL11:
  79 002a FCE7     		b	.L2
  80              	.LVL12:
  81              	.L7:
 403:C:/Users/lenovo/Desktop/liteos/Project2/BearPi_LiteOS/components/connectivity/agent_tiny/atiny_lwm2m\object_server.c ****     case LWM2M_SERVER_UPDATE_ID:
  82              		.loc 1 403 0
  83 002c 8520     		movs	r0, #133
  84              	.LVL13:
  85 002e FAE7     		b	.L2
  86              		.cfi_endproc
  87              	.LFE148:
  89              		.section	.text.prv_server_delete,"ax",%progbits
  90              		.align	1
  91              		.syntax unified
  92              		.thumb
  93              		.thumb_func
  94              		.fpu fpv4-sp-d16
  96              	prv_server_delete:
  97              	.LFB149:
 411:C:/Users/lenovo/Desktop/liteos/Project2/BearPi_LiteOS/components/connectivity/agent_tiny/atiny_lwm2m\object_server.c **** 
 412:C:/Users/lenovo/Desktop/liteos/Project2/BearPi_LiteOS/components/connectivity/agent_tiny/atiny_lwm2m\object_server.c **** static uint8_t prv_server_delete(uint16_t id,
 413:C:/Users/lenovo/Desktop/liteos/Project2/BearPi_LiteOS/components/connectivity/agent_tiny/atiny_lwm2m\object_server.c ****                                  lwm2m_object_t *objectP)
 414:C:/Users/lenovo/Desktop/liteos/Project2/BearPi_LiteOS/components/connectivity/agent_tiny/atiny_lwm2m\object_server.c **** {
  98              		.loc 1 414 0
ARM GAS  c:\Users\lenovo\AppData\Local\Temp\cchOsOqP.s 			page 10


  99              		.cfi_startproc
 100              		@ args = 0, pretend = 0, frame = 8
 101              		@ frame_needed = 0, uses_anonymous_args = 0
 102              	.LVL14:
 103 0000 10B5     		push	{r4, lr}
 104              	.LCFI1:
 105              		.cfi_def_cfa_offset 8
 106              		.cfi_offset 4, -8
 107              		.cfi_offset 14, -4
 108 0002 82B0     		sub	sp, sp, #8
 109              	.LCFI2:
 110              		.cfi_def_cfa_offset 16
 111 0004 0C46     		mov	r4, r1
 415:C:/Users/lenovo/Desktop/liteos/Project2/BearPi_LiteOS/components/connectivity/agent_tiny/atiny_lwm2m\object_server.c ****     server_instance_t *serverInstance;
 416:C:/Users/lenovo/Desktop/liteos/Project2/BearPi_LiteOS/components/connectivity/agent_tiny/atiny_lwm2m\object_server.c **** 
 417:C:/Users/lenovo/Desktop/liteos/Project2/BearPi_LiteOS/components/connectivity/agent_tiny/atiny_lwm2m\object_server.c ****     objectP->instanceList = lwm2m_list_remove(objectP->instanceList, id, (lwm2m_list_t **)&serverIn
 112              		.loc 1 417 0
 113 0006 01AA     		add	r2, sp, #4
 114 0008 0146     		mov	r1, r0
 115              	.LVL15:
 116 000a A068     		ldr	r0, [r4, #8]
 117              	.LVL16:
 118 000c FFF7FEFF 		bl	lwm2m_list_remove
 119              	.LVL17:
 120 0010 A060     		str	r0, [r4, #8]
 418:C:/Users/lenovo/Desktop/liteos/Project2/BearPi_LiteOS/components/connectivity/agent_tiny/atiny_lwm2m\object_server.c ****     if (NULL == serverInstance) return COAP_404_NOT_FOUND;
 121              		.loc 1 418 0
 122 0012 0198     		ldr	r0, [sp, #4]
 123 0014 20B1     		cbz	r0, .L12
 419:C:/Users/lenovo/Desktop/liteos/Project2/BearPi_LiteOS/components/connectivity/agent_tiny/atiny_lwm2m\object_server.c **** 
 420:C:/Users/lenovo/Desktop/liteos/Project2/BearPi_LiteOS/components/connectivity/agent_tiny/atiny_lwm2m\object_server.c ****     lwm2m_free(serverInstance);
 124              		.loc 1 420 0
 125 0016 FFF7FEFF 		bl	lwm2m_free
 126              	.LVL18:
 421:C:/Users/lenovo/Desktop/liteos/Project2/BearPi_LiteOS/components/connectivity/agent_tiny/atiny_lwm2m\object_server.c **** 
 422:C:/Users/lenovo/Desktop/liteos/Project2/BearPi_LiteOS/components/connectivity/agent_tiny/atiny_lwm2m\object_server.c ****     return COAP_202_DELETED;
 127              		.loc 1 422 0
 128 001a 4220     		movs	r0, #66
 129              	.L11:
 423:C:/Users/lenovo/Desktop/liteos/Project2/BearPi_LiteOS/components/connectivity/agent_tiny/atiny_lwm2m\object_server.c **** }
 130              		.loc 1 423 0
 131 001c 02B0     		add	sp, sp, #8
 132              	.LCFI3:
 133              		.cfi_remember_state
 134              		.cfi_def_cfa_offset 8
 135              		@ sp needed
 136 001e 10BD     		pop	{r4, pc}
 137              	.LVL19:
 138              	.L12:
 139              	.LCFI4:
 140              		.cfi_restore_state
 418:C:/Users/lenovo/Desktop/liteos/Project2/BearPi_LiteOS/components/connectivity/agent_tiny/atiny_lwm2m\object_server.c **** 
 141              		.loc 1 418 0
 142 0020 8420     		movs	r0, #132
 143 0022 FBE7     		b	.L11
 144              		.cfi_endproc
 145              	.LFE149:
ARM GAS  c:\Users\lenovo\AppData\Local\Temp\cchOsOqP.s 			page 11


 147              		.section	.text.prv_set_int_value,"ax",%progbits
 148              		.align	1
 149              		.syntax unified
 150              		.thumb
 151              		.thumb_func
 152              		.fpu fpv4-sp-d16
 154              	prv_set_int_value:
 155              	.LFB145:
 240:C:/Users/lenovo/Desktop/liteos/Project2/BearPi_LiteOS/components/connectivity/agent_tiny/atiny_lwm2m\object_server.c ****     uint8_t result;
 156              		.loc 1 240 0
 157              		.cfi_startproc
 158              		@ args = 0, pretend = 0, frame = 8
 159              		@ frame_needed = 0, uses_anonymous_args = 0
 160              	.LVL20:
 161 0000 10B5     		push	{r4, lr}
 162              	.LCFI5:
 163              		.cfi_def_cfa_offset 8
 164              		.cfi_offset 4, -8
 165              		.cfi_offset 14, -4
 166 0002 82B0     		sub	sp, sp, #8
 167              	.LCFI6:
 168              		.cfi_def_cfa_offset 16
 169 0004 0C46     		mov	r4, r1
 244:C:/Users/lenovo/Desktop/liteos/Project2/BearPi_LiteOS/components/connectivity/agent_tiny/atiny_lwm2m\object_server.c ****     {
 170              		.loc 1 244 0
 171 0006 6946     		mov	r1, sp
 172              	.LVL21:
 173 0008 FFF7FEFF 		bl	lwm2m_data_decode_int
 174              	.LVL22:
 175 000c 0128     		cmp	r0, #1
 176 000e 02D0     		beq	.L19
 258:C:/Users/lenovo/Desktop/liteos/Project2/BearPi_LiteOS/components/connectivity/agent_tiny/atiny_lwm2m\object_server.c ****     }
 177              		.loc 1 258 0
 178 0010 8020     		movs	r0, #128
 179              	.L15:
 180              	.LVL23:
 261:C:/Users/lenovo/Desktop/liteos/Project2/BearPi_LiteOS/components/connectivity/agent_tiny/atiny_lwm2m\object_server.c **** 
 181              		.loc 1 261 0
 182 0012 02B0     		add	sp, sp, #8
 183              	.LCFI7:
 184              		.cfi_remember_state
 185              		.cfi_def_cfa_offset 8
 186              		@ sp needed
 187 0014 10BD     		pop	{r4, pc}
 188              	.LVL24:
 189              	.L19:
 190              	.LCFI8:
 191              		.cfi_restore_state
 246:C:/Users/lenovo/Desktop/liteos/Project2/BearPi_LiteOS/components/connectivity/agent_tiny/atiny_lwm2m\object_server.c ****         {
 192              		.loc 1 246 0
 193 0016 0099     		ldr	r1, [sp]
 194 0018 019B     		ldr	r3, [sp, #4]
 195 001a 012B     		cmp	r3, #1
 196 001c 08BF     		it	eq
 197 001e 0029     		cmpeq	r1, #0
 198 0020 02D2     		bcs	.L17
 248:C:/Users/lenovo/Desktop/liteos/Project2/BearPi_LiteOS/components/connectivity/agent_tiny/atiny_lwm2m\object_server.c ****             result = COAP_204_CHANGED;
ARM GAS  c:\Users\lenovo\AppData\Local\Temp\cchOsOqP.s 			page 12


 199              		.loc 1 248 0
 200 0022 2160     		str	r1, [r4]
 201              	.LVL25:
 249:C:/Users/lenovo/Desktop/liteos/Project2/BearPi_LiteOS/components/connectivity/agent_tiny/atiny_lwm2m\object_server.c ****         }
 202              		.loc 1 249 0
 203 0024 4420     		movs	r0, #68
 204 0026 F4E7     		b	.L15
 205              	.LVL26:
 206              	.L17:
 253:C:/Users/lenovo/Desktop/liteos/Project2/BearPi_LiteOS/components/connectivity/agent_tiny/atiny_lwm2m\object_server.c ****         }
 207              		.loc 1 253 0
 208 0028 8620     		movs	r0, #134
 209 002a F2E7     		b	.L15
 210              		.cfi_endproc
 211              	.LFE145:
 213              		.section	.text.prv_server_discover,"ax",%progbits
 214              		.align	1
 215              		.syntax unified
 216              		.thumb
 217              		.thumb_func
 218              		.fpu fpv4-sp-d16
 220              	prv_server_discover:
 221              	.LFB144:
 183:C:/Users/lenovo/Desktop/liteos/Project2/BearPi_LiteOS/components/connectivity/agent_tiny/atiny_lwm2m\object_server.c ****     uint8_t result;
 222              		.loc 1 183 0
 223              		.cfi_startproc
 224              		@ args = 0, pretend = 0, frame = 24
 225              		@ frame_needed = 0, uses_anonymous_args = 0
 226              	.LVL27:
 227 0000 F0B5     		push	{r4, r5, r6, r7, lr}
 228              	.LCFI9:
 229              		.cfi_def_cfa_offset 20
 230              		.cfi_offset 4, -20
 231              		.cfi_offset 5, -16
 232              		.cfi_offset 6, -12
 233              		.cfi_offset 7, -8
 234              		.cfi_offset 14, -4
 235 0002 87B0     		sub	sp, sp, #28
 236              	.LCFI10:
 237              		.cfi_def_cfa_offset 48
 238              	.LVL28:
 190:C:/Users/lenovo/Desktop/liteos/Project2/BearPi_LiteOS/components/connectivity/agent_tiny/atiny_lwm2m\object_server.c ****     {
 239              		.loc 1 190 0
 240 0004 0C68     		ldr	r4, [r1]
 241 0006 14B1     		cbz	r4, .L32
 216:C:/Users/lenovo/Desktop/liteos/Project2/BearPi_LiteOS/components/connectivity/agent_tiny/atiny_lwm2m\object_server.c ****         {
 242              		.loc 1 216 0
 243 0008 0023     		movs	r3, #0
 244              	.LVL29:
 187:C:/Users/lenovo/Desktop/liteos/Project2/BearPi_LiteOS/components/connectivity/agent_tiny/atiny_lwm2m\object_server.c **** 
 245              		.loc 1 187 0
 246 000a 4520     		movs	r0, #69
 247              	.LVL30:
 248 000c 24E0     		b	.L21
 249              	.LVL31:
 250              	.L32:
 251 000e 1546     		mov	r5, r2
ARM GAS  c:\Users\lenovo\AppData\Local\Temp\cchOsOqP.s 			page 13


 252 0010 0E46     		mov	r6, r1
 253              	.LBB2:
 192:C:/Users/lenovo/Desktop/liteos/Project2/BearPi_LiteOS/components/connectivity/agent_tiny/atiny_lwm2m\object_server.c ****         {
 254              		.loc 1 192 0
 255 0012 01AF     		add	r7, sp, #4
 256 0014 DFF858C0 		ldr	ip, .L34
 257 0018 BCE80F00 		ldmia	ip!, {r0, r1, r2, r3}
 258              	.LVL32:
 259 001c 0FC7     		stmia	r7!, {r0, r1, r2, r3}
 260 001e DCF80030 		ldr	r3, [ip]
 261 0022 3B80     		strh	r3, [r7]	@ movhi
 262              	.LVL33:
 206:C:/Users/lenovo/Desktop/liteos/Project2/BearPi_LiteOS/components/connectivity/agent_tiny/atiny_lwm2m\object_server.c ****         if (*dataArrayP == NULL) return COAP_500_INTERNAL_SERVER_ERROR;
 263              		.loc 1 206 0
 264 0024 0920     		movs	r0, #9
 265 0026 FFF7FEFF 		bl	lwm2m_data_new
 266              	.LVL34:
 267 002a 2860     		str	r0, [r5]
 207:C:/Users/lenovo/Desktop/liteos/Project2/BearPi_LiteOS/components/connectivity/agent_tiny/atiny_lwm2m\object_server.c ****         *numDataP = nbRes;
 268              		.loc 1 207 0
 269 002c 10B1     		cbz	r0, .L33
 208:C:/Users/lenovo/Desktop/liteos/Project2/BearPi_LiteOS/components/connectivity/agent_tiny/atiny_lwm2m\object_server.c ****         for (i = 0; i < nbRes; i++)
 270              		.loc 1 208 0
 271 002e 0923     		movs	r3, #9
 272 0030 3360     		str	r3, [r6]
 273              	.LVL35:
 209:C:/Users/lenovo/Desktop/liteos/Project2/BearPi_LiteOS/components/connectivity/agent_tiny/atiny_lwm2m\object_server.c ****         {
 274              		.loc 1 209 0
 275 0032 0BE0     		b	.L24
 276              	.LVL36:
 277              	.L33:
 207:C:/Users/lenovo/Desktop/liteos/Project2/BearPi_LiteOS/components/connectivity/agent_tiny/atiny_lwm2m\object_server.c ****         *numDataP = nbRes;
 278              		.loc 1 207 0 discriminator 1
 279 0034 A020     		movs	r0, #160
 280 0036 0CE0     		b	.L23
 281              	.LVL37:
 282              	.L25:
 211:C:/Users/lenovo/Desktop/liteos/Project2/BearPi_LiteOS/components/connectivity/agent_tiny/atiny_lwm2m\object_server.c ****         }
 283              		.loc 1 211 0 discriminator 3
 284 0038 2B68     		ldr	r3, [r5]
 285 003a 03EB0413 		add	r3, r3, r4, lsl #4
 286 003e 06AA     		add	r2, sp, #24
 287 0040 02EB4402 		add	r2, r2, r4, lsl #1
 288 0044 32F8142C 		ldrh	r2, [r2, #-20]
 289 0048 5A80     		strh	r2, [r3, #2]	@ movhi
 209:C:/Users/lenovo/Desktop/liteos/Project2/BearPi_LiteOS/components/connectivity/agent_tiny/atiny_lwm2m\object_server.c ****         {
 290              		.loc 1 209 0 discriminator 3
 291 004a 0134     		adds	r4, r4, #1
 292              	.LVL38:
 293              	.L24:
 209:C:/Users/lenovo/Desktop/liteos/Project2/BearPi_LiteOS/components/connectivity/agent_tiny/atiny_lwm2m\object_server.c ****         {
 294              		.loc 1 209 0 is_stmt 0 discriminator 1
 295 004c 082C     		cmp	r4, #8
 296 004e F3DD     		ble	.L25
 297              	.LBE2:
 187:C:/Users/lenovo/Desktop/liteos/Project2/BearPi_LiteOS/components/connectivity/agent_tiny/atiny_lwm2m\object_server.c **** 
 298              		.loc 1 187 0 is_stmt 1
ARM GAS  c:\Users\lenovo\AppData\Local\Temp\cchOsOqP.s 			page 14


 299 0050 4520     		movs	r0, #69
 300              	.LVL39:
 301              	.L23:
 237:C:/Users/lenovo/Desktop/liteos/Project2/BearPi_LiteOS/components/connectivity/agent_tiny/atiny_lwm2m\object_server.c **** 
 302              		.loc 1 237 0
 303 0052 07B0     		add	sp, sp, #28
 304              	.LCFI11:
 305              		.cfi_remember_state
 306              		.cfi_def_cfa_offset 20
 307              		@ sp needed
 308 0054 F0BD     		pop	{r4, r5, r6, r7, pc}
 309              	.LVL40:
 310              	.L26:
 311              	.LCFI12:
 312              		.cfi_restore_state
 216:C:/Users/lenovo/Desktop/liteos/Project2/BearPi_LiteOS/components/connectivity/agent_tiny/atiny_lwm2m\object_server.c ****         {
 313              		.loc 1 216 0 discriminator 2
 314 0056 0133     		adds	r3, r3, #1
 315              	.LVL41:
 316              	.L21:
 216:C:/Users/lenovo/Desktop/liteos/Project2/BearPi_LiteOS/components/connectivity/agent_tiny/atiny_lwm2m\object_server.c ****         {
 317              		.loc 1 216 0 is_stmt 0 discriminator 1
 318 0058 9C42     		cmp	r4, r3
 319 005a FADD     		ble	.L23
 216:C:/Users/lenovo/Desktop/liteos/Project2/BearPi_LiteOS/components/connectivity/agent_tiny/atiny_lwm2m\object_server.c ****         {
 320              		.loc 1 216 0 discriminator 3
 321 005c 4528     		cmp	r0, #69
 322 005e F8D1     		bne	.L23
 218:C:/Users/lenovo/Desktop/liteos/Project2/BearPi_LiteOS/components/connectivity/agent_tiny/atiny_lwm2m\object_server.c ****             {
 323              		.loc 1 218 0 is_stmt 1
 324 0060 1168     		ldr	r1, [r2]
 325 0062 01EB0311 		add	r1, r1, r3, lsl #4
 326 0066 4988     		ldrh	r1, [r1, #2]
 327 0068 0829     		cmp	r1, #8
 328 006a F4D9     		bls	.L26
 231:C:/Users/lenovo/Desktop/liteos/Project2/BearPi_LiteOS/components/connectivity/agent_tiny/atiny_lwm2m\object_server.c ****             }
 329              		.loc 1 231 0
 330 006c 8420     		movs	r0, #132
 331              	.LVL42:
 332 006e F2E7     		b	.L26
 333              	.L35:
 334              		.align	2
 335              	.L34:
 336 0070 00000000 		.word	.LANCHOR0
 337              		.cfi_endproc
 338              	.LFE144:
 340              		.section	.text.prv_get_value,"ax",%progbits
 341              		.align	1
 342              		.syntax unified
 343              		.thumb
 344              		.thumb_func
 345              		.fpu fpv4-sp-d16
 347              	prv_get_value:
 348              	.LFB142:
  89:C:/Users/lenovo/Desktop/liteos/Project2/BearPi_LiteOS/components/connectivity/agent_tiny/atiny_lwm2m\object_server.c ****     switch (dataP->id)
 349              		.loc 1 89 0
 350              		.cfi_startproc
ARM GAS  c:\Users\lenovo\AppData\Local\Temp\cchOsOqP.s 			page 15


 351              		@ args = 0, pretend = 0, frame = 0
 352              		@ frame_needed = 0, uses_anonymous_args = 0
 353              	.LVL43:
 354 0000 10B5     		push	{r4, lr}
 355              	.LCFI13:
 356              		.cfi_def_cfa_offset 8
 357              		.cfi_offset 4, -8
 358              		.cfi_offset 14, -4
 359 0002 0C46     		mov	r4, r1
  90:C:/Users/lenovo/Desktop/liteos/Project2/BearPi_LiteOS/components/connectivity/agent_tiny/atiny_lwm2m\object_server.c ****     {
 360              		.loc 1 90 0
 361 0004 4388     		ldrh	r3, [r0, #2]
 362 0006 082B     		cmp	r3, #8
 363 0008 38D8     		bhi	.L47
 364 000a DFE803F0 		tbb	[pc, r3]
 365              	.L39:
 366 000e 07       		.byte	(.L38-.L39)/2
 367 000f 0E       		.byte	(.L40-.L39)/2
 368 0010 15       		.byte	(.L41-.L39)/2
 369 0011 1C       		.byte	(.L42-.L39)/2
 370 0012 05       		.byte	(.L43-.L39)/2
 371 0013 23       		.byte	(.L44-.L39)/2
 372 0014 2A       		.byte	(.L45-.L39)/2
 373 0015 30       		.byte	(.L46-.L39)/2
 374 0016 05       		.byte	(.L43-.L39)/2
 375 0017 00       		.p2align 1
 376              	.L43:
 109:C:/Users/lenovo/Desktop/liteos/Project2/BearPi_LiteOS/components/connectivity/agent_tiny/atiny_lwm2m\object_server.c **** 
 377              		.loc 1 109 0
 378 0018 8520     		movs	r0, #133
 379              	.LVL44:
 380              	.L37:
 129:C:/Users/lenovo/Desktop/liteos/Project2/BearPi_LiteOS/components/connectivity/agent_tiny/atiny_lwm2m\object_server.c **** 
 381              		.loc 1 129 0
 382 001a 10BD     		pop	{r4, pc}
 383              	.LVL45:
 384              	.L38:
  93:C:/Users/lenovo/Desktop/liteos/Project2/BearPi_LiteOS/components/connectivity/agent_tiny/atiny_lwm2m\object_server.c ****         return COAP_205_CONTENT;
 385              		.loc 1 93 0
 386 001c 0246     		mov	r2, r0
 387 001e E088     		ldrh	r0, [r4, #6]
 388              	.LVL46:
 389 0020 0021     		movs	r1, #0
 390              	.LVL47:
 391 0022 FFF7FEFF 		bl	lwm2m_data_encode_int
 392              	.LVL48:
  94:C:/Users/lenovo/Desktop/liteos/Project2/BearPi_LiteOS/components/connectivity/agent_tiny/atiny_lwm2m\object_server.c **** 
 393              		.loc 1 94 0
 394 0026 4520     		movs	r0, #69
 395 0028 F7E7     		b	.L37
 396              	.LVL49:
 397              	.L40:
  97:C:/Users/lenovo/Desktop/liteos/Project2/BearPi_LiteOS/components/connectivity/agent_tiny/atiny_lwm2m\object_server.c ****         return COAP_205_CONTENT;
 398              		.loc 1 97 0
 399 002a 0246     		mov	r2, r0
 400 002c 8868     		ldr	r0, [r1, #8]
 401              	.LVL50:
ARM GAS  c:\Users\lenovo\AppData\Local\Temp\cchOsOqP.s 			page 16


 402 002e 0021     		movs	r1, #0
 403              	.LVL51:
 404 0030 FFF7FEFF 		bl	lwm2m_data_encode_int
 405              	.LVL52:
  98:C:/Users/lenovo/Desktop/liteos/Project2/BearPi_LiteOS/components/connectivity/agent_tiny/atiny_lwm2m\object_server.c **** 
 406              		.loc 1 98 0
 407 0034 4520     		movs	r0, #69
 408 0036 F0E7     		b	.L37
 409              	.LVL53:
 410              	.L41:
 101:C:/Users/lenovo/Desktop/liteos/Project2/BearPi_LiteOS/components/connectivity/agent_tiny/atiny_lwm2m\object_server.c ****         return COAP_205_CONTENT;
 411              		.loc 1 101 0
 412 0038 0246     		mov	r2, r0
 413 003a C868     		ldr	r0, [r1, #12]
 414              	.LVL54:
 415 003c 0021     		movs	r1, #0
 416              	.LVL55:
 417 003e FFF7FEFF 		bl	lwm2m_data_encode_int
 418              	.LVL56:
 102:C:/Users/lenovo/Desktop/liteos/Project2/BearPi_LiteOS/components/connectivity/agent_tiny/atiny_lwm2m\object_server.c **** 
 419              		.loc 1 102 0
 420 0042 4520     		movs	r0, #69
 421 0044 E9E7     		b	.L37
 422              	.LVL57:
 423              	.L42:
 105:C:/Users/lenovo/Desktop/liteos/Project2/BearPi_LiteOS/components/connectivity/agent_tiny/atiny_lwm2m\object_server.c ****         return COAP_205_CONTENT;
 424              		.loc 1 105 0
 425 0046 0246     		mov	r2, r0
 426 0048 0869     		ldr	r0, [r1, #16]
 427              	.LVL58:
 428 004a 0021     		movs	r1, #0
 429              	.LVL59:
 430 004c FFF7FEFF 		bl	lwm2m_data_encode_int
 431              	.LVL60:
 106:C:/Users/lenovo/Desktop/liteos/Project2/BearPi_LiteOS/components/connectivity/agent_tiny/atiny_lwm2m\object_server.c **** 
 432              		.loc 1 106 0
 433 0050 4520     		movs	r0, #69
 434 0052 E2E7     		b	.L37
 435              	.LVL61:
 436              	.L44:
 112:C:/Users/lenovo/Desktop/liteos/Project2/BearPi_LiteOS/components/connectivity/agent_tiny/atiny_lwm2m\object_server.c ****         return COAP_205_CONTENT;
 437              		.loc 1 112 0
 438 0054 0246     		mov	r2, r0
 439 0056 4869     		ldr	r0, [r1, #20]
 440              	.LVL62:
 441 0058 0021     		movs	r1, #0
 442              	.LVL63:
 443 005a FFF7FEFF 		bl	lwm2m_data_encode_int
 444              	.LVL64:
 113:C:/Users/lenovo/Desktop/liteos/Project2/BearPi_LiteOS/components/connectivity/agent_tiny/atiny_lwm2m\object_server.c **** 
 445              		.loc 1 113 0
 446 005e 4520     		movs	r0, #69
 447 0060 DBE7     		b	.L37
 448              	.LVL65:
 449              	.L45:
 116:C:/Users/lenovo/Desktop/liteos/Project2/BearPi_LiteOS/components/connectivity/agent_tiny/atiny_lwm2m\object_server.c ****         return COAP_205_CONTENT;
 450              		.loc 1 116 0
ARM GAS  c:\Users\lenovo\AppData\Local\Temp\cchOsOqP.s 			page 17


 451 0062 0146     		mov	r1, r0
 452              	.LVL66:
 453 0064 207E     		ldrb	r0, [r4, #24]	@ zero_extendqisi2
 454              	.LVL67:
 455 0066 FFF7FEFF 		bl	lwm2m_data_encode_bool
 456              	.LVL68:
 117:C:/Users/lenovo/Desktop/liteos/Project2/BearPi_LiteOS/components/connectivity/agent_tiny/atiny_lwm2m\object_server.c **** 
 457              		.loc 1 117 0
 458 006a 4520     		movs	r0, #69
 459 006c D5E7     		b	.L37
 460              	.LVL69:
 461              	.L46:
 120:C:/Users/lenovo/Desktop/liteos/Project2/BearPi_LiteOS/components/connectivity/agent_tiny/atiny_lwm2m\object_server.c ****         return COAP_205_CONTENT;
 462              		.loc 1 120 0
 463 006e 0146     		mov	r1, r0
 464              	.LVL70:
 465 0070 04F11900 		add	r0, r4, #25
 466              	.LVL71:
 467 0074 FFF7FEFF 		bl	lwm2m_data_encode_string
 468              	.LVL72:
 121:C:/Users/lenovo/Desktop/liteos/Project2/BearPi_LiteOS/components/connectivity/agent_tiny/atiny_lwm2m\object_server.c **** 
 469              		.loc 1 121 0
 470 0078 4520     		movs	r0, #69
 471 007a CEE7     		b	.L37
 472              	.LVL73:
 473              	.L47:
 127:C:/Users/lenovo/Desktop/liteos/Project2/BearPi_LiteOS/components/connectivity/agent_tiny/atiny_lwm2m\object_server.c ****     }
 474              		.loc 1 127 0
 475 007c 8420     		movs	r0, #132
 476              	.LVL74:
 477 007e CCE7     		b	.L37
 478              		.cfi_endproc
 479              	.LFE142:
 481              		.section	.text.prv_server_read,"ax",%progbits
 482              		.align	1
 483              		.syntax unified
 484              		.thumb
 485              		.thumb_func
 486              		.fpu fpv4-sp-d16
 488              	prv_server_read:
 489              	.LFB143:
 136:C:/Users/lenovo/Desktop/liteos/Project2/BearPi_LiteOS/components/connectivity/agent_tiny/atiny_lwm2m\object_server.c ****     server_instance_t *targetP;
 490              		.loc 1 136 0
 491              		.cfi_startproc
 492              		@ args = 4, pretend = 0, frame = 16
 493              		@ frame_needed = 0, uses_anonymous_args = 0
 494              	.LVL75:
 495 0000 F0B5     		push	{r4, r5, r6, r7, lr}
 496              	.LCFI14:
 497              		.cfi_def_cfa_offset 20
 498              		.cfi_offset 4, -20
 499              		.cfi_offset 5, -16
 500              		.cfi_offset 6, -12
 501              		.cfi_offset 7, -8
 502              		.cfi_offset 14, -4
 503 0002 85B0     		sub	sp, sp, #20
 504              	.LCFI15:
ARM GAS  c:\Users\lenovo\AppData\Local\Temp\cchOsOqP.s 			page 18


 505              		.cfi_def_cfa_offset 40
 506 0004 0E46     		mov	r6, r1
 507 0006 1546     		mov	r5, r2
 141:C:/Users/lenovo/Desktop/liteos/Project2/BearPi_LiteOS/components/connectivity/agent_tiny/atiny_lwm2m\object_server.c ****     if (NULL == targetP) return COAP_404_NOT_FOUND;
 508              		.loc 1 141 0
 509 0008 0146     		mov	r1, r0
 510              	.LVL76:
 511 000a 0A9B     		ldr	r3, [sp, #40]
 512              	.LVL77:
 513 000c 9868     		ldr	r0, [r3, #8]
 514              	.LVL78:
 515 000e FFF7FEFF 		bl	lwm2m_list_find
 516              	.LVL79:
 142:C:/Users/lenovo/Desktop/liteos/Project2/BearPi_LiteOS/components/connectivity/agent_tiny/atiny_lwm2m\object_server.c **** 
 517              		.loc 1 142 0
 518 0012 78B3     		cbz	r0, .L56
 519 0014 0746     		mov	r7, r0
 145:C:/Users/lenovo/Desktop/liteos/Project2/BearPi_LiteOS/components/connectivity/agent_tiny/atiny_lwm2m\object_server.c ****     {
 520              		.loc 1 145 0
 521 0016 3468     		ldr	r4, [r6]
 522 0018 74B1     		cbz	r4, .L58
 523              	.LVL80:
 524              	.L51:
 136:C:/Users/lenovo/Desktop/liteos/Project2/BearPi_LiteOS/components/connectivity/agent_tiny/atiny_lwm2m\object_server.c ****     server_instance_t *targetP;
 525              		.loc 1 136 0 discriminator 2
 526 001a 0024     		movs	r4, #0
 527              	.L55:
 528              	.LVL81:
 171:C:/Users/lenovo/Desktop/liteos/Project2/BearPi_LiteOS/components/connectivity/agent_tiny/atiny_lwm2m\object_server.c ****         i++;
 529              		.loc 1 171 0 discriminator 2
 530 001c 2868     		ldr	r0, [r5]
 531 001e 3946     		mov	r1, r7
 532 0020 00EB0410 		add	r0, r0, r4, lsl #4
 533 0024 FFF7FEFF 		bl	prv_get_value
 534              	.LVL82:
 172:C:/Users/lenovo/Desktop/liteos/Project2/BearPi_LiteOS/components/connectivity/agent_tiny/atiny_lwm2m\object_server.c ****     }
 535              		.loc 1 172 0 discriminator 2
 536 0028 0134     		adds	r4, r4, #1
 537              	.LVL83:
 174:C:/Users/lenovo/Desktop/liteos/Project2/BearPi_LiteOS/components/connectivity/agent_tiny/atiny_lwm2m\object_server.c **** 
 538              		.loc 1 174 0 discriminator 2
 539 002a 3368     		ldr	r3, [r6]
 540 002c A342     		cmp	r3, r4
 541 002e 01DD     		ble	.L50
 174:C:/Users/lenovo/Desktop/liteos/Project2/BearPi_LiteOS/components/connectivity/agent_tiny/atiny_lwm2m\object_server.c **** 
 542              		.loc 1 174 0 is_stmt 0 discriminator 1
 543 0030 4528     		cmp	r0, #69
 544 0032 F3D0     		beq	.L55
 545              	.LVL84:
 546              	.L50:
 177:C:/Users/lenovo/Desktop/liteos/Project2/BearPi_LiteOS/components/connectivity/agent_tiny/atiny_lwm2m\object_server.c **** 
 547              		.loc 1 177 0 is_stmt 1
 548 0034 05B0     		add	sp, sp, #20
 549              	.LCFI16:
 550              		.cfi_remember_state
 551              		.cfi_def_cfa_offset 20
 552              		@ sp needed
ARM GAS  c:\Users\lenovo\AppData\Local\Temp\cchOsOqP.s 			page 19


 553 0036 F0BD     		pop	{r4, r5, r6, r7, pc}
 554              	.LVL85:
 555              	.L58:
 556              	.LCFI17:
 557              		.cfi_restore_state
 558              	.LBB3:
 147:C:/Users/lenovo/Desktop/liteos/Project2/BearPi_LiteOS/components/connectivity/agent_tiny/atiny_lwm2m\object_server.c ****         {
 559              		.loc 1 147 0
 560 0038 EC46     		mov	ip, sp
 561 003a 0F4B     		ldr	r3, .L60
 562 003c 0FCB     		ldm	r3, {r0, r1, r2, r3}
 563              	.LVL86:
 564 003e ACE80700 		stmia	ip!, {r0, r1, r2}
 565 0042 ACF80030 		strh	r3, [ip]	@ movhi
 566              	.LVL87:
 159:C:/Users/lenovo/Desktop/liteos/Project2/BearPi_LiteOS/components/connectivity/agent_tiny/atiny_lwm2m\object_server.c ****         if (*dataArrayP == NULL) return COAP_500_INTERNAL_SERVER_ERROR;
 567              		.loc 1 159 0
 568 0046 0720     		movs	r0, #7
 569 0048 FFF7FEFF 		bl	lwm2m_data_new
 570              	.LVL88:
 571 004c 2860     		str	r0, [r5]
 160:C:/Users/lenovo/Desktop/liteos/Project2/BearPi_LiteOS/components/connectivity/agent_tiny/atiny_lwm2m\object_server.c ****         *numDataP = nbRes;
 572              		.loc 1 160 0
 573 004e 10B1     		cbz	r0, .L59
 161:C:/Users/lenovo/Desktop/liteos/Project2/BearPi_LiteOS/components/connectivity/agent_tiny/atiny_lwm2m\object_server.c ****         for (i = 0 ; i < nbRes ; i++)
 574              		.loc 1 161 0
 575 0050 0723     		movs	r3, #7
 576 0052 3360     		str	r3, [r6]
 577              	.LVL89:
 162:C:/Users/lenovo/Desktop/liteos/Project2/BearPi_LiteOS/components/connectivity/agent_tiny/atiny_lwm2m\object_server.c ****         {
 578              		.loc 1 162 0
 579 0054 0BE0     		b	.L53
 580              	.LVL90:
 581              	.L59:
 160:C:/Users/lenovo/Desktop/liteos/Project2/BearPi_LiteOS/components/connectivity/agent_tiny/atiny_lwm2m\object_server.c ****         *numDataP = nbRes;
 582              		.loc 1 160 0 discriminator 1
 583 0056 A020     		movs	r0, #160
 584 0058 ECE7     		b	.L50
 585              	.LVL91:
 586              	.L54:
 164:C:/Users/lenovo/Desktop/liteos/Project2/BearPi_LiteOS/components/connectivity/agent_tiny/atiny_lwm2m\object_server.c ****         }
 587              		.loc 1 164 0 discriminator 3
 588 005a 2B68     		ldr	r3, [r5]
 589 005c 03EB0413 		add	r3, r3, r4, lsl #4
 590 0060 04AA     		add	r2, sp, #16
 591 0062 02EB4402 		add	r2, r2, r4, lsl #1
 592 0066 32F8102C 		ldrh	r2, [r2, #-16]
 593 006a 5A80     		strh	r2, [r3, #2]	@ movhi
 162:C:/Users/lenovo/Desktop/liteos/Project2/BearPi_LiteOS/components/connectivity/agent_tiny/atiny_lwm2m\object_server.c ****         {
 594              		.loc 1 162 0 discriminator 3
 595 006c 0134     		adds	r4, r4, #1
 596              	.LVL92:
 597              	.L53:
 162:C:/Users/lenovo/Desktop/liteos/Project2/BearPi_LiteOS/components/connectivity/agent_tiny/atiny_lwm2m\object_server.c ****         {
 598              		.loc 1 162 0 is_stmt 0 discriminator 1
 599 006e 062C     		cmp	r4, #6
 600 0070 F3DD     		ble	.L54
ARM GAS  c:\Users\lenovo\AppData\Local\Temp\cchOsOqP.s 			page 20


 601 0072 D2E7     		b	.L51
 602              	.LVL93:
 603              	.L56:
 604              	.LBE3:
 142:C:/Users/lenovo/Desktop/liteos/Project2/BearPi_LiteOS/components/connectivity/agent_tiny/atiny_lwm2m\object_server.c **** 
 605              		.loc 1 142 0 is_stmt 1
 606 0074 8420     		movs	r0, #132
 607              	.LVL94:
 608 0076 DDE7     		b	.L50
 609              	.L61:
 610              		.align	2
 611              	.L60:
 612 0078 14000000 		.word	.LANCHOR0+20
 613              		.cfi_endproc
 614              	.LFE143:
 616              		.section	.text.prv_server_check_binding_valid,"ax",%progbits
 617              		.align	1
 618              		.global	prv_server_check_binding_valid
 619              		.syntax unified
 620              		.thumb
 621              		.thumb_func
 622              		.fpu fpv4-sp-d16
 624              	prv_server_check_binding_valid:
 625              	.LFB146:
 264:C:/Users/lenovo/Desktop/liteos/Project2/BearPi_LiteOS/components/connectivity/agent_tiny/atiny_lwm2m\object_server.c ****     if (binding != NULL && (strncmp(binding, "U", size) == 0
 626              		.loc 1 264 0
 627              		.cfi_startproc
 628              		@ args = 0, pretend = 0, frame = 0
 629              		@ frame_needed = 0, uses_anonymous_args = 0
 630              	.LVL95:
 265:C:/Users/lenovo/Desktop/liteos/Project2/BearPi_LiteOS/components/connectivity/agent_tiny/atiny_lwm2m\object_server.c ****             || strncmp(binding, "UQ", size) == 0
 631              		.loc 1 265 0
 632 0000 38B3     		cbz	r0, .L64
 264:C:/Users/lenovo/Desktop/liteos/Project2/BearPi_LiteOS/components/connectivity/agent_tiny/atiny_lwm2m\object_server.c ****     if (binding != NULL && (strncmp(binding, "U", size) == 0
 633              		.loc 1 264 0 discriminator 1
 634 0002 38B5     		push	{r3, r4, r5, lr}
 635              	.LCFI18:
 636              		.cfi_def_cfa_offset 16
 637              		.cfi_offset 3, -16
 638              		.cfi_offset 4, -12
 639              		.cfi_offset 5, -8
 640              		.cfi_offset 14, -4
 641 0004 0446     		mov	r4, r0
 642 0006 0D46     		mov	r5, r1
 265:C:/Users/lenovo/Desktop/liteos/Project2/BearPi_LiteOS/components/connectivity/agent_tiny/atiny_lwm2m\object_server.c ****             || strncmp(binding, "UQ", size) == 0
 643              		.loc 1 265 0 discriminator 1
 644 0008 0A46     		mov	r2, r1
 645 000a 1949     		ldr	r1, .L75
 646              	.LVL96:
 647 000c FFF7FEFF 		bl	strncmp
 648              	.LVL97:
 649 0010 08B3     		cbz	r0, .L65
 266:C:/Users/lenovo/Desktop/liteos/Project2/BearPi_LiteOS/components/connectivity/agent_tiny/atiny_lwm2m\object_server.c ****             || strncmp(binding, "S", size) == 0
 650              		.loc 1 266 0
 651 0012 2A46     		mov	r2, r5
 652 0014 1749     		ldr	r1, .L75+4
 653 0016 2046     		mov	r0, r4
ARM GAS  c:\Users\lenovo\AppData\Local\Temp\cchOsOqP.s 			page 21


 654 0018 FFF7FEFF 		bl	strncmp
 655              	.LVL98:
 656 001c E8B1     		cbz	r0, .L66
 267:C:/Users/lenovo/Desktop/liteos/Project2/BearPi_LiteOS/components/connectivity/agent_tiny/atiny_lwm2m\object_server.c ****             || strncmp(binding, "SQ", size) == 0
 657              		.loc 1 267 0
 658 001e 2A46     		mov	r2, r5
 659 0020 1549     		ldr	r1, .L75+8
 660 0022 2046     		mov	r0, r4
 661 0024 FFF7FEFF 		bl	strncmp
 662              	.LVL99:
 663 0028 C8B1     		cbz	r0, .L67
 268:C:/Users/lenovo/Desktop/liteos/Project2/BearPi_LiteOS/components/connectivity/agent_tiny/atiny_lwm2m\object_server.c ****             || strncmp(binding, "US", size) == 0
 664              		.loc 1 268 0
 665 002a 2A46     		mov	r2, r5
 666 002c 1349     		ldr	r1, .L75+12
 667 002e 2046     		mov	r0, r4
 668 0030 FFF7FEFF 		bl	strncmp
 669              	.LVL100:
 670 0034 A8B1     		cbz	r0, .L68
 269:C:/Users/lenovo/Desktop/liteos/Project2/BearPi_LiteOS/components/connectivity/agent_tiny/atiny_lwm2m\object_server.c ****             || strncmp(binding, "UQS", size) == 0))
 671              		.loc 1 269 0
 672 0036 2A46     		mov	r2, r5
 673 0038 1149     		ldr	r1, .L75+16
 674 003a 2046     		mov	r0, r4
 675 003c FFF7FEFF 		bl	strncmp
 676              	.LVL101:
 677 0040 88B1     		cbz	r0, .L69
 270:C:/Users/lenovo/Desktop/liteos/Project2/BearPi_LiteOS/components/connectivity/agent_tiny/atiny_lwm2m\object_server.c ****     {
 678              		.loc 1 270 0
 679 0042 2A46     		mov	r2, r5
 680 0044 0F49     		ldr	r1, .L75+20
 681 0046 2046     		mov	r0, r4
 682 0048 FFF7FEFF 		bl	strncmp
 683              	.LVL102:
 684 004c 68B1     		cbz	r0, .L70
 276:C:/Users/lenovo/Desktop/liteos/Project2/BearPi_LiteOS/components/connectivity/agent_tiny/atiny_lwm2m\object_server.c ****     }
 685              		.loc 1 276 0
 686 004e 0020     		movs	r0, #0
 687 0050 02E0     		b	.L63
 688              	.LVL103:
 689              	.L64:
 690              	.LCFI19:
 691              		.cfi_def_cfa_offset 0
 692              		.cfi_restore 3
 693              		.cfi_restore 4
 694              		.cfi_restore 5
 695              		.cfi_restore 14
 696 0052 0020     		movs	r0, #0
 697              	.LVL104:
 278:C:/Users/lenovo/Desktop/liteos/Project2/BearPi_LiteOS/components/connectivity/agent_tiny/atiny_lwm2m\object_server.c **** static uint8_t prv_server_write(uint16_t instanceId,
 698              		.loc 1 278 0
 699 0054 7047     		bx	lr
 700              	.LVL105:
 701              	.L65:
 702              	.LCFI20:
 703              		.cfi_def_cfa_offset 16
 704              		.cfi_offset 3, -16
ARM GAS  c:\Users\lenovo\AppData\Local\Temp\cchOsOqP.s 			page 22


 705              		.cfi_offset 4, -12
 706              		.cfi_offset 5, -8
 707              		.cfi_offset 14, -4
 272:C:/Users/lenovo/Desktop/liteos/Project2/BearPi_LiteOS/components/connectivity/agent_tiny/atiny_lwm2m\object_server.c ****     }
 708              		.loc 1 272 0
 709 0056 0120     		movs	r0, #1
 710              	.L63:
 278:C:/Users/lenovo/Desktop/liteos/Project2/BearPi_LiteOS/components/connectivity/agent_tiny/atiny_lwm2m\object_server.c **** static uint8_t prv_server_write(uint16_t instanceId,
 711              		.loc 1 278 0
 712 0058 38BD     		pop	{r3, r4, r5, pc}
 713              	.LVL106:
 714              	.L66:
 272:C:/Users/lenovo/Desktop/liteos/Project2/BearPi_LiteOS/components/connectivity/agent_tiny/atiny_lwm2m\object_server.c ****     }
 715              		.loc 1 272 0
 716 005a 0120     		movs	r0, #1
 717 005c FCE7     		b	.L63
 718              	.L67:
 719 005e 0120     		movs	r0, #1
 720 0060 FAE7     		b	.L63
 721              	.L68:
 722 0062 0120     		movs	r0, #1
 723 0064 F8E7     		b	.L63
 724              	.L69:
 725 0066 0120     		movs	r0, #1
 726 0068 F6E7     		b	.L63
 727              	.L70:
 728 006a 0120     		movs	r0, #1
 729 006c F4E7     		b	.L63
 730              	.L76:
 731 006e 00BF     		.align	2
 732              	.L75:
 733 0070 00000000 		.word	.LC2
 734 0074 04000000 		.word	.LC3
 735 0078 08000000 		.word	.LC4
 736 007c 0C000000 		.word	.LC5
 737 0080 10000000 		.word	.LC6
 738 0084 14000000 		.word	.LC7
 739              		.cfi_endproc
 740              	.LFE146:
 742              		.section	.text.prv_server_write,"ax",%progbits
 743              		.align	1
 744              		.syntax unified
 745              		.thumb
 746              		.thumb_func
 747              		.fpu fpv4-sp-d16
 749              	prv_server_write:
 750              	.LFB147:
 283:C:/Users/lenovo/Desktop/liteos/Project2/BearPi_LiteOS/components/connectivity/agent_tiny/atiny_lwm2m\object_server.c ****     server_instance_t *targetP;
 751              		.loc 1 283 0
 752              		.cfi_startproc
 753              		@ args = 0, pretend = 0, frame = 8
 754              		@ frame_needed = 0, uses_anonymous_args = 0
 755              	.LVL107:
 756 0000 2DE9F041 		push	{r4, r5, r6, r7, r8, lr}
 757              	.LCFI21:
 758              		.cfi_def_cfa_offset 24
 759              		.cfi_offset 4, -24
ARM GAS  c:\Users\lenovo\AppData\Local\Temp\cchOsOqP.s 			page 23


 760              		.cfi_offset 5, -20
 761              		.cfi_offset 6, -16
 762              		.cfi_offset 7, -12
 763              		.cfi_offset 8, -8
 764              		.cfi_offset 14, -4
 765 0004 82B0     		sub	sp, sp, #8
 766              	.LCFI22:
 767              		.cfi_def_cfa_offset 32
 768 0006 0F46     		mov	r7, r1
 769 0008 1646     		mov	r6, r2
 288:C:/Users/lenovo/Desktop/liteos/Project2/BearPi_LiteOS/components/connectivity/agent_tiny/atiny_lwm2m\object_server.c ****     if (NULL == targetP)
 770              		.loc 1 288 0
 771 000a 0146     		mov	r1, r0
 772              	.LVL108:
 773 000c 9868     		ldr	r0, [r3, #8]
 774              	.LVL109:
 775 000e FFF7FEFF 		bl	lwm2m_list_find
 776              	.LVL110:
 289:C:/Users/lenovo/Desktop/liteos/Project2/BearPi_LiteOS/components/connectivity/agent_tiny/atiny_lwm2m\object_server.c ****     {
 777              		.loc 1 289 0
 778 0012 0028     		cmp	r0, #0
 779 0014 00F08480 		beq	.L91
 780 0018 8046     		mov	r8, r0
 294:C:/Users/lenovo/Desktop/liteos/Project2/BearPi_LiteOS/components/connectivity/agent_tiny/atiny_lwm2m\object_server.c ****     do
 781              		.loc 1 294 0
 782 001a 0024     		movs	r4, #0
 783 001c 61E0     		b	.L90
 784              	.LVL111:
 785              	.L79:
 786              	.LBB4:
 301:C:/Users/lenovo/Desktop/liteos/Project2/BearPi_LiteOS/components/connectivity/agent_tiny/atiny_lwm2m\object_server.c ****             result = prv_set_int_value(dataArray + i, &value);
 787              		.loc 1 301 0
 788 001e B8F80630 		ldrh	r3, [r8, #6]
 789 0022 02A9     		add	r1, sp, #8
 790 0024 41F8043D 		str	r3, [r1, #-4]!
 302:C:/Users/lenovo/Desktop/liteos/Project2/BearPi_LiteOS/components/connectivity/agent_tiny/atiny_lwm2m\object_server.c ****             if (COAP_204_CHANGED == result)
 791              		.loc 1 302 0
 792 0028 2846     		mov	r0, r5
 793 002a FFF7FEFF 		bl	prv_set_int_value
 794              	.LVL112:
 303:C:/Users/lenovo/Desktop/liteos/Project2/BearPi_LiteOS/components/connectivity/agent_tiny/atiny_lwm2m\object_server.c ****             {
 795              		.loc 1 303 0
 796 002e 4428     		cmp	r0, #68
 797 0030 52D1     		bne	.L84
 305:C:/Users/lenovo/Desktop/liteos/Project2/BearPi_LiteOS/components/connectivity/agent_tiny/atiny_lwm2m\object_server.c ****                 {
 798              		.loc 1 305 0
 799 0032 019B     		ldr	r3, [sp, #4]
 800 0034 591E     		subs	r1, r3, #1
 801 0036 4FF6FE72 		movw	r2, #65534
 802 003a 9142     		cmp	r1, r2
 803 003c 02D8     		bhi	.L94
 307:C:/Users/lenovo/Desktop/liteos/Project2/BearPi_LiteOS/components/connectivity/agent_tiny/atiny_lwm2m\object_server.c ****                 }
 804              		.loc 1 307 0
 805 003e A8F80630 		strh	r3, [r8, #6]	@ movhi
 806 0042 49E0     		b	.L84
 807              	.L94:
 311:C:/Users/lenovo/Desktop/liteos/Project2/BearPi_LiteOS/components/connectivity/agent_tiny/atiny_lwm2m\object_server.c ****                 }
ARM GAS  c:\Users\lenovo\AppData\Local\Temp\cchOsOqP.s 			page 24


 808              		.loc 1 311 0
 809 0044 8620     		movs	r0, #134
 810              	.LVL113:
 811              	.LBE4:
 315:C:/Users/lenovo/Desktop/liteos/Project2/BearPi_LiteOS/components/connectivity/agent_tiny/atiny_lwm2m\object_server.c **** 
 812              		.loc 1 315 0
 813 0046 47E0     		b	.L84
 814              	.LVL114:
 815              	.L81:
 318:C:/Users/lenovo/Desktop/liteos/Project2/BearPi_LiteOS/components/connectivity/agent_tiny/atiny_lwm2m\object_server.c ****             break;
 816              		.loc 1 318 0
 817 0048 08F10801 		add	r1, r8, #8
 818 004c 2846     		mov	r0, r5
 819 004e FFF7FEFF 		bl	prv_set_int_value
 820              	.LVL115:
 319:C:/Users/lenovo/Desktop/liteos/Project2/BearPi_LiteOS/components/connectivity/agent_tiny/atiny_lwm2m\object_server.c **** 
 821              		.loc 1 319 0
 822 0052 41E0     		b	.L84
 823              	.LVL116:
 824              	.L82:
 322:C:/Users/lenovo/Desktop/liteos/Project2/BearPi_LiteOS/components/connectivity/agent_tiny/atiny_lwm2m\object_server.c ****             break;
 825              		.loc 1 322 0
 826 0054 08F10C01 		add	r1, r8, #12
 827 0058 2846     		mov	r0, r5
 828 005a FFF7FEFF 		bl	prv_set_int_value
 829              	.LVL117:
 323:C:/Users/lenovo/Desktop/liteos/Project2/BearPi_LiteOS/components/connectivity/agent_tiny/atiny_lwm2m\object_server.c **** 
 830              		.loc 1 323 0
 831 005e 3BE0     		b	.L84
 832              	.LVL118:
 833              	.L83:
 326:C:/Users/lenovo/Desktop/liteos/Project2/BearPi_LiteOS/components/connectivity/agent_tiny/atiny_lwm2m\object_server.c ****             break;
 834              		.loc 1 326 0
 835 0060 08F11001 		add	r1, r8, #16
 836 0064 2846     		mov	r0, r5
 837 0066 FFF7FEFF 		bl	prv_set_int_value
 838              	.LVL119:
 327:C:/Users/lenovo/Desktop/liteos/Project2/BearPi_LiteOS/components/connectivity/agent_tiny/atiny_lwm2m\object_server.c **** 
 839              		.loc 1 327 0
 840 006a 35E0     		b	.L84
 841              	.LVL120:
 842              	.L85:
 334:C:/Users/lenovo/Desktop/liteos/Project2/BearPi_LiteOS/components/connectivity/agent_tiny/atiny_lwm2m\object_server.c ****             break;
 843              		.loc 1 334 0
 844 006c 08F11401 		add	r1, r8, #20
 845 0070 2846     		mov	r0, r5
 846 0072 FFF7FEFF 		bl	prv_set_int_value
 847              	.LVL121:
 335:C:/Users/lenovo/Desktop/liteos/Project2/BearPi_LiteOS/components/connectivity/agent_tiny/atiny_lwm2m\object_server.c **** 
 848              		.loc 1 335 0
 849 0076 2FE0     		b	.L84
 850              	.LVL122:
 851              	.L86:
 852              	.LBB5:
 341:C:/Users/lenovo/Desktop/liteos/Project2/BearPi_LiteOS/components/connectivity/agent_tiny/atiny_lwm2m\object_server.c ****             {
 853              		.loc 1 341 0
 854 0078 01A9     		add	r1, sp, #4
ARM GAS  c:\Users\lenovo\AppData\Local\Temp\cchOsOqP.s 			page 25


 855 007a 2846     		mov	r0, r5
 856 007c FFF7FEFF 		bl	lwm2m_data_decode_bool
 857              	.LVL123:
 858 0080 0128     		cmp	r0, #1
 859 0082 01D0     		beq	.L102
 352:C:/Users/lenovo/Desktop/liteos/Project2/BearPi_LiteOS/components/connectivity/agent_tiny/atiny_lwm2m\object_server.c ****             }
 860              		.loc 1 352 0
 861 0084 8020     		movs	r0, #128
 862 0086 27E0     		b	.L84
 863              	.L102:
 343:C:/Users/lenovo/Desktop/liteos/Project2/BearPi_LiteOS/components/connectivity/agent_tiny/atiny_lwm2m\object_server.c ****                 if(!value)
 864              		.loc 1 343 0
 865 0088 9DF80400 		ldrb	r0, [sp, #4]	@ zero_extendqisi2
 866 008c 88F81800 		strb	r0, [r8, #24]
 344:C:/Users/lenovo/Desktop/liteos/Project2/BearPi_LiteOS/components/connectivity/agent_tiny/atiny_lwm2m\object_server.c ****                 {
 867              		.loc 1 344 0
 868 0090 08B1     		cbz	r0, .L103
 348:C:/Users/lenovo/Desktop/liteos/Project2/BearPi_LiteOS/components/connectivity/agent_tiny/atiny_lwm2m\object_server.c ****             }
 869              		.loc 1 348 0
 870 0092 4420     		movs	r0, #68
 871              	.LVL124:
 872              	.LBE5:
 355:C:/Users/lenovo/Desktop/liteos/Project2/BearPi_LiteOS/components/connectivity/agent_tiny/atiny_lwm2m\object_server.c **** 
 873              		.loc 1 355 0
 874 0094 20E0     		b	.L84
 875              	.LVL125:
 876              	.L103:
 877              	.LBB6:
 346:C:/Users/lenovo/Desktop/liteos/Project2/BearPi_LiteOS/components/connectivity/agent_tiny/atiny_lwm2m\object_server.c ****                 }
 878              		.loc 1 346 0
 879 0096 FFF7FEFF 		bl	set_binary_app_data_object_rpt_max_cnt
 880              	.LVL126:
 348:C:/Users/lenovo/Desktop/liteos/Project2/BearPi_LiteOS/components/connectivity/agent_tiny/atiny_lwm2m\object_server.c ****             }
 881              		.loc 1 348 0
 882 009a 4420     		movs	r0, #68
 883 009c 1CE0     		b	.L84
 884              	.L87:
 885              	.LBE6:
 358:C:/Users/lenovo/Desktop/liteos/Project2/BearPi_LiteOS/components/connectivity/agent_tiny/atiny_lwm2m\object_server.c ****                     && dataArray[i].value.asBuffer.length > 0 && dataArray[i].value.asBuffer.length
 886              		.loc 1 358 0
 887 009e B35C     		ldrb	r3, [r6, r2]	@ zero_extendqisi2
 888 00a0 043B     		subs	r3, r3, #4
 889 00a2 DBB2     		uxtb	r3, r3
 890 00a4 012B     		cmp	r3, #1
 891 00a6 01D9     		bls	.L104
 368:C:/Users/lenovo/Desktop/liteos/Project2/BearPi_LiteOS/components/connectivity/agent_tiny/atiny_lwm2m\object_server.c ****             }
 892              		.loc 1 368 0
 893 00a8 8020     		movs	r0, #128
 894 00aa 15E0     		b	.L84
 895              	.L104:
 359:C:/Users/lenovo/Desktop/liteos/Project2/BearPi_LiteOS/components/connectivity/agent_tiny/atiny_lwm2m\object_server.c ****                     && prv_server_check_binding_valid((char *)dataArray[i].value.asBuffer.buffer, d
 896              		.loc 1 359 0
 897 00ac A968     		ldr	r1, [r5, #8]
 898 00ae 99B3     		cbz	r1, .L98
 359:C:/Users/lenovo/Desktop/liteos/Project2/BearPi_LiteOS/components/connectivity/agent_tiny/atiny_lwm2m\object_server.c ****                     && prv_server_check_binding_valid((char *)dataArray[i].value.asBuffer.buffer, d
 899              		.loc 1 359 0 is_stmt 0 discriminator 1
 900 00b0 0329     		cmp	r1, #3
ARM GAS  c:\Users\lenovo\AppData\Local\Temp\cchOsOqP.s 			page 26


 901 00b2 33D8     		bhi	.L99
 360:C:/Users/lenovo/Desktop/liteos/Project2/BearPi_LiteOS/components/connectivity/agent_tiny/atiny_lwm2m\object_server.c ****             {
 902              		.loc 1 360 0 is_stmt 1
 903 00b4 E868     		ldr	r0, [r5, #12]
 904 00b6 FFF7FEFF 		bl	prv_server_check_binding_valid
 905              	.LVL127:
 906 00ba 08B9     		cbnz	r0, .L105
 368:C:/Users/lenovo/Desktop/liteos/Project2/BearPi_LiteOS/components/connectivity/agent_tiny/atiny_lwm2m\object_server.c ****             }
 907              		.loc 1 368 0
 908 00bc 8020     		movs	r0, #128
 909 00be 0BE0     		b	.L84
 910              	.L105:
 362:C:/Users/lenovo/Desktop/liteos/Project2/BearPi_LiteOS/components/connectivity/agent_tiny/atiny_lwm2m\object_server.c ****                 strncpy(targetP->binding, (char *)dataArray[i].value.asBuffer.buffer, dataArray[i].
 911              		.loc 1 362 0
 912 00c0 0023     		movs	r3, #0
 913 00c2 C8F81930 		str	r3, [r8, #25]	@ unaligned
 363:C:/Users/lenovo/Desktop/liteos/Project2/BearPi_LiteOS/components/connectivity/agent_tiny/atiny_lwm2m\object_server.c ****                 result = COAP_204_CHANGED;
 914              		.loc 1 363 0
 915 00c6 AA68     		ldr	r2, [r5, #8]
 916 00c8 E968     		ldr	r1, [r5, #12]
 917 00ca 08F11900 		add	r0, r8, #25
 918 00ce FFF7FEFF 		bl	strncpy
 919              	.LVL128:
 364:C:/Users/lenovo/Desktop/liteos/Project2/BearPi_LiteOS/components/connectivity/agent_tiny/atiny_lwm2m\object_server.c ****             }
 920              		.loc 1 364 0
 921 00d2 4420     		movs	r0, #68
 922 00d4 00E0     		b	.L84
 923              	.LVL129:
 924              	.L93:
 330:C:/Users/lenovo/Desktop/liteos/Project2/BearPi_LiteOS/components/connectivity/agent_tiny/atiny_lwm2m\object_server.c ****             break;
 925              		.loc 1 330 0
 926 00d6 8520     		movs	r0, #133
 927              	.L84:
 928              	.LVL130:
 379:C:/Users/lenovo/Desktop/liteos/Project2/BearPi_LiteOS/components/connectivity/agent_tiny/atiny_lwm2m\object_server.c ****     }
 929              		.loc 1 379 0
 930 00d8 0134     		adds	r4, r4, #1
 931              	.LVL131:
 381:C:/Users/lenovo/Desktop/liteos/Project2/BearPi_LiteOS/components/connectivity/agent_tiny/atiny_lwm2m\object_server.c **** 
 932              		.loc 1 381 0
 933 00da BC42     		cmp	r4, r7
 934 00dc 21DA     		bge	.L78
 381:C:/Users/lenovo/Desktop/liteos/Project2/BearPi_LiteOS/components/connectivity/agent_tiny/atiny_lwm2m\object_server.c **** 
 935              		.loc 1 381 0 is_stmt 0 discriminator 1
 936 00de 4428     		cmp	r0, #68
 937 00e0 1FD1     		bne	.L78
 938              	.LVL132:
 939              	.L90:
 297:C:/Users/lenovo/Desktop/liteos/Project2/BearPi_LiteOS/components/connectivity/agent_tiny/atiny_lwm2m\object_server.c ****         {
 940              		.loc 1 297 0 is_stmt 1
 941 00e2 2201     		lsls	r2, r4, #4
 942 00e4 B518     		adds	r5, r6, r2
 943 00e6 6B88     		ldrh	r3, [r5, #2]
 944 00e8 082B     		cmp	r3, #8
 945 00ea 1DD8     		bhi	.L92
 946 00ec 01A1     		adr	r1, .L80
 947 00ee 51F823F0 		ldr	pc, [r1, r3, lsl #2]
ARM GAS  c:\Users\lenovo\AppData\Local\Temp\cchOsOqP.s 			page 27


 948 00f2 00BF     		.p2align 2
 949              	.L80:
 950 00f4 1F000000 		.word	.L79+1
 951 00f8 49000000 		.word	.L81+1
 952 00fc 55000000 		.word	.L82+1
 953 0100 61000000 		.word	.L83+1
 954 0104 D7000000 		.word	.L93+1
 955 0108 6D000000 		.word	.L85+1
 956 010c 79000000 		.word	.L86+1
 957 0110 9F000000 		.word	.L87+1
 958 0114 D7000000 		.word	.L93+1
 959              		.p2align 1
 960              	.L98:
 368:C:/Users/lenovo/Desktop/liteos/Project2/BearPi_LiteOS/components/connectivity/agent_tiny/atiny_lwm2m\object_server.c ****             }
 961              		.loc 1 368 0
 962 0118 8020     		movs	r0, #128
 963 011a DDE7     		b	.L84
 964              	.L99:
 965 011c 8020     		movs	r0, #128
 966 011e DBE7     		b	.L84
 967              	.LVL133:
 968              	.L91:
 291:C:/Users/lenovo/Desktop/liteos/Project2/BearPi_LiteOS/components/connectivity/agent_tiny/atiny_lwm2m\object_server.c ****     }
 969              		.loc 1 291 0
 970 0120 8420     		movs	r0, #132
 971              	.LVL134:
 972              	.L78:
 384:C:/Users/lenovo/Desktop/liteos/Project2/BearPi_LiteOS/components/connectivity/agent_tiny/atiny_lwm2m\object_server.c **** 
 973              		.loc 1 384 0
 974 0122 02B0     		add	sp, sp, #8
 975              	.LCFI23:
 976              		.cfi_def_cfa_offset 24
 977              		@ sp needed
 978 0124 BDE8F081 		pop	{r4, r5, r6, r7, r8, pc}
 979              	.LVL135:
 980              	.L92:
 377:C:/Users/lenovo/Desktop/liteos/Project2/BearPi_LiteOS/components/connectivity/agent_tiny/atiny_lwm2m\object_server.c ****         }
 981              		.loc 1 377 0
 982 0128 8420     		movs	r0, #132
 983 012a FAE7     		b	.L78
 984              		.cfi_endproc
 985              	.LFE147:
 987              		.section	.text.prv_server_create,"ax",%progbits
 988              		.align	1
 989              		.syntax unified
 990              		.thumb
 991              		.thumb_func
 992              		.fpu fpv4-sp-d16
 994              	prv_server_create:
 995              	.LFB150:
 424:C:/Users/lenovo/Desktop/liteos/Project2/BearPi_LiteOS/components/connectivity/agent_tiny/atiny_lwm2m\object_server.c **** 
 425:C:/Users/lenovo/Desktop/liteos/Project2/BearPi_LiteOS/components/connectivity/agent_tiny/atiny_lwm2m\object_server.c **** static uint8_t prv_server_create(uint16_t instanceId,
 426:C:/Users/lenovo/Desktop/liteos/Project2/BearPi_LiteOS/components/connectivity/agent_tiny/atiny_lwm2m\object_server.c ****                                  int numData,
 427:C:/Users/lenovo/Desktop/liteos/Project2/BearPi_LiteOS/components/connectivity/agent_tiny/atiny_lwm2m\object_server.c ****                                  lwm2m_data_t *dataArray,
 428:C:/Users/lenovo/Desktop/liteos/Project2/BearPi_LiteOS/components/connectivity/agent_tiny/atiny_lwm2m\object_server.c ****                                  lwm2m_object_t *objectP)
 429:C:/Users/lenovo/Desktop/liteos/Project2/BearPi_LiteOS/components/connectivity/agent_tiny/atiny_lwm2m\object_server.c **** {
 996              		.loc 1 429 0
ARM GAS  c:\Users\lenovo\AppData\Local\Temp\cchOsOqP.s 			page 28


 997              		.cfi_startproc
 998              		@ args = 0, pretend = 0, frame = 0
 999              		@ frame_needed = 0, uses_anonymous_args = 0
 1000              	.LVL136:
 1001 0000 2DE9F041 		push	{r4, r5, r6, r7, r8, lr}
 1002              	.LCFI24:
 1003              		.cfi_def_cfa_offset 24
 1004              		.cfi_offset 4, -24
 1005              		.cfi_offset 5, -20
 1006              		.cfi_offset 6, -16
 1007              		.cfi_offset 7, -12
 1008              		.cfi_offset 8, -8
 1009              		.cfi_offset 14, -4
 1010 0004 0646     		mov	r6, r0
 1011 0006 0F46     		mov	r7, r1
 1012 0008 9046     		mov	r8, r2
 1013 000a 1C46     		mov	r4, r3
 430:C:/Users/lenovo/Desktop/liteos/Project2/BearPi_LiteOS/components/connectivity/agent_tiny/atiny_lwm2m\object_server.c ****     server_instance_t *serverInstance;
 431:C:/Users/lenovo/Desktop/liteos/Project2/BearPi_LiteOS/components/connectivity/agent_tiny/atiny_lwm2m\object_server.c ****     uint8_t result;
 432:C:/Users/lenovo/Desktop/liteos/Project2/BearPi_LiteOS/components/connectivity/agent_tiny/atiny_lwm2m\object_server.c **** 
 433:C:/Users/lenovo/Desktop/liteos/Project2/BearPi_LiteOS/components/connectivity/agent_tiny/atiny_lwm2m\object_server.c ****     serverInstance = (server_instance_t *)lwm2m_malloc(sizeof(server_instance_t));
 1014              		.loc 1 433 0
 1015 000c 2020     		movs	r0, #32
 1016              	.LVL137:
 1017 000e FFF7FEFF 		bl	lwm2m_malloc
 1018              	.LVL138:
 434:C:/Users/lenovo/Desktop/liteos/Project2/BearPi_LiteOS/components/connectivity/agent_tiny/atiny_lwm2m\object_server.c ****     if (NULL == serverInstance) return COAP_500_INTERNAL_SERVER_ERROR;
 1019              		.loc 1 434 0
 1020 0012 D0B1     		cbz	r0, .L108
 1021 0014 0546     		mov	r5, r0
 435:C:/Users/lenovo/Desktop/liteos/Project2/BearPi_LiteOS/components/connectivity/agent_tiny/atiny_lwm2m\object_server.c ****     memset(serverInstance, 0, sizeof(server_instance_t));
 1022              		.loc 1 435 0
 1023 0016 2022     		movs	r2, #32
 1024 0018 0021     		movs	r1, #0
 1025 001a FFF7FEFF 		bl	memset
 1026              	.LVL139:
 436:C:/Users/lenovo/Desktop/liteos/Project2/BearPi_LiteOS/components/connectivity/agent_tiny/atiny_lwm2m\object_server.c **** 
 437:C:/Users/lenovo/Desktop/liteos/Project2/BearPi_LiteOS/components/connectivity/agent_tiny/atiny_lwm2m\object_server.c ****     serverInstance->instanceId = instanceId;
 1027              		.loc 1 437 0
 1028 001e AE80     		strh	r6, [r5, #4]	@ movhi
 438:C:/Users/lenovo/Desktop/liteos/Project2/BearPi_LiteOS/components/connectivity/agent_tiny/atiny_lwm2m\object_server.c ****     objectP->instanceList = LWM2M_LIST_ADD(objectP->instanceList, serverInstance);
 1029              		.loc 1 438 0
 1030 0020 2946     		mov	r1, r5
 1031 0022 A068     		ldr	r0, [r4, #8]
 1032 0024 FFF7FEFF 		bl	lwm2m_list_add
 1033              	.LVL140:
 1034 0028 A060     		str	r0, [r4, #8]
 439:C:/Users/lenovo/Desktop/liteos/Project2/BearPi_LiteOS/components/connectivity/agent_tiny/atiny_lwm2m\object_server.c **** 
 440:C:/Users/lenovo/Desktop/liteos/Project2/BearPi_LiteOS/components/connectivity/agent_tiny/atiny_lwm2m\object_server.c ****     result = prv_server_write(instanceId, numData, dataArray, objectP);
 1035              		.loc 1 440 0
 1036 002a 2346     		mov	r3, r4
 1037 002c 4246     		mov	r2, r8
 1038 002e 3946     		mov	r1, r7
 1039 0030 3046     		mov	r0, r6
 1040 0032 FFF7FEFF 		bl	prv_server_write
 1041              	.LVL141:
 1042 0036 0546     		mov	r5, r0
ARM GAS  c:\Users\lenovo\AppData\Local\Temp\cchOsOqP.s 			page 29


 1043              	.LVL142:
 441:C:/Users/lenovo/Desktop/liteos/Project2/BearPi_LiteOS/components/connectivity/agent_tiny/atiny_lwm2m\object_server.c **** 
 442:C:/Users/lenovo/Desktop/liteos/Project2/BearPi_LiteOS/components/connectivity/agent_tiny/atiny_lwm2m\object_server.c ****     if (result != COAP_204_CHANGED)
 1044              		.loc 1 442 0
 1045 0038 4428     		cmp	r0, #68
 1046 003a 08D0     		beq	.L109
 443:C:/Users/lenovo/Desktop/liteos/Project2/BearPi_LiteOS/components/connectivity/agent_tiny/atiny_lwm2m\object_server.c ****     {
 444:C:/Users/lenovo/Desktop/liteos/Project2/BearPi_LiteOS/components/connectivity/agent_tiny/atiny_lwm2m\object_server.c ****         (void)prv_server_delete(instanceId, objectP);
 1047              		.loc 1 444 0
 1048 003c 2146     		mov	r1, r4
 1049 003e 3046     		mov	r0, r6
 1050              	.LVL143:
 1051 0040 FFF7FEFF 		bl	prv_server_delete
 1052              	.LVL144:
 1053              	.L107:
 445:C:/Users/lenovo/Desktop/liteos/Project2/BearPi_LiteOS/components/connectivity/agent_tiny/atiny_lwm2m\object_server.c ****     }
 446:C:/Users/lenovo/Desktop/liteos/Project2/BearPi_LiteOS/components/connectivity/agent_tiny/atiny_lwm2m\object_server.c ****     else
 447:C:/Users/lenovo/Desktop/liteos/Project2/BearPi_LiteOS/components/connectivity/agent_tiny/atiny_lwm2m\object_server.c ****     {
 448:C:/Users/lenovo/Desktop/liteos/Project2/BearPi_LiteOS/components/connectivity/agent_tiny/atiny_lwm2m\object_server.c ****         result = COAP_201_CREATED;
 449:C:/Users/lenovo/Desktop/liteos/Project2/BearPi_LiteOS/components/connectivity/agent_tiny/atiny_lwm2m\object_server.c ****     }
 450:C:/Users/lenovo/Desktop/liteos/Project2/BearPi_LiteOS/components/connectivity/agent_tiny/atiny_lwm2m\object_server.c **** 
 451:C:/Users/lenovo/Desktop/liteos/Project2/BearPi_LiteOS/components/connectivity/agent_tiny/atiny_lwm2m\object_server.c ****     return result;
 452:C:/Users/lenovo/Desktop/liteos/Project2/BearPi_LiteOS/components/connectivity/agent_tiny/atiny_lwm2m\object_server.c **** }
 1054              		.loc 1 452 0
 1055 0044 2846     		mov	r0, r5
 1056 0046 BDE8F081 		pop	{r4, r5, r6, r7, r8, pc}
 1057              	.LVL145:
 1058              	.L108:
 434:C:/Users/lenovo/Desktop/liteos/Project2/BearPi_LiteOS/components/connectivity/agent_tiny/atiny_lwm2m\object_server.c ****     memset(serverInstance, 0, sizeof(server_instance_t));
 1059              		.loc 1 434 0
 1060 004a A025     		movs	r5, #160
 1061 004c FAE7     		b	.L107
 1062              	.LVL146:
 1063              	.L109:
 448:C:/Users/lenovo/Desktop/liteos/Project2/BearPi_LiteOS/components/connectivity/agent_tiny/atiny_lwm2m\object_server.c ****     }
 1064              		.loc 1 448 0
 1065 004e 4125     		movs	r5, #65
 1066 0050 F8E7     		b	.L107
 1067              		.cfi_endproc
 1068              	.LFE150:
 1070              		.section	.text.copy_server_object,"ax",%progbits
 1071              		.align	1
 1072              		.global	copy_server_object
 1073              		.syntax unified
 1074              		.thumb
 1075              		.thumb_func
 1076              		.fpu fpv4-sp-d16
 1078              	copy_server_object:
 1079              	.LFB151:
 453:C:/Users/lenovo/Desktop/liteos/Project2/BearPi_LiteOS/components/connectivity/agent_tiny/atiny_lwm2m\object_server.c **** 
 454:C:/Users/lenovo/Desktop/liteos/Project2/BearPi_LiteOS/components/connectivity/agent_tiny/atiny_lwm2m\object_server.c **** void copy_server_object(lwm2m_object_t *objectDest, lwm2m_object_t *objectSrc)
 455:C:/Users/lenovo/Desktop/liteos/Project2/BearPi_LiteOS/components/connectivity/agent_tiny/atiny_lwm2m\object_server.c **** {
 1080              		.loc 1 455 0
 1081              		.cfi_startproc
 1082              		@ args = 0, pretend = 0, frame = 0
 1083              		@ frame_needed = 0, uses_anonymous_args = 0
 1084              	.LVL147:
ARM GAS  c:\Users\lenovo\AppData\Local\Temp\cchOsOqP.s 			page 30


 1085 0000 F8B5     		push	{r3, r4, r5, r6, r7, lr}
 1086              	.LCFI25:
 1087              		.cfi_def_cfa_offset 24
 1088              		.cfi_offset 3, -24
 1089              		.cfi_offset 4, -20
 1090              		.cfi_offset 5, -16
 1091              		.cfi_offset 6, -12
 1092              		.cfi_offset 7, -8
 1093              		.cfi_offset 14, -4
 1094 0002 0746     		mov	r7, r0
 1095              	.LVL148:
 456:C:/Users/lenovo/Desktop/liteos/Project2/BearPi_LiteOS/components/connectivity/agent_tiny/atiny_lwm2m\object_server.c ****     server_instance_t *instanceSrc = NULL;
 457:C:/Users/lenovo/Desktop/liteos/Project2/BearPi_LiteOS/components/connectivity/agent_tiny/atiny_lwm2m\object_server.c ****     server_instance_t *previousInstanceDest = NULL;
 458:C:/Users/lenovo/Desktop/liteos/Project2/BearPi_LiteOS/components/connectivity/agent_tiny/atiny_lwm2m\object_server.c **** 
 459:C:/Users/lenovo/Desktop/liteos/Project2/BearPi_LiteOS/components/connectivity/agent_tiny/atiny_lwm2m\object_server.c ****     memcpy(objectDest, objectSrc, sizeof(lwm2m_object_t));
 1096              		.loc 1 459 0
 1097 0004 0B46     		mov	r3, r1
 1098 0006 0246     		mov	r2, r0
 1099 0008 01F12000 		add	r0, r1, #32
 1100              	.LVL149:
 1101              	.L112:
 1102 000c D3F800C0 		ldr	ip, [r3]	@ unaligned
 1103 0010 5E68     		ldr	r6, [r3, #4]	@ unaligned
 1104 0012 9D68     		ldr	r5, [r3, #8]	@ unaligned
 1105 0014 DC68     		ldr	r4, [r3, #12]	@ unaligned
 1106 0016 C2F800C0 		str	ip, [r2]	@ unaligned
 1107 001a 5660     		str	r6, [r2, #4]	@ unaligned
 1108 001c 9560     		str	r5, [r2, #8]	@ unaligned
 1109 001e D460     		str	r4, [r2, #12]	@ unaligned
 1110 0020 1033     		adds	r3, r3, #16
 1111 0022 1032     		adds	r2, r2, #16
 1112 0024 8342     		cmp	r3, r0
 1113 0026 F1D1     		bne	.L112
 1114 0028 1868     		ldr	r0, [r3]	@ unaligned
 1115 002a 5B68     		ldr	r3, [r3, #4]	@ unaligned
 1116 002c 1060     		str	r0, [r2]	@ unaligned
 1117 002e 5360     		str	r3, [r2, #4]	@ unaligned
 460:C:/Users/lenovo/Desktop/liteos/Project2/BearPi_LiteOS/components/connectivity/agent_tiny/atiny_lwm2m\object_server.c ****     objectDest->instanceList = NULL;
 1118              		.loc 1 460 0
 1119 0030 0026     		movs	r6, #0
 1120 0032 BE60     		str	r6, [r7, #8]
 461:C:/Users/lenovo/Desktop/liteos/Project2/BearPi_LiteOS/components/connectivity/agent_tiny/atiny_lwm2m\object_server.c ****     objectDest->userData = NULL;
 1121              		.loc 1 461 0
 1122 0034 BE62     		str	r6, [r7, #40]
 462:C:/Users/lenovo/Desktop/liteos/Project2/BearPi_LiteOS/components/connectivity/agent_tiny/atiny_lwm2m\object_server.c ****     instanceSrc = (server_instance_t *)objectSrc->instanceList;
 1123              		.loc 1 462 0
 1124 0036 8C68     		ldr	r4, [r1, #8]
 1125              	.LVL150:
 463:C:/Users/lenovo/Desktop/liteos/Project2/BearPi_LiteOS/components/connectivity/agent_tiny/atiny_lwm2m\object_server.c ****     while (instanceSrc != NULL)
 1126              		.loc 1 463 0
 1127 0038 01E0     		b	.L113
 1128              	.LVL151:
 1129              	.L119:
 1130              	.LBB7:
 464:C:/Users/lenovo/Desktop/liteos/Project2/BearPi_LiteOS/components/connectivity/agent_tiny/atiny_lwm2m\object_server.c ****     {
 465:C:/Users/lenovo/Desktop/liteos/Project2/BearPi_LiteOS/components/connectivity/agent_tiny/atiny_lwm2m\object_server.c ****         server_instance_t *instanceDest = (server_instance_t *)lwm2m_malloc(sizeof(server_instance_
 466:C:/Users/lenovo/Desktop/liteos/Project2/BearPi_LiteOS/components/connectivity/agent_tiny/atiny_lwm2m\object_server.c ****         if (NULL == instanceDest)
ARM GAS  c:\Users\lenovo\AppData\Local\Temp\cchOsOqP.s 			page 31


 467:C:/Users/lenovo/Desktop/liteos/Project2/BearPi_LiteOS/components/connectivity/agent_tiny/atiny_lwm2m\object_server.c ****         {
 468:C:/Users/lenovo/Desktop/liteos/Project2/BearPi_LiteOS/components/connectivity/agent_tiny/atiny_lwm2m\object_server.c ****             return;
 469:C:/Users/lenovo/Desktop/liteos/Project2/BearPi_LiteOS/components/connectivity/agent_tiny/atiny_lwm2m\object_server.c ****         }
 470:C:/Users/lenovo/Desktop/liteos/Project2/BearPi_LiteOS/components/connectivity/agent_tiny/atiny_lwm2m\object_server.c ****         memcpy(instanceDest, instanceSrc, sizeof(server_instance_t));
 471:C:/Users/lenovo/Desktop/liteos/Project2/BearPi_LiteOS/components/connectivity/agent_tiny/atiny_lwm2m\object_server.c ****         // not sure it's necessary:
 472:C:/Users/lenovo/Desktop/liteos/Project2/BearPi_LiteOS/components/connectivity/agent_tiny/atiny_lwm2m\object_server.c ****         strncpy(instanceDest->binding, instanceSrc->binding, 4);
 473:C:/Users/lenovo/Desktop/liteos/Project2/BearPi_LiteOS/components/connectivity/agent_tiny/atiny_lwm2m\object_server.c ****         instanceSrc = (server_instance_t *)instanceSrc->next;
 474:C:/Users/lenovo/Desktop/liteos/Project2/BearPi_LiteOS/components/connectivity/agent_tiny/atiny_lwm2m\object_server.c ****         if (previousInstanceDest == NULL)
 475:C:/Users/lenovo/Desktop/liteos/Project2/BearPi_LiteOS/components/connectivity/agent_tiny/atiny_lwm2m\object_server.c ****         {
 476:C:/Users/lenovo/Desktop/liteos/Project2/BearPi_LiteOS/components/connectivity/agent_tiny/atiny_lwm2m\object_server.c ****             objectDest->instanceList = (lwm2m_list_t *)instanceDest;
 1131              		.loc 1 476 0
 1132 003a BD60     		str	r5, [r7, #8]
 1133              	.L116:
 1134              	.LBE7:
 455:C:/Users/lenovo/Desktop/liteos/Project2/BearPi_LiteOS/components/connectivity/agent_tiny/atiny_lwm2m\object_server.c ****     server_instance_t *instanceSrc = NULL;
 1135              		.loc 1 455 0
 1136 003c 2E46     		mov	r6, r5
 1137              	.LVL152:
 1138              	.L113:
 463:C:/Users/lenovo/Desktop/liteos/Project2/BearPi_LiteOS/components/connectivity/agent_tiny/atiny_lwm2m\object_server.c ****     while (instanceSrc != NULL)
 1139              		.loc 1 463 0
 1140 003e 04B3     		cbz	r4, .L111
 1141              	.LBB8:
 465:C:/Users/lenovo/Desktop/liteos/Project2/BearPi_LiteOS/components/connectivity/agent_tiny/atiny_lwm2m\object_server.c ****         if (NULL == instanceDest)
 1142              		.loc 1 465 0
 1143 0040 2020     		movs	r0, #32
 1144 0042 FFF7FEFF 		bl	lwm2m_malloc
 1145              	.LVL153:
 466:C:/Users/lenovo/Desktop/liteos/Project2/BearPi_LiteOS/components/connectivity/agent_tiny/atiny_lwm2m\object_server.c ****         {
 1146              		.loc 1 466 0
 1147 0046 0546     		mov	r5, r0
 1148 0048 D8B1     		cbz	r0, .L111
 470:C:/Users/lenovo/Desktop/liteos/Project2/BearPi_LiteOS/components/connectivity/agent_tiny/atiny_lwm2m\object_server.c ****         // not sure it's necessary:
 1149              		.loc 1 470 0
 1150 004a 2068     		ldr	r0, [r4]	@ unaligned
 1151              	.LVL154:
 1152 004c 6168     		ldr	r1, [r4, #4]	@ unaligned
 1153 004e A268     		ldr	r2, [r4, #8]	@ unaligned
 1154 0050 E368     		ldr	r3, [r4, #12]	@ unaligned
 1155 0052 2860     		str	r0, [r5]	@ unaligned
 1156 0054 6960     		str	r1, [r5, #4]	@ unaligned
 1157 0056 AA60     		str	r2, [r5, #8]	@ unaligned
 1158 0058 EB60     		str	r3, [r5, #12]	@ unaligned
 1159 005a 2069     		ldr	r0, [r4, #16]	@ unaligned
 1160 005c 6169     		ldr	r1, [r4, #20]	@ unaligned
 1161 005e A269     		ldr	r2, [r4, #24]	@ unaligned
 1162 0060 E369     		ldr	r3, [r4, #28]	@ unaligned
 1163 0062 2861     		str	r0, [r5, #16]	@ unaligned
 1164 0064 6961     		str	r1, [r5, #20]	@ unaligned
 1165 0066 AA61     		str	r2, [r5, #24]	@ unaligned
 1166 0068 EB61     		str	r3, [r5, #28]	@ unaligned
 472:C:/Users/lenovo/Desktop/liteos/Project2/BearPi_LiteOS/components/connectivity/agent_tiny/atiny_lwm2m\object_server.c ****         instanceSrc = (server_instance_t *)instanceSrc->next;
 1167              		.loc 1 472 0
 1168 006a 0422     		movs	r2, #4
 1169 006c 04F11901 		add	r1, r4, #25
 1170 0070 05F11900 		add	r0, r5, #25
 1171 0074 FFF7FEFF 		bl	strncpy
ARM GAS  c:\Users\lenovo\AppData\Local\Temp\cchOsOqP.s 			page 32


 1172              	.LVL155:
 473:C:/Users/lenovo/Desktop/liteos/Project2/BearPi_LiteOS/components/connectivity/agent_tiny/atiny_lwm2m\object_server.c ****         if (previousInstanceDest == NULL)
 1173              		.loc 1 473 0
 1174 0078 2468     		ldr	r4, [r4]
 1175              	.LVL156:
 474:C:/Users/lenovo/Desktop/liteos/Project2/BearPi_LiteOS/components/connectivity/agent_tiny/atiny_lwm2m\object_server.c ****         {
 1176              		.loc 1 474 0
 1177 007a 002E     		cmp	r6, #0
 1178 007c DDD0     		beq	.L119
 477:C:/Users/lenovo/Desktop/liteos/Project2/BearPi_LiteOS/components/connectivity/agent_tiny/atiny_lwm2m\object_server.c ****         }
 478:C:/Users/lenovo/Desktop/liteos/Project2/BearPi_LiteOS/components/connectivity/agent_tiny/atiny_lwm2m\object_server.c ****         else
 479:C:/Users/lenovo/Desktop/liteos/Project2/BearPi_LiteOS/components/connectivity/agent_tiny/atiny_lwm2m\object_server.c ****         {
 480:C:/Users/lenovo/Desktop/liteos/Project2/BearPi_LiteOS/components/connectivity/agent_tiny/atiny_lwm2m\object_server.c ****             previousInstanceDest->next = instanceDest;
 1179              		.loc 1 480 0
 1180 007e 3560     		str	r5, [r6]
 1181 0080 DCE7     		b	.L116
 1182              	.LVL157:
 1183              	.L111:
 1184              	.LBE8:
 481:C:/Users/lenovo/Desktop/liteos/Project2/BearPi_LiteOS/components/connectivity/agent_tiny/atiny_lwm2m\object_server.c ****         }
 482:C:/Users/lenovo/Desktop/liteos/Project2/BearPi_LiteOS/components/connectivity/agent_tiny/atiny_lwm2m\object_server.c ****         previousInstanceDest = instanceDest;
 483:C:/Users/lenovo/Desktop/liteos/Project2/BearPi_LiteOS/components/connectivity/agent_tiny/atiny_lwm2m\object_server.c ****     }
 484:C:/Users/lenovo/Desktop/liteos/Project2/BearPi_LiteOS/components/connectivity/agent_tiny/atiny_lwm2m\object_server.c **** }
 1185              		.loc 1 484 0
 1186 0082 F8BD     		pop	{r3, r4, r5, r6, r7, pc}
 1187              		.cfi_endproc
 1188              	.LFE151:
 1190              		.section	.text.display_server_object,"ax",%progbits
 1191              		.align	1
 1192              		.global	display_server_object
 1193              		.syntax unified
 1194              		.thumb
 1195              		.thumb_func
 1196              		.fpu fpv4-sp-d16
 1198              	display_server_object:
 1199              	.LFB152:
 485:C:/Users/lenovo/Desktop/liteos/Project2/BearPi_LiteOS/components/connectivity/agent_tiny/atiny_lwm2m\object_server.c **** 
 486:C:/Users/lenovo/Desktop/liteos/Project2/BearPi_LiteOS/components/connectivity/agent_tiny/atiny_lwm2m\object_server.c **** void display_server_object(lwm2m_object_t *object)
 487:C:/Users/lenovo/Desktop/liteos/Project2/BearPi_LiteOS/components/connectivity/agent_tiny/atiny_lwm2m\object_server.c **** {
 1200              		.loc 1 487 0
 1201              		.cfi_startproc
 1202              		@ args = 0, pretend = 0, frame = 0
 1203              		@ frame_needed = 0, uses_anonymous_args = 0
 1204              		@ link register save eliminated.
 1205              	.LVL158:
 488:C:/Users/lenovo/Desktop/liteos/Project2/BearPi_LiteOS/components/connectivity/agent_tiny/atiny_lwm2m\object_server.c **** #ifdef WITH_LOGS
 489:C:/Users/lenovo/Desktop/liteos/Project2/BearPi_LiteOS/components/connectivity/agent_tiny/atiny_lwm2m\object_server.c ****     fprintf(stdout, "  /%u: Server object, instances:\r\n", object->objID);
 490:C:/Users/lenovo/Desktop/liteos/Project2/BearPi_LiteOS/components/connectivity/agent_tiny/atiny_lwm2m\object_server.c ****     server_instance_t *serverInstance = (server_instance_t *)object->instanceList;
 491:C:/Users/lenovo/Desktop/liteos/Project2/BearPi_LiteOS/components/connectivity/agent_tiny/atiny_lwm2m\object_server.c ****     while (serverInstance != NULL)
 492:C:/Users/lenovo/Desktop/liteos/Project2/BearPi_LiteOS/components/connectivity/agent_tiny/atiny_lwm2m\object_server.c ****     {
 493:C:/Users/lenovo/Desktop/liteos/Project2/BearPi_LiteOS/components/connectivity/agent_tiny/atiny_lwm2m\object_server.c ****         fprintf(stdout, "    /%u/%u: instanceId: %u, shortServerId: %u, lifetime: %u, storing: %s, 
 494:C:/Users/lenovo/Desktop/liteos/Project2/BearPi_LiteOS/components/connectivity/agent_tiny/atiny_lwm2m\object_server.c ****                 object->objID, serverInstance->instanceId,
 495:C:/Users/lenovo/Desktop/liteos/Project2/BearPi_LiteOS/components/connectivity/agent_tiny/atiny_lwm2m\object_server.c ****                 serverInstance->instanceId, serverInstance->shortServerId, serverInstance->lifetime
 496:C:/Users/lenovo/Desktop/liteos/Project2/BearPi_LiteOS/components/connectivity/agent_tiny/atiny_lwm2m\object_server.c ****                 serverInstance->storing ? "true" : "false", serverInstance->binding);
 497:C:/Users/lenovo/Desktop/liteos/Project2/BearPi_LiteOS/components/connectivity/agent_tiny/atiny_lwm2m\object_server.c ****         serverInstance = (server_instance_t *)serverInstance->next;
 498:C:/Users/lenovo/Desktop/liteos/Project2/BearPi_LiteOS/components/connectivity/agent_tiny/atiny_lwm2m\object_server.c ****     }
 499:C:/Users/lenovo/Desktop/liteos/Project2/BearPi_LiteOS/components/connectivity/agent_tiny/atiny_lwm2m\object_server.c **** #endif
ARM GAS  c:\Users\lenovo\AppData\Local\Temp\cchOsOqP.s 			page 33


 500:C:/Users/lenovo/Desktop/liteos/Project2/BearPi_LiteOS/components/connectivity/agent_tiny/atiny_lwm2m\object_server.c **** }
 1206              		.loc 1 500 0
 1207 0000 7047     		bx	lr
 1208              		.cfi_endproc
 1209              	.LFE152:
 1211              		.section	.text.get_server_object,"ax",%progbits
 1212              		.align	1
 1213              		.global	get_server_object
 1214              		.syntax unified
 1215              		.thumb
 1216              		.thumb_func
 1217              		.fpu fpv4-sp-d16
 1219              	get_server_object:
 1220              	.LFB153:
 501:C:/Users/lenovo/Desktop/liteos/Project2/BearPi_LiteOS/components/connectivity/agent_tiny/atiny_lwm2m\object_server.c **** //objArray[1] = get_server_object(serverId, "U", lifetime, false);
 502:C:/Users/lenovo/Desktop/liteos/Project2/BearPi_LiteOS/components/connectivity/agent_tiny/atiny_lwm2m\object_server.c **** lwm2m_object_t *get_server_object(int serverId,
 503:C:/Users/lenovo/Desktop/liteos/Project2/BearPi_LiteOS/components/connectivity/agent_tiny/atiny_lwm2m\object_server.c ****                                   const char *binding,
 504:C:/Users/lenovo/Desktop/liteos/Project2/BearPi_LiteOS/components/connectivity/agent_tiny/atiny_lwm2m\object_server.c ****                                   int lifetime,
 505:C:/Users/lenovo/Desktop/liteos/Project2/BearPi_LiteOS/components/connectivity/agent_tiny/atiny_lwm2m\object_server.c ****                                   bool storing)
 506:C:/Users/lenovo/Desktop/liteos/Project2/BearPi_LiteOS/components/connectivity/agent_tiny/atiny_lwm2m\object_server.c **** {
 1221              		.loc 1 506 0
 1222              		.cfi_startproc
 1223              		@ args = 0, pretend = 0, frame = 0
 1224              		@ frame_needed = 0, uses_anonymous_args = 0
 1225              	.LVL159:
 1226 0000 2DE9F843 		push	{r3, r4, r5, r6, r7, r8, r9, lr}
 1227              	.LCFI26:
 1228              		.cfi_def_cfa_offset 32
 1229              		.cfi_offset 3, -32
 1230              		.cfi_offset 4, -28
 1231              		.cfi_offset 5, -24
 1232              		.cfi_offset 6, -20
 1233              		.cfi_offset 7, -16
 1234              		.cfi_offset 8, -12
 1235              		.cfi_offset 9, -8
 1236              		.cfi_offset 14, -4
 1237 0004 8146     		mov	r9, r0
 1238 0006 0E46     		mov	r6, r1
 1239 0008 1746     		mov	r7, r2
 1240 000a 9846     		mov	r8, r3
 507:C:/Users/lenovo/Desktop/liteos/Project2/BearPi_LiteOS/components/connectivity/agent_tiny/atiny_lwm2m\object_server.c ****     lwm2m_object_t *serverObj;
 508:C:/Users/lenovo/Desktop/liteos/Project2/BearPi_LiteOS/components/connectivity/agent_tiny/atiny_lwm2m\object_server.c **** 
 509:C:/Users/lenovo/Desktop/liteos/Project2/BearPi_LiteOS/components/connectivity/agent_tiny/atiny_lwm2m\object_server.c ****     serverObj = (lwm2m_object_t *)lwm2m_malloc(sizeof(lwm2m_object_t));
 1241              		.loc 1 509 0
 1242 000c 2C20     		movs	r0, #44
 1243              	.LVL160:
 1244 000e FFF7FEFF 		bl	lwm2m_malloc
 1245              	.LVL161:
 510:C:/Users/lenovo/Desktop/liteos/Project2/BearPi_LiteOS/components/connectivity/agent_tiny/atiny_lwm2m\object_server.c **** 
 511:C:/Users/lenovo/Desktop/liteos/Project2/BearPi_LiteOS/components/connectivity/agent_tiny/atiny_lwm2m\object_server.c ****     if (NULL != serverObj)
 1246              		.loc 1 511 0
 1247 0012 0446     		mov	r4, r0
 1248 0014 0028     		cmp	r0, #0
 1249 0016 37D0     		beq	.L121
 1250              	.LBB9:
 512:C:/Users/lenovo/Desktop/liteos/Project2/BearPi_LiteOS/components/connectivity/agent_tiny/atiny_lwm2m\object_server.c ****     {
 513:C:/Users/lenovo/Desktop/liteos/Project2/BearPi_LiteOS/components/connectivity/agent_tiny/atiny_lwm2m\object_server.c ****         server_instance_t *serverInstance;
ARM GAS  c:\Users\lenovo\AppData\Local\Temp\cchOsOqP.s 			page 34


 514:C:/Users/lenovo/Desktop/liteos/Project2/BearPi_LiteOS/components/connectivity/agent_tiny/atiny_lwm2m\object_server.c **** 
 515:C:/Users/lenovo/Desktop/liteos/Project2/BearPi_LiteOS/components/connectivity/agent_tiny/atiny_lwm2m\object_server.c ****         memset(serverObj, 0, sizeof(lwm2m_object_t));
 1251              		.loc 1 515 0
 1252 0018 2C22     		movs	r2, #44
 1253 001a 0021     		movs	r1, #0
 1254 001c FFF7FEFF 		bl	memset
 1255              	.LVL162:
 516:C:/Users/lenovo/Desktop/liteos/Project2/BearPi_LiteOS/components/connectivity/agent_tiny/atiny_lwm2m\object_server.c **** 
 517:C:/Users/lenovo/Desktop/liteos/Project2/BearPi_LiteOS/components/connectivity/agent_tiny/atiny_lwm2m\object_server.c ****         serverObj->objID = LWM2M_SERVER_OBJECT_ID;
 1256              		.loc 1 517 0
 1257 0020 0123     		movs	r3, #1
 1258 0022 A380     		strh	r3, [r4, #4]	@ movhi
 518:C:/Users/lenovo/Desktop/liteos/Project2/BearPi_LiteOS/components/connectivity/agent_tiny/atiny_lwm2m\object_server.c **** 
 519:C:/Users/lenovo/Desktop/liteos/Project2/BearPi_LiteOS/components/connectivity/agent_tiny/atiny_lwm2m\object_server.c ****         // Manually create an hardcoded server
 520:C:/Users/lenovo/Desktop/liteos/Project2/BearPi_LiteOS/components/connectivity/agent_tiny/atiny_lwm2m\object_server.c ****         serverInstance = (server_instance_t *)lwm2m_malloc(sizeof(server_instance_t));
 1259              		.loc 1 520 0
 1260 0024 2020     		movs	r0, #32
 1261 0026 FFF7FEFF 		bl	lwm2m_malloc
 1262              	.LVL163:
 521:C:/Users/lenovo/Desktop/liteos/Project2/BearPi_LiteOS/components/connectivity/agent_tiny/atiny_lwm2m\object_server.c ****         if (NULL == serverInstance)
 1263              		.loc 1 521 0
 1264 002a 0546     		mov	r5, r0
 1265 002c 78B3     		cbz	r0, .L128
 522:C:/Users/lenovo/Desktop/liteos/Project2/BearPi_LiteOS/components/connectivity/agent_tiny/atiny_lwm2m\object_server.c ****         {
 523:C:/Users/lenovo/Desktop/liteos/Project2/BearPi_LiteOS/components/connectivity/agent_tiny/atiny_lwm2m\object_server.c ****             lwm2m_free(serverObj);
 524:C:/Users/lenovo/Desktop/liteos/Project2/BearPi_LiteOS/components/connectivity/agent_tiny/atiny_lwm2m\object_server.c ****             return NULL;
 525:C:/Users/lenovo/Desktop/liteos/Project2/BearPi_LiteOS/components/connectivity/agent_tiny/atiny_lwm2m\object_server.c ****         }
 526:C:/Users/lenovo/Desktop/liteos/Project2/BearPi_LiteOS/components/connectivity/agent_tiny/atiny_lwm2m\object_server.c **** 
 527:C:/Users/lenovo/Desktop/liteos/Project2/BearPi_LiteOS/components/connectivity/agent_tiny/atiny_lwm2m\object_server.c ****         memset(serverInstance, 0, sizeof(server_instance_t));
 1266              		.loc 1 527 0
 1267 002e 2022     		movs	r2, #32
 1268 0030 0021     		movs	r1, #0
 1269 0032 FFF7FEFF 		bl	memset
 1270              	.LVL164:
 528:C:/Users/lenovo/Desktop/liteos/Project2/BearPi_LiteOS/components/connectivity/agent_tiny/atiny_lwm2m\object_server.c ****         serverInstance->instanceId = 0;
 1271              		.loc 1 528 0
 1272 0036 0023     		movs	r3, #0
 1273 0038 AB80     		strh	r3, [r5, #4]	@ movhi
 529:C:/Users/lenovo/Desktop/liteos/Project2/BearPi_LiteOS/components/connectivity/agent_tiny/atiny_lwm2m\object_server.c ****         serverInstance->shortServerId = serverId;
 1274              		.loc 1 529 0
 1275 003a A5F80690 		strh	r9, [r5, #6]	@ movhi
 530:C:/Users/lenovo/Desktop/liteos/Project2/BearPi_LiteOS/components/connectivity/agent_tiny/atiny_lwm2m\object_server.c ****         if (lifetime <= 0)
 1276              		.loc 1 530 0
 1277 003e 9F42     		cmp	r7, r3
 1278 0040 2ADD     		ble	.L129
 531:C:/Users/lenovo/Desktop/liteos/Project2/BearPi_LiteOS/components/connectivity/agent_tiny/atiny_lwm2m\object_server.c ****         {
 532:C:/Users/lenovo/Desktop/liteos/Project2/BearPi_LiteOS/components/connectivity/agent_tiny/atiny_lwm2m\object_server.c ****             serverInstance->lifetime = LWM2M_DEFAULT_LIFETIME;
 533:C:/Users/lenovo/Desktop/liteos/Project2/BearPi_LiteOS/components/connectivity/agent_tiny/atiny_lwm2m\object_server.c ****         }
 534:C:/Users/lenovo/Desktop/liteos/Project2/BearPi_LiteOS/components/connectivity/agent_tiny/atiny_lwm2m\object_server.c ****         else
 535:C:/Users/lenovo/Desktop/liteos/Project2/BearPi_LiteOS/components/connectivity/agent_tiny/atiny_lwm2m\object_server.c ****         {
 536:C:/Users/lenovo/Desktop/liteos/Project2/BearPi_LiteOS/components/connectivity/agent_tiny/atiny_lwm2m\object_server.c ****             serverInstance->lifetime = lifetime;
 1279              		.loc 1 536 0
 1280 0042 AF60     		str	r7, [r5, #8]
 1281              	.L125:
 537:C:/Users/lenovo/Desktop/liteos/Project2/BearPi_LiteOS/components/connectivity/agent_tiny/atiny_lwm2m\object_server.c ****         }
 538:C:/Users/lenovo/Desktop/liteos/Project2/BearPi_LiteOS/components/connectivity/agent_tiny/atiny_lwm2m\object_server.c **** 
 539:C:/Users/lenovo/Desktop/liteos/Project2/BearPi_LiteOS/components/connectivity/agent_tiny/atiny_lwm2m\object_server.c ****         serverInstance->storing = storing;
ARM GAS  c:\Users\lenovo\AppData\Local\Temp\cchOsOqP.s 			page 35


 1282              		.loc 1 539 0
 1283 0044 85F81880 		strb	r8, [r5, #24]
 540:C:/Users/lenovo/Desktop/liteos/Project2/BearPi_LiteOS/components/connectivity/agent_tiny/atiny_lwm2m\object_server.c ****         if(prv_server_check_binding_valid(binding, strlen(binding)))
 1284              		.loc 1 540 0
 1285 0048 3046     		mov	r0, r6
 1286 004a FFF7FEFF 		bl	strlen
 1287              	.LVL165:
 1288 004e 0746     		mov	r7, r0
 1289              	.LVL166:
 1290 0050 0146     		mov	r1, r0
 1291 0052 3046     		mov	r0, r6
 1292 0054 FFF7FEFF 		bl	prv_server_check_binding_valid
 1293              	.LVL167:
 1294 0058 08B3     		cbz	r0, .L126
 541:C:/Users/lenovo/Desktop/liteos/Project2/BearPi_LiteOS/components/connectivity/agent_tiny/atiny_lwm2m\object_server.c ****         {
 542:C:/Users/lenovo/Desktop/liteos/Project2/BearPi_LiteOS/components/connectivity/agent_tiny/atiny_lwm2m\object_server.c ****             memcpy(serverInstance->binding, binding, strlen(binding) + 1);
 1295              		.loc 1 542 0
 1296 005a 7A1C     		adds	r2, r7, #1
 1297 005c 3146     		mov	r1, r6
 1298 005e 05F11900 		add	r0, r5, #25
 1299 0062 FFF7FEFF 		bl	memcpy
 1300              	.LVL168:
 543:C:/Users/lenovo/Desktop/liteos/Project2/BearPi_LiteOS/components/connectivity/agent_tiny/atiny_lwm2m\object_server.c ****         }
 544:C:/Users/lenovo/Desktop/liteos/Project2/BearPi_LiteOS/components/connectivity/agent_tiny/atiny_lwm2m\object_server.c ****         else
 545:C:/Users/lenovo/Desktop/liteos/Project2/BearPi_LiteOS/components/connectivity/agent_tiny/atiny_lwm2m\object_server.c ****         {
 546:C:/Users/lenovo/Desktop/liteos/Project2/BearPi_LiteOS/components/connectivity/agent_tiny/atiny_lwm2m\object_server.c ****             lwm2m_free(serverObj);
 547:C:/Users/lenovo/Desktop/liteos/Project2/BearPi_LiteOS/components/connectivity/agent_tiny/atiny_lwm2m\object_server.c ****             lwm2m_free(serverInstance);
 548:C:/Users/lenovo/Desktop/liteos/Project2/BearPi_LiteOS/components/connectivity/agent_tiny/atiny_lwm2m\object_server.c ****             return NULL;
 549:C:/Users/lenovo/Desktop/liteos/Project2/BearPi_LiteOS/components/connectivity/agent_tiny/atiny_lwm2m\object_server.c ****         }
 550:C:/Users/lenovo/Desktop/liteos/Project2/BearPi_LiteOS/components/connectivity/agent_tiny/atiny_lwm2m\object_server.c **** 
 551:C:/Users/lenovo/Desktop/liteos/Project2/BearPi_LiteOS/components/connectivity/agent_tiny/atiny_lwm2m\object_server.c ****         serverObj->instanceList = LWM2M_LIST_ADD(serverObj->instanceList, serverInstance);
 1301              		.loc 1 551 0
 1302 0066 2946     		mov	r1, r5
 1303 0068 A068     		ldr	r0, [r4, #8]
 1304 006a FFF7FEFF 		bl	lwm2m_list_add
 1305              	.LVL169:
 1306 006e A060     		str	r0, [r4, #8]
 552:C:/Users/lenovo/Desktop/liteos/Project2/BearPi_LiteOS/components/connectivity/agent_tiny/atiny_lwm2m\object_server.c **** 
 553:C:/Users/lenovo/Desktop/liteos/Project2/BearPi_LiteOS/components/connectivity/agent_tiny/atiny_lwm2m\object_server.c ****         serverObj->readFunc = prv_server_read;
 1307              		.loc 1 553 0
 1308 0070 0F4B     		ldr	r3, .L130
 1309 0072 E360     		str	r3, [r4, #12]
 554:C:/Users/lenovo/Desktop/liteos/Project2/BearPi_LiteOS/components/connectivity/agent_tiny/atiny_lwm2m\object_server.c ****         serverObj->discoverFunc = prv_server_discover;
 1310              		.loc 1 554 0
 1311 0074 0F4B     		ldr	r3, .L130+4
 1312 0076 6362     		str	r3, [r4, #36]
 555:C:/Users/lenovo/Desktop/liteos/Project2/BearPi_LiteOS/components/connectivity/agent_tiny/atiny_lwm2m\object_server.c ****         serverObj->writeFunc = prv_server_write;
 1313              		.loc 1 555 0
 1314 0078 0F4B     		ldr	r3, .L130+8
 1315 007a 2361     		str	r3, [r4, #16]
 556:C:/Users/lenovo/Desktop/liteos/Project2/BearPi_LiteOS/components/connectivity/agent_tiny/atiny_lwm2m\object_server.c ****         serverObj->createFunc = prv_server_create;
 1316              		.loc 1 556 0
 1317 007c 0F4B     		ldr	r3, .L130+12
 1318 007e E361     		str	r3, [r4, #28]
 557:C:/Users/lenovo/Desktop/liteos/Project2/BearPi_LiteOS/components/connectivity/agent_tiny/atiny_lwm2m\object_server.c ****         serverObj->deleteFunc = prv_server_delete;
 1319              		.loc 1 557 0
 1320 0080 0F4B     		ldr	r3, .L130+16
ARM GAS  c:\Users\lenovo\AppData\Local\Temp\cchOsOqP.s 			page 36


 1321 0082 2362     		str	r3, [r4, #32]
 558:C:/Users/lenovo/Desktop/liteos/Project2/BearPi_LiteOS/components/connectivity/agent_tiny/atiny_lwm2m\object_server.c ****         serverObj->executeFunc = prv_server_execute;
 1322              		.loc 1 558 0
 1323 0084 0F4B     		ldr	r3, .L130+20
 1324 0086 6361     		str	r3, [r4, #20]
 1325              	.LVL170:
 1326              	.L121:
 1327              	.LBE9:
 559:C:/Users/lenovo/Desktop/liteos/Project2/BearPi_LiteOS/components/connectivity/agent_tiny/atiny_lwm2m\object_server.c ****     }
 560:C:/Users/lenovo/Desktop/liteos/Project2/BearPi_LiteOS/components/connectivity/agent_tiny/atiny_lwm2m\object_server.c **** 
 561:C:/Users/lenovo/Desktop/liteos/Project2/BearPi_LiteOS/components/connectivity/agent_tiny/atiny_lwm2m\object_server.c ****     return serverObj;
 562:C:/Users/lenovo/Desktop/liteos/Project2/BearPi_LiteOS/components/connectivity/agent_tiny/atiny_lwm2m\object_server.c **** }
 1328              		.loc 1 562 0
 1329 0088 2046     		mov	r0, r4
 1330 008a BDE8F883 		pop	{r3, r4, r5, r6, r7, r8, r9, pc}
 1331              	.LVL171:
 1332              	.L128:
 1333              	.LBB10:
 523:C:/Users/lenovo/Desktop/liteos/Project2/BearPi_LiteOS/components/connectivity/agent_tiny/atiny_lwm2m\object_server.c ****             return NULL;
 1334              		.loc 1 523 0
 1335 008e 2046     		mov	r0, r4
 1336              	.LVL172:
 1337 0090 FFF7FEFF 		bl	lwm2m_free
 1338              	.LVL173:
 524:C:/Users/lenovo/Desktop/liteos/Project2/BearPi_LiteOS/components/connectivity/agent_tiny/atiny_lwm2m\object_server.c ****         }
 1339              		.loc 1 524 0
 1340 0094 0024     		movs	r4, #0
 1341              	.LVL174:
 1342 0096 F7E7     		b	.L121
 1343              	.LVL175:
 1344              	.L129:
 532:C:/Users/lenovo/Desktop/liteos/Project2/BearPi_LiteOS/components/connectivity/agent_tiny/atiny_lwm2m\object_server.c ****         }
 1345              		.loc 1 532 0
 1346 0098 0B4B     		ldr	r3, .L130+24
 1347 009a AB60     		str	r3, [r5, #8]
 1348 009c D2E7     		b	.L125
 1349              	.LVL176:
 1350              	.L126:
 546:C:/Users/lenovo/Desktop/liteos/Project2/BearPi_LiteOS/components/connectivity/agent_tiny/atiny_lwm2m\object_server.c ****             lwm2m_free(serverInstance);
 1351              		.loc 1 546 0
 1352 009e 2046     		mov	r0, r4
 1353 00a0 FFF7FEFF 		bl	lwm2m_free
 1354              	.LVL177:
 547:C:/Users/lenovo/Desktop/liteos/Project2/BearPi_LiteOS/components/connectivity/agent_tiny/atiny_lwm2m\object_server.c ****             return NULL;
 1355              		.loc 1 547 0
 1356 00a4 2846     		mov	r0, r5
 1357 00a6 FFF7FEFF 		bl	lwm2m_free
 1358              	.LVL178:
 548:C:/Users/lenovo/Desktop/liteos/Project2/BearPi_LiteOS/components/connectivity/agent_tiny/atiny_lwm2m\object_server.c ****         }
 1359              		.loc 1 548 0
 1360 00aa 0024     		movs	r4, #0
 1361              	.LVL179:
 1362 00ac ECE7     		b	.L121
 1363              	.L131:
 1364 00ae 00BF     		.align	2
 1365              	.L130:
 1366 00b0 00000000 		.word	prv_server_read
ARM GAS  c:\Users\lenovo\AppData\Local\Temp\cchOsOqP.s 			page 37


 1367 00b4 00000000 		.word	prv_server_discover
 1368 00b8 00000000 		.word	prv_server_write
 1369 00bc 00000000 		.word	prv_server_create
 1370 00c0 00000000 		.word	prv_server_delete
 1371 00c4 00000000 		.word	prv_server_execute
 1372 00c8 80510100 		.word	86400
 1373              	.LBE10:
 1374              		.cfi_endproc
 1375              	.LFE153:
 1377              		.section	.text.clean_server_object,"ax",%progbits
 1378              		.align	1
 1379              		.global	clean_server_object
 1380              		.syntax unified
 1381              		.thumb
 1382              		.thumb_func
 1383              		.fpu fpv4-sp-d16
 1385              	clean_server_object:
 1386              	.LFB154:
 563:C:/Users/lenovo/Desktop/liteos/Project2/BearPi_LiteOS/components/connectivity/agent_tiny/atiny_lwm2m\object_server.c **** 
 564:C:/Users/lenovo/Desktop/liteos/Project2/BearPi_LiteOS/components/connectivity/agent_tiny/atiny_lwm2m\object_server.c **** void clean_server_object(lwm2m_object_t *object)
 565:C:/Users/lenovo/Desktop/liteos/Project2/BearPi_LiteOS/components/connectivity/agent_tiny/atiny_lwm2m\object_server.c **** {
 1387              		.loc 1 565 0
 1388              		.cfi_startproc
 1389              		@ args = 0, pretend = 0, frame = 0
 1390              		@ frame_needed = 0, uses_anonymous_args = 0
 1391              	.LVL180:
 1392 0000 10B5     		push	{r4, lr}
 1393              	.LCFI27:
 1394              		.cfi_def_cfa_offset 8
 1395              		.cfi_offset 4, -8
 1396              		.cfi_offset 14, -4
 566:C:/Users/lenovo/Desktop/liteos/Project2/BearPi_LiteOS/components/connectivity/agent_tiny/atiny_lwm2m\object_server.c ****     if(NULL == object)
 1397              		.loc 1 566 0
 1398 0002 0446     		mov	r4, r0
 1399 0004 20B9     		cbnz	r0, .L134
 1400 0006 09E0     		b	.L132
 1401              	.LVL181:
 1402              	.L135:
 1403              	.LBB11:
 567:C:/Users/lenovo/Desktop/liteos/Project2/BearPi_LiteOS/components/connectivity/agent_tiny/atiny_lwm2m\object_server.c ****     {
 568:C:/Users/lenovo/Desktop/liteos/Project2/BearPi_LiteOS/components/connectivity/agent_tiny/atiny_lwm2m\object_server.c ****         return;
 569:C:/Users/lenovo/Desktop/liteos/Project2/BearPi_LiteOS/components/connectivity/agent_tiny/atiny_lwm2m\object_server.c ****     }
 570:C:/Users/lenovo/Desktop/liteos/Project2/BearPi_LiteOS/components/connectivity/agent_tiny/atiny_lwm2m\object_server.c ****     while (object->instanceList != NULL)
 571:C:/Users/lenovo/Desktop/liteos/Project2/BearPi_LiteOS/components/connectivity/agent_tiny/atiny_lwm2m\object_server.c ****     {
 572:C:/Users/lenovo/Desktop/liteos/Project2/BearPi_LiteOS/components/connectivity/agent_tiny/atiny_lwm2m\object_server.c ****         server_instance_t *serverInstance = (server_instance_t *)object->instanceList;
 573:C:/Users/lenovo/Desktop/liteos/Project2/BearPi_LiteOS/components/connectivity/agent_tiny/atiny_lwm2m\object_server.c ****         object->instanceList = object->instanceList->next;
 1404              		.loc 1 573 0
 1405 0008 0368     		ldr	r3, [r0]
 1406 000a A360     		str	r3, [r4, #8]
 574:C:/Users/lenovo/Desktop/liteos/Project2/BearPi_LiteOS/components/connectivity/agent_tiny/atiny_lwm2m\object_server.c ****         lwm2m_free(serverInstance);
 1407              		.loc 1 574 0
 1408 000c FFF7FEFF 		bl	lwm2m_free
 1409              	.LVL182:
 1410              	.L134:
 1411              	.LBE11:
 570:C:/Users/lenovo/Desktop/liteos/Project2/BearPi_LiteOS/components/connectivity/agent_tiny/atiny_lwm2m\object_server.c ****     {
 1412              		.loc 1 570 0
ARM GAS  c:\Users\lenovo\AppData\Local\Temp\cchOsOqP.s 			page 38


 1413 0010 A068     		ldr	r0, [r4, #8]
 1414 0012 0028     		cmp	r0, #0
 1415 0014 F8D1     		bne	.L135
 575:C:/Users/lenovo/Desktop/liteos/Project2/BearPi_LiteOS/components/connectivity/agent_tiny/atiny_lwm2m\object_server.c ****     }
 576:C:/Users/lenovo/Desktop/liteos/Project2/BearPi_LiteOS/components/connectivity/agent_tiny/atiny_lwm2m\object_server.c ****     lwm2m_free(object);
 1416              		.loc 1 576 0
 1417 0016 2046     		mov	r0, r4
 1418 0018 FFF7FEFF 		bl	lwm2m_free
 1419              	.LVL183:
 1420              	.L132:
 577:C:/Users/lenovo/Desktop/liteos/Project2/BearPi_LiteOS/components/connectivity/agent_tiny/atiny_lwm2m\object_server.c **** }
 1421              		.loc 1 577 0
 1422 001c 10BD     		pop	{r4, pc}
 1423              		.cfi_endproc
 1424              	.LFE154:
 1426              		.section	.rodata
 1427              		.align	2
 1428              		.set	.LANCHOR0,. + 0
 1429              	.LC0:
 1430 0000 0000     		.short	0
 1431 0002 0100     		.short	1
 1432 0004 0200     		.short	2
 1433 0006 0300     		.short	3
 1434 0008 0400     		.short	4
 1435 000a 0500     		.short	5
 1436 000c 0600     		.short	6
 1437 000e 0700     		.short	7
 1438 0010 0800     		.short	8
 1439 0012 0000     		.space	2
 1440              	.LC1:
 1441 0014 0000     		.short	0
 1442 0016 0100     		.short	1
 1443 0018 0200     		.short	2
 1444 001a 0300     		.short	3
 1445 001c 0500     		.short	5
 1446 001e 0600     		.short	6
 1447 0020 0700     		.short	7
 1448              		.section	.rodata.prv_server_check_binding_valid.str1.4,"aMS",%progbits,1
 1449              		.align	2
 1450              	.LC2:
 1451 0000 5500     		.ascii	"U\000"
 1452 0002 0000     		.space	2
 1453              	.LC3:
 1454 0004 555100   		.ascii	"UQ\000"
 1455 0007 00       		.space	1
 1456              	.LC4:
 1457 0008 5300     		.ascii	"S\000"
 1458 000a 0000     		.space	2
 1459              	.LC5:
 1460 000c 535100   		.ascii	"SQ\000"
 1461 000f 00       		.space	1
 1462              	.LC6:
 1463 0010 555300   		.ascii	"US\000"
 1464 0013 00       		.space	1
 1465              	.LC7:
 1466 0014 55515300 		.ascii	"UQS\000"
 1467              		.text
ARM GAS  c:\Users\lenovo\AppData\Local\Temp\cchOsOqP.s 			page 39


 1468              	.Letext0:
 1469              		.file 2 "c:\\program files (x86)\\liteos studio\\resources\\arm-none-eabi\\arm-none-eabi\\include\
 1470              		.file 3 "c:\\program files (x86)\\liteos studio\\resources\\arm-none-eabi\\arm-none-eabi\\include\
 1471              		.file 4 "c:\\program files (x86)\\liteos studio\\resources\\arm-none-eabi\\lib\\gcc\\arm-none-eabi
 1472              		.file 5 "c:\\program files (x86)\\liteos studio\\resources\\arm-none-eabi\\arm-none-eabi\\include\
 1473              		.file 6 "c:\\program files (x86)\\liteos studio\\resources\\arm-none-eabi\\arm-none-eabi\\include\
 1474              		.file 7 "c:\\program files (x86)\\liteos studio\\resources\\arm-none-eabi\\arm-none-eabi\\include\
 1475              		.file 8 "c:\\program files (x86)\\liteos studio\\resources\\arm-none-eabi\\arm-none-eabi\\include\
 1476              		.file 9 "C:/Users/lenovo/Desktop/liteos/Project2/BearPi_LiteOS/components/connectivity/lwm2m/core/
 1477              		.file 10 "C:/Users/lenovo/Desktop/liteos/Project2/BearPi_LiteOS/kernel/include/los_typedef.h"
 1478              		.file 11 "C:/Users/lenovo/Desktop/liteos/Project2/BearPi_LiteOS/arch/arm/common/cmsis/core_cm4.h"
 1479              		.file 12 "C:/Users/lenovo/Desktop/liteos/Project2/BearPi_LiteOS/targets/STM32L431_BearPi/Inc/syste
 1480              		.file 13 "C:/Users/lenovo/Desktop/liteos/Project2/BearPi_LiteOS/kernel/include/los_list.h"
 1481              		.file 14 "C:/Users/lenovo/Desktop/liteos/Project2/BearPi_LiteOS/kernel/include/los_err.h"
 1482              		.file 15 "C:/Users/lenovo/Desktop/liteos/Project2/BearPi_LiteOS/arch/arm/arm-m/include/los_hwi.h"
 1483              		.file 16 "C:/Users/lenovo/Desktop/liteos/Project2/BearPi_LiteOS/kernel/include/los_tick.h"
 1484              		.file 17 "C:/Users/lenovo/Desktop/liteos/Project2/BearPi_LiteOS/kernel/include/los_event.h"
 1485              		.file 18 "C:/Users/lenovo/Desktop/liteos/Project2/BearPi_LiteOS/kernel/include/los_task.h"
 1486              		.file 19 "C:/Users/lenovo/Desktop/liteos/Project2/BearPi_LiteOS/kernel/base/include/los_task.ph"
 1487              		.file 20 "C:/Users/lenovo/Desktop/liteos/Project2/BearPi_LiteOS/targets/STM32L431_BearPi/Inc/main.
 1488              		.file 21 "C:/Users/lenovo/Desktop/liteos/Project2/BearPi_LiteOS/targets/STM32L431_BearPi/OS_CONFIG
 1489              		.file 22 "C:/Users/lenovo/Desktop/liteos/Project2/BearPi_LiteOS/kernel/include/los_config.h"
 1490              		.file 23 "C:/Users/lenovo/Desktop/liteos/Project2/BearPi_LiteOS/components/connectivity/lwm2m/core
 1491              		.file 24 "c:\\program files (x86)\\liteos studio\\resources\\arm-none-eabi\\arm-none-eabi\\include
 1492              		.file 25 "c:\\program files (x86)\\liteos studio\\resources\\arm-none-eabi\\arm-none-eabi\\include
 1493              		.file 26 "C:/Users/lenovo/Desktop/liteos/Project2/BearPi_LiteOS/components/connectivity/agent_tiny
 1494              		.file 27 "c:\\program files (x86)\\liteos studio\\resources\\arm-none-eabi\\arm-none-eabi\\include
 1495              		.file 28 "<built-in>"
ARM GAS  c:\Users\lenovo\AppData\Local\Temp\cchOsOqP.s 			page 40

