ARM GAS  c:\Users\lenovo\AppData\Local\Temp\cc6cNdkR.s 			page 1


   1              		.cpu cortex-m4
   2              		.eabi_attribute 27, 1
   3              		.eabi_attribute 28, 1
   4              		.eabi_attribute 20, 1
   5              		.eabi_attribute 21, 1
   6              		.eabi_attribute 23, 3
   7              		.eabi_attribute 24, 1
   8              		.eabi_attribute 25, 1
   9              		.eabi_attribute 26, 1
  10              		.eabi_attribute 30, 1
  11              		.eabi_attribute 34, 1
  12              		.eabi_attribute 18, 4
  13              		.file	"object_firmware.c"
  14              		.text
  15              	.Ltext0:
  16              		.cfi_sections	.debug_frame
  17              		.section	.text.prv_firmware_execute,"ax",%progbits
  18              		.align	1
  19              		.syntax unified
  20              		.thumb
  21              		.thumb_func
  22              		.fpu fpv4-sp-d16
  24              	prv_firmware_execute:
  25              	.LFB136:
  26              		.file 1 "C:/Users/lenovo/Desktop/liteos/Project2/BearPi_LiteOS/components/connectivity/agent_tiny/
   1:C:/Users/lenovo/Desktop/liteos/Project2/BearPi_LiteOS/components/connectivity/agent_tiny/atiny_lwm2m\object_firmware.c **** /*----------------------------------------------------------------------------
   2:C:/Users/lenovo/Desktop/liteos/Project2/BearPi_LiteOS/components/connectivity/agent_tiny/atiny_lwm2m\object_firmware.c ****  * Copyright (c) <2016-2018>, <Huawei Technologies Co., Ltd>
   3:C:/Users/lenovo/Desktop/liteos/Project2/BearPi_LiteOS/components/connectivity/agent_tiny/atiny_lwm2m\object_firmware.c ****  * All rights reserved.
   4:C:/Users/lenovo/Desktop/liteos/Project2/BearPi_LiteOS/components/connectivity/agent_tiny/atiny_lwm2m\object_firmware.c ****  * Redistribution and use in source and binary forms, with or without modification,
   5:C:/Users/lenovo/Desktop/liteos/Project2/BearPi_LiteOS/components/connectivity/agent_tiny/atiny_lwm2m\object_firmware.c ****  * are permitted provided that the following conditions are met:
   6:C:/Users/lenovo/Desktop/liteos/Project2/BearPi_LiteOS/components/connectivity/agent_tiny/atiny_lwm2m\object_firmware.c ****  * 1. Redistributions of source code must retain the above copyright notice, this list of
   7:C:/Users/lenovo/Desktop/liteos/Project2/BearPi_LiteOS/components/connectivity/agent_tiny/atiny_lwm2m\object_firmware.c ****  * conditions and the following disclaimer.
   8:C:/Users/lenovo/Desktop/liteos/Project2/BearPi_LiteOS/components/connectivity/agent_tiny/atiny_lwm2m\object_firmware.c ****  * 2. Redistributions in binary form must reproduce the above copyright notice, this list
   9:C:/Users/lenovo/Desktop/liteos/Project2/BearPi_LiteOS/components/connectivity/agent_tiny/atiny_lwm2m\object_firmware.c ****  * of conditions and the following disclaimer in the documentation and/or other materials
  10:C:/Users/lenovo/Desktop/liteos/Project2/BearPi_LiteOS/components/connectivity/agent_tiny/atiny_lwm2m\object_firmware.c ****  * provided with the distribution.
  11:C:/Users/lenovo/Desktop/liteos/Project2/BearPi_LiteOS/components/connectivity/agent_tiny/atiny_lwm2m\object_firmware.c ****  * 3. Neither the name of the copyright holder nor the names of its contributors may be used
  12:C:/Users/lenovo/Desktop/liteos/Project2/BearPi_LiteOS/components/connectivity/agent_tiny/atiny_lwm2m\object_firmware.c ****  * to endorse or promote products derived from this software without specific prior written
  13:C:/Users/lenovo/Desktop/liteos/Project2/BearPi_LiteOS/components/connectivity/agent_tiny/atiny_lwm2m\object_firmware.c ****  * permission.
  14:C:/Users/lenovo/Desktop/liteos/Project2/BearPi_LiteOS/components/connectivity/agent_tiny/atiny_lwm2m\object_firmware.c ****  * THIS SOFTWARE IS PROVIDED BY THE COPYRIGHT HOLDERS AND CONTRIBUTORS
  15:C:/Users/lenovo/Desktop/liteos/Project2/BearPi_LiteOS/components/connectivity/agent_tiny/atiny_lwm2m\object_firmware.c ****  * "AS IS" AND ANY EXPRESS OR IMPLIED WARRANTIES, INCLUDING, BUT NOT LIMITED TO,
  16:C:/Users/lenovo/Desktop/liteos/Project2/BearPi_LiteOS/components/connectivity/agent_tiny/atiny_lwm2m\object_firmware.c ****  * THE IMPLIED WARRANTIES OF MERCHANTABILITY AND FITNESS FOR A PARTICULAR
  17:C:/Users/lenovo/Desktop/liteos/Project2/BearPi_LiteOS/components/connectivity/agent_tiny/atiny_lwm2m\object_firmware.c ****  * PURPOSE ARE DISCLAIMED. IN NO EVENT SHALL THE COPYRIGHT HOLDER OR
  18:C:/Users/lenovo/Desktop/liteos/Project2/BearPi_LiteOS/components/connectivity/agent_tiny/atiny_lwm2m\object_firmware.c ****  * CONTRIBUTORS BE LIABLE FOR ANY DIRECT, INDIRECT, INCIDENTAL, SPECIAL,
  19:C:/Users/lenovo/Desktop/liteos/Project2/BearPi_LiteOS/components/connectivity/agent_tiny/atiny_lwm2m\object_firmware.c ****  * EXEMPLARY, OR CONSEQUENTIAL DAMAGES (INCLUDING, BUT NOT LIMITED TO,
  20:C:/Users/lenovo/Desktop/liteos/Project2/BearPi_LiteOS/components/connectivity/agent_tiny/atiny_lwm2m\object_firmware.c ****  * PROCUREMENT OF SUBSTITUTE GOODS OR SERVICES; LOSS OF USE, DATA, OR PROFITS;
  21:C:/Users/lenovo/Desktop/liteos/Project2/BearPi_LiteOS/components/connectivity/agent_tiny/atiny_lwm2m\object_firmware.c ****  * OR BUSINESS INTERRUPTION) HOWEVER CAUSED AND ON ANY THEORY OF LIABILITY,
  22:C:/Users/lenovo/Desktop/liteos/Project2/BearPi_LiteOS/components/connectivity/agent_tiny/atiny_lwm2m\object_firmware.c ****  * WHETHER IN CONTRACT, STRICT LIABILITY, OR TORT (INCLUDING NEGLIGENCE OR
  23:C:/Users/lenovo/Desktop/liteos/Project2/BearPi_LiteOS/components/connectivity/agent_tiny/atiny_lwm2m\object_firmware.c ****  * OTHERWISE) ARISING IN ANY WAY OUT OF THE USE OF THIS SOFTWARE, EVEN IF
  24:C:/Users/lenovo/Desktop/liteos/Project2/BearPi_LiteOS/components/connectivity/agent_tiny/atiny_lwm2m\object_firmware.c ****  * ADVISED OF THE POSSIBILITY OF SUCH DAMAGE.
  25:C:/Users/lenovo/Desktop/liteos/Project2/BearPi_LiteOS/components/connectivity/agent_tiny/atiny_lwm2m\object_firmware.c ****  *---------------------------------------------------------------------------*/
  26:C:/Users/lenovo/Desktop/liteos/Project2/BearPi_LiteOS/components/connectivity/agent_tiny/atiny_lwm2m\object_firmware.c **** /*----------------------------------------------------------------------------
  27:C:/Users/lenovo/Desktop/liteos/Project2/BearPi_LiteOS/components/connectivity/agent_tiny/atiny_lwm2m\object_firmware.c ****  * Notice of Export Control Law
  28:C:/Users/lenovo/Desktop/liteos/Project2/BearPi_LiteOS/components/connectivity/agent_tiny/atiny_lwm2m\object_firmware.c ****  * ===============================================
  29:C:/Users/lenovo/Desktop/liteos/Project2/BearPi_LiteOS/components/connectivity/agent_tiny/atiny_lwm2m\object_firmware.c ****  * Huawei LiteOS may be subject to applicable export control laws and regulations, which might
  30:C:/Users/lenovo/Desktop/liteos/Project2/BearPi_LiteOS/components/connectivity/agent_tiny/atiny_lwm2m\object_firmware.c ****  * include those applicable to Huawei LiteOS of U.S. and the country in which you are located.
  31:C:/Users/lenovo/Desktop/liteos/Project2/BearPi_LiteOS/components/connectivity/agent_tiny/atiny_lwm2m\object_firmware.c ****  * Import, export and usage of Huawei LiteOS in any manner by you shall be in compliance with such
  32:C:/Users/lenovo/Desktop/liteos/Project2/BearPi_LiteOS/components/connectivity/agent_tiny/atiny_lwm2m\object_firmware.c ****  * applicable export control laws and regulations.
ARM GAS  c:\Users\lenovo\AppData\Local\Temp\cc6cNdkR.s 			page 2


  33:C:/Users/lenovo/Desktop/liteos/Project2/BearPi_LiteOS/components/connectivity/agent_tiny/atiny_lwm2m\object_firmware.c ****  *---------------------------------------------------------------------------*/
  34:C:/Users/lenovo/Desktop/liteos/Project2/BearPi_LiteOS/components/connectivity/agent_tiny/atiny_lwm2m\object_firmware.c **** 
  35:C:/Users/lenovo/Desktop/liteos/Project2/BearPi_LiteOS/components/connectivity/agent_tiny/atiny_lwm2m\object_firmware.c **** /*******************************************************************************
  36:C:/Users/lenovo/Desktop/liteos/Project2/BearPi_LiteOS/components/connectivity/agent_tiny/atiny_lwm2m\object_firmware.c ****  *
  37:C:/Users/lenovo/Desktop/liteos/Project2/BearPi_LiteOS/components/connectivity/agent_tiny/atiny_lwm2m\object_firmware.c ****  * Copyright (c) 2013, 2014 Intel Corporation and others.
  38:C:/Users/lenovo/Desktop/liteos/Project2/BearPi_LiteOS/components/connectivity/agent_tiny/atiny_lwm2m\object_firmware.c ****  * All rights reserved. This program and the accompanying materials
  39:C:/Users/lenovo/Desktop/liteos/Project2/BearPi_LiteOS/components/connectivity/agent_tiny/atiny_lwm2m\object_firmware.c ****  * are made available under the terms of the Eclipse Public License v1.0
  40:C:/Users/lenovo/Desktop/liteos/Project2/BearPi_LiteOS/components/connectivity/agent_tiny/atiny_lwm2m\object_firmware.c ****  * and Eclipse Distribution License v1.0 which accompany this distribution.
  41:C:/Users/lenovo/Desktop/liteos/Project2/BearPi_LiteOS/components/connectivity/agent_tiny/atiny_lwm2m\object_firmware.c ****  *
  42:C:/Users/lenovo/Desktop/liteos/Project2/BearPi_LiteOS/components/connectivity/agent_tiny/atiny_lwm2m\object_firmware.c ****  * The Eclipse Public License is available at
  43:C:/Users/lenovo/Desktop/liteos/Project2/BearPi_LiteOS/components/connectivity/agent_tiny/atiny_lwm2m\object_firmware.c ****  *    http://www.eclipse.org/legal/epl-v10.html
  44:C:/Users/lenovo/Desktop/liteos/Project2/BearPi_LiteOS/components/connectivity/agent_tiny/atiny_lwm2m\object_firmware.c ****  * The Eclipse Distribution License is available at
  45:C:/Users/lenovo/Desktop/liteos/Project2/BearPi_LiteOS/components/connectivity/agent_tiny/atiny_lwm2m\object_firmware.c ****  *    http://www.eclipse.org/org/documents/edl-v10.php.
  46:C:/Users/lenovo/Desktop/liteos/Project2/BearPi_LiteOS/components/connectivity/agent_tiny/atiny_lwm2m\object_firmware.c ****  *
  47:C:/Users/lenovo/Desktop/liteos/Project2/BearPi_LiteOS/components/connectivity/agent_tiny/atiny_lwm2m\object_firmware.c ****  * Contributors:
  48:C:/Users/lenovo/Desktop/liteos/Project2/BearPi_LiteOS/components/connectivity/agent_tiny/atiny_lwm2m\object_firmware.c ****  *    Julien Vermillard - initial implementation
  49:C:/Users/lenovo/Desktop/liteos/Project2/BearPi_LiteOS/components/connectivity/agent_tiny/atiny_lwm2m\object_firmware.c ****  *    Fabien Fleutot - Please refer to git log
  50:C:/Users/lenovo/Desktop/liteos/Project2/BearPi_LiteOS/components/connectivity/agent_tiny/atiny_lwm2m\object_firmware.c ****  *    David Navarro, Intel Corporation - Please refer to git log
  51:C:/Users/lenovo/Desktop/liteos/Project2/BearPi_LiteOS/components/connectivity/agent_tiny/atiny_lwm2m\object_firmware.c ****  *    Bosch Software Innovations GmbH - Please refer to git log
  52:C:/Users/lenovo/Desktop/liteos/Project2/BearPi_LiteOS/components/connectivity/agent_tiny/atiny_lwm2m\object_firmware.c ****  *    Pascal Rieux - Please refer to git log
  53:C:/Users/lenovo/Desktop/liteos/Project2/BearPi_LiteOS/components/connectivity/agent_tiny/atiny_lwm2m\object_firmware.c ****  *
  54:C:/Users/lenovo/Desktop/liteos/Project2/BearPi_LiteOS/components/connectivity/agent_tiny/atiny_lwm2m\object_firmware.c ****  *******************************************************************************/
  55:C:/Users/lenovo/Desktop/liteos/Project2/BearPi_LiteOS/components/connectivity/agent_tiny/atiny_lwm2m\object_firmware.c **** 
  56:C:/Users/lenovo/Desktop/liteos/Project2/BearPi_LiteOS/components/connectivity/agent_tiny/atiny_lwm2m\object_firmware.c **** /*
  57:C:/Users/lenovo/Desktop/liteos/Project2/BearPi_LiteOS/components/connectivity/agent_tiny/atiny_lwm2m\object_firmware.c ****  * This object is single instance only, and provide firmware upgrade functionality.
  58:C:/Users/lenovo/Desktop/liteos/Project2/BearPi_LiteOS/components/connectivity/agent_tiny/atiny_lwm2m\object_firmware.c ****  * Object ID is 5.
  59:C:/Users/lenovo/Desktop/liteos/Project2/BearPi_LiteOS/components/connectivity/agent_tiny/atiny_lwm2m\object_firmware.c ****  */
  60:C:/Users/lenovo/Desktop/liteos/Project2/BearPi_LiteOS/components/connectivity/agent_tiny/atiny_lwm2m\object_firmware.c **** 
  61:C:/Users/lenovo/Desktop/liteos/Project2/BearPi_LiteOS/components/connectivity/agent_tiny/atiny_lwm2m\object_firmware.c **** /*
  62:C:/Users/lenovo/Desktop/liteos/Project2/BearPi_LiteOS/components/connectivity/agent_tiny/atiny_lwm2m\object_firmware.c ****  * resources:
  63:C:/Users/lenovo/Desktop/liteos/Project2/BearPi_LiteOS/components/connectivity/agent_tiny/atiny_lwm2m\object_firmware.c ****  * 0 package                   write
  64:C:/Users/lenovo/Desktop/liteos/Project2/BearPi_LiteOS/components/connectivity/agent_tiny/atiny_lwm2m\object_firmware.c ****  * 1 package url               write
  65:C:/Users/lenovo/Desktop/liteos/Project2/BearPi_LiteOS/components/connectivity/agent_tiny/atiny_lwm2m\object_firmware.c ****  * 2 update                    exec
  66:C:/Users/lenovo/Desktop/liteos/Project2/BearPi_LiteOS/components/connectivity/agent_tiny/atiny_lwm2m\object_firmware.c ****  * 3 state                     read
  67:C:/Users/lenovo/Desktop/liteos/Project2/BearPi_LiteOS/components/connectivity/agent_tiny/atiny_lwm2m\object_firmware.c ****  * 4 update supported objects  read/write
  68:C:/Users/lenovo/Desktop/liteos/Project2/BearPi_LiteOS/components/connectivity/agent_tiny/atiny_lwm2m\object_firmware.c ****  * 5 update result             read
  69:C:/Users/lenovo/Desktop/liteos/Project2/BearPi_LiteOS/components/connectivity/agent_tiny/atiny_lwm2m\object_firmware.c ****  */
  70:C:/Users/lenovo/Desktop/liteos/Project2/BearPi_LiteOS/components/connectivity/agent_tiny/atiny_lwm2m\object_firmware.c **** 
  71:C:/Users/lenovo/Desktop/liteos/Project2/BearPi_LiteOS/components/connectivity/agent_tiny/atiny_lwm2m\object_firmware.c **** #include "internals.h"
  72:C:/Users/lenovo/Desktop/liteos/Project2/BearPi_LiteOS/components/connectivity/agent_tiny/atiny_lwm2m\object_firmware.c **** #include "atiny_lwm2m/agenttiny.h"
  73:C:/Users/lenovo/Desktop/liteos/Project2/BearPi_LiteOS/components/connectivity/agent_tiny/atiny_lwm2m\object_firmware.c **** #include "log/atiny_log.h"
  74:C:/Users/lenovo/Desktop/liteos/Project2/BearPi_LiteOS/components/connectivity/agent_tiny/atiny_lwm2m\object_firmware.c **** 
  75:C:/Users/lenovo/Desktop/liteos/Project2/BearPi_LiteOS/components/connectivity/agent_tiny/atiny_lwm2m\object_firmware.c **** #ifdef CONFIG_FEATURE_FOTA
  76:C:/Users/lenovo/Desktop/liteos/Project2/BearPi_LiteOS/components/connectivity/agent_tiny/atiny_lwm2m\object_firmware.c **** #include "atiny_fota_manager.h"
  77:C:/Users/lenovo/Desktop/liteos/Project2/BearPi_LiteOS/components/connectivity/agent_tiny/atiny_lwm2m\object_firmware.c **** 
  78:C:/Users/lenovo/Desktop/liteos/Project2/BearPi_LiteOS/components/connectivity/agent_tiny/atiny_lwm2m\object_firmware.c **** 
  79:C:/Users/lenovo/Desktop/liteos/Project2/BearPi_LiteOS/components/connectivity/agent_tiny/atiny_lwm2m\object_firmware.c **** // ---- private object "Firmware" specific defines ----
  80:C:/Users/lenovo/Desktop/liteos/Project2/BearPi_LiteOS/components/connectivity/agent_tiny/atiny_lwm2m\object_firmware.c **** // Resource Id's:
  81:C:/Users/lenovo/Desktop/liteos/Project2/BearPi_LiteOS/components/connectivity/agent_tiny/atiny_lwm2m\object_firmware.c **** #define RES_M_PACKAGE                   0
  82:C:/Users/lenovo/Desktop/liteos/Project2/BearPi_LiteOS/components/connectivity/agent_tiny/atiny_lwm2m\object_firmware.c **** #define RES_M_PACKAGE_URI               1
  83:C:/Users/lenovo/Desktop/liteos/Project2/BearPi_LiteOS/components/connectivity/agent_tiny/atiny_lwm2m\object_firmware.c **** #define RES_M_UPDATE                    2
  84:C:/Users/lenovo/Desktop/liteos/Project2/BearPi_LiteOS/components/connectivity/agent_tiny/atiny_lwm2m\object_firmware.c **** #define RES_M_STATE                     3
  85:C:/Users/lenovo/Desktop/liteos/Project2/BearPi_LiteOS/components/connectivity/agent_tiny/atiny_lwm2m\object_firmware.c **** #define RES_O_UPDATE_SUPPORTED_OBJECTS  4
  86:C:/Users/lenovo/Desktop/liteos/Project2/BearPi_LiteOS/components/connectivity/agent_tiny/atiny_lwm2m\object_firmware.c **** #define RES_M_UPDATE_RESULT             5
  87:C:/Users/lenovo/Desktop/liteos/Project2/BearPi_LiteOS/components/connectivity/agent_tiny/atiny_lwm2m\object_firmware.c **** #define RES_O_PKG_NAME                  6
  88:C:/Users/lenovo/Desktop/liteos/Project2/BearPi_LiteOS/components/connectivity/agent_tiny/atiny_lwm2m\object_firmware.c **** #define RES_O_PKG_VERSION               7
  89:C:/Users/lenovo/Desktop/liteos/Project2/BearPi_LiteOS/components/connectivity/agent_tiny/atiny_lwm2m\object_firmware.c **** #define RES_O_FIRMWARE_UPDATE_DELIVER_METHOD               8
ARM GAS  c:\Users\lenovo\AppData\Local\Temp\cc6cNdkR.s 			page 3


  90:C:/Users/lenovo/Desktop/liteos/Project2/BearPi_LiteOS/components/connectivity/agent_tiny/atiny_lwm2m\object_firmware.c **** 
  91:C:/Users/lenovo/Desktop/liteos/Project2/BearPi_LiteOS/components/connectivity/agent_tiny/atiny_lwm2m\object_firmware.c **** 
  92:C:/Users/lenovo/Desktop/liteos/Project2/BearPi_LiteOS/components/connectivity/agent_tiny/atiny_lwm2m\object_firmware.c **** static uint8_t prv_firmware_read(uint16_t instanceId,
  93:C:/Users/lenovo/Desktop/liteos/Project2/BearPi_LiteOS/components/connectivity/agent_tiny/atiny_lwm2m\object_firmware.c ****                                  int *numDataP,
  94:C:/Users/lenovo/Desktop/liteos/Project2/BearPi_LiteOS/components/connectivity/agent_tiny/atiny_lwm2m\object_firmware.c ****                                  lwm2m_data_t **dataArrayP,
  95:C:/Users/lenovo/Desktop/liteos/Project2/BearPi_LiteOS/components/connectivity/agent_tiny/atiny_lwm2m\object_firmware.c ****                                  lwm2m_data_cfg_t *dataCfg,
  96:C:/Users/lenovo/Desktop/liteos/Project2/BearPi_LiteOS/components/connectivity/agent_tiny/atiny_lwm2m\object_firmware.c ****                                  lwm2m_object_t *objectP)
  97:C:/Users/lenovo/Desktop/liteos/Project2/BearPi_LiteOS/components/connectivity/agent_tiny/atiny_lwm2m\object_firmware.c **** {
  98:C:/Users/lenovo/Desktop/liteos/Project2/BearPi_LiteOS/components/connectivity/agent_tiny/atiny_lwm2m\object_firmware.c ****     uint32_t i;
  99:C:/Users/lenovo/Desktop/liteos/Project2/BearPi_LiteOS/components/connectivity/agent_tiny/atiny_lwm2m\object_firmware.c ****     uint8_t result;
 100:C:/Users/lenovo/Desktop/liteos/Project2/BearPi_LiteOS/components/connectivity/agent_tiny/atiny_lwm2m\object_firmware.c **** 
 101:C:/Users/lenovo/Desktop/liteos/Project2/BearPi_LiteOS/components/connectivity/agent_tiny/atiny_lwm2m\object_firmware.c ****     // this is a single instance object
 102:C:/Users/lenovo/Desktop/liteos/Project2/BearPi_LiteOS/components/connectivity/agent_tiny/atiny_lwm2m\object_firmware.c ****     if (instanceId != 0)
 103:C:/Users/lenovo/Desktop/liteos/Project2/BearPi_LiteOS/components/connectivity/agent_tiny/atiny_lwm2m\object_firmware.c ****     {
 104:C:/Users/lenovo/Desktop/liteos/Project2/BearPi_LiteOS/components/connectivity/agent_tiny/atiny_lwm2m\object_firmware.c ****         return COAP_404_NOT_FOUND;
 105:C:/Users/lenovo/Desktop/liteos/Project2/BearPi_LiteOS/components/connectivity/agent_tiny/atiny_lwm2m\object_firmware.c ****     }
 106:C:/Users/lenovo/Desktop/liteos/Project2/BearPi_LiteOS/components/connectivity/agent_tiny/atiny_lwm2m\object_firmware.c **** 
 107:C:/Users/lenovo/Desktop/liteos/Project2/BearPi_LiteOS/components/connectivity/agent_tiny/atiny_lwm2m\object_firmware.c ****     // is the server asking for the full object ?
 108:C:/Users/lenovo/Desktop/liteos/Project2/BearPi_LiteOS/components/connectivity/agent_tiny/atiny_lwm2m\object_firmware.c ****     if (*numDataP == 0)
 109:C:/Users/lenovo/Desktop/liteos/Project2/BearPi_LiteOS/components/connectivity/agent_tiny/atiny_lwm2m\object_firmware.c ****     {
 110:C:/Users/lenovo/Desktop/liteos/Project2/BearPi_LiteOS/components/connectivity/agent_tiny/atiny_lwm2m\object_firmware.c ****         uint16_t resources[] = {RES_M_PACKAGE_URI, RES_M_STATE,
 111:C:/Users/lenovo/Desktop/liteos/Project2/BearPi_LiteOS/components/connectivity/agent_tiny/atiny_lwm2m\object_firmware.c ****                                 RES_M_UPDATE_RESULT, RES_O_FIRMWARE_UPDATE_DELIVER_METHOD
 112:C:/Users/lenovo/Desktop/liteos/Project2/BearPi_LiteOS/components/connectivity/agent_tiny/atiny_lwm2m\object_firmware.c ****                                };
 113:C:/Users/lenovo/Desktop/liteos/Project2/BearPi_LiteOS/components/connectivity/agent_tiny/atiny_lwm2m\object_firmware.c ****         *dataArrayP = lwm2m_data_new(array_size(resources));
 114:C:/Users/lenovo/Desktop/liteos/Project2/BearPi_LiteOS/components/connectivity/agent_tiny/atiny_lwm2m\object_firmware.c ****         if (*dataArrayP == NULL) return COAP_500_INTERNAL_SERVER_ERROR;
 115:C:/Users/lenovo/Desktop/liteos/Project2/BearPi_LiteOS/components/connectivity/agent_tiny/atiny_lwm2m\object_firmware.c ****         *numDataP = array_size(resources);
 116:C:/Users/lenovo/Desktop/liteos/Project2/BearPi_LiteOS/components/connectivity/agent_tiny/atiny_lwm2m\object_firmware.c ****         for(i = 0 ; i < array_size(resources); ++i)
 117:C:/Users/lenovo/Desktop/liteos/Project2/BearPi_LiteOS/components/connectivity/agent_tiny/atiny_lwm2m\object_firmware.c ****         {
 118:C:/Users/lenovo/Desktop/liteos/Project2/BearPi_LiteOS/components/connectivity/agent_tiny/atiny_lwm2m\object_firmware.c ****             (*dataArrayP)[i].id = resources[i];
 119:C:/Users/lenovo/Desktop/liteos/Project2/BearPi_LiteOS/components/connectivity/agent_tiny/atiny_lwm2m\object_firmware.c ****         }
 120:C:/Users/lenovo/Desktop/liteos/Project2/BearPi_LiteOS/components/connectivity/agent_tiny/atiny_lwm2m\object_firmware.c ****     }
 121:C:/Users/lenovo/Desktop/liteos/Project2/BearPi_LiteOS/components/connectivity/agent_tiny/atiny_lwm2m\object_firmware.c **** 
 122:C:/Users/lenovo/Desktop/liteos/Project2/BearPi_LiteOS/components/connectivity/agent_tiny/atiny_lwm2m\object_firmware.c ****     i = 0;
 123:C:/Users/lenovo/Desktop/liteos/Project2/BearPi_LiteOS/components/connectivity/agent_tiny/atiny_lwm2m\object_firmware.c ****     do
 124:C:/Users/lenovo/Desktop/liteos/Project2/BearPi_LiteOS/components/connectivity/agent_tiny/atiny_lwm2m\object_firmware.c ****     {
 125:C:/Users/lenovo/Desktop/liteos/Project2/BearPi_LiteOS/components/connectivity/agent_tiny/atiny_lwm2m\object_firmware.c ****         switch ((*dataArrayP)[i].id)
 126:C:/Users/lenovo/Desktop/liteos/Project2/BearPi_LiteOS/components/connectivity/agent_tiny/atiny_lwm2m\object_firmware.c ****         {
 127:C:/Users/lenovo/Desktop/liteos/Project2/BearPi_LiteOS/components/connectivity/agent_tiny/atiny_lwm2m\object_firmware.c ****         case RES_M_PACKAGE:
 128:C:/Users/lenovo/Desktop/liteos/Project2/BearPi_LiteOS/components/connectivity/agent_tiny/atiny_lwm2m\object_firmware.c ****             result = COAP_405_METHOD_NOT_ALLOWED;
 129:C:/Users/lenovo/Desktop/liteos/Project2/BearPi_LiteOS/components/connectivity/agent_tiny/atiny_lwm2m\object_firmware.c ****             break;
 130:C:/Users/lenovo/Desktop/liteos/Project2/BearPi_LiteOS/components/connectivity/agent_tiny/atiny_lwm2m\object_firmware.c ****         case RES_M_PACKAGE_URI:
 131:C:/Users/lenovo/Desktop/liteos/Project2/BearPi_LiteOS/components/connectivity/agent_tiny/atiny_lwm2m\object_firmware.c ****         {
 132:C:/Users/lenovo/Desktop/liteos/Project2/BearPi_LiteOS/components/connectivity/agent_tiny/atiny_lwm2m\object_firmware.c **** #ifdef CONFIG_FEATURE_FOTA
 133:C:/Users/lenovo/Desktop/liteos/Project2/BearPi_LiteOS/components/connectivity/agent_tiny/atiny_lwm2m\object_firmware.c ****             const char *pkg_uri;
 134:C:/Users/lenovo/Desktop/liteos/Project2/BearPi_LiteOS/components/connectivity/agent_tiny/atiny_lwm2m\object_firmware.c ****             pkg_uri = atiny_fota_manager_get_pkg_uri(atiny_fota_manager_get_instance());
 135:C:/Users/lenovo/Desktop/liteos/Project2/BearPi_LiteOS/components/connectivity/agent_tiny/atiny_lwm2m\object_firmware.c ****             if(pkg_uri == NULL)
 136:C:/Users/lenovo/Desktop/liteos/Project2/BearPi_LiteOS/components/connectivity/agent_tiny/atiny_lwm2m\object_firmware.c ****             {
 137:C:/Users/lenovo/Desktop/liteos/Project2/BearPi_LiteOS/components/connectivity/agent_tiny/atiny_lwm2m\object_firmware.c ****                 pkg_uri = "";
 138:C:/Users/lenovo/Desktop/liteos/Project2/BearPi_LiteOS/components/connectivity/agent_tiny/atiny_lwm2m\object_firmware.c ****             }
 139:C:/Users/lenovo/Desktop/liteos/Project2/BearPi_LiteOS/components/connectivity/agent_tiny/atiny_lwm2m\object_firmware.c ****             lwm2m_data_encode_nstring(pkg_uri, strlen(pkg_uri) + 1, *dataArrayP + i);
 140:C:/Users/lenovo/Desktop/liteos/Project2/BearPi_LiteOS/components/connectivity/agent_tiny/atiny_lwm2m\object_firmware.c ****             result = COAP_205_CONTENT;
 141:C:/Users/lenovo/Desktop/liteos/Project2/BearPi_LiteOS/components/connectivity/agent_tiny/atiny_lwm2m\object_firmware.c **** #else 
 142:C:/Users/lenovo/Desktop/liteos/Project2/BearPi_LiteOS/components/connectivity/agent_tiny/atiny_lwm2m\object_firmware.c ****             result = COAP_405_METHOD_NOT_ALLOWED; 
 143:C:/Users/lenovo/Desktop/liteos/Project2/BearPi_LiteOS/components/connectivity/agent_tiny/atiny_lwm2m\object_firmware.c **** #endif 
 144:C:/Users/lenovo/Desktop/liteos/Project2/BearPi_LiteOS/components/connectivity/agent_tiny/atiny_lwm2m\object_firmware.c ****             break;
 145:C:/Users/lenovo/Desktop/liteos/Project2/BearPi_LiteOS/components/connectivity/agent_tiny/atiny_lwm2m\object_firmware.c ****         }
 146:C:/Users/lenovo/Desktop/liteos/Project2/BearPi_LiteOS/components/connectivity/agent_tiny/atiny_lwm2m\object_firmware.c **** 
ARM GAS  c:\Users\lenovo\AppData\Local\Temp\cc6cNdkR.s 			page 4


 147:C:/Users/lenovo/Desktop/liteos/Project2/BearPi_LiteOS/components/connectivity/agent_tiny/atiny_lwm2m\object_firmware.c ****         case RES_M_UPDATE:
 148:C:/Users/lenovo/Desktop/liteos/Project2/BearPi_LiteOS/components/connectivity/agent_tiny/atiny_lwm2m\object_firmware.c ****             result = COAP_405_METHOD_NOT_ALLOWED;
 149:C:/Users/lenovo/Desktop/liteos/Project2/BearPi_LiteOS/components/connectivity/agent_tiny/atiny_lwm2m\object_firmware.c ****             break;
 150:C:/Users/lenovo/Desktop/liteos/Project2/BearPi_LiteOS/components/connectivity/agent_tiny/atiny_lwm2m\object_firmware.c **** 
 151:C:/Users/lenovo/Desktop/liteos/Project2/BearPi_LiteOS/components/connectivity/agent_tiny/atiny_lwm2m\object_firmware.c ****         case RES_M_STATE:
 152:C:/Users/lenovo/Desktop/liteos/Project2/BearPi_LiteOS/components/connectivity/agent_tiny/atiny_lwm2m\object_firmware.c ****             // firmware update state (int)
 153:C:/Users/lenovo/Desktop/liteos/Project2/BearPi_LiteOS/components/connectivity/agent_tiny/atiny_lwm2m\object_firmware.c ****         {
 154:C:/Users/lenovo/Desktop/liteos/Project2/BearPi_LiteOS/components/connectivity/agent_tiny/atiny_lwm2m\object_firmware.c **** #ifdef CONFIG_FEATURE_FOTA    
 155:C:/Users/lenovo/Desktop/liteos/Project2/BearPi_LiteOS/components/connectivity/agent_tiny/atiny_lwm2m\object_firmware.c ****             int state = atiny_fota_manager_get_rpt_state(atiny_fota_manager_get_instance());
 156:C:/Users/lenovo/Desktop/liteos/Project2/BearPi_LiteOS/components/connectivity/agent_tiny/atiny_lwm2m\object_firmware.c ****             lwm2m_data_encode_int(state, *dataArrayP + i);
 157:C:/Users/lenovo/Desktop/liteos/Project2/BearPi_LiteOS/components/connectivity/agent_tiny/atiny_lwm2m\object_firmware.c ****             result = COAP_205_CONTENT;
 158:C:/Users/lenovo/Desktop/liteos/Project2/BearPi_LiteOS/components/connectivity/agent_tiny/atiny_lwm2m\object_firmware.c **** #else
 159:C:/Users/lenovo/Desktop/liteos/Project2/BearPi_LiteOS/components/connectivity/agent_tiny/atiny_lwm2m\object_firmware.c ****             result = COAP_405_METHOD_NOT_ALLOWED; 
 160:C:/Users/lenovo/Desktop/liteos/Project2/BearPi_LiteOS/components/connectivity/agent_tiny/atiny_lwm2m\object_firmware.c **** #endif
 161:C:/Users/lenovo/Desktop/liteos/Project2/BearPi_LiteOS/components/connectivity/agent_tiny/atiny_lwm2m\object_firmware.c ****             break;
 162:C:/Users/lenovo/Desktop/liteos/Project2/BearPi_LiteOS/components/connectivity/agent_tiny/atiny_lwm2m\object_firmware.c ****         }
 163:C:/Users/lenovo/Desktop/liteos/Project2/BearPi_LiteOS/components/connectivity/agent_tiny/atiny_lwm2m\object_firmware.c **** 
 164:C:/Users/lenovo/Desktop/liteos/Project2/BearPi_LiteOS/components/connectivity/agent_tiny/atiny_lwm2m\object_firmware.c ****         case RES_M_UPDATE_RESULT:
 165:C:/Users/lenovo/Desktop/liteos/Project2/BearPi_LiteOS/components/connectivity/agent_tiny/atiny_lwm2m\object_firmware.c ****         {
 166:C:/Users/lenovo/Desktop/liteos/Project2/BearPi_LiteOS/components/connectivity/agent_tiny/atiny_lwm2m\object_firmware.c **** #ifdef CONFIG_FEATURE_FOTA    
 167:C:/Users/lenovo/Desktop/liteos/Project2/BearPi_LiteOS/components/connectivity/agent_tiny/atiny_lwm2m\object_firmware.c ****             int updateresult = atiny_fota_manager_get_update_result(atiny_fota_manager_get_instance
 168:C:/Users/lenovo/Desktop/liteos/Project2/BearPi_LiteOS/components/connectivity/agent_tiny/atiny_lwm2m\object_firmware.c ****             lwm2m_data_encode_int(updateresult, *dataArrayP + i);
 169:C:/Users/lenovo/Desktop/liteos/Project2/BearPi_LiteOS/components/connectivity/agent_tiny/atiny_lwm2m\object_firmware.c ****             result = COAP_205_CONTENT;
 170:C:/Users/lenovo/Desktop/liteos/Project2/BearPi_LiteOS/components/connectivity/agent_tiny/atiny_lwm2m\object_firmware.c **** #else
 171:C:/Users/lenovo/Desktop/liteos/Project2/BearPi_LiteOS/components/connectivity/agent_tiny/atiny_lwm2m\object_firmware.c ****             result = COAP_405_METHOD_NOT_ALLOWED; 
 172:C:/Users/lenovo/Desktop/liteos/Project2/BearPi_LiteOS/components/connectivity/agent_tiny/atiny_lwm2m\object_firmware.c **** #endif         
 173:C:/Users/lenovo/Desktop/liteos/Project2/BearPi_LiteOS/components/connectivity/agent_tiny/atiny_lwm2m\object_firmware.c ****             break;
 174:C:/Users/lenovo/Desktop/liteos/Project2/BearPi_LiteOS/components/connectivity/agent_tiny/atiny_lwm2m\object_firmware.c ****         }
 175:C:/Users/lenovo/Desktop/liteos/Project2/BearPi_LiteOS/components/connectivity/agent_tiny/atiny_lwm2m\object_firmware.c **** 
 176:C:/Users/lenovo/Desktop/liteos/Project2/BearPi_LiteOS/components/connectivity/agent_tiny/atiny_lwm2m\object_firmware.c ****         case RES_O_FIRMWARE_UPDATE_DELIVER_METHOD:
 177:C:/Users/lenovo/Desktop/liteos/Project2/BearPi_LiteOS/components/connectivity/agent_tiny/atiny_lwm2m\object_firmware.c ****         {
 178:C:/Users/lenovo/Desktop/liteos/Project2/BearPi_LiteOS/components/connectivity/agent_tiny/atiny_lwm2m\object_firmware.c **** #ifdef CONFIG_FEATURE_FOTA   
 179:C:/Users/lenovo/Desktop/liteos/Project2/BearPi_LiteOS/components/connectivity/agent_tiny/atiny_lwm2m\object_firmware.c ****             int method = atiny_fota_manager_get_deliver_method(atiny_fota_manager_get_instance());
 180:C:/Users/lenovo/Desktop/liteos/Project2/BearPi_LiteOS/components/connectivity/agent_tiny/atiny_lwm2m\object_firmware.c ****             lwm2m_data_encode_int(method, *dataArrayP + i);
 181:C:/Users/lenovo/Desktop/liteos/Project2/BearPi_LiteOS/components/connectivity/agent_tiny/atiny_lwm2m\object_firmware.c ****             result = COAP_205_CONTENT;
 182:C:/Users/lenovo/Desktop/liteos/Project2/BearPi_LiteOS/components/connectivity/agent_tiny/atiny_lwm2m\object_firmware.c **** #else
 183:C:/Users/lenovo/Desktop/liteos/Project2/BearPi_LiteOS/components/connectivity/agent_tiny/atiny_lwm2m\object_firmware.c ****             result = COAP_405_METHOD_NOT_ALLOWED; 
 184:C:/Users/lenovo/Desktop/liteos/Project2/BearPi_LiteOS/components/connectivity/agent_tiny/atiny_lwm2m\object_firmware.c **** #endif
 185:C:/Users/lenovo/Desktop/liteos/Project2/BearPi_LiteOS/components/connectivity/agent_tiny/atiny_lwm2m\object_firmware.c **** 
 186:C:/Users/lenovo/Desktop/liteos/Project2/BearPi_LiteOS/components/connectivity/agent_tiny/atiny_lwm2m\object_firmware.c ****         }
 187:C:/Users/lenovo/Desktop/liteos/Project2/BearPi_LiteOS/components/connectivity/agent_tiny/atiny_lwm2m\object_firmware.c ****         break;
 188:C:/Users/lenovo/Desktop/liteos/Project2/BearPi_LiteOS/components/connectivity/agent_tiny/atiny_lwm2m\object_firmware.c ****         default:
 189:C:/Users/lenovo/Desktop/liteos/Project2/BearPi_LiteOS/components/connectivity/agent_tiny/atiny_lwm2m\object_firmware.c ****             result = COAP_404_NOT_FOUND;
 190:C:/Users/lenovo/Desktop/liteos/Project2/BearPi_LiteOS/components/connectivity/agent_tiny/atiny_lwm2m\object_firmware.c ****         }
 191:C:/Users/lenovo/Desktop/liteos/Project2/BearPi_LiteOS/components/connectivity/agent_tiny/atiny_lwm2m\object_firmware.c **** 
 192:C:/Users/lenovo/Desktop/liteos/Project2/BearPi_LiteOS/components/connectivity/agent_tiny/atiny_lwm2m\object_firmware.c ****         i++;
 193:C:/Users/lenovo/Desktop/liteos/Project2/BearPi_LiteOS/components/connectivity/agent_tiny/atiny_lwm2m\object_firmware.c ****     }
 194:C:/Users/lenovo/Desktop/liteos/Project2/BearPi_LiteOS/components/connectivity/agent_tiny/atiny_lwm2m\object_firmware.c ****     while (i < *numDataP && result == COAP_205_CONTENT);
 195:C:/Users/lenovo/Desktop/liteos/Project2/BearPi_LiteOS/components/connectivity/agent_tiny/atiny_lwm2m\object_firmware.c **** 
 196:C:/Users/lenovo/Desktop/liteos/Project2/BearPi_LiteOS/components/connectivity/agent_tiny/atiny_lwm2m\object_firmware.c **** #ifdef CONFIG_FEATURE_FOTA   
 197:C:/Users/lenovo/Desktop/liteos/Project2/BearPi_LiteOS/components/connectivity/agent_tiny/atiny_lwm2m\object_firmware.c ****     if(dataCfg && (1 == *numDataP) && (RES_M_STATE == (*dataArrayP)[0].id))
 198:C:/Users/lenovo/Desktop/liteos/Project2/BearPi_LiteOS/components/connectivity/agent_tiny/atiny_lwm2m\object_firmware.c ****     {
 199:C:/Users/lenovo/Desktop/liteos/Project2/BearPi_LiteOS/components/connectivity/agent_tiny/atiny_lwm2m\object_firmware.c ****         atiny_fota_manager_get_data_cfg(atiny_fota_manager_get_instance(), dataCfg);
 200:C:/Users/lenovo/Desktop/liteos/Project2/BearPi_LiteOS/components/connectivity/agent_tiny/atiny_lwm2m\object_firmware.c ****     }
 201:C:/Users/lenovo/Desktop/liteos/Project2/BearPi_LiteOS/components/connectivity/agent_tiny/atiny_lwm2m\object_firmware.c **** #endif
 202:C:/Users/lenovo/Desktop/liteos/Project2/BearPi_LiteOS/components/connectivity/agent_tiny/atiny_lwm2m\object_firmware.c **** 
 203:C:/Users/lenovo/Desktop/liteos/Project2/BearPi_LiteOS/components/connectivity/agent_tiny/atiny_lwm2m\object_firmware.c ****     return result;
ARM GAS  c:\Users\lenovo\AppData\Local\Temp\cc6cNdkR.s 			page 5


 204:C:/Users/lenovo/Desktop/liteos/Project2/BearPi_LiteOS/components/connectivity/agent_tiny/atiny_lwm2m\object_firmware.c **** }
 205:C:/Users/lenovo/Desktop/liteos/Project2/BearPi_LiteOS/components/connectivity/agent_tiny/atiny_lwm2m\object_firmware.c **** 
 206:C:/Users/lenovo/Desktop/liteos/Project2/BearPi_LiteOS/components/connectivity/agent_tiny/atiny_lwm2m\object_firmware.c **** static uint8_t prv_firmware_write(uint16_t instanceId,
 207:C:/Users/lenovo/Desktop/liteos/Project2/BearPi_LiteOS/components/connectivity/agent_tiny/atiny_lwm2m\object_firmware.c ****                                   int numData,
 208:C:/Users/lenovo/Desktop/liteos/Project2/BearPi_LiteOS/components/connectivity/agent_tiny/atiny_lwm2m\object_firmware.c ****                                   lwm2m_data_t *dataArray,
 209:C:/Users/lenovo/Desktop/liteos/Project2/BearPi_LiteOS/components/connectivity/agent_tiny/atiny_lwm2m\object_firmware.c ****                                   lwm2m_object_t *objectP)
 210:C:/Users/lenovo/Desktop/liteos/Project2/BearPi_LiteOS/components/connectivity/agent_tiny/atiny_lwm2m\object_firmware.c **** {
 211:C:/Users/lenovo/Desktop/liteos/Project2/BearPi_LiteOS/components/connectivity/agent_tiny/atiny_lwm2m\object_firmware.c ****     int i;
 212:C:/Users/lenovo/Desktop/liteos/Project2/BearPi_LiteOS/components/connectivity/agent_tiny/atiny_lwm2m\object_firmware.c ****     uint8_t result;
 213:C:/Users/lenovo/Desktop/liteos/Project2/BearPi_LiteOS/components/connectivity/agent_tiny/atiny_lwm2m\object_firmware.c **** 
 214:C:/Users/lenovo/Desktop/liteos/Project2/BearPi_LiteOS/components/connectivity/agent_tiny/atiny_lwm2m\object_firmware.c ****     // this is a single instance object
 215:C:/Users/lenovo/Desktop/liteos/Project2/BearPi_LiteOS/components/connectivity/agent_tiny/atiny_lwm2m\object_firmware.c ****     if (instanceId != 0)
 216:C:/Users/lenovo/Desktop/liteos/Project2/BearPi_LiteOS/components/connectivity/agent_tiny/atiny_lwm2m\object_firmware.c ****     {
 217:C:/Users/lenovo/Desktop/liteos/Project2/BearPi_LiteOS/components/connectivity/agent_tiny/atiny_lwm2m\object_firmware.c ****         return COAP_404_NOT_FOUND;
 218:C:/Users/lenovo/Desktop/liteos/Project2/BearPi_LiteOS/components/connectivity/agent_tiny/atiny_lwm2m\object_firmware.c ****     }
 219:C:/Users/lenovo/Desktop/liteos/Project2/BearPi_LiteOS/components/connectivity/agent_tiny/atiny_lwm2m\object_firmware.c **** 
 220:C:/Users/lenovo/Desktop/liteos/Project2/BearPi_LiteOS/components/connectivity/agent_tiny/atiny_lwm2m\object_firmware.c ****     i = 0;
 221:C:/Users/lenovo/Desktop/liteos/Project2/BearPi_LiteOS/components/connectivity/agent_tiny/atiny_lwm2m\object_firmware.c **** 
 222:C:/Users/lenovo/Desktop/liteos/Project2/BearPi_LiteOS/components/connectivity/agent_tiny/atiny_lwm2m\object_firmware.c ****     do
 223:C:/Users/lenovo/Desktop/liteos/Project2/BearPi_LiteOS/components/connectivity/agent_tiny/atiny_lwm2m\object_firmware.c ****     {
 224:C:/Users/lenovo/Desktop/liteos/Project2/BearPi_LiteOS/components/connectivity/agent_tiny/atiny_lwm2m\object_firmware.c ****         switch (dataArray[i].id)
 225:C:/Users/lenovo/Desktop/liteos/Project2/BearPi_LiteOS/components/connectivity/agent_tiny/atiny_lwm2m\object_firmware.c ****         {
 226:C:/Users/lenovo/Desktop/liteos/Project2/BearPi_LiteOS/components/connectivity/agent_tiny/atiny_lwm2m\object_firmware.c **** 
 227:C:/Users/lenovo/Desktop/liteos/Project2/BearPi_LiteOS/components/connectivity/agent_tiny/atiny_lwm2m\object_firmware.c ****         case RES_M_PACKAGE_URI:
 228:C:/Users/lenovo/Desktop/liteos/Project2/BearPi_LiteOS/components/connectivity/agent_tiny/atiny_lwm2m\object_firmware.c ****             // URL for download the firmware
 229:C:/Users/lenovo/Desktop/liteos/Project2/BearPi_LiteOS/components/connectivity/agent_tiny/atiny_lwm2m\object_firmware.c ****         {
 230:C:/Users/lenovo/Desktop/liteos/Project2/BearPi_LiteOS/components/connectivity/agent_tiny/atiny_lwm2m\object_firmware.c ****             int ret;
 231:C:/Users/lenovo/Desktop/liteos/Project2/BearPi_LiteOS/components/connectivity/agent_tiny/atiny_lwm2m\object_firmware.c ****             if(dataArray[i].type != LWM2M_TYPE_STRING || NULL == dataArray[i].value.asBuffer.buffer
 232:C:/Users/lenovo/Desktop/liteos/Project2/BearPi_LiteOS/components/connectivity/agent_tiny/atiny_lwm2m\object_firmware.c ****             {
 233:C:/Users/lenovo/Desktop/liteos/Project2/BearPi_LiteOS/components/connectivity/agent_tiny/atiny_lwm2m\object_firmware.c ****                 ATINY_LOG(LOG_ERR, "type ERR %d", dataArray[i].type);
 234:C:/Users/lenovo/Desktop/liteos/Project2/BearPi_LiteOS/components/connectivity/agent_tiny/atiny_lwm2m\object_firmware.c ****                 result = COAP_400_BAD_REQUEST;
 235:C:/Users/lenovo/Desktop/liteos/Project2/BearPi_LiteOS/components/connectivity/agent_tiny/atiny_lwm2m\object_firmware.c ****                 break;
 236:C:/Users/lenovo/Desktop/liteos/Project2/BearPi_LiteOS/components/connectivity/agent_tiny/atiny_lwm2m\object_firmware.c ****             }
 237:C:/Users/lenovo/Desktop/liteos/Project2/BearPi_LiteOS/components/connectivity/agent_tiny/atiny_lwm2m\object_firmware.c **** #ifdef CONFIG_FEATURE_FOTA   
 238:C:/Users/lenovo/Desktop/liteos/Project2/BearPi_LiteOS/components/connectivity/agent_tiny/atiny_lwm2m\object_firmware.c **** 
 239:C:/Users/lenovo/Desktop/liteos/Project2/BearPi_LiteOS/components/connectivity/agent_tiny/atiny_lwm2m\object_firmware.c ****             ret = atiny_fota_manager_start_download(atiny_fota_manager_get_instance(), \
 240:C:/Users/lenovo/Desktop/liteos/Project2/BearPi_LiteOS/components/connectivity/agent_tiny/atiny_lwm2m\object_firmware.c ****                                                     (const char *)(dataArray[i].value.asBuffer.buff
 241:C:/Users/lenovo/Desktop/liteos/Project2/BearPi_LiteOS/components/connectivity/agent_tiny/atiny_lwm2m\object_firmware.c **** #else
 242:C:/Users/lenovo/Desktop/liteos/Project2/BearPi_LiteOS/components/connectivity/agent_tiny/atiny_lwm2m\object_firmware.c ****             ret = ATINY_ERR;
 243:C:/Users/lenovo/Desktop/liteos/Project2/BearPi_LiteOS/components/connectivity/agent_tiny/atiny_lwm2m\object_firmware.c **** #endif
 244:C:/Users/lenovo/Desktop/liteos/Project2/BearPi_LiteOS/components/connectivity/agent_tiny/atiny_lwm2m\object_firmware.c ****             result = (ATINY_OK == ret ? COAP_204_CHANGED : COAP_405_METHOD_NOT_ALLOWED);
 245:C:/Users/lenovo/Desktop/liteos/Project2/BearPi_LiteOS/components/connectivity/agent_tiny/atiny_lwm2m\object_firmware.c ****             break;
 246:C:/Users/lenovo/Desktop/liteos/Project2/BearPi_LiteOS/components/connectivity/agent_tiny/atiny_lwm2m\object_firmware.c ****         }
 247:C:/Users/lenovo/Desktop/liteos/Project2/BearPi_LiteOS/components/connectivity/agent_tiny/atiny_lwm2m\object_firmware.c **** 
 248:C:/Users/lenovo/Desktop/liteos/Project2/BearPi_LiteOS/components/connectivity/agent_tiny/atiny_lwm2m\object_firmware.c ****         default:
 249:C:/Users/lenovo/Desktop/liteos/Project2/BearPi_LiteOS/components/connectivity/agent_tiny/atiny_lwm2m\object_firmware.c ****             result = COAP_405_METHOD_NOT_ALLOWED;
 250:C:/Users/lenovo/Desktop/liteos/Project2/BearPi_LiteOS/components/connectivity/agent_tiny/atiny_lwm2m\object_firmware.c ****         }
 251:C:/Users/lenovo/Desktop/liteos/Project2/BearPi_LiteOS/components/connectivity/agent_tiny/atiny_lwm2m\object_firmware.c **** 
 252:C:/Users/lenovo/Desktop/liteos/Project2/BearPi_LiteOS/components/connectivity/agent_tiny/atiny_lwm2m\object_firmware.c ****         i++;
 253:C:/Users/lenovo/Desktop/liteos/Project2/BearPi_LiteOS/components/connectivity/agent_tiny/atiny_lwm2m\object_firmware.c ****     }
 254:C:/Users/lenovo/Desktop/liteos/Project2/BearPi_LiteOS/components/connectivity/agent_tiny/atiny_lwm2m\object_firmware.c ****     while (i < numData && result == COAP_204_CHANGED);
 255:C:/Users/lenovo/Desktop/liteos/Project2/BearPi_LiteOS/components/connectivity/agent_tiny/atiny_lwm2m\object_firmware.c **** 
 256:C:/Users/lenovo/Desktop/liteos/Project2/BearPi_LiteOS/components/connectivity/agent_tiny/atiny_lwm2m\object_firmware.c ****     return result;
 257:C:/Users/lenovo/Desktop/liteos/Project2/BearPi_LiteOS/components/connectivity/agent_tiny/atiny_lwm2m\object_firmware.c **** }
 258:C:/Users/lenovo/Desktop/liteos/Project2/BearPi_LiteOS/components/connectivity/agent_tiny/atiny_lwm2m\object_firmware.c **** 
 259:C:/Users/lenovo/Desktop/liteos/Project2/BearPi_LiteOS/components/connectivity/agent_tiny/atiny_lwm2m\object_firmware.c **** static uint8_t prv_firmware_execute(uint16_t instanceId,
 260:C:/Users/lenovo/Desktop/liteos/Project2/BearPi_LiteOS/components/connectivity/agent_tiny/atiny_lwm2m\object_firmware.c ****                                     uint16_t resourceId,
ARM GAS  c:\Users\lenovo\AppData\Local\Temp\cc6cNdkR.s 			page 6


 261:C:/Users/lenovo/Desktop/liteos/Project2/BearPi_LiteOS/components/connectivity/agent_tiny/atiny_lwm2m\object_firmware.c ****                                     uint8_t *buffer,
 262:C:/Users/lenovo/Desktop/liteos/Project2/BearPi_LiteOS/components/connectivity/agent_tiny/atiny_lwm2m\object_firmware.c ****                                     int length,
 263:C:/Users/lenovo/Desktop/liteos/Project2/BearPi_LiteOS/components/connectivity/agent_tiny/atiny_lwm2m\object_firmware.c ****                                     lwm2m_object_t *objectP)
 264:C:/Users/lenovo/Desktop/liteos/Project2/BearPi_LiteOS/components/connectivity/agent_tiny/atiny_lwm2m\object_firmware.c **** {
  27              		.loc 1 264 0
  28              		.cfi_startproc
  29              		@ args = 4, pretend = 0, frame = 0
  30              		@ frame_needed = 0, uses_anonymous_args = 0
  31              	.LVL0:
 265:C:/Users/lenovo/Desktop/liteos/Project2/BearPi_LiteOS/components/connectivity/agent_tiny/atiny_lwm2m\object_firmware.c **** 
 266:C:/Users/lenovo/Desktop/liteos/Project2/BearPi_LiteOS/components/connectivity/agent_tiny/atiny_lwm2m\object_firmware.c ****     // this is a single instance object
 267:C:/Users/lenovo/Desktop/liteos/Project2/BearPi_LiteOS/components/connectivity/agent_tiny/atiny_lwm2m\object_firmware.c ****     if (instanceId != 0)
  32              		.loc 1 267 0
  33 0000 70B9     		cbnz	r0, .L4
 268:C:/Users/lenovo/Desktop/liteos/Project2/BearPi_LiteOS/components/connectivity/agent_tiny/atiny_lwm2m\object_firmware.c ****     {
 269:C:/Users/lenovo/Desktop/liteos/Project2/BearPi_LiteOS/components/connectivity/agent_tiny/atiny_lwm2m\object_firmware.c ****         return COAP_404_NOT_FOUND;
 270:C:/Users/lenovo/Desktop/liteos/Project2/BearPi_LiteOS/components/connectivity/agent_tiny/atiny_lwm2m\object_firmware.c ****     }
 271:C:/Users/lenovo/Desktop/liteos/Project2/BearPi_LiteOS/components/connectivity/agent_tiny/atiny_lwm2m\object_firmware.c **** 
 272:C:/Users/lenovo/Desktop/liteos/Project2/BearPi_LiteOS/components/connectivity/agent_tiny/atiny_lwm2m\object_firmware.c ****     if (length != 0) return COAP_400_BAD_REQUEST;
  34              		.loc 1 272 0
  35 0002 7BB9     		cbnz	r3, .L5
 273:C:/Users/lenovo/Desktop/liteos/Project2/BearPi_LiteOS/components/connectivity/agent_tiny/atiny_lwm2m\object_firmware.c **** 
 274:C:/Users/lenovo/Desktop/liteos/Project2/BearPi_LiteOS/components/connectivity/agent_tiny/atiny_lwm2m\object_firmware.c ****     // for execute callback, resId is always set.
 275:C:/Users/lenovo/Desktop/liteos/Project2/BearPi_LiteOS/components/connectivity/agent_tiny/atiny_lwm2m\object_firmware.c ****     switch (resourceId)
  36              		.loc 1 275 0
  37 0004 0229     		cmp	r1, #2
  38 0006 01D0     		beq	.L13
 276:C:/Users/lenovo/Desktop/liteos/Project2/BearPi_LiteOS/components/connectivity/agent_tiny/atiny_lwm2m\object_firmware.c ****     {
 277:C:/Users/lenovo/Desktop/liteos/Project2/BearPi_LiteOS/components/connectivity/agent_tiny/atiny_lwm2m\object_firmware.c ****     case RES_M_UPDATE:
 278:C:/Users/lenovo/Desktop/liteos/Project2/BearPi_LiteOS/components/connectivity/agent_tiny/atiny_lwm2m\object_firmware.c ****     {
 279:C:/Users/lenovo/Desktop/liteos/Project2/BearPi_LiteOS/components/connectivity/agent_tiny/atiny_lwm2m\object_firmware.c **** #ifdef CONFIG_FEATURE_FOTA 
 280:C:/Users/lenovo/Desktop/liteos/Project2/BearPi_LiteOS/components/connectivity/agent_tiny/atiny_lwm2m\object_firmware.c ****         int ret = atiny_fota_manager_execute_update(atiny_fota_manager_get_instance());
 281:C:/Users/lenovo/Desktop/liteos/Project2/BearPi_LiteOS/components/connectivity/agent_tiny/atiny_lwm2m\object_firmware.c **** #else
 282:C:/Users/lenovo/Desktop/liteos/Project2/BearPi_LiteOS/components/connectivity/agent_tiny/atiny_lwm2m\object_firmware.c ****         int ret = ATINY_ERR;
 283:C:/Users/lenovo/Desktop/liteos/Project2/BearPi_LiteOS/components/connectivity/agent_tiny/atiny_lwm2m\object_firmware.c **** #endif
 284:C:/Users/lenovo/Desktop/liteos/Project2/BearPi_LiteOS/components/connectivity/agent_tiny/atiny_lwm2m\object_firmware.c ****         if (ATINY_OK == ret)
 285:C:/Users/lenovo/Desktop/liteos/Project2/BearPi_LiteOS/components/connectivity/agent_tiny/atiny_lwm2m\object_firmware.c ****         {
 286:C:/Users/lenovo/Desktop/liteos/Project2/BearPi_LiteOS/components/connectivity/agent_tiny/atiny_lwm2m\object_firmware.c ****             return COAP_204_CHANGED;
 287:C:/Users/lenovo/Desktop/liteos/Project2/BearPi_LiteOS/components/connectivity/agent_tiny/atiny_lwm2m\object_firmware.c ****         }
 288:C:/Users/lenovo/Desktop/liteos/Project2/BearPi_LiteOS/components/connectivity/agent_tiny/atiny_lwm2m\object_firmware.c ****         else
 289:C:/Users/lenovo/Desktop/liteos/Project2/BearPi_LiteOS/components/connectivity/agent_tiny/atiny_lwm2m\object_firmware.c ****         {
 290:C:/Users/lenovo/Desktop/liteos/Project2/BearPi_LiteOS/components/connectivity/agent_tiny/atiny_lwm2m\object_firmware.c ****             // firmware update already running
 291:C:/Users/lenovo/Desktop/liteos/Project2/BearPi_LiteOS/components/connectivity/agent_tiny/atiny_lwm2m\object_firmware.c **** #ifdef CONFIG_FEATURE_FOTA
 292:C:/Users/lenovo/Desktop/liteos/Project2/BearPi_LiteOS/components/connectivity/agent_tiny/atiny_lwm2m\object_firmware.c ****             return COAP_400_BAD_REQUEST;
 293:C:/Users/lenovo/Desktop/liteos/Project2/BearPi_LiteOS/components/connectivity/agent_tiny/atiny_lwm2m\object_firmware.c **** #else
 294:C:/Users/lenovo/Desktop/liteos/Project2/BearPi_LiteOS/components/connectivity/agent_tiny/atiny_lwm2m\object_firmware.c ****             return COAP_405_METHOD_NOT_ALLOWED;
 295:C:/Users/lenovo/Desktop/liteos/Project2/BearPi_LiteOS/components/connectivity/agent_tiny/atiny_lwm2m\object_firmware.c **** #endif
 296:C:/Users/lenovo/Desktop/liteos/Project2/BearPi_LiteOS/components/connectivity/agent_tiny/atiny_lwm2m\object_firmware.c ****         }
 297:C:/Users/lenovo/Desktop/liteos/Project2/BearPi_LiteOS/components/connectivity/agent_tiny/atiny_lwm2m\object_firmware.c ****     }
 298:C:/Users/lenovo/Desktop/liteos/Project2/BearPi_LiteOS/components/connectivity/agent_tiny/atiny_lwm2m\object_firmware.c ****     default:
 299:C:/Users/lenovo/Desktop/liteos/Project2/BearPi_LiteOS/components/connectivity/agent_tiny/atiny_lwm2m\object_firmware.c ****         return COAP_405_METHOD_NOT_ALLOWED;
  39              		.loc 1 299 0
  40 0008 8520     		movs	r0, #133
  41              	.LVL1:
 300:C:/Users/lenovo/Desktop/liteos/Project2/BearPi_LiteOS/components/connectivity/agent_tiny/atiny_lwm2m\object_firmware.c ****     }
 301:C:/Users/lenovo/Desktop/liteos/Project2/BearPi_LiteOS/components/connectivity/agent_tiny/atiny_lwm2m\object_firmware.c **** 
 302:C:/Users/lenovo/Desktop/liteos/Project2/BearPi_LiteOS/components/connectivity/agent_tiny/atiny_lwm2m\object_firmware.c **** 
ARM GAS  c:\Users\lenovo\AppData\Local\Temp\cc6cNdkR.s 			page 7


 303:C:/Users/lenovo/Desktop/liteos/Project2/BearPi_LiteOS/components/connectivity/agent_tiny/atiny_lwm2m\object_firmware.c **** }
  42              		.loc 1 303 0
  43 000a 7047     		bx	lr
  44              	.LVL2:
  45              	.L13:
 264:C:/Users/lenovo/Desktop/liteos/Project2/BearPi_LiteOS/components/connectivity/agent_tiny/atiny_lwm2m\object_firmware.c **** 
  46              		.loc 1 264 0
  47 000c 08B5     		push	{r3, lr}
  48              	.LCFI0:
  49              		.cfi_def_cfa_offset 8
  50              		.cfi_offset 3, -8
  51              		.cfi_offset 14, -4
  52              	.LBB2:
 280:C:/Users/lenovo/Desktop/liteos/Project2/BearPi_LiteOS/components/connectivity/agent_tiny/atiny_lwm2m\object_firmware.c **** #else
  53              		.loc 1 280 0
  54 000e FFF7FEFF 		bl	atiny_fota_manager_get_instance
  55              	.LVL3:
  56 0012 FFF7FEFF 		bl	atiny_fota_manager_execute_update
  57              	.LVL4:
 284:C:/Users/lenovo/Desktop/liteos/Project2/BearPi_LiteOS/components/connectivity/agent_tiny/atiny_lwm2m\object_firmware.c ****         {
  58              		.loc 1 284 0
  59 0016 08B1     		cbz	r0, .L14
 292:C:/Users/lenovo/Desktop/liteos/Project2/BearPi_LiteOS/components/connectivity/agent_tiny/atiny_lwm2m\object_firmware.c **** #else
  60              		.loc 1 292 0
  61 0018 8020     		movs	r0, #128
  62              	.LVL5:
  63              	.L2:
  64              	.LBE2:
  65              		.loc 1 303 0
  66 001a 08BD     		pop	{r3, pc}
  67              	.LVL6:
  68              	.L14:
  69              	.LBB3:
 286:C:/Users/lenovo/Desktop/liteos/Project2/BearPi_LiteOS/components/connectivity/agent_tiny/atiny_lwm2m\object_firmware.c ****         }
  70              		.loc 1 286 0
  71 001c 4420     		movs	r0, #68
  72              	.LVL7:
  73 001e FCE7     		b	.L2
  74              	.LVL8:
  75              	.L4:
  76              	.LCFI1:
  77              		.cfi_def_cfa_offset 0
  78              		.cfi_restore 3
  79              		.cfi_restore 14
  80              	.LBE3:
 269:C:/Users/lenovo/Desktop/liteos/Project2/BearPi_LiteOS/components/connectivity/agent_tiny/atiny_lwm2m\object_firmware.c ****     }
  81              		.loc 1 269 0
  82 0020 8420     		movs	r0, #132
  83              	.LVL9:
  84 0022 7047     		bx	lr
  85              	.LVL10:
  86              	.L5:
 272:C:/Users/lenovo/Desktop/liteos/Project2/BearPi_LiteOS/components/connectivity/agent_tiny/atiny_lwm2m\object_firmware.c **** 
  87              		.loc 1 272 0
  88 0024 8020     		movs	r0, #128
  89              	.LVL11:
  90 0026 7047     		bx	lr
ARM GAS  c:\Users\lenovo\AppData\Local\Temp\cc6cNdkR.s 			page 8


  91              		.cfi_endproc
  92              	.LFE136:
  94              		.section	.text.prv_firmware_write,"ax",%progbits
  95              		.align	1
  96              		.syntax unified
  97              		.thumb
  98              		.thumb_func
  99              		.fpu fpv4-sp-d16
 101              	prv_firmware_write:
 102              	.LFB135:
 210:C:/Users/lenovo/Desktop/liteos/Project2/BearPi_LiteOS/components/connectivity/agent_tiny/atiny_lwm2m\object_firmware.c ****     int i;
 103              		.loc 1 210 0
 104              		.cfi_startproc
 105              		@ args = 0, pretend = 0, frame = 0
 106              		@ frame_needed = 0, uses_anonymous_args = 0
 107              	.LVL12:
 215:C:/Users/lenovo/Desktop/liteos/Project2/BearPi_LiteOS/components/connectivity/agent_tiny/atiny_lwm2m\object_firmware.c ****     {
 108              		.loc 1 215 0
 109 0000 0028     		cmp	r0, #0
 110 0002 3AD1     		bne	.L22
 210:C:/Users/lenovo/Desktop/liteos/Project2/BearPi_LiteOS/components/connectivity/agent_tiny/atiny_lwm2m\object_firmware.c ****     int i;
 111              		.loc 1 210 0
 112 0004 2DE9F041 		push	{r4, r5, r6, r7, r8, lr}
 113              	.LCFI2:
 114              		.cfi_def_cfa_offset 24
 115              		.cfi_offset 4, -24
 116              		.cfi_offset 5, -20
 117              		.cfi_offset 6, -16
 118              		.cfi_offset 7, -12
 119              		.cfi_offset 8, -8
 120              		.cfi_offset 14, -4
 121 0008 82B0     		sub	sp, sp, #8
 122              	.LCFI3:
 123              		.cfi_def_cfa_offset 32
 124 000a 1746     		mov	r7, r2
 125 000c 8846     		mov	r8, r1
 220:C:/Users/lenovo/Desktop/liteos/Project2/BearPi_LiteOS/components/connectivity/agent_tiny/atiny_lwm2m\object_firmware.c **** 
 126              		.loc 1 220 0
 127 000e 0024     		movs	r4, #0
 128 0010 1DE0     		b	.L21
 129              	.LVL13:
 130              	.L19:
 131              	.LBB4:
 233:C:/Users/lenovo/Desktop/liteos/Project2/BearPi_LiteOS/components/connectivity/agent_tiny/atiny_lwm2m\object_firmware.c ****                 result = COAP_400_BAD_REQUEST;
 132              		.loc 1 233 0
 133 0012 FFF7FEFF 		bl	atiny_get_log_level
 134              	.LVL14:
 135 0016 0328     		cmp	r0, #3
 136 0018 01D9     		bls	.L31
 234:C:/Users/lenovo/Desktop/liteos/Project2/BearPi_LiteOS/components/connectivity/agent_tiny/atiny_lwm2m\object_firmware.c ****                 break;
 137              		.loc 1 234 0
 138 001a 8020     		movs	r0, #128
 139 001c 12E0     		b	.L17
 140              	.L31:
 233:C:/Users/lenovo/Desktop/liteos/Project2/BearPi_LiteOS/components/connectivity/agent_tiny/atiny_lwm2m\object_firmware.c ****                 result = COAP_400_BAD_REQUEST;
 141              		.loc 1 233 0 discriminator 1
 142 001e 0320     		movs	r0, #3
ARM GAS  c:\Users\lenovo\AppData\Local\Temp\cc6cNdkR.s 			page 9


 143 0020 FFF7FEFF 		bl	atiny_get_log_level_name
 144              	.LVL15:
 145 0024 0646     		mov	r6, r0
 146 0026 FFF7FEFF 		bl	atiny_gettime_ms
 147              	.LVL16:
 148 002a 7B5D     		ldrb	r3, [r7, r5]	@ zero_extendqisi2
 149 002c 0193     		str	r3, [sp, #4]
 150 002e E923     		movs	r3, #233
 151 0030 0093     		str	r3, [sp]
 152 0032 144B     		ldr	r3, .L32
 153 0034 0246     		mov	r2, r0
 154 0036 3146     		mov	r1, r6
 155 0038 1348     		ldr	r0, .L32+4
 156 003a FFF7FEFF 		bl	atiny_printf
 157              	.LVL17:
 234:C:/Users/lenovo/Desktop/liteos/Project2/BearPi_LiteOS/components/connectivity/agent_tiny/atiny_lwm2m\object_firmware.c ****                 break;
 158              		.loc 1 234 0 discriminator 1
 159 003e 8020     		movs	r0, #128
 160 0040 00E0     		b	.L17
 161              	.L26:
 162              	.LBE4:
 249:C:/Users/lenovo/Desktop/liteos/Project2/BearPi_LiteOS/components/connectivity/agent_tiny/atiny_lwm2m\object_firmware.c ****         }
 163              		.loc 1 249 0
 164 0042 8520     		movs	r0, #133
 165              	.L17:
 166              	.LVL18:
 252:C:/Users/lenovo/Desktop/liteos/Project2/BearPi_LiteOS/components/connectivity/agent_tiny/atiny_lwm2m\object_firmware.c ****     }
 167              		.loc 1 252 0
 168 0044 0134     		adds	r4, r4, #1
 169              	.LVL19:
 254:C:/Users/lenovo/Desktop/liteos/Project2/BearPi_LiteOS/components/connectivity/agent_tiny/atiny_lwm2m\object_firmware.c **** 
 170              		.loc 1 254 0
 171 0046 4445     		cmp	r4, r8
 172 0048 19DA     		bge	.L16
 254:C:/Users/lenovo/Desktop/liteos/Project2/BearPi_LiteOS/components/connectivity/agent_tiny/atiny_lwm2m\object_firmware.c **** 
 173              		.loc 1 254 0 is_stmt 0 discriminator 1
 174 004a 4428     		cmp	r0, #68
 175 004c 17D1     		bne	.L16
 176              	.LVL20:
 177              	.L21:
 224:C:/Users/lenovo/Desktop/liteos/Project2/BearPi_LiteOS/components/connectivity/agent_tiny/atiny_lwm2m\object_firmware.c ****         {
 178              		.loc 1 224 0 is_stmt 1
 179 004e 2501     		lsls	r5, r4, #4
 180 0050 7E19     		adds	r6, r7, r5
 181 0052 7388     		ldrh	r3, [r6, #2]
 182 0054 012B     		cmp	r3, #1
 183 0056 F4D1     		bne	.L26
 184              	.LBB5:
 231:C:/Users/lenovo/Desktop/liteos/Project2/BearPi_LiteOS/components/connectivity/agent_tiny/atiny_lwm2m\object_firmware.c ****             {
 185              		.loc 1 231 0
 186 0058 7B5D     		ldrb	r3, [r7, r5]	@ zero_extendqisi2
 187 005a 042B     		cmp	r3, #4
 188 005c D9D1     		bne	.L19
 231:C:/Users/lenovo/Desktop/liteos/Project2/BearPi_LiteOS/components/connectivity/agent_tiny/atiny_lwm2m\object_firmware.c ****             {
 189              		.loc 1 231 0 is_stmt 0 discriminator 1
 190 005e F368     		ldr	r3, [r6, #12]
 191 0060 002B     		cmp	r3, #0
ARM GAS  c:\Users\lenovo\AppData\Local\Temp\cc6cNdkR.s 			page 10


 192 0062 D6D0     		beq	.L19
 239:C:/Users/lenovo/Desktop/liteos/Project2/BearPi_LiteOS/components/connectivity/agent_tiny/atiny_lwm2m\object_firmware.c ****                                                     (const char *)(dataArray[i].value.asBuffer.buff
 193              		.loc 1 239 0 is_stmt 1
 194 0064 FFF7FEFF 		bl	atiny_fota_manager_get_instance
 195              	.LVL21:
 196 0068 B268     		ldr	r2, [r6, #8]
 197 006a F168     		ldr	r1, [r6, #12]
 198 006c FFF7FEFF 		bl	atiny_fota_manager_start_download
 199              	.LVL22:
 244:C:/Users/lenovo/Desktop/liteos/Project2/BearPi_LiteOS/components/connectivity/agent_tiny/atiny_lwm2m\object_firmware.c ****             break;
 200              		.loc 1 244 0
 201 0070 08B9     		cbnz	r0, .L25
 202 0072 4420     		movs	r0, #68
 203              	.LVL23:
 204 0074 E6E7     		b	.L17
 205              	.LVL24:
 206              	.L25:
 207 0076 8520     		movs	r0, #133
 208              	.LVL25:
 209 0078 E4E7     		b	.L17
 210              	.LVL26:
 211              	.L22:
 212              	.LCFI4:
 213              		.cfi_def_cfa_offset 0
 214              		.cfi_restore 4
 215              		.cfi_restore 5
 216              		.cfi_restore 6
 217              		.cfi_restore 7
 218              		.cfi_restore 8
 219              		.cfi_restore 14
 220              	.LBE5:
 217:C:/Users/lenovo/Desktop/liteos/Project2/BearPi_LiteOS/components/connectivity/agent_tiny/atiny_lwm2m\object_firmware.c ****     }
 221              		.loc 1 217 0
 222 007a 8420     		movs	r0, #132
 223              	.LVL27:
 257:C:/Users/lenovo/Desktop/liteos/Project2/BearPi_LiteOS/components/connectivity/agent_tiny/atiny_lwm2m\object_firmware.c **** 
 224              		.loc 1 257 0
 225 007c 7047     		bx	lr
 226              	.LVL28:
 227              	.L16:
 228              	.LCFI5:
 229              		.cfi_def_cfa_offset 32
 230              		.cfi_offset 4, -24
 231              		.cfi_offset 5, -20
 232              		.cfi_offset 6, -16
 233              		.cfi_offset 7, -12
 234              		.cfi_offset 8, -8
 235              		.cfi_offset 14, -4
 236 007e 02B0     		add	sp, sp, #8
 237              	.LCFI6:
 238              		.cfi_def_cfa_offset 24
 239              		@ sp needed
 240 0080 BDE8F081 		pop	{r4, r5, r6, r7, r8, pc}
 241              	.LVL29:
 242              	.L33:
 243              		.align	2
 244              	.L32:
ARM GAS  c:\Users\lenovo\AppData\Local\Temp\cc6cNdkR.s 			page 11


 245 0084 00000000 		.word	.LANCHOR0
 246 0088 00000000 		.word	.LC1
 247              		.cfi_endproc
 248              	.LFE135:
 250              		.section	.text.prv_firmware_read,"ax",%progbits
 251              		.align	1
 252              		.syntax unified
 253              		.thumb
 254              		.thumb_func
 255              		.fpu fpv4-sp-d16
 257              	prv_firmware_read:
 258              	.LFB134:
  97:C:/Users/lenovo/Desktop/liteos/Project2/BearPi_LiteOS/components/connectivity/agent_tiny/atiny_lwm2m\object_firmware.c ****     uint32_t i;
 259              		.loc 1 97 0
 260              		.cfi_startproc
 261              		@ args = 4, pretend = 0, frame = 8
 262              		@ frame_needed = 0, uses_anonymous_args = 0
 263              	.LVL30:
 264 0000 2DE9F043 		push	{r4, r5, r6, r7, r8, r9, lr}
 265              	.LCFI7:
 266              		.cfi_def_cfa_offset 28
 267              		.cfi_offset 4, -28
 268              		.cfi_offset 5, -24
 269              		.cfi_offset 6, -20
 270              		.cfi_offset 7, -16
 271              		.cfi_offset 8, -12
 272              		.cfi_offset 9, -8
 273              		.cfi_offset 14, -4
 274 0004 83B0     		sub	sp, sp, #12
 275              	.LCFI8:
 276              		.cfi_def_cfa_offset 40
 102:C:/Users/lenovo/Desktop/liteos/Project2/BearPi_LiteOS/components/connectivity/agent_tiny/atiny_lwm2m\object_firmware.c ****     {
 277              		.loc 1 102 0
 278 0006 0028     		cmp	r0, #0
 279 0008 40F08E80 		bne	.L50
 280 000c 9846     		mov	r8, r3
 281 000e 1646     		mov	r6, r2
 282 0010 0F46     		mov	r7, r1
 108:C:/Users/lenovo/Desktop/liteos/Project2/BearPi_LiteOS/components/connectivity/agent_tiny/atiny_lwm2m\object_firmware.c ****     {
 283              		.loc 1 108 0
 284 0012 0B68     		ldr	r3, [r1]
 285              	.LVL31:
 286 0014 0BB1     		cbz	r3, .L54
 287              	.LVL32:
 288              	.L36:
 289              	.LBB6:
 116:C:/Users/lenovo/Desktop/liteos/Project2/BearPi_LiteOS/components/connectivity/agent_tiny/atiny_lwm2m\object_firmware.c ****         {
 290              		.loc 1 116 0
 291 0016 0024     		movs	r4, #0
 292 0018 24E0     		b	.L49
 293              	.LVL33:
 294              	.L54:
 110:C:/Users/lenovo/Desktop/liteos/Project2/BearPi_LiteOS/components/connectivity/agent_tiny/atiny_lwm2m\object_firmware.c ****                                 RES_M_UPDATE_RESULT, RES_O_FIRMWARE_UPDATE_DELIVER_METHOD
 295              		.loc 1 110 0
 296 001a 464B     		ldr	r3, .L57
 297 001c 93E80300 		ldm	r3, {r0, r1}
 298              	.LVL34:
ARM GAS  c:\Users\lenovo\AppData\Local\Temp\cc6cNdkR.s 			page 12


 299 0020 02AB     		add	r3, sp, #8
 300 0022 03E90300 		stmdb	r3, {r0, r1}
 113:C:/Users/lenovo/Desktop/liteos/Project2/BearPi_LiteOS/components/connectivity/agent_tiny/atiny_lwm2m\object_firmware.c ****         if (*dataArrayP == NULL) return COAP_500_INTERNAL_SERVER_ERROR;
 301              		.loc 1 113 0
 302 0026 0420     		movs	r0, #4
 303 0028 FFF7FEFF 		bl	lwm2m_data_new
 304              	.LVL35:
 305 002c 3060     		str	r0, [r6]
 114:C:/Users/lenovo/Desktop/liteos/Project2/BearPi_LiteOS/components/connectivity/agent_tiny/atiny_lwm2m\object_firmware.c ****         *numDataP = array_size(resources);
 306              		.loc 1 114 0
 307 002e 18B1     		cbz	r0, .L55
 115:C:/Users/lenovo/Desktop/liteos/Project2/BearPi_LiteOS/components/connectivity/agent_tiny/atiny_lwm2m\object_firmware.c ****         for(i = 0 ; i < array_size(resources); ++i)
 308              		.loc 1 115 0
 309 0030 0423     		movs	r3, #4
 310 0032 3B60     		str	r3, [r7]
 311              	.LVL36:
 116:C:/Users/lenovo/Desktop/liteos/Project2/BearPi_LiteOS/components/connectivity/agent_tiny/atiny_lwm2m\object_firmware.c ****         {
 312              		.loc 1 116 0
 313 0034 0023     		movs	r3, #0
 314 0036 0BE0     		b	.L38
 315              	.LVL37:
 316              	.L55:
 114:C:/Users/lenovo/Desktop/liteos/Project2/BearPi_LiteOS/components/connectivity/agent_tiny/atiny_lwm2m\object_firmware.c ****         *numDataP = array_size(resources);
 317              		.loc 1 114 0 discriminator 1
 318 0038 A025     		movs	r5, #160
 319 003a 76E0     		b	.L35
 320              	.LVL38:
 321              	.L39:
 118:C:/Users/lenovo/Desktop/liteos/Project2/BearPi_LiteOS/components/connectivity/agent_tiny/atiny_lwm2m\object_firmware.c ****         }
 322              		.loc 1 118 0 discriminator 3
 323 003c 3268     		ldr	r2, [r6]
 324 003e 02EB0312 		add	r2, r2, r3, lsl #4
 325 0042 02A9     		add	r1, sp, #8
 326 0044 01EB4301 		add	r1, r1, r3, lsl #1
 327 0048 31F8081C 		ldrh	r1, [r1, #-8]
 328 004c 5180     		strh	r1, [r2, #2]	@ movhi
 116:C:/Users/lenovo/Desktop/liteos/Project2/BearPi_LiteOS/components/connectivity/agent_tiny/atiny_lwm2m\object_firmware.c ****         {
 329              		.loc 1 116 0 discriminator 3
 330 004e 0133     		adds	r3, r3, #1
 331              	.LVL39:
 332              	.L38:
 116:C:/Users/lenovo/Desktop/liteos/Project2/BearPi_LiteOS/components/connectivity/agent_tiny/atiny_lwm2m\object_firmware.c ****         {
 333              		.loc 1 116 0 is_stmt 0 discriminator 1
 334 0050 032B     		cmp	r3, #3
 335 0052 F3D9     		bls	.L39
 336 0054 DFE7     		b	.L36
 337              	.LVL40:
 338              	.L41:
 339              	.LBE6:
 128:C:/Users/lenovo/Desktop/liteos/Project2/BearPi_LiteOS/components/connectivity/agent_tiny/atiny_lwm2m\object_firmware.c ****             break;
 340              		.loc 1 128 0 is_stmt 1
 341 0056 8525     		movs	r5, #133
 342              	.L40:
 343              	.LVL41:
 192:C:/Users/lenovo/Desktop/liteos/Project2/BearPi_LiteOS/components/connectivity/agent_tiny/atiny_lwm2m\object_firmware.c ****     }
 344              		.loc 1 192 0
 345 0058 0134     		adds	r4, r4, #1
ARM GAS  c:\Users\lenovo\AppData\Local\Temp\cc6cNdkR.s 			page 13


 346              	.LVL42:
 194:C:/Users/lenovo/Desktop/liteos/Project2/BearPi_LiteOS/components/connectivity/agent_tiny/atiny_lwm2m\object_firmware.c **** 
 347              		.loc 1 194 0
 348 005a 3B68     		ldr	r3, [r7]
 349 005c A342     		cmp	r3, r4
 350 005e 54D9     		bls	.L48
 194:C:/Users/lenovo/Desktop/liteos/Project2/BearPi_LiteOS/components/connectivity/agent_tiny/atiny_lwm2m\object_firmware.c **** 
 351              		.loc 1 194 0 is_stmt 0 discriminator 1
 352 0060 452D     		cmp	r5, #69
 353 0062 52D1     		bne	.L48
 354              	.LVL43:
 355              	.L49:
 125:C:/Users/lenovo/Desktop/liteos/Project2/BearPi_LiteOS/components/connectivity/agent_tiny/atiny_lwm2m\object_firmware.c ****         {
 356              		.loc 1 125 0 is_stmt 1
 357 0064 3068     		ldr	r0, [r6]
 358 0066 2501     		lsls	r5, r4, #4
 359 0068 2844     		add	r0, r0, r5
 360 006a 4088     		ldrh	r0, [r0, #2]
 361 006c 0828     		cmp	r0, #8
 362 006e 4AD8     		bhi	.L51
 363 0070 01A3     		adr	r3, .L42
 364 0072 53F820F0 		ldr	pc, [r3, r0, lsl #2]
 365 0076 00BF     		.p2align 2
 366              	.L42:
 367 0078 57000000 		.word	.L41+1
 368 007c 9D000000 		.word	.L43+1
 369 0080 57000000 		.word	.L41+1
 370 0084 C5000000 		.word	.L44+1
 371 0088 07010000 		.word	.L51+1
 372 008c DB000000 		.word	.L45+1
 373 0090 07010000 		.word	.L51+1
 374 0094 07010000 		.word	.L51+1
 375 0098 F1000000 		.word	.L46+1
 376              		.p2align 1
 377              	.L43:
 378              	.LBB7:
 134:C:/Users/lenovo/Desktop/liteos/Project2/BearPi_LiteOS/components/connectivity/agent_tiny/atiny_lwm2m\object_firmware.c ****             if(pkg_uri == NULL)
 379              		.loc 1 134 0
 380 009c FFF7FEFF 		bl	atiny_fota_manager_get_instance
 381              	.LVL44:
 382 00a0 FFF7FEFF 		bl	atiny_fota_manager_get_pkg_uri
 383              	.LVL45:
 135:C:/Users/lenovo/Desktop/liteos/Project2/BearPi_LiteOS/components/connectivity/agent_tiny/atiny_lwm2m\object_firmware.c ****             {
 384              		.loc 1 135 0
 385 00a4 8146     		mov	r9, r0
 386 00a6 50B1     		cbz	r0, .L56
 387              	.L47:
 388              	.LVL46:
 139:C:/Users/lenovo/Desktop/liteos/Project2/BearPi_LiteOS/components/connectivity/agent_tiny/atiny_lwm2m\object_firmware.c ****             result = COAP_205_CONTENT;
 389              		.loc 1 139 0
 390 00a8 4846     		mov	r0, r9
 391 00aa FFF7FEFF 		bl	strlen
 392              	.LVL47:
 393 00ae 3268     		ldr	r2, [r6]
 394 00b0 2A44     		add	r2, r2, r5
 395 00b2 411C     		adds	r1, r0, #1
 396 00b4 4846     		mov	r0, r9
ARM GAS  c:\Users\lenovo\AppData\Local\Temp\cc6cNdkR.s 			page 14


 397 00b6 FFF7FEFF 		bl	lwm2m_data_encode_nstring
 398              	.LVL48:
 140:C:/Users/lenovo/Desktop/liteos/Project2/BearPi_LiteOS/components/connectivity/agent_tiny/atiny_lwm2m\object_firmware.c **** #else 
 399              		.loc 1 140 0
 400 00ba 4525     		movs	r5, #69
 144:C:/Users/lenovo/Desktop/liteos/Project2/BearPi_LiteOS/components/connectivity/agent_tiny/atiny_lwm2m\object_firmware.c ****         }
 401              		.loc 1 144 0
 402 00bc CCE7     		b	.L40
 403              	.LVL49:
 404              	.L56:
 137:C:/Users/lenovo/Desktop/liteos/Project2/BearPi_LiteOS/components/connectivity/agent_tiny/atiny_lwm2m\object_firmware.c ****             }
 405              		.loc 1 137 0
 406 00be DFF87890 		ldr	r9, .L57+4
 407 00c2 F1E7     		b	.L47
 408              	.LVL50:
 409              	.L44:
 410              	.LBE7:
 411              	.LBB8:
 155:C:/Users/lenovo/Desktop/liteos/Project2/BearPi_LiteOS/components/connectivity/agent_tiny/atiny_lwm2m\object_firmware.c ****             lwm2m_data_encode_int(state, *dataArrayP + i);
 412              		.loc 1 155 0
 413 00c4 FFF7FEFF 		bl	atiny_fota_manager_get_instance
 414              	.LVL51:
 415 00c8 FFF7FEFF 		bl	atiny_fota_manager_get_rpt_state
 416              	.LVL52:
 156:C:/Users/lenovo/Desktop/liteos/Project2/BearPi_LiteOS/components/connectivity/agent_tiny/atiny_lwm2m\object_firmware.c ****             result = COAP_205_CONTENT;
 417              		.loc 1 156 0
 418 00cc 3268     		ldr	r2, [r6]
 419 00ce 2A44     		add	r2, r2, r5
 420 00d0 C117     		asrs	r1, r0, #31
 421 00d2 FFF7FEFF 		bl	lwm2m_data_encode_int
 422              	.LVL53:
 157:C:/Users/lenovo/Desktop/liteos/Project2/BearPi_LiteOS/components/connectivity/agent_tiny/atiny_lwm2m\object_firmware.c **** #else
 423              		.loc 1 157 0
 424 00d6 4525     		movs	r5, #69
 161:C:/Users/lenovo/Desktop/liteos/Project2/BearPi_LiteOS/components/connectivity/agent_tiny/atiny_lwm2m\object_firmware.c ****         }
 425              		.loc 1 161 0
 426 00d8 BEE7     		b	.L40
 427              	.LVL54:
 428              	.L45:
 429              	.LBE8:
 430              	.LBB9:
 167:C:/Users/lenovo/Desktop/liteos/Project2/BearPi_LiteOS/components/connectivity/agent_tiny/atiny_lwm2m\object_firmware.c ****             lwm2m_data_encode_int(updateresult, *dataArrayP + i);
 431              		.loc 1 167 0
 432 00da FFF7FEFF 		bl	atiny_fota_manager_get_instance
 433              	.LVL55:
 434 00de FFF7FEFF 		bl	atiny_fota_manager_get_update_result
 435              	.LVL56:
 168:C:/Users/lenovo/Desktop/liteos/Project2/BearPi_LiteOS/components/connectivity/agent_tiny/atiny_lwm2m\object_firmware.c ****             result = COAP_205_CONTENT;
 436              		.loc 1 168 0
 437 00e2 3268     		ldr	r2, [r6]
 438 00e4 2A44     		add	r2, r2, r5
 439 00e6 C117     		asrs	r1, r0, #31
 440 00e8 FFF7FEFF 		bl	lwm2m_data_encode_int
 441              	.LVL57:
 169:C:/Users/lenovo/Desktop/liteos/Project2/BearPi_LiteOS/components/connectivity/agent_tiny/atiny_lwm2m\object_firmware.c **** #else
 442              		.loc 1 169 0
 443 00ec 4525     		movs	r5, #69
ARM GAS  c:\Users\lenovo\AppData\Local\Temp\cc6cNdkR.s 			page 15


 173:C:/Users/lenovo/Desktop/liteos/Project2/BearPi_LiteOS/components/connectivity/agent_tiny/atiny_lwm2m\object_firmware.c ****         }
 444              		.loc 1 173 0
 445 00ee B3E7     		b	.L40
 446              	.LVL58:
 447              	.L46:
 448              	.LBE9:
 449              	.LBB10:
 179:C:/Users/lenovo/Desktop/liteos/Project2/BearPi_LiteOS/components/connectivity/agent_tiny/atiny_lwm2m\object_firmware.c ****             lwm2m_data_encode_int(method, *dataArrayP + i);
 450              		.loc 1 179 0
 451 00f0 FFF7FEFF 		bl	atiny_fota_manager_get_instance
 452              	.LVL59:
 453 00f4 FFF7FEFF 		bl	atiny_fota_manager_get_deliver_method
 454              	.LVL60:
 180:C:/Users/lenovo/Desktop/liteos/Project2/BearPi_LiteOS/components/connectivity/agent_tiny/atiny_lwm2m\object_firmware.c ****             result = COAP_205_CONTENT;
 455              		.loc 1 180 0
 456 00f8 3268     		ldr	r2, [r6]
 457 00fa 2A44     		add	r2, r2, r5
 458 00fc C117     		asrs	r1, r0, #31
 459 00fe FFF7FEFF 		bl	lwm2m_data_encode_int
 460              	.LVL61:
 181:C:/Users/lenovo/Desktop/liteos/Project2/BearPi_LiteOS/components/connectivity/agent_tiny/atiny_lwm2m\object_firmware.c **** #else
 461              		.loc 1 181 0
 462 0102 4525     		movs	r5, #69
 463              	.LBE10:
 187:C:/Users/lenovo/Desktop/liteos/Project2/BearPi_LiteOS/components/connectivity/agent_tiny/atiny_lwm2m\object_firmware.c ****         default:
 464              		.loc 1 187 0
 465 0104 A8E7     		b	.L40
 466              	.LVL62:
 467              	.L51:
 189:C:/Users/lenovo/Desktop/liteos/Project2/BearPi_LiteOS/components/connectivity/agent_tiny/atiny_lwm2m\object_firmware.c ****         }
 468              		.loc 1 189 0
 469 0106 8425     		movs	r5, #132
 470 0108 A6E7     		b	.L40
 471              	.LVL63:
 472              	.L48:
 197:C:/Users/lenovo/Desktop/liteos/Project2/BearPi_LiteOS/components/connectivity/agent_tiny/atiny_lwm2m\object_firmware.c ****     {
 473              		.loc 1 197 0
 474 010a B8F1000F 		cmp	r8, #0
 475 010e 0CD0     		beq	.L35
 197:C:/Users/lenovo/Desktop/liteos/Project2/BearPi_LiteOS/components/connectivity/agent_tiny/atiny_lwm2m\object_firmware.c ****     {
 476              		.loc 1 197 0 is_stmt 0 discriminator 1
 477 0110 012B     		cmp	r3, #1
 478 0112 0AD1     		bne	.L35
 197:C:/Users/lenovo/Desktop/liteos/Project2/BearPi_LiteOS/components/connectivity/agent_tiny/atiny_lwm2m\object_firmware.c ****     {
 479              		.loc 1 197 0 discriminator 2
 480 0114 3368     		ldr	r3, [r6]
 481 0116 5B88     		ldrh	r3, [r3, #2]
 482 0118 032B     		cmp	r3, #3
 483 011a 06D1     		bne	.L35
 199:C:/Users/lenovo/Desktop/liteos/Project2/BearPi_LiteOS/components/connectivity/agent_tiny/atiny_lwm2m\object_firmware.c ****     }
 484              		.loc 1 199 0 is_stmt 1
 485 011c FFF7FEFF 		bl	atiny_fota_manager_get_instance
 486              	.LVL64:
 487 0120 4146     		mov	r1, r8
 488 0122 FFF7FEFF 		bl	atiny_fota_manager_get_data_cfg
 489              	.LVL65:
 490 0126 00E0     		b	.L35
ARM GAS  c:\Users\lenovo\AppData\Local\Temp\cc6cNdkR.s 			page 16


 491              	.LVL66:
 492              	.L50:
 104:C:/Users/lenovo/Desktop/liteos/Project2/BearPi_LiteOS/components/connectivity/agent_tiny/atiny_lwm2m\object_firmware.c ****     }
 493              		.loc 1 104 0
 494 0128 8425     		movs	r5, #132
 495              	.LVL67:
 496              	.L35:
 204:C:/Users/lenovo/Desktop/liteos/Project2/BearPi_LiteOS/components/connectivity/agent_tiny/atiny_lwm2m\object_firmware.c **** 
 497              		.loc 1 204 0
 498 012a 2846     		mov	r0, r5
 499 012c 03B0     		add	sp, sp, #12
 500              	.LCFI9:
 501              		.cfi_def_cfa_offset 28
 502              		@ sp needed
 503 012e BDE8F083 		pop	{r4, r5, r6, r7, r8, r9, pc}
 504              	.LVL68:
 505              	.L58:
 506 0132 00BF     		.align	2
 507              	.L57:
 508 0134 00000000 		.word	.LANCHOR1
 509 0138 00000000 		.word	.LC2
 510              		.cfi_endproc
 511              	.LFE134:
 513              		.section	.text.get_object_firmware,"ax",%progbits
 514              		.align	1
 515              		.global	get_object_firmware
 516              		.syntax unified
 517              		.thumb
 518              		.thumb_func
 519              		.fpu fpv4-sp-d16
 521              	get_object_firmware:
 522              	.LFB137:
 304:C:/Users/lenovo/Desktop/liteos/Project2/BearPi_LiteOS/components/connectivity/agent_tiny/atiny_lwm2m\object_firmware.c **** 
 305:C:/Users/lenovo/Desktop/liteos/Project2/BearPi_LiteOS/components/connectivity/agent_tiny/atiny_lwm2m\object_firmware.c **** 
 306:C:/Users/lenovo/Desktop/liteos/Project2/BearPi_LiteOS/components/connectivity/agent_tiny/atiny_lwm2m\object_firmware.c **** lwm2m_object_t *get_object_firmware(atiny_param_t *atiny_params)
 307:C:/Users/lenovo/Desktop/liteos/Project2/BearPi_LiteOS/components/connectivity/agent_tiny/atiny_lwm2m\object_firmware.c **** {
 523              		.loc 1 307 0
 524              		.cfi_startproc
 525              		@ args = 0, pretend = 0, frame = 0
 526              		@ frame_needed = 0, uses_anonymous_args = 0
 527              	.LVL69:
 528 0000 10B5     		push	{r4, lr}
 529              	.LCFI10:
 530              		.cfi_def_cfa_offset 8
 531              		.cfi_offset 4, -8
 532              		.cfi_offset 14, -4
 308:C:/Users/lenovo/Desktop/liteos/Project2/BearPi_LiteOS/components/connectivity/agent_tiny/atiny_lwm2m\object_firmware.c ****     /*
 309:C:/Users/lenovo/Desktop/liteos/Project2/BearPi_LiteOS/components/connectivity/agent_tiny/atiny_lwm2m\object_firmware.c ****      * The get_object_firmware function create the object itself and return a pointer to the struct
 310:C:/Users/lenovo/Desktop/liteos/Project2/BearPi_LiteOS/components/connectivity/agent_tiny/atiny_lwm2m\object_firmware.c ****      */
 311:C:/Users/lenovo/Desktop/liteos/Project2/BearPi_LiteOS/components/connectivity/agent_tiny/atiny_lwm2m\object_firmware.c ****     lwm2m_object_t *firmwareObj;
 312:C:/Users/lenovo/Desktop/liteos/Project2/BearPi_LiteOS/components/connectivity/agent_tiny/atiny_lwm2m\object_firmware.c **** 
 313:C:/Users/lenovo/Desktop/liteos/Project2/BearPi_LiteOS/components/connectivity/agent_tiny/atiny_lwm2m\object_firmware.c ****     firmwareObj = (lwm2m_object_t *)lwm2m_malloc(sizeof(lwm2m_object_t));
 533              		.loc 1 313 0
 534 0002 2C20     		movs	r0, #44
 535              	.LVL70:
 536 0004 FFF7FEFF 		bl	lwm2m_malloc
 537              	.LVL71:
ARM GAS  c:\Users\lenovo\AppData\Local\Temp\cc6cNdkR.s 			page 17


 314:C:/Users/lenovo/Desktop/liteos/Project2/BearPi_LiteOS/components/connectivity/agent_tiny/atiny_lwm2m\object_firmware.c **** 
 315:C:/Users/lenovo/Desktop/liteos/Project2/BearPi_LiteOS/components/connectivity/agent_tiny/atiny_lwm2m\object_firmware.c ****     if (NULL != firmwareObj)
 538              		.loc 1 315 0
 539 0008 0446     		mov	r4, r0
 540 000a A0B1     		cbz	r0, .L59
 316:C:/Users/lenovo/Desktop/liteos/Project2/BearPi_LiteOS/components/connectivity/agent_tiny/atiny_lwm2m\object_firmware.c ****     {
 317:C:/Users/lenovo/Desktop/liteos/Project2/BearPi_LiteOS/components/connectivity/agent_tiny/atiny_lwm2m\object_firmware.c ****         memset(firmwareObj, 0, sizeof(lwm2m_object_t));
 541              		.loc 1 317 0
 542 000c 2C22     		movs	r2, #44
 543 000e 0021     		movs	r1, #0
 544 0010 FFF7FEFF 		bl	memset
 545              	.LVL72:
 318:C:/Users/lenovo/Desktop/liteos/Project2/BearPi_LiteOS/components/connectivity/agent_tiny/atiny_lwm2m\object_firmware.c **** 
 319:C:/Users/lenovo/Desktop/liteos/Project2/BearPi_LiteOS/components/connectivity/agent_tiny/atiny_lwm2m\object_firmware.c ****         /*
 320:C:/Users/lenovo/Desktop/liteos/Project2/BearPi_LiteOS/components/connectivity/agent_tiny/atiny_lwm2m\object_firmware.c ****          * It assigns its unique ID
 321:C:/Users/lenovo/Desktop/liteos/Project2/BearPi_LiteOS/components/connectivity/agent_tiny/atiny_lwm2m\object_firmware.c ****          * The 5 is the standard ID for the optional object "Object firmware".
 322:C:/Users/lenovo/Desktop/liteos/Project2/BearPi_LiteOS/components/connectivity/agent_tiny/atiny_lwm2m\object_firmware.c ****          */
 323:C:/Users/lenovo/Desktop/liteos/Project2/BearPi_LiteOS/components/connectivity/agent_tiny/atiny_lwm2m\object_firmware.c ****         firmwareObj->objID = LWM2M_FIRMWARE_UPDATE_OBJECT_ID;
 546              		.loc 1 323 0
 547 0014 0523     		movs	r3, #5
 548 0016 A380     		strh	r3, [r4, #4]	@ movhi
 324:C:/Users/lenovo/Desktop/liteos/Project2/BearPi_LiteOS/components/connectivity/agent_tiny/atiny_lwm2m\object_firmware.c **** 
 325:C:/Users/lenovo/Desktop/liteos/Project2/BearPi_LiteOS/components/connectivity/agent_tiny/atiny_lwm2m\object_firmware.c ****         /*
 326:C:/Users/lenovo/Desktop/liteos/Project2/BearPi_LiteOS/components/connectivity/agent_tiny/atiny_lwm2m\object_firmware.c ****          * and its unique instance
 327:C:/Users/lenovo/Desktop/liteos/Project2/BearPi_LiteOS/components/connectivity/agent_tiny/atiny_lwm2m\object_firmware.c ****          *
 328:C:/Users/lenovo/Desktop/liteos/Project2/BearPi_LiteOS/components/connectivity/agent_tiny/atiny_lwm2m\object_firmware.c ****          */
 329:C:/Users/lenovo/Desktop/liteos/Project2/BearPi_LiteOS/components/connectivity/agent_tiny/atiny_lwm2m\object_firmware.c ****         firmwareObj->instanceList = (lwm2m_list_t *)lwm2m_malloc(sizeof(lwm2m_list_t));
 549              		.loc 1 329 0
 550 0018 0820     		movs	r0, #8
 551 001a FFF7FEFF 		bl	lwm2m_malloc
 552              	.LVL73:
 553 001e A060     		str	r0, [r4, #8]
 330:C:/Users/lenovo/Desktop/liteos/Project2/BearPi_LiteOS/components/connectivity/agent_tiny/atiny_lwm2m\object_firmware.c ****         if (NULL != firmwareObj->instanceList)
 554              		.loc 1 330 0
 555 0020 58B1     		cbz	r0, .L61
 331:C:/Users/lenovo/Desktop/liteos/Project2/BearPi_LiteOS/components/connectivity/agent_tiny/atiny_lwm2m\object_firmware.c ****         {
 332:C:/Users/lenovo/Desktop/liteos/Project2/BearPi_LiteOS/components/connectivity/agent_tiny/atiny_lwm2m\object_firmware.c ****             memset(firmwareObj->instanceList, 0, sizeof(lwm2m_list_t));
 556              		.loc 1 332 0
 557 0022 0023     		movs	r3, #0
 558 0024 0360     		str	r3, [r0]	@ unaligned
 559 0026 4360     		str	r3, [r0, #4]	@ unaligned
 333:C:/Users/lenovo/Desktop/liteos/Project2/BearPi_LiteOS/components/connectivity/agent_tiny/atiny_lwm2m\object_firmware.c ****         }
 334:C:/Users/lenovo/Desktop/liteos/Project2/BearPi_LiteOS/components/connectivity/agent_tiny/atiny_lwm2m\object_firmware.c ****         else
 335:C:/Users/lenovo/Desktop/liteos/Project2/BearPi_LiteOS/components/connectivity/agent_tiny/atiny_lwm2m\object_firmware.c ****         {
 336:C:/Users/lenovo/Desktop/liteos/Project2/BearPi_LiteOS/components/connectivity/agent_tiny/atiny_lwm2m\object_firmware.c ****             lwm2m_free(firmwareObj);
 337:C:/Users/lenovo/Desktop/liteos/Project2/BearPi_LiteOS/components/connectivity/agent_tiny/atiny_lwm2m\object_firmware.c ****             return NULL;
 338:C:/Users/lenovo/Desktop/liteos/Project2/BearPi_LiteOS/components/connectivity/agent_tiny/atiny_lwm2m\object_firmware.c ****         }
 339:C:/Users/lenovo/Desktop/liteos/Project2/BearPi_LiteOS/components/connectivity/agent_tiny/atiny_lwm2m\object_firmware.c **** 
 340:C:/Users/lenovo/Desktop/liteos/Project2/BearPi_LiteOS/components/connectivity/agent_tiny/atiny_lwm2m\object_firmware.c ****         /*
 341:C:/Users/lenovo/Desktop/liteos/Project2/BearPi_LiteOS/components/connectivity/agent_tiny/atiny_lwm2m\object_firmware.c ****          * And the private function that will access the object.
 342:C:/Users/lenovo/Desktop/liteos/Project2/BearPi_LiteOS/components/connectivity/agent_tiny/atiny_lwm2m\object_firmware.c ****          * Those function will be called when a read/write/execute query is made by the server. In 
 343:C:/Users/lenovo/Desktop/liteos/Project2/BearPi_LiteOS/components/connectivity/agent_tiny/atiny_lwm2m\object_firmware.c ****          * know the resources of the object, only the server does.
 344:C:/Users/lenovo/Desktop/liteos/Project2/BearPi_LiteOS/components/connectivity/agent_tiny/atiny_lwm2m\object_firmware.c ****          */
 345:C:/Users/lenovo/Desktop/liteos/Project2/BearPi_LiteOS/components/connectivity/agent_tiny/atiny_lwm2m\object_firmware.c ****         firmwareObj->readFunc    = prv_firmware_read;
 560              		.loc 1 345 0
 561 0028 064A     		ldr	r2, .L63
 562 002a E260     		str	r2, [r4, #12]
ARM GAS  c:\Users\lenovo\AppData\Local\Temp\cc6cNdkR.s 			page 18


 346:C:/Users/lenovo/Desktop/liteos/Project2/BearPi_LiteOS/components/connectivity/agent_tiny/atiny_lwm2m\object_firmware.c ****         firmwareObj->writeFunc   = prv_firmware_write;
 563              		.loc 1 346 0
 564 002c 064A     		ldr	r2, .L63+4
 565 002e 2261     		str	r2, [r4, #16]
 347:C:/Users/lenovo/Desktop/liteos/Project2/BearPi_LiteOS/components/connectivity/agent_tiny/atiny_lwm2m\object_firmware.c ****         firmwareObj->executeFunc = prv_firmware_execute;
 566              		.loc 1 347 0
 567 0030 064A     		ldr	r2, .L63+8
 568 0032 6261     		str	r2, [r4, #20]
 348:C:/Users/lenovo/Desktop/liteos/Project2/BearPi_LiteOS/components/connectivity/agent_tiny/atiny_lwm2m\object_firmware.c ****         firmwareObj->userData    = NULL;
 569              		.loc 1 348 0
 570 0034 A362     		str	r3, [r4, #40]
 571              	.LVL74:
 572              	.L59:
 349:C:/Users/lenovo/Desktop/liteos/Project2/BearPi_LiteOS/components/connectivity/agent_tiny/atiny_lwm2m\object_firmware.c **** 
 350:C:/Users/lenovo/Desktop/liteos/Project2/BearPi_LiteOS/components/connectivity/agent_tiny/atiny_lwm2m\object_firmware.c ****         /*
 351:C:/Users/lenovo/Desktop/liteos/Project2/BearPi_LiteOS/components/connectivity/agent_tiny/atiny_lwm2m\object_firmware.c ****          * Also some user data can be stored in the object with a private structure containing the 
 352:C:/Users/lenovo/Desktop/liteos/Project2/BearPi_LiteOS/components/connectivity/agent_tiny/atiny_lwm2m\object_firmware.c ****          */
 353:C:/Users/lenovo/Desktop/liteos/Project2/BearPi_LiteOS/components/connectivity/agent_tiny/atiny_lwm2m\object_firmware.c ****     }
 354:C:/Users/lenovo/Desktop/liteos/Project2/BearPi_LiteOS/components/connectivity/agent_tiny/atiny_lwm2m\object_firmware.c **** 
 355:C:/Users/lenovo/Desktop/liteos/Project2/BearPi_LiteOS/components/connectivity/agent_tiny/atiny_lwm2m\object_firmware.c ****     return firmwareObj;
 356:C:/Users/lenovo/Desktop/liteos/Project2/BearPi_LiteOS/components/connectivity/agent_tiny/atiny_lwm2m\object_firmware.c **** }
 573              		.loc 1 356 0
 574 0036 2046     		mov	r0, r4
 575 0038 10BD     		pop	{r4, pc}
 576              	.LVL75:
 577              	.L61:
 336:C:/Users/lenovo/Desktop/liteos/Project2/BearPi_LiteOS/components/connectivity/agent_tiny/atiny_lwm2m\object_firmware.c ****             return NULL;
 578              		.loc 1 336 0
 579 003a 2046     		mov	r0, r4
 580 003c FFF7FEFF 		bl	lwm2m_free
 581              	.LVL76:
 337:C:/Users/lenovo/Desktop/liteos/Project2/BearPi_LiteOS/components/connectivity/agent_tiny/atiny_lwm2m\object_firmware.c ****         }
 582              		.loc 1 337 0
 583 0040 0024     		movs	r4, #0
 584              	.LVL77:
 585 0042 F8E7     		b	.L59
 586              	.L64:
 587              		.align	2
 588              	.L63:
 589 0044 00000000 		.word	prv_firmware_read
 590 0048 00000000 		.word	prv_firmware_write
 591 004c 00000000 		.word	prv_firmware_execute
 592              		.cfi_endproc
 593              	.LFE137:
 595              		.section	.text.free_object_firmware,"ax",%progbits
 596              		.align	1
 597              		.global	free_object_firmware
 598              		.syntax unified
 599              		.thumb
 600              		.thumb_func
 601              		.fpu fpv4-sp-d16
 603              	free_object_firmware:
 604              	.LFB138:
 357:C:/Users/lenovo/Desktop/liteos/Project2/BearPi_LiteOS/components/connectivity/agent_tiny/atiny_lwm2m\object_firmware.c **** 
 358:C:/Users/lenovo/Desktop/liteos/Project2/BearPi_LiteOS/components/connectivity/agent_tiny/atiny_lwm2m\object_firmware.c **** void free_object_firmware(lwm2m_object_t *objectP)
 359:C:/Users/lenovo/Desktop/liteos/Project2/BearPi_LiteOS/components/connectivity/agent_tiny/atiny_lwm2m\object_firmware.c **** {
 605              		.loc 1 359 0
ARM GAS  c:\Users\lenovo\AppData\Local\Temp\cc6cNdkR.s 			page 19


 606              		.cfi_startproc
 607              		@ args = 0, pretend = 0, frame = 0
 608              		@ frame_needed = 0, uses_anonymous_args = 0
 609              	.LVL78:
 610 0000 10B5     		push	{r4, lr}
 611              	.LCFI11:
 612              		.cfi_def_cfa_offset 8
 613              		.cfi_offset 4, -8
 614              		.cfi_offset 14, -4
 615 0002 0446     		mov	r4, r0
 360:C:/Users/lenovo/Desktop/liteos/Project2/BearPi_LiteOS/components/connectivity/agent_tiny/atiny_lwm2m\object_firmware.c ****     if (NULL != objectP->userData)
 616              		.loc 1 360 0
 617 0004 806A     		ldr	r0, [r0, #40]
 618              	.LVL79:
 619 0006 18B1     		cbz	r0, .L66
 361:C:/Users/lenovo/Desktop/liteos/Project2/BearPi_LiteOS/components/connectivity/agent_tiny/atiny_lwm2m\object_firmware.c ****     {
 362:C:/Users/lenovo/Desktop/liteos/Project2/BearPi_LiteOS/components/connectivity/agent_tiny/atiny_lwm2m\object_firmware.c ****         lwm2m_free(objectP->userData);
 620              		.loc 1 362 0
 621 0008 FFF7FEFF 		bl	lwm2m_free
 622              	.LVL80:
 363:C:/Users/lenovo/Desktop/liteos/Project2/BearPi_LiteOS/components/connectivity/agent_tiny/atiny_lwm2m\object_firmware.c ****         objectP->userData = NULL;
 623              		.loc 1 363 0
 624 000c 0023     		movs	r3, #0
 625 000e A362     		str	r3, [r4, #40]
 626              	.L66:
 364:C:/Users/lenovo/Desktop/liteos/Project2/BearPi_LiteOS/components/connectivity/agent_tiny/atiny_lwm2m\object_firmware.c ****     }
 365:C:/Users/lenovo/Desktop/liteos/Project2/BearPi_LiteOS/components/connectivity/agent_tiny/atiny_lwm2m\object_firmware.c ****     if (NULL != objectP->instanceList)
 627              		.loc 1 365 0
 628 0010 A068     		ldr	r0, [r4, #8]
 629 0012 18B1     		cbz	r0, .L67
 366:C:/Users/lenovo/Desktop/liteos/Project2/BearPi_LiteOS/components/connectivity/agent_tiny/atiny_lwm2m\object_firmware.c ****     {
 367:C:/Users/lenovo/Desktop/liteos/Project2/BearPi_LiteOS/components/connectivity/agent_tiny/atiny_lwm2m\object_firmware.c ****         lwm2m_free(objectP->instanceList);
 630              		.loc 1 367 0
 631 0014 FFF7FEFF 		bl	lwm2m_free
 632              	.LVL81:
 368:C:/Users/lenovo/Desktop/liteos/Project2/BearPi_LiteOS/components/connectivity/agent_tiny/atiny_lwm2m\object_firmware.c ****         objectP->instanceList = NULL;
 633              		.loc 1 368 0
 634 0018 0023     		movs	r3, #0
 635 001a A360     		str	r3, [r4, #8]
 636              	.L67:
 369:C:/Users/lenovo/Desktop/liteos/Project2/BearPi_LiteOS/components/connectivity/agent_tiny/atiny_lwm2m\object_firmware.c ****     }
 370:C:/Users/lenovo/Desktop/liteos/Project2/BearPi_LiteOS/components/connectivity/agent_tiny/atiny_lwm2m\object_firmware.c ****     lwm2m_free(objectP);
 637              		.loc 1 370 0
 638 001c 2046     		mov	r0, r4
 639 001e FFF7FEFF 		bl	lwm2m_free
 640              	.LVL82:
 371:C:/Users/lenovo/Desktop/liteos/Project2/BearPi_LiteOS/components/connectivity/agent_tiny/atiny_lwm2m\object_firmware.c **** }
 641              		.loc 1 371 0
 642 0022 10BD     		pop	{r4, pc}
 643              		.cfi_endproc
 644              	.LFE138:
 646              		.section	.rodata
 647              		.align	2
 648              		.set	.LANCHOR1,. + 0
 649              	.LC0:
 650 0000 0100     		.short	1
 651 0002 0300     		.short	3
ARM GAS  c:\Users\lenovo\AppData\Local\Temp\cc6cNdkR.s 			page 20


 652 0004 0500     		.short	5
 653 0006 0800     		.short	8
 654              		.section	.rodata.__FUNCTION__.11871,"a",%progbits
 655              		.align	2
 656              		.set	.LANCHOR0,. + 0
 659              	__FUNCTION__.11871:
 660 0000 7072765F 		.ascii	"prv_firmware_write\000"
 660      6669726D 
 660      77617265 
 660      5F777269 
 660      746500
 661              		.section	.rodata.prv_firmware_read.str1.4,"aMS",%progbits,1
 662              		.align	2
 663              	.LC2:
 664 0000 00       		.ascii	"\000"
 665              		.section	.rodata.prv_firmware_write.str1.4,"aMS",%progbits,1
 666              		.align	2
 667              	.LC1:
 668 0000 5B25735D 		.ascii	"[%s][%u][%s:%d] type ERR %d\015\012\000"
 668      5B25755D 
 668      5B25733A 
 668      25645D20 
 668      74797065 
 669              		.text
 670              	.Letext0:
 671              		.file 2 "c:\\program files (x86)\\liteos studio\\resources\\arm-none-eabi\\arm-none-eabi\\include\
 672              		.file 3 "c:\\program files (x86)\\liteos studio\\resources\\arm-none-eabi\\arm-none-eabi\\include\
 673              		.file 4 "C:/Users/lenovo/Desktop/liteos/Project2/BearPi_LiteOS/components/connectivity/lwm2m/core/
 674              		.file 5 "c:\\program files (x86)\\liteos studio\\resources\\arm-none-eabi\\lib\\gcc\\arm-none-eabi
 675              		.file 6 "c:\\program files (x86)\\liteos studio\\resources\\arm-none-eabi\\arm-none-eabi\\include\
 676              		.file 7 "c:\\program files (x86)\\liteos studio\\resources\\arm-none-eabi\\arm-none-eabi\\include\
 677              		.file 8 "c:\\program files (x86)\\liteos studio\\resources\\arm-none-eabi\\arm-none-eabi\\include\
 678              		.file 9 "c:\\program files (x86)\\liteos studio\\resources\\arm-none-eabi\\arm-none-eabi\\include\
 679              		.file 10 "C:/Users/lenovo/Desktop/liteos/Project2/BearPi_LiteOS/components/connectivity/lwm2m/core
 680              		.file 11 "C:/Users/lenovo/Desktop/liteos/Project2/BearPi_LiteOS/kernel/include/los_typedef.h"
 681              		.file 12 "C:/Users/lenovo/Desktop/liteos/Project2/BearPi_LiteOS/arch/arm/common/cmsis/core_cm4.h"
 682              		.file 13 "C:/Users/lenovo/Desktop/liteos/Project2/BearPi_LiteOS/targets/STM32L431_BearPi/Inc/syste
 683              		.file 14 "C:/Users/lenovo/Desktop/liteos/Project2/BearPi_LiteOS/kernel/include/los_list.h"
 684              		.file 15 "C:/Users/lenovo/Desktop/liteos/Project2/BearPi_LiteOS/kernel/include/los_err.h"
 685              		.file 16 "C:/Users/lenovo/Desktop/liteos/Project2/BearPi_LiteOS/arch/arm/arm-m/include/los_hwi.h"
 686              		.file 17 "C:/Users/lenovo/Desktop/liteos/Project2/BearPi_LiteOS/kernel/include/los_tick.h"
 687              		.file 18 "C:/Users/lenovo/Desktop/liteos/Project2/BearPi_LiteOS/kernel/include/los_event.h"
 688              		.file 19 "C:/Users/lenovo/Desktop/liteos/Project2/BearPi_LiteOS/kernel/include/los_task.h"
 689              		.file 20 "C:/Users/lenovo/Desktop/liteos/Project2/BearPi_LiteOS/kernel/base/include/los_task.ph"
 690              		.file 21 "C:/Users/lenovo/Desktop/liteos/Project2/BearPi_LiteOS/targets/STM32L431_BearPi/Inc/main.
 691              		.file 22 "C:/Users/lenovo/Desktop/liteos/Project2/BearPi_LiteOS/targets/STM32L431_BearPi/OS_CONFIG
 692              		.file 23 "C:/Users/lenovo/Desktop/liteos/Project2/BearPi_LiteOS/kernel/include/los_config.h"
 693              		.file 24 "C:/Users/lenovo/Desktop/liteos/Project2/BearPi_LiteOS/components/connectivity/lwm2m/core
 694              		.file 25 "c:\\program files (x86)\\liteos studio\\resources\\arm-none-eabi\\arm-none-eabi\\include
 695              		.file 26 "c:\\program files (x86)\\liteos studio\\resources\\arm-none-eabi\\arm-none-eabi\\include
 696              		.file 27 "C:/Users/lenovo/Desktop/liteos/Project2/BearPi_LiteOS/include/atiny_error.h"
 697              		.file 28 "C:/Users/lenovo/Desktop/liteos/Project2/BearPi_LiteOS/include/log/atiny_log.h"
 698              		.file 29 "C:/Users/lenovo/Desktop/liteos/Project2/BearPi_LiteOS/include/atiny_lwm2m/agenttiny.h"
 699              		.file 30 "C:/Users/lenovo/Desktop/liteos/Project2/BearPi_LiteOS/components/connectivity/agent_tiny
 700              		.file 31 "C:/Users/lenovo/Desktop/liteos/Project2/BearPi_LiteOS/include/osdepends/atiny_osdep.h"
 701              		.file 32 "c:\\program files (x86)\\liteos studio\\resources\\arm-none-eabi\\arm-none-eabi\\include
 702              		.file 33 "<built-in>"
ARM GAS  c:\Users\lenovo\AppData\Local\Temp\cc6cNdkR.s 			page 21


ARM GAS  c:\Users\lenovo\AppData\Local\Temp\cc6cNdkR.s 			page 22

