ARM GAS  c:\Users\lenovo\AppData\Local\Temp\ccM87uYj.s 			page 1


   1              		.cpu cortex-m4
   2              		.eabi_attribute 27, 1
   3              		.eabi_attribute 28, 1
   4              		.eabi_attribute 20, 1
   5              		.eabi_attribute 21, 1
   6              		.eabi_attribute 23, 3
   7              		.eabi_attribute 24, 1
   8              		.eabi_attribute 25, 1
   9              		.eabi_attribute 26, 1
  10              		.eabi_attribute 30, 1
  11              		.eabi_attribute 34, 1
  12              		.eabi_attribute 18, 4
  13              		.file	"oid.c"
  14              		.text
  15              	.Ltext0:
  16              		.cfi_sections	.debug_frame
  17              		.section	.text.oid_sig_alg_from_asn1,"ax",%progbits
  18              		.align	1
  19              		.syntax unified
  20              		.thumb
  21              		.thumb_func
  22              		.fpu fpv4-sp-d16
  24              	oid_sig_alg_from_asn1:
  25              	.LFB12:
  26              		.file 1 "C:/Users/lenovo/Desktop/liteos/Project2/BearPi_LiteOS/components/security/mbedtls/mbedtls
   1:C:/Users/lenovo/Desktop/liteos/Project2/BearPi_LiteOS/components/security/mbedtls/mbedtls-2.6.0/library\oid.c **** /**
   2:C:/Users/lenovo/Desktop/liteos/Project2/BearPi_LiteOS/components/security/mbedtls/mbedtls-2.6.0/library\oid.c ****  * \file oid.c
   3:C:/Users/lenovo/Desktop/liteos/Project2/BearPi_LiteOS/components/security/mbedtls/mbedtls-2.6.0/library\oid.c ****  *
   4:C:/Users/lenovo/Desktop/liteos/Project2/BearPi_LiteOS/components/security/mbedtls/mbedtls-2.6.0/library\oid.c ****  * \brief Object Identifier (OID) database
   5:C:/Users/lenovo/Desktop/liteos/Project2/BearPi_LiteOS/components/security/mbedtls/mbedtls-2.6.0/library\oid.c ****  *
   6:C:/Users/lenovo/Desktop/liteos/Project2/BearPi_LiteOS/components/security/mbedtls/mbedtls-2.6.0/library\oid.c ****  *  Copyright (C) 2006-2015, ARM Limited, All Rights Reserved
   7:C:/Users/lenovo/Desktop/liteos/Project2/BearPi_LiteOS/components/security/mbedtls/mbedtls-2.6.0/library\oid.c ****  *  SPDX-License-Identifier: Apache-2.0
   8:C:/Users/lenovo/Desktop/liteos/Project2/BearPi_LiteOS/components/security/mbedtls/mbedtls-2.6.0/library\oid.c ****  *
   9:C:/Users/lenovo/Desktop/liteos/Project2/BearPi_LiteOS/components/security/mbedtls/mbedtls-2.6.0/library\oid.c ****  *  Licensed under the Apache License, Version 2.0 (the "License"); you may
  10:C:/Users/lenovo/Desktop/liteos/Project2/BearPi_LiteOS/components/security/mbedtls/mbedtls-2.6.0/library\oid.c ****  *  not use this file except in compliance with the License.
  11:C:/Users/lenovo/Desktop/liteos/Project2/BearPi_LiteOS/components/security/mbedtls/mbedtls-2.6.0/library\oid.c ****  *  You may obtain a copy of the License at
  12:C:/Users/lenovo/Desktop/liteos/Project2/BearPi_LiteOS/components/security/mbedtls/mbedtls-2.6.0/library\oid.c ****  *
  13:C:/Users/lenovo/Desktop/liteos/Project2/BearPi_LiteOS/components/security/mbedtls/mbedtls-2.6.0/library\oid.c ****  *  http://www.apache.org/licenses/LICENSE-2.0
  14:C:/Users/lenovo/Desktop/liteos/Project2/BearPi_LiteOS/components/security/mbedtls/mbedtls-2.6.0/library\oid.c ****  *
  15:C:/Users/lenovo/Desktop/liteos/Project2/BearPi_LiteOS/components/security/mbedtls/mbedtls-2.6.0/library\oid.c ****  *  Unless required by applicable law or agreed to in writing, software
  16:C:/Users/lenovo/Desktop/liteos/Project2/BearPi_LiteOS/components/security/mbedtls/mbedtls-2.6.0/library\oid.c ****  *  distributed under the License is distributed on an "AS IS" BASIS, WITHOUT
  17:C:/Users/lenovo/Desktop/liteos/Project2/BearPi_LiteOS/components/security/mbedtls/mbedtls-2.6.0/library\oid.c ****  *  WARRANTIES OR CONDITIONS OF ANY KIND, either express or implied.
  18:C:/Users/lenovo/Desktop/liteos/Project2/BearPi_LiteOS/components/security/mbedtls/mbedtls-2.6.0/library\oid.c ****  *  See the License for the specific language governing permissions and
  19:C:/Users/lenovo/Desktop/liteos/Project2/BearPi_LiteOS/components/security/mbedtls/mbedtls-2.6.0/library\oid.c ****  *  limitations under the License.
  20:C:/Users/lenovo/Desktop/liteos/Project2/BearPi_LiteOS/components/security/mbedtls/mbedtls-2.6.0/library\oid.c ****  *
  21:C:/Users/lenovo/Desktop/liteos/Project2/BearPi_LiteOS/components/security/mbedtls/mbedtls-2.6.0/library\oid.c ****  *  This file is part of mbed TLS (https://tls.mbed.org)
  22:C:/Users/lenovo/Desktop/liteos/Project2/BearPi_LiteOS/components/security/mbedtls/mbedtls-2.6.0/library\oid.c ****  */
  23:C:/Users/lenovo/Desktop/liteos/Project2/BearPi_LiteOS/components/security/mbedtls/mbedtls-2.6.0/library\oid.c **** 
  24:C:/Users/lenovo/Desktop/liteos/Project2/BearPi_LiteOS/components/security/mbedtls/mbedtls-2.6.0/library\oid.c **** #if !defined(MBEDTLS_CONFIG_FILE)
  25:C:/Users/lenovo/Desktop/liteos/Project2/BearPi_LiteOS/components/security/mbedtls/mbedtls-2.6.0/library\oid.c **** #include "mbedtls/config.h"
  26:C:/Users/lenovo/Desktop/liteos/Project2/BearPi_LiteOS/components/security/mbedtls/mbedtls-2.6.0/library\oid.c **** #else
  27:C:/Users/lenovo/Desktop/liteos/Project2/BearPi_LiteOS/components/security/mbedtls/mbedtls-2.6.0/library\oid.c **** #include MBEDTLS_CONFIG_FILE
  28:C:/Users/lenovo/Desktop/liteos/Project2/BearPi_LiteOS/components/security/mbedtls/mbedtls-2.6.0/library\oid.c **** #endif
  29:C:/Users/lenovo/Desktop/liteos/Project2/BearPi_LiteOS/components/security/mbedtls/mbedtls-2.6.0/library\oid.c **** 
  30:C:/Users/lenovo/Desktop/liteos/Project2/BearPi_LiteOS/components/security/mbedtls/mbedtls-2.6.0/library\oid.c **** #if defined(MBEDTLS_OID_C)
  31:C:/Users/lenovo/Desktop/liteos/Project2/BearPi_LiteOS/components/security/mbedtls/mbedtls-2.6.0/library\oid.c **** 
  32:C:/Users/lenovo/Desktop/liteos/Project2/BearPi_LiteOS/components/security/mbedtls/mbedtls-2.6.0/library\oid.c **** #include "mbedtls/oid.h"
ARM GAS  c:\Users\lenovo\AppData\Local\Temp\ccM87uYj.s 			page 2


  33:C:/Users/lenovo/Desktop/liteos/Project2/BearPi_LiteOS/components/security/mbedtls/mbedtls-2.6.0/library\oid.c **** #include "mbedtls/rsa.h"
  34:C:/Users/lenovo/Desktop/liteos/Project2/BearPi_LiteOS/components/security/mbedtls/mbedtls-2.6.0/library\oid.c **** 
  35:C:/Users/lenovo/Desktop/liteos/Project2/BearPi_LiteOS/components/security/mbedtls/mbedtls-2.6.0/library\oid.c **** #include <stdio.h>
  36:C:/Users/lenovo/Desktop/liteos/Project2/BearPi_LiteOS/components/security/mbedtls/mbedtls-2.6.0/library\oid.c **** #include <string.h>
  37:C:/Users/lenovo/Desktop/liteos/Project2/BearPi_LiteOS/components/security/mbedtls/mbedtls-2.6.0/library\oid.c **** 
  38:C:/Users/lenovo/Desktop/liteos/Project2/BearPi_LiteOS/components/security/mbedtls/mbedtls-2.6.0/library\oid.c **** #if defined(MBEDTLS_PLATFORM_C)
  39:C:/Users/lenovo/Desktop/liteos/Project2/BearPi_LiteOS/components/security/mbedtls/mbedtls-2.6.0/library\oid.c **** #include "mbedtls/platform.h"
  40:C:/Users/lenovo/Desktop/liteos/Project2/BearPi_LiteOS/components/security/mbedtls/mbedtls-2.6.0/library\oid.c **** #else
  41:C:/Users/lenovo/Desktop/liteos/Project2/BearPi_LiteOS/components/security/mbedtls/mbedtls-2.6.0/library\oid.c **** #define mbedtls_snprintf snprintf
  42:C:/Users/lenovo/Desktop/liteos/Project2/BearPi_LiteOS/components/security/mbedtls/mbedtls-2.6.0/library\oid.c **** #endif
  43:C:/Users/lenovo/Desktop/liteos/Project2/BearPi_LiteOS/components/security/mbedtls/mbedtls-2.6.0/library\oid.c **** 
  44:C:/Users/lenovo/Desktop/liteos/Project2/BearPi_LiteOS/components/security/mbedtls/mbedtls-2.6.0/library\oid.c **** #if defined(MBEDTLS_X509_USE_C) || defined(MBEDTLS_X509_CREATE_C)
  45:C:/Users/lenovo/Desktop/liteos/Project2/BearPi_LiteOS/components/security/mbedtls/mbedtls-2.6.0/library\oid.c **** #include "mbedtls/x509.h"
  46:C:/Users/lenovo/Desktop/liteos/Project2/BearPi_LiteOS/components/security/mbedtls/mbedtls-2.6.0/library\oid.c **** #endif
  47:C:/Users/lenovo/Desktop/liteos/Project2/BearPi_LiteOS/components/security/mbedtls/mbedtls-2.6.0/library\oid.c **** 
  48:C:/Users/lenovo/Desktop/liteos/Project2/BearPi_LiteOS/components/security/mbedtls/mbedtls-2.6.0/library\oid.c **** /*
  49:C:/Users/lenovo/Desktop/liteos/Project2/BearPi_LiteOS/components/security/mbedtls/mbedtls-2.6.0/library\oid.c ****  * Macro to automatically add the size of #define'd OIDs
  50:C:/Users/lenovo/Desktop/liteos/Project2/BearPi_LiteOS/components/security/mbedtls/mbedtls-2.6.0/library\oid.c ****  */
  51:C:/Users/lenovo/Desktop/liteos/Project2/BearPi_LiteOS/components/security/mbedtls/mbedtls-2.6.0/library\oid.c **** #define ADD_LEN(s)      s, MBEDTLS_OID_SIZE(s)
  52:C:/Users/lenovo/Desktop/liteos/Project2/BearPi_LiteOS/components/security/mbedtls/mbedtls-2.6.0/library\oid.c **** 
  53:C:/Users/lenovo/Desktop/liteos/Project2/BearPi_LiteOS/components/security/mbedtls/mbedtls-2.6.0/library\oid.c **** /*
  54:C:/Users/lenovo/Desktop/liteos/Project2/BearPi_LiteOS/components/security/mbedtls/mbedtls-2.6.0/library\oid.c ****  * Macro to generate an internal function for oid_XXX_from_asn1() (used by
  55:C:/Users/lenovo/Desktop/liteos/Project2/BearPi_LiteOS/components/security/mbedtls/mbedtls-2.6.0/library\oid.c ****  * the other functions)
  56:C:/Users/lenovo/Desktop/liteos/Project2/BearPi_LiteOS/components/security/mbedtls/mbedtls-2.6.0/library\oid.c ****  */
  57:C:/Users/lenovo/Desktop/liteos/Project2/BearPi_LiteOS/components/security/mbedtls/mbedtls-2.6.0/library\oid.c **** #define FN_OID_TYPED_FROM_ASN1( TYPE_T, NAME, LIST )                        \
  58:C:/Users/lenovo/Desktop/liteos/Project2/BearPi_LiteOS/components/security/mbedtls/mbedtls-2.6.0/library\oid.c **** static const TYPE_T * oid_ ## NAME ## _from_asn1( const mbedtls_asn1_buf *oid )     \
  59:C:/Users/lenovo/Desktop/liteos/Project2/BearPi_LiteOS/components/security/mbedtls/mbedtls-2.6.0/library\oid.c **** {                                                                           \
  60:C:/Users/lenovo/Desktop/liteos/Project2/BearPi_LiteOS/components/security/mbedtls/mbedtls-2.6.0/library\oid.c ****     const TYPE_T *p = LIST;                                                 \
  61:C:/Users/lenovo/Desktop/liteos/Project2/BearPi_LiteOS/components/security/mbedtls/mbedtls-2.6.0/library\oid.c ****     const mbedtls_oid_descriptor_t *cur = (const mbedtls_oid_descriptor_t *) p;             \
  62:C:/Users/lenovo/Desktop/liteos/Project2/BearPi_LiteOS/components/security/mbedtls/mbedtls-2.6.0/library\oid.c ****     if( p == NULL || oid == NULL ) return( NULL );                          \
  63:C:/Users/lenovo/Desktop/liteos/Project2/BearPi_LiteOS/components/security/mbedtls/mbedtls-2.6.0/library\oid.c ****     while( cur->asn1 != NULL ) {                                            \
  64:C:/Users/lenovo/Desktop/liteos/Project2/BearPi_LiteOS/components/security/mbedtls/mbedtls-2.6.0/library\oid.c ****         if( cur->asn1_len == oid->len &&                                    \
  65:C:/Users/lenovo/Desktop/liteos/Project2/BearPi_LiteOS/components/security/mbedtls/mbedtls-2.6.0/library\oid.c ****             memcmp( cur->asn1, oid->p, oid->len ) == 0 ) {                  \
  66:C:/Users/lenovo/Desktop/liteos/Project2/BearPi_LiteOS/components/security/mbedtls/mbedtls-2.6.0/library\oid.c ****             return( p );                                                    \
  67:C:/Users/lenovo/Desktop/liteos/Project2/BearPi_LiteOS/components/security/mbedtls/mbedtls-2.6.0/library\oid.c ****         }                                                                   \
  68:C:/Users/lenovo/Desktop/liteos/Project2/BearPi_LiteOS/components/security/mbedtls/mbedtls-2.6.0/library\oid.c ****         p++;                                                                \
  69:C:/Users/lenovo/Desktop/liteos/Project2/BearPi_LiteOS/components/security/mbedtls/mbedtls-2.6.0/library\oid.c ****         cur = (const mbedtls_oid_descriptor_t *) p;                                 \
  70:C:/Users/lenovo/Desktop/liteos/Project2/BearPi_LiteOS/components/security/mbedtls/mbedtls-2.6.0/library\oid.c ****     }                                                                       \
  71:C:/Users/lenovo/Desktop/liteos/Project2/BearPi_LiteOS/components/security/mbedtls/mbedtls-2.6.0/library\oid.c ****     return( NULL );                                                         \
  72:C:/Users/lenovo/Desktop/liteos/Project2/BearPi_LiteOS/components/security/mbedtls/mbedtls-2.6.0/library\oid.c **** }
  73:C:/Users/lenovo/Desktop/liteos/Project2/BearPi_LiteOS/components/security/mbedtls/mbedtls-2.6.0/library\oid.c **** 
  74:C:/Users/lenovo/Desktop/liteos/Project2/BearPi_LiteOS/components/security/mbedtls/mbedtls-2.6.0/library\oid.c **** /*
  75:C:/Users/lenovo/Desktop/liteos/Project2/BearPi_LiteOS/components/security/mbedtls/mbedtls-2.6.0/library\oid.c ****  * Macro to generate a function for retrieving a single attribute from the
  76:C:/Users/lenovo/Desktop/liteos/Project2/BearPi_LiteOS/components/security/mbedtls/mbedtls-2.6.0/library\oid.c ****  * descriptor of an mbedtls_oid_descriptor_t wrapper.
  77:C:/Users/lenovo/Desktop/liteos/Project2/BearPi_LiteOS/components/security/mbedtls/mbedtls-2.6.0/library\oid.c ****  */
  78:C:/Users/lenovo/Desktop/liteos/Project2/BearPi_LiteOS/components/security/mbedtls/mbedtls-2.6.0/library\oid.c **** #define FN_OID_GET_DESCRIPTOR_ATTR1(FN_NAME, TYPE_T, TYPE_NAME, ATTR1_TYPE, ATTR1) \
  79:C:/Users/lenovo/Desktop/liteos/Project2/BearPi_LiteOS/components/security/mbedtls/mbedtls-2.6.0/library\oid.c **** int FN_NAME( const mbedtls_asn1_buf *oid, ATTR1_TYPE * ATTR1 )                  \
  80:C:/Users/lenovo/Desktop/liteos/Project2/BearPi_LiteOS/components/security/mbedtls/mbedtls-2.6.0/library\oid.c **** {                                                                       \
  81:C:/Users/lenovo/Desktop/liteos/Project2/BearPi_LiteOS/components/security/mbedtls/mbedtls-2.6.0/library\oid.c ****     const TYPE_T *data = oid_ ## TYPE_NAME ## _from_asn1( oid );        \
  82:C:/Users/lenovo/Desktop/liteos/Project2/BearPi_LiteOS/components/security/mbedtls/mbedtls-2.6.0/library\oid.c ****     if( data == NULL ) return( MBEDTLS_ERR_OID_NOT_FOUND );            \
  83:C:/Users/lenovo/Desktop/liteos/Project2/BearPi_LiteOS/components/security/mbedtls/mbedtls-2.6.0/library\oid.c ****     *ATTR1 = data->descriptor.ATTR1;                                    \
  84:C:/Users/lenovo/Desktop/liteos/Project2/BearPi_LiteOS/components/security/mbedtls/mbedtls-2.6.0/library\oid.c ****     return( 0 );                                                        \
  85:C:/Users/lenovo/Desktop/liteos/Project2/BearPi_LiteOS/components/security/mbedtls/mbedtls-2.6.0/library\oid.c **** }
  86:C:/Users/lenovo/Desktop/liteos/Project2/BearPi_LiteOS/components/security/mbedtls/mbedtls-2.6.0/library\oid.c **** 
  87:C:/Users/lenovo/Desktop/liteos/Project2/BearPi_LiteOS/components/security/mbedtls/mbedtls-2.6.0/library\oid.c **** /*
  88:C:/Users/lenovo/Desktop/liteos/Project2/BearPi_LiteOS/components/security/mbedtls/mbedtls-2.6.0/library\oid.c ****  * Macro to generate a function for retrieving a single attribute from an
  89:C:/Users/lenovo/Desktop/liteos/Project2/BearPi_LiteOS/components/security/mbedtls/mbedtls-2.6.0/library\oid.c ****  * mbedtls_oid_descriptor_t wrapper.
ARM GAS  c:\Users\lenovo\AppData\Local\Temp\ccM87uYj.s 			page 3


  90:C:/Users/lenovo/Desktop/liteos/Project2/BearPi_LiteOS/components/security/mbedtls/mbedtls-2.6.0/library\oid.c ****  */
  91:C:/Users/lenovo/Desktop/liteos/Project2/BearPi_LiteOS/components/security/mbedtls/mbedtls-2.6.0/library\oid.c **** #define FN_OID_GET_ATTR1(FN_NAME, TYPE_T, TYPE_NAME, ATTR1_TYPE, ATTR1) \
  92:C:/Users/lenovo/Desktop/liteos/Project2/BearPi_LiteOS/components/security/mbedtls/mbedtls-2.6.0/library\oid.c **** int FN_NAME( const mbedtls_asn1_buf *oid, ATTR1_TYPE * ATTR1 )                  \
  93:C:/Users/lenovo/Desktop/liteos/Project2/BearPi_LiteOS/components/security/mbedtls/mbedtls-2.6.0/library\oid.c **** {                                                                       \
  94:C:/Users/lenovo/Desktop/liteos/Project2/BearPi_LiteOS/components/security/mbedtls/mbedtls-2.6.0/library\oid.c ****     const TYPE_T *data = oid_ ## TYPE_NAME ## _from_asn1( oid );        \
  95:C:/Users/lenovo/Desktop/liteos/Project2/BearPi_LiteOS/components/security/mbedtls/mbedtls-2.6.0/library\oid.c ****     if( data == NULL ) return( MBEDTLS_ERR_OID_NOT_FOUND );            \
  96:C:/Users/lenovo/Desktop/liteos/Project2/BearPi_LiteOS/components/security/mbedtls/mbedtls-2.6.0/library\oid.c ****     *ATTR1 = data->ATTR1;                                               \
  97:C:/Users/lenovo/Desktop/liteos/Project2/BearPi_LiteOS/components/security/mbedtls/mbedtls-2.6.0/library\oid.c ****     return( 0 );                                                        \
  98:C:/Users/lenovo/Desktop/liteos/Project2/BearPi_LiteOS/components/security/mbedtls/mbedtls-2.6.0/library\oid.c **** }
  99:C:/Users/lenovo/Desktop/liteos/Project2/BearPi_LiteOS/components/security/mbedtls/mbedtls-2.6.0/library\oid.c **** 
 100:C:/Users/lenovo/Desktop/liteos/Project2/BearPi_LiteOS/components/security/mbedtls/mbedtls-2.6.0/library\oid.c **** /*
 101:C:/Users/lenovo/Desktop/liteos/Project2/BearPi_LiteOS/components/security/mbedtls/mbedtls-2.6.0/library\oid.c ****  * Macro to generate a function for retrieving two attributes from an
 102:C:/Users/lenovo/Desktop/liteos/Project2/BearPi_LiteOS/components/security/mbedtls/mbedtls-2.6.0/library\oid.c ****  * mbedtls_oid_descriptor_t wrapper.
 103:C:/Users/lenovo/Desktop/liteos/Project2/BearPi_LiteOS/components/security/mbedtls/mbedtls-2.6.0/library\oid.c ****  */
 104:C:/Users/lenovo/Desktop/liteos/Project2/BearPi_LiteOS/components/security/mbedtls/mbedtls-2.6.0/library\oid.c **** #define FN_OID_GET_ATTR2(FN_NAME, TYPE_T, TYPE_NAME, ATTR1_TYPE, ATTR1,     \
 105:C:/Users/lenovo/Desktop/liteos/Project2/BearPi_LiteOS/components/security/mbedtls/mbedtls-2.6.0/library\oid.c ****                          ATTR2_TYPE, ATTR2)                                 \
 106:C:/Users/lenovo/Desktop/liteos/Project2/BearPi_LiteOS/components/security/mbedtls/mbedtls-2.6.0/library\oid.c **** int FN_NAME( const mbedtls_asn1_buf *oid, ATTR1_TYPE * ATTR1, ATTR2_TYPE * ATTR2 )  \
 107:C:/Users/lenovo/Desktop/liteos/Project2/BearPi_LiteOS/components/security/mbedtls/mbedtls-2.6.0/library\oid.c **** {                                                                           \
 108:C:/Users/lenovo/Desktop/liteos/Project2/BearPi_LiteOS/components/security/mbedtls/mbedtls-2.6.0/library\oid.c ****     const TYPE_T *data = oid_ ## TYPE_NAME ## _from_asn1( oid );            \
 109:C:/Users/lenovo/Desktop/liteos/Project2/BearPi_LiteOS/components/security/mbedtls/mbedtls-2.6.0/library\oid.c ****     if( data == NULL ) return( MBEDTLS_ERR_OID_NOT_FOUND );                \
 110:C:/Users/lenovo/Desktop/liteos/Project2/BearPi_LiteOS/components/security/mbedtls/mbedtls-2.6.0/library\oid.c ****     *ATTR1 = data->ATTR1;                                                   \
 111:C:/Users/lenovo/Desktop/liteos/Project2/BearPi_LiteOS/components/security/mbedtls/mbedtls-2.6.0/library\oid.c ****     *ATTR2 = data->ATTR2;                                                   \
 112:C:/Users/lenovo/Desktop/liteos/Project2/BearPi_LiteOS/components/security/mbedtls/mbedtls-2.6.0/library\oid.c ****     return( 0 );                                                            \
 113:C:/Users/lenovo/Desktop/liteos/Project2/BearPi_LiteOS/components/security/mbedtls/mbedtls-2.6.0/library\oid.c **** }
 114:C:/Users/lenovo/Desktop/liteos/Project2/BearPi_LiteOS/components/security/mbedtls/mbedtls-2.6.0/library\oid.c **** 
 115:C:/Users/lenovo/Desktop/liteos/Project2/BearPi_LiteOS/components/security/mbedtls/mbedtls-2.6.0/library\oid.c **** /*
 116:C:/Users/lenovo/Desktop/liteos/Project2/BearPi_LiteOS/components/security/mbedtls/mbedtls-2.6.0/library\oid.c ****  * Macro to generate a function for retrieving the OID based on a single
 117:C:/Users/lenovo/Desktop/liteos/Project2/BearPi_LiteOS/components/security/mbedtls/mbedtls-2.6.0/library\oid.c ****  * attribute from a mbedtls_oid_descriptor_t wrapper.
 118:C:/Users/lenovo/Desktop/liteos/Project2/BearPi_LiteOS/components/security/mbedtls/mbedtls-2.6.0/library\oid.c ****  */
 119:C:/Users/lenovo/Desktop/liteos/Project2/BearPi_LiteOS/components/security/mbedtls/mbedtls-2.6.0/library\oid.c **** #define FN_OID_GET_OID_BY_ATTR1(FN_NAME, TYPE_T, LIST, ATTR1_TYPE, ATTR1)   \
 120:C:/Users/lenovo/Desktop/liteos/Project2/BearPi_LiteOS/components/security/mbedtls/mbedtls-2.6.0/library\oid.c **** int FN_NAME( ATTR1_TYPE ATTR1, const char **oid, size_t *olen )             \
 121:C:/Users/lenovo/Desktop/liteos/Project2/BearPi_LiteOS/components/security/mbedtls/mbedtls-2.6.0/library\oid.c **** {                                                                           \
 122:C:/Users/lenovo/Desktop/liteos/Project2/BearPi_LiteOS/components/security/mbedtls/mbedtls-2.6.0/library\oid.c ****     const TYPE_T *cur = LIST;                                               \
 123:C:/Users/lenovo/Desktop/liteos/Project2/BearPi_LiteOS/components/security/mbedtls/mbedtls-2.6.0/library\oid.c ****     while( cur->descriptor.asn1 != NULL ) {                                 \
 124:C:/Users/lenovo/Desktop/liteos/Project2/BearPi_LiteOS/components/security/mbedtls/mbedtls-2.6.0/library\oid.c ****         if( cur->ATTR1 == ATTR1 ) {                                         \
 125:C:/Users/lenovo/Desktop/liteos/Project2/BearPi_LiteOS/components/security/mbedtls/mbedtls-2.6.0/library\oid.c ****             *oid = cur->descriptor.asn1;                                    \
 126:C:/Users/lenovo/Desktop/liteos/Project2/BearPi_LiteOS/components/security/mbedtls/mbedtls-2.6.0/library\oid.c ****             *olen = cur->descriptor.asn1_len;                               \
 127:C:/Users/lenovo/Desktop/liteos/Project2/BearPi_LiteOS/components/security/mbedtls/mbedtls-2.6.0/library\oid.c ****             return( 0 );                                                    \
 128:C:/Users/lenovo/Desktop/liteos/Project2/BearPi_LiteOS/components/security/mbedtls/mbedtls-2.6.0/library\oid.c ****         }                                                                   \
 129:C:/Users/lenovo/Desktop/liteos/Project2/BearPi_LiteOS/components/security/mbedtls/mbedtls-2.6.0/library\oid.c ****         cur++;                                                              \
 130:C:/Users/lenovo/Desktop/liteos/Project2/BearPi_LiteOS/components/security/mbedtls/mbedtls-2.6.0/library\oid.c ****     }                                                                       \
 131:C:/Users/lenovo/Desktop/liteos/Project2/BearPi_LiteOS/components/security/mbedtls/mbedtls-2.6.0/library\oid.c ****     return( MBEDTLS_ERR_OID_NOT_FOUND );                                   \
 132:C:/Users/lenovo/Desktop/liteos/Project2/BearPi_LiteOS/components/security/mbedtls/mbedtls-2.6.0/library\oid.c **** }
 133:C:/Users/lenovo/Desktop/liteos/Project2/BearPi_LiteOS/components/security/mbedtls/mbedtls-2.6.0/library\oid.c **** 
 134:C:/Users/lenovo/Desktop/liteos/Project2/BearPi_LiteOS/components/security/mbedtls/mbedtls-2.6.0/library\oid.c **** /*
 135:C:/Users/lenovo/Desktop/liteos/Project2/BearPi_LiteOS/components/security/mbedtls/mbedtls-2.6.0/library\oid.c ****  * Macro to generate a function for retrieving the OID based on two
 136:C:/Users/lenovo/Desktop/liteos/Project2/BearPi_LiteOS/components/security/mbedtls/mbedtls-2.6.0/library\oid.c ****  * attributes from a mbedtls_oid_descriptor_t wrapper.
 137:C:/Users/lenovo/Desktop/liteos/Project2/BearPi_LiteOS/components/security/mbedtls/mbedtls-2.6.0/library\oid.c ****  */
 138:C:/Users/lenovo/Desktop/liteos/Project2/BearPi_LiteOS/components/security/mbedtls/mbedtls-2.6.0/library\oid.c **** #define FN_OID_GET_OID_BY_ATTR2(FN_NAME, TYPE_T, LIST, ATTR1_TYPE, ATTR1,   \
 139:C:/Users/lenovo/Desktop/liteos/Project2/BearPi_LiteOS/components/security/mbedtls/mbedtls-2.6.0/library\oid.c ****                                 ATTR2_TYPE, ATTR2)                          \
 140:C:/Users/lenovo/Desktop/liteos/Project2/BearPi_LiteOS/components/security/mbedtls/mbedtls-2.6.0/library\oid.c **** int FN_NAME( ATTR1_TYPE ATTR1, ATTR2_TYPE ATTR2, const char **oid ,         \
 141:C:/Users/lenovo/Desktop/liteos/Project2/BearPi_LiteOS/components/security/mbedtls/mbedtls-2.6.0/library\oid.c ****              size_t *olen )                                                 \
 142:C:/Users/lenovo/Desktop/liteos/Project2/BearPi_LiteOS/components/security/mbedtls/mbedtls-2.6.0/library\oid.c **** {                                                                           \
 143:C:/Users/lenovo/Desktop/liteos/Project2/BearPi_LiteOS/components/security/mbedtls/mbedtls-2.6.0/library\oid.c ****     const TYPE_T *cur = LIST;                                               \
 144:C:/Users/lenovo/Desktop/liteos/Project2/BearPi_LiteOS/components/security/mbedtls/mbedtls-2.6.0/library\oid.c ****     while( cur->descriptor.asn1 != NULL ) {                                 \
 145:C:/Users/lenovo/Desktop/liteos/Project2/BearPi_LiteOS/components/security/mbedtls/mbedtls-2.6.0/library\oid.c ****         if( cur->ATTR1 == ATTR1 && cur->ATTR2 == ATTR2 ) {                  \
 146:C:/Users/lenovo/Desktop/liteos/Project2/BearPi_LiteOS/components/security/mbedtls/mbedtls-2.6.0/library\oid.c ****             *oid = cur->descriptor.asn1;                                    \
ARM GAS  c:\Users\lenovo\AppData\Local\Temp\ccM87uYj.s 			page 4


 147:C:/Users/lenovo/Desktop/liteos/Project2/BearPi_LiteOS/components/security/mbedtls/mbedtls-2.6.0/library\oid.c ****             *olen = cur->descriptor.asn1_len;                               \
 148:C:/Users/lenovo/Desktop/liteos/Project2/BearPi_LiteOS/components/security/mbedtls/mbedtls-2.6.0/library\oid.c ****             return( 0 );                                                    \
 149:C:/Users/lenovo/Desktop/liteos/Project2/BearPi_LiteOS/components/security/mbedtls/mbedtls-2.6.0/library\oid.c ****         }                                                                   \
 150:C:/Users/lenovo/Desktop/liteos/Project2/BearPi_LiteOS/components/security/mbedtls/mbedtls-2.6.0/library\oid.c ****         cur++;                                                              \
 151:C:/Users/lenovo/Desktop/liteos/Project2/BearPi_LiteOS/components/security/mbedtls/mbedtls-2.6.0/library\oid.c ****     }                                                                       \
 152:C:/Users/lenovo/Desktop/liteos/Project2/BearPi_LiteOS/components/security/mbedtls/mbedtls-2.6.0/library\oid.c ****     return( MBEDTLS_ERR_OID_NOT_FOUND );                                   \
 153:C:/Users/lenovo/Desktop/liteos/Project2/BearPi_LiteOS/components/security/mbedtls/mbedtls-2.6.0/library\oid.c **** }
 154:C:/Users/lenovo/Desktop/liteos/Project2/BearPi_LiteOS/components/security/mbedtls/mbedtls-2.6.0/library\oid.c **** 
 155:C:/Users/lenovo/Desktop/liteos/Project2/BearPi_LiteOS/components/security/mbedtls/mbedtls-2.6.0/library\oid.c **** #if defined(MBEDTLS_X509_USE_C) || defined(MBEDTLS_X509_CREATE_C)
 156:C:/Users/lenovo/Desktop/liteos/Project2/BearPi_LiteOS/components/security/mbedtls/mbedtls-2.6.0/library\oid.c **** /*
 157:C:/Users/lenovo/Desktop/liteos/Project2/BearPi_LiteOS/components/security/mbedtls/mbedtls-2.6.0/library\oid.c ****  * For X520 attribute types
 158:C:/Users/lenovo/Desktop/liteos/Project2/BearPi_LiteOS/components/security/mbedtls/mbedtls-2.6.0/library\oid.c ****  */
 159:C:/Users/lenovo/Desktop/liteos/Project2/BearPi_LiteOS/components/security/mbedtls/mbedtls-2.6.0/library\oid.c **** typedef struct {
 160:C:/Users/lenovo/Desktop/liteos/Project2/BearPi_LiteOS/components/security/mbedtls/mbedtls-2.6.0/library\oid.c ****     mbedtls_oid_descriptor_t    descriptor;
 161:C:/Users/lenovo/Desktop/liteos/Project2/BearPi_LiteOS/components/security/mbedtls/mbedtls-2.6.0/library\oid.c ****     const char          *short_name;
 162:C:/Users/lenovo/Desktop/liteos/Project2/BearPi_LiteOS/components/security/mbedtls/mbedtls-2.6.0/library\oid.c **** } oid_x520_attr_t;
 163:C:/Users/lenovo/Desktop/liteos/Project2/BearPi_LiteOS/components/security/mbedtls/mbedtls-2.6.0/library\oid.c **** 
 164:C:/Users/lenovo/Desktop/liteos/Project2/BearPi_LiteOS/components/security/mbedtls/mbedtls-2.6.0/library\oid.c **** static const oid_x520_attr_t oid_x520_attr_type[] =
 165:C:/Users/lenovo/Desktop/liteos/Project2/BearPi_LiteOS/components/security/mbedtls/mbedtls-2.6.0/library\oid.c **** {
 166:C:/Users/lenovo/Desktop/liteos/Project2/BearPi_LiteOS/components/security/mbedtls/mbedtls-2.6.0/library\oid.c ****     {
 167:C:/Users/lenovo/Desktop/liteos/Project2/BearPi_LiteOS/components/security/mbedtls/mbedtls-2.6.0/library\oid.c ****         { ADD_LEN( MBEDTLS_OID_AT_CN ),          "id-at-commonName",               "Common Name" },
 168:C:/Users/lenovo/Desktop/liteos/Project2/BearPi_LiteOS/components/security/mbedtls/mbedtls-2.6.0/library\oid.c ****         "CN",
 169:C:/Users/lenovo/Desktop/liteos/Project2/BearPi_LiteOS/components/security/mbedtls/mbedtls-2.6.0/library\oid.c ****     },
 170:C:/Users/lenovo/Desktop/liteos/Project2/BearPi_LiteOS/components/security/mbedtls/mbedtls-2.6.0/library\oid.c ****     {
 171:C:/Users/lenovo/Desktop/liteos/Project2/BearPi_LiteOS/components/security/mbedtls/mbedtls-2.6.0/library\oid.c ****         { ADD_LEN( MBEDTLS_OID_AT_COUNTRY ),     "id-at-countryName",              "Country" },
 172:C:/Users/lenovo/Desktop/liteos/Project2/BearPi_LiteOS/components/security/mbedtls/mbedtls-2.6.0/library\oid.c ****         "C",
 173:C:/Users/lenovo/Desktop/liteos/Project2/BearPi_LiteOS/components/security/mbedtls/mbedtls-2.6.0/library\oid.c ****     },
 174:C:/Users/lenovo/Desktop/liteos/Project2/BearPi_LiteOS/components/security/mbedtls/mbedtls-2.6.0/library\oid.c ****     {
 175:C:/Users/lenovo/Desktop/liteos/Project2/BearPi_LiteOS/components/security/mbedtls/mbedtls-2.6.0/library\oid.c ****         { ADD_LEN( MBEDTLS_OID_AT_LOCALITY ),    "id-at-locality",                 "Locality" },
 176:C:/Users/lenovo/Desktop/liteos/Project2/BearPi_LiteOS/components/security/mbedtls/mbedtls-2.6.0/library\oid.c ****         "L",
 177:C:/Users/lenovo/Desktop/liteos/Project2/BearPi_LiteOS/components/security/mbedtls/mbedtls-2.6.0/library\oid.c ****     },
 178:C:/Users/lenovo/Desktop/liteos/Project2/BearPi_LiteOS/components/security/mbedtls/mbedtls-2.6.0/library\oid.c ****     {
 179:C:/Users/lenovo/Desktop/liteos/Project2/BearPi_LiteOS/components/security/mbedtls/mbedtls-2.6.0/library\oid.c ****         { ADD_LEN( MBEDTLS_OID_AT_STATE ),       "id-at-state",                    "State" },
 180:C:/Users/lenovo/Desktop/liteos/Project2/BearPi_LiteOS/components/security/mbedtls/mbedtls-2.6.0/library\oid.c ****         "ST",
 181:C:/Users/lenovo/Desktop/liteos/Project2/BearPi_LiteOS/components/security/mbedtls/mbedtls-2.6.0/library\oid.c ****     },
 182:C:/Users/lenovo/Desktop/liteos/Project2/BearPi_LiteOS/components/security/mbedtls/mbedtls-2.6.0/library\oid.c ****     {
 183:C:/Users/lenovo/Desktop/liteos/Project2/BearPi_LiteOS/components/security/mbedtls/mbedtls-2.6.0/library\oid.c ****         { ADD_LEN( MBEDTLS_OID_AT_ORGANIZATION ),"id-at-organizationName",         "Organization" }
 184:C:/Users/lenovo/Desktop/liteos/Project2/BearPi_LiteOS/components/security/mbedtls/mbedtls-2.6.0/library\oid.c ****         "O",
 185:C:/Users/lenovo/Desktop/liteos/Project2/BearPi_LiteOS/components/security/mbedtls/mbedtls-2.6.0/library\oid.c ****     },
 186:C:/Users/lenovo/Desktop/liteos/Project2/BearPi_LiteOS/components/security/mbedtls/mbedtls-2.6.0/library\oid.c ****     {
 187:C:/Users/lenovo/Desktop/liteos/Project2/BearPi_LiteOS/components/security/mbedtls/mbedtls-2.6.0/library\oid.c ****         { ADD_LEN( MBEDTLS_OID_AT_ORG_UNIT ),    "id-at-organizationalUnitName",   "Org Unit" },
 188:C:/Users/lenovo/Desktop/liteos/Project2/BearPi_LiteOS/components/security/mbedtls/mbedtls-2.6.0/library\oid.c ****         "OU",
 189:C:/Users/lenovo/Desktop/liteos/Project2/BearPi_LiteOS/components/security/mbedtls/mbedtls-2.6.0/library\oid.c ****     },
 190:C:/Users/lenovo/Desktop/liteos/Project2/BearPi_LiteOS/components/security/mbedtls/mbedtls-2.6.0/library\oid.c ****     {
 191:C:/Users/lenovo/Desktop/liteos/Project2/BearPi_LiteOS/components/security/mbedtls/mbedtls-2.6.0/library\oid.c ****         { ADD_LEN( MBEDTLS_OID_PKCS9_EMAIL ),    "emailAddress",                   "E-mail address"
 192:C:/Users/lenovo/Desktop/liteos/Project2/BearPi_LiteOS/components/security/mbedtls/mbedtls-2.6.0/library\oid.c ****         "emailAddress",
 193:C:/Users/lenovo/Desktop/liteos/Project2/BearPi_LiteOS/components/security/mbedtls/mbedtls-2.6.0/library\oid.c ****     },
 194:C:/Users/lenovo/Desktop/liteos/Project2/BearPi_LiteOS/components/security/mbedtls/mbedtls-2.6.0/library\oid.c ****     {
 195:C:/Users/lenovo/Desktop/liteos/Project2/BearPi_LiteOS/components/security/mbedtls/mbedtls-2.6.0/library\oid.c ****         { ADD_LEN( MBEDTLS_OID_AT_SERIAL_NUMBER ),"id-at-serialNumber",            "Serial number" 
 196:C:/Users/lenovo/Desktop/liteos/Project2/BearPi_LiteOS/components/security/mbedtls/mbedtls-2.6.0/library\oid.c ****         "serialNumber",
 197:C:/Users/lenovo/Desktop/liteos/Project2/BearPi_LiteOS/components/security/mbedtls/mbedtls-2.6.0/library\oid.c ****     },
 198:C:/Users/lenovo/Desktop/liteos/Project2/BearPi_LiteOS/components/security/mbedtls/mbedtls-2.6.0/library\oid.c ****     {
 199:C:/Users/lenovo/Desktop/liteos/Project2/BearPi_LiteOS/components/security/mbedtls/mbedtls-2.6.0/library\oid.c ****         { ADD_LEN( MBEDTLS_OID_AT_POSTAL_ADDRESS ),"id-at-postalAddress",          "Postal address"
 200:C:/Users/lenovo/Desktop/liteos/Project2/BearPi_LiteOS/components/security/mbedtls/mbedtls-2.6.0/library\oid.c ****         "postalAddress",
 201:C:/Users/lenovo/Desktop/liteos/Project2/BearPi_LiteOS/components/security/mbedtls/mbedtls-2.6.0/library\oid.c ****     },
 202:C:/Users/lenovo/Desktop/liteos/Project2/BearPi_LiteOS/components/security/mbedtls/mbedtls-2.6.0/library\oid.c ****     {
 203:C:/Users/lenovo/Desktop/liteos/Project2/BearPi_LiteOS/components/security/mbedtls/mbedtls-2.6.0/library\oid.c ****         { ADD_LEN( MBEDTLS_OID_AT_POSTAL_CODE ), "id-at-postalCode",               "Postal code" },
ARM GAS  c:\Users\lenovo\AppData\Local\Temp\ccM87uYj.s 			page 5


 204:C:/Users/lenovo/Desktop/liteos/Project2/BearPi_LiteOS/components/security/mbedtls/mbedtls-2.6.0/library\oid.c ****         "postalCode",
 205:C:/Users/lenovo/Desktop/liteos/Project2/BearPi_LiteOS/components/security/mbedtls/mbedtls-2.6.0/library\oid.c ****     },
 206:C:/Users/lenovo/Desktop/liteos/Project2/BearPi_LiteOS/components/security/mbedtls/mbedtls-2.6.0/library\oid.c ****     {
 207:C:/Users/lenovo/Desktop/liteos/Project2/BearPi_LiteOS/components/security/mbedtls/mbedtls-2.6.0/library\oid.c ****         { ADD_LEN( MBEDTLS_OID_AT_SUR_NAME ),    "id-at-surName",                  "Surname" },
 208:C:/Users/lenovo/Desktop/liteos/Project2/BearPi_LiteOS/components/security/mbedtls/mbedtls-2.6.0/library\oid.c ****         "SN",
 209:C:/Users/lenovo/Desktop/liteos/Project2/BearPi_LiteOS/components/security/mbedtls/mbedtls-2.6.0/library\oid.c ****     },
 210:C:/Users/lenovo/Desktop/liteos/Project2/BearPi_LiteOS/components/security/mbedtls/mbedtls-2.6.0/library\oid.c ****     {
 211:C:/Users/lenovo/Desktop/liteos/Project2/BearPi_LiteOS/components/security/mbedtls/mbedtls-2.6.0/library\oid.c ****         { ADD_LEN( MBEDTLS_OID_AT_GIVEN_NAME ),  "id-at-givenName",                "Given name" },
 212:C:/Users/lenovo/Desktop/liteos/Project2/BearPi_LiteOS/components/security/mbedtls/mbedtls-2.6.0/library\oid.c ****         "GN",
 213:C:/Users/lenovo/Desktop/liteos/Project2/BearPi_LiteOS/components/security/mbedtls/mbedtls-2.6.0/library\oid.c ****     },
 214:C:/Users/lenovo/Desktop/liteos/Project2/BearPi_LiteOS/components/security/mbedtls/mbedtls-2.6.0/library\oid.c ****     {
 215:C:/Users/lenovo/Desktop/liteos/Project2/BearPi_LiteOS/components/security/mbedtls/mbedtls-2.6.0/library\oid.c ****         { ADD_LEN( MBEDTLS_OID_AT_INITIALS ),    "id-at-initials",                 "Initials" },
 216:C:/Users/lenovo/Desktop/liteos/Project2/BearPi_LiteOS/components/security/mbedtls/mbedtls-2.6.0/library\oid.c ****         "initials",
 217:C:/Users/lenovo/Desktop/liteos/Project2/BearPi_LiteOS/components/security/mbedtls/mbedtls-2.6.0/library\oid.c ****     },
 218:C:/Users/lenovo/Desktop/liteos/Project2/BearPi_LiteOS/components/security/mbedtls/mbedtls-2.6.0/library\oid.c ****     {
 219:C:/Users/lenovo/Desktop/liteos/Project2/BearPi_LiteOS/components/security/mbedtls/mbedtls-2.6.0/library\oid.c ****         { ADD_LEN( MBEDTLS_OID_AT_GENERATION_QUALIFIER ), "id-at-generationQualifier", "Generation 
 220:C:/Users/lenovo/Desktop/liteos/Project2/BearPi_LiteOS/components/security/mbedtls/mbedtls-2.6.0/library\oid.c ****         "generationQualifier",
 221:C:/Users/lenovo/Desktop/liteos/Project2/BearPi_LiteOS/components/security/mbedtls/mbedtls-2.6.0/library\oid.c ****     },
 222:C:/Users/lenovo/Desktop/liteos/Project2/BearPi_LiteOS/components/security/mbedtls/mbedtls-2.6.0/library\oid.c ****     {
 223:C:/Users/lenovo/Desktop/liteos/Project2/BearPi_LiteOS/components/security/mbedtls/mbedtls-2.6.0/library\oid.c ****         { ADD_LEN( MBEDTLS_OID_AT_TITLE ),       "id-at-title",                    "Title" },
 224:C:/Users/lenovo/Desktop/liteos/Project2/BearPi_LiteOS/components/security/mbedtls/mbedtls-2.6.0/library\oid.c ****         "title",
 225:C:/Users/lenovo/Desktop/liteos/Project2/BearPi_LiteOS/components/security/mbedtls/mbedtls-2.6.0/library\oid.c ****     },
 226:C:/Users/lenovo/Desktop/liteos/Project2/BearPi_LiteOS/components/security/mbedtls/mbedtls-2.6.0/library\oid.c ****     {
 227:C:/Users/lenovo/Desktop/liteos/Project2/BearPi_LiteOS/components/security/mbedtls/mbedtls-2.6.0/library\oid.c ****         { ADD_LEN( MBEDTLS_OID_AT_DN_QUALIFIER ),"id-at-dnQualifier",              "Distinguished N
 228:C:/Users/lenovo/Desktop/liteos/Project2/BearPi_LiteOS/components/security/mbedtls/mbedtls-2.6.0/library\oid.c ****         "dnQualifier",
 229:C:/Users/lenovo/Desktop/liteos/Project2/BearPi_LiteOS/components/security/mbedtls/mbedtls-2.6.0/library\oid.c ****     },
 230:C:/Users/lenovo/Desktop/liteos/Project2/BearPi_LiteOS/components/security/mbedtls/mbedtls-2.6.0/library\oid.c ****     {
 231:C:/Users/lenovo/Desktop/liteos/Project2/BearPi_LiteOS/components/security/mbedtls/mbedtls-2.6.0/library\oid.c ****         { ADD_LEN( MBEDTLS_OID_AT_PSEUDONYM ),   "id-at-pseudonym",                "Pseudonym" },
 232:C:/Users/lenovo/Desktop/liteos/Project2/BearPi_LiteOS/components/security/mbedtls/mbedtls-2.6.0/library\oid.c ****         "pseudonym",
 233:C:/Users/lenovo/Desktop/liteos/Project2/BearPi_LiteOS/components/security/mbedtls/mbedtls-2.6.0/library\oid.c ****     },
 234:C:/Users/lenovo/Desktop/liteos/Project2/BearPi_LiteOS/components/security/mbedtls/mbedtls-2.6.0/library\oid.c ****     {
 235:C:/Users/lenovo/Desktop/liteos/Project2/BearPi_LiteOS/components/security/mbedtls/mbedtls-2.6.0/library\oid.c ****         { ADD_LEN( MBEDTLS_OID_DOMAIN_COMPONENT ), "id-domainComponent",           "Domain componen
 236:C:/Users/lenovo/Desktop/liteos/Project2/BearPi_LiteOS/components/security/mbedtls/mbedtls-2.6.0/library\oid.c ****         "DC",
 237:C:/Users/lenovo/Desktop/liteos/Project2/BearPi_LiteOS/components/security/mbedtls/mbedtls-2.6.0/library\oid.c ****     },
 238:C:/Users/lenovo/Desktop/liteos/Project2/BearPi_LiteOS/components/security/mbedtls/mbedtls-2.6.0/library\oid.c ****     {
 239:C:/Users/lenovo/Desktop/liteos/Project2/BearPi_LiteOS/components/security/mbedtls/mbedtls-2.6.0/library\oid.c ****         { ADD_LEN( MBEDTLS_OID_AT_UNIQUE_IDENTIFIER ), "id-at-uniqueIdentifier",    "Unique Identif
 240:C:/Users/lenovo/Desktop/liteos/Project2/BearPi_LiteOS/components/security/mbedtls/mbedtls-2.6.0/library\oid.c ****         "uniqueIdentifier",
 241:C:/Users/lenovo/Desktop/liteos/Project2/BearPi_LiteOS/components/security/mbedtls/mbedtls-2.6.0/library\oid.c ****     },
 242:C:/Users/lenovo/Desktop/liteos/Project2/BearPi_LiteOS/components/security/mbedtls/mbedtls-2.6.0/library\oid.c ****     {
 243:C:/Users/lenovo/Desktop/liteos/Project2/BearPi_LiteOS/components/security/mbedtls/mbedtls-2.6.0/library\oid.c ****         { NULL, 0, NULL, NULL },
 244:C:/Users/lenovo/Desktop/liteos/Project2/BearPi_LiteOS/components/security/mbedtls/mbedtls-2.6.0/library\oid.c ****         NULL,
 245:C:/Users/lenovo/Desktop/liteos/Project2/BearPi_LiteOS/components/security/mbedtls/mbedtls-2.6.0/library\oid.c ****     }
 246:C:/Users/lenovo/Desktop/liteos/Project2/BearPi_LiteOS/components/security/mbedtls/mbedtls-2.6.0/library\oid.c **** };
 247:C:/Users/lenovo/Desktop/liteos/Project2/BearPi_LiteOS/components/security/mbedtls/mbedtls-2.6.0/library\oid.c **** 
 248:C:/Users/lenovo/Desktop/liteos/Project2/BearPi_LiteOS/components/security/mbedtls/mbedtls-2.6.0/library\oid.c **** FN_OID_TYPED_FROM_ASN1(oid_x520_attr_t, x520_attr, oid_x520_attr_type)
 249:C:/Users/lenovo/Desktop/liteos/Project2/BearPi_LiteOS/components/security/mbedtls/mbedtls-2.6.0/library\oid.c **** FN_OID_GET_ATTR1(mbedtls_oid_get_attr_short_name, oid_x520_attr_t, x520_attr, const char *, short_n
 250:C:/Users/lenovo/Desktop/liteos/Project2/BearPi_LiteOS/components/security/mbedtls/mbedtls-2.6.0/library\oid.c **** 
 251:C:/Users/lenovo/Desktop/liteos/Project2/BearPi_LiteOS/components/security/mbedtls/mbedtls-2.6.0/library\oid.c **** /*
 252:C:/Users/lenovo/Desktop/liteos/Project2/BearPi_LiteOS/components/security/mbedtls/mbedtls-2.6.0/library\oid.c ****  * For X509 extensions
 253:C:/Users/lenovo/Desktop/liteos/Project2/BearPi_LiteOS/components/security/mbedtls/mbedtls-2.6.0/library\oid.c ****  */
 254:C:/Users/lenovo/Desktop/liteos/Project2/BearPi_LiteOS/components/security/mbedtls/mbedtls-2.6.0/library\oid.c **** typedef struct {
 255:C:/Users/lenovo/Desktop/liteos/Project2/BearPi_LiteOS/components/security/mbedtls/mbedtls-2.6.0/library\oid.c ****     mbedtls_oid_descriptor_t    descriptor;
 256:C:/Users/lenovo/Desktop/liteos/Project2/BearPi_LiteOS/components/security/mbedtls/mbedtls-2.6.0/library\oid.c ****     int                 ext_type;
 257:C:/Users/lenovo/Desktop/liteos/Project2/BearPi_LiteOS/components/security/mbedtls/mbedtls-2.6.0/library\oid.c **** } oid_x509_ext_t;
 258:C:/Users/lenovo/Desktop/liteos/Project2/BearPi_LiteOS/components/security/mbedtls/mbedtls-2.6.0/library\oid.c **** 
 259:C:/Users/lenovo/Desktop/liteos/Project2/BearPi_LiteOS/components/security/mbedtls/mbedtls-2.6.0/library\oid.c **** static const oid_x509_ext_t oid_x509_ext[] =
 260:C:/Users/lenovo/Desktop/liteos/Project2/BearPi_LiteOS/components/security/mbedtls/mbedtls-2.6.0/library\oid.c **** {
ARM GAS  c:\Users\lenovo\AppData\Local\Temp\ccM87uYj.s 			page 6


 261:C:/Users/lenovo/Desktop/liteos/Project2/BearPi_LiteOS/components/security/mbedtls/mbedtls-2.6.0/library\oid.c ****     {
 262:C:/Users/lenovo/Desktop/liteos/Project2/BearPi_LiteOS/components/security/mbedtls/mbedtls-2.6.0/library\oid.c ****         { ADD_LEN( MBEDTLS_OID_BASIC_CONSTRAINTS ),    "id-ce-basicConstraints",   "Basic Constrain
 263:C:/Users/lenovo/Desktop/liteos/Project2/BearPi_LiteOS/components/security/mbedtls/mbedtls-2.6.0/library\oid.c ****         MBEDTLS_X509_EXT_BASIC_CONSTRAINTS,
 264:C:/Users/lenovo/Desktop/liteos/Project2/BearPi_LiteOS/components/security/mbedtls/mbedtls-2.6.0/library\oid.c ****     },
 265:C:/Users/lenovo/Desktop/liteos/Project2/BearPi_LiteOS/components/security/mbedtls/mbedtls-2.6.0/library\oid.c ****     {
 266:C:/Users/lenovo/Desktop/liteos/Project2/BearPi_LiteOS/components/security/mbedtls/mbedtls-2.6.0/library\oid.c ****         { ADD_LEN( MBEDTLS_OID_KEY_USAGE ),            "id-ce-keyUsage",           "Key Usage" },
 267:C:/Users/lenovo/Desktop/liteos/Project2/BearPi_LiteOS/components/security/mbedtls/mbedtls-2.6.0/library\oid.c ****         MBEDTLS_X509_EXT_KEY_USAGE,
 268:C:/Users/lenovo/Desktop/liteos/Project2/BearPi_LiteOS/components/security/mbedtls/mbedtls-2.6.0/library\oid.c ****     },
 269:C:/Users/lenovo/Desktop/liteos/Project2/BearPi_LiteOS/components/security/mbedtls/mbedtls-2.6.0/library\oid.c ****     {
 270:C:/Users/lenovo/Desktop/liteos/Project2/BearPi_LiteOS/components/security/mbedtls/mbedtls-2.6.0/library\oid.c ****         { ADD_LEN( MBEDTLS_OID_EXTENDED_KEY_USAGE ),   "id-ce-extKeyUsage",        "Extended Key Us
 271:C:/Users/lenovo/Desktop/liteos/Project2/BearPi_LiteOS/components/security/mbedtls/mbedtls-2.6.0/library\oid.c ****         MBEDTLS_X509_EXT_EXTENDED_KEY_USAGE,
 272:C:/Users/lenovo/Desktop/liteos/Project2/BearPi_LiteOS/components/security/mbedtls/mbedtls-2.6.0/library\oid.c ****     },
 273:C:/Users/lenovo/Desktop/liteos/Project2/BearPi_LiteOS/components/security/mbedtls/mbedtls-2.6.0/library\oid.c ****     {
 274:C:/Users/lenovo/Desktop/liteos/Project2/BearPi_LiteOS/components/security/mbedtls/mbedtls-2.6.0/library\oid.c ****         { ADD_LEN( MBEDTLS_OID_SUBJECT_ALT_NAME ),     "id-ce-subjectAltName",     "Subject Alt Nam
 275:C:/Users/lenovo/Desktop/liteos/Project2/BearPi_LiteOS/components/security/mbedtls/mbedtls-2.6.0/library\oid.c ****         MBEDTLS_X509_EXT_SUBJECT_ALT_NAME,
 276:C:/Users/lenovo/Desktop/liteos/Project2/BearPi_LiteOS/components/security/mbedtls/mbedtls-2.6.0/library\oid.c ****     },
 277:C:/Users/lenovo/Desktop/liteos/Project2/BearPi_LiteOS/components/security/mbedtls/mbedtls-2.6.0/library\oid.c ****     {
 278:C:/Users/lenovo/Desktop/liteos/Project2/BearPi_LiteOS/components/security/mbedtls/mbedtls-2.6.0/library\oid.c ****         { ADD_LEN( MBEDTLS_OID_NS_CERT_TYPE ),         "id-netscape-certtype",     "Netscape Certif
 279:C:/Users/lenovo/Desktop/liteos/Project2/BearPi_LiteOS/components/security/mbedtls/mbedtls-2.6.0/library\oid.c ****         MBEDTLS_X509_EXT_NS_CERT_TYPE,
 280:C:/Users/lenovo/Desktop/liteos/Project2/BearPi_LiteOS/components/security/mbedtls/mbedtls-2.6.0/library\oid.c ****     },
 281:C:/Users/lenovo/Desktop/liteos/Project2/BearPi_LiteOS/components/security/mbedtls/mbedtls-2.6.0/library\oid.c ****     {
 282:C:/Users/lenovo/Desktop/liteos/Project2/BearPi_LiteOS/components/security/mbedtls/mbedtls-2.6.0/library\oid.c ****         { NULL, 0, NULL, NULL },
 283:C:/Users/lenovo/Desktop/liteos/Project2/BearPi_LiteOS/components/security/mbedtls/mbedtls-2.6.0/library\oid.c ****         0,
 284:C:/Users/lenovo/Desktop/liteos/Project2/BearPi_LiteOS/components/security/mbedtls/mbedtls-2.6.0/library\oid.c ****     },
 285:C:/Users/lenovo/Desktop/liteos/Project2/BearPi_LiteOS/components/security/mbedtls/mbedtls-2.6.0/library\oid.c **** };
 286:C:/Users/lenovo/Desktop/liteos/Project2/BearPi_LiteOS/components/security/mbedtls/mbedtls-2.6.0/library\oid.c **** 
 287:C:/Users/lenovo/Desktop/liteos/Project2/BearPi_LiteOS/components/security/mbedtls/mbedtls-2.6.0/library\oid.c **** FN_OID_TYPED_FROM_ASN1(oid_x509_ext_t, x509_ext, oid_x509_ext)
 288:C:/Users/lenovo/Desktop/liteos/Project2/BearPi_LiteOS/components/security/mbedtls/mbedtls-2.6.0/library\oid.c **** FN_OID_GET_ATTR1(mbedtls_oid_get_x509_ext_type, oid_x509_ext_t, x509_ext, int, ext_type)
 289:C:/Users/lenovo/Desktop/liteos/Project2/BearPi_LiteOS/components/security/mbedtls/mbedtls-2.6.0/library\oid.c **** 
 290:C:/Users/lenovo/Desktop/liteos/Project2/BearPi_LiteOS/components/security/mbedtls/mbedtls-2.6.0/library\oid.c **** static const mbedtls_oid_descriptor_t oid_ext_key_usage[] =
 291:C:/Users/lenovo/Desktop/liteos/Project2/BearPi_LiteOS/components/security/mbedtls/mbedtls-2.6.0/library\oid.c **** {
 292:C:/Users/lenovo/Desktop/liteos/Project2/BearPi_LiteOS/components/security/mbedtls/mbedtls-2.6.0/library\oid.c ****     { ADD_LEN( MBEDTLS_OID_SERVER_AUTH ),      "id-kp-serverAuth",      "TLS Web Server Authenticat
 293:C:/Users/lenovo/Desktop/liteos/Project2/BearPi_LiteOS/components/security/mbedtls/mbedtls-2.6.0/library\oid.c ****     { ADD_LEN( MBEDTLS_OID_CLIENT_AUTH ),      "id-kp-clientAuth",      "TLS Web Client Authenticat
 294:C:/Users/lenovo/Desktop/liteos/Project2/BearPi_LiteOS/components/security/mbedtls/mbedtls-2.6.0/library\oid.c ****     { ADD_LEN( MBEDTLS_OID_CODE_SIGNING ),     "id-kp-codeSigning",     "Code Signing" },
 295:C:/Users/lenovo/Desktop/liteos/Project2/BearPi_LiteOS/components/security/mbedtls/mbedtls-2.6.0/library\oid.c ****     { ADD_LEN( MBEDTLS_OID_EMAIL_PROTECTION ), "id-kp-emailProtection", "E-mail Protection" },
 296:C:/Users/lenovo/Desktop/liteos/Project2/BearPi_LiteOS/components/security/mbedtls/mbedtls-2.6.0/library\oid.c ****     { ADD_LEN( MBEDTLS_OID_TIME_STAMPING ),    "id-kp-timeStamping",    "Time Stamping" },
 297:C:/Users/lenovo/Desktop/liteos/Project2/BearPi_LiteOS/components/security/mbedtls/mbedtls-2.6.0/library\oid.c ****     { ADD_LEN( MBEDTLS_OID_OCSP_SIGNING ),     "id-kp-OCSPSigning",     "OCSP Signing" },
 298:C:/Users/lenovo/Desktop/liteos/Project2/BearPi_LiteOS/components/security/mbedtls/mbedtls-2.6.0/library\oid.c ****     { NULL, 0, NULL, NULL },
 299:C:/Users/lenovo/Desktop/liteos/Project2/BearPi_LiteOS/components/security/mbedtls/mbedtls-2.6.0/library\oid.c **** };
 300:C:/Users/lenovo/Desktop/liteos/Project2/BearPi_LiteOS/components/security/mbedtls/mbedtls-2.6.0/library\oid.c **** 
 301:C:/Users/lenovo/Desktop/liteos/Project2/BearPi_LiteOS/components/security/mbedtls/mbedtls-2.6.0/library\oid.c **** FN_OID_TYPED_FROM_ASN1(mbedtls_oid_descriptor_t, ext_key_usage, oid_ext_key_usage)
 302:C:/Users/lenovo/Desktop/liteos/Project2/BearPi_LiteOS/components/security/mbedtls/mbedtls-2.6.0/library\oid.c **** FN_OID_GET_ATTR1(mbedtls_oid_get_extended_key_usage, mbedtls_oid_descriptor_t, ext_key_usage, const
 303:C:/Users/lenovo/Desktop/liteos/Project2/BearPi_LiteOS/components/security/mbedtls/mbedtls-2.6.0/library\oid.c **** #endif /* MBEDTLS_X509_USE_C || MBEDTLS_X509_CREATE_C */
 304:C:/Users/lenovo/Desktop/liteos/Project2/BearPi_LiteOS/components/security/mbedtls/mbedtls-2.6.0/library\oid.c **** 
 305:C:/Users/lenovo/Desktop/liteos/Project2/BearPi_LiteOS/components/security/mbedtls/mbedtls-2.6.0/library\oid.c **** #if defined(MBEDTLS_MD_C)
 306:C:/Users/lenovo/Desktop/liteos/Project2/BearPi_LiteOS/components/security/mbedtls/mbedtls-2.6.0/library\oid.c **** /*
 307:C:/Users/lenovo/Desktop/liteos/Project2/BearPi_LiteOS/components/security/mbedtls/mbedtls-2.6.0/library\oid.c ****  * For SignatureAlgorithmIdentifier
 308:C:/Users/lenovo/Desktop/liteos/Project2/BearPi_LiteOS/components/security/mbedtls/mbedtls-2.6.0/library\oid.c ****  */
 309:C:/Users/lenovo/Desktop/liteos/Project2/BearPi_LiteOS/components/security/mbedtls/mbedtls-2.6.0/library\oid.c **** typedef struct {
 310:C:/Users/lenovo/Desktop/liteos/Project2/BearPi_LiteOS/components/security/mbedtls/mbedtls-2.6.0/library\oid.c ****     mbedtls_oid_descriptor_t    descriptor;
 311:C:/Users/lenovo/Desktop/liteos/Project2/BearPi_LiteOS/components/security/mbedtls/mbedtls-2.6.0/library\oid.c ****     mbedtls_md_type_t           md_alg;
 312:C:/Users/lenovo/Desktop/liteos/Project2/BearPi_LiteOS/components/security/mbedtls/mbedtls-2.6.0/library\oid.c ****     mbedtls_pk_type_t           pk_alg;
 313:C:/Users/lenovo/Desktop/liteos/Project2/BearPi_LiteOS/components/security/mbedtls/mbedtls-2.6.0/library\oid.c **** } oid_sig_alg_t;
 314:C:/Users/lenovo/Desktop/liteos/Project2/BearPi_LiteOS/components/security/mbedtls/mbedtls-2.6.0/library\oid.c **** 
 315:C:/Users/lenovo/Desktop/liteos/Project2/BearPi_LiteOS/components/security/mbedtls/mbedtls-2.6.0/library\oid.c **** static const oid_sig_alg_t oid_sig_alg[] =
 316:C:/Users/lenovo/Desktop/liteos/Project2/BearPi_LiteOS/components/security/mbedtls/mbedtls-2.6.0/library\oid.c **** {
 317:C:/Users/lenovo/Desktop/liteos/Project2/BearPi_LiteOS/components/security/mbedtls/mbedtls-2.6.0/library\oid.c **** #if defined(MBEDTLS_RSA_C)
ARM GAS  c:\Users\lenovo\AppData\Local\Temp\ccM87uYj.s 			page 7


 318:C:/Users/lenovo/Desktop/liteos/Project2/BearPi_LiteOS/components/security/mbedtls/mbedtls-2.6.0/library\oid.c **** #if defined(MBEDTLS_MD2_C)
 319:C:/Users/lenovo/Desktop/liteos/Project2/BearPi_LiteOS/components/security/mbedtls/mbedtls-2.6.0/library\oid.c ****     {
 320:C:/Users/lenovo/Desktop/liteos/Project2/BearPi_LiteOS/components/security/mbedtls/mbedtls-2.6.0/library\oid.c ****         { ADD_LEN( MBEDTLS_OID_PKCS1_MD2 ),        "md2WithRSAEncryption",     "RSA with MD2" },
 321:C:/Users/lenovo/Desktop/liteos/Project2/BearPi_LiteOS/components/security/mbedtls/mbedtls-2.6.0/library\oid.c ****         MBEDTLS_MD_MD2,      MBEDTLS_PK_RSA,
 322:C:/Users/lenovo/Desktop/liteos/Project2/BearPi_LiteOS/components/security/mbedtls/mbedtls-2.6.0/library\oid.c ****     },
 323:C:/Users/lenovo/Desktop/liteos/Project2/BearPi_LiteOS/components/security/mbedtls/mbedtls-2.6.0/library\oid.c **** #endif /* MBEDTLS_MD2_C */
 324:C:/Users/lenovo/Desktop/liteos/Project2/BearPi_LiteOS/components/security/mbedtls/mbedtls-2.6.0/library\oid.c **** #if defined(MBEDTLS_MD4_C)
 325:C:/Users/lenovo/Desktop/liteos/Project2/BearPi_LiteOS/components/security/mbedtls/mbedtls-2.6.0/library\oid.c ****     {
 326:C:/Users/lenovo/Desktop/liteos/Project2/BearPi_LiteOS/components/security/mbedtls/mbedtls-2.6.0/library\oid.c ****         { ADD_LEN( MBEDTLS_OID_PKCS1_MD4 ),        "md4WithRSAEncryption",     "RSA with MD4" },
 327:C:/Users/lenovo/Desktop/liteos/Project2/BearPi_LiteOS/components/security/mbedtls/mbedtls-2.6.0/library\oid.c ****         MBEDTLS_MD_MD4,      MBEDTLS_PK_RSA,
 328:C:/Users/lenovo/Desktop/liteos/Project2/BearPi_LiteOS/components/security/mbedtls/mbedtls-2.6.0/library\oid.c ****     },
 329:C:/Users/lenovo/Desktop/liteos/Project2/BearPi_LiteOS/components/security/mbedtls/mbedtls-2.6.0/library\oid.c **** #endif /* MBEDTLS_MD4_C */
 330:C:/Users/lenovo/Desktop/liteos/Project2/BearPi_LiteOS/components/security/mbedtls/mbedtls-2.6.0/library\oid.c **** #if defined(MBEDTLS_MD5_C)
 331:C:/Users/lenovo/Desktop/liteos/Project2/BearPi_LiteOS/components/security/mbedtls/mbedtls-2.6.0/library\oid.c ****     {
 332:C:/Users/lenovo/Desktop/liteos/Project2/BearPi_LiteOS/components/security/mbedtls/mbedtls-2.6.0/library\oid.c ****         { ADD_LEN( MBEDTLS_OID_PKCS1_MD5 ),        "md5WithRSAEncryption",     "RSA with MD5" },
 333:C:/Users/lenovo/Desktop/liteos/Project2/BearPi_LiteOS/components/security/mbedtls/mbedtls-2.6.0/library\oid.c ****         MBEDTLS_MD_MD5,      MBEDTLS_PK_RSA,
 334:C:/Users/lenovo/Desktop/liteos/Project2/BearPi_LiteOS/components/security/mbedtls/mbedtls-2.6.0/library\oid.c ****     },
 335:C:/Users/lenovo/Desktop/liteos/Project2/BearPi_LiteOS/components/security/mbedtls/mbedtls-2.6.0/library\oid.c **** #endif /* MBEDTLS_MD5_C */
 336:C:/Users/lenovo/Desktop/liteos/Project2/BearPi_LiteOS/components/security/mbedtls/mbedtls-2.6.0/library\oid.c **** #if defined(MBEDTLS_SHA1_C)
 337:C:/Users/lenovo/Desktop/liteos/Project2/BearPi_LiteOS/components/security/mbedtls/mbedtls-2.6.0/library\oid.c ****     {
 338:C:/Users/lenovo/Desktop/liteos/Project2/BearPi_LiteOS/components/security/mbedtls/mbedtls-2.6.0/library\oid.c ****         { ADD_LEN( MBEDTLS_OID_PKCS1_SHA1 ),       "sha-1WithRSAEncryption",   "RSA with SHA1" },
 339:C:/Users/lenovo/Desktop/liteos/Project2/BearPi_LiteOS/components/security/mbedtls/mbedtls-2.6.0/library\oid.c ****         MBEDTLS_MD_SHA1,     MBEDTLS_PK_RSA,
 340:C:/Users/lenovo/Desktop/liteos/Project2/BearPi_LiteOS/components/security/mbedtls/mbedtls-2.6.0/library\oid.c ****     },
 341:C:/Users/lenovo/Desktop/liteos/Project2/BearPi_LiteOS/components/security/mbedtls/mbedtls-2.6.0/library\oid.c **** #endif /* MBEDTLS_SHA1_C */
 342:C:/Users/lenovo/Desktop/liteos/Project2/BearPi_LiteOS/components/security/mbedtls/mbedtls-2.6.0/library\oid.c **** #if defined(MBEDTLS_SHA256_C)
 343:C:/Users/lenovo/Desktop/liteos/Project2/BearPi_LiteOS/components/security/mbedtls/mbedtls-2.6.0/library\oid.c ****     {
 344:C:/Users/lenovo/Desktop/liteos/Project2/BearPi_LiteOS/components/security/mbedtls/mbedtls-2.6.0/library\oid.c ****         { ADD_LEN( MBEDTLS_OID_PKCS1_SHA224 ),     "sha224WithRSAEncryption",  "RSA with SHA-224" }
 345:C:/Users/lenovo/Desktop/liteos/Project2/BearPi_LiteOS/components/security/mbedtls/mbedtls-2.6.0/library\oid.c ****         MBEDTLS_MD_SHA224,   MBEDTLS_PK_RSA,
 346:C:/Users/lenovo/Desktop/liteos/Project2/BearPi_LiteOS/components/security/mbedtls/mbedtls-2.6.0/library\oid.c ****     },
 347:C:/Users/lenovo/Desktop/liteos/Project2/BearPi_LiteOS/components/security/mbedtls/mbedtls-2.6.0/library\oid.c ****     {
 348:C:/Users/lenovo/Desktop/liteos/Project2/BearPi_LiteOS/components/security/mbedtls/mbedtls-2.6.0/library\oid.c ****         { ADD_LEN( MBEDTLS_OID_PKCS1_SHA256 ),     "sha256WithRSAEncryption",  "RSA with SHA-256" }
 349:C:/Users/lenovo/Desktop/liteos/Project2/BearPi_LiteOS/components/security/mbedtls/mbedtls-2.6.0/library\oid.c ****         MBEDTLS_MD_SHA256,   MBEDTLS_PK_RSA,
 350:C:/Users/lenovo/Desktop/liteos/Project2/BearPi_LiteOS/components/security/mbedtls/mbedtls-2.6.0/library\oid.c ****     },
 351:C:/Users/lenovo/Desktop/liteos/Project2/BearPi_LiteOS/components/security/mbedtls/mbedtls-2.6.0/library\oid.c **** #endif /* MBEDTLS_SHA256_C */
 352:C:/Users/lenovo/Desktop/liteos/Project2/BearPi_LiteOS/components/security/mbedtls/mbedtls-2.6.0/library\oid.c **** #if defined(MBEDTLS_SHA512_C)
 353:C:/Users/lenovo/Desktop/liteos/Project2/BearPi_LiteOS/components/security/mbedtls/mbedtls-2.6.0/library\oid.c ****     {
 354:C:/Users/lenovo/Desktop/liteos/Project2/BearPi_LiteOS/components/security/mbedtls/mbedtls-2.6.0/library\oid.c ****         { ADD_LEN( MBEDTLS_OID_PKCS1_SHA384 ),     "sha384WithRSAEncryption",  "RSA with SHA-384" }
 355:C:/Users/lenovo/Desktop/liteos/Project2/BearPi_LiteOS/components/security/mbedtls/mbedtls-2.6.0/library\oid.c ****         MBEDTLS_MD_SHA384,   MBEDTLS_PK_RSA,
 356:C:/Users/lenovo/Desktop/liteos/Project2/BearPi_LiteOS/components/security/mbedtls/mbedtls-2.6.0/library\oid.c ****     },
 357:C:/Users/lenovo/Desktop/liteos/Project2/BearPi_LiteOS/components/security/mbedtls/mbedtls-2.6.0/library\oid.c ****     {
 358:C:/Users/lenovo/Desktop/liteos/Project2/BearPi_LiteOS/components/security/mbedtls/mbedtls-2.6.0/library\oid.c ****         { ADD_LEN( MBEDTLS_OID_PKCS1_SHA512 ),     "sha512WithRSAEncryption",  "RSA with SHA-512" }
 359:C:/Users/lenovo/Desktop/liteos/Project2/BearPi_LiteOS/components/security/mbedtls/mbedtls-2.6.0/library\oid.c ****         MBEDTLS_MD_SHA512,   MBEDTLS_PK_RSA,
 360:C:/Users/lenovo/Desktop/liteos/Project2/BearPi_LiteOS/components/security/mbedtls/mbedtls-2.6.0/library\oid.c ****     },
 361:C:/Users/lenovo/Desktop/liteos/Project2/BearPi_LiteOS/components/security/mbedtls/mbedtls-2.6.0/library\oid.c **** #endif /* MBEDTLS_SHA512_C */
 362:C:/Users/lenovo/Desktop/liteos/Project2/BearPi_LiteOS/components/security/mbedtls/mbedtls-2.6.0/library\oid.c **** #if defined(MBEDTLS_SHA1_C)
 363:C:/Users/lenovo/Desktop/liteos/Project2/BearPi_LiteOS/components/security/mbedtls/mbedtls-2.6.0/library\oid.c ****     {
 364:C:/Users/lenovo/Desktop/liteos/Project2/BearPi_LiteOS/components/security/mbedtls/mbedtls-2.6.0/library\oid.c ****         { ADD_LEN( MBEDTLS_OID_RSA_SHA_OBS ),      "sha-1WithRSAEncryption",   "RSA with SHA1" },
 365:C:/Users/lenovo/Desktop/liteos/Project2/BearPi_LiteOS/components/security/mbedtls/mbedtls-2.6.0/library\oid.c ****         MBEDTLS_MD_SHA1,     MBEDTLS_PK_RSA,
 366:C:/Users/lenovo/Desktop/liteos/Project2/BearPi_LiteOS/components/security/mbedtls/mbedtls-2.6.0/library\oid.c ****     },
 367:C:/Users/lenovo/Desktop/liteos/Project2/BearPi_LiteOS/components/security/mbedtls/mbedtls-2.6.0/library\oid.c **** #endif /* MBEDTLS_SHA1_C */
 368:C:/Users/lenovo/Desktop/liteos/Project2/BearPi_LiteOS/components/security/mbedtls/mbedtls-2.6.0/library\oid.c **** #endif /* MBEDTLS_RSA_C */
 369:C:/Users/lenovo/Desktop/liteos/Project2/BearPi_LiteOS/components/security/mbedtls/mbedtls-2.6.0/library\oid.c **** #if defined(MBEDTLS_ECDSA_C)
 370:C:/Users/lenovo/Desktop/liteos/Project2/BearPi_LiteOS/components/security/mbedtls/mbedtls-2.6.0/library\oid.c **** #if defined(MBEDTLS_SHA1_C)
 371:C:/Users/lenovo/Desktop/liteos/Project2/BearPi_LiteOS/components/security/mbedtls/mbedtls-2.6.0/library\oid.c ****     {
 372:C:/Users/lenovo/Desktop/liteos/Project2/BearPi_LiteOS/components/security/mbedtls/mbedtls-2.6.0/library\oid.c ****         { ADD_LEN( MBEDTLS_OID_ECDSA_SHA1 ),       "ecdsa-with-SHA1",      "ECDSA with SHA1" },
 373:C:/Users/lenovo/Desktop/liteos/Project2/BearPi_LiteOS/components/security/mbedtls/mbedtls-2.6.0/library\oid.c ****         MBEDTLS_MD_SHA1,     MBEDTLS_PK_ECDSA,
 374:C:/Users/lenovo/Desktop/liteos/Project2/BearPi_LiteOS/components/security/mbedtls/mbedtls-2.6.0/library\oid.c ****     },
ARM GAS  c:\Users\lenovo\AppData\Local\Temp\ccM87uYj.s 			page 8


 375:C:/Users/lenovo/Desktop/liteos/Project2/BearPi_LiteOS/components/security/mbedtls/mbedtls-2.6.0/library\oid.c **** #endif /* MBEDTLS_SHA1_C */
 376:C:/Users/lenovo/Desktop/liteos/Project2/BearPi_LiteOS/components/security/mbedtls/mbedtls-2.6.0/library\oid.c **** #if defined(MBEDTLS_SHA256_C)
 377:C:/Users/lenovo/Desktop/liteos/Project2/BearPi_LiteOS/components/security/mbedtls/mbedtls-2.6.0/library\oid.c ****     {
 378:C:/Users/lenovo/Desktop/liteos/Project2/BearPi_LiteOS/components/security/mbedtls/mbedtls-2.6.0/library\oid.c ****         { ADD_LEN( MBEDTLS_OID_ECDSA_SHA224 ),     "ecdsa-with-SHA224",    "ECDSA with SHA224" },
 379:C:/Users/lenovo/Desktop/liteos/Project2/BearPi_LiteOS/components/security/mbedtls/mbedtls-2.6.0/library\oid.c ****         MBEDTLS_MD_SHA224,   MBEDTLS_PK_ECDSA,
 380:C:/Users/lenovo/Desktop/liteos/Project2/BearPi_LiteOS/components/security/mbedtls/mbedtls-2.6.0/library\oid.c ****     },
 381:C:/Users/lenovo/Desktop/liteos/Project2/BearPi_LiteOS/components/security/mbedtls/mbedtls-2.6.0/library\oid.c ****     {
 382:C:/Users/lenovo/Desktop/liteos/Project2/BearPi_LiteOS/components/security/mbedtls/mbedtls-2.6.0/library\oid.c ****         { ADD_LEN( MBEDTLS_OID_ECDSA_SHA256 ),     "ecdsa-with-SHA256",    "ECDSA with SHA256" },
 383:C:/Users/lenovo/Desktop/liteos/Project2/BearPi_LiteOS/components/security/mbedtls/mbedtls-2.6.0/library\oid.c ****         MBEDTLS_MD_SHA256,   MBEDTLS_PK_ECDSA,
 384:C:/Users/lenovo/Desktop/liteos/Project2/BearPi_LiteOS/components/security/mbedtls/mbedtls-2.6.0/library\oid.c ****     },
 385:C:/Users/lenovo/Desktop/liteos/Project2/BearPi_LiteOS/components/security/mbedtls/mbedtls-2.6.0/library\oid.c **** #endif /* MBEDTLS_SHA256_C */
 386:C:/Users/lenovo/Desktop/liteos/Project2/BearPi_LiteOS/components/security/mbedtls/mbedtls-2.6.0/library\oid.c **** #if defined(MBEDTLS_SHA512_C)
 387:C:/Users/lenovo/Desktop/liteos/Project2/BearPi_LiteOS/components/security/mbedtls/mbedtls-2.6.0/library\oid.c ****     {
 388:C:/Users/lenovo/Desktop/liteos/Project2/BearPi_LiteOS/components/security/mbedtls/mbedtls-2.6.0/library\oid.c ****         { ADD_LEN( MBEDTLS_OID_ECDSA_SHA384 ),     "ecdsa-with-SHA384",    "ECDSA with SHA384" },
 389:C:/Users/lenovo/Desktop/liteos/Project2/BearPi_LiteOS/components/security/mbedtls/mbedtls-2.6.0/library\oid.c ****         MBEDTLS_MD_SHA384,   MBEDTLS_PK_ECDSA,
 390:C:/Users/lenovo/Desktop/liteos/Project2/BearPi_LiteOS/components/security/mbedtls/mbedtls-2.6.0/library\oid.c ****     },
 391:C:/Users/lenovo/Desktop/liteos/Project2/BearPi_LiteOS/components/security/mbedtls/mbedtls-2.6.0/library\oid.c ****     {
 392:C:/Users/lenovo/Desktop/liteos/Project2/BearPi_LiteOS/components/security/mbedtls/mbedtls-2.6.0/library\oid.c ****         { ADD_LEN( MBEDTLS_OID_ECDSA_SHA512 ),     "ecdsa-with-SHA512",    "ECDSA with SHA512" },
 393:C:/Users/lenovo/Desktop/liteos/Project2/BearPi_LiteOS/components/security/mbedtls/mbedtls-2.6.0/library\oid.c ****         MBEDTLS_MD_SHA512,   MBEDTLS_PK_ECDSA,
 394:C:/Users/lenovo/Desktop/liteos/Project2/BearPi_LiteOS/components/security/mbedtls/mbedtls-2.6.0/library\oid.c ****     },
 395:C:/Users/lenovo/Desktop/liteos/Project2/BearPi_LiteOS/components/security/mbedtls/mbedtls-2.6.0/library\oid.c **** #endif /* MBEDTLS_SHA512_C */
 396:C:/Users/lenovo/Desktop/liteos/Project2/BearPi_LiteOS/components/security/mbedtls/mbedtls-2.6.0/library\oid.c **** #endif /* MBEDTLS_ECDSA_C */
 397:C:/Users/lenovo/Desktop/liteos/Project2/BearPi_LiteOS/components/security/mbedtls/mbedtls-2.6.0/library\oid.c **** #if defined(MBEDTLS_RSA_C)
 398:C:/Users/lenovo/Desktop/liteos/Project2/BearPi_LiteOS/components/security/mbedtls/mbedtls-2.6.0/library\oid.c ****     {
 399:C:/Users/lenovo/Desktop/liteos/Project2/BearPi_LiteOS/components/security/mbedtls/mbedtls-2.6.0/library\oid.c ****         { ADD_LEN( MBEDTLS_OID_RSASSA_PSS ),        "RSASSA-PSS",           "RSASSA-PSS" },
 400:C:/Users/lenovo/Desktop/liteos/Project2/BearPi_LiteOS/components/security/mbedtls/mbedtls-2.6.0/library\oid.c ****         MBEDTLS_MD_NONE,     MBEDTLS_PK_RSASSA_PSS,
 401:C:/Users/lenovo/Desktop/liteos/Project2/BearPi_LiteOS/components/security/mbedtls/mbedtls-2.6.0/library\oid.c ****     },
 402:C:/Users/lenovo/Desktop/liteos/Project2/BearPi_LiteOS/components/security/mbedtls/mbedtls-2.6.0/library\oid.c **** #endif /* MBEDTLS_RSA_C */
 403:C:/Users/lenovo/Desktop/liteos/Project2/BearPi_LiteOS/components/security/mbedtls/mbedtls-2.6.0/library\oid.c ****     {
 404:C:/Users/lenovo/Desktop/liteos/Project2/BearPi_LiteOS/components/security/mbedtls/mbedtls-2.6.0/library\oid.c ****         { NULL, 0, NULL, NULL },
 405:C:/Users/lenovo/Desktop/liteos/Project2/BearPi_LiteOS/components/security/mbedtls/mbedtls-2.6.0/library\oid.c ****         MBEDTLS_MD_NONE, MBEDTLS_PK_NONE,
 406:C:/Users/lenovo/Desktop/liteos/Project2/BearPi_LiteOS/components/security/mbedtls/mbedtls-2.6.0/library\oid.c ****     },
 407:C:/Users/lenovo/Desktop/liteos/Project2/BearPi_LiteOS/components/security/mbedtls/mbedtls-2.6.0/library\oid.c **** };
 408:C:/Users/lenovo/Desktop/liteos/Project2/BearPi_LiteOS/components/security/mbedtls/mbedtls-2.6.0/library\oid.c **** 
 409:C:/Users/lenovo/Desktop/liteos/Project2/BearPi_LiteOS/components/security/mbedtls/mbedtls-2.6.0/library\oid.c **** FN_OID_TYPED_FROM_ASN1(oid_sig_alg_t, sig_alg, oid_sig_alg)
  27              		.loc 1 409 0
  28              		.cfi_startproc
  29              		@ args = 0, pretend = 0, frame = 0
  30              		@ frame_needed = 0, uses_anonymous_args = 0
  31              	.LVL0:
  32 0000 38B5     		push	{r3, r4, r5, lr}
  33              	.LCFI0:
  34              		.cfi_def_cfa_offset 16
  35              		.cfi_offset 3, -16
  36              		.cfi_offset 4, -12
  37              		.cfi_offset 5, -8
  38              		.cfi_offset 14, -4
  39              	.LVL1:
  40              		.loc 1 409 0
  41 0002 90B1     		cbz	r0, .L6
  42 0004 0546     		mov	r5, r0
  43 0006 0A4C     		ldr	r4, .L9
  44 0008 00E0     		b	.L3
  45              	.LVL2:
  46              	.L4:
  47              		.loc 1 409 0 is_stmt 0 discriminator 7
  48 000a 1434     		adds	r4, r4, #20
ARM GAS  c:\Users\lenovo\AppData\Local\Temp\ccM87uYj.s 			page 9


  49              	.LVL3:
  50              	.L3:
  51              		.loc 1 409 0 discriminator 8
  52 000c 2068     		ldr	r0, [r4]
  53 000e 48B1     		cbz	r0, .L8
  54              		.loc 1 409 0 discriminator 9
  55 0010 6368     		ldr	r3, [r4, #4]
  56 0012 6A68     		ldr	r2, [r5, #4]
  57 0014 9342     		cmp	r3, r2
  58 0016 F8D1     		bne	.L4
  59              		.loc 1 409 0 discriminator 4
  60 0018 A968     		ldr	r1, [r5, #8]
  61 001a FFF7FEFF 		bl	memcmp
  62              	.LVL4:
  63 001e 0028     		cmp	r0, #0
  64 0020 F3D1     		bne	.L4
  65 0022 00E0     		b	.L1
  66              	.L8:
  67              		.loc 1 409 0
  68 0024 0024     		movs	r4, #0
  69              	.LVL5:
  70              	.L1:
  71 0026 2046     		mov	r0, r4
  72 0028 38BD     		pop	{r3, r4, r5, pc}
  73              	.LVL6:
  74              	.L6:
  75 002a 0024     		movs	r4, #0
  76 002c FBE7     		b	.L1
  77              	.L10:
  78 002e 00BF     		.align	2
  79              	.L9:
  80 0030 00000000 		.word	.LANCHOR0
  81              		.cfi_endproc
  82              	.LFE12:
  84              		.section	.text.oid_pk_alg_from_asn1,"ax",%progbits
  85              		.align	1
  86              		.syntax unified
  87              		.thumb
  88              		.thumb_func
  89              		.fpu fpv4-sp-d16
  91              	oid_pk_alg_from_asn1:
  92              	.LFB16:
 410:C:/Users/lenovo/Desktop/liteos/Project2/BearPi_LiteOS/components/security/mbedtls/mbedtls-2.6.0/library\oid.c **** FN_OID_GET_DESCRIPTOR_ATTR1(mbedtls_oid_get_sig_alg_desc, oid_sig_alg_t, sig_alg, const char *, des
 411:C:/Users/lenovo/Desktop/liteos/Project2/BearPi_LiteOS/components/security/mbedtls/mbedtls-2.6.0/library\oid.c **** FN_OID_GET_ATTR2(mbedtls_oid_get_sig_alg, oid_sig_alg_t, sig_alg, mbedtls_md_type_t, md_alg, mbedtl
 412:C:/Users/lenovo/Desktop/liteos/Project2/BearPi_LiteOS/components/security/mbedtls/mbedtls-2.6.0/library\oid.c **** FN_OID_GET_OID_BY_ATTR2(mbedtls_oid_get_oid_by_sig_alg, oid_sig_alg_t, oid_sig_alg, mbedtls_pk_type
 413:C:/Users/lenovo/Desktop/liteos/Project2/BearPi_LiteOS/components/security/mbedtls/mbedtls-2.6.0/library\oid.c **** #endif /* MBEDTLS_MD_C */
 414:C:/Users/lenovo/Desktop/liteos/Project2/BearPi_LiteOS/components/security/mbedtls/mbedtls-2.6.0/library\oid.c **** 
 415:C:/Users/lenovo/Desktop/liteos/Project2/BearPi_LiteOS/components/security/mbedtls/mbedtls-2.6.0/library\oid.c **** /*
 416:C:/Users/lenovo/Desktop/liteos/Project2/BearPi_LiteOS/components/security/mbedtls/mbedtls-2.6.0/library\oid.c ****  * For PublicKeyInfo (PKCS1, RFC 5480)
 417:C:/Users/lenovo/Desktop/liteos/Project2/BearPi_LiteOS/components/security/mbedtls/mbedtls-2.6.0/library\oid.c ****  */
 418:C:/Users/lenovo/Desktop/liteos/Project2/BearPi_LiteOS/components/security/mbedtls/mbedtls-2.6.0/library\oid.c **** typedef struct {
 419:C:/Users/lenovo/Desktop/liteos/Project2/BearPi_LiteOS/components/security/mbedtls/mbedtls-2.6.0/library\oid.c ****     mbedtls_oid_descriptor_t    descriptor;
 420:C:/Users/lenovo/Desktop/liteos/Project2/BearPi_LiteOS/components/security/mbedtls/mbedtls-2.6.0/library\oid.c ****     mbedtls_pk_type_t           pk_alg;
 421:C:/Users/lenovo/Desktop/liteos/Project2/BearPi_LiteOS/components/security/mbedtls/mbedtls-2.6.0/library\oid.c **** } oid_pk_alg_t;
 422:C:/Users/lenovo/Desktop/liteos/Project2/BearPi_LiteOS/components/security/mbedtls/mbedtls-2.6.0/library\oid.c **** 
 423:C:/Users/lenovo/Desktop/liteos/Project2/BearPi_LiteOS/components/security/mbedtls/mbedtls-2.6.0/library\oid.c **** static const oid_pk_alg_t oid_pk_alg[] =
 424:C:/Users/lenovo/Desktop/liteos/Project2/BearPi_LiteOS/components/security/mbedtls/mbedtls-2.6.0/library\oid.c **** {
ARM GAS  c:\Users\lenovo\AppData\Local\Temp\ccM87uYj.s 			page 10


 425:C:/Users/lenovo/Desktop/liteos/Project2/BearPi_LiteOS/components/security/mbedtls/mbedtls-2.6.0/library\oid.c ****     {
 426:C:/Users/lenovo/Desktop/liteos/Project2/BearPi_LiteOS/components/security/mbedtls/mbedtls-2.6.0/library\oid.c ****         { ADD_LEN( MBEDTLS_OID_PKCS1_RSA ),      "rsaEncryption",   "RSA" },
 427:C:/Users/lenovo/Desktop/liteos/Project2/BearPi_LiteOS/components/security/mbedtls/mbedtls-2.6.0/library\oid.c ****         MBEDTLS_PK_RSA,
 428:C:/Users/lenovo/Desktop/liteos/Project2/BearPi_LiteOS/components/security/mbedtls/mbedtls-2.6.0/library\oid.c ****     },
 429:C:/Users/lenovo/Desktop/liteos/Project2/BearPi_LiteOS/components/security/mbedtls/mbedtls-2.6.0/library\oid.c ****     {
 430:C:/Users/lenovo/Desktop/liteos/Project2/BearPi_LiteOS/components/security/mbedtls/mbedtls-2.6.0/library\oid.c ****         { ADD_LEN( MBEDTLS_OID_EC_ALG_UNRESTRICTED ),  "id-ecPublicKey",   "Generic EC key" },
 431:C:/Users/lenovo/Desktop/liteos/Project2/BearPi_LiteOS/components/security/mbedtls/mbedtls-2.6.0/library\oid.c ****         MBEDTLS_PK_ECKEY,
 432:C:/Users/lenovo/Desktop/liteos/Project2/BearPi_LiteOS/components/security/mbedtls/mbedtls-2.6.0/library\oid.c ****     },
 433:C:/Users/lenovo/Desktop/liteos/Project2/BearPi_LiteOS/components/security/mbedtls/mbedtls-2.6.0/library\oid.c ****     {
 434:C:/Users/lenovo/Desktop/liteos/Project2/BearPi_LiteOS/components/security/mbedtls/mbedtls-2.6.0/library\oid.c ****         { ADD_LEN( MBEDTLS_OID_EC_ALG_ECDH ),          "id-ecDH",          "EC key for ECDH" },
 435:C:/Users/lenovo/Desktop/liteos/Project2/BearPi_LiteOS/components/security/mbedtls/mbedtls-2.6.0/library\oid.c ****         MBEDTLS_PK_ECKEY_DH,
 436:C:/Users/lenovo/Desktop/liteos/Project2/BearPi_LiteOS/components/security/mbedtls/mbedtls-2.6.0/library\oid.c ****     },
 437:C:/Users/lenovo/Desktop/liteos/Project2/BearPi_LiteOS/components/security/mbedtls/mbedtls-2.6.0/library\oid.c ****     {
 438:C:/Users/lenovo/Desktop/liteos/Project2/BearPi_LiteOS/components/security/mbedtls/mbedtls-2.6.0/library\oid.c ****         { NULL, 0, NULL, NULL },
 439:C:/Users/lenovo/Desktop/liteos/Project2/BearPi_LiteOS/components/security/mbedtls/mbedtls-2.6.0/library\oid.c ****         MBEDTLS_PK_NONE,
 440:C:/Users/lenovo/Desktop/liteos/Project2/BearPi_LiteOS/components/security/mbedtls/mbedtls-2.6.0/library\oid.c ****     },
 441:C:/Users/lenovo/Desktop/liteos/Project2/BearPi_LiteOS/components/security/mbedtls/mbedtls-2.6.0/library\oid.c **** };
 442:C:/Users/lenovo/Desktop/liteos/Project2/BearPi_LiteOS/components/security/mbedtls/mbedtls-2.6.0/library\oid.c **** 
 443:C:/Users/lenovo/Desktop/liteos/Project2/BearPi_LiteOS/components/security/mbedtls/mbedtls-2.6.0/library\oid.c **** FN_OID_TYPED_FROM_ASN1(oid_pk_alg_t, pk_alg, oid_pk_alg)
  93              		.loc 1 443 0 is_stmt 1
  94              		.cfi_startproc
  95              		@ args = 0, pretend = 0, frame = 0
  96              		@ frame_needed = 0, uses_anonymous_args = 0
  97              	.LVL7:
  98 0000 38B5     		push	{r3, r4, r5, lr}
  99              	.LCFI1:
 100              		.cfi_def_cfa_offset 16
 101              		.cfi_offset 3, -16
 102              		.cfi_offset 4, -12
 103              		.cfi_offset 5, -8
 104              		.cfi_offset 14, -4
 105              	.LVL8:
 106              		.loc 1 443 0
 107 0002 90B1     		cbz	r0, .L16
 108 0004 0546     		mov	r5, r0
 109 0006 0A4C     		ldr	r4, .L19
 110 0008 00E0     		b	.L13
 111              	.LVL9:
 112              	.L14:
 113              		.loc 1 443 0 is_stmt 0 discriminator 7
 114 000a 1434     		adds	r4, r4, #20
 115              	.LVL10:
 116              	.L13:
 117              		.loc 1 443 0 discriminator 8
 118 000c 2068     		ldr	r0, [r4]
 119 000e 48B1     		cbz	r0, .L18
 120              		.loc 1 443 0 discriminator 9
 121 0010 6368     		ldr	r3, [r4, #4]
 122 0012 6A68     		ldr	r2, [r5, #4]
 123 0014 9342     		cmp	r3, r2
 124 0016 F8D1     		bne	.L14
 125              		.loc 1 443 0 discriminator 4
 126 0018 A968     		ldr	r1, [r5, #8]
 127 001a FFF7FEFF 		bl	memcmp
 128              	.LVL11:
 129 001e 0028     		cmp	r0, #0
 130 0020 F3D1     		bne	.L14
ARM GAS  c:\Users\lenovo\AppData\Local\Temp\ccM87uYj.s 			page 11


 131 0022 00E0     		b	.L11
 132              	.L18:
 133              		.loc 1 443 0
 134 0024 0024     		movs	r4, #0
 135              	.LVL12:
 136              	.L11:
 137 0026 2046     		mov	r0, r4
 138 0028 38BD     		pop	{r3, r4, r5, pc}
 139              	.LVL13:
 140              	.L16:
 141 002a 0024     		movs	r4, #0
 142 002c FBE7     		b	.L11
 143              	.L20:
 144 002e 00BF     		.align	2
 145              	.L19:
 146 0030 00000000 		.word	.LANCHOR1
 147              		.cfi_endproc
 148              	.LFE16:
 150              		.section	.text.oid_cipher_alg_from_asn1,"ax",%progbits
 151              		.align	1
 152              		.syntax unified
 153              		.thumb
 154              		.thumb_func
 155              		.fpu fpv4-sp-d16
 157              	oid_cipher_alg_from_asn1:
 158              	.LFB19:
 444:C:/Users/lenovo/Desktop/liteos/Project2/BearPi_LiteOS/components/security/mbedtls/mbedtls-2.6.0/library\oid.c **** FN_OID_GET_ATTR1(mbedtls_oid_get_pk_alg, oid_pk_alg_t, pk_alg, mbedtls_pk_type_t, pk_alg)
 445:C:/Users/lenovo/Desktop/liteos/Project2/BearPi_LiteOS/components/security/mbedtls/mbedtls-2.6.0/library\oid.c **** FN_OID_GET_OID_BY_ATTR1(mbedtls_oid_get_oid_by_pk_alg, oid_pk_alg_t, oid_pk_alg, mbedtls_pk_type_t,
 446:C:/Users/lenovo/Desktop/liteos/Project2/BearPi_LiteOS/components/security/mbedtls/mbedtls-2.6.0/library\oid.c **** 
 447:C:/Users/lenovo/Desktop/liteos/Project2/BearPi_LiteOS/components/security/mbedtls/mbedtls-2.6.0/library\oid.c **** #if defined(MBEDTLS_ECP_C)
 448:C:/Users/lenovo/Desktop/liteos/Project2/BearPi_LiteOS/components/security/mbedtls/mbedtls-2.6.0/library\oid.c **** /*
 449:C:/Users/lenovo/Desktop/liteos/Project2/BearPi_LiteOS/components/security/mbedtls/mbedtls-2.6.0/library\oid.c ****  * For namedCurve (RFC 5480)
 450:C:/Users/lenovo/Desktop/liteos/Project2/BearPi_LiteOS/components/security/mbedtls/mbedtls-2.6.0/library\oid.c ****  */
 451:C:/Users/lenovo/Desktop/liteos/Project2/BearPi_LiteOS/components/security/mbedtls/mbedtls-2.6.0/library\oid.c **** typedef struct {
 452:C:/Users/lenovo/Desktop/liteos/Project2/BearPi_LiteOS/components/security/mbedtls/mbedtls-2.6.0/library\oid.c ****     mbedtls_oid_descriptor_t    descriptor;
 453:C:/Users/lenovo/Desktop/liteos/Project2/BearPi_LiteOS/components/security/mbedtls/mbedtls-2.6.0/library\oid.c ****     mbedtls_ecp_group_id        grp_id;
 454:C:/Users/lenovo/Desktop/liteos/Project2/BearPi_LiteOS/components/security/mbedtls/mbedtls-2.6.0/library\oid.c **** } oid_ecp_grp_t;
 455:C:/Users/lenovo/Desktop/liteos/Project2/BearPi_LiteOS/components/security/mbedtls/mbedtls-2.6.0/library\oid.c **** 
 456:C:/Users/lenovo/Desktop/liteos/Project2/BearPi_LiteOS/components/security/mbedtls/mbedtls-2.6.0/library\oid.c **** static const oid_ecp_grp_t oid_ecp_grp[] =
 457:C:/Users/lenovo/Desktop/liteos/Project2/BearPi_LiteOS/components/security/mbedtls/mbedtls-2.6.0/library\oid.c **** {
 458:C:/Users/lenovo/Desktop/liteos/Project2/BearPi_LiteOS/components/security/mbedtls/mbedtls-2.6.0/library\oid.c **** #if defined(MBEDTLS_ECP_DP_SECP192R1_ENABLED)
 459:C:/Users/lenovo/Desktop/liteos/Project2/BearPi_LiteOS/components/security/mbedtls/mbedtls-2.6.0/library\oid.c ****     {
 460:C:/Users/lenovo/Desktop/liteos/Project2/BearPi_LiteOS/components/security/mbedtls/mbedtls-2.6.0/library\oid.c ****         { ADD_LEN( MBEDTLS_OID_EC_GRP_SECP192R1 ), "secp192r1",    "secp192r1" },
 461:C:/Users/lenovo/Desktop/liteos/Project2/BearPi_LiteOS/components/security/mbedtls/mbedtls-2.6.0/library\oid.c ****         MBEDTLS_ECP_DP_SECP192R1,
 462:C:/Users/lenovo/Desktop/liteos/Project2/BearPi_LiteOS/components/security/mbedtls/mbedtls-2.6.0/library\oid.c ****     },
 463:C:/Users/lenovo/Desktop/liteos/Project2/BearPi_LiteOS/components/security/mbedtls/mbedtls-2.6.0/library\oid.c **** #endif /* MBEDTLS_ECP_DP_SECP192R1_ENABLED */
 464:C:/Users/lenovo/Desktop/liteos/Project2/BearPi_LiteOS/components/security/mbedtls/mbedtls-2.6.0/library\oid.c **** #if defined(MBEDTLS_ECP_DP_SECP224R1_ENABLED)
 465:C:/Users/lenovo/Desktop/liteos/Project2/BearPi_LiteOS/components/security/mbedtls/mbedtls-2.6.0/library\oid.c ****     {
 466:C:/Users/lenovo/Desktop/liteos/Project2/BearPi_LiteOS/components/security/mbedtls/mbedtls-2.6.0/library\oid.c ****         { ADD_LEN( MBEDTLS_OID_EC_GRP_SECP224R1 ), "secp224r1",    "secp224r1" },
 467:C:/Users/lenovo/Desktop/liteos/Project2/BearPi_LiteOS/components/security/mbedtls/mbedtls-2.6.0/library\oid.c ****         MBEDTLS_ECP_DP_SECP224R1,
 468:C:/Users/lenovo/Desktop/liteos/Project2/BearPi_LiteOS/components/security/mbedtls/mbedtls-2.6.0/library\oid.c ****     },
 469:C:/Users/lenovo/Desktop/liteos/Project2/BearPi_LiteOS/components/security/mbedtls/mbedtls-2.6.0/library\oid.c **** #endif /* MBEDTLS_ECP_DP_SECP224R1_ENABLED */
 470:C:/Users/lenovo/Desktop/liteos/Project2/BearPi_LiteOS/components/security/mbedtls/mbedtls-2.6.0/library\oid.c **** #if defined(MBEDTLS_ECP_DP_SECP256R1_ENABLED)
 471:C:/Users/lenovo/Desktop/liteos/Project2/BearPi_LiteOS/components/security/mbedtls/mbedtls-2.6.0/library\oid.c ****     {
 472:C:/Users/lenovo/Desktop/liteos/Project2/BearPi_LiteOS/components/security/mbedtls/mbedtls-2.6.0/library\oid.c ****         { ADD_LEN( MBEDTLS_OID_EC_GRP_SECP256R1 ), "secp256r1",    "secp256r1" },
 473:C:/Users/lenovo/Desktop/liteos/Project2/BearPi_LiteOS/components/security/mbedtls/mbedtls-2.6.0/library\oid.c ****         MBEDTLS_ECP_DP_SECP256R1,
 474:C:/Users/lenovo/Desktop/liteos/Project2/BearPi_LiteOS/components/security/mbedtls/mbedtls-2.6.0/library\oid.c ****     },
ARM GAS  c:\Users\lenovo\AppData\Local\Temp\ccM87uYj.s 			page 12


 475:C:/Users/lenovo/Desktop/liteos/Project2/BearPi_LiteOS/components/security/mbedtls/mbedtls-2.6.0/library\oid.c **** #endif /* MBEDTLS_ECP_DP_SECP256R1_ENABLED */
 476:C:/Users/lenovo/Desktop/liteos/Project2/BearPi_LiteOS/components/security/mbedtls/mbedtls-2.6.0/library\oid.c **** #if defined(MBEDTLS_ECP_DP_SECP384R1_ENABLED)
 477:C:/Users/lenovo/Desktop/liteos/Project2/BearPi_LiteOS/components/security/mbedtls/mbedtls-2.6.0/library\oid.c ****     {
 478:C:/Users/lenovo/Desktop/liteos/Project2/BearPi_LiteOS/components/security/mbedtls/mbedtls-2.6.0/library\oid.c ****         { ADD_LEN( MBEDTLS_OID_EC_GRP_SECP384R1 ), "secp384r1",    "secp384r1" },
 479:C:/Users/lenovo/Desktop/liteos/Project2/BearPi_LiteOS/components/security/mbedtls/mbedtls-2.6.0/library\oid.c ****         MBEDTLS_ECP_DP_SECP384R1,
 480:C:/Users/lenovo/Desktop/liteos/Project2/BearPi_LiteOS/components/security/mbedtls/mbedtls-2.6.0/library\oid.c ****     },
 481:C:/Users/lenovo/Desktop/liteos/Project2/BearPi_LiteOS/components/security/mbedtls/mbedtls-2.6.0/library\oid.c **** #endif /* MBEDTLS_ECP_DP_SECP384R1_ENABLED */
 482:C:/Users/lenovo/Desktop/liteos/Project2/BearPi_LiteOS/components/security/mbedtls/mbedtls-2.6.0/library\oid.c **** #if defined(MBEDTLS_ECP_DP_SECP521R1_ENABLED)
 483:C:/Users/lenovo/Desktop/liteos/Project2/BearPi_LiteOS/components/security/mbedtls/mbedtls-2.6.0/library\oid.c ****     {
 484:C:/Users/lenovo/Desktop/liteos/Project2/BearPi_LiteOS/components/security/mbedtls/mbedtls-2.6.0/library\oid.c ****         { ADD_LEN( MBEDTLS_OID_EC_GRP_SECP521R1 ), "secp521r1",    "secp521r1" },
 485:C:/Users/lenovo/Desktop/liteos/Project2/BearPi_LiteOS/components/security/mbedtls/mbedtls-2.6.0/library\oid.c ****         MBEDTLS_ECP_DP_SECP521R1,
 486:C:/Users/lenovo/Desktop/liteos/Project2/BearPi_LiteOS/components/security/mbedtls/mbedtls-2.6.0/library\oid.c ****     },
 487:C:/Users/lenovo/Desktop/liteos/Project2/BearPi_LiteOS/components/security/mbedtls/mbedtls-2.6.0/library\oid.c **** #endif /* MBEDTLS_ECP_DP_SECP521R1_ENABLED */
 488:C:/Users/lenovo/Desktop/liteos/Project2/BearPi_LiteOS/components/security/mbedtls/mbedtls-2.6.0/library\oid.c **** #if defined(MBEDTLS_ECP_DP_SECP192K1_ENABLED)
 489:C:/Users/lenovo/Desktop/liteos/Project2/BearPi_LiteOS/components/security/mbedtls/mbedtls-2.6.0/library\oid.c ****     {
 490:C:/Users/lenovo/Desktop/liteos/Project2/BearPi_LiteOS/components/security/mbedtls/mbedtls-2.6.0/library\oid.c ****         { ADD_LEN( MBEDTLS_OID_EC_GRP_SECP192K1 ), "secp192k1",    "secp192k1" },
 491:C:/Users/lenovo/Desktop/liteos/Project2/BearPi_LiteOS/components/security/mbedtls/mbedtls-2.6.0/library\oid.c ****         MBEDTLS_ECP_DP_SECP192K1,
 492:C:/Users/lenovo/Desktop/liteos/Project2/BearPi_LiteOS/components/security/mbedtls/mbedtls-2.6.0/library\oid.c ****     },
 493:C:/Users/lenovo/Desktop/liteos/Project2/BearPi_LiteOS/components/security/mbedtls/mbedtls-2.6.0/library\oid.c **** #endif /* MBEDTLS_ECP_DP_SECP192K1_ENABLED */
 494:C:/Users/lenovo/Desktop/liteos/Project2/BearPi_LiteOS/components/security/mbedtls/mbedtls-2.6.0/library\oid.c **** #if defined(MBEDTLS_ECP_DP_SECP224K1_ENABLED)
 495:C:/Users/lenovo/Desktop/liteos/Project2/BearPi_LiteOS/components/security/mbedtls/mbedtls-2.6.0/library\oid.c ****     {
 496:C:/Users/lenovo/Desktop/liteos/Project2/BearPi_LiteOS/components/security/mbedtls/mbedtls-2.6.0/library\oid.c ****         { ADD_LEN( MBEDTLS_OID_EC_GRP_SECP224K1 ), "secp224k1",    "secp224k1" },
 497:C:/Users/lenovo/Desktop/liteos/Project2/BearPi_LiteOS/components/security/mbedtls/mbedtls-2.6.0/library\oid.c ****         MBEDTLS_ECP_DP_SECP224K1,
 498:C:/Users/lenovo/Desktop/liteos/Project2/BearPi_LiteOS/components/security/mbedtls/mbedtls-2.6.0/library\oid.c ****     },
 499:C:/Users/lenovo/Desktop/liteos/Project2/BearPi_LiteOS/components/security/mbedtls/mbedtls-2.6.0/library\oid.c **** #endif /* MBEDTLS_ECP_DP_SECP224K1_ENABLED */
 500:C:/Users/lenovo/Desktop/liteos/Project2/BearPi_LiteOS/components/security/mbedtls/mbedtls-2.6.0/library\oid.c **** #if defined(MBEDTLS_ECP_DP_SECP256K1_ENABLED)
 501:C:/Users/lenovo/Desktop/liteos/Project2/BearPi_LiteOS/components/security/mbedtls/mbedtls-2.6.0/library\oid.c ****     {
 502:C:/Users/lenovo/Desktop/liteos/Project2/BearPi_LiteOS/components/security/mbedtls/mbedtls-2.6.0/library\oid.c ****         { ADD_LEN( MBEDTLS_OID_EC_GRP_SECP256K1 ), "secp256k1",    "secp256k1" },
 503:C:/Users/lenovo/Desktop/liteos/Project2/BearPi_LiteOS/components/security/mbedtls/mbedtls-2.6.0/library\oid.c ****         MBEDTLS_ECP_DP_SECP256K1,
 504:C:/Users/lenovo/Desktop/liteos/Project2/BearPi_LiteOS/components/security/mbedtls/mbedtls-2.6.0/library\oid.c ****     },
 505:C:/Users/lenovo/Desktop/liteos/Project2/BearPi_LiteOS/components/security/mbedtls/mbedtls-2.6.0/library\oid.c **** #endif /* MBEDTLS_ECP_DP_SECP256K1_ENABLED */
 506:C:/Users/lenovo/Desktop/liteos/Project2/BearPi_LiteOS/components/security/mbedtls/mbedtls-2.6.0/library\oid.c **** #if defined(MBEDTLS_ECP_DP_BP256R1_ENABLED)
 507:C:/Users/lenovo/Desktop/liteos/Project2/BearPi_LiteOS/components/security/mbedtls/mbedtls-2.6.0/library\oid.c ****     {
 508:C:/Users/lenovo/Desktop/liteos/Project2/BearPi_LiteOS/components/security/mbedtls/mbedtls-2.6.0/library\oid.c ****         { ADD_LEN( MBEDTLS_OID_EC_GRP_BP256R1 ),   "brainpoolP256r1","brainpool256r1" },
 509:C:/Users/lenovo/Desktop/liteos/Project2/BearPi_LiteOS/components/security/mbedtls/mbedtls-2.6.0/library\oid.c ****         MBEDTLS_ECP_DP_BP256R1,
 510:C:/Users/lenovo/Desktop/liteos/Project2/BearPi_LiteOS/components/security/mbedtls/mbedtls-2.6.0/library\oid.c ****     },
 511:C:/Users/lenovo/Desktop/liteos/Project2/BearPi_LiteOS/components/security/mbedtls/mbedtls-2.6.0/library\oid.c **** #endif /* MBEDTLS_ECP_DP_BP256R1_ENABLED */
 512:C:/Users/lenovo/Desktop/liteos/Project2/BearPi_LiteOS/components/security/mbedtls/mbedtls-2.6.0/library\oid.c **** #if defined(MBEDTLS_ECP_DP_BP384R1_ENABLED)
 513:C:/Users/lenovo/Desktop/liteos/Project2/BearPi_LiteOS/components/security/mbedtls/mbedtls-2.6.0/library\oid.c ****     {
 514:C:/Users/lenovo/Desktop/liteos/Project2/BearPi_LiteOS/components/security/mbedtls/mbedtls-2.6.0/library\oid.c ****         { ADD_LEN( MBEDTLS_OID_EC_GRP_BP384R1 ),   "brainpoolP384r1","brainpool384r1" },
 515:C:/Users/lenovo/Desktop/liteos/Project2/BearPi_LiteOS/components/security/mbedtls/mbedtls-2.6.0/library\oid.c ****         MBEDTLS_ECP_DP_BP384R1,
 516:C:/Users/lenovo/Desktop/liteos/Project2/BearPi_LiteOS/components/security/mbedtls/mbedtls-2.6.0/library\oid.c ****     },
 517:C:/Users/lenovo/Desktop/liteos/Project2/BearPi_LiteOS/components/security/mbedtls/mbedtls-2.6.0/library\oid.c **** #endif /* MBEDTLS_ECP_DP_BP384R1_ENABLED */
 518:C:/Users/lenovo/Desktop/liteos/Project2/BearPi_LiteOS/components/security/mbedtls/mbedtls-2.6.0/library\oid.c **** #if defined(MBEDTLS_ECP_DP_BP512R1_ENABLED)
 519:C:/Users/lenovo/Desktop/liteos/Project2/BearPi_LiteOS/components/security/mbedtls/mbedtls-2.6.0/library\oid.c ****     {
 520:C:/Users/lenovo/Desktop/liteos/Project2/BearPi_LiteOS/components/security/mbedtls/mbedtls-2.6.0/library\oid.c ****         { ADD_LEN( MBEDTLS_OID_EC_GRP_BP512R1 ),   "brainpoolP512r1","brainpool512r1" },
 521:C:/Users/lenovo/Desktop/liteos/Project2/BearPi_LiteOS/components/security/mbedtls/mbedtls-2.6.0/library\oid.c ****         MBEDTLS_ECP_DP_BP512R1,
 522:C:/Users/lenovo/Desktop/liteos/Project2/BearPi_LiteOS/components/security/mbedtls/mbedtls-2.6.0/library\oid.c ****     },
 523:C:/Users/lenovo/Desktop/liteos/Project2/BearPi_LiteOS/components/security/mbedtls/mbedtls-2.6.0/library\oid.c **** #endif /* MBEDTLS_ECP_DP_BP512R1_ENABLED */
 524:C:/Users/lenovo/Desktop/liteos/Project2/BearPi_LiteOS/components/security/mbedtls/mbedtls-2.6.0/library\oid.c ****     {
 525:C:/Users/lenovo/Desktop/liteos/Project2/BearPi_LiteOS/components/security/mbedtls/mbedtls-2.6.0/library\oid.c ****         { NULL, 0, NULL, NULL },
 526:C:/Users/lenovo/Desktop/liteos/Project2/BearPi_LiteOS/components/security/mbedtls/mbedtls-2.6.0/library\oid.c ****         MBEDTLS_ECP_DP_NONE,
 527:C:/Users/lenovo/Desktop/liteos/Project2/BearPi_LiteOS/components/security/mbedtls/mbedtls-2.6.0/library\oid.c ****     },
 528:C:/Users/lenovo/Desktop/liteos/Project2/BearPi_LiteOS/components/security/mbedtls/mbedtls-2.6.0/library\oid.c **** };
 529:C:/Users/lenovo/Desktop/liteos/Project2/BearPi_LiteOS/components/security/mbedtls/mbedtls-2.6.0/library\oid.c **** 
 530:C:/Users/lenovo/Desktop/liteos/Project2/BearPi_LiteOS/components/security/mbedtls/mbedtls-2.6.0/library\oid.c **** FN_OID_TYPED_FROM_ASN1(oid_ecp_grp_t, grp_id, oid_ecp_grp)
 531:C:/Users/lenovo/Desktop/liteos/Project2/BearPi_LiteOS/components/security/mbedtls/mbedtls-2.6.0/library\oid.c **** FN_OID_GET_ATTR1(mbedtls_oid_get_ec_grp, oid_ecp_grp_t, grp_id, mbedtls_ecp_group_id, grp_id)
ARM GAS  c:\Users\lenovo\AppData\Local\Temp\ccM87uYj.s 			page 13


 532:C:/Users/lenovo/Desktop/liteos/Project2/BearPi_LiteOS/components/security/mbedtls/mbedtls-2.6.0/library\oid.c **** FN_OID_GET_OID_BY_ATTR1(mbedtls_oid_get_oid_by_ec_grp, oid_ecp_grp_t, oid_ecp_grp, mbedtls_ecp_grou
 533:C:/Users/lenovo/Desktop/liteos/Project2/BearPi_LiteOS/components/security/mbedtls/mbedtls-2.6.0/library\oid.c **** #endif /* MBEDTLS_ECP_C */
 534:C:/Users/lenovo/Desktop/liteos/Project2/BearPi_LiteOS/components/security/mbedtls/mbedtls-2.6.0/library\oid.c **** 
 535:C:/Users/lenovo/Desktop/liteos/Project2/BearPi_LiteOS/components/security/mbedtls/mbedtls-2.6.0/library\oid.c **** #if defined(MBEDTLS_CIPHER_C)
 536:C:/Users/lenovo/Desktop/liteos/Project2/BearPi_LiteOS/components/security/mbedtls/mbedtls-2.6.0/library\oid.c **** /*
 537:C:/Users/lenovo/Desktop/liteos/Project2/BearPi_LiteOS/components/security/mbedtls/mbedtls-2.6.0/library\oid.c ****  * For PKCS#5 PBES2 encryption algorithm
 538:C:/Users/lenovo/Desktop/liteos/Project2/BearPi_LiteOS/components/security/mbedtls/mbedtls-2.6.0/library\oid.c ****  */
 539:C:/Users/lenovo/Desktop/liteos/Project2/BearPi_LiteOS/components/security/mbedtls/mbedtls-2.6.0/library\oid.c **** typedef struct {
 540:C:/Users/lenovo/Desktop/liteos/Project2/BearPi_LiteOS/components/security/mbedtls/mbedtls-2.6.0/library\oid.c ****     mbedtls_oid_descriptor_t    descriptor;
 541:C:/Users/lenovo/Desktop/liteos/Project2/BearPi_LiteOS/components/security/mbedtls/mbedtls-2.6.0/library\oid.c ****     mbedtls_cipher_type_t       cipher_alg;
 542:C:/Users/lenovo/Desktop/liteos/Project2/BearPi_LiteOS/components/security/mbedtls/mbedtls-2.6.0/library\oid.c **** } oid_cipher_alg_t;
 543:C:/Users/lenovo/Desktop/liteos/Project2/BearPi_LiteOS/components/security/mbedtls/mbedtls-2.6.0/library\oid.c **** 
 544:C:/Users/lenovo/Desktop/liteos/Project2/BearPi_LiteOS/components/security/mbedtls/mbedtls-2.6.0/library\oid.c **** static const oid_cipher_alg_t oid_cipher_alg[] =
 545:C:/Users/lenovo/Desktop/liteos/Project2/BearPi_LiteOS/components/security/mbedtls/mbedtls-2.6.0/library\oid.c **** {
 546:C:/Users/lenovo/Desktop/liteos/Project2/BearPi_LiteOS/components/security/mbedtls/mbedtls-2.6.0/library\oid.c ****     {
 547:C:/Users/lenovo/Desktop/liteos/Project2/BearPi_LiteOS/components/security/mbedtls/mbedtls-2.6.0/library\oid.c ****         { ADD_LEN( MBEDTLS_OID_DES_CBC ),              "desCBC",       "DES-CBC" },
 548:C:/Users/lenovo/Desktop/liteos/Project2/BearPi_LiteOS/components/security/mbedtls/mbedtls-2.6.0/library\oid.c ****         MBEDTLS_CIPHER_DES_CBC,
 549:C:/Users/lenovo/Desktop/liteos/Project2/BearPi_LiteOS/components/security/mbedtls/mbedtls-2.6.0/library\oid.c ****     },
 550:C:/Users/lenovo/Desktop/liteos/Project2/BearPi_LiteOS/components/security/mbedtls/mbedtls-2.6.0/library\oid.c ****     {
 551:C:/Users/lenovo/Desktop/liteos/Project2/BearPi_LiteOS/components/security/mbedtls/mbedtls-2.6.0/library\oid.c ****         { ADD_LEN( MBEDTLS_OID_DES_EDE3_CBC ),         "des-ede3-cbc", "DES-EDE3-CBC" },
 552:C:/Users/lenovo/Desktop/liteos/Project2/BearPi_LiteOS/components/security/mbedtls/mbedtls-2.6.0/library\oid.c ****         MBEDTLS_CIPHER_DES_EDE3_CBC,
 553:C:/Users/lenovo/Desktop/liteos/Project2/BearPi_LiteOS/components/security/mbedtls/mbedtls-2.6.0/library\oid.c ****     },
 554:C:/Users/lenovo/Desktop/liteos/Project2/BearPi_LiteOS/components/security/mbedtls/mbedtls-2.6.0/library\oid.c ****     {
 555:C:/Users/lenovo/Desktop/liteos/Project2/BearPi_LiteOS/components/security/mbedtls/mbedtls-2.6.0/library\oid.c ****         { NULL, 0, NULL, NULL },
 556:C:/Users/lenovo/Desktop/liteos/Project2/BearPi_LiteOS/components/security/mbedtls/mbedtls-2.6.0/library\oid.c ****         MBEDTLS_CIPHER_NONE,
 557:C:/Users/lenovo/Desktop/liteos/Project2/BearPi_LiteOS/components/security/mbedtls/mbedtls-2.6.0/library\oid.c ****     },
 558:C:/Users/lenovo/Desktop/liteos/Project2/BearPi_LiteOS/components/security/mbedtls/mbedtls-2.6.0/library\oid.c **** };
 559:C:/Users/lenovo/Desktop/liteos/Project2/BearPi_LiteOS/components/security/mbedtls/mbedtls-2.6.0/library\oid.c **** 
 560:C:/Users/lenovo/Desktop/liteos/Project2/BearPi_LiteOS/components/security/mbedtls/mbedtls-2.6.0/library\oid.c **** FN_OID_TYPED_FROM_ASN1(oid_cipher_alg_t, cipher_alg, oid_cipher_alg)
 159              		.loc 1 560 0 is_stmt 1
 160              		.cfi_startproc
 161              		@ args = 0, pretend = 0, frame = 0
 162              		@ frame_needed = 0, uses_anonymous_args = 0
 163              	.LVL14:
 164 0000 38B5     		push	{r3, r4, r5, lr}
 165              	.LCFI2:
 166              		.cfi_def_cfa_offset 16
 167              		.cfi_offset 3, -16
 168              		.cfi_offset 4, -12
 169              		.cfi_offset 5, -8
 170              		.cfi_offset 14, -4
 171              	.LVL15:
 172              		.loc 1 560 0
 173 0002 90B1     		cbz	r0, .L26
 174 0004 0546     		mov	r5, r0
 175 0006 0A4C     		ldr	r4, .L29
 176 0008 00E0     		b	.L23
 177              	.LVL16:
 178              	.L24:
 179              		.loc 1 560 0 is_stmt 0 discriminator 7
 180 000a 1434     		adds	r4, r4, #20
 181              	.LVL17:
 182              	.L23:
 183              		.loc 1 560 0 discriminator 8
 184 000c 2068     		ldr	r0, [r4]
 185 000e 48B1     		cbz	r0, .L28
 186              		.loc 1 560 0 discriminator 9
ARM GAS  c:\Users\lenovo\AppData\Local\Temp\ccM87uYj.s 			page 14


 187 0010 6368     		ldr	r3, [r4, #4]
 188 0012 6A68     		ldr	r2, [r5, #4]
 189 0014 9342     		cmp	r3, r2
 190 0016 F8D1     		bne	.L24
 191              		.loc 1 560 0 discriminator 4
 192 0018 A968     		ldr	r1, [r5, #8]
 193 001a FFF7FEFF 		bl	memcmp
 194              	.LVL18:
 195 001e 0028     		cmp	r0, #0
 196 0020 F3D1     		bne	.L24
 197 0022 00E0     		b	.L21
 198              	.L28:
 199              		.loc 1 560 0
 200 0024 0024     		movs	r4, #0
 201              	.LVL19:
 202              	.L21:
 203 0026 2046     		mov	r0, r4
 204 0028 38BD     		pop	{r3, r4, r5, pc}
 205              	.LVL20:
 206              	.L26:
 207 002a 0024     		movs	r4, #0
 208 002c FBE7     		b	.L21
 209              	.L30:
 210 002e 00BF     		.align	2
 211              	.L29:
 212 0030 00000000 		.word	.LANCHOR2
 213              		.cfi_endproc
 214              	.LFE19:
 216              		.section	.text.oid_md_alg_from_asn1,"ax",%progbits
 217              		.align	1
 218              		.syntax unified
 219              		.thumb
 220              		.thumb_func
 221              		.fpu fpv4-sp-d16
 223              	oid_md_alg_from_asn1:
 224              	.LFB21:
 561:C:/Users/lenovo/Desktop/liteos/Project2/BearPi_LiteOS/components/security/mbedtls/mbedtls-2.6.0/library\oid.c **** FN_OID_GET_ATTR1(mbedtls_oid_get_cipher_alg, oid_cipher_alg_t, cipher_alg, mbedtls_cipher_type_t, c
 562:C:/Users/lenovo/Desktop/liteos/Project2/BearPi_LiteOS/components/security/mbedtls/mbedtls-2.6.0/library\oid.c **** #endif /* MBEDTLS_CIPHER_C */
 563:C:/Users/lenovo/Desktop/liteos/Project2/BearPi_LiteOS/components/security/mbedtls/mbedtls-2.6.0/library\oid.c **** 
 564:C:/Users/lenovo/Desktop/liteos/Project2/BearPi_LiteOS/components/security/mbedtls/mbedtls-2.6.0/library\oid.c **** #if defined(MBEDTLS_MD_C)
 565:C:/Users/lenovo/Desktop/liteos/Project2/BearPi_LiteOS/components/security/mbedtls/mbedtls-2.6.0/library\oid.c **** /*
 566:C:/Users/lenovo/Desktop/liteos/Project2/BearPi_LiteOS/components/security/mbedtls/mbedtls-2.6.0/library\oid.c ****  * For digestAlgorithm
 567:C:/Users/lenovo/Desktop/liteos/Project2/BearPi_LiteOS/components/security/mbedtls/mbedtls-2.6.0/library\oid.c ****  */
 568:C:/Users/lenovo/Desktop/liteos/Project2/BearPi_LiteOS/components/security/mbedtls/mbedtls-2.6.0/library\oid.c **** typedef struct {
 569:C:/Users/lenovo/Desktop/liteos/Project2/BearPi_LiteOS/components/security/mbedtls/mbedtls-2.6.0/library\oid.c ****     mbedtls_oid_descriptor_t    descriptor;
 570:C:/Users/lenovo/Desktop/liteos/Project2/BearPi_LiteOS/components/security/mbedtls/mbedtls-2.6.0/library\oid.c ****     mbedtls_md_type_t           md_alg;
 571:C:/Users/lenovo/Desktop/liteos/Project2/BearPi_LiteOS/components/security/mbedtls/mbedtls-2.6.0/library\oid.c **** } oid_md_alg_t;
 572:C:/Users/lenovo/Desktop/liteos/Project2/BearPi_LiteOS/components/security/mbedtls/mbedtls-2.6.0/library\oid.c **** 
 573:C:/Users/lenovo/Desktop/liteos/Project2/BearPi_LiteOS/components/security/mbedtls/mbedtls-2.6.0/library\oid.c **** static const oid_md_alg_t oid_md_alg[] =
 574:C:/Users/lenovo/Desktop/liteos/Project2/BearPi_LiteOS/components/security/mbedtls/mbedtls-2.6.0/library\oid.c **** {
 575:C:/Users/lenovo/Desktop/liteos/Project2/BearPi_LiteOS/components/security/mbedtls/mbedtls-2.6.0/library\oid.c **** #if defined(MBEDTLS_MD2_C)
 576:C:/Users/lenovo/Desktop/liteos/Project2/BearPi_LiteOS/components/security/mbedtls/mbedtls-2.6.0/library\oid.c ****     {
 577:C:/Users/lenovo/Desktop/liteos/Project2/BearPi_LiteOS/components/security/mbedtls/mbedtls-2.6.0/library\oid.c ****         { ADD_LEN( MBEDTLS_OID_DIGEST_ALG_MD2 ),       "id-md2",       "MD2" },
 578:C:/Users/lenovo/Desktop/liteos/Project2/BearPi_LiteOS/components/security/mbedtls/mbedtls-2.6.0/library\oid.c ****         MBEDTLS_MD_MD2,
 579:C:/Users/lenovo/Desktop/liteos/Project2/BearPi_LiteOS/components/security/mbedtls/mbedtls-2.6.0/library\oid.c ****     },
 580:C:/Users/lenovo/Desktop/liteos/Project2/BearPi_LiteOS/components/security/mbedtls/mbedtls-2.6.0/library\oid.c **** #endif /* MBEDTLS_MD2_C */
 581:C:/Users/lenovo/Desktop/liteos/Project2/BearPi_LiteOS/components/security/mbedtls/mbedtls-2.6.0/library\oid.c **** #if defined(MBEDTLS_MD4_C)
ARM GAS  c:\Users\lenovo\AppData\Local\Temp\ccM87uYj.s 			page 15


 582:C:/Users/lenovo/Desktop/liteos/Project2/BearPi_LiteOS/components/security/mbedtls/mbedtls-2.6.0/library\oid.c ****     {
 583:C:/Users/lenovo/Desktop/liteos/Project2/BearPi_LiteOS/components/security/mbedtls/mbedtls-2.6.0/library\oid.c ****         { ADD_LEN( MBEDTLS_OID_DIGEST_ALG_MD4 ),       "id-md4",       "MD4" },
 584:C:/Users/lenovo/Desktop/liteos/Project2/BearPi_LiteOS/components/security/mbedtls/mbedtls-2.6.0/library\oid.c ****         MBEDTLS_MD_MD4,
 585:C:/Users/lenovo/Desktop/liteos/Project2/BearPi_LiteOS/components/security/mbedtls/mbedtls-2.6.0/library\oid.c ****     },
 586:C:/Users/lenovo/Desktop/liteos/Project2/BearPi_LiteOS/components/security/mbedtls/mbedtls-2.6.0/library\oid.c **** #endif /* MBEDTLS_MD4_C */
 587:C:/Users/lenovo/Desktop/liteos/Project2/BearPi_LiteOS/components/security/mbedtls/mbedtls-2.6.0/library\oid.c **** #if defined(MBEDTLS_MD5_C)
 588:C:/Users/lenovo/Desktop/liteos/Project2/BearPi_LiteOS/components/security/mbedtls/mbedtls-2.6.0/library\oid.c ****     {
 589:C:/Users/lenovo/Desktop/liteos/Project2/BearPi_LiteOS/components/security/mbedtls/mbedtls-2.6.0/library\oid.c ****         { ADD_LEN( MBEDTLS_OID_DIGEST_ALG_MD5 ),       "id-md5",       "MD5" },
 590:C:/Users/lenovo/Desktop/liteos/Project2/BearPi_LiteOS/components/security/mbedtls/mbedtls-2.6.0/library\oid.c ****         MBEDTLS_MD_MD5,
 591:C:/Users/lenovo/Desktop/liteos/Project2/BearPi_LiteOS/components/security/mbedtls/mbedtls-2.6.0/library\oid.c ****     },
 592:C:/Users/lenovo/Desktop/liteos/Project2/BearPi_LiteOS/components/security/mbedtls/mbedtls-2.6.0/library\oid.c **** #endif /* MBEDTLS_MD5_C */
 593:C:/Users/lenovo/Desktop/liteos/Project2/BearPi_LiteOS/components/security/mbedtls/mbedtls-2.6.0/library\oid.c **** #if defined(MBEDTLS_SHA1_C)
 594:C:/Users/lenovo/Desktop/liteos/Project2/BearPi_LiteOS/components/security/mbedtls/mbedtls-2.6.0/library\oid.c ****     {
 595:C:/Users/lenovo/Desktop/liteos/Project2/BearPi_LiteOS/components/security/mbedtls/mbedtls-2.6.0/library\oid.c ****         { ADD_LEN( MBEDTLS_OID_DIGEST_ALG_SHA1 ),      "id-sha1",      "SHA-1" },
 596:C:/Users/lenovo/Desktop/liteos/Project2/BearPi_LiteOS/components/security/mbedtls/mbedtls-2.6.0/library\oid.c ****         MBEDTLS_MD_SHA1,
 597:C:/Users/lenovo/Desktop/liteos/Project2/BearPi_LiteOS/components/security/mbedtls/mbedtls-2.6.0/library\oid.c ****     },
 598:C:/Users/lenovo/Desktop/liteos/Project2/BearPi_LiteOS/components/security/mbedtls/mbedtls-2.6.0/library\oid.c **** #endif /* MBEDTLS_SHA1_C */
 599:C:/Users/lenovo/Desktop/liteos/Project2/BearPi_LiteOS/components/security/mbedtls/mbedtls-2.6.0/library\oid.c **** #if defined(MBEDTLS_SHA256_C)
 600:C:/Users/lenovo/Desktop/liteos/Project2/BearPi_LiteOS/components/security/mbedtls/mbedtls-2.6.0/library\oid.c ****     {
 601:C:/Users/lenovo/Desktop/liteos/Project2/BearPi_LiteOS/components/security/mbedtls/mbedtls-2.6.0/library\oid.c ****         { ADD_LEN( MBEDTLS_OID_DIGEST_ALG_SHA224 ),    "id-sha224",    "SHA-224" },
 602:C:/Users/lenovo/Desktop/liteos/Project2/BearPi_LiteOS/components/security/mbedtls/mbedtls-2.6.0/library\oid.c ****         MBEDTLS_MD_SHA224,
 603:C:/Users/lenovo/Desktop/liteos/Project2/BearPi_LiteOS/components/security/mbedtls/mbedtls-2.6.0/library\oid.c ****     },
 604:C:/Users/lenovo/Desktop/liteos/Project2/BearPi_LiteOS/components/security/mbedtls/mbedtls-2.6.0/library\oid.c ****     {
 605:C:/Users/lenovo/Desktop/liteos/Project2/BearPi_LiteOS/components/security/mbedtls/mbedtls-2.6.0/library\oid.c ****         { ADD_LEN( MBEDTLS_OID_DIGEST_ALG_SHA256 ),    "id-sha256",    "SHA-256" },
 606:C:/Users/lenovo/Desktop/liteos/Project2/BearPi_LiteOS/components/security/mbedtls/mbedtls-2.6.0/library\oid.c ****         MBEDTLS_MD_SHA256,
 607:C:/Users/lenovo/Desktop/liteos/Project2/BearPi_LiteOS/components/security/mbedtls/mbedtls-2.6.0/library\oid.c ****     },
 608:C:/Users/lenovo/Desktop/liteos/Project2/BearPi_LiteOS/components/security/mbedtls/mbedtls-2.6.0/library\oid.c **** #endif /* MBEDTLS_SHA256_C */
 609:C:/Users/lenovo/Desktop/liteos/Project2/BearPi_LiteOS/components/security/mbedtls/mbedtls-2.6.0/library\oid.c **** #if defined(MBEDTLS_SHA512_C)
 610:C:/Users/lenovo/Desktop/liteos/Project2/BearPi_LiteOS/components/security/mbedtls/mbedtls-2.6.0/library\oid.c ****     {
 611:C:/Users/lenovo/Desktop/liteos/Project2/BearPi_LiteOS/components/security/mbedtls/mbedtls-2.6.0/library\oid.c ****         { ADD_LEN( MBEDTLS_OID_DIGEST_ALG_SHA384 ),    "id-sha384",    "SHA-384" },
 612:C:/Users/lenovo/Desktop/liteos/Project2/BearPi_LiteOS/components/security/mbedtls/mbedtls-2.6.0/library\oid.c ****         MBEDTLS_MD_SHA384,
 613:C:/Users/lenovo/Desktop/liteos/Project2/BearPi_LiteOS/components/security/mbedtls/mbedtls-2.6.0/library\oid.c ****     },
 614:C:/Users/lenovo/Desktop/liteos/Project2/BearPi_LiteOS/components/security/mbedtls/mbedtls-2.6.0/library\oid.c ****     {
 615:C:/Users/lenovo/Desktop/liteos/Project2/BearPi_LiteOS/components/security/mbedtls/mbedtls-2.6.0/library\oid.c ****         { ADD_LEN( MBEDTLS_OID_DIGEST_ALG_SHA512 ),    "id-sha512",    "SHA-512" },
 616:C:/Users/lenovo/Desktop/liteos/Project2/BearPi_LiteOS/components/security/mbedtls/mbedtls-2.6.0/library\oid.c ****         MBEDTLS_MD_SHA512,
 617:C:/Users/lenovo/Desktop/liteos/Project2/BearPi_LiteOS/components/security/mbedtls/mbedtls-2.6.0/library\oid.c ****     },
 618:C:/Users/lenovo/Desktop/liteos/Project2/BearPi_LiteOS/components/security/mbedtls/mbedtls-2.6.0/library\oid.c **** #endif /* MBEDTLS_SHA512_C */
 619:C:/Users/lenovo/Desktop/liteos/Project2/BearPi_LiteOS/components/security/mbedtls/mbedtls-2.6.0/library\oid.c ****     {
 620:C:/Users/lenovo/Desktop/liteos/Project2/BearPi_LiteOS/components/security/mbedtls/mbedtls-2.6.0/library\oid.c ****         { NULL, 0, NULL, NULL },
 621:C:/Users/lenovo/Desktop/liteos/Project2/BearPi_LiteOS/components/security/mbedtls/mbedtls-2.6.0/library\oid.c ****         MBEDTLS_MD_NONE,
 622:C:/Users/lenovo/Desktop/liteos/Project2/BearPi_LiteOS/components/security/mbedtls/mbedtls-2.6.0/library\oid.c ****     },
 623:C:/Users/lenovo/Desktop/liteos/Project2/BearPi_LiteOS/components/security/mbedtls/mbedtls-2.6.0/library\oid.c **** };
 624:C:/Users/lenovo/Desktop/liteos/Project2/BearPi_LiteOS/components/security/mbedtls/mbedtls-2.6.0/library\oid.c **** 
 625:C:/Users/lenovo/Desktop/liteos/Project2/BearPi_LiteOS/components/security/mbedtls/mbedtls-2.6.0/library\oid.c **** FN_OID_TYPED_FROM_ASN1(oid_md_alg_t, md_alg, oid_md_alg)
 225              		.loc 1 625 0 is_stmt 1
 226              		.cfi_startproc
 227              		@ args = 0, pretend = 0, frame = 0
 228              		@ frame_needed = 0, uses_anonymous_args = 0
 229              	.LVL21:
 230 0000 38B5     		push	{r3, r4, r5, lr}
 231              	.LCFI3:
 232              		.cfi_def_cfa_offset 16
 233              		.cfi_offset 3, -16
 234              		.cfi_offset 4, -12
 235              		.cfi_offset 5, -8
 236              		.cfi_offset 14, -4
 237              	.LVL22:
ARM GAS  c:\Users\lenovo\AppData\Local\Temp\ccM87uYj.s 			page 16


 238              		.loc 1 625 0
 239 0002 90B1     		cbz	r0, .L36
 240 0004 0546     		mov	r5, r0
 241 0006 0A4C     		ldr	r4, .L39
 242 0008 00E0     		b	.L33
 243              	.LVL23:
 244              	.L34:
 245              		.loc 1 625 0 is_stmt 0 discriminator 7
 246 000a 1434     		adds	r4, r4, #20
 247              	.LVL24:
 248              	.L33:
 249              		.loc 1 625 0 discriminator 8
 250 000c 2068     		ldr	r0, [r4]
 251 000e 48B1     		cbz	r0, .L38
 252              		.loc 1 625 0 discriminator 9
 253 0010 6368     		ldr	r3, [r4, #4]
 254 0012 6A68     		ldr	r2, [r5, #4]
 255 0014 9342     		cmp	r3, r2
 256 0016 F8D1     		bne	.L34
 257              		.loc 1 625 0 discriminator 4
 258 0018 A968     		ldr	r1, [r5, #8]
 259 001a FFF7FEFF 		bl	memcmp
 260              	.LVL25:
 261 001e 0028     		cmp	r0, #0
 262 0020 F3D1     		bne	.L34
 263 0022 00E0     		b	.L31
 264              	.L38:
 265              		.loc 1 625 0
 266 0024 0024     		movs	r4, #0
 267              	.LVL26:
 268              	.L31:
 269 0026 2046     		mov	r0, r4
 270 0028 38BD     		pop	{r3, r4, r5, pc}
 271              	.LVL27:
 272              	.L36:
 273 002a 0024     		movs	r4, #0
 274 002c FBE7     		b	.L31
 275              	.L40:
 276 002e 00BF     		.align	2
 277              	.L39:
 278 0030 00000000 		.word	.LANCHOR3
 279              		.cfi_endproc
 280              	.LFE21:
 282              		.section	.text.mbedtls_oid_get_sig_alg_desc,"ax",%progbits
 283              		.align	1
 284              		.global	mbedtls_oid_get_sig_alg_desc
 285              		.syntax unified
 286              		.thumb
 287              		.thumb_func
 288              		.fpu fpv4-sp-d16
 290              	mbedtls_oid_get_sig_alg_desc:
 291              	.LFB13:
 410:C:/Users/lenovo/Desktop/liteos/Project2/BearPi_LiteOS/components/security/mbedtls/mbedtls-2.6.0/library\oid.c **** FN_OID_GET_ATTR2(mbedtls_oid_get_sig_alg, oid_sig_alg_t, sig_alg, mbedtls_md_type_t, md_alg, mbedtl
 292              		.loc 1 410 0 is_stmt 1
 293              		.cfi_startproc
 294              		@ args = 0, pretend = 0, frame = 0
 295              		@ frame_needed = 0, uses_anonymous_args = 0
ARM GAS  c:\Users\lenovo\AppData\Local\Temp\ccM87uYj.s 			page 17


 296              	.LVL28:
 297 0000 10B5     		push	{r4, lr}
 298              	.LCFI4:
 299              		.cfi_def_cfa_offset 8
 300              		.cfi_offset 4, -8
 301              		.cfi_offset 14, -4
 302 0002 0C46     		mov	r4, r1
 410:C:/Users/lenovo/Desktop/liteos/Project2/BearPi_LiteOS/components/security/mbedtls/mbedtls-2.6.0/library\oid.c **** FN_OID_GET_ATTR2(mbedtls_oid_get_sig_alg, oid_sig_alg_t, sig_alg, mbedtls_md_type_t, md_alg, mbedtl
 303              		.loc 1 410 0
 304 0004 FFF7FEFF 		bl	oid_sig_alg_from_asn1
 305              	.LVL29:
 306 0008 18B1     		cbz	r0, .L43
 410:C:/Users/lenovo/Desktop/liteos/Project2/BearPi_LiteOS/components/security/mbedtls/mbedtls-2.6.0/library\oid.c **** FN_OID_GET_ATTR2(mbedtls_oid_get_sig_alg, oid_sig_alg_t, sig_alg, mbedtls_md_type_t, md_alg, mbedtl
 307              		.loc 1 410 0 is_stmt 0 discriminator 2
 308 000a C368     		ldr	r3, [r0, #12]
 309 000c 2360     		str	r3, [r4]
 310 000e 0020     		movs	r0, #0
 311              	.LVL30:
 312              	.L41:
 410:C:/Users/lenovo/Desktop/liteos/Project2/BearPi_LiteOS/components/security/mbedtls/mbedtls-2.6.0/library\oid.c **** FN_OID_GET_ATTR2(mbedtls_oid_get_sig_alg, oid_sig_alg_t, sig_alg, mbedtls_md_type_t, md_alg, mbedtl
 313              		.loc 1 410 0
 314 0010 10BD     		pop	{r4, pc}
 315              	.LVL31:
 316              	.L43:
 317 0012 6FF02D00 		mvn	r0, #45
 318              	.LVL32:
 319 0016 FBE7     		b	.L41
 320              		.cfi_endproc
 321              	.LFE13:
 323              		.section	.text.mbedtls_oid_get_sig_alg,"ax",%progbits
 324              		.align	1
 325              		.global	mbedtls_oid_get_sig_alg
 326              		.syntax unified
 327              		.thumb
 328              		.thumb_func
 329              		.fpu fpv4-sp-d16
 331              	mbedtls_oid_get_sig_alg:
 332              	.LFB14:
 411:C:/Users/lenovo/Desktop/liteos/Project2/BearPi_LiteOS/components/security/mbedtls/mbedtls-2.6.0/library\oid.c **** FN_OID_GET_OID_BY_ATTR2(mbedtls_oid_get_oid_by_sig_alg, oid_sig_alg_t, oid_sig_alg, mbedtls_pk_type
 333              		.loc 1 411 0 is_stmt 1
 334              		.cfi_startproc
 335              		@ args = 0, pretend = 0, frame = 0
 336              		@ frame_needed = 0, uses_anonymous_args = 0
 337              	.LVL33:
 338 0000 38B5     		push	{r3, r4, r5, lr}
 339              	.LCFI5:
 340              		.cfi_def_cfa_offset 16
 341              		.cfi_offset 3, -16
 342              		.cfi_offset 4, -12
 343              		.cfi_offset 5, -8
 344              		.cfi_offset 14, -4
 345 0002 0D46     		mov	r5, r1
 346 0004 1446     		mov	r4, r2
 411:C:/Users/lenovo/Desktop/liteos/Project2/BearPi_LiteOS/components/security/mbedtls/mbedtls-2.6.0/library\oid.c **** FN_OID_GET_OID_BY_ATTR2(mbedtls_oid_get_oid_by_sig_alg, oid_sig_alg_t, oid_sig_alg, mbedtls_pk_type
 347              		.loc 1 411 0
 348 0006 FFF7FEFF 		bl	oid_sig_alg_from_asn1
 349              	.LVL34:
ARM GAS  c:\Users\lenovo\AppData\Local\Temp\ccM87uYj.s 			page 18


 350 000a 28B1     		cbz	r0, .L47
 411:C:/Users/lenovo/Desktop/liteos/Project2/BearPi_LiteOS/components/security/mbedtls/mbedtls-2.6.0/library\oid.c **** FN_OID_GET_OID_BY_ATTR2(mbedtls_oid_get_oid_by_sig_alg, oid_sig_alg_t, oid_sig_alg, mbedtls_pk_type
 351              		.loc 1 411 0 is_stmt 0 discriminator 2
 352 000c 027C     		ldrb	r2, [r0, #16]	@ zero_extendqisi2
 353 000e 2A70     		strb	r2, [r5]
 354 0010 437C     		ldrb	r3, [r0, #17]	@ zero_extendqisi2
 355 0012 2370     		strb	r3, [r4]
 356 0014 0020     		movs	r0, #0
 357              	.LVL35:
 358              	.L45:
 411:C:/Users/lenovo/Desktop/liteos/Project2/BearPi_LiteOS/components/security/mbedtls/mbedtls-2.6.0/library\oid.c **** FN_OID_GET_OID_BY_ATTR2(mbedtls_oid_get_oid_by_sig_alg, oid_sig_alg_t, oid_sig_alg, mbedtls_pk_type
 359              		.loc 1 411 0
 360 0016 38BD     		pop	{r3, r4, r5, pc}
 361              	.LVL36:
 362              	.L47:
 363 0018 6FF02D00 		mvn	r0, #45
 364              	.LVL37:
 365 001c FBE7     		b	.L45
 366              		.cfi_endproc
 367              	.LFE14:
 369              		.section	.text.mbedtls_oid_get_oid_by_sig_alg,"ax",%progbits
 370              		.align	1
 371              		.global	mbedtls_oid_get_oid_by_sig_alg
 372              		.syntax unified
 373              		.thumb
 374              		.thumb_func
 375              		.fpu fpv4-sp-d16
 377              	mbedtls_oid_get_oid_by_sig_alg:
 378              	.LFB15:
 412:C:/Users/lenovo/Desktop/liteos/Project2/BearPi_LiteOS/components/security/mbedtls/mbedtls-2.6.0/library\oid.c **** #endif /* MBEDTLS_MD_C */
 379              		.loc 1 412 0 is_stmt 1
 380              		.cfi_startproc
 381              		@ args = 0, pretend = 0, frame = 0
 382              		@ frame_needed = 0, uses_anonymous_args = 0
 383              		@ link register save eliminated.
 384              	.LVL38:
 385 0000 70B4     		push	{r4, r5, r6}
 386              	.LCFI6:
 387              		.cfi_def_cfa_offset 12
 388              		.cfi_offset 4, -12
 389              		.cfi_offset 5, -8
 390              		.cfi_offset 6, -4
 391              	.LVL39:
 412:C:/Users/lenovo/Desktop/liteos/Project2/BearPi_LiteOS/components/security/mbedtls/mbedtls-2.6.0/library\oid.c **** #endif /* MBEDTLS_MD_C */
 392              		.loc 1 412 0
 393 0002 0A4C     		ldr	r4, .L56
 394 0004 00E0     		b	.L50
 395              	.LVL40:
 396              	.L51:
 412:C:/Users/lenovo/Desktop/liteos/Project2/BearPi_LiteOS/components/security/mbedtls/mbedtls-2.6.0/library\oid.c **** #endif /* MBEDTLS_MD_C */
 397              		.loc 1 412 0 is_stmt 0 discriminator 5
 398 0006 1434     		adds	r4, r4, #20
 399              	.LVL41:
 400              	.L50:
 412:C:/Users/lenovo/Desktop/liteos/Project2/BearPi_LiteOS/components/security/mbedtls/mbedtls-2.6.0/library\oid.c **** #endif /* MBEDTLS_MD_C */
 401              		.loc 1 412 0 discriminator 6
 402 0008 2568     		ldr	r5, [r4]
ARM GAS  c:\Users\lenovo\AppData\Local\Temp\ccM87uYj.s 			page 19


 403 000a 55B1     		cbz	r5, .L55
 412:C:/Users/lenovo/Desktop/liteos/Project2/BearPi_LiteOS/components/security/mbedtls/mbedtls-2.6.0/library\oid.c **** #endif /* MBEDTLS_MD_C */
 404              		.loc 1 412 0 discriminator 7
 405 000c 667C     		ldrb	r6, [r4, #17]	@ zero_extendqisi2
 406 000e 8642     		cmp	r6, r0
 407 0010 F9D1     		bne	.L51
 412:C:/Users/lenovo/Desktop/liteos/Project2/BearPi_LiteOS/components/security/mbedtls/mbedtls-2.6.0/library\oid.c **** #endif /* MBEDTLS_MD_C */
 408              		.loc 1 412 0 discriminator 2
 409 0012 267C     		ldrb	r6, [r4, #16]	@ zero_extendqisi2
 410 0014 8E42     		cmp	r6, r1
 411 0016 F6D1     		bne	.L51
 412:C:/Users/lenovo/Desktop/liteos/Project2/BearPi_LiteOS/components/security/mbedtls/mbedtls-2.6.0/library\oid.c **** #endif /* MBEDTLS_MD_C */
 412              		.loc 1 412 0 discriminator 4
 413 0018 1560     		str	r5, [r2]
 414 001a 6268     		ldr	r2, [r4, #4]
 415              	.LVL42:
 416 001c 1A60     		str	r2, [r3]
 417 001e 0020     		movs	r0, #0
 418              	.LVL43:
 419 0020 01E0     		b	.L49
 420              	.LVL44:
 421              	.L55:
 412:C:/Users/lenovo/Desktop/liteos/Project2/BearPi_LiteOS/components/security/mbedtls/mbedtls-2.6.0/library\oid.c **** #endif /* MBEDTLS_MD_C */
 422              		.loc 1 412 0
 423 0022 6FF02D00 		mvn	r0, #45
 424              	.LVL45:
 425              	.L49:
 426 0026 70BC     		pop	{r4, r5, r6}
 427              	.LCFI7:
 428              		.cfi_restore 6
 429              		.cfi_restore 5
 430              		.cfi_restore 4
 431              		.cfi_def_cfa_offset 0
 432              	.LVL46:
 433 0028 7047     		bx	lr
 434              	.L57:
 435 002a 00BF     		.align	2
 436              	.L56:
 437 002c 00000000 		.word	.LANCHOR0
 438              		.cfi_endproc
 439              	.LFE15:
 441              		.section	.text.mbedtls_oid_get_pk_alg,"ax",%progbits
 442              		.align	1
 443              		.global	mbedtls_oid_get_pk_alg
 444              		.syntax unified
 445              		.thumb
 446              		.thumb_func
 447              		.fpu fpv4-sp-d16
 449              	mbedtls_oid_get_pk_alg:
 450              	.LFB17:
 444:C:/Users/lenovo/Desktop/liteos/Project2/BearPi_LiteOS/components/security/mbedtls/mbedtls-2.6.0/library\oid.c **** FN_OID_GET_OID_BY_ATTR1(mbedtls_oid_get_oid_by_pk_alg, oid_pk_alg_t, oid_pk_alg, mbedtls_pk_type_t,
 451              		.loc 1 444 0 is_stmt 1
 452              		.cfi_startproc
 453              		@ args = 0, pretend = 0, frame = 0
 454              		@ frame_needed = 0, uses_anonymous_args = 0
 455              	.LVL47:
 456 0000 10B5     		push	{r4, lr}
ARM GAS  c:\Users\lenovo\AppData\Local\Temp\ccM87uYj.s 			page 20


 457              	.LCFI8:
 458              		.cfi_def_cfa_offset 8
 459              		.cfi_offset 4, -8
 460              		.cfi_offset 14, -4
 461 0002 0C46     		mov	r4, r1
 444:C:/Users/lenovo/Desktop/liteos/Project2/BearPi_LiteOS/components/security/mbedtls/mbedtls-2.6.0/library\oid.c **** FN_OID_GET_OID_BY_ATTR1(mbedtls_oid_get_oid_by_pk_alg, oid_pk_alg_t, oid_pk_alg, mbedtls_pk_type_t,
 462              		.loc 1 444 0
 463 0004 FFF7FEFF 		bl	oid_pk_alg_from_asn1
 464              	.LVL48:
 465 0008 18B1     		cbz	r0, .L60
 444:C:/Users/lenovo/Desktop/liteos/Project2/BearPi_LiteOS/components/security/mbedtls/mbedtls-2.6.0/library\oid.c **** FN_OID_GET_OID_BY_ATTR1(mbedtls_oid_get_oid_by_pk_alg, oid_pk_alg_t, oid_pk_alg, mbedtls_pk_type_t,
 466              		.loc 1 444 0 is_stmt 0 discriminator 2
 467 000a 037C     		ldrb	r3, [r0, #16]	@ zero_extendqisi2
 468 000c 2370     		strb	r3, [r4]
 469 000e 0020     		movs	r0, #0
 470              	.LVL49:
 471              	.L58:
 444:C:/Users/lenovo/Desktop/liteos/Project2/BearPi_LiteOS/components/security/mbedtls/mbedtls-2.6.0/library\oid.c **** FN_OID_GET_OID_BY_ATTR1(mbedtls_oid_get_oid_by_pk_alg, oid_pk_alg_t, oid_pk_alg, mbedtls_pk_type_t,
 472              		.loc 1 444 0
 473 0010 10BD     		pop	{r4, pc}
 474              	.LVL50:
 475              	.L60:
 476 0012 6FF02D00 		mvn	r0, #45
 477              	.LVL51:
 478 0016 FBE7     		b	.L58
 479              		.cfi_endproc
 480              	.LFE17:
 482              		.section	.text.mbedtls_oid_get_oid_by_pk_alg,"ax",%progbits
 483              		.align	1
 484              		.global	mbedtls_oid_get_oid_by_pk_alg
 485              		.syntax unified
 486              		.thumb
 487              		.thumb_func
 488              		.fpu fpv4-sp-d16
 490              	mbedtls_oid_get_oid_by_pk_alg:
 491              	.LFB18:
 445:C:/Users/lenovo/Desktop/liteos/Project2/BearPi_LiteOS/components/security/mbedtls/mbedtls-2.6.0/library\oid.c **** 
 492              		.loc 1 445 0 is_stmt 1
 493              		.cfi_startproc
 494              		@ args = 0, pretend = 0, frame = 0
 495              		@ frame_needed = 0, uses_anonymous_args = 0
 496              		@ link register save eliminated.
 497              	.LVL52:
 498 0000 30B4     		push	{r4, r5}
 499              	.LCFI9:
 500              		.cfi_def_cfa_offset 8
 501              		.cfi_offset 4, -8
 502              		.cfi_offset 5, -4
 503              	.LVL53:
 445:C:/Users/lenovo/Desktop/liteos/Project2/BearPi_LiteOS/components/security/mbedtls/mbedtls-2.6.0/library\oid.c **** 
 504              		.loc 1 445 0
 505 0002 084B     		ldr	r3, .L70
 506              	.LVL54:
 507              	.L63:
 445:C:/Users/lenovo/Desktop/liteos/Project2/BearPi_LiteOS/components/security/mbedtls/mbedtls-2.6.0/library\oid.c **** 
 508              		.loc 1 445 0 is_stmt 0 discriminator 4
 509 0004 1C68     		ldr	r4, [r3]
ARM GAS  c:\Users\lenovo\AppData\Local\Temp\ccM87uYj.s 			page 21


 510 0006 4CB1     		cbz	r4, .L68
 445:C:/Users/lenovo/Desktop/liteos/Project2/BearPi_LiteOS/components/security/mbedtls/mbedtls-2.6.0/library\oid.c **** 
 511              		.loc 1 445 0 discriminator 5
 512 0008 1D7C     		ldrb	r5, [r3, #16]	@ zero_extendqisi2
 513 000a 8542     		cmp	r5, r0
 514 000c 01D0     		beq	.L69
 445:C:/Users/lenovo/Desktop/liteos/Project2/BearPi_LiteOS/components/security/mbedtls/mbedtls-2.6.0/library\oid.c **** 
 515              		.loc 1 445 0 discriminator 3
 516 000e 1433     		adds	r3, r3, #20
 517              	.LVL55:
 518 0010 F8E7     		b	.L63
 519              	.L69:
 445:C:/Users/lenovo/Desktop/liteos/Project2/BearPi_LiteOS/components/security/mbedtls/mbedtls-2.6.0/library\oid.c **** 
 520              		.loc 1 445 0 discriminator 2
 521 0012 0C60     		str	r4, [r1]
 522 0014 5B68     		ldr	r3, [r3, #4]
 523              	.LVL56:
 524 0016 1360     		str	r3, [r2]
 525 0018 0020     		movs	r0, #0
 526              	.LVL57:
 527 001a 01E0     		b	.L62
 528              	.LVL58:
 529              	.L68:
 445:C:/Users/lenovo/Desktop/liteos/Project2/BearPi_LiteOS/components/security/mbedtls/mbedtls-2.6.0/library\oid.c **** 
 530              		.loc 1 445 0
 531 001c 6FF02D00 		mvn	r0, #45
 532              	.LVL59:
 533              	.L62:
 534 0020 30BC     		pop	{r4, r5}
 535              	.LCFI10:
 536              		.cfi_restore 5
 537              		.cfi_restore 4
 538              		.cfi_def_cfa_offset 0
 539 0022 7047     		bx	lr
 540              	.L71:
 541              		.align	2
 542              	.L70:
 543 0024 00000000 		.word	.LANCHOR1
 544              		.cfi_endproc
 545              	.LFE18:
 547              		.section	.text.mbedtls_oid_get_cipher_alg,"ax",%progbits
 548              		.align	1
 549              		.global	mbedtls_oid_get_cipher_alg
 550              		.syntax unified
 551              		.thumb
 552              		.thumb_func
 553              		.fpu fpv4-sp-d16
 555              	mbedtls_oid_get_cipher_alg:
 556              	.LFB20:
 561:C:/Users/lenovo/Desktop/liteos/Project2/BearPi_LiteOS/components/security/mbedtls/mbedtls-2.6.0/library\oid.c **** #endif /* MBEDTLS_CIPHER_C */
 557              		.loc 1 561 0 is_stmt 1
 558              		.cfi_startproc
 559              		@ args = 0, pretend = 0, frame = 0
 560              		@ frame_needed = 0, uses_anonymous_args = 0
 561              	.LVL60:
 562 0000 10B5     		push	{r4, lr}
 563              	.LCFI11:
ARM GAS  c:\Users\lenovo\AppData\Local\Temp\ccM87uYj.s 			page 22


 564              		.cfi_def_cfa_offset 8
 565              		.cfi_offset 4, -8
 566              		.cfi_offset 14, -4
 567 0002 0C46     		mov	r4, r1
 561:C:/Users/lenovo/Desktop/liteos/Project2/BearPi_LiteOS/components/security/mbedtls/mbedtls-2.6.0/library\oid.c **** #endif /* MBEDTLS_CIPHER_C */
 568              		.loc 1 561 0
 569 0004 FFF7FEFF 		bl	oid_cipher_alg_from_asn1
 570              	.LVL61:
 571 0008 18B1     		cbz	r0, .L74
 561:C:/Users/lenovo/Desktop/liteos/Project2/BearPi_LiteOS/components/security/mbedtls/mbedtls-2.6.0/library\oid.c **** #endif /* MBEDTLS_CIPHER_C */
 572              		.loc 1 561 0 is_stmt 0 discriminator 2
 573 000a 037C     		ldrb	r3, [r0, #16]	@ zero_extendqisi2
 574 000c 2370     		strb	r3, [r4]
 575 000e 0020     		movs	r0, #0
 576              	.LVL62:
 577              	.L72:
 561:C:/Users/lenovo/Desktop/liteos/Project2/BearPi_LiteOS/components/security/mbedtls/mbedtls-2.6.0/library\oid.c **** #endif /* MBEDTLS_CIPHER_C */
 578              		.loc 1 561 0
 579 0010 10BD     		pop	{r4, pc}
 580              	.LVL63:
 581              	.L74:
 582 0012 6FF02D00 		mvn	r0, #45
 583              	.LVL64:
 584 0016 FBE7     		b	.L72
 585              		.cfi_endproc
 586              	.LFE20:
 588              		.section	.text.mbedtls_oid_get_md_alg,"ax",%progbits
 589              		.align	1
 590              		.global	mbedtls_oid_get_md_alg
 591              		.syntax unified
 592              		.thumb
 593              		.thumb_func
 594              		.fpu fpv4-sp-d16
 596              	mbedtls_oid_get_md_alg:
 597              	.LFB22:
 626:C:/Users/lenovo/Desktop/liteos/Project2/BearPi_LiteOS/components/security/mbedtls/mbedtls-2.6.0/library\oid.c **** FN_OID_GET_ATTR1(mbedtls_oid_get_md_alg, oid_md_alg_t, md_alg, mbedtls_md_type_t, md_alg)
 598              		.loc 1 626 0 is_stmt 1
 599              		.cfi_startproc
 600              		@ args = 0, pretend = 0, frame = 0
 601              		@ frame_needed = 0, uses_anonymous_args = 0
 602              	.LVL65:
 603 0000 10B5     		push	{r4, lr}
 604              	.LCFI12:
 605              		.cfi_def_cfa_offset 8
 606              		.cfi_offset 4, -8
 607              		.cfi_offset 14, -4
 608 0002 0C46     		mov	r4, r1
 609              		.loc 1 626 0
 610 0004 FFF7FEFF 		bl	oid_md_alg_from_asn1
 611              	.LVL66:
 612 0008 18B1     		cbz	r0, .L78
 613              		.loc 1 626 0 is_stmt 0 discriminator 2
 614 000a 037C     		ldrb	r3, [r0, #16]	@ zero_extendqisi2
 615 000c 2370     		strb	r3, [r4]
 616 000e 0020     		movs	r0, #0
 617              	.LVL67:
 618              	.L76:
ARM GAS  c:\Users\lenovo\AppData\Local\Temp\ccM87uYj.s 			page 23


 619              		.loc 1 626 0
 620 0010 10BD     		pop	{r4, pc}
 621              	.LVL68:
 622              	.L78:
 623 0012 6FF02D00 		mvn	r0, #45
 624              	.LVL69:
 625 0016 FBE7     		b	.L76
 626              		.cfi_endproc
 627              	.LFE22:
 629              		.section	.text.mbedtls_oid_get_oid_by_md,"ax",%progbits
 630              		.align	1
 631              		.global	mbedtls_oid_get_oid_by_md
 632              		.syntax unified
 633              		.thumb
 634              		.thumb_func
 635              		.fpu fpv4-sp-d16
 637              	mbedtls_oid_get_oid_by_md:
 638              	.LFB23:
 627:C:/Users/lenovo/Desktop/liteos/Project2/BearPi_LiteOS/components/security/mbedtls/mbedtls-2.6.0/library\oid.c **** FN_OID_GET_OID_BY_ATTR1(mbedtls_oid_get_oid_by_md, oid_md_alg_t, oid_md_alg, mbedtls_md_type_t, md_
 639              		.loc 1 627 0 is_stmt 1
 640              		.cfi_startproc
 641              		@ args = 0, pretend = 0, frame = 0
 642              		@ frame_needed = 0, uses_anonymous_args = 0
 643              		@ link register save eliminated.
 644              	.LVL70:
 645 0000 30B4     		push	{r4, r5}
 646              	.LCFI13:
 647              		.cfi_def_cfa_offset 8
 648              		.cfi_offset 4, -8
 649              		.cfi_offset 5, -4
 650              	.LVL71:
 651              		.loc 1 627 0
 652 0002 084B     		ldr	r3, .L88
 653              	.LVL72:
 654              	.L81:
 655              		.loc 1 627 0 is_stmt 0 discriminator 4
 656 0004 1C68     		ldr	r4, [r3]
 657 0006 4CB1     		cbz	r4, .L86
 658              		.loc 1 627 0 discriminator 5
 659 0008 1D7C     		ldrb	r5, [r3, #16]	@ zero_extendqisi2
 660 000a 8542     		cmp	r5, r0
 661 000c 01D0     		beq	.L87
 662              		.loc 1 627 0 discriminator 3
 663 000e 1433     		adds	r3, r3, #20
 664              	.LVL73:
 665 0010 F8E7     		b	.L81
 666              	.L87:
 667              		.loc 1 627 0 discriminator 2
 668 0012 0C60     		str	r4, [r1]
 669 0014 5B68     		ldr	r3, [r3, #4]
 670              	.LVL74:
 671 0016 1360     		str	r3, [r2]
 672 0018 0020     		movs	r0, #0
 673              	.LVL75:
 674 001a 01E0     		b	.L80
 675              	.LVL76:
 676              	.L86:
ARM GAS  c:\Users\lenovo\AppData\Local\Temp\ccM87uYj.s 			page 24


 677              		.loc 1 627 0
 678 001c 6FF02D00 		mvn	r0, #45
 679              	.LVL77:
 680              	.L80:
 681 0020 30BC     		pop	{r4, r5}
 682              	.LCFI14:
 683              		.cfi_restore 5
 684              		.cfi_restore 4
 685              		.cfi_def_cfa_offset 0
 686 0022 7047     		bx	lr
 687              	.L89:
 688              		.align	2
 689              	.L88:
 690 0024 00000000 		.word	.LANCHOR3
 691              		.cfi_endproc
 692              	.LFE23:
 694              		.section	.text.mbedtls_oid_get_numeric_string,"ax",%progbits
 695              		.align	1
 696              		.global	mbedtls_oid_get_numeric_string
 697              		.syntax unified
 698              		.thumb
 699              		.thumb_func
 700              		.fpu fpv4-sp-d16
 702              	mbedtls_oid_get_numeric_string:
 703              	.LFB24:
 628:C:/Users/lenovo/Desktop/liteos/Project2/BearPi_LiteOS/components/security/mbedtls/mbedtls-2.6.0/library\oid.c **** #endif /* MBEDTLS_MD_C */
 629:C:/Users/lenovo/Desktop/liteos/Project2/BearPi_LiteOS/components/security/mbedtls/mbedtls-2.6.0/library\oid.c **** 
 630:C:/Users/lenovo/Desktop/liteos/Project2/BearPi_LiteOS/components/security/mbedtls/mbedtls-2.6.0/library\oid.c **** #if defined(MBEDTLS_PKCS12_C)
 631:C:/Users/lenovo/Desktop/liteos/Project2/BearPi_LiteOS/components/security/mbedtls/mbedtls-2.6.0/library\oid.c **** /*
 632:C:/Users/lenovo/Desktop/liteos/Project2/BearPi_LiteOS/components/security/mbedtls/mbedtls-2.6.0/library\oid.c ****  * For PKCS#12 PBEs
 633:C:/Users/lenovo/Desktop/liteos/Project2/BearPi_LiteOS/components/security/mbedtls/mbedtls-2.6.0/library\oid.c ****  */
 634:C:/Users/lenovo/Desktop/liteos/Project2/BearPi_LiteOS/components/security/mbedtls/mbedtls-2.6.0/library\oid.c **** typedef struct {
 635:C:/Users/lenovo/Desktop/liteos/Project2/BearPi_LiteOS/components/security/mbedtls/mbedtls-2.6.0/library\oid.c ****     mbedtls_oid_descriptor_t    descriptor;
 636:C:/Users/lenovo/Desktop/liteos/Project2/BearPi_LiteOS/components/security/mbedtls/mbedtls-2.6.0/library\oid.c ****     mbedtls_md_type_t           md_alg;
 637:C:/Users/lenovo/Desktop/liteos/Project2/BearPi_LiteOS/components/security/mbedtls/mbedtls-2.6.0/library\oid.c ****     mbedtls_cipher_type_t       cipher_alg;
 638:C:/Users/lenovo/Desktop/liteos/Project2/BearPi_LiteOS/components/security/mbedtls/mbedtls-2.6.0/library\oid.c **** } oid_pkcs12_pbe_alg_t;
 639:C:/Users/lenovo/Desktop/liteos/Project2/BearPi_LiteOS/components/security/mbedtls/mbedtls-2.6.0/library\oid.c **** 
 640:C:/Users/lenovo/Desktop/liteos/Project2/BearPi_LiteOS/components/security/mbedtls/mbedtls-2.6.0/library\oid.c **** static const oid_pkcs12_pbe_alg_t oid_pkcs12_pbe_alg[] =
 641:C:/Users/lenovo/Desktop/liteos/Project2/BearPi_LiteOS/components/security/mbedtls/mbedtls-2.6.0/library\oid.c **** {
 642:C:/Users/lenovo/Desktop/liteos/Project2/BearPi_LiteOS/components/security/mbedtls/mbedtls-2.6.0/library\oid.c ****     {
 643:C:/Users/lenovo/Desktop/liteos/Project2/BearPi_LiteOS/components/security/mbedtls/mbedtls-2.6.0/library\oid.c ****         { ADD_LEN( MBEDTLS_OID_PKCS12_PBE_SHA1_DES3_EDE_CBC ), "pbeWithSHAAnd3-KeyTripleDES-CBC", "
 644:C:/Users/lenovo/Desktop/liteos/Project2/BearPi_LiteOS/components/security/mbedtls/mbedtls-2.6.0/library\oid.c ****         MBEDTLS_MD_SHA1,      MBEDTLS_CIPHER_DES_EDE3_CBC,
 645:C:/Users/lenovo/Desktop/liteos/Project2/BearPi_LiteOS/components/security/mbedtls/mbedtls-2.6.0/library\oid.c ****     },
 646:C:/Users/lenovo/Desktop/liteos/Project2/BearPi_LiteOS/components/security/mbedtls/mbedtls-2.6.0/library\oid.c ****     {
 647:C:/Users/lenovo/Desktop/liteos/Project2/BearPi_LiteOS/components/security/mbedtls/mbedtls-2.6.0/library\oid.c ****         { ADD_LEN( MBEDTLS_OID_PKCS12_PBE_SHA1_DES2_EDE_CBC ), "pbeWithSHAAnd2-KeyTripleDES-CBC", "
 648:C:/Users/lenovo/Desktop/liteos/Project2/BearPi_LiteOS/components/security/mbedtls/mbedtls-2.6.0/library\oid.c ****         MBEDTLS_MD_SHA1,      MBEDTLS_CIPHER_DES_EDE_CBC,
 649:C:/Users/lenovo/Desktop/liteos/Project2/BearPi_LiteOS/components/security/mbedtls/mbedtls-2.6.0/library\oid.c ****     },
 650:C:/Users/lenovo/Desktop/liteos/Project2/BearPi_LiteOS/components/security/mbedtls/mbedtls-2.6.0/library\oid.c ****     {
 651:C:/Users/lenovo/Desktop/liteos/Project2/BearPi_LiteOS/components/security/mbedtls/mbedtls-2.6.0/library\oid.c ****         { NULL, 0, NULL, NULL },
 652:C:/Users/lenovo/Desktop/liteos/Project2/BearPi_LiteOS/components/security/mbedtls/mbedtls-2.6.0/library\oid.c ****         MBEDTLS_MD_NONE, MBEDTLS_CIPHER_NONE,
 653:C:/Users/lenovo/Desktop/liteos/Project2/BearPi_LiteOS/components/security/mbedtls/mbedtls-2.6.0/library\oid.c ****     },
 654:C:/Users/lenovo/Desktop/liteos/Project2/BearPi_LiteOS/components/security/mbedtls/mbedtls-2.6.0/library\oid.c **** };
 655:C:/Users/lenovo/Desktop/liteos/Project2/BearPi_LiteOS/components/security/mbedtls/mbedtls-2.6.0/library\oid.c **** 
 656:C:/Users/lenovo/Desktop/liteos/Project2/BearPi_LiteOS/components/security/mbedtls/mbedtls-2.6.0/library\oid.c **** FN_OID_TYPED_FROM_ASN1(oid_pkcs12_pbe_alg_t, pkcs12_pbe_alg, oid_pkcs12_pbe_alg)
 657:C:/Users/lenovo/Desktop/liteos/Project2/BearPi_LiteOS/components/security/mbedtls/mbedtls-2.6.0/library\oid.c **** FN_OID_GET_ATTR2(mbedtls_oid_get_pkcs12_pbe_alg, oid_pkcs12_pbe_alg_t, pkcs12_pbe_alg, mbedtls_md_t
 658:C:/Users/lenovo/Desktop/liteos/Project2/BearPi_LiteOS/components/security/mbedtls/mbedtls-2.6.0/library\oid.c **** #endif /* MBEDTLS_PKCS12_C */
 659:C:/Users/lenovo/Desktop/liteos/Project2/BearPi_LiteOS/components/security/mbedtls/mbedtls-2.6.0/library\oid.c **** 
ARM GAS  c:\Users\lenovo\AppData\Local\Temp\ccM87uYj.s 			page 25


 660:C:/Users/lenovo/Desktop/liteos/Project2/BearPi_LiteOS/components/security/mbedtls/mbedtls-2.6.0/library\oid.c **** #define OID_SAFE_SNPRINTF                               \
 661:C:/Users/lenovo/Desktop/liteos/Project2/BearPi_LiteOS/components/security/mbedtls/mbedtls-2.6.0/library\oid.c ****     do {                                                \
 662:C:/Users/lenovo/Desktop/liteos/Project2/BearPi_LiteOS/components/security/mbedtls/mbedtls-2.6.0/library\oid.c ****         if( ret < 0 || (size_t) ret >= n )              \
 663:C:/Users/lenovo/Desktop/liteos/Project2/BearPi_LiteOS/components/security/mbedtls/mbedtls-2.6.0/library\oid.c ****             return( MBEDTLS_ERR_OID_BUF_TOO_SMALL );    \
 664:C:/Users/lenovo/Desktop/liteos/Project2/BearPi_LiteOS/components/security/mbedtls/mbedtls-2.6.0/library\oid.c ****                                                         \
 665:C:/Users/lenovo/Desktop/liteos/Project2/BearPi_LiteOS/components/security/mbedtls/mbedtls-2.6.0/library\oid.c ****         n -= (size_t) ret;                              \
 666:C:/Users/lenovo/Desktop/liteos/Project2/BearPi_LiteOS/components/security/mbedtls/mbedtls-2.6.0/library\oid.c ****         p += (size_t) ret;                              \
 667:C:/Users/lenovo/Desktop/liteos/Project2/BearPi_LiteOS/components/security/mbedtls/mbedtls-2.6.0/library\oid.c ****     } while( 0 )
 668:C:/Users/lenovo/Desktop/liteos/Project2/BearPi_LiteOS/components/security/mbedtls/mbedtls-2.6.0/library\oid.c **** 
 669:C:/Users/lenovo/Desktop/liteos/Project2/BearPi_LiteOS/components/security/mbedtls/mbedtls-2.6.0/library\oid.c **** /* Return the x.y.z.... style numeric string for the given OID */
 670:C:/Users/lenovo/Desktop/liteos/Project2/BearPi_LiteOS/components/security/mbedtls/mbedtls-2.6.0/library\oid.c **** int mbedtls_oid_get_numeric_string( char *buf, size_t size,
 671:C:/Users/lenovo/Desktop/liteos/Project2/BearPi_LiteOS/components/security/mbedtls/mbedtls-2.6.0/library\oid.c ****                             const mbedtls_asn1_buf *oid )
 672:C:/Users/lenovo/Desktop/liteos/Project2/BearPi_LiteOS/components/security/mbedtls/mbedtls-2.6.0/library\oid.c **** {
 704              		.loc 1 672 0 is_stmt 1
 705              		.cfi_startproc
 706              		@ args = 0, pretend = 0, frame = 0
 707              		@ frame_needed = 0, uses_anonymous_args = 0
 708              	.LVL78:
 709 0000 2DE9F043 		push	{r4, r5, r6, r7, r8, r9, lr}
 710              	.LCFI15:
 711              		.cfi_def_cfa_offset 28
 712              		.cfi_offset 4, -28
 713              		.cfi_offset 5, -24
 714              		.cfi_offset 6, -20
 715              		.cfi_offset 7, -16
 716              		.cfi_offset 8, -12
 717              		.cfi_offset 9, -8
 718              		.cfi_offset 14, -4
 719 0004 83B0     		sub	sp, sp, #12
 720              	.LCFI16:
 721              		.cfi_def_cfa_offset 40
 722 0006 0646     		mov	r6, r0
 723 0008 8846     		mov	r8, r1
 724 000a 1746     		mov	r7, r2
 725              	.LVL79:
 673:C:/Users/lenovo/Desktop/liteos/Project2/BearPi_LiteOS/components/security/mbedtls/mbedtls-2.6.0/library\oid.c ****     int ret;
 674:C:/Users/lenovo/Desktop/liteos/Project2/BearPi_LiteOS/components/security/mbedtls/mbedtls-2.6.0/library\oid.c ****     size_t i, n;
 675:C:/Users/lenovo/Desktop/liteos/Project2/BearPi_LiteOS/components/security/mbedtls/mbedtls-2.6.0/library\oid.c ****     unsigned int value;
 676:C:/Users/lenovo/Desktop/liteos/Project2/BearPi_LiteOS/components/security/mbedtls/mbedtls-2.6.0/library\oid.c ****     char *p;
 677:C:/Users/lenovo/Desktop/liteos/Project2/BearPi_LiteOS/components/security/mbedtls/mbedtls-2.6.0/library\oid.c **** 
 678:C:/Users/lenovo/Desktop/liteos/Project2/BearPi_LiteOS/components/security/mbedtls/mbedtls-2.6.0/library\oid.c ****     p = buf;
 679:C:/Users/lenovo/Desktop/liteos/Project2/BearPi_LiteOS/components/security/mbedtls/mbedtls-2.6.0/library\oid.c ****     n = size;
 680:C:/Users/lenovo/Desktop/liteos/Project2/BearPi_LiteOS/components/security/mbedtls/mbedtls-2.6.0/library\oid.c **** 
 681:C:/Users/lenovo/Desktop/liteos/Project2/BearPi_LiteOS/components/security/mbedtls/mbedtls-2.6.0/library\oid.c ****     /* First byte contains first two dots */
 682:C:/Users/lenovo/Desktop/liteos/Project2/BearPi_LiteOS/components/security/mbedtls/mbedtls-2.6.0/library\oid.c ****     if( oid->len > 0 )
 726              		.loc 1 682 0
 727 000c 5368     		ldr	r3, [r2, #4]
 728 000e 002B     		cmp	r3, #0
 729 0010 3AD0     		beq	.L96
 683:C:/Users/lenovo/Desktop/liteos/Project2/BearPi_LiteOS/components/security/mbedtls/mbedtls-2.6.0/library\oid.c ****     {
 684:C:/Users/lenovo/Desktop/liteos/Project2/BearPi_LiteOS/components/security/mbedtls/mbedtls-2.6.0/library\oid.c ****         ret = mbedtls_snprintf( p, n, "%d.%d", oid->p[0] / 40, oid->p[0] % 40 );
 730              		.loc 1 684 0
 731 0012 284B     		ldr	r3, .L104
 732 0014 1C68     		ldr	r4, [r3]
 733 0016 9368     		ldr	r3, [r2, #8]
 734 0018 1A78     		ldrb	r2, [r3]	@ zero_extendqisi2
 735              	.LVL80:
ARM GAS  c:\Users\lenovo\AppData\Local\Temp\ccM87uYj.s 			page 26


 736 001a 274B     		ldr	r3, .L104+4
 737 001c A3FB0213 		umull	r1, r3, r3, r2
 738              	.LVL81:
 739 0020 5B09     		lsrs	r3, r3, #5
 740 0022 03EB8300 		add	r0, r3, r3, lsl #2
 741              	.LVL82:
 742 0026 C100     		lsls	r1, r0, #3
 743 0028 521A     		subs	r2, r2, r1
 744 002a D2B2     		uxtb	r2, r2
 745 002c 0092     		str	r2, [sp]
 746 002e 234A     		ldr	r2, .L104+8
 747 0030 4146     		mov	r1, r8
 748 0032 3046     		mov	r0, r6
 749 0034 A047     		blx	r4
 750              	.LVL83:
 685:C:/Users/lenovo/Desktop/liteos/Project2/BearPi_LiteOS/components/security/mbedtls/mbedtls-2.6.0/library\oid.c ****         OID_SAFE_SNPRINTF;
 751              		.loc 1 685 0
 752 0036 0028     		cmp	r0, #0
 753 0038 2DDB     		blt	.L97
 754              		.loc 1 685 0 is_stmt 0 discriminator 2
 755 003a 4045     		cmp	r0, r8
 756 003c 2ED2     		bcs	.L98
 757              		.loc 1 685 0 discriminator 4
 758 003e A8EB0005 		sub	r5, r8, r0
 759              	.LVL84:
 760 0042 0644     		add	r6, r6, r0
 761              	.LVL85:
 762              	.L91:
 679:C:/Users/lenovo/Desktop/liteos/Project2/BearPi_LiteOS/components/security/mbedtls/mbedtls-2.6.0/library\oid.c **** 
 763              		.loc 1 679 0 is_stmt 1 discriminator 1
 764 0044 0023     		movs	r3, #0
 765 0046 0124     		movs	r4, #1
 766 0048 00E0     		b	.L94
 767              	.LVL86:
 768              	.L93:
 686:C:/Users/lenovo/Desktop/liteos/Project2/BearPi_LiteOS/components/security/mbedtls/mbedtls-2.6.0/library\oid.c ****     }
 687:C:/Users/lenovo/Desktop/liteos/Project2/BearPi_LiteOS/components/security/mbedtls/mbedtls-2.6.0/library\oid.c **** 
 688:C:/Users/lenovo/Desktop/liteos/Project2/BearPi_LiteOS/components/security/mbedtls/mbedtls-2.6.0/library\oid.c ****     value = 0;
 689:C:/Users/lenovo/Desktop/liteos/Project2/BearPi_LiteOS/components/security/mbedtls/mbedtls-2.6.0/library\oid.c ****     for( i = 1; i < oid->len; i++ )
 769              		.loc 1 689 0 discriminator 2
 770 004a 0134     		adds	r4, r4, #1
 771              	.LVL87:
 772              	.L94:
 773              		.loc 1 689 0 is_stmt 0 discriminator 1
 774 004c 7A68     		ldr	r2, [r7, #4]
 775 004e A242     		cmp	r2, r4
 776 0050 1CD9     		bls	.L103
 690:C:/Users/lenovo/Desktop/liteos/Project2/BearPi_LiteOS/components/security/mbedtls/mbedtls-2.6.0/library\oid.c ****     {
 691:C:/Users/lenovo/Desktop/liteos/Project2/BearPi_LiteOS/components/security/mbedtls/mbedtls-2.6.0/library\oid.c ****         /* Prevent overflow in value. */
 692:C:/Users/lenovo/Desktop/liteos/Project2/BearPi_LiteOS/components/security/mbedtls/mbedtls-2.6.0/library\oid.c ****         if( ( ( value << 7 ) >> 7 ) != value )
 777              		.loc 1 692 0 is_stmt 1
 778 0052 13F07E4F 		tst	r3, #-33554432
 779 0056 24D1     		bne	.L99
 780              	.LVL88:
 693:C:/Users/lenovo/Desktop/liteos/Project2/BearPi_LiteOS/components/security/mbedtls/mbedtls-2.6.0/library\oid.c ****             return( MBEDTLS_ERR_OID_BUF_TOO_SMALL );
 694:C:/Users/lenovo/Desktop/liteos/Project2/BearPi_LiteOS/components/security/mbedtls/mbedtls-2.6.0/library\oid.c **** 
 695:C:/Users/lenovo/Desktop/liteos/Project2/BearPi_LiteOS/components/security/mbedtls/mbedtls-2.6.0/library\oid.c ****         value <<= 7;
ARM GAS  c:\Users\lenovo\AppData\Local\Temp\ccM87uYj.s 			page 27


 696:C:/Users/lenovo/Desktop/liteos/Project2/BearPi_LiteOS/components/security/mbedtls/mbedtls-2.6.0/library\oid.c ****         value += oid->p[i] & 0x7F;
 781              		.loc 1 696 0
 782 0058 BA68     		ldr	r2, [r7, #8]
 783 005a 125D     		ldrb	r2, [r2, r4]	@ zero_extendqisi2
 784 005c 02F07F01 		and	r1, r2, #127
 785 0060 01EBC313 		add	r3, r1, r3, lsl #7
 786              	.LVL89:
 697:C:/Users/lenovo/Desktop/liteos/Project2/BearPi_LiteOS/components/security/mbedtls/mbedtls-2.6.0/library\oid.c **** 
 698:C:/Users/lenovo/Desktop/liteos/Project2/BearPi_LiteOS/components/security/mbedtls/mbedtls-2.6.0/library\oid.c ****         if( !( oid->p[i] & 0x80 ) )
 787              		.loc 1 698 0
 788 0064 12F0800F 		tst	r2, #128
 789 0068 EFD1     		bne	.L93
 699:C:/Users/lenovo/Desktop/liteos/Project2/BearPi_LiteOS/components/security/mbedtls/mbedtls-2.6.0/library\oid.c ****         {
 700:C:/Users/lenovo/Desktop/liteos/Project2/BearPi_LiteOS/components/security/mbedtls/mbedtls-2.6.0/library\oid.c ****             /* Last byte */
 701:C:/Users/lenovo/Desktop/liteos/Project2/BearPi_LiteOS/components/security/mbedtls/mbedtls-2.6.0/library\oid.c ****             ret = mbedtls_snprintf( p, n, ".%d", value );
 790              		.loc 1 701 0
 791 006a 124A     		ldr	r2, .L104
 792 006c D2F80090 		ldr	r9, [r2]
 793 0070 134A     		ldr	r2, .L104+12
 794 0072 2946     		mov	r1, r5
 795 0074 3046     		mov	r0, r6
 796 0076 C847     		blx	r9
 797              	.LVL90:
 702:C:/Users/lenovo/Desktop/liteos/Project2/BearPi_LiteOS/components/security/mbedtls/mbedtls-2.6.0/library\oid.c ****             OID_SAFE_SNPRINTF;
 798              		.loc 1 702 0
 799 0078 0028     		cmp	r0, #0
 800 007a 15DB     		blt	.L100
 801              		.loc 1 702 0 is_stmt 0 discriminator 2
 802 007c A842     		cmp	r0, r5
 803 007e 16D2     		bcs	.L101
 804              		.loc 1 702 0 discriminator 4
 805 0080 2D1A     		subs	r5, r5, r0
 806              	.LVL91:
 807 0082 0644     		add	r6, r6, r0
 808              	.LVL92:
 703:C:/Users/lenovo/Desktop/liteos/Project2/BearPi_LiteOS/components/security/mbedtls/mbedtls-2.6.0/library\oid.c ****             value = 0;
 809              		.loc 1 703 0 is_stmt 1 discriminator 4
 810 0084 0023     		movs	r3, #0
 811 0086 E0E7     		b	.L93
 812              	.LVL93:
 813              	.L96:
 679:C:/Users/lenovo/Desktop/liteos/Project2/BearPi_LiteOS/components/security/mbedtls/mbedtls-2.6.0/library\oid.c **** 
 814              		.loc 1 679 0
 815 0088 0D46     		mov	r5, r1
 816 008a DBE7     		b	.L91
 817              	.LVL94:
 818              	.L103:
 704:C:/Users/lenovo/Desktop/liteos/Project2/BearPi_LiteOS/components/security/mbedtls/mbedtls-2.6.0/library\oid.c ****         }
 705:C:/Users/lenovo/Desktop/liteos/Project2/BearPi_LiteOS/components/security/mbedtls/mbedtls-2.6.0/library\oid.c ****     }
 706:C:/Users/lenovo/Desktop/liteos/Project2/BearPi_LiteOS/components/security/mbedtls/mbedtls-2.6.0/library\oid.c **** 
 707:C:/Users/lenovo/Desktop/liteos/Project2/BearPi_LiteOS/components/security/mbedtls/mbedtls-2.6.0/library\oid.c ****     return( (int) ( size - n ) );
 819              		.loc 1 707 0
 820 008c A8EB0500 		sub	r0, r8, r5
 821              	.LVL95:
 822              	.L90:
 708:C:/Users/lenovo/Desktop/liteos/Project2/BearPi_LiteOS/components/security/mbedtls/mbedtls-2.6.0/library\oid.c **** }
 823              		.loc 1 708 0
ARM GAS  c:\Users\lenovo\AppData\Local\Temp\ccM87uYj.s 			page 28


 824 0090 03B0     		add	sp, sp, #12
 825              	.LCFI17:
 826              		.cfi_remember_state
 827              		.cfi_def_cfa_offset 28
 828              		@ sp needed
 829 0092 BDE8F083 		pop	{r4, r5, r6, r7, r8, r9, pc}
 830              	.LVL96:
 831              	.L97:
 832              	.LCFI18:
 833              		.cfi_restore_state
 685:C:/Users/lenovo/Desktop/liteos/Project2/BearPi_LiteOS/components/security/mbedtls/mbedtls-2.6.0/library\oid.c ****     }
 834              		.loc 1 685 0
 835 0096 6FF00A00 		mvn	r0, #10
 836              	.LVL97:
 837 009a F9E7     		b	.L90
 838              	.LVL98:
 839              	.L98:
 840 009c 6FF00A00 		mvn	r0, #10
 841              	.LVL99:
 842 00a0 F6E7     		b	.L90
 843              	.LVL100:
 844              	.L99:
 693:C:/Users/lenovo/Desktop/liteos/Project2/BearPi_LiteOS/components/security/mbedtls/mbedtls-2.6.0/library\oid.c **** 
 845              		.loc 1 693 0
 846 00a2 6FF00A00 		mvn	r0, #10
 847 00a6 F3E7     		b	.L90
 848              	.LVL101:
 849              	.L100:
 702:C:/Users/lenovo/Desktop/liteos/Project2/BearPi_LiteOS/components/security/mbedtls/mbedtls-2.6.0/library\oid.c ****             value = 0;
 850              		.loc 1 702 0
 851 00a8 6FF00A00 		mvn	r0, #10
 852              	.LVL102:
 853 00ac F0E7     		b	.L90
 854              	.LVL103:
 855              	.L101:
 856 00ae 6FF00A00 		mvn	r0, #10
 857              	.LVL104:
 858 00b2 EDE7     		b	.L90
 859              	.L105:
 860              		.align	2
 861              	.L104:
 862 00b4 00000000 		.word	mbedtls_snprintf
 863 00b8 CDCCCCCC 		.word	-858993459
 864 00bc 00000000 		.word	.LC0
 865 00c0 08000000 		.word	.LC1
 866              		.cfi_endproc
 867              	.LFE24:
 869              		.section	.rodata.mbedtls_oid_get_numeric_string.str1.4,"aMS",%progbits,1
 870              		.align	2
 871              	.LC0:
 872 0000 25642E25 		.ascii	"%d.%d\000"
 872      6400
 873 0006 0000     		.space	2
 874              	.LC1:
 875 0008 2E256400 		.ascii	".%d\000"
 876              		.section	.rodata.oid_cipher_alg,"a",%progbits
 877              		.align	2
ARM GAS  c:\Users\lenovo\AppData\Local\Temp\ccM87uYj.s 			page 29


 878              		.set	.LANCHOR2,. + 0
 881              	oid_cipher_alg:
 882 0000 40000000 		.word	.LC8
 883 0004 05000000 		.word	5
 884 0008 48000000 		.word	.LC9
 885 000c 50000000 		.word	.LC10
 886 0010 21       		.byte	33
 887 0011 000000   		.space	3
 888 0014 58000000 		.word	.LC11
 889 0018 08000000 		.word	8
 890 001c 64000000 		.word	.LC12
 891 0020 74000000 		.word	.LC13
 892 0024 25       		.byte	37
 893 0025 000000   		.space	3
 894 0028 00000000 		.word	0
 895 002c 00000000 		.word	0
 896 0030 00000000 		.word	0
 897 0034 00000000 		.word	0
 898 0038 00       		.byte	0
 899 0039 000000   		.space	3
 900              		.section	.rodata.oid_md_alg,"a",%progbits
 901              		.align	2
 902              		.set	.LANCHOR3,. + 0
 905              	oid_md_alg:
 906 0000 00000000 		.word	.LC2
 907 0004 09000000 		.word	9
 908 0008 0C000000 		.word	.LC3
 909 000c 18000000 		.word	.LC4
 910 0010 05       		.byte	5
 911 0011 000000   		.space	3
 912 0014 20000000 		.word	.LC5
 913 0018 09000000 		.word	9
 914 001c 2C000000 		.word	.LC6
 915 0020 38000000 		.word	.LC7
 916 0024 06       		.byte	6
 917 0025 000000   		.space	3
 918 0028 00000000 		.word	0
 919 002c 00000000 		.word	0
 920 0030 00000000 		.word	0
 921 0034 00000000 		.word	0
 922 0038 00       		.byte	0
 923 0039 000000   		.space	3
 924              		.section	.rodata.oid_pk_alg,"a",%progbits
 925              		.align	2
 926              		.set	.LANCHOR1,. + 0
 929              	oid_pk_alg:
 930 0000 84000000 		.word	.LC14
 931 0004 09000000 		.word	9
 932 0008 90000000 		.word	.LC15
 933 000c A0000000 		.word	.LC16
 934 0010 01       		.byte	1
 935 0011 000000   		.space	3
 936 0014 A4000000 		.word	.LC17
 937 0018 07000000 		.word	7
 938 001c AC000000 		.word	.LC18
 939 0020 BC000000 		.word	.LC19
 940 0024 02       		.byte	2
ARM GAS  c:\Users\lenovo\AppData\Local\Temp\ccM87uYj.s 			page 30


 941 0025 000000   		.space	3
 942 0028 CC000000 		.word	.LC20
 943 002c 05000000 		.word	5
 944 0030 D4000000 		.word	.LC21
 945 0034 DC000000 		.word	.LC22
 946 0038 03       		.byte	3
 947 0039 000000   		.space	3
 948 003c 00000000 		.word	0
 949 0040 00000000 		.word	0
 950 0044 00000000 		.word	0
 951 0048 00000000 		.word	0
 952 004c 00       		.byte	0
 953 004d 000000   		.space	3
 954              		.section	.rodata.oid_sig_alg,"a",%progbits
 955              		.align	2
 956              		.set	.LANCHOR0,. + 0
 959              	oid_sig_alg:
 960 0000 EC000000 		.word	.LC23
 961 0004 09000000 		.word	9
 962 0008 F8000000 		.word	.LC24
 963 000c 10010000 		.word	.LC25
 964 0010 05       		.byte	5
 965 0011 01       		.byte	1
 966 0012 0000     		.space	2
 967 0014 24010000 		.word	.LC26
 968 0018 09000000 		.word	9
 969 001c 30010000 		.word	.LC27
 970 0020 48010000 		.word	.LC28
 971 0024 06       		.byte	6
 972 0025 01       		.byte	1
 973 0026 0000     		.space	2
 974 0028 5C010000 		.word	.LC29
 975 002c 09000000 		.word	9
 976 0030 68010000 		.word	.LC30
 977 0034 68010000 		.word	.LC30
 978 0038 00       		.byte	0
 979 0039 06       		.byte	6
 980 003a 0000     		.space	2
 981 003c 00000000 		.word	0
 982 0040 00000000 		.word	0
 983 0044 00000000 		.word	0
 984 0048 00000000 		.word	0
 985 004c 00       		.byte	0
 986 004d 00       		.byte	0
 987 004e 0000     		.space	2
 988              		.section	.rodata.str1.4,"aMS",%progbits,1
 989              		.align	2
 990              	.LC2:
 991 0000 60864801 		.ascii	"`\206H\001e\003\004\002\004\000"
 991      65030402 
 991      0400
 992 000a 0000     		.space	2
 993              	.LC3:
 994 000c 69642D73 		.ascii	"id-sha224\000"
 994      68613232 
 994      3400
 995 0016 0000     		.space	2
ARM GAS  c:\Users\lenovo\AppData\Local\Temp\ccM87uYj.s 			page 31


 996              	.LC4:
 997 0018 5348412D 		.ascii	"SHA-224\000"
 997      32323400 
 998              	.LC5:
 999 0020 60864801 		.ascii	"`\206H\001e\003\004\002\001\000"
 999      65030402 
 999      0100
 1000 002a 0000     		.space	2
 1001              	.LC6:
 1002 002c 69642D73 		.ascii	"id-sha256\000"
 1002      68613235 
 1002      3600
 1003 0036 0000     		.space	2
 1004              	.LC7:
 1005 0038 5348412D 		.ascii	"SHA-256\000"
 1005      32353600 
 1006              	.LC8:
 1007 0040 2B0E0302 		.ascii	"+\016\003\002\007\000"
 1007      0700
 1008 0046 0000     		.space	2
 1009              	.LC9:
 1010 0048 64657343 		.ascii	"desCBC\000"
 1010      424300
 1011 004f 00       		.space	1
 1012              	.LC10:
 1013 0050 4445532D 		.ascii	"DES-CBC\000"
 1013      43424300 
 1014              	.LC11:
 1015 0058 2A864886 		.ascii	"*\206H\206\367\015\003\007\000"
 1015      F70D0307 
 1015      00
 1016 0061 000000   		.space	3
 1017              	.LC12:
 1018 0064 6465732D 		.ascii	"des-ede3-cbc\000"
 1018      65646533 
 1018      2D636263 
 1018      00
 1019 0071 000000   		.space	3
 1020              	.LC13:
 1021 0074 4445532D 		.ascii	"DES-EDE3-CBC\000"
 1021      45444533 
 1021      2D434243 
 1021      00
 1022 0081 000000   		.space	3
 1023              	.LC14:
 1024 0084 2A864886 		.ascii	"*\206H\206\367\015\001\001\001\000"
 1024      F70D0101 
 1024      0100
 1025 008e 0000     		.space	2
 1026              	.LC15:
 1027 0090 72736145 		.ascii	"rsaEncryption\000"
 1027      6E637279 
 1027      7074696F 
 1027      6E00
 1028 009e 0000     		.space	2
 1029              	.LC16:
 1030 00a0 52534100 		.ascii	"RSA\000"
ARM GAS  c:\Users\lenovo\AppData\Local\Temp\ccM87uYj.s 			page 32


 1031              	.LC17:
 1032 00a4 2A8648CE 		.ascii	"*\206H\316=\002\001\000"
 1032      3D020100 
 1033              	.LC18:
 1034 00ac 69642D65 		.ascii	"id-ecPublicKey\000"
 1034      63507562 
 1034      6C69634B 
 1034      657900
 1035 00bb 00       		.space	1
 1036              	.LC19:
 1037 00bc 47656E65 		.ascii	"Generic EC key\000"
 1037      72696320 
 1037      4543206B 
 1037      657900
 1038 00cb 00       		.space	1
 1039              	.LC20:
 1040 00cc 2B810401 		.ascii	"+\201\004\001\014\000"
 1040      0C00
 1041 00d2 0000     		.space	2
 1042              	.LC21:
 1043 00d4 69642D65 		.ascii	"id-ecDH\000"
 1043      63444800 
 1044              	.LC22:
 1045 00dc 4543206B 		.ascii	"EC key for ECDH\000"
 1045      65792066 
 1045      6F722045 
 1045      43444800 
 1046              	.LC23:
 1047 00ec 2A864886 		.ascii	"*\206H\206\367\015\001\001\016\000"
 1047      F70D0101 
 1047      0E00
 1048 00f6 0000     		.space	2
 1049              	.LC24:
 1050 00f8 73686132 		.ascii	"sha224WithRSAEncryption\000"
 1050      32345769 
 1050      74685253 
 1050      41456E63 
 1050      72797074 
 1051              	.LC25:
 1052 0110 52534120 		.ascii	"RSA with SHA-224\000"
 1052      77697468 
 1052      20534841 
 1052      2D323234 
 1052      00
 1053 0121 000000   		.space	3
 1054              	.LC26:
 1055 0124 2A864886 		.ascii	"*\206H\206\367\015\001\001\013\000"
 1055      F70D0101 
 1055      0B00
 1056 012e 0000     		.space	2
 1057              	.LC27:
 1058 0130 73686132 		.ascii	"sha256WithRSAEncryption\000"
 1058      35365769 
 1058      74685253 
 1058      41456E63 
 1058      72797074 
 1059              	.LC28:
ARM GAS  c:\Users\lenovo\AppData\Local\Temp\ccM87uYj.s 			page 33


 1060 0148 52534120 		.ascii	"RSA with SHA-256\000"
 1060      77697468 
 1060      20534841 
 1060      2D323536 
 1060      00
 1061 0159 000000   		.space	3
 1062              	.LC29:
 1063 015c 2A864886 		.ascii	"*\206H\206\367\015\001\001\012\000"
 1063      F70D0101 
 1063      0A00
 1064 0166 0000     		.space	2
 1065              	.LC30:
 1066 0168 52534153 		.ascii	"RSASSA-PSS\000"
 1066      53412D50 
 1066      535300
 1067              		.text
 1068              	.Letext0:
 1069              		.file 2 "C:/Users/lenovo/Desktop/liteos/Project2/BearPi_LiteOS/components/security/mbedtls/mbedtls
 1070              		.file 3 "c:\\program files (x86)\\liteos studio\\resources\\arm-none-eabi\\lib\\gcc\\arm-none-eabi
 1071              		.file 4 "C:/Users/lenovo/Desktop/liteos/Project2/BearPi_LiteOS/components/security/mbedtls/mbedtls
 1072              		.file 5 "C:/Users/lenovo/Desktop/liteos/Project2/BearPi_LiteOS/components/security/mbedtls/mbedtls
 1073              		.file 6 "C:/Users/lenovo/Desktop/liteos/Project2/BearPi_LiteOS/components/security/mbedtls/mbedtls
 1074              		.file 7 "C:/Users/lenovo/Desktop/liteos/Project2/BearPi_LiteOS/components/security/mbedtls/mbedtls
 1075              		.file 8 "c:\\program files (x86)\\liteos studio\\resources\\arm-none-eabi\\arm-none-eabi\\include\
 1076              		.file 9 "c:\\program files (x86)\\liteos studio\\resources\\arm-none-eabi\\arm-none-eabi\\include\
 1077              		.file 10 "c:\\program files (x86)\\liteos studio\\resources\\arm-none-eabi\\arm-none-eabi\\include
 1078              		.file 11 "c:\\program files (x86)\\liteos studio\\resources\\arm-none-eabi\\arm-none-eabi\\include
 1079              		.file 12 "c:\\program files (x86)\\liteos studio\\resources\\arm-none-eabi\\arm-none-eabi\\include
 1080              		.file 13 "C:/Users/lenovo/Desktop/liteos/Project2/BearPi_LiteOS/components/security/mbedtls/mbedtl
 1081              		.file 14 "c:\\program files (x86)\\liteos studio\\resources\\arm-none-eabi\\arm-none-eabi\\include
ARM GAS  c:\Users\lenovo\AppData\Local\Temp\ccM87uYj.s 			page 34

