ARM GAS  c:\Users\lenovo\AppData\Local\Temp\ccsQTkwV.s 			page 1


   1              		.cpu cortex-m4
   2              		.eabi_attribute 27, 1
   3              		.eabi_attribute 28, 1
   4              		.eabi_attribute 20, 1
   5              		.eabi_attribute 21, 1
   6              		.eabi_attribute 23, 3
   7              		.eabi_attribute 24, 1
   8              		.eabi_attribute 25, 1
   9              		.eabi_attribute 26, 1
  10              		.eabi_attribute 30, 1
  11              		.eabi_attribute 34, 1
  12              		.eabi_attribute 18, 4
  13              		.file	"ota_crc.c"
  14              		.text
  15              	.Ltext0:
  16              		.cfi_sections	.debug_frame
  17              		.section	.text.calc_crc32,"ax",%progbits
  18              		.align	1
  19              		.global	calc_crc32
  20              		.syntax unified
  21              		.thumb
  22              		.thumb_func
  23              		.fpu fpv4-sp-d16
  25              	calc_crc32:
  26              	.LFB3:
  27              		.file 1 "C:/Users/lenovo/Desktop/liteos/Project2/BearPi_LiteOS/components/ota/utility/ota_crc.c"
   1:C:/Users/lenovo/Desktop/liteos/Project2/BearPi_LiteOS/components/ota/utility\ota_crc.c **** /*----------------------------------------------------------------------------
   2:C:/Users/lenovo/Desktop/liteos/Project2/BearPi_LiteOS/components/ota/utility\ota_crc.c ****  * Copyright (c) <2016-2018>, <Huawei Technologies Co., Ltd>
   3:C:/Users/lenovo/Desktop/liteos/Project2/BearPi_LiteOS/components/ota/utility\ota_crc.c ****  * All rights reserved.
   4:C:/Users/lenovo/Desktop/liteos/Project2/BearPi_LiteOS/components/ota/utility\ota_crc.c ****  * Redistribution and use in source and binary forms, with or without modification,
   5:C:/Users/lenovo/Desktop/liteos/Project2/BearPi_LiteOS/components/ota/utility\ota_crc.c ****  * are permitted provided that the following conditions are met:
   6:C:/Users/lenovo/Desktop/liteos/Project2/BearPi_LiteOS/components/ota/utility\ota_crc.c ****  * 1. Redistributions of source code must retain the above copyright notice, this list of
   7:C:/Users/lenovo/Desktop/liteos/Project2/BearPi_LiteOS/components/ota/utility\ota_crc.c ****  * conditions and the following disclaimer.
   8:C:/Users/lenovo/Desktop/liteos/Project2/BearPi_LiteOS/components/ota/utility\ota_crc.c ****  * 2. Redistributions in binary form must reproduce the above copyright notice, this list
   9:C:/Users/lenovo/Desktop/liteos/Project2/BearPi_LiteOS/components/ota/utility\ota_crc.c ****  * of conditions and the following disclaimer in the documentation and/or other materials
  10:C:/Users/lenovo/Desktop/liteos/Project2/BearPi_LiteOS/components/ota/utility\ota_crc.c ****  * provided with the distribution.
  11:C:/Users/lenovo/Desktop/liteos/Project2/BearPi_LiteOS/components/ota/utility\ota_crc.c ****  * 3. Neither the name of the copyright holder nor the names of its contributors may be used
  12:C:/Users/lenovo/Desktop/liteos/Project2/BearPi_LiteOS/components/ota/utility\ota_crc.c ****  * to endorse or promote products derived from this software without specific prior written
  13:C:/Users/lenovo/Desktop/liteos/Project2/BearPi_LiteOS/components/ota/utility\ota_crc.c ****  * permission.
  14:C:/Users/lenovo/Desktop/liteos/Project2/BearPi_LiteOS/components/ota/utility\ota_crc.c ****  * THIS SOFTWARE IS PROVIDED BY THE COPYRIGHT HOLDERS AND CONTRIBUTORS
  15:C:/Users/lenovo/Desktop/liteos/Project2/BearPi_LiteOS/components/ota/utility\ota_crc.c ****  * "AS IS" AND ANY EXPRESS OR IMPLIED WARRANTIES, INCLUDING, BUT NOT LIMITED TO,
  16:C:/Users/lenovo/Desktop/liteos/Project2/BearPi_LiteOS/components/ota/utility\ota_crc.c ****  * THE IMPLIED WARRANTIES OF MERCHANTABILITY AND FITNESS FOR A PARTICULAR
  17:C:/Users/lenovo/Desktop/liteos/Project2/BearPi_LiteOS/components/ota/utility\ota_crc.c ****  * PURPOSE ARE DISCLAIMED. IN NO EVENT SHALL THE COPYRIGHT HOLDER OR
  18:C:/Users/lenovo/Desktop/liteos/Project2/BearPi_LiteOS/components/ota/utility\ota_crc.c ****  * CONTRIBUTORS BE LIABLE FOR ANY DIRECT, INDIRECT, INCIDENTAL, SPECIAL,
  19:C:/Users/lenovo/Desktop/liteos/Project2/BearPi_LiteOS/components/ota/utility\ota_crc.c ****  * EXEMPLARY, OR CONSEQUENTIAL DAMAGES (INCLUDING, BUT NOT LIMITED TO,
  20:C:/Users/lenovo/Desktop/liteos/Project2/BearPi_LiteOS/components/ota/utility\ota_crc.c ****  * PROCUREMENT OF SUBSTITUTE GOODS OR SERVICES; LOSS OF USE, DATA, OR PROFITS;
  21:C:/Users/lenovo/Desktop/liteos/Project2/BearPi_LiteOS/components/ota/utility\ota_crc.c ****  * OR BUSINESS INTERRUPTION) HOWEVER CAUSED AND ON ANY THEORY OF LIABILITY,
  22:C:/Users/lenovo/Desktop/liteos/Project2/BearPi_LiteOS/components/ota/utility\ota_crc.c ****  * WHETHER IN CONTRACT, STRICT LIABILITY, OR TORT (INCLUDING NEGLIGENCE OR
  23:C:/Users/lenovo/Desktop/liteos/Project2/BearPi_LiteOS/components/ota/utility\ota_crc.c ****  * OTHERWISE) ARISING IN ANY WAY OUT OF THE USE OF THIS SOFTWARE, EVEN IF
  24:C:/Users/lenovo/Desktop/liteos/Project2/BearPi_LiteOS/components/ota/utility\ota_crc.c ****  * ADVISED OF THE POSSIBILITY OF SUCH DAMAGE.
  25:C:/Users/lenovo/Desktop/liteos/Project2/BearPi_LiteOS/components/ota/utility\ota_crc.c ****  *---------------------------------------------------------------------------*/
  26:C:/Users/lenovo/Desktop/liteos/Project2/BearPi_LiteOS/components/ota/utility\ota_crc.c **** /*----------------------------------------------------------------------------
  27:C:/Users/lenovo/Desktop/liteos/Project2/BearPi_LiteOS/components/ota/utility\ota_crc.c ****  * Notice of Export Control Law
  28:C:/Users/lenovo/Desktop/liteos/Project2/BearPi_LiteOS/components/ota/utility\ota_crc.c ****  * ===============================================
  29:C:/Users/lenovo/Desktop/liteos/Project2/BearPi_LiteOS/components/ota/utility\ota_crc.c ****  * Huawei LiteOS may be subject to applicable export control laws and regulations, which might
  30:C:/Users/lenovo/Desktop/liteos/Project2/BearPi_LiteOS/components/ota/utility\ota_crc.c ****  * include those applicable to Huawei LiteOS of U.S. and the country in which you are located.
  31:C:/Users/lenovo/Desktop/liteos/Project2/BearPi_LiteOS/components/ota/utility\ota_crc.c ****  * Import, export and usage of Huawei LiteOS in any manner by you shall be in compliance with such
ARM GAS  c:\Users\lenovo\AppData\Local\Temp\ccsQTkwV.s 			page 2


  32:C:/Users/lenovo/Desktop/liteos/Project2/BearPi_LiteOS/components/ota/utility\ota_crc.c ****  * applicable export control laws and regulations.
  33:C:/Users/lenovo/Desktop/liteos/Project2/BearPi_LiteOS/components/ota/utility\ota_crc.c ****  *---------------------------------------------------------------------------*/
  34:C:/Users/lenovo/Desktop/liteos/Project2/BearPi_LiteOS/components/ota/utility\ota_crc.c **** 
  35:C:/Users/lenovo/Desktop/liteos/Project2/BearPi_LiteOS/components/ota/utility\ota_crc.c **** #include <stdio.h>
  36:C:/Users/lenovo/Desktop/liteos/Project2/BearPi_LiteOS/components/ota/utility\ota_crc.c **** #include "ota_crc.h"
  37:C:/Users/lenovo/Desktop/liteos/Project2/BearPi_LiteOS/components/ota/utility\ota_crc.c **** 
  38:C:/Users/lenovo/Desktop/liteos/Project2/BearPi_LiteOS/components/ota/utility\ota_crc.c **** static const uint32_t crc_table[256] =
  39:C:/Users/lenovo/Desktop/liteos/Project2/BearPi_LiteOS/components/ota/utility\ota_crc.c **** {
  40:C:/Users/lenovo/Desktop/liteos/Project2/BearPi_LiteOS/components/ota/utility\ota_crc.c ****     0x00000000, 0x77073096, 0xee0e612c, 0x990951ba, 0x076dc419,
  41:C:/Users/lenovo/Desktop/liteos/Project2/BearPi_LiteOS/components/ota/utility\ota_crc.c ****     0x706af48f, 0xe963a535, 0x9e6495a3, 0x0edb8832, 0x79dcb8a4,
  42:C:/Users/lenovo/Desktop/liteos/Project2/BearPi_LiteOS/components/ota/utility\ota_crc.c ****     0xe0d5e91e, 0x97d2d988, 0x09b64c2b, 0x7eb17cbd, 0xe7b82d07,
  43:C:/Users/lenovo/Desktop/liteos/Project2/BearPi_LiteOS/components/ota/utility\ota_crc.c ****     0x90bf1d91, 0x1db71064, 0x6ab020f2, 0xf3b97148, 0x84be41de,
  44:C:/Users/lenovo/Desktop/liteos/Project2/BearPi_LiteOS/components/ota/utility\ota_crc.c ****     0x1adad47d, 0x6ddde4eb, 0xf4d4b551, 0x83d385c7, 0x136c9856,
  45:C:/Users/lenovo/Desktop/liteos/Project2/BearPi_LiteOS/components/ota/utility\ota_crc.c ****     0x646ba8c0, 0xfd62f97a, 0x8a65c9ec, 0x14015c4f, 0x63066cd9,
  46:C:/Users/lenovo/Desktop/liteos/Project2/BearPi_LiteOS/components/ota/utility\ota_crc.c ****     0xfa0f3d63, 0x8d080df5, 0x3b6e20c8, 0x4c69105e, 0xd56041e4,
  47:C:/Users/lenovo/Desktop/liteos/Project2/BearPi_LiteOS/components/ota/utility\ota_crc.c ****     0xa2677172, 0x3c03e4d1, 0x4b04d447, 0xd20d85fd, 0xa50ab56b,
  48:C:/Users/lenovo/Desktop/liteos/Project2/BearPi_LiteOS/components/ota/utility\ota_crc.c ****     0x35b5a8fa, 0x42b2986c, 0xdbbbc9d6, 0xacbcf940, 0x32d86ce3,
  49:C:/Users/lenovo/Desktop/liteos/Project2/BearPi_LiteOS/components/ota/utility\ota_crc.c ****     0x45df5c75, 0xdcd60dcf, 0xabd13d59, 0x26d930ac, 0x51de003a,
  50:C:/Users/lenovo/Desktop/liteos/Project2/BearPi_LiteOS/components/ota/utility\ota_crc.c ****     0xc8d75180, 0xbfd06116, 0x21b4f4b5, 0x56b3c423, 0xcfba9599,
  51:C:/Users/lenovo/Desktop/liteos/Project2/BearPi_LiteOS/components/ota/utility\ota_crc.c ****     0xb8bda50f, 0x2802b89e, 0x5f058808, 0xc60cd9b2, 0xb10be924,
  52:C:/Users/lenovo/Desktop/liteos/Project2/BearPi_LiteOS/components/ota/utility\ota_crc.c ****     0x2f6f7c87, 0x58684c11, 0xc1611dab, 0xb6662d3d, 0x76dc4190,
  53:C:/Users/lenovo/Desktop/liteos/Project2/BearPi_LiteOS/components/ota/utility\ota_crc.c ****     0x01db7106, 0x98d220bc, 0xefd5102a, 0x71b18589, 0x06b6b51f,
  54:C:/Users/lenovo/Desktop/liteos/Project2/BearPi_LiteOS/components/ota/utility\ota_crc.c ****     0x9fbfe4a5, 0xe8b8d433, 0x7807c9a2, 0x0f00f934, 0x9609a88e,
  55:C:/Users/lenovo/Desktop/liteos/Project2/BearPi_LiteOS/components/ota/utility\ota_crc.c ****     0xe10e9818, 0x7f6a0dbb, 0x086d3d2d, 0x91646c97, 0xe6635c01,
  56:C:/Users/lenovo/Desktop/liteos/Project2/BearPi_LiteOS/components/ota/utility\ota_crc.c ****     0x6b6b51f4, 0x1c6c6162, 0x856530d8, 0xf262004e, 0x6c0695ed,
  57:C:/Users/lenovo/Desktop/liteos/Project2/BearPi_LiteOS/components/ota/utility\ota_crc.c ****     0x1b01a57b, 0x8208f4c1, 0xf50fc457, 0x65b0d9c6, 0x12b7e950,
  58:C:/Users/lenovo/Desktop/liteos/Project2/BearPi_LiteOS/components/ota/utility\ota_crc.c ****     0x8bbeb8ea, 0xfcb9887c, 0x62dd1ddf, 0x15da2d49, 0x8cd37cf3,
  59:C:/Users/lenovo/Desktop/liteos/Project2/BearPi_LiteOS/components/ota/utility\ota_crc.c ****     0xfbd44c65, 0x4db26158, 0x3ab551ce, 0xa3bc0074, 0xd4bb30e2,
  60:C:/Users/lenovo/Desktop/liteos/Project2/BearPi_LiteOS/components/ota/utility\ota_crc.c ****     0x4adfa541, 0x3dd895d7, 0xa4d1c46d, 0xd3d6f4fb, 0x4369e96a,
  61:C:/Users/lenovo/Desktop/liteos/Project2/BearPi_LiteOS/components/ota/utility\ota_crc.c ****     0x346ed9fc, 0xad678846, 0xda60b8d0, 0x44042d73, 0x33031de5,
  62:C:/Users/lenovo/Desktop/liteos/Project2/BearPi_LiteOS/components/ota/utility\ota_crc.c ****     0xaa0a4c5f, 0xdd0d7cc9, 0x5005713c, 0x270241aa, 0xbe0b1010,
  63:C:/Users/lenovo/Desktop/liteos/Project2/BearPi_LiteOS/components/ota/utility\ota_crc.c ****     0xc90c2086, 0x5768b525, 0x206f85b3, 0xb966d409, 0xce61e49f,
  64:C:/Users/lenovo/Desktop/liteos/Project2/BearPi_LiteOS/components/ota/utility\ota_crc.c ****     0x5edef90e, 0x29d9c998, 0xb0d09822, 0xc7d7a8b4, 0x59b33d17,
  65:C:/Users/lenovo/Desktop/liteos/Project2/BearPi_LiteOS/components/ota/utility\ota_crc.c ****     0x2eb40d81, 0xb7bd5c3b, 0xc0ba6cad, 0xedb88320, 0x9abfb3b6,
  66:C:/Users/lenovo/Desktop/liteos/Project2/BearPi_LiteOS/components/ota/utility\ota_crc.c ****     0x03b6e20c, 0x74b1d29a, 0xead54739, 0x9dd277af, 0x04db2615,
  67:C:/Users/lenovo/Desktop/liteos/Project2/BearPi_LiteOS/components/ota/utility\ota_crc.c ****     0x73dc1683, 0xe3630b12, 0x94643b84, 0x0d6d6a3e, 0x7a6a5aa8,
  68:C:/Users/lenovo/Desktop/liteos/Project2/BearPi_LiteOS/components/ota/utility\ota_crc.c ****     0xe40ecf0b, 0x9309ff9d, 0x0a00ae27, 0x7d079eb1, 0xf00f9344,
  69:C:/Users/lenovo/Desktop/liteos/Project2/BearPi_LiteOS/components/ota/utility\ota_crc.c ****     0x8708a3d2, 0x1e01f268, 0x6906c2fe, 0xf762575d, 0x806567cb,
  70:C:/Users/lenovo/Desktop/liteos/Project2/BearPi_LiteOS/components/ota/utility\ota_crc.c ****     0x196c3671, 0x6e6b06e7, 0xfed41b76, 0x89d32be0, 0x10da7a5a,
  71:C:/Users/lenovo/Desktop/liteos/Project2/BearPi_LiteOS/components/ota/utility\ota_crc.c ****     0x67dd4acc, 0xf9b9df6f, 0x8ebeeff9, 0x17b7be43, 0x60b08ed5,
  72:C:/Users/lenovo/Desktop/liteos/Project2/BearPi_LiteOS/components/ota/utility\ota_crc.c ****     0xd6d6a3e8, 0xa1d1937e, 0x38d8c2c4, 0x4fdff252, 0xd1bb67f1,
  73:C:/Users/lenovo/Desktop/liteos/Project2/BearPi_LiteOS/components/ota/utility\ota_crc.c ****     0xa6bc5767, 0x3fb506dd, 0x48b2364b, 0xd80d2bda, 0xaf0a1b4c,
  74:C:/Users/lenovo/Desktop/liteos/Project2/BearPi_LiteOS/components/ota/utility\ota_crc.c ****     0x36034af6, 0x41047a60, 0xdf60efc3, 0xa867df55, 0x316e8eef,
  75:C:/Users/lenovo/Desktop/liteos/Project2/BearPi_LiteOS/components/ota/utility\ota_crc.c ****     0x4669be79, 0xcb61b38c, 0xbc66831a, 0x256fd2a0, 0x5268e236,
  76:C:/Users/lenovo/Desktop/liteos/Project2/BearPi_LiteOS/components/ota/utility\ota_crc.c ****     0xcc0c7795, 0xbb0b4703, 0x220216b9, 0x5505262f, 0xc5ba3bbe,
  77:C:/Users/lenovo/Desktop/liteos/Project2/BearPi_LiteOS/components/ota/utility\ota_crc.c ****     0xb2bd0b28, 0x2bb45a92, 0x5cb36a04, 0xc2d7ffa7, 0xb5d0cf31,
  78:C:/Users/lenovo/Desktop/liteos/Project2/BearPi_LiteOS/components/ota/utility\ota_crc.c ****     0x2cd99e8b, 0x5bdeae1d, 0x9b64c2b0, 0xec63f226, 0x756aa39c,
  79:C:/Users/lenovo/Desktop/liteos/Project2/BearPi_LiteOS/components/ota/utility\ota_crc.c ****     0x026d930a, 0x9c0906a9, 0xeb0e363f, 0x72076785, 0x05005713,
  80:C:/Users/lenovo/Desktop/liteos/Project2/BearPi_LiteOS/components/ota/utility\ota_crc.c ****     0x95bf4a82, 0xe2b87a14, 0x7bb12bae, 0x0cb61b38, 0x92d28e9b,
  81:C:/Users/lenovo/Desktop/liteos/Project2/BearPi_LiteOS/components/ota/utility\ota_crc.c ****     0xe5d5be0d, 0x7cdcefb7, 0x0bdbdf21, 0x86d3d2d4, 0xf1d4e242,
  82:C:/Users/lenovo/Desktop/liteos/Project2/BearPi_LiteOS/components/ota/utility\ota_crc.c ****     0x68ddb3f8, 0x1fda836e, 0x81be16cd, 0xf6b9265b, 0x6fb077e1,
  83:C:/Users/lenovo/Desktop/liteos/Project2/BearPi_LiteOS/components/ota/utility\ota_crc.c ****     0x18b74777, 0x88085ae6, 0xff0f6a70, 0x66063bca, 0x11010b5c,
  84:C:/Users/lenovo/Desktop/liteos/Project2/BearPi_LiteOS/components/ota/utility\ota_crc.c ****     0x8f659eff, 0xf862ae69, 0x616bffd3, 0x166ccf45, 0xa00ae278,
  85:C:/Users/lenovo/Desktop/liteos/Project2/BearPi_LiteOS/components/ota/utility\ota_crc.c ****     0xd70dd2ee, 0x4e048354, 0x3903b3c2, 0xa7672661, 0xd06016f7,
  86:C:/Users/lenovo/Desktop/liteos/Project2/BearPi_LiteOS/components/ota/utility\ota_crc.c ****     0x4969474d, 0x3e6e77db, 0xaed16a4a, 0xd9d65adc, 0x40df0b66,
  87:C:/Users/lenovo/Desktop/liteos/Project2/BearPi_LiteOS/components/ota/utility\ota_crc.c ****     0x37d83bf0, 0xa9bcae53, 0xdebb9ec5, 0x47b2cf7f, 0x30b5ffe9,
  88:C:/Users/lenovo/Desktop/liteos/Project2/BearPi_LiteOS/components/ota/utility\ota_crc.c ****     0xbdbdf21c, 0xcabac28a, 0x53b39330, 0x24b4a3a6, 0xbad03605,
ARM GAS  c:\Users\lenovo\AppData\Local\Temp\ccsQTkwV.s 			page 3


  89:C:/Users/lenovo/Desktop/liteos/Project2/BearPi_LiteOS/components/ota/utility\ota_crc.c ****     0xcdd70693, 0x54de5729, 0x23d967bf, 0xb3667a2e, 0xc4614ab8,
  90:C:/Users/lenovo/Desktop/liteos/Project2/BearPi_LiteOS/components/ota/utility\ota_crc.c ****     0x5d681b02, 0x2a6f2b94, 0xb40bbe37, 0xc30c8ea1, 0x5a05df1b,
  91:C:/Users/lenovo/Desktop/liteos/Project2/BearPi_LiteOS/components/ota/utility\ota_crc.c ****     0x2d02ef8d
  92:C:/Users/lenovo/Desktop/liteos/Project2/BearPi_LiteOS/components/ota/utility\ota_crc.c **** };
  93:C:/Users/lenovo/Desktop/liteos/Project2/BearPi_LiteOS/components/ota/utility\ota_crc.c **** 
  94:C:/Users/lenovo/Desktop/liteos/Project2/BearPi_LiteOS/components/ota/utility\ota_crc.c **** uint32_t calc_crc32(uint32_t origin, const void *buf, int32_t len)
  95:C:/Users/lenovo/Desktop/liteos/Project2/BearPi_LiteOS/components/ota/utility\ota_crc.c **** {
  28              		.loc 1 95 0
  29              		.cfi_startproc
  30              		@ args = 0, pretend = 0, frame = 0
  31              		@ frame_needed = 0, uses_anonymous_args = 0
  32              		@ link register save eliminated.
  33              	.LVL0:
  96:C:/Users/lenovo/Desktop/liteos/Project2/BearPi_LiteOS/components/ota/utility\ota_crc.c ****     int i;
  97:C:/Users/lenovo/Desktop/liteos/Project2/BearPi_LiteOS/components/ota/utility\ota_crc.c ****     uint32_t crc;
  98:C:/Users/lenovo/Desktop/liteos/Project2/BearPi_LiteOS/components/ota/utility\ota_crc.c ****     const uint8_t *pbuf;
  99:C:/Users/lenovo/Desktop/liteos/Project2/BearPi_LiteOS/components/ota/utility\ota_crc.c **** 
 100:C:/Users/lenovo/Desktop/liteos/Project2/BearPi_LiteOS/components/ota/utility\ota_crc.c ****     if (NULL == buf || len < 0)
  34              		.loc 1 100 0
  35 0000 A1B1     		cbz	r1, .L5
  95:C:/Users/lenovo/Desktop/liteos/Project2/BearPi_LiteOS/components/ota/utility\ota_crc.c ****     int i;
  36              		.loc 1 95 0 discriminator 1
  37 0002 30B4     		push	{r4, r5}
  38              	.LCFI0:
  39              		.cfi_def_cfa_offset 8
  40              		.cfi_offset 4, -8
  41              		.cfi_offset 5, -4
  42 0004 0D46     		mov	r5, r1
  43              		.loc 1 100 0 discriminator 1
  44 0006 002A     		cmp	r2, #0
  45 0008 12DB     		blt	.L6
  46              	.LVL1:
 101:C:/Users/lenovo/Desktop/liteos/Project2/BearPi_LiteOS/components/ota/utility\ota_crc.c ****     {
 102:C:/Users/lenovo/Desktop/liteos/Project2/BearPi_LiteOS/components/ota/utility\ota_crc.c ****         return 0;
 103:C:/Users/lenovo/Desktop/liteos/Project2/BearPi_LiteOS/components/ota/utility\ota_crc.c ****     }
 104:C:/Users/lenovo/Desktop/liteos/Project2/BearPi_LiteOS/components/ota/utility\ota_crc.c **** 
 105:C:/Users/lenovo/Desktop/liteos/Project2/BearPi_LiteOS/components/ota/utility\ota_crc.c ****     pbuf = (const uint8_t *)buf;
 106:C:/Users/lenovo/Desktop/liteos/Project2/BearPi_LiteOS/components/ota/utility\ota_crc.c ****     crc = ~origin;
  47              		.loc 1 106 0
  48 000a C043     		mvns	r0, r0
  49              	.LVL2:
 107:C:/Users/lenovo/Desktop/liteos/Project2/BearPi_LiteOS/components/ota/utility\ota_crc.c **** 
 108:C:/Users/lenovo/Desktop/liteos/Project2/BearPi_LiteOS/components/ota/utility\ota_crc.c ****     for (i = 0; i < len; ++i)
  50              		.loc 1 108 0
  51 000c 0023     		movs	r3, #0
  52 000e 08E0     		b	.L3
  53              	.LVL3:
  54              	.L4:
 109:C:/Users/lenovo/Desktop/liteos/Project2/BearPi_LiteOS/components/ota/utility\ota_crc.c ****     {
 110:C:/Users/lenovo/Desktop/liteos/Project2/BearPi_LiteOS/components/ota/utility\ota_crc.c ****         crc = (crc >> 8) ^ crc_table[((crc & 0xff) ^ pbuf[i]) & 0xff];
  55              		.loc 1 110 0 discriminator 3
  56 0010 C1B2     		uxtb	r1, r0
  57 0012 EC5C     		ldrb	r4, [r5, r3]	@ zero_extendqisi2
  58 0014 6140     		eors	r1, r1, r4
  59 0016 074C     		ldr	r4, .L11
  60 0018 54F82110 		ldr	r1, [r4, r1, lsl #2]
  61 001c 81EA1020 		eor	r0, r1, r0, lsr #8
ARM GAS  c:\Users\lenovo\AppData\Local\Temp\ccsQTkwV.s 			page 4


  62              	.LVL4:
 108:C:/Users/lenovo/Desktop/liteos/Project2/BearPi_LiteOS/components/ota/utility\ota_crc.c ****     {
  63              		.loc 1 108 0 discriminator 3
  64 0020 0133     		adds	r3, r3, #1
  65              	.LVL5:
  66              	.L3:
 108:C:/Users/lenovo/Desktop/liteos/Project2/BearPi_LiteOS/components/ota/utility\ota_crc.c ****     {
  67              		.loc 1 108 0 is_stmt 0 discriminator 1
  68 0022 9342     		cmp	r3, r2
  69 0024 F4DB     		blt	.L4
 111:C:/Users/lenovo/Desktop/liteos/Project2/BearPi_LiteOS/components/ota/utility\ota_crc.c ****     }
 112:C:/Users/lenovo/Desktop/liteos/Project2/BearPi_LiteOS/components/ota/utility\ota_crc.c **** 
 113:C:/Users/lenovo/Desktop/liteos/Project2/BearPi_LiteOS/components/ota/utility\ota_crc.c ****     return ~crc;
  70              		.loc 1 113 0 is_stmt 1
  71 0026 C043     		mvns	r0, r0
  72              	.LVL6:
  73              	.L1:
 114:C:/Users/lenovo/Desktop/liteos/Project2/BearPi_LiteOS/components/ota/utility\ota_crc.c **** }
  74              		.loc 1 114 0
  75 0028 30BC     		pop	{r4, r5}
  76              	.LCFI1:
  77              		.cfi_restore 5
  78              		.cfi_restore 4
  79              		.cfi_def_cfa_offset 0
  80              	.LVL7:
  81 002a 7047     		bx	lr
  82              	.LVL8:
  83              	.L5:
 102:C:/Users/lenovo/Desktop/liteos/Project2/BearPi_LiteOS/components/ota/utility\ota_crc.c ****     }
  84              		.loc 1 102 0
  85 002c 0020     		movs	r0, #0
  86              	.LVL9:
  87              		.loc 1 114 0
  88 002e 7047     		bx	lr
  89              	.LVL10:
  90              	.L6:
  91              	.LCFI2:
  92              		.cfi_def_cfa_offset 8
  93              		.cfi_offset 4, -8
  94              		.cfi_offset 5, -4
 102:C:/Users/lenovo/Desktop/liteos/Project2/BearPi_LiteOS/components/ota/utility\ota_crc.c ****     }
  95              		.loc 1 102 0
  96 0030 0020     		movs	r0, #0
  97              	.LVL11:
  98 0032 F9E7     		b	.L1
  99              	.L12:
 100              		.align	2
 101              	.L11:
 102 0034 00000000 		.word	.LANCHOR0
 103              		.cfi_endproc
 104              	.LFE3:
 106              		.section	.rodata.crc_table,"a",%progbits
 107              		.align	2
 108              		.set	.LANCHOR0,. + 0
 111              	crc_table:
 112 0000 00000000 		.word	0
 113 0004 96300777 		.word	1996959894
ARM GAS  c:\Users\lenovo\AppData\Local\Temp\ccsQTkwV.s 			page 5


 114 0008 2C610EEE 		.word	-301047508
 115 000c BA510999 		.word	-1727442502
 116 0010 19C46D07 		.word	124634137
 117 0014 8FF46A70 		.word	1886057615
 118 0018 35A563E9 		.word	-379345611
 119 001c A395649E 		.word	-1637575261
 120 0020 3288DB0E 		.word	249268274
 121 0024 A4B8DC79 		.word	2044508324
 122 0028 1EE9D5E0 		.word	-522852066
 123 002c 88D9D297 		.word	-1747789432
 124 0030 2B4CB609 		.word	162941995
 125 0034 BD7CB17E 		.word	2125561021
 126 0038 072DB8E7 		.word	-407360249
 127 003c 911DBF90 		.word	-1866523247
 128 0040 6410B71D 		.word	498536548
 129 0044 F220B06A 		.word	1789927666
 130 0048 4871B9F3 		.word	-205950648
 131 004c DE41BE84 		.word	-2067906082
 132 0050 7DD4DA1A 		.word	450548861
 133 0054 EBE4DD6D 		.word	1843258603
 134 0058 51B5D4F4 		.word	-187386543
 135 005c C785D383 		.word	-2083289657
 136 0060 56986C13 		.word	325883990
 137 0064 C0A86B64 		.word	1684777152
 138 0068 7AF962FD 		.word	-43845254
 139 006c ECC9658A 		.word	-1973040660
 140 0070 4F5C0114 		.word	335633487
 141 0074 D96C0663 		.word	1661365465
 142 0078 633D0FFA 		.word	-99664541
 143 007c F50D088D 		.word	-1928851979
 144 0080 C8206E3B 		.word	997073096
 145 0084 5E10694C 		.word	1281953886
 146 0088 E44160D5 		.word	-715111964
 147 008c 727167A2 		.word	-1570279054
 148 0090 D1E4033C 		.word	1006888145
 149 0094 47D4044B 		.word	1258607687
 150 0098 FD850DD2 		.word	-770865667
 151 009c 6BB50AA5 		.word	-1526024853
 152 00a0 FAA8B535 		.word	901097722
 153 00a4 6C98B242 		.word	1119000684
 154 00a8 D6C9BBDB 		.word	-608450090
 155 00ac 40F9BCAC 		.word	-1396901568
 156 00b0 E36CD832 		.word	853044451
 157 00b4 755CDF45 		.word	1172266101
 158 00b8 CF0DD6DC 		.word	-589951537
 159 00bc 593DD1AB 		.word	-1412350631
 160 00c0 AC30D926 		.word	651767980
 161 00c4 3A00DE51 		.word	1373503546
 162 00c8 8051D7C8 		.word	-925412992
 163 00cc 1661D0BF 		.word	-1076862698
 164 00d0 B5F4B421 		.word	565507253
 165 00d4 23C4B356 		.word	1454621731
 166 00d8 9995BACF 		.word	-809855591
 167 00dc 0FA5BDB8 		.word	-1195530993
 168 00e0 9EB80228 		.word	671266974
 169 00e4 0888055F 		.word	1594198024
 170 00e8 B2D90CC6 		.word	-972236366
ARM GAS  c:\Users\lenovo\AppData\Local\Temp\ccsQTkwV.s 			page 6


 171 00ec 24E90BB1 		.word	-1324619484
 172 00f0 877C6F2F 		.word	795835527
 173 00f4 114C6858 		.word	1483230225
 174 00f8 AB1D61C1 		.word	-1050600021
 175 00fc 3D2D66B6 		.word	-1234817731
 176 0100 9041DC76 		.word	1994146192
 177 0104 0671DB01 		.word	31158534
 178 0108 BC20D298 		.word	-1731059524
 179 010c 2A10D5EF 		.word	-271249366
 180 0110 8985B171 		.word	1907459465
 181 0114 1FB5B606 		.word	112637215
 182 0118 A5E4BF9F 		.word	-1614814043
 183 011c 33D4B8E8 		.word	-390540237
 184 0120 A2C90778 		.word	2013776290
 185 0124 34F9000F 		.word	251722036
 186 0128 8EA80996 		.word	-1777751922
 187 012c 18980EE1 		.word	-519137256
 188 0130 BB0D6A7F 		.word	2137656763
 189 0134 2D3D6D08 		.word	141376813
 190 0138 976C6491 		.word	-1855689577
 191 013c 015C63E6 		.word	-429695999
 192 0140 F4516B6B 		.word	1802195444
 193 0144 62616C1C 		.word	476864866
 194 0148 D8306585 		.word	-2056965928
 195 014c 4E0062F2 		.word	-228458418
 196 0150 ED95066C 		.word	1812370925
 197 0154 7BA5011B 		.word	453092731
 198 0158 C1F40882 		.word	-2113342271
 199 015c 57C40FF5 		.word	-183516073
 200 0160 C6D9B065 		.word	1706088902
 201 0164 50E9B712 		.word	314042704
 202 0168 EAB8BE8B 		.word	-1950435094
 203 016c 7C88B9FC 		.word	-54949764
 204 0170 DF1DDD62 		.word	1658658271
 205 0174 492DDA15 		.word	366619977
 206 0178 F37CD38C 		.word	-1932296973
 207 017c 654CD4FB 		.word	-69972891
 208 0180 5861B24D 		.word	1303535960
 209 0184 CE51B53A 		.word	984961486
 210 0188 7400BCA3 		.word	-1547960204
 211 018c E230BBD4 		.word	-725929758
 212 0190 41A5DF4A 		.word	1256170817
 213 0194 D795D83D 		.word	1037604311
 214 0198 6DC4D1A4 		.word	-1529756563
 215 019c FBF4D6D3 		.word	-740887301
 216 01a0 6AE96943 		.word	1131014506
 217 01a4 FCD96E34 		.word	879679996
 218 01a8 468867AD 		.word	-1385723834
 219 01ac D0B860DA 		.word	-631195440
 220 01b0 732D0444 		.word	1141124467
 221 01b4 E51D0333 		.word	855842277
 222 01b8 5F4C0AAA 		.word	-1442165665
 223 01bc C97C0DDD 		.word	-586318647
 224 01c0 3C710550 		.word	1342533948
 225 01c4 AA410227 		.word	654459306
 226 01c8 10100BBE 		.word	-1106571248
 227 01cc 86200CC9 		.word	-921952122
ARM GAS  c:\Users\lenovo\AppData\Local\Temp\ccsQTkwV.s 			page 7


 228 01d0 25B56857 		.word	1466479909
 229 01d4 B3856F20 		.word	544179635
 230 01d8 09D466B9 		.word	-1184443383
 231 01dc 9FE461CE 		.word	-832445281
 232 01e0 0EF9DE5E 		.word	1591671054
 233 01e4 98C9D929 		.word	702138776
 234 01e8 2298D0B0 		.word	-1328506846
 235 01ec B4A8D7C7 		.word	-942167884
 236 01f0 173DB359 		.word	1504918807
 237 01f4 810DB42E 		.word	783551873
 238 01f8 3B5CBDB7 		.word	-1212326853
 239 01fc AD6CBAC0 		.word	-1061524307
 240 0200 2083B8ED 		.word	-306674912
 241 0204 B6B3BF9A 		.word	-1698712650
 242 0208 0CE2B603 		.word	62317068
 243 020c 9AD2B174 		.word	1957810842
 244 0210 3947D5EA 		.word	-355121351
 245 0214 AF77D29D 		.word	-1647151185
 246 0218 1526DB04 		.word	81470997
 247 021c 8316DC73 		.word	1943803523
 248 0220 120B63E3 		.word	-480048366
 249 0224 843B6494 		.word	-1805370492
 250 0228 3E6A6D0D 		.word	225274430
 251 022c A85A6A7A 		.word	2053790376
 252 0230 0BCF0EE4 		.word	-468791541
 253 0234 9DFF0993 		.word	-1828061283
 254 0238 27AE000A 		.word	167816743
 255 023c B19E077D 		.word	2097651377
 256 0240 44930FF0 		.word	-267414716
 257 0244 D2A30887 		.word	-2029476910
 258 0248 68F2011E 		.word	503444072
 259 024c FEC20669 		.word	1762050814
 260 0250 5D5762F7 		.word	-144550051
 261 0254 CB676580 		.word	-2140837941
 262 0258 71366C19 		.word	426522225
 263 025c E7066B6E 		.word	1852507879
 264 0260 761BD4FE 		.word	-19653770
 265 0264 E02BD389 		.word	-1982649376
 266 0268 5A7ADA10 		.word	282753626
 267 026c CC4ADD67 		.word	1742555852
 268 0270 6FDFB9F9 		.word	-105259153
 269 0274 F9EFBE8E 		.word	-1900089351
 270 0278 43BEB717 		.word	397917763
 271 027c D58EB060 		.word	1622183637
 272 0280 E8A3D6D6 		.word	-690576408
 273 0284 7E93D1A1 		.word	-1580100738
 274 0288 C4C2D838 		.word	953729732
 275 028c 52F2DF4F 		.word	1340076626
 276 0290 F167BBD1 		.word	-776247311
 277 0294 6757BCA6 		.word	-1497606297
 278 0298 DD06B53F 		.word	1068828381
 279 029c 4B36B248 		.word	1219638859
 280 02a0 DA2B0DD8 		.word	-670225446
 281 02a4 4C1B0AAF 		.word	-1358292148
 282 02a8 F64A0336 		.word	906185462
 283 02ac 607A0441 		.word	1090812512
 284 02b0 C3EF60DF 		.word	-547295293
ARM GAS  c:\Users\lenovo\AppData\Local\Temp\ccsQTkwV.s 			page 8


 285 02b4 55DF67A8 		.word	-1469587627
 286 02b8 EF8E6E31 		.word	829329135
 287 02bc 79BE6946 		.word	1181335161
 288 02c0 8CB361CB 		.word	-882789492
 289 02c4 1A8366BC 		.word	-1134132454
 290 02c8 A0D26F25 		.word	628085408
 291 02cc 36E26852 		.word	1382605366
 292 02d0 95770CCC 		.word	-871598187
 293 02d4 03470BBB 		.word	-1156888829
 294 02d8 B9160222 		.word	570562233
 295 02dc 2F260555 		.word	1426400815
 296 02e0 BE3BBAC5 		.word	-977650754
 297 02e4 280BBDB2 		.word	-1296233688
 298 02e8 925AB42B 		.word	733239954
 299 02ec 046AB35C 		.word	1555261956
 300 02f0 A7FFD7C2 		.word	-1026031705
 301 02f4 31CFD0B5 		.word	-1244606671
 302 02f8 8B9ED92C 		.word	752459403
 303 02fc 1DAEDE5B 		.word	1541320221
 304 0300 B0C2649B 		.word	-1687895376
 305 0304 26F263EC 		.word	-328994266
 306 0308 9CA36A75 		.word	1969922972
 307 030c 0A936D02 		.word	40735498
 308 0310 A906099C 		.word	-1677130071
 309 0314 3F360EEB 		.word	-351390145
 310 0318 85670772 		.word	1913087877
 311 031c 13570005 		.word	83908371
 312 0320 824ABF95 		.word	-1782625662
 313 0324 147AB8E2 		.word	-491226604
 314 0328 AE2BB17B 		.word	2075208622
 315 032c 381BB60C 		.word	213261112
 316 0330 9B8ED292 		.word	-1831694693
 317 0334 0DBED5E5 		.word	-438977011
 318 0338 B7EFDC7C 		.word	2094854071
 319 033c 21DFDB0B 		.word	198958881
 320 0340 D4D2D386 		.word	-2032938284
 321 0344 42E2D4F1 		.word	-237706686
 322 0348 F8B3DD68 		.word	1759359992
 323 034c 6E83DA1F 		.word	534414190
 324 0350 CD16BE81 		.word	-2118248755
 325 0354 5B26B9F6 		.word	-155638181
 326 0358 E177B06F 		.word	1873836001
 327 035c 7747B718 		.word	414664567
 328 0360 E65A0888 		.word	-2012718362
 329 0364 706A0FFF 		.word	-15766928
 330 0368 CA3B0666 		.word	1711684554
 331 036c 5C0B0111 		.word	285281116
 332 0370 FF9E658F 		.word	-1889165569
 333 0374 69AE62F8 		.word	-127750551
 334 0378 D3FF6B61 		.word	1634467795
 335 037c 45CF6C16 		.word	376229701
 336 0380 78E20AA0 		.word	-1609899400
 337 0384 EED20DD7 		.word	-686959890
 338 0388 5483044E 		.word	1308918612
 339 038c C2B30339 		.word	956543938
 340 0390 612667A7 		.word	-1486412191
 341 0394 F71660D0 		.word	-799009033
ARM GAS  c:\Users\lenovo\AppData\Local\Temp\ccsQTkwV.s 			page 9


 342 0398 4D476949 		.word	1231636301
 343 039c DB776E3E 		.word	1047427035
 344 03a0 4A6AD1AE 		.word	-1362007478
 345 03a4 DC5AD6D9 		.word	-640263460
 346 03a8 660BDF40 		.word	1088359270
 347 03ac F03BD837 		.word	936918000
 348 03b0 53AEBCA9 		.word	-1447252397
 349 03b4 C59EBBDE 		.word	-558129467
 350 03b8 7FCFB247 		.word	1202900863
 351 03bc E9FFB530 		.word	817233897
 352 03c0 1CF2BDBD 		.word	-1111625188
 353 03c4 8AC2BACA 		.word	-893730166
 354 03c8 3093B353 		.word	1404277552
 355 03cc A6A3B424 		.word	615818150
 356 03d0 0536D0BA 		.word	-1160759803
 357 03d4 9306D7CD 		.word	-841546093
 358 03d8 2957DE54 		.word	1423857449
 359 03dc BF67D923 		.word	601450431
 360 03e0 2E7A66B3 		.word	-1285129682
 361 03e4 B84A61C4 		.word	-1000256840
 362 03e8 021B685D 		.word	1567103746
 363 03ec 942B6F2A 		.word	711928724
 364 03f0 37BE0BB4 		.word	-1274298825
 365 03f4 A18E0CC3 		.word	-1022587231
 366 03f8 1BDF055A 		.word	1510334235
 367 03fc 8DEF022D 		.word	755167117
 368              		.text
 369              	.Letext0:
 370              		.file 2 "c:\\program files (x86)\\liteos studio\\resources\\arm-none-eabi\\arm-none-eabi\\include\
 371              		.file 3 "c:\\program files (x86)\\liteos studio\\resources\\arm-none-eabi\\arm-none-eabi\\include\
 372              		.file 4 "c:\\program files (x86)\\liteos studio\\resources\\arm-none-eabi\\arm-none-eabi\\include\
 373              		.file 5 "c:\\program files (x86)\\liteos studio\\resources\\arm-none-eabi\\lib\\gcc\\arm-none-eabi
 374              		.file 6 "c:\\program files (x86)\\liteos studio\\resources\\arm-none-eabi\\arm-none-eabi\\include\
 375              		.file 7 "c:\\program files (x86)\\liteos studio\\resources\\arm-none-eabi\\arm-none-eabi\\include\
ARM GAS  c:\Users\lenovo\AppData\Local\Temp\ccsQTkwV.s 			page 10

