ARM GAS  c:\Users\lenovo\AppData\Local\Temp\ccEBu33f.s 			page 1


   1              		.cpu cortex-m4
   2              		.eabi_attribute 27, 1
   3              		.eabi_attribute 28, 1
   4              		.eabi_attribute 20, 1
   5              		.eabi_attribute 21, 1
   6              		.eabi_attribute 23, 3
   7              		.eabi_attribute 24, 1
   8              		.eabi_attribute 25, 1
   9              		.eabi_attribute 26, 1
  10              		.eabi_attribute 30, 1
  11              		.eabi_attribute 34, 1
  12              		.eabi_attribute 18, 4
  13              		.file	"package_checksum.c"
  14              		.text
  15              	.Ltext0:
  16              		.cfi_sections	.debug_frame
  17              		.section	.text.pack_checksum_restore_checksum,"ax",%progbits
  18              		.align	1
  19              		.syntax unified
  20              		.thumb
  21              		.thumb_func
  22              		.fpu fpv4-sp-d16
  24              	pack_checksum_restore_checksum:
  25              	.LFB8:
  26              		.file 1 "C:/Users/lenovo/Desktop/liteos/Project2/BearPi_LiteOS/components/ota/package/package_chec
   1:C:/Users/lenovo/Desktop/liteos/Project2/BearPi_LiteOS/components/ota/package\package_checksum.c **** /*----------------------------------------------------------------------------
   2:C:/Users/lenovo/Desktop/liteos/Project2/BearPi_LiteOS/components/ota/package\package_checksum.c ****  * Copyright (c) <2016-2018>, <Huawei Technologies Co., Ltd>
   3:C:/Users/lenovo/Desktop/liteos/Project2/BearPi_LiteOS/components/ota/package\package_checksum.c ****  * All rights reserved.
   4:C:/Users/lenovo/Desktop/liteos/Project2/BearPi_LiteOS/components/ota/package\package_checksum.c ****  * Redistribution and use in source and binary forms, with or without modification,
   5:C:/Users/lenovo/Desktop/liteos/Project2/BearPi_LiteOS/components/ota/package\package_checksum.c ****  * are permitted provided that the following conditions are met:
   6:C:/Users/lenovo/Desktop/liteos/Project2/BearPi_LiteOS/components/ota/package\package_checksum.c ****  * 1. Redistributions of source code must retain the above copyright notice, this list of
   7:C:/Users/lenovo/Desktop/liteos/Project2/BearPi_LiteOS/components/ota/package\package_checksum.c ****  * conditions and the following disclaimer.
   8:C:/Users/lenovo/Desktop/liteos/Project2/BearPi_LiteOS/components/ota/package\package_checksum.c ****  * 2. Redistributions in binary form must reproduce the above copyright notice, this list
   9:C:/Users/lenovo/Desktop/liteos/Project2/BearPi_LiteOS/components/ota/package\package_checksum.c ****  * of conditions and the following disclaimer in the documentation and/or other materials
  10:C:/Users/lenovo/Desktop/liteos/Project2/BearPi_LiteOS/components/ota/package\package_checksum.c ****  * provided with the distribution.
  11:C:/Users/lenovo/Desktop/liteos/Project2/BearPi_LiteOS/components/ota/package\package_checksum.c ****  * 3. Neither the name of the copyright holder nor the names of its contributors may be used
  12:C:/Users/lenovo/Desktop/liteos/Project2/BearPi_LiteOS/components/ota/package\package_checksum.c ****  * to endorse or promote products derived from this software without specific prior written
  13:C:/Users/lenovo/Desktop/liteos/Project2/BearPi_LiteOS/components/ota/package\package_checksum.c ****  * permission.
  14:C:/Users/lenovo/Desktop/liteos/Project2/BearPi_LiteOS/components/ota/package\package_checksum.c ****  * THIS SOFTWARE IS PROVIDED BY THE COPYRIGHT HOLDERS AND CONTRIBUTORS
  15:C:/Users/lenovo/Desktop/liteos/Project2/BearPi_LiteOS/components/ota/package\package_checksum.c ****  * "AS IS" AND ANY EXPRESS OR IMPLIED WARRANTIES, INCLUDING, BUT NOT LIMITED TO,
  16:C:/Users/lenovo/Desktop/liteos/Project2/BearPi_LiteOS/components/ota/package\package_checksum.c ****  * THE IMPLIED WARRANTIES OF MERCHANTABILITY AND FITNESS FOR A PARTICULAR
  17:C:/Users/lenovo/Desktop/liteos/Project2/BearPi_LiteOS/components/ota/package\package_checksum.c ****  * PURPOSE ARE DISCLAIMED. IN NO EVENT SHALL THE COPYRIGHT HOLDER OR
  18:C:/Users/lenovo/Desktop/liteos/Project2/BearPi_LiteOS/components/ota/package\package_checksum.c ****  * CONTRIBUTORS BE LIABLE FOR ANY DIRECT, INDIRECT, INCIDENTAL, SPECIAL,
  19:C:/Users/lenovo/Desktop/liteos/Project2/BearPi_LiteOS/components/ota/package\package_checksum.c ****  * EXEMPLARY, OR CONSEQUENTIAL DAMAGES (INCLUDING, BUT NOT LIMITED TO,
  20:C:/Users/lenovo/Desktop/liteos/Project2/BearPi_LiteOS/components/ota/package\package_checksum.c ****  * PROCUREMENT OF SUBSTITUTE GOODS OR SERVICES; LOSS OF USE, DATA, OR PROFITS;
  21:C:/Users/lenovo/Desktop/liteos/Project2/BearPi_LiteOS/components/ota/package\package_checksum.c ****  * OR BUSINESS INTERRUPTION) HOWEVER CAUSED AND ON ANY THEORY OF LIABILITY,
  22:C:/Users/lenovo/Desktop/liteos/Project2/BearPi_LiteOS/components/ota/package\package_checksum.c ****  * WHETHER IN CONTRACT, STRICT LIABILITY, OR TORT (INCLUDING NEGLIGENCE OR
  23:C:/Users/lenovo/Desktop/liteos/Project2/BearPi_LiteOS/components/ota/package\package_checksum.c ****  * OTHERWISE) ARISING IN ANY WAY OUT OF THE USE OF THIS SOFTWARE, EVEN IF
  24:C:/Users/lenovo/Desktop/liteos/Project2/BearPi_LiteOS/components/ota/package\package_checksum.c ****  * ADVISED OF THE POSSIBILITY OF SUCH DAMAGE.
  25:C:/Users/lenovo/Desktop/liteos/Project2/BearPi_LiteOS/components/ota/package\package_checksum.c ****  *---------------------------------------------------------------------------*/
  26:C:/Users/lenovo/Desktop/liteos/Project2/BearPi_LiteOS/components/ota/package\package_checksum.c **** /*----------------------------------------------------------------------------
  27:C:/Users/lenovo/Desktop/liteos/Project2/BearPi_LiteOS/components/ota/package\package_checksum.c ****  * Notice of Export Control Law
  28:C:/Users/lenovo/Desktop/liteos/Project2/BearPi_LiteOS/components/ota/package\package_checksum.c ****  * ===============================================
  29:C:/Users/lenovo/Desktop/liteos/Project2/BearPi_LiteOS/components/ota/package\package_checksum.c ****  * Huawei LiteOS may be subject to applicable export control laws and regulations, which might
  30:C:/Users/lenovo/Desktop/liteos/Project2/BearPi_LiteOS/components/ota/package\package_checksum.c ****  * include those applicable to Huawei LiteOS of U.S. and the country in which you are located.
  31:C:/Users/lenovo/Desktop/liteos/Project2/BearPi_LiteOS/components/ota/package\package_checksum.c ****  * Import, export and usage of Huawei LiteOS in any manner by you shall be in compliance with such
  32:C:/Users/lenovo/Desktop/liteos/Project2/BearPi_LiteOS/components/ota/package\package_checksum.c ****  * applicable export control laws and regulations.
ARM GAS  c:\Users\lenovo\AppData\Local\Temp\ccEBu33f.s 			page 2


  33:C:/Users/lenovo/Desktop/liteos/Project2/BearPi_LiteOS/components/ota/package\package_checksum.c ****  *---------------------------------------------------------------------------*/
  34:C:/Users/lenovo/Desktop/liteos/Project2/BearPi_LiteOS/components/ota/package\package_checksum.c **** 
  35:C:/Users/lenovo/Desktop/liteos/Project2/BearPi_LiteOS/components/ota/package\package_checksum.c **** #include "package_checksum.h"
  36:C:/Users/lenovo/Desktop/liteos/Project2/BearPi_LiteOS/components/ota/package\package_checksum.c **** #include "package_head.h"
  37:C:/Users/lenovo/Desktop/liteos/Project2/BearPi_LiteOS/components/ota/package\package_checksum.c **** 
  38:C:/Users/lenovo/Desktop/liteos/Project2/BearPi_LiteOS/components/ota/package\package_checksum.c **** #if (PACK_CHECKSUM != PACK_NO_CHECKSUM)
  39:C:/Users/lenovo/Desktop/liteos/Project2/BearPi_LiteOS/components/ota/package\package_checksum.c **** #include <string.h>
  40:C:/Users/lenovo/Desktop/liteos/Project2/BearPi_LiteOS/components/ota/package\package_checksum.c **** 
  41:C:/Users/lenovo/Desktop/liteos/Project2/BearPi_LiteOS/components/ota/package\package_checksum.c **** #if (PACK_CHECKSUM == PACK_SHA256_RSA2048)
  42:C:/Users/lenovo/Desktop/liteos/Project2/BearPi_LiteOS/components/ota/package\package_checksum.c **** #include "opt/package_sha256_rsa2048.h"
  43:C:/Users/lenovo/Desktop/liteos/Project2/BearPi_LiteOS/components/ota/package\package_checksum.c **** #elif (PACK_CHECKSUM == PACK_SHA256)
  44:C:/Users/lenovo/Desktop/liteos/Project2/BearPi_LiteOS/components/ota/package\package_checksum.c **** #include "opt/package_sha256.h"
  45:C:/Users/lenovo/Desktop/liteos/Project2/BearPi_LiteOS/components/ota/package\package_checksum.c **** #else
  46:C:/Users/lenovo/Desktop/liteos/Project2/BearPi_LiteOS/components/ota/package\package_checksum.c **** #error PACK_CHECKSUM not define
  47:C:/Users/lenovo/Desktop/liteos/Project2/BearPi_LiteOS/components/ota/package\package_checksum.c **** #endif
  48:C:/Users/lenovo/Desktop/liteos/Project2/BearPi_LiteOS/components/ota/package\package_checksum.c **** 
  49:C:/Users/lenovo/Desktop/liteos/Project2/BearPi_LiteOS/components/ota/package\package_checksum.c **** 
  50:C:/Users/lenovo/Desktop/liteos/Project2/BearPi_LiteOS/components/ota/package\package_checksum.c **** 
  51:C:/Users/lenovo/Desktop/liteos/Project2/BearPi_LiteOS/components/ota/package\package_checksum.c **** 
  52:C:/Users/lenovo/Desktop/liteos/Project2/BearPi_LiteOS/components/ota/package\package_checksum.c **** struct pack_checksum_tag_s
  53:C:/Users/lenovo/Desktop/liteos/Project2/BearPi_LiteOS/components/ota/package\package_checksum.c **** {
  54:C:/Users/lenovo/Desktop/liteos/Project2/BearPi_LiteOS/components/ota/package\package_checksum.c ****     uint32_t offset;
  55:C:/Users/lenovo/Desktop/liteos/Project2/BearPi_LiteOS/components/ota/package\package_checksum.c ****     bool offset_flag;
  56:C:/Users/lenovo/Desktop/liteos/Project2/BearPi_LiteOS/components/ota/package\package_checksum.c ****     pack_head_s *head;
  57:C:/Users/lenovo/Desktop/liteos/Project2/BearPi_LiteOS/components/ota/package\package_checksum.c **** #if (PACK_CHECKSUM == PACK_SHA256_RSA2048)
  58:C:/Users/lenovo/Desktop/liteos/Project2/BearPi_LiteOS/components/ota/package\package_checksum.c ****     pack_sha256_rsa2048_s alg;
  59:C:/Users/lenovo/Desktop/liteos/Project2/BearPi_LiteOS/components/ota/package\package_checksum.c **** #elif (PACK_CHECKSUM == PACK_SHA256)
  60:C:/Users/lenovo/Desktop/liteos/Project2/BearPi_LiteOS/components/ota/package\package_checksum.c ****     pack_sha256_s alg;
  61:C:/Users/lenovo/Desktop/liteos/Project2/BearPi_LiteOS/components/ota/package\package_checksum.c **** #endif
  62:C:/Users/lenovo/Desktop/liteos/Project2/BearPi_LiteOS/components/ota/package\package_checksum.c **** 
  63:C:/Users/lenovo/Desktop/liteos/Project2/BearPi_LiteOS/components/ota/package\package_checksum.c **** };
  64:C:/Users/lenovo/Desktop/liteos/Project2/BearPi_LiteOS/components/ota/package\package_checksum.c **** 
  65:C:/Users/lenovo/Desktop/liteos/Project2/BearPi_LiteOS/components/ota/package\package_checksum.c **** static inline pack_checksum_alg_s *pack_checksum_get_alg(pack_checksum_s *thi)
  66:C:/Users/lenovo/Desktop/liteos/Project2/BearPi_LiteOS/components/ota/package\package_checksum.c **** {
  67:C:/Users/lenovo/Desktop/liteos/Project2/BearPi_LiteOS/components/ota/package\package_checksum.c **** #if (PACK_CHECKSUM == PACK_SHA256_RSA2048)
  68:C:/Users/lenovo/Desktop/liteos/Project2/BearPi_LiteOS/components/ota/package\package_checksum.c ****     return &thi->alg.sha256.base;
  69:C:/Users/lenovo/Desktop/liteos/Project2/BearPi_LiteOS/components/ota/package\package_checksum.c **** #elif (PACK_CHECKSUM == PACK_SHA256)
  70:C:/Users/lenovo/Desktop/liteos/Project2/BearPi_LiteOS/components/ota/package\package_checksum.c ****     return &thi->alg.base;
  71:C:/Users/lenovo/Desktop/liteos/Project2/BearPi_LiteOS/components/ota/package\package_checksum.c **** #endif
  72:C:/Users/lenovo/Desktop/liteos/Project2/BearPi_LiteOS/components/ota/package\package_checksum.c **** }
  73:C:/Users/lenovo/Desktop/liteos/Project2/BearPi_LiteOS/components/ota/package\package_checksum.c **** 
  74:C:/Users/lenovo/Desktop/liteos/Project2/BearPi_LiteOS/components/ota/package\package_checksum.c **** static void pack_checksum_init(pack_checksum_s *thi, pack_head_s *head)
  75:C:/Users/lenovo/Desktop/liteos/Project2/BearPi_LiteOS/components/ota/package\package_checksum.c **** {
  76:C:/Users/lenovo/Desktop/liteos/Project2/BearPi_LiteOS/components/ota/package\package_checksum.c ****     memset(thi, 0, sizeof(*thi));
  77:C:/Users/lenovo/Desktop/liteos/Project2/BearPi_LiteOS/components/ota/package\package_checksum.c ****     thi->head = head;
  78:C:/Users/lenovo/Desktop/liteos/Project2/BearPi_LiteOS/components/ota/package\package_checksum.c **** #if (PACK_CHECKSUM == PACK_SHA256_RSA2048)
  79:C:/Users/lenovo/Desktop/liteos/Project2/BearPi_LiteOS/components/ota/package\package_checksum.c ****     (void)pack_sha256_rsa2048_init(&thi->alg, thi->head);
  80:C:/Users/lenovo/Desktop/liteos/Project2/BearPi_LiteOS/components/ota/package\package_checksum.c **** #elif (PACK_CHECKSUM == PACK_SHA256)
  81:C:/Users/lenovo/Desktop/liteos/Project2/BearPi_LiteOS/components/ota/package\package_checksum.c ****     (void)pack_sha256_init(&thi->alg);
  82:C:/Users/lenovo/Desktop/liteos/Project2/BearPi_LiteOS/components/ota/package\package_checksum.c **** #endif
  83:C:/Users/lenovo/Desktop/liteos/Project2/BearPi_LiteOS/components/ota/package\package_checksum.c **** }
  84:C:/Users/lenovo/Desktop/liteos/Project2/BearPi_LiteOS/components/ota/package\package_checksum.c **** 
  85:C:/Users/lenovo/Desktop/liteos/Project2/BearPi_LiteOS/components/ota/package\package_checksum.c **** 
  86:C:/Users/lenovo/Desktop/liteos/Project2/BearPi_LiteOS/components/ota/package\package_checksum.c **** 
  87:C:/Users/lenovo/Desktop/liteos/Project2/BearPi_LiteOS/components/ota/package\package_checksum.c **** 
  88:C:/Users/lenovo/Desktop/liteos/Project2/BearPi_LiteOS/components/ota/package\package_checksum.c **** void pack_checksum_delete(pack_checksum_s *thi)
  89:C:/Users/lenovo/Desktop/liteos/Project2/BearPi_LiteOS/components/ota/package\package_checksum.c **** {
ARM GAS  c:\Users\lenovo\AppData\Local\Temp\ccEBu33f.s 			page 3


  90:C:/Users/lenovo/Desktop/liteos/Project2/BearPi_LiteOS/components/ota/package\package_checksum.c ****     if(NULL == thi)
  91:C:/Users/lenovo/Desktop/liteos/Project2/BearPi_LiteOS/components/ota/package\package_checksum.c ****     {
  92:C:/Users/lenovo/Desktop/liteos/Project2/BearPi_LiteOS/components/ota/package\package_checksum.c ****         return;
  93:C:/Users/lenovo/Desktop/liteos/Project2/BearPi_LiteOS/components/ota/package\package_checksum.c ****     }
  94:C:/Users/lenovo/Desktop/liteos/Project2/BearPi_LiteOS/components/ota/package\package_checksum.c ****     pack_checksum_get_alg(thi)->destroy(pack_checksum_get_alg(thi));
  95:C:/Users/lenovo/Desktop/liteos/Project2/BearPi_LiteOS/components/ota/package\package_checksum.c ****     PACK_FREE(thi);
  96:C:/Users/lenovo/Desktop/liteos/Project2/BearPi_LiteOS/components/ota/package\package_checksum.c **** }
  97:C:/Users/lenovo/Desktop/liteos/Project2/BearPi_LiteOS/components/ota/package\package_checksum.c **** 
  98:C:/Users/lenovo/Desktop/liteos/Project2/BearPi_LiteOS/components/ota/package\package_checksum.c **** static int pack_checksum_init_head_data(pack_checksum_s *thi)
  99:C:/Users/lenovo/Desktop/liteos/Project2/BearPi_LiteOS/components/ota/package\package_checksum.c **** {
 100:C:/Users/lenovo/Desktop/liteos/Project2/BearPi_LiteOS/components/ota/package\package_checksum.c ****     int32_t len;
 101:C:/Users/lenovo/Desktop/liteos/Project2/BearPi_LiteOS/components/ota/package\package_checksum.c ****     const uint8_t *buff;
 102:C:/Users/lenovo/Desktop/liteos/Project2/BearPi_LiteOS/components/ota/package\package_checksum.c **** 
 103:C:/Users/lenovo/Desktop/liteos/Project2/BearPi_LiteOS/components/ota/package\package_checksum.c ****     pack_checksum_get_alg(thi)->reset(pack_checksum_get_alg(thi));
 104:C:/Users/lenovo/Desktop/liteos/Project2/BearPi_LiteOS/components/ota/package\package_checksum.c ****     len = pack_head_get_head_len(thi->head);
 105:C:/Users/lenovo/Desktop/liteos/Project2/BearPi_LiteOS/components/ota/package\package_checksum.c ****     if(0 == len)
 106:C:/Users/lenovo/Desktop/liteos/Project2/BearPi_LiteOS/components/ota/package\package_checksum.c ****     {
 107:C:/Users/lenovo/Desktop/liteos/Project2/BearPi_LiteOS/components/ota/package\package_checksum.c ****         return PACK_OK;
 108:C:/Users/lenovo/Desktop/liteos/Project2/BearPi_LiteOS/components/ota/package\package_checksum.c ****     }
 109:C:/Users/lenovo/Desktop/liteos/Project2/BearPi_LiteOS/components/ota/package\package_checksum.c **** 
 110:C:/Users/lenovo/Desktop/liteos/Project2/BearPi_LiteOS/components/ota/package\package_checksum.c ****     buff = pack_head_get_head_info(thi->head);
 111:C:/Users/lenovo/Desktop/liteos/Project2/BearPi_LiteOS/components/ota/package\package_checksum.c ****     if(NULL == buff)
 112:C:/Users/lenovo/Desktop/liteos/Project2/BearPi_LiteOS/components/ota/package\package_checksum.c ****     {
 113:C:/Users/lenovo/Desktop/liteos/Project2/BearPi_LiteOS/components/ota/package\package_checksum.c ****         PACK_LOG("buff null");
 114:C:/Users/lenovo/Desktop/liteos/Project2/BearPi_LiteOS/components/ota/package\package_checksum.c ****         return PACK_ERR;
 115:C:/Users/lenovo/Desktop/liteos/Project2/BearPi_LiteOS/components/ota/package\package_checksum.c ****     }
 116:C:/Users/lenovo/Desktop/liteos/Project2/BearPi_LiteOS/components/ota/package\package_checksum.c **** 
 117:C:/Users/lenovo/Desktop/liteos/Project2/BearPi_LiteOS/components/ota/package\package_checksum.c ****     return pack_checksum_get_alg(thi)->update(pack_checksum_get_alg(thi), buff, len);
 118:C:/Users/lenovo/Desktop/liteos/Project2/BearPi_LiteOS/components/ota/package\package_checksum.c **** }
 119:C:/Users/lenovo/Desktop/liteos/Project2/BearPi_LiteOS/components/ota/package\package_checksum.c **** pack_checksum_s *pack_checksum_create(pack_head_s *head)
 120:C:/Users/lenovo/Desktop/liteos/Project2/BearPi_LiteOS/components/ota/package\package_checksum.c **** {
 121:C:/Users/lenovo/Desktop/liteos/Project2/BearPi_LiteOS/components/ota/package\package_checksum.c ****     pack_checksum_s *thi = PACK_MALLOC(sizeof(pack_checksum_s));
 122:C:/Users/lenovo/Desktop/liteos/Project2/BearPi_LiteOS/components/ota/package\package_checksum.c ****     if(NULL == thi)
 123:C:/Users/lenovo/Desktop/liteos/Project2/BearPi_LiteOS/components/ota/package\package_checksum.c ****     {
 124:C:/Users/lenovo/Desktop/liteos/Project2/BearPi_LiteOS/components/ota/package\package_checksum.c ****         PACK_LOG("PACK_MALLOC fail");
 125:C:/Users/lenovo/Desktop/liteos/Project2/BearPi_LiteOS/components/ota/package\package_checksum.c ****         return NULL;
 126:C:/Users/lenovo/Desktop/liteos/Project2/BearPi_LiteOS/components/ota/package\package_checksum.c ****     }
 127:C:/Users/lenovo/Desktop/liteos/Project2/BearPi_LiteOS/components/ota/package\package_checksum.c ****     pack_checksum_init(thi, head);
 128:C:/Users/lenovo/Desktop/liteos/Project2/BearPi_LiteOS/components/ota/package\package_checksum.c ****     (void)pack_checksum_init_head_data(thi);
 129:C:/Users/lenovo/Desktop/liteos/Project2/BearPi_LiteOS/components/ota/package\package_checksum.c ****     return thi;
 130:C:/Users/lenovo/Desktop/liteos/Project2/BearPi_LiteOS/components/ota/package\package_checksum.c **** }
 131:C:/Users/lenovo/Desktop/liteos/Project2/BearPi_LiteOS/components/ota/package\package_checksum.c **** 
 132:C:/Users/lenovo/Desktop/liteos/Project2/BearPi_LiteOS/components/ota/package\package_checksum.c **** static int pack_checksum_restore_checksum(pack_checksum_s *thi, uint32_t offset, pack_hardware_s *h
 133:C:/Users/lenovo/Desktop/liteos/Project2/BearPi_LiteOS/components/ota/package\package_checksum.c **** {
  27              		.loc 1 133 0
  28              		.cfi_startproc
  29              		@ args = 0, pretend = 0, frame = 0
  30              		@ frame_needed = 0, uses_anonymous_args = 0
  31              	.LVL0:
  32 0000 2DE9F04F 		push	{r4, r5, r6, r7, r8, r9, r10, fp, lr}
  33              	.LCFI0:
  34              		.cfi_def_cfa_offset 36
  35              		.cfi_offset 4, -36
  36              		.cfi_offset 5, -32
  37              		.cfi_offset 6, -28
  38              		.cfi_offset 7, -24
  39              		.cfi_offset 8, -20
ARM GAS  c:\Users\lenovo\AppData\Local\Temp\ccEBu33f.s 			page 4


  40              		.cfi_offset 9, -16
  41              		.cfi_offset 10, -12
  42              		.cfi_offset 11, -8
  43              		.cfi_offset 14, -4
  44 0004 83B0     		sub	sp, sp, #12
  45              	.LCFI1:
  46              		.cfi_def_cfa_offset 48
  47 0006 8246     		mov	r10, r0
  48 0008 8946     		mov	r9, r1
  49 000a 1646     		mov	r6, r2
  50              	.LVL1:
 134:C:/Users/lenovo/Desktop/liteos/Project2/BearPi_LiteOS/components/ota/package\package_checksum.c ****     uint8_t *buff  = NULL;
 135:C:/Users/lenovo/Desktop/liteos/Project2/BearPi_LiteOS/components/ota/package\package_checksum.c ****     const uint32_t max_size = hardware->get_block_size(hardware);
  51              		.loc 1 135 0
  52 000c D368     		ldr	r3, [r2, #12]
  53 000e 1046     		mov	r0, r2
  54              	.LVL2:
  55 0010 9847     		blx	r3
  56              	.LVL3:
  57 0012 8346     		mov	fp, r0
  58              	.LVL4:
 136:C:/Users/lenovo/Desktop/liteos/Project2/BearPi_LiteOS/components/ota/package\package_checksum.c ****     uint32_t total_size = 0;
 137:C:/Users/lenovo/Desktop/liteos/Project2/BearPi_LiteOS/components/ota/package\package_checksum.c ****     uint32_t left_size;
 138:C:/Users/lenovo/Desktop/liteos/Project2/BearPi_LiteOS/components/ota/package\package_checksum.c ****     uint32_t read_size;
 139:C:/Users/lenovo/Desktop/liteos/Project2/BearPi_LiteOS/components/ota/package\package_checksum.c ****     int ret = PACK_ERR;
 140:C:/Users/lenovo/Desktop/liteos/Project2/BearPi_LiteOS/components/ota/package\package_checksum.c **** 
 141:C:/Users/lenovo/Desktop/liteos/Project2/BearPi_LiteOS/components/ota/package\package_checksum.c ****     buff = PACK_MALLOC(max_size);
  59              		.loc 1 141 0
  60 0014 FFF7FEFF 		bl	pack_malloc
  61              	.LVL5:
 142:C:/Users/lenovo/Desktop/liteos/Project2/BearPi_LiteOS/components/ota/package\package_checksum.c ****     if(NULL == buff)
  62              		.loc 1 142 0
  63 0018 D8B1     		cbz	r0, .L9
  64 001a 8046     		mov	r8, r0
 136:C:/Users/lenovo/Desktop/liteos/Project2/BearPi_LiteOS/components/ota/package\package_checksum.c ****     uint32_t total_size = 0;
  65              		.loc 1 136 0
  66 001c 0025     		movs	r5, #0
  67              	.LVL6:
  68              	.L2:
 143:C:/Users/lenovo/Desktop/liteos/Project2/BearPi_LiteOS/components/ota/package\package_checksum.c ****     {
 144:C:/Users/lenovo/Desktop/liteos/Project2/BearPi_LiteOS/components/ota/package\package_checksum.c ****         PACK_LOG("malloc null");
 145:C:/Users/lenovo/Desktop/liteos/Project2/BearPi_LiteOS/components/ota/package\package_checksum.c ****         return PACK_ERR;
 146:C:/Users/lenovo/Desktop/liteos/Project2/BearPi_LiteOS/components/ota/package\package_checksum.c ****     }
 147:C:/Users/lenovo/Desktop/liteos/Project2/BearPi_LiteOS/components/ota/package\package_checksum.c ****     do
 148:C:/Users/lenovo/Desktop/liteos/Project2/BearPi_LiteOS/components/ota/package\package_checksum.c ****     {
 149:C:/Users/lenovo/Desktop/liteos/Project2/BearPi_LiteOS/components/ota/package\package_checksum.c ****         ret = PACK_ERR;
 150:C:/Users/lenovo/Desktop/liteos/Project2/BearPi_LiteOS/components/ota/package\package_checksum.c ****         left_size = offset - total_size;
  69              		.loc 1 150 0
  70 001e A9EB0504 		sub	r4, r9, r5
  71              	.LVL7:
 151:C:/Users/lenovo/Desktop/liteos/Project2/BearPi_LiteOS/components/ota/package\package_checksum.c ****         read_size = MIN(left_size, max_size);
  72              		.loc 1 151 0
  73 0022 5C45     		cmp	r4, fp
  74 0024 28BF     		it	cs
  75 0026 5C46     		movcs	r4, fp
  76              	.LVL8:
 152:C:/Users/lenovo/Desktop/liteos/Project2/BearPi_LiteOS/components/ota/package\package_checksum.c ****         ret = hardware->read_software(hardware, total_size, buff, read_size);
ARM GAS  c:\Users\lenovo\AppData\Local\Temp\ccEBu33f.s 			page 5


  77              		.loc 1 152 0
  78 0028 3768     		ldr	r7, [r6]
  79 002a 2346     		mov	r3, r4
  80 002c 4246     		mov	r2, r8
  81 002e 2946     		mov	r1, r5
  82 0030 3046     		mov	r0, r6
  83 0032 B847     		blx	r7
  84              	.LVL9:
 153:C:/Users/lenovo/Desktop/liteos/Project2/BearPi_LiteOS/components/ota/package\package_checksum.c ****         if(ret != PACK_OK)
  85              		.loc 1 153 0
  86 0034 0746     		mov	r7, r0
  87 0036 B0B9     		cbnz	r0, .L10
 154:C:/Users/lenovo/Desktop/liteos/Project2/BearPi_LiteOS/components/ota/package\package_checksum.c ****         {
 155:C:/Users/lenovo/Desktop/liteos/Project2/BearPi_LiteOS/components/ota/package\package_checksum.c ****             PACK_LOG("read_software fail, ret %d, offset %d, read_size %d", ret, total_size, read_s
 156:C:/Users/lenovo/Desktop/liteos/Project2/BearPi_LiteOS/components/ota/package\package_checksum.c ****             break;
 157:C:/Users/lenovo/Desktop/liteos/Project2/BearPi_LiteOS/components/ota/package\package_checksum.c ****         }
 158:C:/Users/lenovo/Desktop/liteos/Project2/BearPi_LiteOS/components/ota/package\package_checksum.c ****         ret = pack_checksum_get_alg(thi)->update(pack_checksum_get_alg(thi), buff, read_size);
  88              		.loc 1 158 0
  89 0038 DAF81030 		ldr	r3, [r10, #16]
  90 003c A2B2     		uxth	r2, r4
  91 003e 4146     		mov	r1, r8
  92 0040 0AF10C00 		add	r0, r10, #12
  93              	.LVL10:
  94 0044 9847     		blx	r3
  95              	.LVL11:
 159:C:/Users/lenovo/Desktop/liteos/Project2/BearPi_LiteOS/components/ota/package\package_checksum.c ****         if(ret != PACK_OK)
  96              		.loc 1 159 0
  97 0046 0746     		mov	r7, r0
  98 0048 C0B9     		cbnz	r0, .L5
 160:C:/Users/lenovo/Desktop/liteos/Project2/BearPi_LiteOS/components/ota/package\package_checksum.c ****         {
 161:C:/Users/lenovo/Desktop/liteos/Project2/BearPi_LiteOS/components/ota/package\package_checksum.c ****             break;
 162:C:/Users/lenovo/Desktop/liteos/Project2/BearPi_LiteOS/components/ota/package\package_checksum.c ****         }
 163:C:/Users/lenovo/Desktop/liteos/Project2/BearPi_LiteOS/components/ota/package\package_checksum.c ****         total_size += read_size;
  99              		.loc 1 163 0
 100 004a 2544     		add	r5, r5, r4
 101              	.LVL12:
 164:C:/Users/lenovo/Desktop/liteos/Project2/BearPi_LiteOS/components/ota/package\package_checksum.c ****     }
 165:C:/Users/lenovo/Desktop/liteos/Project2/BearPi_LiteOS/components/ota/package\package_checksum.c ****     while(total_size < offset);
 102              		.loc 1 165 0
 103 004c A945     		cmp	r9, r5
 104 004e E6D8     		bhi	.L2
 105 0050 14E0     		b	.L5
 106              	.LVL13:
 107              	.L9:
 108              	.LBB37:
 144:C:/Users/lenovo/Desktop/liteos/Project2/BearPi_LiteOS/components/ota/package\package_checksum.c ****         return PACK_ERR;
 109              		.loc 1 144 0
 110 0052 FFF7FEFF 		bl	pack_get_params
 111              	.LVL14:
 112 0056 C369     		ldr	r3, [r0, #28]
 113 0058 BBB1     		cbz	r3, .L7
 144:C:/Users/lenovo/Desktop/liteos/Project2/BearPi_LiteOS/components/ota/package\package_checksum.c ****         return PACK_ERR;
 114              		.loc 1 144 0 is_stmt 0 discriminator 1
 115 005a 9022     		movs	r2, #144
 116 005c 0C49     		ldr	r1, .L11
 117 005e 0D48     		ldr	r0, .L11+4
 118              	.LVL15:
ARM GAS  c:\Users\lenovo\AppData\Local\Temp\ccEBu33f.s 			page 6


 119 0060 9847     		blx	r3
 120              	.LVL16:
 121              	.LBE37:
 145:C:/Users/lenovo/Desktop/liteos/Project2/BearPi_LiteOS/components/ota/package\package_checksum.c ****     }
 122              		.loc 1 145 0 is_stmt 1 discriminator 1
 123 0062 0127     		movs	r7, #1
 124 0064 0DE0     		b	.L1
 125              	.LVL17:
 126              	.L10:
 127              	.LBB38:
 155:C:/Users/lenovo/Desktop/liteos/Project2/BearPi_LiteOS/components/ota/package\package_checksum.c ****             break;
 128              		.loc 1 155 0
 129 0066 FFF7FEFF 		bl	pack_get_params
 130              	.LVL18:
 131 006a C669     		ldr	r6, [r0, #28]
 132              	.LVL19:
 133 006c 36B1     		cbz	r6, .L5
 155:C:/Users/lenovo/Desktop/liteos/Project2/BearPi_LiteOS/components/ota/package\package_checksum.c ****             break;
 134              		.loc 1 155 0 is_stmt 0 discriminator 1
 135 006e 0194     		str	r4, [sp, #4]
 136 0070 0095     		str	r5, [sp]
 137 0072 3B46     		mov	r3, r7
 138 0074 9B22     		movs	r2, #155
 139 0076 0649     		ldr	r1, .L11
 140 0078 0748     		ldr	r0, .L11+8
 141              	.LVL20:
 142 007a B047     		blx	r6
 143              	.LVL21:
 144              	.L5:
 145              	.LBE38:
 166:C:/Users/lenovo/Desktop/liteos/Project2/BearPi_LiteOS/components/ota/package\package_checksum.c **** 
 167:C:/Users/lenovo/Desktop/liteos/Project2/BearPi_LiteOS/components/ota/package\package_checksum.c ****     if(buff)
 168:C:/Users/lenovo/Desktop/liteos/Project2/BearPi_LiteOS/components/ota/package\package_checksum.c ****     {
 169:C:/Users/lenovo/Desktop/liteos/Project2/BearPi_LiteOS/components/ota/package\package_checksum.c ****         PACK_FREE(buff);
 146              		.loc 1 169 0 is_stmt 1
 147 007c 4046     		mov	r0, r8
 148 007e FFF7FEFF 		bl	pack_free
 149              	.LVL22:
 150              	.L1:
 170:C:/Users/lenovo/Desktop/liteos/Project2/BearPi_LiteOS/components/ota/package\package_checksum.c ****     }
 171:C:/Users/lenovo/Desktop/liteos/Project2/BearPi_LiteOS/components/ota/package\package_checksum.c **** 
 172:C:/Users/lenovo/Desktop/liteos/Project2/BearPi_LiteOS/components/ota/package\package_checksum.c ****     return ret;
 173:C:/Users/lenovo/Desktop/liteos/Project2/BearPi_LiteOS/components/ota/package\package_checksum.c **** }
 151              		.loc 1 173 0
 152 0082 3846     		mov	r0, r7
 153 0084 03B0     		add	sp, sp, #12
 154              	.LCFI2:
 155              		.cfi_remember_state
 156              		.cfi_def_cfa_offset 36
 157              		@ sp needed
 158 0086 BDE8F08F 		pop	{r4, r5, r6, r7, r8, r9, r10, fp, pc}
 159              	.LVL23:
 160              	.L7:
 161              	.LCFI3:
 162              		.cfi_restore_state
 145:C:/Users/lenovo/Desktop/liteos/Project2/BearPi_LiteOS/components/ota/package\package_checksum.c ****     }
 163              		.loc 1 145 0
ARM GAS  c:\Users\lenovo\AppData\Local\Temp\ccEBu33f.s 			page 7


 164 008a 0127     		movs	r7, #1
 165 008c F9E7     		b	.L1
 166              	.L12:
 167 008e 00BF     		.align	2
 168              	.L11:
 169 0090 00000000 		.word	.LANCHOR0
 170 0094 00000000 		.word	.LC0
 171 0098 18000000 		.word	.LC1
 172              		.cfi_endproc
 173              	.LFE8:
 175              		.section	.text.pack_checksum_init_head_data,"ax",%progbits
 176              		.align	1
 177              		.syntax unified
 178              		.thumb
 179              		.thumb_func
 180              		.fpu fpv4-sp-d16
 182              	pack_checksum_init_head_data:
 183              	.LFB6:
  99:C:/Users/lenovo/Desktop/liteos/Project2/BearPi_LiteOS/components/ota/package\package_checksum.c ****     int32_t len;
 184              		.loc 1 99 0
 185              		.cfi_startproc
 186              		@ args = 0, pretend = 0, frame = 0
 187              		@ frame_needed = 0, uses_anonymous_args = 0
 188              	.LVL24:
 189 0000 70B5     		push	{r4, r5, r6, lr}
 190              	.LCFI4:
 191              		.cfi_def_cfa_offset 16
 192              		.cfi_offset 4, -16
 193              		.cfi_offset 5, -12
 194              		.cfi_offset 6, -8
 195              		.cfi_offset 14, -4
 196 0002 0546     		mov	r5, r0
 103:C:/Users/lenovo/Desktop/liteos/Project2/BearPi_LiteOS/components/ota/package\package_checksum.c ****     len = pack_head_get_head_len(thi->head);
 197              		.loc 1 103 0
 198 0004 0446     		mov	r4, r0
 199 0006 54F80C3F 		ldr	r3, [r4, #12]!
 200 000a 2046     		mov	r0, r4
 201              	.LVL25:
 202 000c 9847     		blx	r3
 203              	.LVL26:
 104:C:/Users/lenovo/Desktop/liteos/Project2/BearPi_LiteOS/components/ota/package\package_checksum.c ****     if(0 == len)
 204              		.loc 1 104 0
 205 000e A868     		ldr	r0, [r5, #8]
 206 0010 FFF7FEFF 		bl	pack_head_get_head_len
 207              	.LVL27:
 105:C:/Users/lenovo/Desktop/liteos/Project2/BearPi_LiteOS/components/ota/package\package_checksum.c ****     {
 208              		.loc 1 105 0
 209 0014 08B9     		cbnz	r0, .L19
 107:C:/Users/lenovo/Desktop/liteos/Project2/BearPi_LiteOS/components/ota/package\package_checksum.c ****     }
 210              		.loc 1 107 0
 211 0016 0020     		movs	r0, #0
 212              	.LVL28:
 213              	.L13:
 118:C:/Users/lenovo/Desktop/liteos/Project2/BearPi_LiteOS/components/ota/package\package_checksum.c **** pack_checksum_s *pack_checksum_create(pack_head_s *head)
 214              		.loc 1 118 0
 215 0018 70BD     		pop	{r4, r5, r6, pc}
 216              	.LVL29:
ARM GAS  c:\Users\lenovo\AppData\Local\Temp\ccEBu33f.s 			page 8


 217              	.L19:
 218 001a 0646     		mov	r6, r0
 110:C:/Users/lenovo/Desktop/liteos/Project2/BearPi_LiteOS/components/ota/package\package_checksum.c ****     if(NULL == buff)
 219              		.loc 1 110 0
 220 001c A868     		ldr	r0, [r5, #8]
 221              	.LVL30:
 222 001e FFF7FEFF 		bl	pack_head_get_head_info
 223              	.LVL31:
 111:C:/Users/lenovo/Desktop/liteos/Project2/BearPi_LiteOS/components/ota/package\package_checksum.c ****     {
 224              		.loc 1 111 0
 225 0022 0146     		mov	r1, r0
 226 0024 20B1     		cbz	r0, .L20
 117:C:/Users/lenovo/Desktop/liteos/Project2/BearPi_LiteOS/components/ota/package\package_checksum.c **** }
 227              		.loc 1 117 0
 228 0026 2B69     		ldr	r3, [r5, #16]
 229 0028 B2B2     		uxth	r2, r6
 230 002a 2046     		mov	r0, r4
 231              	.LVL32:
 232 002c 9847     		blx	r3
 233              	.LVL33:
 234 002e F3E7     		b	.L13
 235              	.LVL34:
 236              	.L20:
 237              	.LBB39:
 113:C:/Users/lenovo/Desktop/liteos/Project2/BearPi_LiteOS/components/ota/package\package_checksum.c ****         return PACK_ERR;
 238              		.loc 1 113 0
 239 0030 FFF7FEFF 		bl	pack_get_params
 240              	.LVL35:
 241 0034 C369     		ldr	r3, [r0, #28]
 242 0036 2BB1     		cbz	r3, .L17
 113:C:/Users/lenovo/Desktop/liteos/Project2/BearPi_LiteOS/components/ota/package\package_checksum.c ****         return PACK_ERR;
 243              		.loc 1 113 0 is_stmt 0 discriminator 1
 244 0038 7122     		movs	r2, #113
 245 003a 0349     		ldr	r1, .L21
 246 003c 0348     		ldr	r0, .L21+4
 247              	.LVL36:
 248 003e 9847     		blx	r3
 249              	.LVL37:
 250              	.LBE39:
 114:C:/Users/lenovo/Desktop/liteos/Project2/BearPi_LiteOS/components/ota/package\package_checksum.c ****     }
 251              		.loc 1 114 0 is_stmt 1 discriminator 1
 252 0040 0120     		movs	r0, #1
 253 0042 E9E7     		b	.L13
 254              	.LVL38:
 255              	.L17:
 114:C:/Users/lenovo/Desktop/liteos/Project2/BearPi_LiteOS/components/ota/package\package_checksum.c ****     }
 256              		.loc 1 114 0 is_stmt 0
 257 0044 0120     		movs	r0, #1
 258              	.LVL39:
 259 0046 E7E7     		b	.L13
 260              	.L22:
 261              		.align	2
 262              	.L21:
 263 0048 00000000 		.word	.LANCHOR1
 264 004c 00000000 		.word	.LC2
 265              		.cfi_endproc
 266              	.LFE6:
ARM GAS  c:\Users\lenovo\AppData\Local\Temp\ccEBu33f.s 			page 9


 268              		.section	.text.pack_sha256_destroy,"ax",%progbits
 269              		.align	1
 270              		.syntax unified
 271              		.thumb
 272              		.thumb_func
 273              		.fpu fpv4-sp-d16
 275              	pack_sha256_destroy:
 276              	.LFB14:
 277              		.file 2 "C:/Users/lenovo/Desktop/liteos/Project2/BearPi_LiteOS/components/ota/package/opt/package_
   1:C:/Users/lenovo/Desktop/liteos/Project2/BearPi_LiteOS/components/ota/package/opt\package_sha256.c **** /*----------------------------------------------------------------------------
   2:C:/Users/lenovo/Desktop/liteos/Project2/BearPi_LiteOS/components/ota/package/opt\package_sha256.c ****  * Copyright (c) <2016-2018>, <Huawei Technologies Co., Ltd>
   3:C:/Users/lenovo/Desktop/liteos/Project2/BearPi_LiteOS/components/ota/package/opt\package_sha256.c ****  * All rights reserved.
   4:C:/Users/lenovo/Desktop/liteos/Project2/BearPi_LiteOS/components/ota/package/opt\package_sha256.c ****  * Redistribution and use in source and binary forms, with or without modification,
   5:C:/Users/lenovo/Desktop/liteos/Project2/BearPi_LiteOS/components/ota/package/opt\package_sha256.c ****  * are permitted provided that the following conditions are met:
   6:C:/Users/lenovo/Desktop/liteos/Project2/BearPi_LiteOS/components/ota/package/opt\package_sha256.c ****  * 1. Redistributions of source code must retain the above copyright notice, this list of
   7:C:/Users/lenovo/Desktop/liteos/Project2/BearPi_LiteOS/components/ota/package/opt\package_sha256.c ****  * conditions and the following disclaimer.
   8:C:/Users/lenovo/Desktop/liteos/Project2/BearPi_LiteOS/components/ota/package/opt\package_sha256.c ****  * 2. Redistributions in binary form must reproduce the above copyright notice, this list
   9:C:/Users/lenovo/Desktop/liteos/Project2/BearPi_LiteOS/components/ota/package/opt\package_sha256.c ****  * of conditions and the following disclaimer in the documentation and/or other materials
  10:C:/Users/lenovo/Desktop/liteos/Project2/BearPi_LiteOS/components/ota/package/opt\package_sha256.c ****  * provided with the distribution.
  11:C:/Users/lenovo/Desktop/liteos/Project2/BearPi_LiteOS/components/ota/package/opt\package_sha256.c ****  * 3. Neither the name of the copyright holder nor the names of its contributors may be used
  12:C:/Users/lenovo/Desktop/liteos/Project2/BearPi_LiteOS/components/ota/package/opt\package_sha256.c ****  * to endorse or promote products derived from this software without specific prior written
  13:C:/Users/lenovo/Desktop/liteos/Project2/BearPi_LiteOS/components/ota/package/opt\package_sha256.c ****  * permission.
  14:C:/Users/lenovo/Desktop/liteos/Project2/BearPi_LiteOS/components/ota/package/opt\package_sha256.c ****  * THIS SOFTWARE IS PROVIDED BY THE COPYRIGHT HOLDERS AND CONTRIBUTORS
  15:C:/Users/lenovo/Desktop/liteos/Project2/BearPi_LiteOS/components/ota/package/opt\package_sha256.c ****  * "AS IS" AND ANY EXPRESS OR IMPLIED WARRANTIES, INCLUDING, BUT NOT LIMITED TO,
  16:C:/Users/lenovo/Desktop/liteos/Project2/BearPi_LiteOS/components/ota/package/opt\package_sha256.c ****  * THE IMPLIED WARRANTIES OF MERCHANTABILITY AND FITNESS FOR A PARTICULAR
  17:C:/Users/lenovo/Desktop/liteos/Project2/BearPi_LiteOS/components/ota/package/opt\package_sha256.c ****  * PURPOSE ARE DISCLAIMED. IN NO EVENT SHALL THE COPYRIGHT HOLDER OR
  18:C:/Users/lenovo/Desktop/liteos/Project2/BearPi_LiteOS/components/ota/package/opt\package_sha256.c ****  * CONTRIBUTORS BE LIABLE FOR ANY DIRECT, INDIRECT, INCIDENTAL, SPECIAL,
  19:C:/Users/lenovo/Desktop/liteos/Project2/BearPi_LiteOS/components/ota/package/opt\package_sha256.c ****  * EXEMPLARY, OR CONSEQUENTIAL DAMAGES (INCLUDING, BUT NOT LIMITED TO,
  20:C:/Users/lenovo/Desktop/liteos/Project2/BearPi_LiteOS/components/ota/package/opt\package_sha256.c ****  * PROCUREMENT OF SUBSTITUTE GOODS OR SERVICES; LOSS OF USE, DATA, OR PROFITS;
  21:C:/Users/lenovo/Desktop/liteos/Project2/BearPi_LiteOS/components/ota/package/opt\package_sha256.c ****  * OR BUSINESS INTERRUPTION) HOWEVER CAUSED AND ON ANY THEORY OF LIABILITY,
  22:C:/Users/lenovo/Desktop/liteos/Project2/BearPi_LiteOS/components/ota/package/opt\package_sha256.c ****  * WHETHER IN CONTRACT, STRICT LIABILITY, OR TORT (INCLUDING NEGLIGENCE OR
  23:C:/Users/lenovo/Desktop/liteos/Project2/BearPi_LiteOS/components/ota/package/opt\package_sha256.c ****  * OTHERWISE) ARISING IN ANY WAY OUT OF THE USE OF THIS SOFTWARE, EVEN IF
  24:C:/Users/lenovo/Desktop/liteos/Project2/BearPi_LiteOS/components/ota/package/opt\package_sha256.c ****  * ADVISED OF THE POSSIBILITY OF SUCH DAMAGE.
  25:C:/Users/lenovo/Desktop/liteos/Project2/BearPi_LiteOS/components/ota/package/opt\package_sha256.c ****  *---------------------------------------------------------------------------*/
  26:C:/Users/lenovo/Desktop/liteos/Project2/BearPi_LiteOS/components/ota/package/opt\package_sha256.c **** /*----------------------------------------------------------------------------
  27:C:/Users/lenovo/Desktop/liteos/Project2/BearPi_LiteOS/components/ota/package/opt\package_sha256.c ****  * Notice of Export Control Law
  28:C:/Users/lenovo/Desktop/liteos/Project2/BearPi_LiteOS/components/ota/package/opt\package_sha256.c ****  * ===============================================
  29:C:/Users/lenovo/Desktop/liteos/Project2/BearPi_LiteOS/components/ota/package/opt\package_sha256.c ****  * Huawei LiteOS may be subject to applicable export control laws and regulations, which might
  30:C:/Users/lenovo/Desktop/liteos/Project2/BearPi_LiteOS/components/ota/package/opt\package_sha256.c ****  * include those applicable to Huawei LiteOS of U.S. and the country in which you are located.
  31:C:/Users/lenovo/Desktop/liteos/Project2/BearPi_LiteOS/components/ota/package/opt\package_sha256.c ****  * Import, export and usage of Huawei LiteOS in any manner by you shall be in compliance with such
  32:C:/Users/lenovo/Desktop/liteos/Project2/BearPi_LiteOS/components/ota/package/opt\package_sha256.c ****  * applicable export control laws and regulations.
  33:C:/Users/lenovo/Desktop/liteos/Project2/BearPi_LiteOS/components/ota/package/opt\package_sha256.c ****  *---------------------------------------------------------------------------*/
  34:C:/Users/lenovo/Desktop/liteos/Project2/BearPi_LiteOS/components/ota/package/opt\package_sha256.c **** #ifdef INCLUDE_PACK_OPTION_FILE
  35:C:/Users/lenovo/Desktop/liteos/Project2/BearPi_LiteOS/components/ota/package/opt\package_sha256.c **** #include "package_sha256.h"
  36:C:/Users/lenovo/Desktop/liteos/Project2/BearPi_LiteOS/components/ota/package/opt\package_sha256.c **** #include <string.h>
  37:C:/Users/lenovo/Desktop/liteos/Project2/BearPi_LiteOS/components/ota/package/opt\package_sha256.c **** #include "../package_head.h"/*lint !e451*/
  38:C:/Users/lenovo/Desktop/liteos/Project2/BearPi_LiteOS/components/ota/package/opt\package_sha256.c **** 
  39:C:/Users/lenovo/Desktop/liteos/Project2/BearPi_LiteOS/components/ota/package/opt\package_sha256.c **** static void pack_sha256_reset(pack_checksum_alg_s *thi)
  40:C:/Users/lenovo/Desktop/liteos/Project2/BearPi_LiteOS/components/ota/package/opt\package_sha256.c **** {
  41:C:/Users/lenovo/Desktop/liteos/Project2/BearPi_LiteOS/components/ota/package/opt\package_sha256.c ****     pack_sha256_s *sha256 = (pack_sha256_s *)thi;
  42:C:/Users/lenovo/Desktop/liteos/Project2/BearPi_LiteOS/components/ota/package/opt\package_sha256.c ****     mbedtls_sha256_init(&sha256->sha256_context);
  43:C:/Users/lenovo/Desktop/liteos/Project2/BearPi_LiteOS/components/ota/package/opt\package_sha256.c ****     mbedtls_sha256_starts(&sha256->sha256_context, false);
  44:C:/Users/lenovo/Desktop/liteos/Project2/BearPi_LiteOS/components/ota/package/opt\package_sha256.c **** }
  45:C:/Users/lenovo/Desktop/liteos/Project2/BearPi_LiteOS/components/ota/package/opt\package_sha256.c **** static int pack_sha256_update(pack_checksum_alg_s *thi, const uint8_t *buff, uint16_t len)
  46:C:/Users/lenovo/Desktop/liteos/Project2/BearPi_LiteOS/components/ota/package/opt\package_sha256.c **** {
  47:C:/Users/lenovo/Desktop/liteos/Project2/BearPi_LiteOS/components/ota/package/opt\package_sha256.c ****     pack_sha256_s *sha256 = (pack_sha256_s *)thi;
  48:C:/Users/lenovo/Desktop/liteos/Project2/BearPi_LiteOS/components/ota/package/opt\package_sha256.c ****     mbedtls_sha256_update(&sha256->sha256_context, buff, len);
ARM GAS  c:\Users\lenovo\AppData\Local\Temp\ccEBu33f.s 			page 10


  49:C:/Users/lenovo/Desktop/liteos/Project2/BearPi_LiteOS/components/ota/package/opt\package_sha256.c ****     return PACK_OK;
  50:C:/Users/lenovo/Desktop/liteos/Project2/BearPi_LiteOS/components/ota/package/opt\package_sha256.c **** }
  51:C:/Users/lenovo/Desktop/liteos/Project2/BearPi_LiteOS/components/ota/package/opt\package_sha256.c **** static int pack_sha256_check(pack_checksum_alg_s *thi, const uint8_t  *checksum, uint16_t checksum_
  52:C:/Users/lenovo/Desktop/liteos/Project2/BearPi_LiteOS/components/ota/package/opt\package_sha256.c **** {
  53:C:/Users/lenovo/Desktop/liteos/Project2/BearPi_LiteOS/components/ota/package/opt\package_sha256.c ****     uint8_t real_value[32];
  54:C:/Users/lenovo/Desktop/liteos/Project2/BearPi_LiteOS/components/ota/package/opt\package_sha256.c ****     pack_sha256_s *sha256 = (pack_sha256_s *)thi;
  55:C:/Users/lenovo/Desktop/liteos/Project2/BearPi_LiteOS/components/ota/package/opt\package_sha256.c **** 
  56:C:/Users/lenovo/Desktop/liteos/Project2/BearPi_LiteOS/components/ota/package/opt\package_sha256.c ****     ASSERT_THIS(return PACK_ERR);
  57:C:/Users/lenovo/Desktop/liteos/Project2/BearPi_LiteOS/components/ota/package/opt\package_sha256.c **** 
  58:C:/Users/lenovo/Desktop/liteos/Project2/BearPi_LiteOS/components/ota/package/opt\package_sha256.c ****     if(sizeof(real_value) != checksum_len)
  59:C:/Users/lenovo/Desktop/liteos/Project2/BearPi_LiteOS/components/ota/package/opt\package_sha256.c ****     {
  60:C:/Users/lenovo/Desktop/liteos/Project2/BearPi_LiteOS/components/ota/package/opt\package_sha256.c ****         PACK_LOG("len %d not the same", checksum_len);
  61:C:/Users/lenovo/Desktop/liteos/Project2/BearPi_LiteOS/components/ota/package/opt\package_sha256.c ****         return PACK_ERR;
  62:C:/Users/lenovo/Desktop/liteos/Project2/BearPi_LiteOS/components/ota/package/opt\package_sha256.c ****     }
  63:C:/Users/lenovo/Desktop/liteos/Project2/BearPi_LiteOS/components/ota/package/opt\package_sha256.c ****     mbedtls_sha256_finish(&sha256->sha256_context, real_value);
  64:C:/Users/lenovo/Desktop/liteos/Project2/BearPi_LiteOS/components/ota/package/opt\package_sha256.c ****     if(memcmp(real_value, checksum, checksum_len) != 0)
  65:C:/Users/lenovo/Desktop/liteos/Project2/BearPi_LiteOS/components/ota/package/opt\package_sha256.c ****     {
  66:C:/Users/lenovo/Desktop/liteos/Project2/BearPi_LiteOS/components/ota/package/opt\package_sha256.c ****         PACK_LOG("checksum err");
  67:C:/Users/lenovo/Desktop/liteos/Project2/BearPi_LiteOS/components/ota/package/opt\package_sha256.c ****         return PACK_ERR;
  68:C:/Users/lenovo/Desktop/liteos/Project2/BearPi_LiteOS/components/ota/package/opt\package_sha256.c ****     }
  69:C:/Users/lenovo/Desktop/liteos/Project2/BearPi_LiteOS/components/ota/package/opt\package_sha256.c ****     return PACK_OK;
  70:C:/Users/lenovo/Desktop/liteos/Project2/BearPi_LiteOS/components/ota/package/opt\package_sha256.c **** }
  71:C:/Users/lenovo/Desktop/liteos/Project2/BearPi_LiteOS/components/ota/package/opt\package_sha256.c **** 
  72:C:/Users/lenovo/Desktop/liteos/Project2/BearPi_LiteOS/components/ota/package/opt\package_sha256.c **** static void pack_sha256_destroy(struct pack_checksum_alg_tag_s *thi)
  73:C:/Users/lenovo/Desktop/liteos/Project2/BearPi_LiteOS/components/ota/package/opt\package_sha256.c **** {
 278              		.loc 2 73 0 is_stmt 1
 279              		.cfi_startproc
 280              		@ args = 0, pretend = 0, frame = 0
 281              		@ frame_needed = 0, uses_anonymous_args = 0
 282              	.LVL40:
 283 0000 08B5     		push	{r3, lr}
 284              	.LCFI5:
 285              		.cfi_def_cfa_offset 8
 286              		.cfi_offset 3, -8
 287              		.cfi_offset 14, -4
 288              	.LVL41:
  74:C:/Users/lenovo/Desktop/liteos/Project2/BearPi_LiteOS/components/ota/package/opt\package_sha256.c ****     pack_sha256_s *sha256 = (pack_sha256_s *)thi;
  75:C:/Users/lenovo/Desktop/liteos/Project2/BearPi_LiteOS/components/ota/package/opt\package_sha256.c ****     mbedtls_sha256_free(&sha256->sha256_context);
 289              		.loc 2 75 0
 290 0002 1030     		adds	r0, r0, #16
 291              	.LVL42:
 292 0004 FFF7FEFF 		bl	mbedtls_sha256_free
 293              	.LVL43:
  76:C:/Users/lenovo/Desktop/liteos/Project2/BearPi_LiteOS/components/ota/package/opt\package_sha256.c **** }
 294              		.loc 2 76 0
 295 0008 08BD     		pop	{r3, pc}
 296              		.cfi_endproc
 297              	.LFE14:
 299              		.section	.text.pack_sha256_check,"ax",%progbits
 300              		.align	1
 301              		.syntax unified
 302              		.thumb
 303              		.thumb_func
 304              		.fpu fpv4-sp-d16
 306              	pack_sha256_check:
 307              	.LFB13:
  52:C:/Users/lenovo/Desktop/liteos/Project2/BearPi_LiteOS/components/ota/package/opt\package_sha256.c ****     uint8_t real_value[32];
ARM GAS  c:\Users\lenovo\AppData\Local\Temp\ccEBu33f.s 			page 11


 308              		.loc 2 52 0
 309              		.cfi_startproc
 310              		@ args = 0, pretend = 0, frame = 32
 311              		@ frame_needed = 0, uses_anonymous_args = 0
 312              	.LVL44:
 313 0000 30B5     		push	{r4, r5, lr}
 314              	.LCFI6:
 315              		.cfi_def_cfa_offset 12
 316              		.cfi_offset 4, -12
 317              		.cfi_offset 5, -8
 318              		.cfi_offset 14, -4
 319 0002 89B0     		sub	sp, sp, #36
 320              	.LCFI7:
 321              		.cfi_def_cfa_offset 48
 322              	.LVL45:
  56:C:/Users/lenovo/Desktop/liteos/Project2/BearPi_LiteOS/components/ota/package/opt\package_sha256.c **** 
 323              		.loc 2 56 0
 324 0004 80B1     		cbz	r0, .L33
 325 0006 0D46     		mov	r5, r1
 326 0008 1446     		mov	r4, r2
  58:C:/Users/lenovo/Desktop/liteos/Project2/BearPi_LiteOS/components/ota/package/opt\package_sha256.c ****     {
 327              		.loc 2 58 0
 328 000a 202A     		cmp	r2, #32
 329 000c 16D0     		beq	.L28
 330              	.LBB40:
  60:C:/Users/lenovo/Desktop/liteos/Project2/BearPi_LiteOS/components/ota/package/opt\package_sha256.c ****         return PACK_ERR;
 331              		.loc 2 60 0
 332 000e FFF7FEFF 		bl	pack_get_params
 333              	.LVL46:
 334 0012 C569     		ldr	r5, [r0, #28]
 335              	.LVL47:
 336 0014 55B3     		cbz	r5, .L30
  60:C:/Users/lenovo/Desktop/liteos/Project2/BearPi_LiteOS/components/ota/package/opt\package_sha256.c ****         return PACK_ERR;
 337              		.loc 2 60 0 is_stmt 0 discriminator 1
 338 0016 2346     		mov	r3, r4
 339 0018 3C22     		movs	r2, #60
 340 001a 1649     		ldr	r1, .L34
 341 001c 1648     		ldr	r0, .L34+4
 342              	.LVL48:
 343 001e A847     		blx	r5
 344              	.LVL49:
 345              	.LBE40:
  61:C:/Users/lenovo/Desktop/liteos/Project2/BearPi_LiteOS/components/ota/package/opt\package_sha256.c ****     }
 346              		.loc 2 61 0 is_stmt 1 discriminator 1
 347 0020 0123     		movs	r3, #1
 348              	.L25:
  70:C:/Users/lenovo/Desktop/liteos/Project2/BearPi_LiteOS/components/ota/package/opt\package_sha256.c **** 
 349              		.loc 2 70 0
 350 0022 1846     		mov	r0, r3
 351 0024 09B0     		add	sp, sp, #36
 352              	.LCFI8:
 353              		.cfi_remember_state
 354              		.cfi_def_cfa_offset 12
 355              		@ sp needed
 356 0026 30BD     		pop	{r4, r5, pc}
 357              	.LVL50:
 358              	.L33:
ARM GAS  c:\Users\lenovo\AppData\Local\Temp\ccEBu33f.s 			page 12


 359              	.LCFI9:
 360              		.cfi_restore_state
 361              	.LBB41:
  56:C:/Users/lenovo/Desktop/liteos/Project2/BearPi_LiteOS/components/ota/package/opt\package_sha256.c **** 
 362              		.loc 2 56 0 discriminator 1
 363 0028 FFF7FEFF 		bl	pack_get_params
 364              	.LVL51:
 365 002c C369     		ldr	r3, [r0, #28]
 366 002e DBB1     		cbz	r3, .L29
  56:C:/Users/lenovo/Desktop/liteos/Project2/BearPi_LiteOS/components/ota/package/opt\package_sha256.c **** 
 367              		.loc 2 56 0 is_stmt 0 discriminator 2
 368 0030 3822     		movs	r2, #56
 369 0032 1049     		ldr	r1, .L34
 370 0034 1148     		ldr	r0, .L34+8
 371              	.LVL52:
 372 0036 9847     		blx	r3
 373              	.LVL53:
 374              	.LBE41:
 375 0038 0123     		movs	r3, #1
 376 003a F2E7     		b	.L25
 377              	.LVL54:
 378              	.L28:
  63:C:/Users/lenovo/Desktop/liteos/Project2/BearPi_LiteOS/components/ota/package/opt\package_sha256.c ****     if(memcmp(real_value, checksum, checksum_len) != 0)
 379              		.loc 2 63 0 is_stmt 1
 380 003c 6946     		mov	r1, sp
 381              	.LVL55:
 382 003e 1030     		adds	r0, r0, #16
 383              	.LVL56:
 384 0040 FFF7FEFF 		bl	mbedtls_sha256_finish
 385              	.LVL57:
  64:C:/Users/lenovo/Desktop/liteos/Project2/BearPi_LiteOS/components/ota/package/opt\package_sha256.c ****     {
 386              		.loc 2 64 0
 387 0044 2246     		mov	r2, r4
 388 0046 2946     		mov	r1, r5
 389 0048 6846     		mov	r0, sp
 390 004a FFF7FEFF 		bl	memcmp
 391              	.LVL58:
 392 004e 0346     		mov	r3, r0
 393 0050 0028     		cmp	r0, #0
 394 0052 E6D0     		beq	.L25
 395              	.LBB42:
  66:C:/Users/lenovo/Desktop/liteos/Project2/BearPi_LiteOS/components/ota/package/opt\package_sha256.c ****         return PACK_ERR;
 396              		.loc 2 66 0
 397 0054 FFF7FEFF 		bl	pack_get_params
 398              	.LVL59:
 399 0058 C369     		ldr	r3, [r0, #28]
 400 005a 4BB1     		cbz	r3, .L31
  66:C:/Users/lenovo/Desktop/liteos/Project2/BearPi_LiteOS/components/ota/package/opt\package_sha256.c ****         return PACK_ERR;
 401              		.loc 2 66 0 is_stmt 0 discriminator 1
 402 005c 4222     		movs	r2, #66
 403 005e 0549     		ldr	r1, .L34
 404 0060 0748     		ldr	r0, .L34+12
 405              	.LVL60:
 406 0062 9847     		blx	r3
 407              	.LVL61:
 408              	.LBE42:
  67:C:/Users/lenovo/Desktop/liteos/Project2/BearPi_LiteOS/components/ota/package/opt\package_sha256.c ****     }
ARM GAS  c:\Users\lenovo\AppData\Local\Temp\ccEBu33f.s 			page 13


 409              		.loc 2 67 0 is_stmt 1 discriminator 1
 410 0064 0123     		movs	r3, #1
 411 0066 DCE7     		b	.L25
 412              	.LVL62:
 413              	.L29:
  56:C:/Users/lenovo/Desktop/liteos/Project2/BearPi_LiteOS/components/ota/package/opt\package_sha256.c **** 
 414              		.loc 2 56 0
 415 0068 0123     		movs	r3, #1
 416 006a DAE7     		b	.L25
 417              	.LVL63:
 418              	.L30:
  61:C:/Users/lenovo/Desktop/liteos/Project2/BearPi_LiteOS/components/ota/package/opt\package_sha256.c ****     }
 419              		.loc 2 61 0
 420 006c 0123     		movs	r3, #1
 421 006e D8E7     		b	.L25
 422              	.LVL64:
 423              	.L31:
  67:C:/Users/lenovo/Desktop/liteos/Project2/BearPi_LiteOS/components/ota/package/opt\package_sha256.c ****     }
 424              		.loc 2 67 0
 425 0070 0123     		movs	r3, #1
 426 0072 D6E7     		b	.L25
 427              	.L35:
 428              		.align	2
 429              	.L34:
 430 0074 00000000 		.word	.LANCHOR2
 431 0078 1C000000 		.word	.LC4
 432 007c 00000000 		.word	.LC3
 433 0080 3C000000 		.word	.LC5
 434              		.cfi_endproc
 435              	.LFE13:
 437              		.section	.text.pack_sha256_update,"ax",%progbits
 438              		.align	1
 439              		.syntax unified
 440              		.thumb
 441              		.thumb_func
 442              		.fpu fpv4-sp-d16
 444              	pack_sha256_update:
 445              	.LFB12:
  46:C:/Users/lenovo/Desktop/liteos/Project2/BearPi_LiteOS/components/ota/package/opt\package_sha256.c ****     pack_sha256_s *sha256 = (pack_sha256_s *)thi;
 446              		.loc 2 46 0
 447              		.cfi_startproc
 448              		@ args = 0, pretend = 0, frame = 0
 449              		@ frame_needed = 0, uses_anonymous_args = 0
 450              	.LVL65:
 451 0000 08B5     		push	{r3, lr}
 452              	.LCFI10:
 453              		.cfi_def_cfa_offset 8
 454              		.cfi_offset 3, -8
 455              		.cfi_offset 14, -4
 456              	.LVL66:
  48:C:/Users/lenovo/Desktop/liteos/Project2/BearPi_LiteOS/components/ota/package/opt\package_sha256.c ****     return PACK_OK;
 457              		.loc 2 48 0
 458 0002 1030     		adds	r0, r0, #16
 459              	.LVL67:
 460 0004 FFF7FEFF 		bl	mbedtls_sha256_update
 461              	.LVL68:
  50:C:/Users/lenovo/Desktop/liteos/Project2/BearPi_LiteOS/components/ota/package/opt\package_sha256.c **** static int pack_sha256_check(pack_checksum_alg_s *thi, const uint8_t  *checksum, uint16_t checksum_
ARM GAS  c:\Users\lenovo\AppData\Local\Temp\ccEBu33f.s 			page 14


 462              		.loc 2 50 0
 463 0008 0020     		movs	r0, #0
 464 000a 08BD     		pop	{r3, pc}
 465              		.cfi_endproc
 466              	.LFE12:
 468              		.section	.text.pack_sha256_reset,"ax",%progbits
 469              		.align	1
 470              		.syntax unified
 471              		.thumb
 472              		.thumb_func
 473              		.fpu fpv4-sp-d16
 475              	pack_sha256_reset:
 476              	.LFB11:
  40:C:/Users/lenovo/Desktop/liteos/Project2/BearPi_LiteOS/components/ota/package/opt\package_sha256.c ****     pack_sha256_s *sha256 = (pack_sha256_s *)thi;
 477              		.loc 2 40 0
 478              		.cfi_startproc
 479              		@ args = 0, pretend = 0, frame = 0
 480              		@ frame_needed = 0, uses_anonymous_args = 0
 481              	.LVL69:
 482 0000 10B5     		push	{r4, lr}
 483              	.LCFI11:
 484              		.cfi_def_cfa_offset 8
 485              		.cfi_offset 4, -8
 486              		.cfi_offset 14, -4
 487              	.LVL70:
  42:C:/Users/lenovo/Desktop/liteos/Project2/BearPi_LiteOS/components/ota/package/opt\package_sha256.c ****     mbedtls_sha256_starts(&sha256->sha256_context, false);
 488              		.loc 2 42 0
 489 0002 00F11004 		add	r4, r0, #16
 490 0006 2046     		mov	r0, r4
 491              	.LVL71:
 492 0008 FFF7FEFF 		bl	mbedtls_sha256_init
 493              	.LVL72:
  43:C:/Users/lenovo/Desktop/liteos/Project2/BearPi_LiteOS/components/ota/package/opt\package_sha256.c **** }
 494              		.loc 2 43 0
 495 000c 0021     		movs	r1, #0
 496 000e 2046     		mov	r0, r4
 497 0010 FFF7FEFF 		bl	mbedtls_sha256_starts
 498              	.LVL73:
  44:C:/Users/lenovo/Desktop/liteos/Project2/BearPi_LiteOS/components/ota/package/opt\package_sha256.c **** static int pack_sha256_update(pack_checksum_alg_s *thi, const uint8_t *buff, uint16_t len)
 499              		.loc 2 44 0
 500 0014 10BD     		pop	{r4, pc}
 501              		.cfi_endproc
 502              	.LFE11:
 504              		.section	.text.pack_sha256_rsa2048_check,"ax",%progbits
 505              		.align	1
 506              		.syntax unified
 507              		.thumb
 508              		.thumb_func
 509              		.fpu fpv4-sp-d16
 511              	pack_sha256_rsa2048_check:
 512              	.LFB16:
 513              		.file 3 "C:/Users/lenovo/Desktop/liteos/Project2/BearPi_LiteOS/components/ota/package/opt/package_
   1:C:/Users/lenovo/Desktop/liteos/Project2/BearPi_LiteOS/components/ota/package/opt\package_sha256_rsa2048.c **** /*----------------------------------------------------------------------------
   2:C:/Users/lenovo/Desktop/liteos/Project2/BearPi_LiteOS/components/ota/package/opt\package_sha256_rsa2048.c ****  * Copyright (c) <2016-2018>, <Huawei Technologies Co., Ltd>
   3:C:/Users/lenovo/Desktop/liteos/Project2/BearPi_LiteOS/components/ota/package/opt\package_sha256_rsa2048.c ****  * All rights reserved.
   4:C:/Users/lenovo/Desktop/liteos/Project2/BearPi_LiteOS/components/ota/package/opt\package_sha256_rsa2048.c ****  * Redistribution and use in source and binary forms, with or without modification,
   5:C:/Users/lenovo/Desktop/liteos/Project2/BearPi_LiteOS/components/ota/package/opt\package_sha256_rsa2048.c ****  * are permitted provided that the following conditions are met:
ARM GAS  c:\Users\lenovo\AppData\Local\Temp\ccEBu33f.s 			page 15


   6:C:/Users/lenovo/Desktop/liteos/Project2/BearPi_LiteOS/components/ota/package/opt\package_sha256_rsa2048.c ****  * 1. Redistributions of source code must retain the above copyright notice, this list of
   7:C:/Users/lenovo/Desktop/liteos/Project2/BearPi_LiteOS/components/ota/package/opt\package_sha256_rsa2048.c ****  * conditions and the following disclaimer.
   8:C:/Users/lenovo/Desktop/liteos/Project2/BearPi_LiteOS/components/ota/package/opt\package_sha256_rsa2048.c ****  * 2. Redistributions in binary form must reproduce the above copyright notice, this list
   9:C:/Users/lenovo/Desktop/liteos/Project2/BearPi_LiteOS/components/ota/package/opt\package_sha256_rsa2048.c ****  * of conditions and the following disclaimer in the documentation and/or other materials
  10:C:/Users/lenovo/Desktop/liteos/Project2/BearPi_LiteOS/components/ota/package/opt\package_sha256_rsa2048.c ****  * provided with the distribution.
  11:C:/Users/lenovo/Desktop/liteos/Project2/BearPi_LiteOS/components/ota/package/opt\package_sha256_rsa2048.c ****  * 3. Neither the name of the copyright holder nor the names of its contributors may be used
  12:C:/Users/lenovo/Desktop/liteos/Project2/BearPi_LiteOS/components/ota/package/opt\package_sha256_rsa2048.c ****  * to endorse or promote products derived from this software without specific prior written
  13:C:/Users/lenovo/Desktop/liteos/Project2/BearPi_LiteOS/components/ota/package/opt\package_sha256_rsa2048.c ****  * permission.
  14:C:/Users/lenovo/Desktop/liteos/Project2/BearPi_LiteOS/components/ota/package/opt\package_sha256_rsa2048.c ****  * THIS SOFTWARE IS PROVIDED BY THE COPYRIGHT HOLDERS AND CONTRIBUTORS
  15:C:/Users/lenovo/Desktop/liteos/Project2/BearPi_LiteOS/components/ota/package/opt\package_sha256_rsa2048.c ****  * "AS IS" AND ANY EXPRESS OR IMPLIED WARRANTIES, INCLUDING, BUT NOT LIMITED TO,
  16:C:/Users/lenovo/Desktop/liteos/Project2/BearPi_LiteOS/components/ota/package/opt\package_sha256_rsa2048.c ****  * THE IMPLIED WARRANTIES OF MERCHANTABILITY AND FITNESS FOR A PARTICULAR
  17:C:/Users/lenovo/Desktop/liteos/Project2/BearPi_LiteOS/components/ota/package/opt\package_sha256_rsa2048.c ****  * PURPOSE ARE DISCLAIMED. IN NO EVENT SHALL THE COPYRIGHT HOLDER OR
  18:C:/Users/lenovo/Desktop/liteos/Project2/BearPi_LiteOS/components/ota/package/opt\package_sha256_rsa2048.c ****  * CONTRIBUTORS BE LIABLE FOR ANY DIRECT, INDIRECT, INCIDENTAL, SPECIAL,
  19:C:/Users/lenovo/Desktop/liteos/Project2/BearPi_LiteOS/components/ota/package/opt\package_sha256_rsa2048.c ****  * EXEMPLARY, OR CONSEQUENTIAL DAMAGES (INCLUDING, BUT NOT LIMITED TO,
  20:C:/Users/lenovo/Desktop/liteos/Project2/BearPi_LiteOS/components/ota/package/opt\package_sha256_rsa2048.c ****  * PROCUREMENT OF SUBSTITUTE GOODS OR SERVICES; LOSS OF USE, DATA, OR PROFITS;
  21:C:/Users/lenovo/Desktop/liteos/Project2/BearPi_LiteOS/components/ota/package/opt\package_sha256_rsa2048.c ****  * OR BUSINESS INTERRUPTION) HOWEVER CAUSED AND ON ANY THEORY OF LIABILITY,
  22:C:/Users/lenovo/Desktop/liteos/Project2/BearPi_LiteOS/components/ota/package/opt\package_sha256_rsa2048.c ****  * WHETHER IN CONTRACT, STRICT LIABILITY, OR TORT (INCLUDING NEGLIGENCE OR
  23:C:/Users/lenovo/Desktop/liteos/Project2/BearPi_LiteOS/components/ota/package/opt\package_sha256_rsa2048.c ****  * OTHERWISE) ARISING IN ANY WAY OUT OF THE USE OF THIS SOFTWARE, EVEN IF
  24:C:/Users/lenovo/Desktop/liteos/Project2/BearPi_LiteOS/components/ota/package/opt\package_sha256_rsa2048.c ****  * ADVISED OF THE POSSIBILITY OF SUCH DAMAGE.
  25:C:/Users/lenovo/Desktop/liteos/Project2/BearPi_LiteOS/components/ota/package/opt\package_sha256_rsa2048.c ****  *---------------------------------------------------------------------------*/
  26:C:/Users/lenovo/Desktop/liteos/Project2/BearPi_LiteOS/components/ota/package/opt\package_sha256_rsa2048.c **** /*----------------------------------------------------------------------------
  27:C:/Users/lenovo/Desktop/liteos/Project2/BearPi_LiteOS/components/ota/package/opt\package_sha256_rsa2048.c ****  * Notice of Export Control Law
  28:C:/Users/lenovo/Desktop/liteos/Project2/BearPi_LiteOS/components/ota/package/opt\package_sha256_rsa2048.c ****  * ===============================================
  29:C:/Users/lenovo/Desktop/liteos/Project2/BearPi_LiteOS/components/ota/package/opt\package_sha256_rsa2048.c ****  * Huawei LiteOS may be subject to applicable export control laws and regulations, which might
  30:C:/Users/lenovo/Desktop/liteos/Project2/BearPi_LiteOS/components/ota/package/opt\package_sha256_rsa2048.c ****  * include those applicable to Huawei LiteOS of U.S. and the country in which you are located.
  31:C:/Users/lenovo/Desktop/liteos/Project2/BearPi_LiteOS/components/ota/package/opt\package_sha256_rsa2048.c ****  * Import, export and usage of Huawei LiteOS in any manner by you shall be in compliance with such
  32:C:/Users/lenovo/Desktop/liteos/Project2/BearPi_LiteOS/components/ota/package/opt\package_sha256_rsa2048.c ****  * applicable export control laws and regulations.
  33:C:/Users/lenovo/Desktop/liteos/Project2/BearPi_LiteOS/components/ota/package/opt\package_sha256_rsa2048.c ****  *---------------------------------------------------------------------------*/
  34:C:/Users/lenovo/Desktop/liteos/Project2/BearPi_LiteOS/components/ota/package/opt\package_sha256_rsa2048.c **** #ifdef INCLUDE_PACK_OPTION_FILE
  35:C:/Users/lenovo/Desktop/liteos/Project2/BearPi_LiteOS/components/ota/package/opt\package_sha256_rsa2048.c **** #include "package_sha256_rsa2048.h"
  36:C:/Users/lenovo/Desktop/liteos/Project2/BearPi_LiteOS/components/ota/package/opt\package_sha256_rsa2048.c **** #include <string.h>
  37:C:/Users/lenovo/Desktop/liteos/Project2/BearPi_LiteOS/components/ota/package/opt\package_sha256_rsa2048.c **** #include "mbedtls/rsa.h"
  38:C:/Users/lenovo/Desktop/liteos/Project2/BearPi_LiteOS/components/ota/package/opt\package_sha256_rsa2048.c **** 
  39:C:/Users/lenovo/Desktop/liteos/Project2/BearPi_LiteOS/components/ota/package/opt\package_sha256_rsa2048.c **** #define PACK_SHA256_RSA2048_CHECKSUM_LEN 256
  40:C:/Users/lenovo/Desktop/liteos/Project2/BearPi_LiteOS/components/ota/package/opt\package_sha256_rsa2048.c **** #define PACK_SHA256_CHECKSUM_LEN 32
  41:C:/Users/lenovo/Desktop/liteos/Project2/BearPi_LiteOS/components/ota/package/opt\package_sha256_rsa2048.c **** 
  42:C:/Users/lenovo/Desktop/liteos/Project2/BearPi_LiteOS/components/ota/package/opt\package_sha256_rsa2048.c **** 
  43:C:/Users/lenovo/Desktop/liteos/Project2/BearPi_LiteOS/components/ota/package/opt\package_sha256_rsa2048.c **** static int pack_sha256_rsa2048_check(pack_checksum_alg_s *thi, const uint8_t  *checksum, uint16_t c
  44:C:/Users/lenovo/Desktop/liteos/Project2/BearPi_LiteOS/components/ota/package/opt\package_sha256_rsa2048.c **** {
 514              		.loc 3 44 0
 515              		.cfi_startproc
 516              		@ args = 0, pretend = 0, frame = 32
 517              		@ frame_needed = 0, uses_anonymous_args = 0
 518              	.LVL74:
 519 0000 F0B5     		push	{r4, r5, r6, r7, lr}
 520              	.LCFI12:
 521              		.cfi_def_cfa_offset 20
 522              		.cfi_offset 4, -20
 523              		.cfi_offset 5, -16
 524              		.cfi_offset 6, -12
 525              		.cfi_offset 7, -8
 526              		.cfi_offset 14, -4
 527 0002 8DB0     		sub	sp, sp, #52
 528              	.LCFI13:
 529              		.cfi_def_cfa_offset 72
 530              	.LVL75:
  45:C:/Users/lenovo/Desktop/liteos/Project2/BearPi_LiteOS/components/ota/package/opt\package_sha256_rsa2048.c ****     pack_sha256_rsa2048_s *rsa = (pack_sha256_rsa2048_s *)thi;
ARM GAS  c:\Users\lenovo\AppData\Local\Temp\ccEBu33f.s 			page 16


  46:C:/Users/lenovo/Desktop/liteos/Project2/BearPi_LiteOS/components/ota/package/opt\package_sha256_rsa2048.c ****     mbedtls_rsa_context *dtls_rsa = NULL;
  47:C:/Users/lenovo/Desktop/liteos/Project2/BearPi_LiteOS/components/ota/package/opt\package_sha256_rsa2048.c ****     ota_key_s *key = NULL;
  48:C:/Users/lenovo/Desktop/liteos/Project2/BearPi_LiteOS/components/ota/package/opt\package_sha256_rsa2048.c ****     uint8_t real_sha256[PACK_SHA256_CHECKSUM_LEN];
  49:C:/Users/lenovo/Desktop/liteos/Project2/BearPi_LiteOS/components/ota/package/opt\package_sha256_rsa2048.c ****     int ret = PACK_ERR;
  50:C:/Users/lenovo/Desktop/liteos/Project2/BearPi_LiteOS/components/ota/package/opt\package_sha256_rsa2048.c **** 
  51:C:/Users/lenovo/Desktop/liteos/Project2/BearPi_LiteOS/components/ota/package/opt\package_sha256_rsa2048.c ****     if(checksum_len != PACK_SHA256_RSA2048_CHECKSUM_LEN)
 531              		.loc 3 51 0
 532 0004 B2F5807F 		cmp	r2, #256
 533 0008 0FD0     		beq	.L41
 534 000a 1446     		mov	r4, r2
 535              	.LBB43:
  52:C:/Users/lenovo/Desktop/liteos/Project2/BearPi_LiteOS/components/ota/package/opt\package_sha256_rsa2048.c ****     {
  53:C:/Users/lenovo/Desktop/liteos/Project2/BearPi_LiteOS/components/ota/package/opt\package_sha256_rsa2048.c ****         PACK_LOG("checksum_len err %d", checksum_len);
 536              		.loc 3 53 0
 537 000c FFF7FEFF 		bl	pack_get_params
 538              	.LVL76:
 539 0010 C569     		ldr	r5, [r0, #28]
 540 0012 002D     		cmp	r5, #0
 541 0014 00F09480 		beq	.L50
 542              		.loc 3 53 0 is_stmt 0 discriminator 1
 543 0018 2346     		mov	r3, r4
 544 001a 3522     		movs	r2, #53
 545 001c 4B49     		ldr	r1, .L59
 546 001e 4C48     		ldr	r0, .L59+4
 547              	.LVL77:
 548 0020 A847     		blx	r5
 549              	.LVL78:
 550              	.LBE43:
  54:C:/Users/lenovo/Desktop/liteos/Project2/BearPi_LiteOS/components/ota/package/opt\package_sha256_rsa2048.c ****         return PACK_ERR;
 551              		.loc 3 54 0 is_stmt 1 discriminator 1
 552 0022 0124     		movs	r4, #1
 553              	.LVL79:
 554              	.L40:
  55:C:/Users/lenovo/Desktop/liteos/Project2/BearPi_LiteOS/components/ota/package/opt\package_sha256_rsa2048.c ****     }
  56:C:/Users/lenovo/Desktop/liteos/Project2/BearPi_LiteOS/components/ota/package/opt\package_sha256_rsa2048.c **** 
  57:C:/Users/lenovo/Desktop/liteos/Project2/BearPi_LiteOS/components/ota/package/opt\package_sha256_rsa2048.c ****     key = pack_head_get_key(rsa->head);
  58:C:/Users/lenovo/Desktop/liteos/Project2/BearPi_LiteOS/components/ota/package/opt\package_sha256_rsa2048.c ****     if(NULL == key
  59:C:/Users/lenovo/Desktop/liteos/Project2/BearPi_LiteOS/components/ota/package/opt\package_sha256_rsa2048.c ****             || (NULL == key->rsa_E)
  60:C:/Users/lenovo/Desktop/liteos/Project2/BearPi_LiteOS/components/ota/package/opt\package_sha256_rsa2048.c ****             || (NULL == key->rsa_N))
  61:C:/Users/lenovo/Desktop/liteos/Project2/BearPi_LiteOS/components/ota/package/opt\package_sha256_rsa2048.c ****     {
  62:C:/Users/lenovo/Desktop/liteos/Project2/BearPi_LiteOS/components/ota/package/opt\package_sha256_rsa2048.c ****         PACK_LOG("key null");
  63:C:/Users/lenovo/Desktop/liteos/Project2/BearPi_LiteOS/components/ota/package/opt\package_sha256_rsa2048.c ****         return PACK_ERR;
  64:C:/Users/lenovo/Desktop/liteos/Project2/BearPi_LiteOS/components/ota/package/opt\package_sha256_rsa2048.c ****     }
  65:C:/Users/lenovo/Desktop/liteos/Project2/BearPi_LiteOS/components/ota/package/opt\package_sha256_rsa2048.c **** 
  66:C:/Users/lenovo/Desktop/liteos/Project2/BearPi_LiteOS/components/ota/package/opt\package_sha256_rsa2048.c ****     dtls_rsa = (mbedtls_rsa_context *)PACK_MALLOC(sizeof(*dtls_rsa));
  67:C:/Users/lenovo/Desktop/liteos/Project2/BearPi_LiteOS/components/ota/package/opt\package_sha256_rsa2048.c ****     if(NULL == dtls_rsa)
  68:C:/Users/lenovo/Desktop/liteos/Project2/BearPi_LiteOS/components/ota/package/opt\package_sha256_rsa2048.c ****     {
  69:C:/Users/lenovo/Desktop/liteos/Project2/BearPi_LiteOS/components/ota/package/opt\package_sha256_rsa2048.c ****         PACK_LOG("PACK_MALLOC null");
  70:C:/Users/lenovo/Desktop/liteos/Project2/BearPi_LiteOS/components/ota/package/opt\package_sha256_rsa2048.c ****         return PACK_ERR;
  71:C:/Users/lenovo/Desktop/liteos/Project2/BearPi_LiteOS/components/ota/package/opt\package_sha256_rsa2048.c ****     }
  72:C:/Users/lenovo/Desktop/liteos/Project2/BearPi_LiteOS/components/ota/package/opt\package_sha256_rsa2048.c **** 
  73:C:/Users/lenovo/Desktop/liteos/Project2/BearPi_LiteOS/components/ota/package/opt\package_sha256_rsa2048.c ****     mbedtls_rsa_init(dtls_rsa, MBEDTLS_RSA_PKCS_V21, 0);
  74:C:/Users/lenovo/Desktop/liteos/Project2/BearPi_LiteOS/components/ota/package/opt\package_sha256_rsa2048.c ****     dtls_rsa->len = PACK_SHA256_RSA2048_CHECKSUM_LEN;
  75:C:/Users/lenovo/Desktop/liteos/Project2/BearPi_LiteOS/components/ota/package/opt\package_sha256_rsa2048.c ****     if(mbedtls_mpi_read_string(&dtls_rsa->N, 16, key->rsa_N) != PACK_OK)
  76:C:/Users/lenovo/Desktop/liteos/Project2/BearPi_LiteOS/components/ota/package/opt\package_sha256_rsa2048.c ****     {
  77:C:/Users/lenovo/Desktop/liteos/Project2/BearPi_LiteOS/components/ota/package/opt\package_sha256_rsa2048.c ****         PACK_LOG("mbedtls_mpi_read_string fail");
  78:C:/Users/lenovo/Desktop/liteos/Project2/BearPi_LiteOS/components/ota/package/opt\package_sha256_rsa2048.c ****         goto EXIT;
ARM GAS  c:\Users\lenovo\AppData\Local\Temp\ccEBu33f.s 			page 17


  79:C:/Users/lenovo/Desktop/liteos/Project2/BearPi_LiteOS/components/ota/package/opt\package_sha256_rsa2048.c ****     }
  80:C:/Users/lenovo/Desktop/liteos/Project2/BearPi_LiteOS/components/ota/package/opt\package_sha256_rsa2048.c **** 
  81:C:/Users/lenovo/Desktop/liteos/Project2/BearPi_LiteOS/components/ota/package/opt\package_sha256_rsa2048.c ****     if(mbedtls_mpi_read_string(&dtls_rsa->E, 16, key->rsa_E) != PACK_OK)
  82:C:/Users/lenovo/Desktop/liteos/Project2/BearPi_LiteOS/components/ota/package/opt\package_sha256_rsa2048.c ****     {
  83:C:/Users/lenovo/Desktop/liteos/Project2/BearPi_LiteOS/components/ota/package/opt\package_sha256_rsa2048.c ****         PACK_LOG("mbedtls_mpi_read_string fail");
  84:C:/Users/lenovo/Desktop/liteos/Project2/BearPi_LiteOS/components/ota/package/opt\package_sha256_rsa2048.c ****         goto EXIT;
  85:C:/Users/lenovo/Desktop/liteos/Project2/BearPi_LiteOS/components/ota/package/opt\package_sha256_rsa2048.c ****     }
  86:C:/Users/lenovo/Desktop/liteos/Project2/BearPi_LiteOS/components/ota/package/opt\package_sha256_rsa2048.c **** 
  87:C:/Users/lenovo/Desktop/liteos/Project2/BearPi_LiteOS/components/ota/package/opt\package_sha256_rsa2048.c ****     if(mbedtls_rsa_check_pubkey(dtls_rsa) != PACK_OK)
  88:C:/Users/lenovo/Desktop/liteos/Project2/BearPi_LiteOS/components/ota/package/opt\package_sha256_rsa2048.c ****     {
  89:C:/Users/lenovo/Desktop/liteos/Project2/BearPi_LiteOS/components/ota/package/opt\package_sha256_rsa2048.c ****         PACK_LOG("mbedtls_rsa_check_pubkey fail");
  90:C:/Users/lenovo/Desktop/liteos/Project2/BearPi_LiteOS/components/ota/package/opt\package_sha256_rsa2048.c ****         goto EXIT;
  91:C:/Users/lenovo/Desktop/liteos/Project2/BearPi_LiteOS/components/ota/package/opt\package_sha256_rsa2048.c ****     }
  92:C:/Users/lenovo/Desktop/liteos/Project2/BearPi_LiteOS/components/ota/package/opt\package_sha256_rsa2048.c **** 
  93:C:/Users/lenovo/Desktop/liteos/Project2/BearPi_LiteOS/components/ota/package/opt\package_sha256_rsa2048.c ****     mbedtls_sha256_finish(&rsa->sha256.sha256_context, real_sha256);
  94:C:/Users/lenovo/Desktop/liteos/Project2/BearPi_LiteOS/components/ota/package/opt\package_sha256_rsa2048.c **** 
  95:C:/Users/lenovo/Desktop/liteos/Project2/BearPi_LiteOS/components/ota/package/opt\package_sha256_rsa2048.c ****     if( mbedtls_rsa_pkcs1_verify(dtls_rsa, NULL, NULL, MBEDTLS_RSA_PUBLIC, MBEDTLS_MD_SHA256, 0,
  96:C:/Users/lenovo/Desktop/liteos/Project2/BearPi_LiteOS/components/ota/package/opt\package_sha256_rsa2048.c ****                                  real_sha256, checksum) != PACK_OK)
  97:C:/Users/lenovo/Desktop/liteos/Project2/BearPi_LiteOS/components/ota/package/opt\package_sha256_rsa2048.c ****     {
  98:C:/Users/lenovo/Desktop/liteos/Project2/BearPi_LiteOS/components/ota/package/opt\package_sha256_rsa2048.c ****         PACK_LOG("mbedtls_rsa_pkcs1_verify fail");
  99:C:/Users/lenovo/Desktop/liteos/Project2/BearPi_LiteOS/components/ota/package/opt\package_sha256_rsa2048.c ****         goto EXIT;
 100:C:/Users/lenovo/Desktop/liteos/Project2/BearPi_LiteOS/components/ota/package/opt\package_sha256_rsa2048.c ****     }
 101:C:/Users/lenovo/Desktop/liteos/Project2/BearPi_LiteOS/components/ota/package/opt\package_sha256_rsa2048.c **** 
 102:C:/Users/lenovo/Desktop/liteos/Project2/BearPi_LiteOS/components/ota/package/opt\package_sha256_rsa2048.c ****     ret = PACK_OK;
 103:C:/Users/lenovo/Desktop/liteos/Project2/BearPi_LiteOS/components/ota/package/opt\package_sha256_rsa2048.c **** EXIT:
 104:C:/Users/lenovo/Desktop/liteos/Project2/BearPi_LiteOS/components/ota/package/opt\package_sha256_rsa2048.c **** 
 105:C:/Users/lenovo/Desktop/liteos/Project2/BearPi_LiteOS/components/ota/package/opt\package_sha256_rsa2048.c ****     mbedtls_rsa_free(dtls_rsa);
 106:C:/Users/lenovo/Desktop/liteos/Project2/BearPi_LiteOS/components/ota/package/opt\package_sha256_rsa2048.c ****     PACK_FREE(dtls_rsa);
 107:C:/Users/lenovo/Desktop/liteos/Project2/BearPi_LiteOS/components/ota/package/opt\package_sha256_rsa2048.c ****     return ret;
 108:C:/Users/lenovo/Desktop/liteos/Project2/BearPi_LiteOS/components/ota/package/opt\package_sha256_rsa2048.c **** 
 109:C:/Users/lenovo/Desktop/liteos/Project2/BearPi_LiteOS/components/ota/package/opt\package_sha256_rsa2048.c **** }
 555              		.loc 3 109 0
 556 0024 2046     		mov	r0, r4
 557 0026 0DB0     		add	sp, sp, #52
 558              	.LCFI14:
 559              		.cfi_remember_state
 560              		.cfi_def_cfa_offset 20
 561              		@ sp needed
 562 0028 F0BD     		pop	{r4, r5, r6, r7, pc}
 563              	.LVL80:
 564              	.L41:
 565              	.LCFI15:
 566              		.cfi_restore_state
 567 002a 0546     		mov	r5, r0
 568 002c 0E46     		mov	r6, r1
  57:C:/Users/lenovo/Desktop/liteos/Project2/BearPi_LiteOS/components/ota/package/opt\package_sha256_rsa2048.c ****     if(NULL == key
 569              		.loc 3 57 0
 570 002e C06F     		ldr	r0, [r0, #124]
 571              	.LVL81:
 572 0030 FFF7FEFF 		bl	pack_head_get_key
 573              	.LVL82:
  58:C:/Users/lenovo/Desktop/liteos/Project2/BearPi_LiteOS/components/ota/package/opt\package_sha256_rsa2048.c ****             || (NULL == key->rsa_E)
 574              		.loc 3 58 0
 575 0034 0446     		mov	r4, r0
 576 0036 38B3     		cbz	r0, .L43
  59:C:/Users/lenovo/Desktop/liteos/Project2/BearPi_LiteOS/components/ota/package/opt\package_sha256_rsa2048.c ****             || (NULL == key->rsa_N))
 577              		.loc 3 59 0
ARM GAS  c:\Users\lenovo\AppData\Local\Temp\ccEBu33f.s 			page 18


 578 0038 4368     		ldr	r3, [r0, #4]
 579 003a 2BB3     		cbz	r3, .L43
  60:C:/Users/lenovo/Desktop/liteos/Project2/BearPi_LiteOS/components/ota/package/opt\package_sha256_rsa2048.c ****     {
 580              		.loc 3 60 0
 581 003c 0368     		ldr	r3, [r0]
 582 003e 1BB3     		cbz	r3, .L43
  66:C:/Users/lenovo/Desktop/liteos/Project2/BearPi_LiteOS/components/ota/package/opt\package_sha256_rsa2048.c ****     if(NULL == dtls_rsa)
 583              		.loc 3 66 0
 584 0040 AC20     		movs	r0, #172
 585              	.LVL83:
 586 0042 FFF7FEFF 		bl	pack_malloc
 587              	.LVL84:
  67:C:/Users/lenovo/Desktop/liteos/Project2/BearPi_LiteOS/components/ota/package/opt\package_sha256_rsa2048.c ****     {
 588              		.loc 3 67 0
 589 0046 0746     		mov	r7, r0
 590 0048 48B3     		cbz	r0, .L58
  73:C:/Users/lenovo/Desktop/liteos/Project2/BearPi_LiteOS/components/ota/package/opt\package_sha256_rsa2048.c ****     dtls_rsa->len = PACK_SHA256_RSA2048_CHECKSUM_LEN;
 591              		.loc 3 73 0
 592 004a 0022     		movs	r2, #0
 593 004c 0121     		movs	r1, #1
 594 004e FFF7FEFF 		bl	mbedtls_rsa_init
 595              	.LVL85:
  74:C:/Users/lenovo/Desktop/liteos/Project2/BearPi_LiteOS/components/ota/package/opt\package_sha256_rsa2048.c ****     if(mbedtls_mpi_read_string(&dtls_rsa->N, 16, key->rsa_N) != PACK_OK)
 596              		.loc 3 74 0
 597 0052 4FF48073 		mov	r3, #256
 598 0056 7B60     		str	r3, [r7, #4]
  75:C:/Users/lenovo/Desktop/liteos/Project2/BearPi_LiteOS/components/ota/package/opt\package_sha256_rsa2048.c ****     {
 599              		.loc 3 75 0
 600 0058 2268     		ldr	r2, [r4]
 601 005a 1021     		movs	r1, #16
 602 005c 07F10800 		add	r0, r7, #8
 603 0060 FFF7FEFF 		bl	mbedtls_mpi_read_string
 604              	.LVL86:
 605 0064 30B3     		cbz	r0, .L46
 606              	.LBB44:
  77:C:/Users/lenovo/Desktop/liteos/Project2/BearPi_LiteOS/components/ota/package/opt\package_sha256_rsa2048.c ****         goto EXIT;
 607              		.loc 3 77 0
 608 0066 FFF7FEFF 		bl	pack_get_params
 609              	.LVL87:
 610 006a C369     		ldr	r3, [r0, #28]
 611 006c 002B     		cmp	r3, #0
 612 006e 5FD0     		beq	.L53
  77:C:/Users/lenovo/Desktop/liteos/Project2/BearPi_LiteOS/components/ota/package/opt\package_sha256_rsa2048.c ****         goto EXIT;
 613              		.loc 3 77 0 is_stmt 0 discriminator 1
 614 0070 4D22     		movs	r2, #77
 615 0072 3649     		ldr	r1, .L59
 616 0074 3748     		ldr	r0, .L59+8
 617              	.LVL88:
 618 0076 9847     		blx	r3
 619              	.LVL89:
 620              	.LBE44:
  49:C:/Users/lenovo/Desktop/liteos/Project2/BearPi_LiteOS/components/ota/package/opt\package_sha256_rsa2048.c **** 
 621              		.loc 3 49 0 is_stmt 1 discriminator 1
 622 0078 0124     		movs	r4, #1
 623              	.LVL90:
 624              	.L47:
 105:C:/Users/lenovo/Desktop/liteos/Project2/BearPi_LiteOS/components/ota/package/opt\package_sha256_rsa2048.c ****     PACK_FREE(dtls_rsa);
ARM GAS  c:\Users\lenovo\AppData\Local\Temp\ccEBu33f.s 			page 19


 625              		.loc 3 105 0
 626 007a 3846     		mov	r0, r7
 627 007c FFF7FEFF 		bl	mbedtls_rsa_free
 628              	.LVL91:
 106:C:/Users/lenovo/Desktop/liteos/Project2/BearPi_LiteOS/components/ota/package/opt\package_sha256_rsa2048.c ****     return ret;
 629              		.loc 3 106 0
 630 0080 3846     		mov	r0, r7
 631 0082 FFF7FEFF 		bl	pack_free
 632              	.LVL92:
 107:C:/Users/lenovo/Desktop/liteos/Project2/BearPi_LiteOS/components/ota/package/opt\package_sha256_rsa2048.c **** 
 633              		.loc 3 107 0
 634 0086 CDE7     		b	.L40
 635              	.LVL93:
 636              	.L43:
 637              	.LBB45:
  62:C:/Users/lenovo/Desktop/liteos/Project2/BearPi_LiteOS/components/ota/package/opt\package_sha256_rsa2048.c ****         return PACK_ERR;
 638              		.loc 3 62 0
 639 0088 FFF7FEFF 		bl	pack_get_params
 640              	.LVL94:
 641 008c C369     		ldr	r3, [r0, #28]
 642 008e 002B     		cmp	r3, #0
 643 0090 58D0     		beq	.L51
  62:C:/Users/lenovo/Desktop/liteos/Project2/BearPi_LiteOS/components/ota/package/opt\package_sha256_rsa2048.c ****         return PACK_ERR;
 644              		.loc 3 62 0 is_stmt 0 discriminator 1
 645 0092 3E22     		movs	r2, #62
 646 0094 2D49     		ldr	r1, .L59
 647 0096 3048     		ldr	r0, .L59+12
 648              	.LVL95:
 649 0098 9847     		blx	r3
 650              	.LVL96:
 651              	.LBE45:
  63:C:/Users/lenovo/Desktop/liteos/Project2/BearPi_LiteOS/components/ota/package/opt\package_sha256_rsa2048.c ****     }
 652              		.loc 3 63 0 is_stmt 1 discriminator 1
 653 009a 0124     		movs	r4, #1
 654              	.LVL97:
 655 009c C2E7     		b	.L40
 656              	.LVL98:
 657              	.L58:
 658              	.LBB46:
  69:C:/Users/lenovo/Desktop/liteos/Project2/BearPi_LiteOS/components/ota/package/opt\package_sha256_rsa2048.c ****         return PACK_ERR;
 659              		.loc 3 69 0
 660 009e FFF7FEFF 		bl	pack_get_params
 661              	.LVL99:
 662 00a2 C369     		ldr	r3, [r0, #28]
 663 00a4 002B     		cmp	r3, #0
 664 00a6 4FD0     		beq	.L52
  69:C:/Users/lenovo/Desktop/liteos/Project2/BearPi_LiteOS/components/ota/package/opt\package_sha256_rsa2048.c ****         return PACK_ERR;
 665              		.loc 3 69 0 is_stmt 0 discriminator 1
 666 00a8 4522     		movs	r2, #69
 667 00aa 2849     		ldr	r1, .L59
 668 00ac 2B48     		ldr	r0, .L59+16
 669              	.LVL100:
 670 00ae 9847     		blx	r3
 671              	.LVL101:
 672              	.LBE46:
  70:C:/Users/lenovo/Desktop/liteos/Project2/BearPi_LiteOS/components/ota/package/opt\package_sha256_rsa2048.c ****     }
 673              		.loc 3 70 0 is_stmt 1 discriminator 1
ARM GAS  c:\Users\lenovo\AppData\Local\Temp\ccEBu33f.s 			page 20


 674 00b0 0124     		movs	r4, #1
 675              	.LVL102:
 676 00b2 B7E7     		b	.L40
 677              	.LVL103:
 678              	.L46:
  81:C:/Users/lenovo/Desktop/liteos/Project2/BearPi_LiteOS/components/ota/package/opt\package_sha256_rsa2048.c ****     {
 679              		.loc 3 81 0
 680 00b4 6268     		ldr	r2, [r4, #4]
 681 00b6 1021     		movs	r1, #16
 682 00b8 07F11400 		add	r0, r7, #20
 683 00bc FFF7FEFF 		bl	mbedtls_mpi_read_string
 684              	.LVL104:
 685 00c0 50B1     		cbz	r0, .L48
 686              	.LBB47:
  83:C:/Users/lenovo/Desktop/liteos/Project2/BearPi_LiteOS/components/ota/package/opt\package_sha256_rsa2048.c ****         goto EXIT;
 687              		.loc 3 83 0
 688 00c2 FFF7FEFF 		bl	pack_get_params
 689              	.LVL105:
 690 00c6 C369     		ldr	r3, [r0, #28]
 691 00c8 002B     		cmp	r3, #0
 692 00ca 33D0     		beq	.L54
  83:C:/Users/lenovo/Desktop/liteos/Project2/BearPi_LiteOS/components/ota/package/opt\package_sha256_rsa2048.c ****         goto EXIT;
 693              		.loc 3 83 0 is_stmt 0 discriminator 1
 694 00cc 5322     		movs	r2, #83
 695 00ce 1F49     		ldr	r1, .L59
 696 00d0 2048     		ldr	r0, .L59+8
 697              	.LVL106:
 698 00d2 9847     		blx	r3
 699              	.LVL107:
 700              	.LBE47:
  49:C:/Users/lenovo/Desktop/liteos/Project2/BearPi_LiteOS/components/ota/package/opt\package_sha256_rsa2048.c **** 
 701              		.loc 3 49 0 is_stmt 1 discriminator 1
 702 00d4 0124     		movs	r4, #1
 703              	.LVL108:
 704 00d6 D0E7     		b	.L47
 705              	.LVL109:
 706              	.L48:
  87:C:/Users/lenovo/Desktop/liteos/Project2/BearPi_LiteOS/components/ota/package/opt\package_sha256_rsa2048.c ****     {
 707              		.loc 3 87 0
 708 00d8 3846     		mov	r0, r7
 709 00da FFF7FEFF 		bl	mbedtls_rsa_check_pubkey
 710              	.LVL110:
 711 00de 48B1     		cbz	r0, .L49
 712              	.LBB48:
  89:C:/Users/lenovo/Desktop/liteos/Project2/BearPi_LiteOS/components/ota/package/opt\package_sha256_rsa2048.c ****         goto EXIT;
 713              		.loc 3 89 0
 714 00e0 FFF7FEFF 		bl	pack_get_params
 715              	.LVL111:
 716 00e4 C369     		ldr	r3, [r0, #28]
 717 00e6 3BB3     		cbz	r3, .L55
  89:C:/Users/lenovo/Desktop/liteos/Project2/BearPi_LiteOS/components/ota/package/opt\package_sha256_rsa2048.c ****         goto EXIT;
 718              		.loc 3 89 0 is_stmt 0 discriminator 1
 719 00e8 5922     		movs	r2, #89
 720 00ea 1849     		ldr	r1, .L59
 721 00ec 1C48     		ldr	r0, .L59+20
 722              	.LVL112:
 723 00ee 9847     		blx	r3
ARM GAS  c:\Users\lenovo\AppData\Local\Temp\ccEBu33f.s 			page 21


 724              	.LVL113:
 725              	.LBE48:
  49:C:/Users/lenovo/Desktop/liteos/Project2/BearPi_LiteOS/components/ota/package/opt\package_sha256_rsa2048.c **** 
 726              		.loc 3 49 0 is_stmt 1 discriminator 1
 727 00f0 0124     		movs	r4, #1
 728              	.LVL114:
 729 00f2 C2E7     		b	.L47
 730              	.LVL115:
 731              	.L49:
  93:C:/Users/lenovo/Desktop/liteos/Project2/BearPi_LiteOS/components/ota/package/opt\package_sha256_rsa2048.c **** 
 732              		.loc 3 93 0
 733 00f4 04AC     		add	r4, sp, #16
 734              	.LVL116:
 735 00f6 2146     		mov	r1, r4
 736 00f8 05F11000 		add	r0, r5, #16
 737 00fc FFF7FEFF 		bl	mbedtls_sha256_finish
 738              	.LVL117:
  95:C:/Users/lenovo/Desktop/liteos/Project2/BearPi_LiteOS/components/ota/package/opt\package_sha256_rsa2048.c ****                                  real_sha256, checksum) != PACK_OK)
 739              		.loc 3 95 0
 740 0100 0396     		str	r6, [sp, #12]
 741 0102 0294     		str	r4, [sp, #8]
 742 0104 0021     		movs	r1, #0
 743 0106 0191     		str	r1, [sp, #4]
 744 0108 0623     		movs	r3, #6
 745 010a 0093     		str	r3, [sp]
 746 010c 0B46     		mov	r3, r1
 747 010e 0A46     		mov	r2, r1
 748 0110 3846     		mov	r0, r7
 749 0112 FFF7FEFF 		bl	mbedtls_rsa_pkcs1_verify
 750              	.LVL118:
 751 0116 0446     		mov	r4, r0
 752 0118 0028     		cmp	r0, #0
 753 011a AED0     		beq	.L47
 754              	.LBB49:
  98:C:/Users/lenovo/Desktop/liteos/Project2/BearPi_LiteOS/components/ota/package/opt\package_sha256_rsa2048.c ****         goto EXIT;
 755              		.loc 3 98 0
 756 011c FFF7FEFF 		bl	pack_get_params
 757              	.LVL119:
 758 0120 C369     		ldr	r3, [r0, #28]
 759 0122 5BB1     		cbz	r3, .L56
  98:C:/Users/lenovo/Desktop/liteos/Project2/BearPi_LiteOS/components/ota/package/opt\package_sha256_rsa2048.c ****         goto EXIT;
 760              		.loc 3 98 0 is_stmt 0 discriminator 1
 761 0124 6222     		movs	r2, #98
 762 0126 0949     		ldr	r1, .L59
 763 0128 0E48     		ldr	r0, .L59+24
 764              	.LVL120:
 765 012a 9847     		blx	r3
 766              	.LVL121:
 767              	.LBE49:
  49:C:/Users/lenovo/Desktop/liteos/Project2/BearPi_LiteOS/components/ota/package/opt\package_sha256_rsa2048.c **** 
 768              		.loc 3 49 0 is_stmt 1 discriminator 1
 769 012c 0124     		movs	r4, #1
 770 012e A4E7     		b	.L47
 771              	.LVL122:
 772              	.L53:
  49:C:/Users/lenovo/Desktop/liteos/Project2/BearPi_LiteOS/components/ota/package/opt\package_sha256_rsa2048.c **** 
 773              		.loc 3 49 0 is_stmt 0
ARM GAS  c:\Users\lenovo\AppData\Local\Temp\ccEBu33f.s 			page 22


 774 0130 0124     		movs	r4, #1
 775              	.LVL123:
 776 0132 A2E7     		b	.L47
 777              	.LVL124:
 778              	.L54:
 779 0134 0124     		movs	r4, #1
 780              	.LVL125:
 781 0136 A0E7     		b	.L47
 782              	.LVL126:
 783              	.L55:
 784 0138 0124     		movs	r4, #1
 785              	.LVL127:
 786 013a 9EE7     		b	.L47
 787              	.LVL128:
 788              	.L56:
 789 013c 0124     		movs	r4, #1
 790 013e 9CE7     		b	.L47
 791              	.LVL129:
 792              	.L50:
  54:C:/Users/lenovo/Desktop/liteos/Project2/BearPi_LiteOS/components/ota/package/opt\package_sha256_rsa2048.c ****     }
 793              		.loc 3 54 0 is_stmt 1
 794 0140 0124     		movs	r4, #1
 795 0142 6FE7     		b	.L40
 796              	.LVL130:
 797              	.L51:
  63:C:/Users/lenovo/Desktop/liteos/Project2/BearPi_LiteOS/components/ota/package/opt\package_sha256_rsa2048.c ****     }
 798              		.loc 3 63 0
 799 0144 0124     		movs	r4, #1
 800              	.LVL131:
 801 0146 6DE7     		b	.L40
 802              	.LVL132:
 803              	.L52:
  70:C:/Users/lenovo/Desktop/liteos/Project2/BearPi_LiteOS/components/ota/package/opt\package_sha256_rsa2048.c ****     }
 804              		.loc 3 70 0
 805 0148 0124     		movs	r4, #1
 806              	.LVL133:
 807 014a 6BE7     		b	.L40
 808              	.L60:
 809              		.align	2
 810              	.L59:
 811 014c 00000000 		.word	.LANCHOR3
 812 0150 00000000 		.word	.LC6
 813 0154 50000000 		.word	.LC9
 814 0158 20000000 		.word	.LC7
 815 015c 34000000 		.word	.LC8
 816 0160 78000000 		.word	.LC10
 817 0164 A0000000 		.word	.LC11
 818              		.cfi_endproc
 819              	.LFE16:
 821              		.section	.text.pack_checksum_delete,"ax",%progbits
 822              		.align	1
 823              		.global	pack_checksum_delete
 824              		.syntax unified
 825              		.thumb
 826              		.thumb_func
 827              		.fpu fpv4-sp-d16
 829              	pack_checksum_delete:
ARM GAS  c:\Users\lenovo\AppData\Local\Temp\ccEBu33f.s 			page 23


 830              	.LFB5:
  89:C:/Users/lenovo/Desktop/liteos/Project2/BearPi_LiteOS/components/ota/package\package_checksum.c ****     if(NULL == thi)
 831              		.loc 1 89 0
 832              		.cfi_startproc
 833              		@ args = 0, pretend = 0, frame = 0
 834              		@ frame_needed = 0, uses_anonymous_args = 0
 835              	.LVL134:
  90:C:/Users/lenovo/Desktop/liteos/Project2/BearPi_LiteOS/components/ota/package\package_checksum.c ****     {
 836              		.loc 1 90 0
 837 0000 40B1     		cbz	r0, .L64
  89:C:/Users/lenovo/Desktop/liteos/Project2/BearPi_LiteOS/components/ota/package\package_checksum.c ****     if(NULL == thi)
 838              		.loc 1 89 0
 839 0002 10B5     		push	{r4, lr}
 840              	.LCFI16:
 841              		.cfi_def_cfa_offset 8
 842              		.cfi_offset 4, -8
 843              		.cfi_offset 14, -4
 844 0004 0446     		mov	r4, r0
  94:C:/Users/lenovo/Desktop/liteos/Project2/BearPi_LiteOS/components/ota/package\package_checksum.c ****     PACK_FREE(thi);
 845              		.loc 1 94 0
 846 0006 8369     		ldr	r3, [r0, #24]
 847 0008 0C30     		adds	r0, r0, #12
 848              	.LVL135:
 849 000a 9847     		blx	r3
 850              	.LVL136:
  95:C:/Users/lenovo/Desktop/liteos/Project2/BearPi_LiteOS/components/ota/package\package_checksum.c **** }
 851              		.loc 1 95 0
 852 000c 2046     		mov	r0, r4
 853 000e FFF7FEFF 		bl	pack_free
 854              	.LVL137:
  96:C:/Users/lenovo/Desktop/liteos/Project2/BearPi_LiteOS/components/ota/package\package_checksum.c **** 
 855              		.loc 1 96 0
 856 0012 10BD     		pop	{r4, pc}
 857              	.LVL138:
 858              	.L64:
 859              	.LCFI17:
 860              		.cfi_def_cfa_offset 0
 861              		.cfi_restore 4
 862              		.cfi_restore 14
 863 0014 7047     		bx	lr
 864              		.cfi_endproc
 865              	.LFE5:
 867              		.section	.text.pack_checksum_update_data,"ax",%progbits
 868              		.align	1
 869              		.global	pack_checksum_update_data
 870              		.syntax unified
 871              		.thumb
 872              		.thumb_func
 873              		.fpu fpv4-sp-d16
 875              	pack_checksum_update_data:
 876              	.LFB9:
 174:C:/Users/lenovo/Desktop/liteos/Project2/BearPi_LiteOS/components/ota/package\package_checksum.c **** 
 175:C:/Users/lenovo/Desktop/liteos/Project2/BearPi_LiteOS/components/ota/package\package_checksum.c **** int pack_checksum_update_data(pack_checksum_s *thi, uint32_t offset, const uint8_t *buff,
 176:C:/Users/lenovo/Desktop/liteos/Project2/BearPi_LiteOS/components/ota/package\package_checksum.c ****                                    uint16_t len, pack_hardware_s *hardware)
 177:C:/Users/lenovo/Desktop/liteos/Project2/BearPi_LiteOS/components/ota/package\package_checksum.c **** {
 877              		.loc 1 177 0
 878              		.cfi_startproc
ARM GAS  c:\Users\lenovo\AppData\Local\Temp\ccEBu33f.s 			page 24


 879              		@ args = 4, pretend = 0, frame = 0
 880              		@ frame_needed = 0, uses_anonymous_args = 0
 881              	.LVL139:
 882 0000 F8B5     		push	{r3, r4, r5, r6, r7, lr}
 883              	.LCFI18:
 884              		.cfi_def_cfa_offset 24
 885              		.cfi_offset 3, -24
 886              		.cfi_offset 4, -20
 887              		.cfi_offset 5, -16
 888              		.cfi_offset 6, -12
 889              		.cfi_offset 7, -8
 890              		.cfi_offset 14, -4
 178:C:/Users/lenovo/Desktop/liteos/Project2/BearPi_LiteOS/components/ota/package\package_checksum.c ****     int ret;
 179:C:/Users/lenovo/Desktop/liteos/Project2/BearPi_LiteOS/components/ota/package\package_checksum.c **** 
 180:C:/Users/lenovo/Desktop/liteos/Project2/BearPi_LiteOS/components/ota/package\package_checksum.c ****     ASSERT_THIS(return PACK_ERR);
 891              		.loc 1 180 0
 892 0002 0028     		cmp	r0, #0
 893 0004 33D0     		beq	.L83
 894 0006 0E46     		mov	r6, r1
 895 0008 1746     		mov	r7, r2
 896 000a 1D46     		mov	r5, r3
 897 000c 0446     		mov	r4, r0
 181:C:/Users/lenovo/Desktop/liteos/Project2/BearPi_LiteOS/components/ota/package\package_checksum.c **** 
 182:C:/Users/lenovo/Desktop/liteos/Project2/BearPi_LiteOS/components/ota/package\package_checksum.c ****     if(0 == len)
 898              		.loc 1 182 0
 899 000e 002B     		cmp	r3, #0
 900 0010 5AD0     		beq	.L77
 183:C:/Users/lenovo/Desktop/liteos/Project2/BearPi_LiteOS/components/ota/package\package_checksum.c ****     {
 184:C:/Users/lenovo/Desktop/liteos/Project2/BearPi_LiteOS/components/ota/package\package_checksum.c ****         return PACK_OK;
 185:C:/Users/lenovo/Desktop/liteos/Project2/BearPi_LiteOS/components/ota/package\package_checksum.c ****     }
 186:C:/Users/lenovo/Desktop/liteos/Project2/BearPi_LiteOS/components/ota/package\package_checksum.c **** 
 187:C:/Users/lenovo/Desktop/liteos/Project2/BearPi_LiteOS/components/ota/package\package_checksum.c ****     if(NULL == buff)
 901              		.loc 1 187 0
 902 0012 002A     		cmp	r2, #0
 903 0014 35D0     		beq	.L84
 188:C:/Users/lenovo/Desktop/liteos/Project2/BearPi_LiteOS/components/ota/package\package_checksum.c ****     {
 189:C:/Users/lenovo/Desktop/liteos/Project2/BearPi_LiteOS/components/ota/package\package_checksum.c ****         PACK_LOG("buff null");
 190:C:/Users/lenovo/Desktop/liteos/Project2/BearPi_LiteOS/components/ota/package\package_checksum.c ****         return PACK_ERR;
 191:C:/Users/lenovo/Desktop/liteos/Project2/BearPi_LiteOS/components/ota/package\package_checksum.c ****     }
 192:C:/Users/lenovo/Desktop/liteos/Project2/BearPi_LiteOS/components/ota/package\package_checksum.c **** 
 193:C:/Users/lenovo/Desktop/liteos/Project2/BearPi_LiteOS/components/ota/package\package_checksum.c ****     if(((thi->offset_flag) && (thi->offset == offset))
 904              		.loc 1 193 0
 905 0016 0379     		ldrb	r3, [r0, #4]	@ zero_extendqisi2
 906              	.LVL140:
 907 0018 13B1     		cbz	r3, .L71
 908              		.loc 1 193 0 is_stmt 0 discriminator 1
 909 001a 0368     		ldr	r3, [r0]
 910 001c 8B42     		cmp	r3, r1
 911 001e 3AD0     		beq	.L72
 912              	.L71:
 194:C:/Users/lenovo/Desktop/liteos/Project2/BearPi_LiteOS/components/ota/package\package_checksum.c ****             || (pack_head_get_head_len(thi->head) == offset))
 913              		.loc 1 194 0 is_stmt 1
 914 0020 A068     		ldr	r0, [r4, #8]
 915              	.LVL141:
 916 0022 FFF7FEFF 		bl	pack_head_get_head_len
 917              	.LVL142:
 918 0026 B042     		cmp	r0, r6
ARM GAS  c:\Users\lenovo\AppData\Local\Temp\ccEBu33f.s 			page 25


 919 0028 35D0     		beq	.L72
 195:C:/Users/lenovo/Desktop/liteos/Project2/BearPi_LiteOS/components/ota/package\package_checksum.c ****     {
 196:C:/Users/lenovo/Desktop/liteos/Project2/BearPi_LiteOS/components/ota/package\package_checksum.c ****         if(pack_checksum_get_alg(thi)->update(pack_checksum_get_alg(thi), buff, len) != PACK_OK)
 197:C:/Users/lenovo/Desktop/liteos/Project2/BearPi_LiteOS/components/ota/package\package_checksum.c ****         {
 198:C:/Users/lenovo/Desktop/liteos/Project2/BearPi_LiteOS/components/ota/package\package_checksum.c ****             return PACK_ERR;
 199:C:/Users/lenovo/Desktop/liteos/Project2/BearPi_LiteOS/components/ota/package\package_checksum.c ****         }
 200:C:/Users/lenovo/Desktop/liteos/Project2/BearPi_LiteOS/components/ota/package\package_checksum.c ****         thi->offset_flag = true;
 201:C:/Users/lenovo/Desktop/liteos/Project2/BearPi_LiteOS/components/ota/package\package_checksum.c ****         thi->offset = offset + len;
 202:C:/Users/lenovo/Desktop/liteos/Project2/BearPi_LiteOS/components/ota/package\package_checksum.c ****         return PACK_OK;
 203:C:/Users/lenovo/Desktop/liteos/Project2/BearPi_LiteOS/components/ota/package\package_checksum.c ****     }
 204:C:/Users/lenovo/Desktop/liteos/Project2/BearPi_LiteOS/components/ota/package\package_checksum.c ****     /*lint -e525*/
 205:C:/Users/lenovo/Desktop/liteos/Project2/BearPi_LiteOS/components/ota/package\package_checksum.c ****     if((NULL == hardware) || (NULL == hardware->read_software))
 920              		.loc 1 205 0
 921 002a 069B     		ldr	r3, [sp, #24]
 922 002c 002B     		cmp	r3, #0
 923 002e 3FD0     		beq	.L74
 924              		.loc 1 205 0 is_stmt 0 discriminator 1
 925 0030 1B68     		ldr	r3, [r3]
 926 0032 002B     		cmp	r3, #0
 927 0034 3CD0     		beq	.L74
 206:C:/Users/lenovo/Desktop/liteos/Project2/BearPi_LiteOS/components/ota/package\package_checksum.c ****     {
 207:C:/Users/lenovo/Desktop/liteos/Project2/BearPi_LiteOS/components/ota/package\package_checksum.c ****         PACK_LOG("hardware null");
 208:C:/Users/lenovo/Desktop/liteos/Project2/BearPi_LiteOS/components/ota/package\package_checksum.c ****         return PACK_ERR;
 209:C:/Users/lenovo/Desktop/liteos/Project2/BearPi_LiteOS/components/ota/package\package_checksum.c ****     }
 210:C:/Users/lenovo/Desktop/liteos/Project2/BearPi_LiteOS/components/ota/package\package_checksum.c ****     /*lint +e525*/
 211:C:/Users/lenovo/Desktop/liteos/Project2/BearPi_LiteOS/components/ota/package\package_checksum.c **** 
 212:C:/Users/lenovo/Desktop/liteos/Project2/BearPi_LiteOS/components/ota/package\package_checksum.c ****     ret = pack_checksum_init_head_data(thi);
 928              		.loc 1 212 0 is_stmt 1
 929 0036 2046     		mov	r0, r4
 930 0038 FFF7FEFF 		bl	pack_checksum_init_head_data
 931              	.LVL143:
 213:C:/Users/lenovo/Desktop/liteos/Project2/BearPi_LiteOS/components/ota/package\package_checksum.c ****     if(ret != PACK_OK)
 932              		.loc 1 213 0
 933 003c 0346     		mov	r3, r0
 934 003e 0028     		cmp	r0, #0
 935 0040 43D1     		bne	.L67
 214:C:/Users/lenovo/Desktop/liteos/Project2/BearPi_LiteOS/components/ota/package\package_checksum.c ****     {
 215:C:/Users/lenovo/Desktop/liteos/Project2/BearPi_LiteOS/components/ota/package\package_checksum.c ****         return ret;
 216:C:/Users/lenovo/Desktop/liteos/Project2/BearPi_LiteOS/components/ota/package\package_checksum.c ****     }
 217:C:/Users/lenovo/Desktop/liteos/Project2/BearPi_LiteOS/components/ota/package\package_checksum.c **** 
 218:C:/Users/lenovo/Desktop/liteos/Project2/BearPi_LiteOS/components/ota/package\package_checksum.c ****     ret = pack_checksum_restore_checksum(thi, offset, hardware);
 936              		.loc 1 218 0
 937 0042 069A     		ldr	r2, [sp, #24]
 938 0044 3146     		mov	r1, r6
 939 0046 2046     		mov	r0, r4
 940              	.LVL144:
 941 0048 FFF7FEFF 		bl	pack_checksum_restore_checksum
 942              	.LVL145:
 219:C:/Users/lenovo/Desktop/liteos/Project2/BearPi_LiteOS/components/ota/package\package_checksum.c ****     if(ret != PACK_OK)
 943              		.loc 1 219 0
 944 004c 0346     		mov	r3, r0
 945 004e 0028     		cmp	r0, #0
 946 0050 3BD1     		bne	.L67
 220:C:/Users/lenovo/Desktop/liteos/Project2/BearPi_LiteOS/components/ota/package\package_checksum.c ****     {
 221:C:/Users/lenovo/Desktop/liteos/Project2/BearPi_LiteOS/components/ota/package\package_checksum.c ****         return ret;
 222:C:/Users/lenovo/Desktop/liteos/Project2/BearPi_LiteOS/components/ota/package\package_checksum.c ****     }
 223:C:/Users/lenovo/Desktop/liteos/Project2/BearPi_LiteOS/components/ota/package\package_checksum.c **** 
ARM GAS  c:\Users\lenovo\AppData\Local\Temp\ccEBu33f.s 			page 26


 224:C:/Users/lenovo/Desktop/liteos/Project2/BearPi_LiteOS/components/ota/package\package_checksum.c ****     if(pack_checksum_get_alg(thi)->update(pack_checksum_get_alg(thi), buff, len) != PACK_OK)
 947              		.loc 1 224 0
 948 0052 2369     		ldr	r3, [r4, #16]
 949 0054 2A46     		mov	r2, r5
 950 0056 3946     		mov	r1, r7
 951 0058 04F10C00 		add	r0, r4, #12
 952              	.LVL146:
 953 005c 9847     		blx	r3
 954              	.LVL147:
 955 005e 0346     		mov	r3, r0
 956 0060 0028     		cmp	r0, #0
 957 0062 3AD1     		bne	.L81
 225:C:/Users/lenovo/Desktop/liteos/Project2/BearPi_LiteOS/components/ota/package\package_checksum.c ****     {
 226:C:/Users/lenovo/Desktop/liteos/Project2/BearPi_LiteOS/components/ota/package\package_checksum.c ****         return PACK_ERR;
 227:C:/Users/lenovo/Desktop/liteos/Project2/BearPi_LiteOS/components/ota/package\package_checksum.c ****     }
 228:C:/Users/lenovo/Desktop/liteos/Project2/BearPi_LiteOS/components/ota/package\package_checksum.c **** 
 229:C:/Users/lenovo/Desktop/liteos/Project2/BearPi_LiteOS/components/ota/package\package_checksum.c ****     thi->offset_flag = true;
 958              		.loc 1 229 0
 959 0064 0122     		movs	r2, #1
 960 0066 2271     		strb	r2, [r4, #4]
 230:C:/Users/lenovo/Desktop/liteos/Project2/BearPi_LiteOS/components/ota/package\package_checksum.c ****     thi->offset = offset + len;
 961              		.loc 1 230 0
 962 0068 3544     		add	r5, r5, r6
 963 006a 2560     		str	r5, [r4]
 231:C:/Users/lenovo/Desktop/liteos/Project2/BearPi_LiteOS/components/ota/package\package_checksum.c ****     return PACK_OK;
 964              		.loc 1 231 0
 965 006c 2DE0     		b	.L67
 966              	.LVL148:
 967              	.L83:
 968              	.LBB50:
 180:C:/Users/lenovo/Desktop/liteos/Project2/BearPi_LiteOS/components/ota/package\package_checksum.c **** 
 969              		.loc 1 180 0 discriminator 1
 970 006e FFF7FEFF 		bl	pack_get_params
 971              	.LVL149:
 972 0072 C369     		ldr	r3, [r0, #28]
 973 0074 33B3     		cbz	r3, .L76
 180:C:/Users/lenovo/Desktop/liteos/Project2/BearPi_LiteOS/components/ota/package\package_checksum.c **** 
 974              		.loc 1 180 0 is_stmt 0 discriminator 2
 975 0076 B422     		movs	r2, #180
 976 0078 1949     		ldr	r1, .L85
 977 007a 1A48     		ldr	r0, .L85+4
 978              	.LVL150:
 979 007c 9847     		blx	r3
 980              	.LVL151:
 981              	.LBE50:
 982 007e 0123     		movs	r3, #1
 983 0080 23E0     		b	.L67
 984              	.LVL152:
 985              	.L84:
 986              	.LBB51:
 189:C:/Users/lenovo/Desktop/liteos/Project2/BearPi_LiteOS/components/ota/package\package_checksum.c ****         return PACK_ERR;
 987              		.loc 1 189 0 is_stmt 1
 988 0082 FFF7FEFF 		bl	pack_get_params
 989              	.LVL153:
 990 0086 C369     		ldr	r3, [r0, #28]
 991 0088 0BB3     		cbz	r3, .L78
 189:C:/Users/lenovo/Desktop/liteos/Project2/BearPi_LiteOS/components/ota/package\package_checksum.c ****         return PACK_ERR;
ARM GAS  c:\Users\lenovo\AppData\Local\Temp\ccEBu33f.s 			page 27


 992              		.loc 1 189 0 is_stmt 0 discriminator 1
 993 008a BD22     		movs	r2, #189
 994 008c 1449     		ldr	r1, .L85
 995 008e 1648     		ldr	r0, .L85+8
 996              	.LVL154:
 997 0090 9847     		blx	r3
 998              	.LVL155:
 999              	.LBE51:
 190:C:/Users/lenovo/Desktop/liteos/Project2/BearPi_LiteOS/components/ota/package\package_checksum.c ****     }
 1000              		.loc 1 190 0 is_stmt 1 discriminator 1
 1001 0092 0123     		movs	r3, #1
 1002 0094 19E0     		b	.L67
 1003              	.L72:
 196:C:/Users/lenovo/Desktop/liteos/Project2/BearPi_LiteOS/components/ota/package\package_checksum.c ****         {
 1004              		.loc 1 196 0
 1005 0096 2369     		ldr	r3, [r4, #16]
 1006 0098 2A46     		mov	r2, r5
 1007 009a 3946     		mov	r1, r7
 1008 009c 04F10C00 		add	r0, r4, #12
 1009 00a0 9847     		blx	r3
 1010              	.LVL156:
 1011 00a2 0346     		mov	r3, r0
 1012 00a4 A8B9     		cbnz	r0, .L79
 200:C:/Users/lenovo/Desktop/liteos/Project2/BearPi_LiteOS/components/ota/package\package_checksum.c ****         thi->offset = offset + len;
 1013              		.loc 1 200 0
 1014 00a6 0122     		movs	r2, #1
 1015 00a8 2271     		strb	r2, [r4, #4]
 201:C:/Users/lenovo/Desktop/liteos/Project2/BearPi_LiteOS/components/ota/package\package_checksum.c ****         return PACK_OK;
 1016              		.loc 1 201 0
 1017 00aa 3544     		add	r5, r5, r6
 1018 00ac 2560     		str	r5, [r4]
 202:C:/Users/lenovo/Desktop/liteos/Project2/BearPi_LiteOS/components/ota/package\package_checksum.c ****     }
 1019              		.loc 1 202 0
 1020 00ae 0CE0     		b	.L67
 1021              	.L74:
 1022              	.LBB52:
 207:C:/Users/lenovo/Desktop/liteos/Project2/BearPi_LiteOS/components/ota/package\package_checksum.c ****         return PACK_ERR;
 1023              		.loc 1 207 0
 1024 00b0 FFF7FEFF 		bl	pack_get_params
 1025              	.LVL157:
 1026 00b4 C369     		ldr	r3, [r0, #28]
 1027 00b6 73B1     		cbz	r3, .L80
 207:C:/Users/lenovo/Desktop/liteos/Project2/BearPi_LiteOS/components/ota/package\package_checksum.c ****         return PACK_ERR;
 1028              		.loc 1 207 0 is_stmt 0 discriminator 1
 1029 00b8 CF22     		movs	r2, #207
 1030 00ba 0949     		ldr	r1, .L85
 1031 00bc 0B48     		ldr	r0, .L85+12
 1032              	.LVL158:
 1033 00be 9847     		blx	r3
 1034              	.LVL159:
 1035              	.LBE52:
 208:C:/Users/lenovo/Desktop/liteos/Project2/BearPi_LiteOS/components/ota/package\package_checksum.c ****     }
 1036              		.loc 1 208 0 is_stmt 1 discriminator 1
 1037 00c0 0123     		movs	r3, #1
 1038 00c2 02E0     		b	.L67
 1039              	.LVL160:
 1040              	.L76:
ARM GAS  c:\Users\lenovo\AppData\Local\Temp\ccEBu33f.s 			page 28


 180:C:/Users/lenovo/Desktop/liteos/Project2/BearPi_LiteOS/components/ota/package\package_checksum.c **** 
 1041              		.loc 1 180 0
 1042 00c4 0123     		movs	r3, #1
 1043 00c6 00E0     		b	.L67
 1044              	.LVL161:
 1045              	.L77:
 184:C:/Users/lenovo/Desktop/liteos/Project2/BearPi_LiteOS/components/ota/package\package_checksum.c ****     }
 1046              		.loc 1 184 0
 1047 00c8 0023     		movs	r3, #0
 1048              	.LVL162:
 1049              	.L67:
 232:C:/Users/lenovo/Desktop/liteos/Project2/BearPi_LiteOS/components/ota/package\package_checksum.c **** }
 1050              		.loc 1 232 0
 1051 00ca 1846     		mov	r0, r3
 1052 00cc F8BD     		pop	{r3, r4, r5, r6, r7, pc}
 1053              	.LVL163:
 1054              	.L78:
 190:C:/Users/lenovo/Desktop/liteos/Project2/BearPi_LiteOS/components/ota/package\package_checksum.c ****     }
 1055              		.loc 1 190 0
 1056 00ce 0123     		movs	r3, #1
 1057 00d0 FBE7     		b	.L67
 1058              	.LVL164:
 1059              	.L79:
 198:C:/Users/lenovo/Desktop/liteos/Project2/BearPi_LiteOS/components/ota/package\package_checksum.c ****         }
 1060              		.loc 1 198 0
 1061 00d2 0123     		movs	r3, #1
 1062 00d4 F9E7     		b	.L67
 1063              	.LVL165:
 1064              	.L80:
 208:C:/Users/lenovo/Desktop/liteos/Project2/BearPi_LiteOS/components/ota/package\package_checksum.c ****     }
 1065              		.loc 1 208 0
 1066 00d6 0123     		movs	r3, #1
 1067 00d8 F7E7     		b	.L67
 1068              	.LVL166:
 1069              	.L81:
 226:C:/Users/lenovo/Desktop/liteos/Project2/BearPi_LiteOS/components/ota/package\package_checksum.c ****     }
 1070              		.loc 1 226 0
 1071 00da 0123     		movs	r3, #1
 1072 00dc F5E7     		b	.L67
 1073              	.L86:
 1074 00de 00BF     		.align	2
 1075              	.L85:
 1076 00e0 00000000 		.word	.LANCHOR4
 1077 00e4 00000000 		.word	.LC3
 1078 00e8 00000000 		.word	.LC2
 1079 00ec 00000000 		.word	.LC12
 1080              		.cfi_endproc
 1081              	.LFE9:
 1083              		.section	.text.pack_checksum_check,"ax",%progbits
 1084              		.align	1
 1085              		.global	pack_checksum_check
 1086              		.syntax unified
 1087              		.thumb
 1088              		.thumb_func
 1089              		.fpu fpv4-sp-d16
 1091              	pack_checksum_check:
 1092              	.LFB10:
ARM GAS  c:\Users\lenovo\AppData\Local\Temp\ccEBu33f.s 			page 29


 233:C:/Users/lenovo/Desktop/liteos/Project2/BearPi_LiteOS/components/ota/package\package_checksum.c **** 
 234:C:/Users/lenovo/Desktop/liteos/Project2/BearPi_LiteOS/components/ota/package\package_checksum.c **** int pack_checksum_check(pack_checksum_s *thi, const uint8_t *expected_value, uint16_t len)
 235:C:/Users/lenovo/Desktop/liteos/Project2/BearPi_LiteOS/components/ota/package\package_checksum.c **** {
 1093              		.loc 1 235 0
 1094              		.cfi_startproc
 1095              		@ args = 0, pretend = 0, frame = 0
 1096              		@ frame_needed = 0, uses_anonymous_args = 0
 1097              	.LVL167:
 1098 0000 10B5     		push	{r4, lr}
 1099              	.LCFI19:
 1100              		.cfi_def_cfa_offset 8
 1101              		.cfi_offset 4, -8
 1102              		.cfi_offset 14, -4
 236:C:/Users/lenovo/Desktop/liteos/Project2/BearPi_LiteOS/components/ota/package\package_checksum.c ****     ASSERT_THIS(return PACK_ERR);
 1103              		.loc 1 236 0
 1104 0002 18B1     		cbz	r0, .L92
 237:C:/Users/lenovo/Desktop/liteos/Project2/BearPi_LiteOS/components/ota/package\package_checksum.c ****     return pack_checksum_get_alg(thi)->check(pack_checksum_get_alg(thi), expected_value, len);
 1105              		.loc 1 237 0
 1106 0004 4469     		ldr	r4, [r0, #20]
 1107 0006 0C30     		adds	r0, r0, #12
 1108              	.LVL168:
 1109 0008 A047     		blx	r4
 1110              	.LVL169:
 1111              	.L87:
 238:C:/Users/lenovo/Desktop/liteos/Project2/BearPi_LiteOS/components/ota/package\package_checksum.c **** }
 1112              		.loc 1 238 0
 1113 000a 10BD     		pop	{r4, pc}
 1114              	.LVL170:
 1115              	.L92:
 1116              	.LBB53:
 236:C:/Users/lenovo/Desktop/liteos/Project2/BearPi_LiteOS/components/ota/package\package_checksum.c ****     ASSERT_THIS(return PACK_ERR);
 1117              		.loc 1 236 0 discriminator 1
 1118 000c FFF7FEFF 		bl	pack_get_params
 1119              	.LVL171:
 1120 0010 C369     		ldr	r3, [r0, #28]
 1121 0012 2BB1     		cbz	r3, .L90
 236:C:/Users/lenovo/Desktop/liteos/Project2/BearPi_LiteOS/components/ota/package\package_checksum.c ****     ASSERT_THIS(return PACK_ERR);
 1122              		.loc 1 236 0 is_stmt 0 discriminator 2
 1123 0014 EC22     		movs	r2, #236
 1124 0016 0349     		ldr	r1, .L93
 1125 0018 0348     		ldr	r0, .L93+4
 1126              	.LVL172:
 1127 001a 9847     		blx	r3
 1128              	.LVL173:
 1129              	.LBE53:
 1130 001c 0120     		movs	r0, #1
 1131 001e F4E7     		b	.L87
 1132              	.LVL174:
 1133              	.L90:
 236:C:/Users/lenovo/Desktop/liteos/Project2/BearPi_LiteOS/components/ota/package\package_checksum.c ****     ASSERT_THIS(return PACK_ERR);
 1134              		.loc 1 236 0
 1135 0020 0120     		movs	r0, #1
 1136              	.LVL175:
 1137 0022 F2E7     		b	.L87
 1138              	.L94:
 1139              		.align	2
 1140              	.L93:
ARM GAS  c:\Users\lenovo\AppData\Local\Temp\ccEBu33f.s 			page 30


 1141 0024 00000000 		.word	.LANCHOR5
 1142 0028 00000000 		.word	.LC3
 1143              		.cfi_endproc
 1144              	.LFE10:
 1146              		.section	.text.pack_sha256_init,"ax",%progbits
 1147              		.align	1
 1148              		.global	pack_sha256_init
 1149              		.syntax unified
 1150              		.thumb
 1151              		.thumb_func
 1152              		.fpu fpv4-sp-d16
 1154              	pack_sha256_init:
 1155              	.LFB15:
  77:C:/Users/lenovo/Desktop/liteos/Project2/BearPi_LiteOS/components/ota/package/opt\package_sha256.c **** 
  78:C:/Users/lenovo/Desktop/liteos/Project2/BearPi_LiteOS/components/ota/package/opt\package_sha256.c **** int pack_sha256_init(pack_sha256_s *thi)
  79:C:/Users/lenovo/Desktop/liteos/Project2/BearPi_LiteOS/components/ota/package/opt\package_sha256.c **** {
 1156              		.loc 2 79 0 is_stmt 1
 1157              		.cfi_startproc
 1158              		@ args = 0, pretend = 0, frame = 0
 1159              		@ frame_needed = 0, uses_anonymous_args = 0
 1160              	.LVL176:
 1161 0000 08B5     		push	{r3, lr}
 1162              	.LCFI20:
 1163              		.cfi_def_cfa_offset 8
 1164              		.cfi_offset 3, -8
 1165              		.cfi_offset 14, -4
  80:C:/Users/lenovo/Desktop/liteos/Project2/BearPi_LiteOS/components/ota/package/opt\package_sha256.c ****     thi->base.reset = pack_sha256_reset;
 1166              		.loc 2 80 0
 1167 0002 064A     		ldr	r2, .L97
 1168 0004 0260     		str	r2, [r0]
  81:C:/Users/lenovo/Desktop/liteos/Project2/BearPi_LiteOS/components/ota/package/opt\package_sha256.c ****     thi->base.update = pack_sha256_update;
 1169              		.loc 2 81 0
 1170 0006 064A     		ldr	r2, .L97+4
 1171 0008 4260     		str	r2, [r0, #4]
  82:C:/Users/lenovo/Desktop/liteos/Project2/BearPi_LiteOS/components/ota/package/opt\package_sha256.c ****     thi->base.check = pack_sha256_check;
 1172              		.loc 2 82 0
 1173 000a 064A     		ldr	r2, .L97+8
 1174 000c 8260     		str	r2, [r0, #8]
  83:C:/Users/lenovo/Desktop/liteos/Project2/BearPi_LiteOS/components/ota/package/opt\package_sha256.c ****     thi->base.destroy = pack_sha256_destroy;
 1175              		.loc 2 83 0
 1176 000e 064A     		ldr	r2, .L97+12
 1177 0010 C260     		str	r2, [r0, #12]
  84:C:/Users/lenovo/Desktop/liteos/Project2/BearPi_LiteOS/components/ota/package/opt\package_sha256.c ****     pack_sha256_reset(&thi->base);
 1178              		.loc 2 84 0
 1179 0012 FFF7FEFF 		bl	pack_sha256_reset
 1180              	.LVL177:
  85:C:/Users/lenovo/Desktop/liteos/Project2/BearPi_LiteOS/components/ota/package/opt\package_sha256.c ****     return PACK_OK;
  86:C:/Users/lenovo/Desktop/liteos/Project2/BearPi_LiteOS/components/ota/package/opt\package_sha256.c **** }
 1181              		.loc 2 86 0
 1182 0016 0020     		movs	r0, #0
 1183 0018 08BD     		pop	{r3, pc}
 1184              	.L98:
 1185 001a 00BF     		.align	2
 1186              	.L97:
 1187 001c 00000000 		.word	pack_sha256_reset
 1188 0020 00000000 		.word	pack_sha256_update
 1189 0024 00000000 		.word	pack_sha256_check
ARM GAS  c:\Users\lenovo\AppData\Local\Temp\ccEBu33f.s 			page 31


 1190 0028 00000000 		.word	pack_sha256_destroy
 1191              		.cfi_endproc
 1192              	.LFE15:
 1194              		.section	.text.pack_sha256_rsa2048_init,"ax",%progbits
 1195              		.align	1
 1196              		.global	pack_sha256_rsa2048_init
 1197              		.syntax unified
 1198              		.thumb
 1199              		.thumb_func
 1200              		.fpu fpv4-sp-d16
 1202              	pack_sha256_rsa2048_init:
 1203              	.LFB17:
 110:C:/Users/lenovo/Desktop/liteos/Project2/BearPi_LiteOS/components/ota/package/opt\package_sha256_rsa2048.c **** 
 111:C:/Users/lenovo/Desktop/liteos/Project2/BearPi_LiteOS/components/ota/package/opt\package_sha256_rsa2048.c **** 
 112:C:/Users/lenovo/Desktop/liteos/Project2/BearPi_LiteOS/components/ota/package/opt\package_sha256_rsa2048.c **** 
 113:C:/Users/lenovo/Desktop/liteos/Project2/BearPi_LiteOS/components/ota/package/opt\package_sha256_rsa2048.c **** int pack_sha256_rsa2048_init(pack_sha256_rsa2048_s *thi, pack_head_s *head)
 114:C:/Users/lenovo/Desktop/liteos/Project2/BearPi_LiteOS/components/ota/package/opt\package_sha256_rsa2048.c **** {
 1204              		.loc 3 114 0
 1205              		.cfi_startproc
 1206              		@ args = 0, pretend = 0, frame = 0
 1207              		@ frame_needed = 0, uses_anonymous_args = 0
 1208              	.LVL178:
 1209 0000 38B5     		push	{r3, r4, r5, lr}
 1210              	.LCFI21:
 1211              		.cfi_def_cfa_offset 16
 1212              		.cfi_offset 3, -16
 1213              		.cfi_offset 4, -12
 1214              		.cfi_offset 5, -8
 1215              		.cfi_offset 14, -4
 1216 0002 0446     		mov	r4, r0
 1217 0004 0D46     		mov	r5, r1
 115:C:/Users/lenovo/Desktop/liteos/Project2/BearPi_LiteOS/components/ota/package/opt\package_sha256_rsa2048.c ****     (void)pack_sha256_init(&thi->sha256);
 1218              		.loc 3 115 0
 1219 0006 FFF7FEFF 		bl	pack_sha256_init
 1220              	.LVL179:
 116:C:/Users/lenovo/Desktop/liteos/Project2/BearPi_LiteOS/components/ota/package/opt\package_sha256_rsa2048.c ****     thi->sha256.base.check = pack_sha256_rsa2048_check;
 1221              		.loc 3 116 0
 1222 000a 024B     		ldr	r3, .L101
 1223 000c A360     		str	r3, [r4, #8]
 117:C:/Users/lenovo/Desktop/liteos/Project2/BearPi_LiteOS/components/ota/package/opt\package_sha256_rsa2048.c ****     thi->head = head;
 1224              		.loc 3 117 0
 1225 000e E567     		str	r5, [r4, #124]
 118:C:/Users/lenovo/Desktop/liteos/Project2/BearPi_LiteOS/components/ota/package/opt\package_sha256_rsa2048.c ****     return PACK_OK;
 119:C:/Users/lenovo/Desktop/liteos/Project2/BearPi_LiteOS/components/ota/package/opt\package_sha256_rsa2048.c **** }
 1226              		.loc 3 119 0
 1227 0010 0020     		movs	r0, #0
 1228 0012 38BD     		pop	{r3, r4, r5, pc}
 1229              	.LVL180:
 1230              	.L102:
 1231              		.align	2
 1232              	.L101:
 1233 0014 00000000 		.word	pack_sha256_rsa2048_check
 1234              		.cfi_endproc
 1235              	.LFE17:
 1237              		.section	.text.pack_checksum_init,"ax",%progbits
 1238              		.align	1
 1239              		.syntax unified
ARM GAS  c:\Users\lenovo\AppData\Local\Temp\ccEBu33f.s 			page 32


 1240              		.thumb
 1241              		.thumb_func
 1242              		.fpu fpv4-sp-d16
 1244              	pack_checksum_init:
 1245              	.LFB4:
  75:C:/Users/lenovo/Desktop/liteos/Project2/BearPi_LiteOS/components/ota/package\package_checksum.c ****     memset(thi, 0, sizeof(*thi));
 1246              		.loc 1 75 0
 1247              		.cfi_startproc
 1248              		@ args = 0, pretend = 0, frame = 0
 1249              		@ frame_needed = 0, uses_anonymous_args = 0
 1250              	.LVL181:
 1251 0000 38B5     		push	{r3, r4, r5, lr}
 1252              	.LCFI22:
 1253              		.cfi_def_cfa_offset 16
 1254              		.cfi_offset 3, -16
 1255              		.cfi_offset 4, -12
 1256              		.cfi_offset 5, -8
 1257              		.cfi_offset 14, -4
 1258 0002 0446     		mov	r4, r0
 1259 0004 0D46     		mov	r5, r1
  76:C:/Users/lenovo/Desktop/liteos/Project2/BearPi_LiteOS/components/ota/package\package_checksum.c ****     thi->head = head;
 1260              		.loc 1 76 0
 1261 0006 8C22     		movs	r2, #140
 1262 0008 0021     		movs	r1, #0
 1263              	.LVL182:
 1264 000a FFF7FEFF 		bl	memset
 1265              	.LVL183:
  77:C:/Users/lenovo/Desktop/liteos/Project2/BearPi_LiteOS/components/ota/package\package_checksum.c **** #if (PACK_CHECKSUM == PACK_SHA256_RSA2048)
 1266              		.loc 1 77 0
 1267 000e A560     		str	r5, [r4, #8]
  79:C:/Users/lenovo/Desktop/liteos/Project2/BearPi_LiteOS/components/ota/package\package_checksum.c **** #elif (PACK_CHECKSUM == PACK_SHA256)
 1268              		.loc 1 79 0
 1269 0010 2946     		mov	r1, r5
 1270 0012 04F10C00 		add	r0, r4, #12
 1271 0016 FFF7FEFF 		bl	pack_sha256_rsa2048_init
 1272              	.LVL184:
  83:C:/Users/lenovo/Desktop/liteos/Project2/BearPi_LiteOS/components/ota/package\package_checksum.c **** 
 1273              		.loc 1 83 0
 1274 001a 38BD     		pop	{r3, r4, r5, pc}
 1275              		.cfi_endproc
 1276              	.LFE4:
 1278              		.section	.text.pack_checksum_create,"ax",%progbits
 1279              		.align	1
 1280              		.global	pack_checksum_create
 1281              		.syntax unified
 1282              		.thumb
 1283              		.thumb_func
 1284              		.fpu fpv4-sp-d16
 1286              	pack_checksum_create:
 1287              	.LFB7:
 120:C:/Users/lenovo/Desktop/liteos/Project2/BearPi_LiteOS/components/ota/package\package_checksum.c ****     pack_checksum_s *thi = PACK_MALLOC(sizeof(pack_checksum_s));
 1288              		.loc 1 120 0
 1289              		.cfi_startproc
 1290              		@ args = 0, pretend = 0, frame = 0
 1291              		@ frame_needed = 0, uses_anonymous_args = 0
 1292              	.LVL185:
 1293 0000 38B5     		push	{r3, r4, r5, lr}
ARM GAS  c:\Users\lenovo\AppData\Local\Temp\ccEBu33f.s 			page 33


 1294              	.LCFI23:
 1295              		.cfi_def_cfa_offset 16
 1296              		.cfi_offset 3, -16
 1297              		.cfi_offset 4, -12
 1298              		.cfi_offset 5, -8
 1299              		.cfi_offset 14, -4
 1300 0002 0546     		mov	r5, r0
 121:C:/Users/lenovo/Desktop/liteos/Project2/BearPi_LiteOS/components/ota/package\package_checksum.c ****     if(NULL == thi)
 1301              		.loc 1 121 0
 1302 0004 8C20     		movs	r0, #140
 1303              	.LVL186:
 1304 0006 FFF7FEFF 		bl	pack_malloc
 1305              	.LVL187:
 122:C:/Users/lenovo/Desktop/liteos/Project2/BearPi_LiteOS/components/ota/package\package_checksum.c ****     {
 1306              		.loc 1 122 0
 1307 000a 0446     		mov	r4, r0
 1308 000c 38B1     		cbz	r0, .L109
 127:C:/Users/lenovo/Desktop/liteos/Project2/BearPi_LiteOS/components/ota/package\package_checksum.c ****     (void)pack_checksum_init_head_data(thi);
 1309              		.loc 1 127 0
 1310 000e 2946     		mov	r1, r5
 1311 0010 FFF7FEFF 		bl	pack_checksum_init
 1312              	.LVL188:
 128:C:/Users/lenovo/Desktop/liteos/Project2/BearPi_LiteOS/components/ota/package\package_checksum.c ****     return thi;
 1313              		.loc 1 128 0
 1314 0014 2046     		mov	r0, r4
 1315 0016 FFF7FEFF 		bl	pack_checksum_init_head_data
 1316              	.LVL189:
 1317              	.L105:
 130:C:/Users/lenovo/Desktop/liteos/Project2/BearPi_LiteOS/components/ota/package\package_checksum.c **** 
 1318              		.loc 1 130 0
 1319 001a 2046     		mov	r0, r4
 1320 001c 38BD     		pop	{r3, r4, r5, pc}
 1321              	.LVL190:
 1322              	.L109:
 1323              	.LBB54:
 124:C:/Users/lenovo/Desktop/liteos/Project2/BearPi_LiteOS/components/ota/package\package_checksum.c ****         return NULL;
 1324              		.loc 1 124 0
 1325 001e FFF7FEFF 		bl	pack_get_params
 1326              	.LVL191:
 1327 0022 C369     		ldr	r3, [r0, #28]
 1328 0024 002B     		cmp	r3, #0
 1329 0026 F8D0     		beq	.L105
 124:C:/Users/lenovo/Desktop/liteos/Project2/BearPi_LiteOS/components/ota/package\package_checksum.c ****         return NULL;
 1330              		.loc 1 124 0 is_stmt 0 discriminator 1
 1331 0028 7C22     		movs	r2, #124
 1332 002a 0249     		ldr	r1, .L110
 1333 002c 0248     		ldr	r0, .L110+4
 1334              	.LVL192:
 1335 002e 9847     		blx	r3
 1336              	.LVL193:
 1337 0030 F3E7     		b	.L105
 1338              	.L111:
 1339 0032 00BF     		.align	2
 1340              	.L110:
 1341 0034 00000000 		.word	.LANCHOR6
 1342 0038 00000000 		.word	.LC13
 1343              	.LBE54:
ARM GAS  c:\Users\lenovo\AppData\Local\Temp\ccEBu33f.s 			page 34


 1344              		.cfi_endproc
 1345              	.LFE7:
 1347              		.section	.rodata.__FUNCTION__.7320,"a",%progbits
 1348              		.align	2
 1349              		.set	.LANCHOR1,. + 0
 1352              	__FUNCTION__.7320:
 1353 0000 7061636B 		.ascii	"pack_checksum_init_head_data\000"
 1353      5F636865 
 1353      636B7375 
 1353      6D5F696E 
 1353      69745F68 
 1354              		.section	.rodata.__FUNCTION__.7326,"a",%progbits
 1355              		.align	2
 1356              		.set	.LANCHOR6,. + 0
 1359              	__FUNCTION__.7326:
 1360 0000 7061636B 		.ascii	"pack_checksum_create\000"
 1360      5F636865 
 1360      636B7375 
 1360      6D5F6372 
 1360      65617465 
 1361              		.section	.rodata.__FUNCTION__.7339,"a",%progbits
 1362              		.align	2
 1363              		.set	.LANCHOR0,. + 0
 1366              	__FUNCTION__.7339:
 1367 0000 7061636B 		.ascii	"pack_checksum_restore_checksum\000"
 1367      5F636865 
 1367      636B7375 
 1367      6D5F7265 
 1367      73746F72 
 1368              		.section	.rodata.__FUNCTION__.7352,"a",%progbits
 1369              		.align	2
 1370              		.set	.LANCHOR4,. + 0
 1373              	__FUNCTION__.7352:
 1374 0000 7061636B 		.ascii	"pack_checksum_update_data\000"
 1374      5F636865 
 1374      636B7375 
 1374      6D5F7570 
 1374      64617465 
 1375              		.section	.rodata.__FUNCTION__.7361,"a",%progbits
 1376              		.align	2
 1377              		.set	.LANCHOR5,. + 0
 1380              	__FUNCTION__.7361:
 1381 0000 7061636B 		.ascii	"pack_checksum_check\000"
 1381      5F636865 
 1381      636B7375 
 1381      6D5F6368 
 1381      65636B00 
 1382              		.section	.rodata.__FUNCTION__.7380,"a",%progbits
 1383              		.align	2
 1384              		.set	.LANCHOR2,. + 0
 1387              	__FUNCTION__.7380:
 1388 0000 7061636B 		.ascii	"pack_sha256_check\000"
 1388      5F736861 
 1388      3235365F 
 1388      63686563 
 1388      6B00
 1389              		.section	.rodata.__FUNCTION__.7876,"a",%progbits
ARM GAS  c:\Users\lenovo\AppData\Local\Temp\ccEBu33f.s 			page 35


 1390              		.align	2
 1391              		.set	.LANCHOR3,. + 0
 1394              	__FUNCTION__.7876:
 1395 0000 7061636B 		.ascii	"pack_sha256_rsa2048_check\000"
 1395      5F736861 
 1395      3235365F 
 1395      72736132 
 1395      3034385F 
 1396              		.section	.rodata.pack_checksum_create.str1.4,"aMS",%progbits,1
 1397              		.align	2
 1398              	.LC13:
 1399 0000 5B25733A 		.ascii	"[%s:%d]PACK_MALLOC fail\015\012\000"
 1399      25645D50 
 1399      41434B5F 
 1399      4D414C4C 
 1399      4F432066 
 1400              		.section	.rodata.pack_checksum_init_head_data.str1.4,"aMS",%progbits,1
 1401              		.align	2
 1402              	.LC2:
 1403 0000 5B25733A 		.ascii	"[%s:%d]buff null\015\012\000"
 1403      25645D62 
 1403      75666620 
 1403      6E756C6C 
 1403      0D0A00
 1404              		.section	.rodata.pack_checksum_restore_checksum.str1.4,"aMS",%progbits,1
 1405              		.align	2
 1406              	.LC0:
 1407 0000 5B25733A 		.ascii	"[%s:%d]malloc null\015\012\000"
 1407      25645D6D 
 1407      616C6C6F 
 1407      63206E75 
 1407      6C6C0D0A 
 1408 0015 000000   		.space	3
 1409              	.LC1:
 1410 0018 5B25733A 		.ascii	"[%s:%d]read_software fail, ret %d, offset %d, read_"
 1410      25645D72 
 1410      6561645F 
 1410      736F6674 
 1410      77617265 
 1411 004b 73697A65 		.ascii	"size %d\015\012\000"
 1411      2025640D 
 1411      0A00
 1412              		.section	.rodata.pack_checksum_update_data.str1.4,"aMS",%progbits,1
 1413              		.align	2
 1414              	.LC12:
 1415 0000 5B25733A 		.ascii	"[%s:%d]hardware null\015\012\000"
 1415      25645D68 
 1415      61726477 
 1415      61726520 
 1415      6E756C6C 
 1416              		.section	.rodata.pack_sha256_check.str1.4,"aMS",%progbits,1
 1417              		.align	2
 1418              	.LC3:
 1419 0000 5B25733A 		.ascii	"[%s:%d]this null pointer\015\012\000"
 1419      25645D74 
 1419      68697320 
 1419      6E756C6C 
ARM GAS  c:\Users\lenovo\AppData\Local\Temp\ccEBu33f.s 			page 36


 1419      20706F69 
 1420 001b 00       		.space	1
 1421              	.LC4:
 1422 001c 5B25733A 		.ascii	"[%s:%d]len %d not the same\015\012\000"
 1422      25645D6C 
 1422      656E2025 
 1422      64206E6F 
 1422      74207468 
 1423 0039 000000   		.space	3
 1424              	.LC5:
 1425 003c 5B25733A 		.ascii	"[%s:%d]checksum err\015\012\000"
 1425      25645D63 
 1425      6865636B 
 1425      73756D20 
 1425      6572720D 
 1426              		.section	.rodata.pack_sha256_rsa2048_check.str1.4,"aMS",%progbits,1
 1427              		.align	2
 1428              	.LC6:
 1429 0000 5B25733A 		.ascii	"[%s:%d]checksum_len err %d\015\012\000"
 1429      25645D63 
 1429      6865636B 
 1429      73756D5F 
 1429      6C656E20 
 1430 001d 000000   		.space	3
 1431              	.LC7:
 1432 0020 5B25733A 		.ascii	"[%s:%d]key null\015\012\000"
 1432      25645D6B 
 1432      6579206E 
 1432      756C6C0D 
 1432      0A00
 1433 0032 0000     		.space	2
 1434              	.LC8:
 1435 0034 5B25733A 		.ascii	"[%s:%d]PACK_MALLOC null\015\012\000"
 1435      25645D50 
 1435      41434B5F 
 1435      4D414C4C 
 1435      4F43206E 
 1436 004e 0000     		.space	2
 1437              	.LC9:
 1438 0050 5B25733A 		.ascii	"[%s:%d]mbedtls_mpi_read_string fail\015\012\000"
 1438      25645D6D 
 1438      62656474 
 1438      6C735F6D 
 1438      70695F72 
 1439 0076 0000     		.space	2
 1440              	.LC10:
 1441 0078 5B25733A 		.ascii	"[%s:%d]mbedtls_rsa_check_pubkey fail\015\012\000"
 1441      25645D6D 
 1441      62656474 
 1441      6C735F72 
 1441      73615F63 
 1442 009f 00       		.space	1
 1443              	.LC11:
 1444 00a0 5B25733A 		.ascii	"[%s:%d]mbedtls_rsa_pkcs1_verify fail\015\012\000"
 1444      25645D6D 
 1444      62656474 
 1444      6C735F72 
ARM GAS  c:\Users\lenovo\AppData\Local\Temp\ccEBu33f.s 			page 37


 1444      73615F70 
 1445              		.text
 1446              	.Letext0:
 1447              		.file 4 "c:\\program files (x86)\\liteos studio\\resources\\arm-none-eabi\\arm-none-eabi\\include\
 1448              		.file 5 "c:\\program files (x86)\\liteos studio\\resources\\arm-none-eabi\\arm-none-eabi\\include\
 1449              		.file 6 "C:/Users/lenovo/Desktop/liteos/Project2/BearPi_LiteOS/include/ota/ota_api.h"
 1450              		.file 7 "c:\\program files (x86)\\liteos studio\\resources\\arm-none-eabi\\lib\\gcc\\arm-none-eabi
 1451              		.file 8 "c:\\program files (x86)\\liteos studio\\resources\\arm-none-eabi\\arm-none-eabi\\include\
 1452              		.file 9 "c:\\program files (x86)\\liteos studio\\resources\\arm-none-eabi\\arm-none-eabi\\include\
 1453              		.file 10 "c:\\program files (x86)\\liteos studio\\resources\\arm-none-eabi\\arm-none-eabi\\include
 1454              		.file 11 "C:/Users/lenovo/Desktop/liteos/Project2/BearPi_LiteOS/include/ota/package.h"
 1455              		.file 12 "C:/Users/lenovo/Desktop/liteos/Project2/BearPi_LiteOS/components/ota/package/package_che
 1456              		.file 13 "c:\\program files (x86)\\liteos studio\\resources\\arm-none-eabi\\arm-none-eabi\\include
 1457              		.file 14 "C:/Users/lenovo/Desktop/liteos/Project2/BearPi_LiteOS/components/ota/package/package_hea
 1458              		.file 15 "C:/Users/lenovo/Desktop/liteos/Project2/BearPi_LiteOS/components/security/mbedtls/mbedtl
 1459              		.file 16 "C:/Users/lenovo/Desktop/liteos/Project2/BearPi_LiteOS/components/ota/package/opt/package
 1460              		.file 17 "C:/Users/lenovo/Desktop/liteos/Project2/BearPi_LiteOS/components/ota/package/opt/package
 1461              		.file 18 "C:/Users/lenovo/Desktop/liteos/Project2/BearPi_LiteOS/components/security/mbedtls/mbedtl
 1462              		.file 19 "C:/Users/lenovo/Desktop/liteos/Project2/BearPi_LiteOS/components/security/mbedtls/mbedtl
 1463              		.file 20 "C:/Users/lenovo/Desktop/liteos/Project2/BearPi_LiteOS/components/security/mbedtls/mbedtl
 1464              		.file 21 "c:\\program files (x86)\\liteos studio\\resources\\arm-none-eabi\\arm-none-eabi\\include
 1465              		.file 22 "<built-in>"
ARM GAS  c:\Users\lenovo\AppData\Local\Temp\ccEBu33f.s 			page 38

