ARM GAS  c:\Users\lenovo\AppData\Local\Temp\ccyoZgCp.s 			page 1


   1              		.cpu cortex-m4
   2              		.eabi_attribute 27, 1
   3              		.eabi_attribute 28, 1
   4              		.eabi_attribute 20, 1
   5              		.eabi_attribute 21, 1
   6              		.eabi_attribute 23, 3
   7              		.eabi_attribute 24, 1
   8              		.eabi_attribute 25, 1
   9              		.eabi_attribute 26, 1
  10              		.eabi_attribute 30, 1
  11              		.eabi_attribute 34, 1
  12              		.eabi_attribute 18, 4
  13              		.file	"registration.c"
  14              		.text
  15              	.Ltext0:
  16              		.cfi_sections	.debug_frame
  17              		.section	.text.prv_handleDeregistrationReply,"ax",%progbits
  18              		.align	1
  19              		.syntax unified
  20              		.thumb
  21              		.thumb_func
  22              		.fpu fpv4-sp-d16
  24              	prv_handleDeregistrationReply:
  25              	.LFB143:
  26              		.file 1 "C:/Users/lenovo/Desktop/liteos/Project2/BearPi_LiteOS/components/connectivity/lwm2m/core/
   1:C:/Users/lenovo/Desktop/liteos/Project2/BearPi_LiteOS/components/connectivity/lwm2m/core\registration.c **** /*----------------------------------------------------------------------------
   2:C:/Users/lenovo/Desktop/liteos/Project2/BearPi_LiteOS/components/connectivity/lwm2m/core\registration.c ****  * Copyright (c) <2016-2018>, <Huawei Technologies Co., Ltd>
   3:C:/Users/lenovo/Desktop/liteos/Project2/BearPi_LiteOS/components/connectivity/lwm2m/core\registration.c ****  * All rights reserved.
   4:C:/Users/lenovo/Desktop/liteos/Project2/BearPi_LiteOS/components/connectivity/lwm2m/core\registration.c ****  * Redistribution and use in source and binary forms, with or without modification,
   5:C:/Users/lenovo/Desktop/liteos/Project2/BearPi_LiteOS/components/connectivity/lwm2m/core\registration.c ****  * are permitted provided that the following conditions are met:
   6:C:/Users/lenovo/Desktop/liteos/Project2/BearPi_LiteOS/components/connectivity/lwm2m/core\registration.c ****  * 1. Redistributions of source code must retain the above copyright notice, this list of
   7:C:/Users/lenovo/Desktop/liteos/Project2/BearPi_LiteOS/components/connectivity/lwm2m/core\registration.c ****  * conditions and the following disclaimer.
   8:C:/Users/lenovo/Desktop/liteos/Project2/BearPi_LiteOS/components/connectivity/lwm2m/core\registration.c ****  * 2. Redistributions in binary form must reproduce the above copyright notice, this list
   9:C:/Users/lenovo/Desktop/liteos/Project2/BearPi_LiteOS/components/connectivity/lwm2m/core\registration.c ****  * of conditions and the following disclaimer in the documentation and/or other materials
  10:C:/Users/lenovo/Desktop/liteos/Project2/BearPi_LiteOS/components/connectivity/lwm2m/core\registration.c ****  * provided with the distribution.
  11:C:/Users/lenovo/Desktop/liteos/Project2/BearPi_LiteOS/components/connectivity/lwm2m/core\registration.c ****  * 3. Neither the name of the copyright holder nor the names of its contributors may be used
  12:C:/Users/lenovo/Desktop/liteos/Project2/BearPi_LiteOS/components/connectivity/lwm2m/core\registration.c ****  * to endorse or promote products derived from this software without specific prior written
  13:C:/Users/lenovo/Desktop/liteos/Project2/BearPi_LiteOS/components/connectivity/lwm2m/core\registration.c ****  * permission.
  14:C:/Users/lenovo/Desktop/liteos/Project2/BearPi_LiteOS/components/connectivity/lwm2m/core\registration.c ****  * THIS SOFTWARE IS PROVIDED BY THE COPYRIGHT HOLDERS AND CONTRIBUTORS
  15:C:/Users/lenovo/Desktop/liteos/Project2/BearPi_LiteOS/components/connectivity/lwm2m/core\registration.c ****  * "AS IS" AND ANY EXPRESS OR IMPLIED WARRANTIES, INCLUDING, BUT NOT LIMITED TO,
  16:C:/Users/lenovo/Desktop/liteos/Project2/BearPi_LiteOS/components/connectivity/lwm2m/core\registration.c ****  * THE IMPLIED WARRANTIES OF MERCHANTABILITY AND FITNESS FOR A PARTICULAR
  17:C:/Users/lenovo/Desktop/liteos/Project2/BearPi_LiteOS/components/connectivity/lwm2m/core\registration.c ****  * PURPOSE ARE DISCLAIMED. IN NO EVENT SHALL THE COPYRIGHT HOLDER OR
  18:C:/Users/lenovo/Desktop/liteos/Project2/BearPi_LiteOS/components/connectivity/lwm2m/core\registration.c ****  * CONTRIBUTORS BE LIABLE FOR ANY DIRECT, INDIRECT, INCIDENTAL, SPECIAL,
  19:C:/Users/lenovo/Desktop/liteos/Project2/BearPi_LiteOS/components/connectivity/lwm2m/core\registration.c ****  * EXEMPLARY, OR CONSEQUENTIAL DAMAGES (INCLUDING, BUT NOT LIMITED TO,
  20:C:/Users/lenovo/Desktop/liteos/Project2/BearPi_LiteOS/components/connectivity/lwm2m/core\registration.c ****  * PROCUREMENT OF SUBSTITUTE GOODS OR SERVICES; LOSS OF USE, DATA, OR PROFITS;
  21:C:/Users/lenovo/Desktop/liteos/Project2/BearPi_LiteOS/components/connectivity/lwm2m/core\registration.c ****  * OR BUSINESS INTERRUPTION) HOWEVER CAUSED AND ON ANY THEORY OF LIABILITY,
  22:C:/Users/lenovo/Desktop/liteos/Project2/BearPi_LiteOS/components/connectivity/lwm2m/core\registration.c ****  * WHETHER IN CONTRACT, STRICT LIABILITY, OR TORT (INCLUDING NEGLIGENCE OR
  23:C:/Users/lenovo/Desktop/liteos/Project2/BearPi_LiteOS/components/connectivity/lwm2m/core\registration.c ****  * OTHERWISE) ARISING IN ANY WAY OUT OF THE USE OF THIS SOFTWARE, EVEN IF
  24:C:/Users/lenovo/Desktop/liteos/Project2/BearPi_LiteOS/components/connectivity/lwm2m/core\registration.c ****  * ADVISED OF THE POSSIBILITY OF SUCH DAMAGE.
  25:C:/Users/lenovo/Desktop/liteos/Project2/BearPi_LiteOS/components/connectivity/lwm2m/core\registration.c ****  *---------------------------------------------------------------------------*/
  26:C:/Users/lenovo/Desktop/liteos/Project2/BearPi_LiteOS/components/connectivity/lwm2m/core\registration.c **** /*----------------------------------------------------------------------------
  27:C:/Users/lenovo/Desktop/liteos/Project2/BearPi_LiteOS/components/connectivity/lwm2m/core\registration.c ****  * Notice of Export Control Law
  28:C:/Users/lenovo/Desktop/liteos/Project2/BearPi_LiteOS/components/connectivity/lwm2m/core\registration.c ****  * ===============================================
  29:C:/Users/lenovo/Desktop/liteos/Project2/BearPi_LiteOS/components/connectivity/lwm2m/core\registration.c ****  * Huawei LiteOS may be subject to applicable export control laws and regulations, which might
  30:C:/Users/lenovo/Desktop/liteos/Project2/BearPi_LiteOS/components/connectivity/lwm2m/core\registration.c ****  * include those applicable to Huawei LiteOS of U.S. and the country in which you are located.
  31:C:/Users/lenovo/Desktop/liteos/Project2/BearPi_LiteOS/components/connectivity/lwm2m/core\registration.c ****  * Import, export and usage of Huawei LiteOS in any manner by you shall be in compliance with such
  32:C:/Users/lenovo/Desktop/liteos/Project2/BearPi_LiteOS/components/connectivity/lwm2m/core\registration.c ****  * applicable export control laws and regulations.
ARM GAS  c:\Users\lenovo\AppData\Local\Temp\ccyoZgCp.s 			page 2


  33:C:/Users/lenovo/Desktop/liteos/Project2/BearPi_LiteOS/components/connectivity/lwm2m/core\registration.c ****  *---------------------------------------------------------------------------*/
  34:C:/Users/lenovo/Desktop/liteos/Project2/BearPi_LiteOS/components/connectivity/lwm2m/core\registration.c **** 
  35:C:/Users/lenovo/Desktop/liteos/Project2/BearPi_LiteOS/components/connectivity/lwm2m/core\registration.c **** /*******************************************************************************
  36:C:/Users/lenovo/Desktop/liteos/Project2/BearPi_LiteOS/components/connectivity/lwm2m/core\registration.c ****  *
  37:C:/Users/lenovo/Desktop/liteos/Project2/BearPi_LiteOS/components/connectivity/lwm2m/core\registration.c ****  * Copyright (c) 2013, 2014 Intel Corporation and others.
  38:C:/Users/lenovo/Desktop/liteos/Project2/BearPi_LiteOS/components/connectivity/lwm2m/core\registration.c ****  * All rights reserved. This program and the accompanying materials
  39:C:/Users/lenovo/Desktop/liteos/Project2/BearPi_LiteOS/components/connectivity/lwm2m/core\registration.c ****  * are made available under the terms of the Eclipse Public License v1.0
  40:C:/Users/lenovo/Desktop/liteos/Project2/BearPi_LiteOS/components/connectivity/lwm2m/core\registration.c ****  * and Eclipse Distribution License v1.0 which accompany this distribution.
  41:C:/Users/lenovo/Desktop/liteos/Project2/BearPi_LiteOS/components/connectivity/lwm2m/core\registration.c ****  *
  42:C:/Users/lenovo/Desktop/liteos/Project2/BearPi_LiteOS/components/connectivity/lwm2m/core\registration.c ****  * The Eclipse Public License is available at
  43:C:/Users/lenovo/Desktop/liteos/Project2/BearPi_LiteOS/components/connectivity/lwm2m/core\registration.c ****  *    http://www.eclipse.org/legal/epl-v10.html
  44:C:/Users/lenovo/Desktop/liteos/Project2/BearPi_LiteOS/components/connectivity/lwm2m/core\registration.c ****  * The Eclipse Distribution License is available at
  45:C:/Users/lenovo/Desktop/liteos/Project2/BearPi_LiteOS/components/connectivity/lwm2m/core\registration.c ****  *    http://www.eclipse.org/org/documents/edl-v10.php.
  46:C:/Users/lenovo/Desktop/liteos/Project2/BearPi_LiteOS/components/connectivity/lwm2m/core\registration.c ****  *
  47:C:/Users/lenovo/Desktop/liteos/Project2/BearPi_LiteOS/components/connectivity/lwm2m/core\registration.c ****  * Contributors:
  48:C:/Users/lenovo/Desktop/liteos/Project2/BearPi_LiteOS/components/connectivity/lwm2m/core\registration.c ****  *    David Navarro, Intel Corporation - initial API and implementation
  49:C:/Users/lenovo/Desktop/liteos/Project2/BearPi_LiteOS/components/connectivity/lwm2m/core\registration.c ****  *    domedambrosio - Please refer to git log
  50:C:/Users/lenovo/Desktop/liteos/Project2/BearPi_LiteOS/components/connectivity/lwm2m/core\registration.c ****  *    Fabien Fleutot - Please refer to git log
  51:C:/Users/lenovo/Desktop/liteos/Project2/BearPi_LiteOS/components/connectivity/lwm2m/core\registration.c ****  *    Simon Bernard - Please refer to git log
  52:C:/Users/lenovo/Desktop/liteos/Project2/BearPi_LiteOS/components/connectivity/lwm2m/core\registration.c ****  *    Toby Jaffey - Please refer to git log
  53:C:/Users/lenovo/Desktop/liteos/Project2/BearPi_LiteOS/components/connectivity/lwm2m/core\registration.c ****  *    Manuel Sangoi - Please refer to git log
  54:C:/Users/lenovo/Desktop/liteos/Project2/BearPi_LiteOS/components/connectivity/lwm2m/core\registration.c ****  *    Julien Vermillard - Please refer to git log
  55:C:/Users/lenovo/Desktop/liteos/Project2/BearPi_LiteOS/components/connectivity/lwm2m/core\registration.c ****  *    Bosch Software Innovations GmbH - Please refer to git log
  56:C:/Users/lenovo/Desktop/liteos/Project2/BearPi_LiteOS/components/connectivity/lwm2m/core\registration.c ****  *    Pascal Rieux - Please refer to git log
  57:C:/Users/lenovo/Desktop/liteos/Project2/BearPi_LiteOS/components/connectivity/lwm2m/core\registration.c ****  *    Scott Bertin - Please refer to git log
  58:C:/Users/lenovo/Desktop/liteos/Project2/BearPi_LiteOS/components/connectivity/lwm2m/core\registration.c ****  *
  59:C:/Users/lenovo/Desktop/liteos/Project2/BearPi_LiteOS/components/connectivity/lwm2m/core\registration.c ****  *******************************************************************************/
  60:C:/Users/lenovo/Desktop/liteos/Project2/BearPi_LiteOS/components/connectivity/lwm2m/core\registration.c **** 
  61:C:/Users/lenovo/Desktop/liteos/Project2/BearPi_LiteOS/components/connectivity/lwm2m/core\registration.c **** /*
  62:C:/Users/lenovo/Desktop/liteos/Project2/BearPi_LiteOS/components/connectivity/lwm2m/core\registration.c ****  Copyright (c) 2013, 2014 Intel Corporation
  63:C:/Users/lenovo/Desktop/liteos/Project2/BearPi_LiteOS/components/connectivity/lwm2m/core\registration.c **** 
  64:C:/Users/lenovo/Desktop/liteos/Project2/BearPi_LiteOS/components/connectivity/lwm2m/core\registration.c ****  Redistribution and use in source and binary forms, with or without modification,
  65:C:/Users/lenovo/Desktop/liteos/Project2/BearPi_LiteOS/components/connectivity/lwm2m/core\registration.c ****  are permitted provided that the following conditions are met:
  66:C:/Users/lenovo/Desktop/liteos/Project2/BearPi_LiteOS/components/connectivity/lwm2m/core\registration.c **** 
  67:C:/Users/lenovo/Desktop/liteos/Project2/BearPi_LiteOS/components/connectivity/lwm2m/core\registration.c ****      * Redistributions of source code must retain the above copyright notice,
  68:C:/Users/lenovo/Desktop/liteos/Project2/BearPi_LiteOS/components/connectivity/lwm2m/core\registration.c ****        this list of conditions and the following disclaimer.
  69:C:/Users/lenovo/Desktop/liteos/Project2/BearPi_LiteOS/components/connectivity/lwm2m/core\registration.c ****      * Redistributions in binary form must reproduce the above copyright notice,
  70:C:/Users/lenovo/Desktop/liteos/Project2/BearPi_LiteOS/components/connectivity/lwm2m/core\registration.c ****        this list of conditions and the following disclaimer in the documentation
  71:C:/Users/lenovo/Desktop/liteos/Project2/BearPi_LiteOS/components/connectivity/lwm2m/core\registration.c ****        and/or other materials provided with the distribution.
  72:C:/Users/lenovo/Desktop/liteos/Project2/BearPi_LiteOS/components/connectivity/lwm2m/core\registration.c ****      * Neither the name of Intel Corporation nor the names of its contributors
  73:C:/Users/lenovo/Desktop/liteos/Project2/BearPi_LiteOS/components/connectivity/lwm2m/core\registration.c ****        may be used to endorse or promote products derived from this software
  74:C:/Users/lenovo/Desktop/liteos/Project2/BearPi_LiteOS/components/connectivity/lwm2m/core\registration.c ****        without specific prior written permission.
  75:C:/Users/lenovo/Desktop/liteos/Project2/BearPi_LiteOS/components/connectivity/lwm2m/core\registration.c **** 
  76:C:/Users/lenovo/Desktop/liteos/Project2/BearPi_LiteOS/components/connectivity/lwm2m/core\registration.c ****  THIS SOFTWARE IS PROVIDED BY THE COPYRIGHT HOLDERS AND CONTRIBUTORS "AS IS" AND
  77:C:/Users/lenovo/Desktop/liteos/Project2/BearPi_LiteOS/components/connectivity/lwm2m/core\registration.c ****  ANY EXPRESS OR IMPLIED WARRANTIES, INCLUDING, BUT NOT LIMITED TO, THE IMPLIED
  78:C:/Users/lenovo/Desktop/liteos/Project2/BearPi_LiteOS/components/connectivity/lwm2m/core\registration.c ****  WARRANTIES OF MERCHANTABILITY AND FITNESS FOR A PARTICULAR PURPOSE ARE DISCLAIMED.
  79:C:/Users/lenovo/Desktop/liteos/Project2/BearPi_LiteOS/components/connectivity/lwm2m/core\registration.c ****  IN NO EVENT SHALL THE COPYRIGHT OWNER OR CONTRIBUTORS BE LIABLE FOR ANY DIRECT,
  80:C:/Users/lenovo/Desktop/liteos/Project2/BearPi_LiteOS/components/connectivity/lwm2m/core\registration.c ****  INDIRECT, INCIDENTAL, SPECIAL, EXEMPLARY, OR CONSEQUENTIAL DAMAGES (INCLUDING,
  81:C:/Users/lenovo/Desktop/liteos/Project2/BearPi_LiteOS/components/connectivity/lwm2m/core\registration.c ****  BUT NOT LIMITED TO, PROCUREMENT OF SUBSTITUTE GOODS OR SERVICES; LOSS OF USE,
  82:C:/Users/lenovo/Desktop/liteos/Project2/BearPi_LiteOS/components/connectivity/lwm2m/core\registration.c ****  DATA, OR PROFITS; OR BUSINESS INTERRUPTION) HOWEVER CAUSED AND ON ANY THEORY OF
  83:C:/Users/lenovo/Desktop/liteos/Project2/BearPi_LiteOS/components/connectivity/lwm2m/core\registration.c ****  LIABILITY, WHETHER IN CONTRACT, STRICT LIABILITY, OR TORT (INCLUDING NEGLIGENCE OR
  84:C:/Users/lenovo/Desktop/liteos/Project2/BearPi_LiteOS/components/connectivity/lwm2m/core\registration.c ****  OTHERWISE) ARISING IN ANY WAY OUT OF THE USE OF THIS SOFTWARE, EVEN IF ADVISED OF
  85:C:/Users/lenovo/Desktop/liteos/Project2/BearPi_LiteOS/components/connectivity/lwm2m/core\registration.c ****  THE POSSIBILITY OF SUCH DAMAGE.
  86:C:/Users/lenovo/Desktop/liteos/Project2/BearPi_LiteOS/components/connectivity/lwm2m/core\registration.c **** 
  87:C:/Users/lenovo/Desktop/liteos/Project2/BearPi_LiteOS/components/connectivity/lwm2m/core\registration.c ****  David Navarro <david.navarro@intel.com>
  88:C:/Users/lenovo/Desktop/liteos/Project2/BearPi_LiteOS/components/connectivity/lwm2m/core\registration.c **** 
  89:C:/Users/lenovo/Desktop/liteos/Project2/BearPi_LiteOS/components/connectivity/lwm2m/core\registration.c **** */
ARM GAS  c:\Users\lenovo\AppData\Local\Temp\ccyoZgCp.s 			page 3


  90:C:/Users/lenovo/Desktop/liteos/Project2/BearPi_LiteOS/components/connectivity/lwm2m/core\registration.c **** 
  91:C:/Users/lenovo/Desktop/liteos/Project2/BearPi_LiteOS/components/connectivity/lwm2m/core\registration.c **** #include "internals.h"
  92:C:/Users/lenovo/Desktop/liteos/Project2/BearPi_LiteOS/components/connectivity/lwm2m/core\registration.c **** 
  93:C:/Users/lenovo/Desktop/liteos/Project2/BearPi_LiteOS/components/connectivity/lwm2m/core\registration.c **** #include <stdlib.h>
  94:C:/Users/lenovo/Desktop/liteos/Project2/BearPi_LiteOS/components/connectivity/lwm2m/core\registration.c **** #include <string.h>
  95:C:/Users/lenovo/Desktop/liteos/Project2/BearPi_LiteOS/components/connectivity/lwm2m/core\registration.c **** #include <stdio.h>
  96:C:/Users/lenovo/Desktop/liteos/Project2/BearPi_LiteOS/components/connectivity/lwm2m/core\registration.c **** 
  97:C:/Users/lenovo/Desktop/liteos/Project2/BearPi_LiteOS/components/connectivity/lwm2m/core\registration.c **** #define MAX_LOCATION_LENGTH 10      // strlen("/rd/65534") + 1
  98:C:/Users/lenovo/Desktop/liteos/Project2/BearPi_LiteOS/components/connectivity/lwm2m/core\registration.c **** 
  99:C:/Users/lenovo/Desktop/liteos/Project2/BearPi_LiteOS/components/connectivity/lwm2m/core\registration.c **** #ifdef LWM2M_CLIENT_MODE
 100:C:/Users/lenovo/Desktop/liteos/Project2/BearPi_LiteOS/components/connectivity/lwm2m/core\registration.c **** 
 101:C:/Users/lenovo/Desktop/liteos/Project2/BearPi_LiteOS/components/connectivity/lwm2m/core\registration.c **** static int prv_getRegistrationQueryLength(lwm2m_context_t *contextP,
 102:C:/Users/lenovo/Desktop/liteos/Project2/BearPi_LiteOS/components/connectivity/lwm2m/core\registration.c ****         lwm2m_server_t *server)
 103:C:/Users/lenovo/Desktop/liteos/Project2/BearPi_LiteOS/components/connectivity/lwm2m/core\registration.c **** {
 104:C:/Users/lenovo/Desktop/liteos/Project2/BearPi_LiteOS/components/connectivity/lwm2m/core\registration.c ****     int index;
 105:C:/Users/lenovo/Desktop/liteos/Project2/BearPi_LiteOS/components/connectivity/lwm2m/core\registration.c ****     int res;
 106:C:/Users/lenovo/Desktop/liteos/Project2/BearPi_LiteOS/components/connectivity/lwm2m/core\registration.c ****     char buffer[21];
 107:C:/Users/lenovo/Desktop/liteos/Project2/BearPi_LiteOS/components/connectivity/lwm2m/core\registration.c **** 
 108:C:/Users/lenovo/Desktop/liteos/Project2/BearPi_LiteOS/components/connectivity/lwm2m/core\registration.c ****     index = strlen(QUERY_STARTER QUERY_VERSION_FULL QUERY_DELIMITER QUERY_NAME);//?1.0&ep=
 109:C:/Users/lenovo/Desktop/liteos/Project2/BearPi_LiteOS/components/connectivity/lwm2m/core\registration.c ****     index += strlen(contextP->endpointName);
 110:C:/Users/lenovo/Desktop/liteos/Project2/BearPi_LiteOS/components/connectivity/lwm2m/core\registration.c **** 
 111:C:/Users/lenovo/Desktop/liteos/Project2/BearPi_LiteOS/components/connectivity/lwm2m/core\registration.c ****     if (NULL != contextP->msisdn)
 112:C:/Users/lenovo/Desktop/liteos/Project2/BearPi_LiteOS/components/connectivity/lwm2m/core\registration.c ****     {
 113:C:/Users/lenovo/Desktop/liteos/Project2/BearPi_LiteOS/components/connectivity/lwm2m/core\registration.c ****         index += strlen(QUERY_DELIMITER QUERY_SMS);
 114:C:/Users/lenovo/Desktop/liteos/Project2/BearPi_LiteOS/components/connectivity/lwm2m/core\registration.c ****         index += strlen(contextP->msisdn);
 115:C:/Users/lenovo/Desktop/liteos/Project2/BearPi_LiteOS/components/connectivity/lwm2m/core\registration.c ****     }
 116:C:/Users/lenovo/Desktop/liteos/Project2/BearPi_LiteOS/components/connectivity/lwm2m/core\registration.c **** 
 117:C:/Users/lenovo/Desktop/liteos/Project2/BearPi_LiteOS/components/connectivity/lwm2m/core\registration.c ****     switch (server->binding)
 118:C:/Users/lenovo/Desktop/liteos/Project2/BearPi_LiteOS/components/connectivity/lwm2m/core\registration.c ****     {
 119:C:/Users/lenovo/Desktop/liteos/Project2/BearPi_LiteOS/components/connectivity/lwm2m/core\registration.c ****     case BINDING_U:
 120:C:/Users/lenovo/Desktop/liteos/Project2/BearPi_LiteOS/components/connectivity/lwm2m/core\registration.c ****         index += strlen("&b=U");
 121:C:/Users/lenovo/Desktop/liteos/Project2/BearPi_LiteOS/components/connectivity/lwm2m/core\registration.c ****         break;
 122:C:/Users/lenovo/Desktop/liteos/Project2/BearPi_LiteOS/components/connectivity/lwm2m/core\registration.c ****     case BINDING_UQ:
 123:C:/Users/lenovo/Desktop/liteos/Project2/BearPi_LiteOS/components/connectivity/lwm2m/core\registration.c ****         index += strlen("&b=UQ");
 124:C:/Users/lenovo/Desktop/liteos/Project2/BearPi_LiteOS/components/connectivity/lwm2m/core\registration.c ****         break;
 125:C:/Users/lenovo/Desktop/liteos/Project2/BearPi_LiteOS/components/connectivity/lwm2m/core\registration.c ****     case BINDING_S:
 126:C:/Users/lenovo/Desktop/liteos/Project2/BearPi_LiteOS/components/connectivity/lwm2m/core\registration.c ****         index += strlen("&b=S");
 127:C:/Users/lenovo/Desktop/liteos/Project2/BearPi_LiteOS/components/connectivity/lwm2m/core\registration.c ****         break;
 128:C:/Users/lenovo/Desktop/liteos/Project2/BearPi_LiteOS/components/connectivity/lwm2m/core\registration.c ****     case BINDING_SQ:
 129:C:/Users/lenovo/Desktop/liteos/Project2/BearPi_LiteOS/components/connectivity/lwm2m/core\registration.c ****         index += strlen("&b=SQ");
 130:C:/Users/lenovo/Desktop/liteos/Project2/BearPi_LiteOS/components/connectivity/lwm2m/core\registration.c ****         break;
 131:C:/Users/lenovo/Desktop/liteos/Project2/BearPi_LiteOS/components/connectivity/lwm2m/core\registration.c ****     case BINDING_US:
 132:C:/Users/lenovo/Desktop/liteos/Project2/BearPi_LiteOS/components/connectivity/lwm2m/core\registration.c ****         index += strlen("&b=US");
 133:C:/Users/lenovo/Desktop/liteos/Project2/BearPi_LiteOS/components/connectivity/lwm2m/core\registration.c ****         break;
 134:C:/Users/lenovo/Desktop/liteos/Project2/BearPi_LiteOS/components/connectivity/lwm2m/core\registration.c ****     case BINDING_UQS:
 135:C:/Users/lenovo/Desktop/liteos/Project2/BearPi_LiteOS/components/connectivity/lwm2m/core\registration.c ****         index += strlen("&b=UQS");
 136:C:/Users/lenovo/Desktop/liteos/Project2/BearPi_LiteOS/components/connectivity/lwm2m/core\registration.c ****         break;
 137:C:/Users/lenovo/Desktop/liteos/Project2/BearPi_LiteOS/components/connectivity/lwm2m/core\registration.c ****     default:
 138:C:/Users/lenovo/Desktop/liteos/Project2/BearPi_LiteOS/components/connectivity/lwm2m/core\registration.c ****         return 0;
 139:C:/Users/lenovo/Desktop/liteos/Project2/BearPi_LiteOS/components/connectivity/lwm2m/core\registration.c ****     }
 140:C:/Users/lenovo/Desktop/liteos/Project2/BearPi_LiteOS/components/connectivity/lwm2m/core\registration.c **** 
 141:C:/Users/lenovo/Desktop/liteos/Project2/BearPi_LiteOS/components/connectivity/lwm2m/core\registration.c ****     if (0 != server->lifetime)
 142:C:/Users/lenovo/Desktop/liteos/Project2/BearPi_LiteOS/components/connectivity/lwm2m/core\registration.c ****     {
 143:C:/Users/lenovo/Desktop/liteos/Project2/BearPi_LiteOS/components/connectivity/lwm2m/core\registration.c ****         index += strlen(QUERY_DELIMITER QUERY_LIFETIME);//&lt=
 144:C:/Users/lenovo/Desktop/liteos/Project2/BearPi_LiteOS/components/connectivity/lwm2m/core\registration.c ****         res = utils_intToText(server->lifetime, (uint8_t *)buffer, sizeof(buffer));
 145:C:/Users/lenovo/Desktop/liteos/Project2/BearPi_LiteOS/components/connectivity/lwm2m/core\registration.c ****         if (res == 0) return 0;
 146:C:/Users/lenovo/Desktop/liteos/Project2/BearPi_LiteOS/components/connectivity/lwm2m/core\registration.c ****         index += res;
ARM GAS  c:\Users\lenovo\AppData\Local\Temp\ccyoZgCp.s 			page 4


 147:C:/Users/lenovo/Desktop/liteos/Project2/BearPi_LiteOS/components/connectivity/lwm2m/core\registration.c ****     }
 148:C:/Users/lenovo/Desktop/liteos/Project2/BearPi_LiteOS/components/connectivity/lwm2m/core\registration.c **** 
 149:C:/Users/lenovo/Desktop/liteos/Project2/BearPi_LiteOS/components/connectivity/lwm2m/core\registration.c ****     return index + 1;
 150:C:/Users/lenovo/Desktop/liteos/Project2/BearPi_LiteOS/components/connectivity/lwm2m/core\registration.c **** }
 151:C:/Users/lenovo/Desktop/liteos/Project2/BearPi_LiteOS/components/connectivity/lwm2m/core\registration.c **** 
 152:C:/Users/lenovo/Desktop/liteos/Project2/BearPi_LiteOS/components/connectivity/lwm2m/core\registration.c **** static int prv_getRegistrationQuery(lwm2m_context_t *contextP,
 153:C:/Users/lenovo/Desktop/liteos/Project2/BearPi_LiteOS/components/connectivity/lwm2m/core\registration.c ****                                     lwm2m_server_t *server,
 154:C:/Users/lenovo/Desktop/liteos/Project2/BearPi_LiteOS/components/connectivity/lwm2m/core\registration.c ****                                     char *buffer,
 155:C:/Users/lenovo/Desktop/liteos/Project2/BearPi_LiteOS/components/connectivity/lwm2m/core\registration.c ****                                     size_t length)
 156:C:/Users/lenovo/Desktop/liteos/Project2/BearPi_LiteOS/components/connectivity/lwm2m/core\registration.c **** {
 157:C:/Users/lenovo/Desktop/liteos/Project2/BearPi_LiteOS/components/connectivity/lwm2m/core\registration.c ****     int index;
 158:C:/Users/lenovo/Desktop/liteos/Project2/BearPi_LiteOS/components/connectivity/lwm2m/core\registration.c ****     int res;
 159:C:/Users/lenovo/Desktop/liteos/Project2/BearPi_LiteOS/components/connectivity/lwm2m/core\registration.c **** 
 160:C:/Users/lenovo/Desktop/liteos/Project2/BearPi_LiteOS/components/connectivity/lwm2m/core\registration.c ****     index = utils_stringCopy(buffer, length, QUERY_STARTER QUERY_VERSION_FULL QUERY_DELIMITER QUERY
 161:C:/Users/lenovo/Desktop/liteos/Project2/BearPi_LiteOS/components/connectivity/lwm2m/core\registration.c ****     if (index < 0) return 0;
 162:C:/Users/lenovo/Desktop/liteos/Project2/BearPi_LiteOS/components/connectivity/lwm2m/core\registration.c ****     res = utils_stringCopy(buffer + index, length - index, contextP->endpointName);
 163:C:/Users/lenovo/Desktop/liteos/Project2/BearPi_LiteOS/components/connectivity/lwm2m/core\registration.c ****     if (res < 0) return 0;
 164:C:/Users/lenovo/Desktop/liteos/Project2/BearPi_LiteOS/components/connectivity/lwm2m/core\registration.c ****     index += res;
 165:C:/Users/lenovo/Desktop/liteos/Project2/BearPi_LiteOS/components/connectivity/lwm2m/core\registration.c **** 
 166:C:/Users/lenovo/Desktop/liteos/Project2/BearPi_LiteOS/components/connectivity/lwm2m/core\registration.c ****     if (NULL != contextP->msisdn)
 167:C:/Users/lenovo/Desktop/liteos/Project2/BearPi_LiteOS/components/connectivity/lwm2m/core\registration.c ****     {
 168:C:/Users/lenovo/Desktop/liteos/Project2/BearPi_LiteOS/components/connectivity/lwm2m/core\registration.c ****         res = utils_stringCopy(buffer + index, length - index, QUERY_DELIMITER QUERY_SMS);
 169:C:/Users/lenovo/Desktop/liteos/Project2/BearPi_LiteOS/components/connectivity/lwm2m/core\registration.c ****         if (res < 0) return 0;
 170:C:/Users/lenovo/Desktop/liteos/Project2/BearPi_LiteOS/components/connectivity/lwm2m/core\registration.c ****         index += res;
 171:C:/Users/lenovo/Desktop/liteos/Project2/BearPi_LiteOS/components/connectivity/lwm2m/core\registration.c ****         res = utils_stringCopy(buffer + index, length - index, contextP->msisdn);
 172:C:/Users/lenovo/Desktop/liteos/Project2/BearPi_LiteOS/components/connectivity/lwm2m/core\registration.c ****         if (res < 0) return 0;
 173:C:/Users/lenovo/Desktop/liteos/Project2/BearPi_LiteOS/components/connectivity/lwm2m/core\registration.c ****         index += res;
 174:C:/Users/lenovo/Desktop/liteos/Project2/BearPi_LiteOS/components/connectivity/lwm2m/core\registration.c ****     }
 175:C:/Users/lenovo/Desktop/liteos/Project2/BearPi_LiteOS/components/connectivity/lwm2m/core\registration.c **** 
 176:C:/Users/lenovo/Desktop/liteos/Project2/BearPi_LiteOS/components/connectivity/lwm2m/core\registration.c ****     switch (server->binding)
 177:C:/Users/lenovo/Desktop/liteos/Project2/BearPi_LiteOS/components/connectivity/lwm2m/core\registration.c ****     {
 178:C:/Users/lenovo/Desktop/liteos/Project2/BearPi_LiteOS/components/connectivity/lwm2m/core\registration.c ****     case BINDING_U:
 179:C:/Users/lenovo/Desktop/liteos/Project2/BearPi_LiteOS/components/connectivity/lwm2m/core\registration.c ****         res = utils_stringCopy(buffer + index, length - index, "&b=U");
 180:C:/Users/lenovo/Desktop/liteos/Project2/BearPi_LiteOS/components/connectivity/lwm2m/core\registration.c ****         break;
 181:C:/Users/lenovo/Desktop/liteos/Project2/BearPi_LiteOS/components/connectivity/lwm2m/core\registration.c ****     case BINDING_UQ:
 182:C:/Users/lenovo/Desktop/liteos/Project2/BearPi_LiteOS/components/connectivity/lwm2m/core\registration.c ****         res = utils_stringCopy(buffer + index, length - index, "&b=UQ");
 183:C:/Users/lenovo/Desktop/liteos/Project2/BearPi_LiteOS/components/connectivity/lwm2m/core\registration.c ****         break;
 184:C:/Users/lenovo/Desktop/liteos/Project2/BearPi_LiteOS/components/connectivity/lwm2m/core\registration.c ****     case BINDING_S:
 185:C:/Users/lenovo/Desktop/liteos/Project2/BearPi_LiteOS/components/connectivity/lwm2m/core\registration.c ****         res = utils_stringCopy(buffer + index, length - index, "&b=S");
 186:C:/Users/lenovo/Desktop/liteos/Project2/BearPi_LiteOS/components/connectivity/lwm2m/core\registration.c ****         break;
 187:C:/Users/lenovo/Desktop/liteos/Project2/BearPi_LiteOS/components/connectivity/lwm2m/core\registration.c ****     case BINDING_SQ:
 188:C:/Users/lenovo/Desktop/liteos/Project2/BearPi_LiteOS/components/connectivity/lwm2m/core\registration.c ****         res = utils_stringCopy(buffer + index, length - index, "&b=SQ");
 189:C:/Users/lenovo/Desktop/liteos/Project2/BearPi_LiteOS/components/connectivity/lwm2m/core\registration.c ****         break;
 190:C:/Users/lenovo/Desktop/liteos/Project2/BearPi_LiteOS/components/connectivity/lwm2m/core\registration.c ****     case BINDING_US:
 191:C:/Users/lenovo/Desktop/liteos/Project2/BearPi_LiteOS/components/connectivity/lwm2m/core\registration.c ****         res = utils_stringCopy(buffer + index, length - index, "&b=US");
 192:C:/Users/lenovo/Desktop/liteos/Project2/BearPi_LiteOS/components/connectivity/lwm2m/core\registration.c ****         break;
 193:C:/Users/lenovo/Desktop/liteos/Project2/BearPi_LiteOS/components/connectivity/lwm2m/core\registration.c ****     case BINDING_UQS:
 194:C:/Users/lenovo/Desktop/liteos/Project2/BearPi_LiteOS/components/connectivity/lwm2m/core\registration.c ****         res = utils_stringCopy(buffer + index, length - index, "&b=UQS");
 195:C:/Users/lenovo/Desktop/liteos/Project2/BearPi_LiteOS/components/connectivity/lwm2m/core\registration.c ****         break;
 196:C:/Users/lenovo/Desktop/liteos/Project2/BearPi_LiteOS/components/connectivity/lwm2m/core\registration.c ****     default:
 197:C:/Users/lenovo/Desktop/liteos/Project2/BearPi_LiteOS/components/connectivity/lwm2m/core\registration.c ****         res = -1;
 198:C:/Users/lenovo/Desktop/liteos/Project2/BearPi_LiteOS/components/connectivity/lwm2m/core\registration.c ****     }
 199:C:/Users/lenovo/Desktop/liteos/Project2/BearPi_LiteOS/components/connectivity/lwm2m/core\registration.c ****     if (res < 0) return 0;
 200:C:/Users/lenovo/Desktop/liteos/Project2/BearPi_LiteOS/components/connectivity/lwm2m/core\registration.c ****     index += res;
 201:C:/Users/lenovo/Desktop/liteos/Project2/BearPi_LiteOS/components/connectivity/lwm2m/core\registration.c **** 
 202:C:/Users/lenovo/Desktop/liteos/Project2/BearPi_LiteOS/components/connectivity/lwm2m/core\registration.c ****     if (0 != server->lifetime)
 203:C:/Users/lenovo/Desktop/liteos/Project2/BearPi_LiteOS/components/connectivity/lwm2m/core\registration.c ****     {
ARM GAS  c:\Users\lenovo\AppData\Local\Temp\ccyoZgCp.s 			page 5


 204:C:/Users/lenovo/Desktop/liteos/Project2/BearPi_LiteOS/components/connectivity/lwm2m/core\registration.c ****         res = utils_stringCopy(buffer + index, length - index, QUERY_DELIMITER QUERY_LIFETIME);
 205:C:/Users/lenovo/Desktop/liteos/Project2/BearPi_LiteOS/components/connectivity/lwm2m/core\registration.c ****         if (res < 0) return 0;
 206:C:/Users/lenovo/Desktop/liteos/Project2/BearPi_LiteOS/components/connectivity/lwm2m/core\registration.c ****         index += res;
 207:C:/Users/lenovo/Desktop/liteos/Project2/BearPi_LiteOS/components/connectivity/lwm2m/core\registration.c ****         res = utils_intToText(server->lifetime, (uint8_t *)buffer + index, length - index);
 208:C:/Users/lenovo/Desktop/liteos/Project2/BearPi_LiteOS/components/connectivity/lwm2m/core\registration.c ****         if (res == 0) return 0;
 209:C:/Users/lenovo/Desktop/liteos/Project2/BearPi_LiteOS/components/connectivity/lwm2m/core\registration.c ****         index += res;
 210:C:/Users/lenovo/Desktop/liteos/Project2/BearPi_LiteOS/components/connectivity/lwm2m/core\registration.c ****     }
 211:C:/Users/lenovo/Desktop/liteos/Project2/BearPi_LiteOS/components/connectivity/lwm2m/core\registration.c **** 
 212:C:/Users/lenovo/Desktop/liteos/Project2/BearPi_LiteOS/components/connectivity/lwm2m/core\registration.c ****     if(index < (int)length)
 213:C:/Users/lenovo/Desktop/liteos/Project2/BearPi_LiteOS/components/connectivity/lwm2m/core\registration.c ****     {
 214:C:/Users/lenovo/Desktop/liteos/Project2/BearPi_LiteOS/components/connectivity/lwm2m/core\registration.c ****         buffer[index++] = '\0';
 215:C:/Users/lenovo/Desktop/liteos/Project2/BearPi_LiteOS/components/connectivity/lwm2m/core\registration.c ****     }
 216:C:/Users/lenovo/Desktop/liteos/Project2/BearPi_LiteOS/components/connectivity/lwm2m/core\registration.c ****     else
 217:C:/Users/lenovo/Desktop/liteos/Project2/BearPi_LiteOS/components/connectivity/lwm2m/core\registration.c ****     {
 218:C:/Users/lenovo/Desktop/liteos/Project2/BearPi_LiteOS/components/connectivity/lwm2m/core\registration.c ****         return 0;
 219:C:/Users/lenovo/Desktop/liteos/Project2/BearPi_LiteOS/components/connectivity/lwm2m/core\registration.c ****     }
 220:C:/Users/lenovo/Desktop/liteos/Project2/BearPi_LiteOS/components/connectivity/lwm2m/core\registration.c **** 
 221:C:/Users/lenovo/Desktop/liteos/Project2/BearPi_LiteOS/components/connectivity/lwm2m/core\registration.c ****     return index;
 222:C:/Users/lenovo/Desktop/liteos/Project2/BearPi_LiteOS/components/connectivity/lwm2m/core\registration.c **** }
 223:C:/Users/lenovo/Desktop/liteos/Project2/BearPi_LiteOS/components/connectivity/lwm2m/core\registration.c **** 
 224:C:/Users/lenovo/Desktop/liteos/Project2/BearPi_LiteOS/components/connectivity/lwm2m/core\registration.c **** static void prv_handleRegistrationReply(lwm2m_transaction_t *transacP,
 225:C:/Users/lenovo/Desktop/liteos/Project2/BearPi_LiteOS/components/connectivity/lwm2m/core\registration.c ****                                         void *message)
 226:C:/Users/lenovo/Desktop/liteos/Project2/BearPi_LiteOS/components/connectivity/lwm2m/core\registration.c **** {
 227:C:/Users/lenovo/Desktop/liteos/Project2/BearPi_LiteOS/components/connectivity/lwm2m/core\registration.c ****     coap_packet_t *packet = (coap_packet_t *)message;
 228:C:/Users/lenovo/Desktop/liteos/Project2/BearPi_LiteOS/components/connectivity/lwm2m/core\registration.c ****     lwm2m_server_t *targetP = (lwm2m_server_t *)(transacP->userData);
 229:C:/Users/lenovo/Desktop/liteos/Project2/BearPi_LiteOS/components/connectivity/lwm2m/core\registration.c **** 
 230:C:/Users/lenovo/Desktop/liteos/Project2/BearPi_LiteOS/components/connectivity/lwm2m/core\registration.c ****     LOG("come into  prv_handleRegistrationReply!!");
 231:C:/Users/lenovo/Desktop/liteos/Project2/BearPi_LiteOS/components/connectivity/lwm2m/core\registration.c ****     if (targetP->status == STATE_REG_PENDING)
 232:C:/Users/lenovo/Desktop/liteos/Project2/BearPi_LiteOS/components/connectivity/lwm2m/core\registration.c ****     {
 233:C:/Users/lenovo/Desktop/liteos/Project2/BearPi_LiteOS/components/connectivity/lwm2m/core\registration.c ****         time_t tv_sec = lwm2m_gettime();
 234:C:/Users/lenovo/Desktop/liteos/Project2/BearPi_LiteOS/components/connectivity/lwm2m/core\registration.c ****         if (tv_sec)
 235:C:/Users/lenovo/Desktop/liteos/Project2/BearPi_LiteOS/components/connectivity/lwm2m/core\registration.c ****         {
 236:C:/Users/lenovo/Desktop/liteos/Project2/BearPi_LiteOS/components/connectivity/lwm2m/core\registration.c ****             targetP->registration = tv_sec;
 237:C:/Users/lenovo/Desktop/liteos/Project2/BearPi_LiteOS/components/connectivity/lwm2m/core\registration.c ****         }
 238:C:/Users/lenovo/Desktop/liteos/Project2/BearPi_LiteOS/components/connectivity/lwm2m/core\registration.c ****         if (packet != NULL && packet->code == COAP_201_CREATED)
 239:C:/Users/lenovo/Desktop/liteos/Project2/BearPi_LiteOS/components/connectivity/lwm2m/core\registration.c ****         {
 240:C:/Users/lenovo/Desktop/liteos/Project2/BearPi_LiteOS/components/connectivity/lwm2m/core\registration.c ****             targetP->status = STATE_REGISTERED;
 241:C:/Users/lenovo/Desktop/liteos/Project2/BearPi_LiteOS/components/connectivity/lwm2m/core\registration.c ****             if (NULL != targetP->location)
 242:C:/Users/lenovo/Desktop/liteos/Project2/BearPi_LiteOS/components/connectivity/lwm2m/core\registration.c ****             {
 243:C:/Users/lenovo/Desktop/liteos/Project2/BearPi_LiteOS/components/connectivity/lwm2m/core\registration.c ****                 lwm2m_free(targetP->location);
 244:C:/Users/lenovo/Desktop/liteos/Project2/BearPi_LiteOS/components/connectivity/lwm2m/core\registration.c ****             }
 245:C:/Users/lenovo/Desktop/liteos/Project2/BearPi_LiteOS/components/connectivity/lwm2m/core\registration.c ****             targetP->location = coap_get_multi_option_as_string(packet->location_path);
 246:C:/Users/lenovo/Desktop/liteos/Project2/BearPi_LiteOS/components/connectivity/lwm2m/core\registration.c **** 
 247:C:/Users/lenovo/Desktop/liteos/Project2/BearPi_LiteOS/components/connectivity/lwm2m/core\registration.c ****             LOG("Registration successful");
 248:C:/Users/lenovo/Desktop/liteos/Project2/BearPi_LiteOS/components/connectivity/lwm2m/core\registration.c ****         }
 249:C:/Users/lenovo/Desktop/liteos/Project2/BearPi_LiteOS/components/connectivity/lwm2m/core\registration.c ****         else
 250:C:/Users/lenovo/Desktop/liteos/Project2/BearPi_LiteOS/components/connectivity/lwm2m/core\registration.c ****         {
 251:C:/Users/lenovo/Desktop/liteos/Project2/BearPi_LiteOS/components/connectivity/lwm2m/core\registration.c ****             targetP->status = STATE_REG_FAILED;
 252:C:/Users/lenovo/Desktop/liteos/Project2/BearPi_LiteOS/components/connectivity/lwm2m/core\registration.c ****             LOG("Registration failed");
 253:C:/Users/lenovo/Desktop/liteos/Project2/BearPi_LiteOS/components/connectivity/lwm2m/core\registration.c ****         }
 254:C:/Users/lenovo/Desktop/liteos/Project2/BearPi_LiteOS/components/connectivity/lwm2m/core\registration.c ****     }
 255:C:/Users/lenovo/Desktop/liteos/Project2/BearPi_LiteOS/components/connectivity/lwm2m/core\registration.c **** }
 256:C:/Users/lenovo/Desktop/liteos/Project2/BearPi_LiteOS/components/connectivity/lwm2m/core\registration.c **** 
 257:C:/Users/lenovo/Desktop/liteos/Project2/BearPi_LiteOS/components/connectivity/lwm2m/core\registration.c **** // send the registration for a single server
 258:C:/Users/lenovo/Desktop/liteos/Project2/BearPi_LiteOS/components/connectivity/lwm2m/core\registration.c **** static uint8_t prv_register(lwm2m_context_t *contextP,
 259:C:/Users/lenovo/Desktop/liteos/Project2/BearPi_LiteOS/components/connectivity/lwm2m/core\registration.c ****                             lwm2m_server_t *server)
 260:C:/Users/lenovo/Desktop/liteos/Project2/BearPi_LiteOS/components/connectivity/lwm2m/core\registration.c **** {
ARM GAS  c:\Users\lenovo\AppData\Local\Temp\ccyoZgCp.s 			page 6


 261:C:/Users/lenovo/Desktop/liteos/Project2/BearPi_LiteOS/components/connectivity/lwm2m/core\registration.c ****     char *query;
 262:C:/Users/lenovo/Desktop/liteos/Project2/BearPi_LiteOS/components/connectivity/lwm2m/core\registration.c ****     int query_length;
 263:C:/Users/lenovo/Desktop/liteos/Project2/BearPi_LiteOS/components/connectivity/lwm2m/core\registration.c ****     uint8_t *payload;
 264:C:/Users/lenovo/Desktop/liteos/Project2/BearPi_LiteOS/components/connectivity/lwm2m/core\registration.c ****     int payload_length;
 265:C:/Users/lenovo/Desktop/liteos/Project2/BearPi_LiteOS/components/connectivity/lwm2m/core\registration.c ****     lwm2m_transaction_t *transaction;
 266:C:/Users/lenovo/Desktop/liteos/Project2/BearPi_LiteOS/components/connectivity/lwm2m/core\registration.c **** 
 267:C:/Users/lenovo/Desktop/liteos/Project2/BearPi_LiteOS/components/connectivity/lwm2m/core\registration.c ****     payload_length = object_getRegisterPayloadBufferLength(contextP);
 268:C:/Users/lenovo/Desktop/liteos/Project2/BearPi_LiteOS/components/connectivity/lwm2m/core\registration.c ****     if(payload_length == 0) return COAP_500_INTERNAL_SERVER_ERROR;
 269:C:/Users/lenovo/Desktop/liteos/Project2/BearPi_LiteOS/components/connectivity/lwm2m/core\registration.c ****     payload = lwm2m_malloc(payload_length);
 270:C:/Users/lenovo/Desktop/liteos/Project2/BearPi_LiteOS/components/connectivity/lwm2m/core\registration.c ****     if(!payload) return COAP_500_INTERNAL_SERVER_ERROR;
 271:C:/Users/lenovo/Desktop/liteos/Project2/BearPi_LiteOS/components/connectivity/lwm2m/core\registration.c ****     payload_length = object_getRegisterPayload(contextP, payload, payload_length);
 272:C:/Users/lenovo/Desktop/liteos/Project2/BearPi_LiteOS/components/connectivity/lwm2m/core\registration.c ****     if(payload_length == 0)
 273:C:/Users/lenovo/Desktop/liteos/Project2/BearPi_LiteOS/components/connectivity/lwm2m/core\registration.c ****     {
 274:C:/Users/lenovo/Desktop/liteos/Project2/BearPi_LiteOS/components/connectivity/lwm2m/core\registration.c ****         lwm2m_free(payload);
 275:C:/Users/lenovo/Desktop/liteos/Project2/BearPi_LiteOS/components/connectivity/lwm2m/core\registration.c ****         return COAP_500_INTERNAL_SERVER_ERROR;
 276:C:/Users/lenovo/Desktop/liteos/Project2/BearPi_LiteOS/components/connectivity/lwm2m/core\registration.c ****     }
 277:C:/Users/lenovo/Desktop/liteos/Project2/BearPi_LiteOS/components/connectivity/lwm2m/core\registration.c **** 
 278:C:/Users/lenovo/Desktop/liteos/Project2/BearPi_LiteOS/components/connectivity/lwm2m/core\registration.c ****     query_length = prv_getRegistrationQueryLength(contextP, server);
 279:C:/Users/lenovo/Desktop/liteos/Project2/BearPi_LiteOS/components/connectivity/lwm2m/core\registration.c ****     if(query_length == 0)
 280:C:/Users/lenovo/Desktop/liteos/Project2/BearPi_LiteOS/components/connectivity/lwm2m/core\registration.c ****     {
 281:C:/Users/lenovo/Desktop/liteos/Project2/BearPi_LiteOS/components/connectivity/lwm2m/core\registration.c ****         lwm2m_free(payload);
 282:C:/Users/lenovo/Desktop/liteos/Project2/BearPi_LiteOS/components/connectivity/lwm2m/core\registration.c ****         return COAP_500_INTERNAL_SERVER_ERROR;
 283:C:/Users/lenovo/Desktop/liteos/Project2/BearPi_LiteOS/components/connectivity/lwm2m/core\registration.c ****     }
 284:C:/Users/lenovo/Desktop/liteos/Project2/BearPi_LiteOS/components/connectivity/lwm2m/core\registration.c ****     query = lwm2m_malloc(query_length);
 285:C:/Users/lenovo/Desktop/liteos/Project2/BearPi_LiteOS/components/connectivity/lwm2m/core\registration.c ****     if(!query)
 286:C:/Users/lenovo/Desktop/liteos/Project2/BearPi_LiteOS/components/connectivity/lwm2m/core\registration.c ****     {
 287:C:/Users/lenovo/Desktop/liteos/Project2/BearPi_LiteOS/components/connectivity/lwm2m/core\registration.c ****         lwm2m_free(payload);
 288:C:/Users/lenovo/Desktop/liteos/Project2/BearPi_LiteOS/components/connectivity/lwm2m/core\registration.c ****         return COAP_500_INTERNAL_SERVER_ERROR;
 289:C:/Users/lenovo/Desktop/liteos/Project2/BearPi_LiteOS/components/connectivity/lwm2m/core\registration.c ****     }
 290:C:/Users/lenovo/Desktop/liteos/Project2/BearPi_LiteOS/components/connectivity/lwm2m/core\registration.c ****     if(prv_getRegistrationQuery(contextP, server, query, query_length) != query_length)
 291:C:/Users/lenovo/Desktop/liteos/Project2/BearPi_LiteOS/components/connectivity/lwm2m/core\registration.c ****     {
 292:C:/Users/lenovo/Desktop/liteos/Project2/BearPi_LiteOS/components/connectivity/lwm2m/core\registration.c ****         lwm2m_free(payload);
 293:C:/Users/lenovo/Desktop/liteos/Project2/BearPi_LiteOS/components/connectivity/lwm2m/core\registration.c ****         lwm2m_free(query);
 294:C:/Users/lenovo/Desktop/liteos/Project2/BearPi_LiteOS/components/connectivity/lwm2m/core\registration.c ****         return COAP_500_INTERNAL_SERVER_ERROR;
 295:C:/Users/lenovo/Desktop/liteos/Project2/BearPi_LiteOS/components/connectivity/lwm2m/core\registration.c ****     }
 296:C:/Users/lenovo/Desktop/liteos/Project2/BearPi_LiteOS/components/connectivity/lwm2m/core\registration.c **** 
 297:C:/Users/lenovo/Desktop/liteos/Project2/BearPi_LiteOS/components/connectivity/lwm2m/core\registration.c ****     if (server->sessionH == NULL)
 298:C:/Users/lenovo/Desktop/liteos/Project2/BearPi_LiteOS/components/connectivity/lwm2m/core\registration.c ****     {
 299:C:/Users/lenovo/Desktop/liteos/Project2/BearPi_LiteOS/components/connectivity/lwm2m/core\registration.c ****         server->sessionH = lwm2m_connect_server(server->secObjInstID, contextP->userData, false);
 300:C:/Users/lenovo/Desktop/liteos/Project2/BearPi_LiteOS/components/connectivity/lwm2m/core\registration.c ****     }
 301:C:/Users/lenovo/Desktop/liteos/Project2/BearPi_LiteOS/components/connectivity/lwm2m/core\registration.c **** 
 302:C:/Users/lenovo/Desktop/liteos/Project2/BearPi_LiteOS/components/connectivity/lwm2m/core\registration.c ****     if (NULL == server->sessionH)
 303:C:/Users/lenovo/Desktop/liteos/Project2/BearPi_LiteOS/components/connectivity/lwm2m/core\registration.c ****     {
 304:C:/Users/lenovo/Desktop/liteos/Project2/BearPi_LiteOS/components/connectivity/lwm2m/core\registration.c ****         lwm2m_free(payload);
 305:C:/Users/lenovo/Desktop/liteos/Project2/BearPi_LiteOS/components/connectivity/lwm2m/core\registration.c ****         lwm2m_free(query);
 306:C:/Users/lenovo/Desktop/liteos/Project2/BearPi_LiteOS/components/connectivity/lwm2m/core\registration.c ****         return COAP_503_SERVICE_UNAVAILABLE;
 307:C:/Users/lenovo/Desktop/liteos/Project2/BearPi_LiteOS/components/connectivity/lwm2m/core\registration.c ****     }
 308:C:/Users/lenovo/Desktop/liteos/Project2/BearPi_LiteOS/components/connectivity/lwm2m/core\registration.c **** 
 309:C:/Users/lenovo/Desktop/liteos/Project2/BearPi_LiteOS/components/connectivity/lwm2m/core\registration.c ****     transaction = transaction_new(server->sessionH, COAP_POST, NULL, NULL, contextP->nextMID++, 4, 
 310:C:/Users/lenovo/Desktop/liteos/Project2/BearPi_LiteOS/components/connectivity/lwm2m/core\registration.c ****     if (transaction == NULL)
 311:C:/Users/lenovo/Desktop/liteos/Project2/BearPi_LiteOS/components/connectivity/lwm2m/core\registration.c ****     {
 312:C:/Users/lenovo/Desktop/liteos/Project2/BearPi_LiteOS/components/connectivity/lwm2m/core\registration.c ****         lwm2m_free(payload);
 313:C:/Users/lenovo/Desktop/liteos/Project2/BearPi_LiteOS/components/connectivity/lwm2m/core\registration.c ****         lwm2m_free(query);
 314:C:/Users/lenovo/Desktop/liteos/Project2/BearPi_LiteOS/components/connectivity/lwm2m/core\registration.c ****         return COAP_503_SERVICE_UNAVAILABLE;
 315:C:/Users/lenovo/Desktop/liteos/Project2/BearPi_LiteOS/components/connectivity/lwm2m/core\registration.c ****     }
 316:C:/Users/lenovo/Desktop/liteos/Project2/BearPi_LiteOS/components/connectivity/lwm2m/core\registration.c ****     //    coap_pdu_t *pdu = (coap_pdu_t *)(transaction->message);
 317:C:/Users/lenovo/Desktop/liteos/Project2/BearPi_LiteOS/components/connectivity/lwm2m/core\registration.c **** 
ARM GAS  c:\Users\lenovo\AppData\Local\Temp\ccyoZgCp.s 			page 7


 318:C:/Users/lenovo/Desktop/liteos/Project2/BearPi_LiteOS/components/connectivity/lwm2m/core\registration.c ****     coap_set_header_uri_path(transaction->message, "/"URI_REGISTRATION_SEGMENT);
 319:C:/Users/lenovo/Desktop/liteos/Project2/BearPi_LiteOS/components/connectivity/lwm2m/core\registration.c ****     coap_set_header_uri_query(transaction->message, query);
 320:C:/Users/lenovo/Desktop/liteos/Project2/BearPi_LiteOS/components/connectivity/lwm2m/core\registration.c ****     coap_set_header_content_type(transaction->message, LWM2M_CONTENT_LINK);
 321:C:/Users/lenovo/Desktop/liteos/Project2/BearPi_LiteOS/components/connectivity/lwm2m/core\registration.c ****     coap_set_payload(transaction->message, payload, payload_length);
 322:C:/Users/lenovo/Desktop/liteos/Project2/BearPi_LiteOS/components/connectivity/lwm2m/core\registration.c **** 
 323:C:/Users/lenovo/Desktop/liteos/Project2/BearPi_LiteOS/components/connectivity/lwm2m/core\registration.c ****     transaction->callback = prv_handleRegistrationReply;
 324:C:/Users/lenovo/Desktop/liteos/Project2/BearPi_LiteOS/components/connectivity/lwm2m/core\registration.c ****     transaction->userData = (void *) server;
 325:C:/Users/lenovo/Desktop/liteos/Project2/BearPi_LiteOS/components/connectivity/lwm2m/core\registration.c **** 
 326:C:/Users/lenovo/Desktop/liteos/Project2/BearPi_LiteOS/components/connectivity/lwm2m/core\registration.c ****     contextP->transactionList = (lwm2m_transaction_t *)LWM2M_LIST_ADD(contextP->transactionList, tr
 327:C:/Users/lenovo/Desktop/liteos/Project2/BearPi_LiteOS/components/connectivity/lwm2m/core\registration.c ****     if (transaction_send(contextP, transaction) != 0)
 328:C:/Users/lenovo/Desktop/liteos/Project2/BearPi_LiteOS/components/connectivity/lwm2m/core\registration.c ****     {
 329:C:/Users/lenovo/Desktop/liteos/Project2/BearPi_LiteOS/components/connectivity/lwm2m/core\registration.c ****         lwm2m_free(payload);
 330:C:/Users/lenovo/Desktop/liteos/Project2/BearPi_LiteOS/components/connectivity/lwm2m/core\registration.c ****         lwm2m_free(query);
 331:C:/Users/lenovo/Desktop/liteos/Project2/BearPi_LiteOS/components/connectivity/lwm2m/core\registration.c ****         return COAP_503_SERVICE_UNAVAILABLE;
 332:C:/Users/lenovo/Desktop/liteos/Project2/BearPi_LiteOS/components/connectivity/lwm2m/core\registration.c ****     }
 333:C:/Users/lenovo/Desktop/liteos/Project2/BearPi_LiteOS/components/connectivity/lwm2m/core\registration.c **** 
 334:C:/Users/lenovo/Desktop/liteos/Project2/BearPi_LiteOS/components/connectivity/lwm2m/core\registration.c ****     lwm2m_free(payload);
 335:C:/Users/lenovo/Desktop/liteos/Project2/BearPi_LiteOS/components/connectivity/lwm2m/core\registration.c ****     lwm2m_free(query);
 336:C:/Users/lenovo/Desktop/liteos/Project2/BearPi_LiteOS/components/connectivity/lwm2m/core\registration.c **** 
 337:C:/Users/lenovo/Desktop/liteos/Project2/BearPi_LiteOS/components/connectivity/lwm2m/core\registration.c ****     server->status = STATE_REG_PENDING;
 338:C:/Users/lenovo/Desktop/liteos/Project2/BearPi_LiteOS/components/connectivity/lwm2m/core\registration.c **** 
 339:C:/Users/lenovo/Desktop/liteos/Project2/BearPi_LiteOS/components/connectivity/lwm2m/core\registration.c ****     return COAP_NO_ERROR;
 340:C:/Users/lenovo/Desktop/liteos/Project2/BearPi_LiteOS/components/connectivity/lwm2m/core\registration.c **** }
 341:C:/Users/lenovo/Desktop/liteos/Project2/BearPi_LiteOS/components/connectivity/lwm2m/core\registration.c **** 
 342:C:/Users/lenovo/Desktop/liteos/Project2/BearPi_LiteOS/components/connectivity/lwm2m/core\registration.c **** static void prv_handleRegistrationUpdateReply(lwm2m_transaction_t *transacP,
 343:C:/Users/lenovo/Desktop/liteos/Project2/BearPi_LiteOS/components/connectivity/lwm2m/core\registration.c ****         void *message)
 344:C:/Users/lenovo/Desktop/liteos/Project2/BearPi_LiteOS/components/connectivity/lwm2m/core\registration.c **** {
 345:C:/Users/lenovo/Desktop/liteos/Project2/BearPi_LiteOS/components/connectivity/lwm2m/core\registration.c ****     coap_packet_t *packet = (coap_packet_t *)message;
 346:C:/Users/lenovo/Desktop/liteos/Project2/BearPi_LiteOS/components/connectivity/lwm2m/core\registration.c ****     lwm2m_server_t *targetP = (lwm2m_server_t *)(transacP->userData);
 347:C:/Users/lenovo/Desktop/liteos/Project2/BearPi_LiteOS/components/connectivity/lwm2m/core\registration.c **** 
 348:C:/Users/lenovo/Desktop/liteos/Project2/BearPi_LiteOS/components/connectivity/lwm2m/core\registration.c ****     if (targetP->status == STATE_REG_UPDATE_PENDING)
 349:C:/Users/lenovo/Desktop/liteos/Project2/BearPi_LiteOS/components/connectivity/lwm2m/core\registration.c ****     {
 350:C:/Users/lenovo/Desktop/liteos/Project2/BearPi_LiteOS/components/connectivity/lwm2m/core\registration.c ****         time_t tv_sec = lwm2m_gettime();
 351:C:/Users/lenovo/Desktop/liteos/Project2/BearPi_LiteOS/components/connectivity/lwm2m/core\registration.c ****         if (tv_sec )
 352:C:/Users/lenovo/Desktop/liteos/Project2/BearPi_LiteOS/components/connectivity/lwm2m/core\registration.c ****         {
 353:C:/Users/lenovo/Desktop/liteos/Project2/BearPi_LiteOS/components/connectivity/lwm2m/core\registration.c ****             targetP->registration = tv_sec;
 354:C:/Users/lenovo/Desktop/liteos/Project2/BearPi_LiteOS/components/connectivity/lwm2m/core\registration.c ****         }
 355:C:/Users/lenovo/Desktop/liteos/Project2/BearPi_LiteOS/components/connectivity/lwm2m/core\registration.c ****         if (packet != NULL && packet->code == COAP_204_CHANGED)
 356:C:/Users/lenovo/Desktop/liteos/Project2/BearPi_LiteOS/components/connectivity/lwm2m/core\registration.c ****         {
 357:C:/Users/lenovo/Desktop/liteos/Project2/BearPi_LiteOS/components/connectivity/lwm2m/core\registration.c ****             targetP->status = STATE_REGISTERED;
 358:C:/Users/lenovo/Desktop/liteos/Project2/BearPi_LiteOS/components/connectivity/lwm2m/core\registration.c ****             LOG("Registration update successful");
 359:C:/Users/lenovo/Desktop/liteos/Project2/BearPi_LiteOS/components/connectivity/lwm2m/core\registration.c ****         }
 360:C:/Users/lenovo/Desktop/liteos/Project2/BearPi_LiteOS/components/connectivity/lwm2m/core\registration.c ****         else
 361:C:/Users/lenovo/Desktop/liteos/Project2/BearPi_LiteOS/components/connectivity/lwm2m/core\registration.c ****         {
 362:C:/Users/lenovo/Desktop/liteos/Project2/BearPi_LiteOS/components/connectivity/lwm2m/core\registration.c ****             targetP->status = STATE_REG_FAILED;
 363:C:/Users/lenovo/Desktop/liteos/Project2/BearPi_LiteOS/components/connectivity/lwm2m/core\registration.c ****             LOG("Registration update failed");
 364:C:/Users/lenovo/Desktop/liteos/Project2/BearPi_LiteOS/components/connectivity/lwm2m/core\registration.c ****         }
 365:C:/Users/lenovo/Desktop/liteos/Project2/BearPi_LiteOS/components/connectivity/lwm2m/core\registration.c ****     }
 366:C:/Users/lenovo/Desktop/liteos/Project2/BearPi_LiteOS/components/connectivity/lwm2m/core\registration.c **** }
 367:C:/Users/lenovo/Desktop/liteos/Project2/BearPi_LiteOS/components/connectivity/lwm2m/core\registration.c **** 
 368:C:/Users/lenovo/Desktop/liteos/Project2/BearPi_LiteOS/components/connectivity/lwm2m/core\registration.c **** static int prv_updateRegistration(lwm2m_context_t *contextP,
 369:C:/Users/lenovo/Desktop/liteos/Project2/BearPi_LiteOS/components/connectivity/lwm2m/core\registration.c ****                                   lwm2m_server_t *server,
 370:C:/Users/lenovo/Desktop/liteos/Project2/BearPi_LiteOS/components/connectivity/lwm2m/core\registration.c ****                                   bool withObjects)
 371:C:/Users/lenovo/Desktop/liteos/Project2/BearPi_LiteOS/components/connectivity/lwm2m/core\registration.c **** {
 372:C:/Users/lenovo/Desktop/liteos/Project2/BearPi_LiteOS/components/connectivity/lwm2m/core\registration.c ****     lwm2m_transaction_t *transaction;
 373:C:/Users/lenovo/Desktop/liteos/Project2/BearPi_LiteOS/components/connectivity/lwm2m/core\registration.c ****     uint8_t *payload = NULL;
 374:C:/Users/lenovo/Desktop/liteos/Project2/BearPi_LiteOS/components/connectivity/lwm2m/core\registration.c ****     int payload_length;
ARM GAS  c:\Users\lenovo\AppData\Local\Temp\ccyoZgCp.s 			page 8


 375:C:/Users/lenovo/Desktop/liteos/Project2/BearPi_LiteOS/components/connectivity/lwm2m/core\registration.c **** 
 376:C:/Users/lenovo/Desktop/liteos/Project2/BearPi_LiteOS/components/connectivity/lwm2m/core\registration.c ****     transaction = transaction_new(server->sessionH, COAP_POST, NULL, NULL, contextP->nextMID++, 4, 
 377:C:/Users/lenovo/Desktop/liteos/Project2/BearPi_LiteOS/components/connectivity/lwm2m/core\registration.c ****     if (transaction == NULL) return COAP_500_INTERNAL_SERVER_ERROR;
 378:C:/Users/lenovo/Desktop/liteos/Project2/BearPi_LiteOS/components/connectivity/lwm2m/core\registration.c **** 
 379:C:/Users/lenovo/Desktop/liteos/Project2/BearPi_LiteOS/components/connectivity/lwm2m/core\registration.c ****     coap_set_header_uri_path(transaction->message, server->location);
 380:C:/Users/lenovo/Desktop/liteos/Project2/BearPi_LiteOS/components/connectivity/lwm2m/core\registration.c **** 
 381:C:/Users/lenovo/Desktop/liteos/Project2/BearPi_LiteOS/components/connectivity/lwm2m/core\registration.c ****     if (withObjects == true)
 382:C:/Users/lenovo/Desktop/liteos/Project2/BearPi_LiteOS/components/connectivity/lwm2m/core\registration.c ****     {
 383:C:/Users/lenovo/Desktop/liteos/Project2/BearPi_LiteOS/components/connectivity/lwm2m/core\registration.c ****         payload_length = object_getRegisterPayloadBufferLength(contextP);
 384:C:/Users/lenovo/Desktop/liteos/Project2/BearPi_LiteOS/components/connectivity/lwm2m/core\registration.c ****         if(payload_length == 0)
 385:C:/Users/lenovo/Desktop/liteos/Project2/BearPi_LiteOS/components/connectivity/lwm2m/core\registration.c ****         {
 386:C:/Users/lenovo/Desktop/liteos/Project2/BearPi_LiteOS/components/connectivity/lwm2m/core\registration.c ****             transaction_free(transaction);
 387:C:/Users/lenovo/Desktop/liteos/Project2/BearPi_LiteOS/components/connectivity/lwm2m/core\registration.c ****             return COAP_500_INTERNAL_SERVER_ERROR;
 388:C:/Users/lenovo/Desktop/liteos/Project2/BearPi_LiteOS/components/connectivity/lwm2m/core\registration.c ****         }
 389:C:/Users/lenovo/Desktop/liteos/Project2/BearPi_LiteOS/components/connectivity/lwm2m/core\registration.c **** 
 390:C:/Users/lenovo/Desktop/liteos/Project2/BearPi_LiteOS/components/connectivity/lwm2m/core\registration.c ****         payload = lwm2m_malloc(payload_length);
 391:C:/Users/lenovo/Desktop/liteos/Project2/BearPi_LiteOS/components/connectivity/lwm2m/core\registration.c ****         if(!payload)
 392:C:/Users/lenovo/Desktop/liteos/Project2/BearPi_LiteOS/components/connectivity/lwm2m/core\registration.c ****         {
 393:C:/Users/lenovo/Desktop/liteos/Project2/BearPi_LiteOS/components/connectivity/lwm2m/core\registration.c ****             transaction_free(transaction);
 394:C:/Users/lenovo/Desktop/liteos/Project2/BearPi_LiteOS/components/connectivity/lwm2m/core\registration.c ****             return COAP_500_INTERNAL_SERVER_ERROR;
 395:C:/Users/lenovo/Desktop/liteos/Project2/BearPi_LiteOS/components/connectivity/lwm2m/core\registration.c ****         }
 396:C:/Users/lenovo/Desktop/liteos/Project2/BearPi_LiteOS/components/connectivity/lwm2m/core\registration.c **** 
 397:C:/Users/lenovo/Desktop/liteos/Project2/BearPi_LiteOS/components/connectivity/lwm2m/core\registration.c ****         payload_length = object_getRegisterPayload(contextP, payload, payload_length);
 398:C:/Users/lenovo/Desktop/liteos/Project2/BearPi_LiteOS/components/connectivity/lwm2m/core\registration.c ****         if(payload_length == 0)
 399:C:/Users/lenovo/Desktop/liteos/Project2/BearPi_LiteOS/components/connectivity/lwm2m/core\registration.c ****         {
 400:C:/Users/lenovo/Desktop/liteos/Project2/BearPi_LiteOS/components/connectivity/lwm2m/core\registration.c ****             transaction_free(transaction);
 401:C:/Users/lenovo/Desktop/liteos/Project2/BearPi_LiteOS/components/connectivity/lwm2m/core\registration.c ****             lwm2m_free(payload);
 402:C:/Users/lenovo/Desktop/liteos/Project2/BearPi_LiteOS/components/connectivity/lwm2m/core\registration.c ****             return COAP_500_INTERNAL_SERVER_ERROR;
 403:C:/Users/lenovo/Desktop/liteos/Project2/BearPi_LiteOS/components/connectivity/lwm2m/core\registration.c ****         }
 404:C:/Users/lenovo/Desktop/liteos/Project2/BearPi_LiteOS/components/connectivity/lwm2m/core\registration.c ****         coap_set_payload(transaction->message, payload, payload_length);
 405:C:/Users/lenovo/Desktop/liteos/Project2/BearPi_LiteOS/components/connectivity/lwm2m/core\registration.c ****     }
 406:C:/Users/lenovo/Desktop/liteos/Project2/BearPi_LiteOS/components/connectivity/lwm2m/core\registration.c **** 
 407:C:/Users/lenovo/Desktop/liteos/Project2/BearPi_LiteOS/components/connectivity/lwm2m/core\registration.c ****     transaction->callback = prv_handleRegistrationUpdateReply;
 408:C:/Users/lenovo/Desktop/liteos/Project2/BearPi_LiteOS/components/connectivity/lwm2m/core\registration.c ****     transaction->userData = (void *) server;
 409:C:/Users/lenovo/Desktop/liteos/Project2/BearPi_LiteOS/components/connectivity/lwm2m/core\registration.c **** 
 410:C:/Users/lenovo/Desktop/liteos/Project2/BearPi_LiteOS/components/connectivity/lwm2m/core\registration.c ****     contextP->transactionList = (lwm2m_transaction_t *)LWM2M_LIST_ADD(contextP->transactionList, tr
 411:C:/Users/lenovo/Desktop/liteos/Project2/BearPi_LiteOS/components/connectivity/lwm2m/core\registration.c **** 
 412:C:/Users/lenovo/Desktop/liteos/Project2/BearPi_LiteOS/components/connectivity/lwm2m/core\registration.c ****     if (transaction_send(contextP, transaction) == 0)
 413:C:/Users/lenovo/Desktop/liteos/Project2/BearPi_LiteOS/components/connectivity/lwm2m/core\registration.c ****     {
 414:C:/Users/lenovo/Desktop/liteos/Project2/BearPi_LiteOS/components/connectivity/lwm2m/core\registration.c ****         server->status = STATE_REG_UPDATE_PENDING;
 415:C:/Users/lenovo/Desktop/liteos/Project2/BearPi_LiteOS/components/connectivity/lwm2m/core\registration.c ****     }
 416:C:/Users/lenovo/Desktop/liteos/Project2/BearPi_LiteOS/components/connectivity/lwm2m/core\registration.c **** 
 417:C:/Users/lenovo/Desktop/liteos/Project2/BearPi_LiteOS/components/connectivity/lwm2m/core\registration.c ****     if (withObjects == true)
 418:C:/Users/lenovo/Desktop/liteos/Project2/BearPi_LiteOS/components/connectivity/lwm2m/core\registration.c ****     {
 419:C:/Users/lenovo/Desktop/liteos/Project2/BearPi_LiteOS/components/connectivity/lwm2m/core\registration.c ****         lwm2m_free(payload);
 420:C:/Users/lenovo/Desktop/liteos/Project2/BearPi_LiteOS/components/connectivity/lwm2m/core\registration.c ****     }
 421:C:/Users/lenovo/Desktop/liteos/Project2/BearPi_LiteOS/components/connectivity/lwm2m/core\registration.c **** 
 422:C:/Users/lenovo/Desktop/liteos/Project2/BearPi_LiteOS/components/connectivity/lwm2m/core\registration.c ****     return COAP_NO_ERROR;
 423:C:/Users/lenovo/Desktop/liteos/Project2/BearPi_LiteOS/components/connectivity/lwm2m/core\registration.c **** }
 424:C:/Users/lenovo/Desktop/liteos/Project2/BearPi_LiteOS/components/connectivity/lwm2m/core\registration.c **** 
 425:C:/Users/lenovo/Desktop/liteos/Project2/BearPi_LiteOS/components/connectivity/lwm2m/core\registration.c **** // update the registration of a given server
 426:C:/Users/lenovo/Desktop/liteos/Project2/BearPi_LiteOS/components/connectivity/lwm2m/core\registration.c **** int lwm2m_update_registration(lwm2m_context_t *contextP,
 427:C:/Users/lenovo/Desktop/liteos/Project2/BearPi_LiteOS/components/connectivity/lwm2m/core\registration.c ****                               uint16_t shortServerID,
 428:C:/Users/lenovo/Desktop/liteos/Project2/BearPi_LiteOS/components/connectivity/lwm2m/core\registration.c ****                               bool withObjects)
 429:C:/Users/lenovo/Desktop/liteos/Project2/BearPi_LiteOS/components/connectivity/lwm2m/core\registration.c **** {
 430:C:/Users/lenovo/Desktop/liteos/Project2/BearPi_LiteOS/components/connectivity/lwm2m/core\registration.c ****     lwm2m_server_t *targetP;
 431:C:/Users/lenovo/Desktop/liteos/Project2/BearPi_LiteOS/components/connectivity/lwm2m/core\registration.c ****     uint8_t result;
ARM GAS  c:\Users\lenovo\AppData\Local\Temp\ccyoZgCp.s 			page 9


 432:C:/Users/lenovo/Desktop/liteos/Project2/BearPi_LiteOS/components/connectivity/lwm2m/core\registration.c **** 
 433:C:/Users/lenovo/Desktop/liteos/Project2/BearPi_LiteOS/components/connectivity/lwm2m/core\registration.c ****     LOG_ARG("State: %s, shortServerID: %d", STR_STATE(contextP->state), shortServerID);
 434:C:/Users/lenovo/Desktop/liteos/Project2/BearPi_LiteOS/components/connectivity/lwm2m/core\registration.c **** 
 435:C:/Users/lenovo/Desktop/liteos/Project2/BearPi_LiteOS/components/connectivity/lwm2m/core\registration.c ****     result = COAP_NO_ERROR;
 436:C:/Users/lenovo/Desktop/liteos/Project2/BearPi_LiteOS/components/connectivity/lwm2m/core\registration.c **** 
 437:C:/Users/lenovo/Desktop/liteos/Project2/BearPi_LiteOS/components/connectivity/lwm2m/core\registration.c ****     targetP = contextP->serverList;
 438:C:/Users/lenovo/Desktop/liteos/Project2/BearPi_LiteOS/components/connectivity/lwm2m/core\registration.c ****     if (targetP == NULL)
 439:C:/Users/lenovo/Desktop/liteos/Project2/BearPi_LiteOS/components/connectivity/lwm2m/core\registration.c ****     {
 440:C:/Users/lenovo/Desktop/liteos/Project2/BearPi_LiteOS/components/connectivity/lwm2m/core\registration.c ****         if (object_getServers(contextP, false) == -1)
 441:C:/Users/lenovo/Desktop/liteos/Project2/BearPi_LiteOS/components/connectivity/lwm2m/core\registration.c ****         {
 442:C:/Users/lenovo/Desktop/liteos/Project2/BearPi_LiteOS/components/connectivity/lwm2m/core\registration.c ****             LOG("No server found");
 443:C:/Users/lenovo/Desktop/liteos/Project2/BearPi_LiteOS/components/connectivity/lwm2m/core\registration.c ****             return COAP_404_NOT_FOUND;
 444:C:/Users/lenovo/Desktop/liteos/Project2/BearPi_LiteOS/components/connectivity/lwm2m/core\registration.c ****         }
 445:C:/Users/lenovo/Desktop/liteos/Project2/BearPi_LiteOS/components/connectivity/lwm2m/core\registration.c ****     }
 446:C:/Users/lenovo/Desktop/liteos/Project2/BearPi_LiteOS/components/connectivity/lwm2m/core\registration.c ****     while (targetP != NULL && result == COAP_NO_ERROR)
 447:C:/Users/lenovo/Desktop/liteos/Project2/BearPi_LiteOS/components/connectivity/lwm2m/core\registration.c ****     {
 448:C:/Users/lenovo/Desktop/liteos/Project2/BearPi_LiteOS/components/connectivity/lwm2m/core\registration.c ****         if (shortServerID != 0)
 449:C:/Users/lenovo/Desktop/liteos/Project2/BearPi_LiteOS/components/connectivity/lwm2m/core\registration.c ****         {
 450:C:/Users/lenovo/Desktop/liteos/Project2/BearPi_LiteOS/components/connectivity/lwm2m/core\registration.c ****             if (targetP->shortID == shortServerID)
 451:C:/Users/lenovo/Desktop/liteos/Project2/BearPi_LiteOS/components/connectivity/lwm2m/core\registration.c ****             {
 452:C:/Users/lenovo/Desktop/liteos/Project2/BearPi_LiteOS/components/connectivity/lwm2m/core\registration.c ****                 // found the server, trigger the update transaction
 453:C:/Users/lenovo/Desktop/liteos/Project2/BearPi_LiteOS/components/connectivity/lwm2m/core\registration.c ****                 if (targetP->status == STATE_REGISTERED
 454:C:/Users/lenovo/Desktop/liteos/Project2/BearPi_LiteOS/components/connectivity/lwm2m/core\registration.c ****                         || targetP->status == STATE_REG_UPDATE_PENDING)
 455:C:/Users/lenovo/Desktop/liteos/Project2/BearPi_LiteOS/components/connectivity/lwm2m/core\registration.c ****                 {
 456:C:/Users/lenovo/Desktop/liteos/Project2/BearPi_LiteOS/components/connectivity/lwm2m/core\registration.c ****                     if (withObjects == true)
 457:C:/Users/lenovo/Desktop/liteos/Project2/BearPi_LiteOS/components/connectivity/lwm2m/core\registration.c ****                     {
 458:C:/Users/lenovo/Desktop/liteos/Project2/BearPi_LiteOS/components/connectivity/lwm2m/core\registration.c ****                         targetP->status = STATE_REG_FULL_UPDATE_NEEDED;
 459:C:/Users/lenovo/Desktop/liteos/Project2/BearPi_LiteOS/components/connectivity/lwm2m/core\registration.c ****                     }
 460:C:/Users/lenovo/Desktop/liteos/Project2/BearPi_LiteOS/components/connectivity/lwm2m/core\registration.c ****                     else
 461:C:/Users/lenovo/Desktop/liteos/Project2/BearPi_LiteOS/components/connectivity/lwm2m/core\registration.c ****                     {
 462:C:/Users/lenovo/Desktop/liteos/Project2/BearPi_LiteOS/components/connectivity/lwm2m/core\registration.c ****                         targetP->status = STATE_REG_UPDATE_NEEDED;
 463:C:/Users/lenovo/Desktop/liteos/Project2/BearPi_LiteOS/components/connectivity/lwm2m/core\registration.c ****                     }
 464:C:/Users/lenovo/Desktop/liteos/Project2/BearPi_LiteOS/components/connectivity/lwm2m/core\registration.c ****                     return COAP_NO_ERROR;
 465:C:/Users/lenovo/Desktop/liteos/Project2/BearPi_LiteOS/components/connectivity/lwm2m/core\registration.c ****                 }
 466:C:/Users/lenovo/Desktop/liteos/Project2/BearPi_LiteOS/components/connectivity/lwm2m/core\registration.c ****                 else if ((targetP->status == STATE_REG_FULL_UPDATE_NEEDED)
 467:C:/Users/lenovo/Desktop/liteos/Project2/BearPi_LiteOS/components/connectivity/lwm2m/core\registration.c ****                          || (targetP->status == STATE_REG_UPDATE_NEEDED))
 468:C:/Users/lenovo/Desktop/liteos/Project2/BearPi_LiteOS/components/connectivity/lwm2m/core\registration.c ****                 {
 469:C:/Users/lenovo/Desktop/liteos/Project2/BearPi_LiteOS/components/connectivity/lwm2m/core\registration.c ****                     // if REG (FULL) UPDATE is already set, returns COAP_NO_ERROR
 470:C:/Users/lenovo/Desktop/liteos/Project2/BearPi_LiteOS/components/connectivity/lwm2m/core\registration.c ****                     if (withObjects == true)
 471:C:/Users/lenovo/Desktop/liteos/Project2/BearPi_LiteOS/components/connectivity/lwm2m/core\registration.c ****                     {
 472:C:/Users/lenovo/Desktop/liteos/Project2/BearPi_LiteOS/components/connectivity/lwm2m/core\registration.c ****                         targetP->status = STATE_REG_FULL_UPDATE_NEEDED;
 473:C:/Users/lenovo/Desktop/liteos/Project2/BearPi_LiteOS/components/connectivity/lwm2m/core\registration.c ****                     }
 474:C:/Users/lenovo/Desktop/liteos/Project2/BearPi_LiteOS/components/connectivity/lwm2m/core\registration.c ****                     return COAP_NO_ERROR;
 475:C:/Users/lenovo/Desktop/liteos/Project2/BearPi_LiteOS/components/connectivity/lwm2m/core\registration.c ****                 }
 476:C:/Users/lenovo/Desktop/liteos/Project2/BearPi_LiteOS/components/connectivity/lwm2m/core\registration.c ****                 else
 477:C:/Users/lenovo/Desktop/liteos/Project2/BearPi_LiteOS/components/connectivity/lwm2m/core\registration.c ****                 {
 478:C:/Users/lenovo/Desktop/liteos/Project2/BearPi_LiteOS/components/connectivity/lwm2m/core\registration.c ****                     return COAP_400_BAD_REQUEST;
 479:C:/Users/lenovo/Desktop/liteos/Project2/BearPi_LiteOS/components/connectivity/lwm2m/core\registration.c ****                 }
 480:C:/Users/lenovo/Desktop/liteos/Project2/BearPi_LiteOS/components/connectivity/lwm2m/core\registration.c ****             }
 481:C:/Users/lenovo/Desktop/liteos/Project2/BearPi_LiteOS/components/connectivity/lwm2m/core\registration.c ****         }
 482:C:/Users/lenovo/Desktop/liteos/Project2/BearPi_LiteOS/components/connectivity/lwm2m/core\registration.c ****         else
 483:C:/Users/lenovo/Desktop/liteos/Project2/BearPi_LiteOS/components/connectivity/lwm2m/core\registration.c ****         {
 484:C:/Users/lenovo/Desktop/liteos/Project2/BearPi_LiteOS/components/connectivity/lwm2m/core\registration.c ****             if (targetP->status == STATE_REGISTERED
 485:C:/Users/lenovo/Desktop/liteos/Project2/BearPi_LiteOS/components/connectivity/lwm2m/core\registration.c ****                     || targetP->status == STATE_REG_UPDATE_PENDING)
 486:C:/Users/lenovo/Desktop/liteos/Project2/BearPi_LiteOS/components/connectivity/lwm2m/core\registration.c ****             {
 487:C:/Users/lenovo/Desktop/liteos/Project2/BearPi_LiteOS/components/connectivity/lwm2m/core\registration.c ****                 if (withObjects == true)
 488:C:/Users/lenovo/Desktop/liteos/Project2/BearPi_LiteOS/components/connectivity/lwm2m/core\registration.c ****                 {
ARM GAS  c:\Users\lenovo\AppData\Local\Temp\ccyoZgCp.s 			page 10


 489:C:/Users/lenovo/Desktop/liteos/Project2/BearPi_LiteOS/components/connectivity/lwm2m/core\registration.c ****                     targetP->status = STATE_REG_FULL_UPDATE_NEEDED;
 490:C:/Users/lenovo/Desktop/liteos/Project2/BearPi_LiteOS/components/connectivity/lwm2m/core\registration.c ****                 }
 491:C:/Users/lenovo/Desktop/liteos/Project2/BearPi_LiteOS/components/connectivity/lwm2m/core\registration.c ****                 else
 492:C:/Users/lenovo/Desktop/liteos/Project2/BearPi_LiteOS/components/connectivity/lwm2m/core\registration.c ****                 {
 493:C:/Users/lenovo/Desktop/liteos/Project2/BearPi_LiteOS/components/connectivity/lwm2m/core\registration.c ****                     targetP->status = STATE_REG_UPDATE_NEEDED;
 494:C:/Users/lenovo/Desktop/liteos/Project2/BearPi_LiteOS/components/connectivity/lwm2m/core\registration.c ****                 }
 495:C:/Users/lenovo/Desktop/liteos/Project2/BearPi_LiteOS/components/connectivity/lwm2m/core\registration.c ****             }
 496:C:/Users/lenovo/Desktop/liteos/Project2/BearPi_LiteOS/components/connectivity/lwm2m/core\registration.c ****         }
 497:C:/Users/lenovo/Desktop/liteos/Project2/BearPi_LiteOS/components/connectivity/lwm2m/core\registration.c ****         targetP = targetP->next;
 498:C:/Users/lenovo/Desktop/liteos/Project2/BearPi_LiteOS/components/connectivity/lwm2m/core\registration.c ****     }
 499:C:/Users/lenovo/Desktop/liteos/Project2/BearPi_LiteOS/components/connectivity/lwm2m/core\registration.c **** 
 500:C:/Users/lenovo/Desktop/liteos/Project2/BearPi_LiteOS/components/connectivity/lwm2m/core\registration.c ****     if (shortServerID != 0
 501:C:/Users/lenovo/Desktop/liteos/Project2/BearPi_LiteOS/components/connectivity/lwm2m/core\registration.c ****             && targetP == NULL)
 502:C:/Users/lenovo/Desktop/liteos/Project2/BearPi_LiteOS/components/connectivity/lwm2m/core\registration.c ****     {
 503:C:/Users/lenovo/Desktop/liteos/Project2/BearPi_LiteOS/components/connectivity/lwm2m/core\registration.c ****         // no server found
 504:C:/Users/lenovo/Desktop/liteos/Project2/BearPi_LiteOS/components/connectivity/lwm2m/core\registration.c ****         result = COAP_404_NOT_FOUND;
 505:C:/Users/lenovo/Desktop/liteos/Project2/BearPi_LiteOS/components/connectivity/lwm2m/core\registration.c ****     }
 506:C:/Users/lenovo/Desktop/liteos/Project2/BearPi_LiteOS/components/connectivity/lwm2m/core\registration.c **** 
 507:C:/Users/lenovo/Desktop/liteos/Project2/BearPi_LiteOS/components/connectivity/lwm2m/core\registration.c ****     return result;
 508:C:/Users/lenovo/Desktop/liteos/Project2/BearPi_LiteOS/components/connectivity/lwm2m/core\registration.c **** }
 509:C:/Users/lenovo/Desktop/liteos/Project2/BearPi_LiteOS/components/connectivity/lwm2m/core\registration.c **** //serverlistobjectlist
 510:C:/Users/lenovo/Desktop/liteos/Project2/BearPi_LiteOS/components/connectivity/lwm2m/core\registration.c **** uint8_t registration_start(lwm2m_context_t *contextP)
 511:C:/Users/lenovo/Desktop/liteos/Project2/BearPi_LiteOS/components/connectivity/lwm2m/core\registration.c **** {
 512:C:/Users/lenovo/Desktop/liteos/Project2/BearPi_LiteOS/components/connectivity/lwm2m/core\registration.c ****     lwm2m_server_t *targetP;
 513:C:/Users/lenovo/Desktop/liteos/Project2/BearPi_LiteOS/components/connectivity/lwm2m/core\registration.c ****     uint8_t result;
 514:C:/Users/lenovo/Desktop/liteos/Project2/BearPi_LiteOS/components/connectivity/lwm2m/core\registration.c **** 
 515:C:/Users/lenovo/Desktop/liteos/Project2/BearPi_LiteOS/components/connectivity/lwm2m/core\registration.c ****     LOG_ARG("State: %s", STR_STATE(contextP->state));
 516:C:/Users/lenovo/Desktop/liteos/Project2/BearPi_LiteOS/components/connectivity/lwm2m/core\registration.c **** 
 517:C:/Users/lenovo/Desktop/liteos/Project2/BearPi_LiteOS/components/connectivity/lwm2m/core\registration.c ****     result = COAP_NO_ERROR;
 518:C:/Users/lenovo/Desktop/liteos/Project2/BearPi_LiteOS/components/connectivity/lwm2m/core\registration.c **** 
 519:C:/Users/lenovo/Desktop/liteos/Project2/BearPi_LiteOS/components/connectivity/lwm2m/core\registration.c ****     targetP = contextP->serverList;
 520:C:/Users/lenovo/Desktop/liteos/Project2/BearPi_LiteOS/components/connectivity/lwm2m/core\registration.c ****     while (targetP != NULL && result == COAP_NO_ERROR)
 521:C:/Users/lenovo/Desktop/liteos/Project2/BearPi_LiteOS/components/connectivity/lwm2m/core\registration.c ****     {
 522:C:/Users/lenovo/Desktop/liteos/Project2/BearPi_LiteOS/components/connectivity/lwm2m/core\registration.c ****         if (targetP->status == STATE_DEREGISTERED
 523:C:/Users/lenovo/Desktop/liteos/Project2/BearPi_LiteOS/components/connectivity/lwm2m/core\registration.c ****                 || targetP->status == STATE_REG_FAILED)
 524:C:/Users/lenovo/Desktop/liteos/Project2/BearPi_LiteOS/components/connectivity/lwm2m/core\registration.c ****         {
 525:C:/Users/lenovo/Desktop/liteos/Project2/BearPi_LiteOS/components/connectivity/lwm2m/core\registration.c ****             result = prv_register(contextP, targetP);
 526:C:/Users/lenovo/Desktop/liteos/Project2/BearPi_LiteOS/components/connectivity/lwm2m/core\registration.c ****         }
 527:C:/Users/lenovo/Desktop/liteos/Project2/BearPi_LiteOS/components/connectivity/lwm2m/core\registration.c ****         targetP = targetP->next;
 528:C:/Users/lenovo/Desktop/liteos/Project2/BearPi_LiteOS/components/connectivity/lwm2m/core\registration.c ****     }
 529:C:/Users/lenovo/Desktop/liteos/Project2/BearPi_LiteOS/components/connectivity/lwm2m/core\registration.c **** 
 530:C:/Users/lenovo/Desktop/liteos/Project2/BearPi_LiteOS/components/connectivity/lwm2m/core\registration.c ****     return result;
 531:C:/Users/lenovo/Desktop/liteos/Project2/BearPi_LiteOS/components/connectivity/lwm2m/core\registration.c **** }
 532:C:/Users/lenovo/Desktop/liteos/Project2/BearPi_LiteOS/components/connectivity/lwm2m/core\registration.c **** 
 533:C:/Users/lenovo/Desktop/liteos/Project2/BearPi_LiteOS/components/connectivity/lwm2m/core\registration.c **** 
 534:C:/Users/lenovo/Desktop/liteos/Project2/BearPi_LiteOS/components/connectivity/lwm2m/core\registration.c **** /*
 535:C:/Users/lenovo/Desktop/liteos/Project2/BearPi_LiteOS/components/connectivity/lwm2m/core\registration.c ****  * Returns STATE_REG_PENDING if at least one registration is still pending
 536:C:/Users/lenovo/Desktop/liteos/Project2/BearPi_LiteOS/components/connectivity/lwm2m/core\registration.c ****  * Returns STATE_REGISTERED if no registration is pending and there is at least one server the clie
 537:C:/Users/lenovo/Desktop/liteos/Project2/BearPi_LiteOS/components/connectivity/lwm2m/core\registration.c ****  * Returns STATE_REG_FAILED if all registration failed.
 538:C:/Users/lenovo/Desktop/liteos/Project2/BearPi_LiteOS/components/connectivity/lwm2m/core\registration.c ****  */
 539:C:/Users/lenovo/Desktop/liteos/Project2/BearPi_LiteOS/components/connectivity/lwm2m/core\registration.c **** lwm2m_status_t registration_getStatus(lwm2m_context_t *contextP)
 540:C:/Users/lenovo/Desktop/liteos/Project2/BearPi_LiteOS/components/connectivity/lwm2m/core\registration.c **** {
 541:C:/Users/lenovo/Desktop/liteos/Project2/BearPi_LiteOS/components/connectivity/lwm2m/core\registration.c ****     lwm2m_server_t *targetP;
 542:C:/Users/lenovo/Desktop/liteos/Project2/BearPi_LiteOS/components/connectivity/lwm2m/core\registration.c ****     lwm2m_status_t reg_status;
 543:C:/Users/lenovo/Desktop/liteos/Project2/BearPi_LiteOS/components/connectivity/lwm2m/core\registration.c **** 
 544:C:/Users/lenovo/Desktop/liteos/Project2/BearPi_LiteOS/components/connectivity/lwm2m/core\registration.c ****     LOG_ARG("State: %s", STR_STATE(contextP->state));
 545:C:/Users/lenovo/Desktop/liteos/Project2/BearPi_LiteOS/components/connectivity/lwm2m/core\registration.c **** 
ARM GAS  c:\Users\lenovo\AppData\Local\Temp\ccyoZgCp.s 			page 11


 546:C:/Users/lenovo/Desktop/liteos/Project2/BearPi_LiteOS/components/connectivity/lwm2m/core\registration.c ****     targetP = contextP->serverList;
 547:C:/Users/lenovo/Desktop/liteos/Project2/BearPi_LiteOS/components/connectivity/lwm2m/core\registration.c ****     reg_status = STATE_REG_FAILED;
 548:C:/Users/lenovo/Desktop/liteos/Project2/BearPi_LiteOS/components/connectivity/lwm2m/core\registration.c **** 
 549:C:/Users/lenovo/Desktop/liteos/Project2/BearPi_LiteOS/components/connectivity/lwm2m/core\registration.c ****     while (targetP != NULL)
 550:C:/Users/lenovo/Desktop/liteos/Project2/BearPi_LiteOS/components/connectivity/lwm2m/core\registration.c ****     {
 551:C:/Users/lenovo/Desktop/liteos/Project2/BearPi_LiteOS/components/connectivity/lwm2m/core\registration.c ****         LOG_ARG("targetP->status: %s", STR_STATUS(targetP->status));
 552:C:/Users/lenovo/Desktop/liteos/Project2/BearPi_LiteOS/components/connectivity/lwm2m/core\registration.c ****         switch (targetP->status)
 553:C:/Users/lenovo/Desktop/liteos/Project2/BearPi_LiteOS/components/connectivity/lwm2m/core\registration.c ****         {
 554:C:/Users/lenovo/Desktop/liteos/Project2/BearPi_LiteOS/components/connectivity/lwm2m/core\registration.c ****         case STATE_REGISTERED:
 555:C:/Users/lenovo/Desktop/liteos/Project2/BearPi_LiteOS/components/connectivity/lwm2m/core\registration.c ****         case STATE_REG_UPDATE_NEEDED:
 556:C:/Users/lenovo/Desktop/liteos/Project2/BearPi_LiteOS/components/connectivity/lwm2m/core\registration.c ****         case STATE_REG_FULL_UPDATE_NEEDED:
 557:C:/Users/lenovo/Desktop/liteos/Project2/BearPi_LiteOS/components/connectivity/lwm2m/core\registration.c ****         case STATE_REG_UPDATE_PENDING:
 558:C:/Users/lenovo/Desktop/liteos/Project2/BearPi_LiteOS/components/connectivity/lwm2m/core\registration.c ****             if (reg_status == STATE_REG_FAILED)
 559:C:/Users/lenovo/Desktop/liteos/Project2/BearPi_LiteOS/components/connectivity/lwm2m/core\registration.c ****             {
 560:C:/Users/lenovo/Desktop/liteos/Project2/BearPi_LiteOS/components/connectivity/lwm2m/core\registration.c ****                 reg_status = STATE_REGISTERED;
 561:C:/Users/lenovo/Desktop/liteos/Project2/BearPi_LiteOS/components/connectivity/lwm2m/core\registration.c ****             }
 562:C:/Users/lenovo/Desktop/liteos/Project2/BearPi_LiteOS/components/connectivity/lwm2m/core\registration.c ****             break;
 563:C:/Users/lenovo/Desktop/liteos/Project2/BearPi_LiteOS/components/connectivity/lwm2m/core\registration.c **** 
 564:C:/Users/lenovo/Desktop/liteos/Project2/BearPi_LiteOS/components/connectivity/lwm2m/core\registration.c ****         case STATE_REG_PENDING:
 565:C:/Users/lenovo/Desktop/liteos/Project2/BearPi_LiteOS/components/connectivity/lwm2m/core\registration.c ****             reg_status = STATE_REG_PENDING;
 566:C:/Users/lenovo/Desktop/liteos/Project2/BearPi_LiteOS/components/connectivity/lwm2m/core\registration.c ****             break;
 567:C:/Users/lenovo/Desktop/liteos/Project2/BearPi_LiteOS/components/connectivity/lwm2m/core\registration.c **** 
 568:C:/Users/lenovo/Desktop/liteos/Project2/BearPi_LiteOS/components/connectivity/lwm2m/core\registration.c ****         case STATE_REG_FAILED:
 569:C:/Users/lenovo/Desktop/liteos/Project2/BearPi_LiteOS/components/connectivity/lwm2m/core\registration.c ****         case STATE_DEREG_PENDING:
 570:C:/Users/lenovo/Desktop/liteos/Project2/BearPi_LiteOS/components/connectivity/lwm2m/core\registration.c ****         case STATE_DEREGISTERED:
 571:C:/Users/lenovo/Desktop/liteos/Project2/BearPi_LiteOS/components/connectivity/lwm2m/core\registration.c ****         default:
 572:C:/Users/lenovo/Desktop/liteos/Project2/BearPi_LiteOS/components/connectivity/lwm2m/core\registration.c ****             break;
 573:C:/Users/lenovo/Desktop/liteos/Project2/BearPi_LiteOS/components/connectivity/lwm2m/core\registration.c ****         }
 574:C:/Users/lenovo/Desktop/liteos/Project2/BearPi_LiteOS/components/connectivity/lwm2m/core\registration.c ****         LOG_ARG("reg_status: %s", STR_STATUS(reg_status));
 575:C:/Users/lenovo/Desktop/liteos/Project2/BearPi_LiteOS/components/connectivity/lwm2m/core\registration.c **** 
 576:C:/Users/lenovo/Desktop/liteos/Project2/BearPi_LiteOS/components/connectivity/lwm2m/core\registration.c ****         targetP = targetP->next;
 577:C:/Users/lenovo/Desktop/liteos/Project2/BearPi_LiteOS/components/connectivity/lwm2m/core\registration.c ****     }
 578:C:/Users/lenovo/Desktop/liteos/Project2/BearPi_LiteOS/components/connectivity/lwm2m/core\registration.c **** 
 579:C:/Users/lenovo/Desktop/liteos/Project2/BearPi_LiteOS/components/connectivity/lwm2m/core\registration.c ****     return reg_status;
 580:C:/Users/lenovo/Desktop/liteos/Project2/BearPi_LiteOS/components/connectivity/lwm2m/core\registration.c **** }
 581:C:/Users/lenovo/Desktop/liteos/Project2/BearPi_LiteOS/components/connectivity/lwm2m/core\registration.c **** 
 582:C:/Users/lenovo/Desktop/liteos/Project2/BearPi_LiteOS/components/connectivity/lwm2m/core\registration.c **** static void prv_handleDeregistrationReply(lwm2m_transaction_t *transacP,
 583:C:/Users/lenovo/Desktop/liteos/Project2/BearPi_LiteOS/components/connectivity/lwm2m/core\registration.c ****         void *message)
 584:C:/Users/lenovo/Desktop/liteos/Project2/BearPi_LiteOS/components/connectivity/lwm2m/core\registration.c **** {
  27              		.loc 1 584 0
  28              		.cfi_startproc
  29              		@ args = 0, pretend = 0, frame = 0
  30              		@ frame_needed = 0, uses_anonymous_args = 0
  31              		@ link register save eliminated.
  32              	.LVL0:
 585:C:/Users/lenovo/Desktop/liteos/Project2/BearPi_LiteOS/components/connectivity/lwm2m/core\registration.c ****     lwm2m_server_t *targetP;
 586:C:/Users/lenovo/Desktop/liteos/Project2/BearPi_LiteOS/components/connectivity/lwm2m/core\registration.c **** 
 587:C:/Users/lenovo/Desktop/liteos/Project2/BearPi_LiteOS/components/connectivity/lwm2m/core\registration.c ****     targetP = (lwm2m_server_t *)(transacP->userData);
  33              		.loc 1 587 0
  34 0000 436C     		ldr	r3, [r0, #68]
  35              	.LVL1:
 588:C:/Users/lenovo/Desktop/liteos/Project2/BearPi_LiteOS/components/connectivity/lwm2m/core\registration.c ****     if (NULL != targetP)
  36              		.loc 1 588 0
  37 0002 1BB1     		cbz	r3, .L1
 589:C:/Users/lenovo/Desktop/liteos/Project2/BearPi_LiteOS/components/connectivity/lwm2m/core\registration.c ****     {
 590:C:/Users/lenovo/Desktop/liteos/Project2/BearPi_LiteOS/components/connectivity/lwm2m/core\registration.c ****         if (targetP->status == STATE_DEREG_PENDING)
  38              		.loc 1 590 0
ARM GAS  c:\Users\lenovo\AppData\Local\Temp\ccyoZgCp.s 			page 12


  39 0004 93F82020 		ldrb	r2, [r3, #32]	@ zero_extendqisi2
  40 0008 072A     		cmp	r2, #7
  41 000a 00D0     		beq	.L3
  42              	.L1:
 591:C:/Users/lenovo/Desktop/liteos/Project2/BearPi_LiteOS/components/connectivity/lwm2m/core\registration.c ****         {
 592:C:/Users/lenovo/Desktop/liteos/Project2/BearPi_LiteOS/components/connectivity/lwm2m/core\registration.c ****             targetP->status = STATE_DEREGISTERED;
 593:C:/Users/lenovo/Desktop/liteos/Project2/BearPi_LiteOS/components/connectivity/lwm2m/core\registration.c ****         }
 594:C:/Users/lenovo/Desktop/liteos/Project2/BearPi_LiteOS/components/connectivity/lwm2m/core\registration.c ****     }
 595:C:/Users/lenovo/Desktop/liteos/Project2/BearPi_LiteOS/components/connectivity/lwm2m/core\registration.c **** }
  43              		.loc 1 595 0
  44 000c 7047     		bx	lr
  45              	.L3:
 592:C:/Users/lenovo/Desktop/liteos/Project2/BearPi_LiteOS/components/connectivity/lwm2m/core\registration.c ****         }
  46              		.loc 1 592 0
  47 000e 0022     		movs	r2, #0
  48 0010 83F82020 		strb	r2, [r3, #32]
  49              		.loc 1 595 0
  50 0014 FAE7     		b	.L1
  51              		.cfi_endproc
  52              	.LFE143:
  54              		.section	.text.prv_handleRegistrationUpdateReply,"ax",%progbits
  55              		.align	1
  56              		.syntax unified
  57              		.thumb
  58              		.thumb_func
  59              		.fpu fpv4-sp-d16
  61              	prv_handleRegistrationUpdateReply:
  62              	.LFB138:
 344:C:/Users/lenovo/Desktop/liteos/Project2/BearPi_LiteOS/components/connectivity/lwm2m/core\registration.c ****     coap_packet_t *packet = (coap_packet_t *)message;
  63              		.loc 1 344 0
  64              		.cfi_startproc
  65              		@ args = 0, pretend = 0, frame = 0
  66              		@ frame_needed = 0, uses_anonymous_args = 0
  67              	.LVL2:
  68 0000 38B5     		push	{r3, r4, r5, lr}
  69              	.LCFI0:
  70              		.cfi_def_cfa_offset 16
  71              		.cfi_offset 3, -16
  72              		.cfi_offset 4, -12
  73              		.cfi_offset 5, -8
  74              		.cfi_offset 14, -4
  75              	.LVL3:
 346:C:/Users/lenovo/Desktop/liteos/Project2/BearPi_LiteOS/components/connectivity/lwm2m/core\registration.c **** 
  76              		.loc 1 346 0
  77 0002 446C     		ldr	r4, [r0, #68]
  78              	.LVL4:
 348:C:/Users/lenovo/Desktop/liteos/Project2/BearPi_LiteOS/components/connectivity/lwm2m/core\registration.c ****     {
  79              		.loc 1 348 0
  80 0004 94F82030 		ldrb	r3, [r4, #32]	@ zero_extendqisi2
  81 0008 042B     		cmp	r3, #4
  82 000a 00D0     		beq	.L9
  83              	.LVL5:
  84              	.L4:
 366:C:/Users/lenovo/Desktop/liteos/Project2/BearPi_LiteOS/components/connectivity/lwm2m/core\registration.c **** 
  85              		.loc 1 366 0
  86 000c 38BD     		pop	{r3, r4, r5, pc}
  87              	.LVL6:
ARM GAS  c:\Users\lenovo\AppData\Local\Temp\ccyoZgCp.s 			page 13


  88              	.L9:
  89 000e 0D46     		mov	r5, r1
  90              	.LBB2:
 350:C:/Users/lenovo/Desktop/liteos/Project2/BearPi_LiteOS/components/connectivity/lwm2m/core\registration.c ****         if (tv_sec )
  91              		.loc 1 350 0
  92 0010 FFF7FEFF 		bl	lwm2m_gettime
  93              	.LVL7:
 351:C:/Users/lenovo/Desktop/liteos/Project2/BearPi_LiteOS/components/connectivity/lwm2m/core\registration.c ****         {
  94              		.loc 1 351 0
  95 0014 50EA0103 		orrs	r3, r0, r1
  96 0018 01D0     		beq	.L6
 353:C:/Users/lenovo/Desktop/liteos/Project2/BearPi_LiteOS/components/connectivity/lwm2m/core\registration.c ****         }
  97              		.loc 1 353 0
  98 001a C4E90401 		strd	r0, [r4, #16]
  99              	.L6:
 355:C:/Users/lenovo/Desktop/liteos/Project2/BearPi_LiteOS/components/connectivity/lwm2m/core\registration.c ****         {
 100              		.loc 1 355 0
 101 001e 15B1     		cbz	r5, .L7
 355:C:/Users/lenovo/Desktop/liteos/Project2/BearPi_LiteOS/components/connectivity/lwm2m/core\registration.c ****         {
 102              		.loc 1 355 0 is_stmt 0 discriminator 1
 103 0020 AB79     		ldrb	r3, [r5, #6]	@ zero_extendqisi2
 104 0022 442B     		cmp	r3, #68
 105 0024 0CD0     		beq	.L10
 106              	.L7:
 362:C:/Users/lenovo/Desktop/liteos/Project2/BearPi_LiteOS/components/connectivity/lwm2m/core\registration.c ****             LOG("Registration update failed");
 107              		.loc 1 362 0 is_stmt 1
 108 0026 0323     		movs	r3, #3
 109 0028 84F82030 		strb	r3, [r4, #32]
 363:C:/Users/lenovo/Desktop/liteos/Project2/BearPi_LiteOS/components/connectivity/lwm2m/core\registration.c ****         }
 110              		.loc 1 363 0
 111 002c FFF7FEFF 		bl	lwm2m_gettime
 112              	.LVL8:
 113 0030 40F26B13 		movw	r3, #363
 114 0034 094A     		ldr	r2, .L11
 115 0036 0146     		mov	r1, r0
 116 0038 0948     		ldr	r0, .L11+4
 117 003a FFF7FEFF 		bl	atiny_printf
 118              	.LVL9:
 119              	.LBE2:
 366:C:/Users/lenovo/Desktop/liteos/Project2/BearPi_LiteOS/components/connectivity/lwm2m/core\registration.c **** 
 120              		.loc 1 366 0
 121 003e E5E7     		b	.L4
 122              	.LVL10:
 123              	.L10:
 124              	.LBB3:
 357:C:/Users/lenovo/Desktop/liteos/Project2/BearPi_LiteOS/components/connectivity/lwm2m/core\registration.c ****             LOG("Registration update successful");
 125              		.loc 1 357 0
 126 0040 0223     		movs	r3, #2
 127 0042 84F82030 		strb	r3, [r4, #32]
 358:C:/Users/lenovo/Desktop/liteos/Project2/BearPi_LiteOS/components/connectivity/lwm2m/core\registration.c ****         }
 128              		.loc 1 358 0
 129 0046 FFF7FEFF 		bl	lwm2m_gettime
 130              	.LVL11:
 131 004a 4FF4B373 		mov	r3, #358
 132 004e 034A     		ldr	r2, .L11
 133 0050 0146     		mov	r1, r0
 134 0052 0448     		ldr	r0, .L11+8
ARM GAS  c:\Users\lenovo\AppData\Local\Temp\ccyoZgCp.s 			page 14


 135 0054 FFF7FEFF 		bl	atiny_printf
 136              	.LVL12:
 137 0058 D8E7     		b	.L4
 138              	.L12:
 139 005a 00BF     		.align	2
 140              	.L11:
 141 005c 00000000 		.word	.LANCHOR0
 142 0060 30000000 		.word	.LC1
 143 0064 00000000 		.word	.LC0
 144              	.LBE3:
 145              		.cfi_endproc
 146              	.LFE138:
 148              		.section	.text.prv_handleRegistrationReply,"ax",%progbits
 149              		.align	1
 150              		.syntax unified
 151              		.thumb
 152              		.thumb_func
 153              		.fpu fpv4-sp-d16
 155              	prv_handleRegistrationReply:
 156              	.LFB136:
 226:C:/Users/lenovo/Desktop/liteos/Project2/BearPi_LiteOS/components/connectivity/lwm2m/core\registration.c ****     coap_packet_t *packet = (coap_packet_t *)message;
 157              		.loc 1 226 0
 158              		.cfi_startproc
 159              		@ args = 0, pretend = 0, frame = 0
 160              		@ frame_needed = 0, uses_anonymous_args = 0
 161              	.LVL13:
 162 0000 38B5     		push	{r3, r4, r5, lr}
 163              	.LCFI1:
 164              		.cfi_def_cfa_offset 16
 165              		.cfi_offset 3, -16
 166              		.cfi_offset 4, -12
 167              		.cfi_offset 5, -8
 168              		.cfi_offset 14, -4
 169 0002 0D46     		mov	r5, r1
 170              	.LVL14:
 228:C:/Users/lenovo/Desktop/liteos/Project2/BearPi_LiteOS/components/connectivity/lwm2m/core\registration.c **** 
 171              		.loc 1 228 0
 172 0004 446C     		ldr	r4, [r0, #68]
 173              	.LVL15:
 230:C:/Users/lenovo/Desktop/liteos/Project2/BearPi_LiteOS/components/connectivity/lwm2m/core\registration.c ****     if (targetP->status == STATE_REG_PENDING)
 174              		.loc 1 230 0
 175 0006 FFF7FEFF 		bl	lwm2m_gettime
 176              	.LVL16:
 177 000a E623     		movs	r3, #230
 178 000c 1A4A     		ldr	r2, .L21
 179 000e 0146     		mov	r1, r0
 180 0010 1A48     		ldr	r0, .L21+4
 181 0012 FFF7FEFF 		bl	atiny_printf
 182              	.LVL17:
 231:C:/Users/lenovo/Desktop/liteos/Project2/BearPi_LiteOS/components/connectivity/lwm2m/core\registration.c ****     {
 183              		.loc 1 231 0
 184 0016 94F82030 		ldrb	r3, [r4, #32]	@ zero_extendqisi2
 185 001a 012B     		cmp	r3, #1
 186 001c 00D0     		beq	.L19
 187              	.L13:
 255:C:/Users/lenovo/Desktop/liteos/Project2/BearPi_LiteOS/components/connectivity/lwm2m/core\registration.c **** 
 188              		.loc 1 255 0
ARM GAS  c:\Users\lenovo\AppData\Local\Temp\ccyoZgCp.s 			page 15


 189 001e 38BD     		pop	{r3, r4, r5, pc}
 190              	.LVL18:
 191              	.L19:
 192              	.LBB4:
 233:C:/Users/lenovo/Desktop/liteos/Project2/BearPi_LiteOS/components/connectivity/lwm2m/core\registration.c ****         if (tv_sec)
 193              		.loc 1 233 0
 194 0020 FFF7FEFF 		bl	lwm2m_gettime
 195              	.LVL19:
 234:C:/Users/lenovo/Desktop/liteos/Project2/BearPi_LiteOS/components/connectivity/lwm2m/core\registration.c ****         {
 196              		.loc 1 234 0
 197 0024 50EA0103 		orrs	r3, r0, r1
 198 0028 01D0     		beq	.L15
 236:C:/Users/lenovo/Desktop/liteos/Project2/BearPi_LiteOS/components/connectivity/lwm2m/core\registration.c ****         }
 199              		.loc 1 236 0
 200 002a C4E90401 		strd	r0, [r4, #16]
 201              	.L15:
 238:C:/Users/lenovo/Desktop/liteos/Project2/BearPi_LiteOS/components/connectivity/lwm2m/core\registration.c ****         {
 202              		.loc 1 238 0
 203 002e 15B1     		cbz	r5, .L16
 238:C:/Users/lenovo/Desktop/liteos/Project2/BearPi_LiteOS/components/connectivity/lwm2m/core\registration.c ****         {
 204              		.loc 1 238 0 is_stmt 0 discriminator 1
 205 0030 AB79     		ldrb	r3, [r5, #6]	@ zero_extendqisi2
 206 0032 412B     		cmp	r3, #65
 207 0034 0BD0     		beq	.L20
 208              	.L16:
 251:C:/Users/lenovo/Desktop/liteos/Project2/BearPi_LiteOS/components/connectivity/lwm2m/core\registration.c ****             LOG("Registration failed");
 209              		.loc 1 251 0 is_stmt 1
 210 0036 0323     		movs	r3, #3
 211 0038 84F82030 		strb	r3, [r4, #32]
 252:C:/Users/lenovo/Desktop/liteos/Project2/BearPi_LiteOS/components/connectivity/lwm2m/core\registration.c ****         }
 212              		.loc 1 252 0
 213 003c FFF7FEFF 		bl	lwm2m_gettime
 214              	.LVL20:
 215 0040 FC23     		movs	r3, #252
 216 0042 0D4A     		ldr	r2, .L21
 217 0044 0146     		mov	r1, r0
 218 0046 0E48     		ldr	r0, .L21+8
 219 0048 FFF7FEFF 		bl	atiny_printf
 220              	.LVL21:
 221              	.LBE4:
 255:C:/Users/lenovo/Desktop/liteos/Project2/BearPi_LiteOS/components/connectivity/lwm2m/core\registration.c **** 
 222              		.loc 1 255 0
 223 004c E7E7     		b	.L13
 224              	.LVL22:
 225              	.L20:
 226              	.LBB5:
 240:C:/Users/lenovo/Desktop/liteos/Project2/BearPi_LiteOS/components/connectivity/lwm2m/core\registration.c ****             if (NULL != targetP->location)
 227              		.loc 1 240 0
 228 004e 0223     		movs	r3, #2
 229 0050 84F82030 		strb	r3, [r4, #32]
 241:C:/Users/lenovo/Desktop/liteos/Project2/BearPi_LiteOS/components/connectivity/lwm2m/core\registration.c ****             {
 230              		.loc 1 241 0
 231 0054 606A     		ldr	r0, [r4, #36]
 232              	.LVL23:
 233 0056 08B1     		cbz	r0, .L17
 243:C:/Users/lenovo/Desktop/liteos/Project2/BearPi_LiteOS/components/connectivity/lwm2m/core\registration.c ****             }
 234              		.loc 1 243 0
ARM GAS  c:\Users\lenovo\AppData\Local\Temp\ccyoZgCp.s 			page 16


 235 0058 FFF7FEFF 		bl	lwm2m_free
 236              	.LVL24:
 237              	.L17:
 245:C:/Users/lenovo/Desktop/liteos/Project2/BearPi_LiteOS/components/connectivity/lwm2m/core\registration.c **** 
 238              		.loc 1 245 0
 239 005c 686B     		ldr	r0, [r5, #52]
 240 005e FFF7FEFF 		bl	coap_get_multi_option_as_string
 241              	.LVL25:
 242 0062 6062     		str	r0, [r4, #36]
 247:C:/Users/lenovo/Desktop/liteos/Project2/BearPi_LiteOS/components/connectivity/lwm2m/core\registration.c ****         }
 243              		.loc 1 247 0
 244 0064 FFF7FEFF 		bl	lwm2m_gettime
 245              	.LVL26:
 246 0068 F723     		movs	r3, #247
 247 006a 034A     		ldr	r2, .L21
 248 006c 0146     		mov	r1, r0
 249 006e 0548     		ldr	r0, .L21+12
 250 0070 FFF7FEFF 		bl	atiny_printf
 251              	.LVL27:
 252 0074 D3E7     		b	.L13
 253              	.L22:
 254 0076 00BF     		.align	2
 255              	.L21:
 256 0078 00000000 		.word	.LANCHOR1
 257 007c 00000000 		.word	.LC2
 258 0080 60000000 		.word	.LC4
 259 0084 38000000 		.word	.LC3
 260              	.LBE5:
 261              		.cfi_endproc
 262              	.LFE136:
 264              		.section	.text.prv_getRegistrationQueryLength,"ax",%progbits
 265              		.align	1
 266              		.syntax unified
 267              		.thumb
 268              		.thumb_func
 269              		.fpu fpv4-sp-d16
 271              	prv_getRegistrationQueryLength:
 272              	.LFB134:
 103:C:/Users/lenovo/Desktop/liteos/Project2/BearPi_LiteOS/components/connectivity/lwm2m/core\registration.c ****     int index;
 273              		.loc 1 103 0
 274              		.cfi_startproc
 275              		@ args = 0, pretend = 0, frame = 24
 276              		@ frame_needed = 0, uses_anonymous_args = 0
 277              	.LVL28:
 278 0000 30B5     		push	{r4, r5, lr}
 279              	.LCFI2:
 280              		.cfi_def_cfa_offset 12
 281              		.cfi_offset 4, -12
 282              		.cfi_offset 5, -8
 283              		.cfi_offset 14, -4
 284 0002 87B0     		sub	sp, sp, #28
 285              	.LCFI3:
 286              		.cfi_def_cfa_offset 40
 287 0004 0446     		mov	r4, r0
 288 0006 0D46     		mov	r5, r1
 289              	.LVL29:
 109:C:/Users/lenovo/Desktop/liteos/Project2/BearPi_LiteOS/components/connectivity/lwm2m/core\registration.c **** 
ARM GAS  c:\Users\lenovo\AppData\Local\Temp\ccyoZgCp.s 			page 17


 290              		.loc 1 109 0
 291 0008 4068     		ldr	r0, [r0, #4]
 292              	.LVL30:
 293 000a FFF7FEFF 		bl	strlen
 294              	.LVL31:
 295 000e 00F10E03 		add	r3, r0, #14
 296              	.LVL32:
 111:C:/Users/lenovo/Desktop/liteos/Project2/BearPi_LiteOS/components/connectivity/lwm2m/core\registration.c ****     {
 297              		.loc 1 111 0
 298 0012 A268     		ldr	r2, [r4, #8]
 299 0014 2AB1     		cbz	r2, .L24
 113:C:/Users/lenovo/Desktop/liteos/Project2/BearPi_LiteOS/components/connectivity/lwm2m/core\registration.c ****         index += strlen(contextP->msisdn);
 300              		.loc 1 113 0
 301 0016 00F11304 		add	r4, r0, #19
 302              	.LVL33:
 114:C:/Users/lenovo/Desktop/liteos/Project2/BearPi_LiteOS/components/connectivity/lwm2m/core\registration.c ****     }
 303              		.loc 1 114 0
 304 001a 1046     		mov	r0, r2
 305 001c FFF7FEFF 		bl	strlen
 306              	.LVL34:
 307 0020 2318     		adds	r3, r4, r0
 308              	.LVL35:
 309              	.L24:
 117:C:/Users/lenovo/Desktop/liteos/Project2/BearPi_LiteOS/components/connectivity/lwm2m/core\registration.c ****     {
 310              		.loc 1 117 0
 311 0022 2A7E     		ldrb	r2, [r5, #24]	@ zero_extendqisi2
 312 0024 013A     		subs	r2, r2, #1
 313 0026 052A     		cmp	r2, #5
 314 0028 22D8     		bhi	.L35
 315 002a DFE802F0 		tbb	[pc, r2]
 316              	.L27:
 317 002e 03       		.byte	(.L26-.L27)/2
 318 002f 0D       		.byte	(.L28-.L27)/2
 319 0030 0F       		.byte	(.L29-.L27)/2
 320 0031 11       		.byte	(.L30-.L27)/2
 321 0032 13       		.byte	(.L31-.L27)/2
 322 0033 15       		.byte	(.L32-.L27)/2
 323              		.p2align 1
 324              	.L26:
 120:C:/Users/lenovo/Desktop/liteos/Project2/BearPi_LiteOS/components/connectivity/lwm2m/core\registration.c ****         break;
 325              		.loc 1 120 0
 326 0034 0433     		adds	r3, r3, #4
 327              	.LVL36:
 328              	.L33:
 141:C:/Users/lenovo/Desktop/liteos/Project2/BearPi_LiteOS/components/connectivity/lwm2m/core\registration.c ****     {
 329              		.loc 1 141 0
 330 0036 D5E90201 		ldrd	r0, [r5, #8]
 331 003a 50EA0102 		orrs	r2, r0, r1
 332 003e 0DD1     		bne	.L37
 333              	.L34:
 149:C:/Users/lenovo/Desktop/liteos/Project2/BearPi_LiteOS/components/connectivity/lwm2m/core\registration.c **** }
 334              		.loc 1 149 0
 335 0040 0133     		adds	r3, r3, #1
 336              	.LVL37:
 337              	.L23:
 150:C:/Users/lenovo/Desktop/liteos/Project2/BearPi_LiteOS/components/connectivity/lwm2m/core\registration.c **** 
 338              		.loc 1 150 0
ARM GAS  c:\Users\lenovo\AppData\Local\Temp\ccyoZgCp.s 			page 18


 339 0042 1846     		mov	r0, r3
 340 0044 07B0     		add	sp, sp, #28
 341              	.LCFI4:
 342              		.cfi_remember_state
 343              		.cfi_def_cfa_offset 12
 344              		@ sp needed
 345 0046 30BD     		pop	{r4, r5, pc}
 346              	.LVL38:
 347              	.L28:
 348              	.LCFI5:
 349              		.cfi_restore_state
 123:C:/Users/lenovo/Desktop/liteos/Project2/BearPi_LiteOS/components/connectivity/lwm2m/core\registration.c ****         break;
 350              		.loc 1 123 0
 351 0048 0533     		adds	r3, r3, #5
 352              	.LVL39:
 124:C:/Users/lenovo/Desktop/liteos/Project2/BearPi_LiteOS/components/connectivity/lwm2m/core\registration.c ****     case BINDING_S:
 353              		.loc 1 124 0
 354 004a F4E7     		b	.L33
 355              	.L29:
 126:C:/Users/lenovo/Desktop/liteos/Project2/BearPi_LiteOS/components/connectivity/lwm2m/core\registration.c ****         break;
 356              		.loc 1 126 0
 357 004c 0433     		adds	r3, r3, #4
 358              	.LVL40:
 127:C:/Users/lenovo/Desktop/liteos/Project2/BearPi_LiteOS/components/connectivity/lwm2m/core\registration.c ****     case BINDING_SQ:
 359              		.loc 1 127 0
 360 004e F2E7     		b	.L33
 361              	.L30:
 129:C:/Users/lenovo/Desktop/liteos/Project2/BearPi_LiteOS/components/connectivity/lwm2m/core\registration.c ****         break;
 362              		.loc 1 129 0
 363 0050 0533     		adds	r3, r3, #5
 364              	.LVL41:
 130:C:/Users/lenovo/Desktop/liteos/Project2/BearPi_LiteOS/components/connectivity/lwm2m/core\registration.c ****     case BINDING_US:
 365              		.loc 1 130 0
 366 0052 F0E7     		b	.L33
 367              	.L31:
 132:C:/Users/lenovo/Desktop/liteos/Project2/BearPi_LiteOS/components/connectivity/lwm2m/core\registration.c ****         break;
 368              		.loc 1 132 0
 369 0054 0533     		adds	r3, r3, #5
 370              	.LVL42:
 133:C:/Users/lenovo/Desktop/liteos/Project2/BearPi_LiteOS/components/connectivity/lwm2m/core\registration.c ****     case BINDING_UQS:
 371              		.loc 1 133 0
 372 0056 EEE7     		b	.L33
 373              	.L32:
 135:C:/Users/lenovo/Desktop/liteos/Project2/BearPi_LiteOS/components/connectivity/lwm2m/core\registration.c ****         break;
 374              		.loc 1 135 0
 375 0058 0633     		adds	r3, r3, #6
 376              	.LVL43:
 136:C:/Users/lenovo/Desktop/liteos/Project2/BearPi_LiteOS/components/connectivity/lwm2m/core\registration.c ****     default:
 377              		.loc 1 136 0
 378 005a ECE7     		b	.L33
 379              	.L37:
 143:C:/Users/lenovo/Desktop/liteos/Project2/BearPi_LiteOS/components/connectivity/lwm2m/core\registration.c ****         res = utils_intToText(server->lifetime, (uint8_t *)buffer, sizeof(buffer));
 380              		.loc 1 143 0
 381 005c 1C1D     		adds	r4, r3, #4
 382              	.LVL44:
 144:C:/Users/lenovo/Desktop/liteos/Project2/BearPi_LiteOS/components/connectivity/lwm2m/core\registration.c ****         if (res == 0) return 0;
 383              		.loc 1 144 0
ARM GAS  c:\Users\lenovo\AppData\Local\Temp\ccyoZgCp.s 			page 19


 384 005e 1523     		movs	r3, #21
 385 0060 6A46     		mov	r2, sp
 386 0062 FFF7FEFF 		bl	utils_intToText
 387              	.LVL45:
 145:C:/Users/lenovo/Desktop/liteos/Project2/BearPi_LiteOS/components/connectivity/lwm2m/core\registration.c ****         index += res;
 388              		.loc 1 145 0
 389 0066 0346     		mov	r3, r0
 390 0068 0028     		cmp	r0, #0
 391 006a EAD0     		beq	.L23
 146:C:/Users/lenovo/Desktop/liteos/Project2/BearPi_LiteOS/components/connectivity/lwm2m/core\registration.c ****     }
 392              		.loc 1 146 0
 393 006c 2344     		add	r3, r3, r4
 394              	.LVL46:
 395 006e E7E7     		b	.L34
 396              	.LVL47:
 397              	.L35:
 138:C:/Users/lenovo/Desktop/liteos/Project2/BearPi_LiteOS/components/connectivity/lwm2m/core\registration.c ****     }
 398              		.loc 1 138 0
 399 0070 0023     		movs	r3, #0
 400              	.LVL48:
 401 0072 E6E7     		b	.L23
 402              		.cfi_endproc
 403              	.LFE134:
 405              		.section	.text.prv_getRegistrationQuery,"ax",%progbits
 406              		.align	1
 407              		.syntax unified
 408              		.thumb
 409              		.thumb_func
 410              		.fpu fpv4-sp-d16
 412              	prv_getRegistrationQuery:
 413              	.LFB135:
 156:C:/Users/lenovo/Desktop/liteos/Project2/BearPi_LiteOS/components/connectivity/lwm2m/core\registration.c ****     int index;
 414              		.loc 1 156 0
 415              		.cfi_startproc
 416              		@ args = 0, pretend = 0, frame = 0
 417              		@ frame_needed = 0, uses_anonymous_args = 0
 418              	.LVL49:
 419 0000 2DE9F041 		push	{r4, r5, r6, r7, r8, lr}
 420              	.LCFI6:
 421              		.cfi_def_cfa_offset 24
 422              		.cfi_offset 4, -24
 423              		.cfi_offset 5, -20
 424              		.cfi_offset 6, -16
 425              		.cfi_offset 7, -12
 426              		.cfi_offset 8, -8
 427              		.cfi_offset 14, -4
 428 0004 0746     		mov	r7, r0
 429 0006 8846     		mov	r8, r1
 430 0008 1646     		mov	r6, r2
 431 000a 1D46     		mov	r5, r3
 160:C:/Users/lenovo/Desktop/liteos/Project2/BearPi_LiteOS/components/connectivity/lwm2m/core\registration.c ****     if (index < 0) return 0;
 432              		.loc 1 160 0
 433 000c 3F4A     		ldr	r2, .L60
 434              	.LVL50:
 435 000e 1946     		mov	r1, r3
 436              	.LVL51:
 437 0010 3046     		mov	r0, r6
ARM GAS  c:\Users\lenovo\AppData\Local\Temp\ccyoZgCp.s 			page 20


 438              	.LVL52:
 439 0012 FFF7FEFF 		bl	utils_stringCopy
 440              	.LVL53:
 161:C:/Users/lenovo/Desktop/liteos/Project2/BearPi_LiteOS/components/connectivity/lwm2m/core\registration.c ****     res = utils_stringCopy(buffer + index, length - index, contextP->endpointName);
 441              		.loc 1 161 0
 442 0016 041E     		subs	r4, r0, #0
 443 0018 65DB     		blt	.L50
 162:C:/Users/lenovo/Desktop/liteos/Project2/BearPi_LiteOS/components/connectivity/lwm2m/core\registration.c ****     if (res < 0) return 0;
 444              		.loc 1 162 0
 445 001a 7A68     		ldr	r2, [r7, #4]
 446 001c 291B     		subs	r1, r5, r4
 447 001e 3019     		adds	r0, r6, r4
 448              	.LVL54:
 449 0020 FFF7FEFF 		bl	utils_stringCopy
 450              	.LVL55:
 163:C:/Users/lenovo/Desktop/liteos/Project2/BearPi_LiteOS/components/connectivity/lwm2m/core\registration.c ****     index += res;
 451              		.loc 1 163 0
 452 0024 0028     		cmp	r0, #0
 453 0026 62DB     		blt	.L51
 164:C:/Users/lenovo/Desktop/liteos/Project2/BearPi_LiteOS/components/connectivity/lwm2m/core\registration.c **** 
 454              		.loc 1 164 0
 455 0028 0444     		add	r4, r4, r0
 456              	.LVL56:
 166:C:/Users/lenovo/Desktop/liteos/Project2/BearPi_LiteOS/components/connectivity/lwm2m/core\registration.c ****     {
 457              		.loc 1 166 0
 458 002a BB68     		ldr	r3, [r7, #8]
 459 002c 7BB1     		cbz	r3, .L40
 168:C:/Users/lenovo/Desktop/liteos/Project2/BearPi_LiteOS/components/connectivity/lwm2m/core\registration.c ****         if (res < 0) return 0;
 460              		.loc 1 168 0
 461 002e 384A     		ldr	r2, .L60+4
 462 0030 291B     		subs	r1, r5, r4
 463 0032 3019     		adds	r0, r6, r4
 464              	.LVL57:
 465 0034 FFF7FEFF 		bl	utils_stringCopy
 466              	.LVL58:
 169:C:/Users/lenovo/Desktop/liteos/Project2/BearPi_LiteOS/components/connectivity/lwm2m/core\registration.c ****         index += res;
 467              		.loc 1 169 0
 468 0038 0028     		cmp	r0, #0
 469 003a 5ADB     		blt	.L52
 170:C:/Users/lenovo/Desktop/liteos/Project2/BearPi_LiteOS/components/connectivity/lwm2m/core\registration.c ****         res = utils_stringCopy(buffer + index, length - index, contextP->msisdn);
 470              		.loc 1 170 0
 471 003c 0444     		add	r4, r4, r0
 472              	.LVL59:
 171:C:/Users/lenovo/Desktop/liteos/Project2/BearPi_LiteOS/components/connectivity/lwm2m/core\registration.c ****         if (res < 0) return 0;
 473              		.loc 1 171 0
 474 003e BA68     		ldr	r2, [r7, #8]
 475 0040 291B     		subs	r1, r5, r4
 476 0042 3019     		adds	r0, r6, r4
 477              	.LVL60:
 478 0044 FFF7FEFF 		bl	utils_stringCopy
 479              	.LVL61:
 172:C:/Users/lenovo/Desktop/liteos/Project2/BearPi_LiteOS/components/connectivity/lwm2m/core\registration.c ****         index += res;
 480              		.loc 1 172 0
 481 0048 0028     		cmp	r0, #0
 482 004a 54DB     		blt	.L53
 173:C:/Users/lenovo/Desktop/liteos/Project2/BearPi_LiteOS/components/connectivity/lwm2m/core\registration.c ****     }
 483              		.loc 1 173 0
ARM GAS  c:\Users\lenovo\AppData\Local\Temp\ccyoZgCp.s 			page 21


 484 004c 0444     		add	r4, r4, r0
 485              	.LVL62:
 486              	.L40:
 176:C:/Users/lenovo/Desktop/liteos/Project2/BearPi_LiteOS/components/connectivity/lwm2m/core\registration.c ****     {
 487              		.loc 1 176 0
 488 004e 98F81830 		ldrb	r3, [r8, #24]	@ zero_extendqisi2
 489 0052 013B     		subs	r3, r3, #1
 490 0054 052B     		cmp	r3, #5
 491 0056 50D8     		bhi	.L54
 492 0058 DFE803F0 		tbb	[pc, r3]
 493              	.L42:
 494 005c 03       		.byte	(.L41-.L42)/2
 495 005d 15       		.byte	(.L43-.L42)/2
 496 005e 1B       		.byte	(.L44-.L42)/2
 497 005f 21       		.byte	(.L45-.L42)/2
 498 0060 27       		.byte	(.L46-.L42)/2
 499 0061 2D       		.byte	(.L47-.L42)/2
 500              		.p2align 1
 501              	.L41:
 179:C:/Users/lenovo/Desktop/liteos/Project2/BearPi_LiteOS/components/connectivity/lwm2m/core\registration.c ****         break;
 502              		.loc 1 179 0
 503 0062 2C4A     		ldr	r2, .L60+8
 504 0064 291B     		subs	r1, r5, r4
 505 0066 3019     		adds	r0, r6, r4
 506              	.LVL63:
 507 0068 FFF7FEFF 		bl	utils_stringCopy
 508              	.LVL64:
 509              	.L48:
 199:C:/Users/lenovo/Desktop/liteos/Project2/BearPi_LiteOS/components/connectivity/lwm2m/core\registration.c ****     index += res;
 510              		.loc 1 199 0
 511 006c 0028     		cmp	r0, #0
 512 006e 46DB     		blt	.L55
 200:C:/Users/lenovo/Desktop/liteos/Project2/BearPi_LiteOS/components/connectivity/lwm2m/core\registration.c **** 
 513              		.loc 1 200 0
 514 0070 0444     		add	r4, r4, r0
 515              	.LVL65:
 202:C:/Users/lenovo/Desktop/liteos/Project2/BearPi_LiteOS/components/connectivity/lwm2m/core\registration.c ****     {
 516              		.loc 1 202 0
 517 0072 D8E90223 		ldrd	r2, [r8, #8]
 518 0076 1343     		orrs	r3, r2, r3
 519 0078 23D1     		bne	.L59
 520              	.L49:
 212:C:/Users/lenovo/Desktop/liteos/Project2/BearPi_LiteOS/components/connectivity/lwm2m/core\registration.c ****     {
 521              		.loc 1 212 0
 522 007a A542     		cmp	r5, r4
 523 007c 43DD     		ble	.L57
 214:C:/Users/lenovo/Desktop/liteos/Project2/BearPi_LiteOS/components/connectivity/lwm2m/core\registration.c ****     }
 524              		.loc 1 214 0
 525 007e 631C     		adds	r3, r4, #1
 526              	.LVL66:
 527 0080 0022     		movs	r2, #0
 528 0082 3255     		strb	r2, [r6, r4]
 221:C:/Users/lenovo/Desktop/liteos/Project2/BearPi_LiteOS/components/connectivity/lwm2m/core\registration.c **** }
 529              		.loc 1 221 0
 530 0084 30E0     		b	.L38
 531              	.LVL67:
 532              	.L43:
ARM GAS  c:\Users\lenovo\AppData\Local\Temp\ccyoZgCp.s 			page 22


 182:C:/Users/lenovo/Desktop/liteos/Project2/BearPi_LiteOS/components/connectivity/lwm2m/core\registration.c ****         break;
 533              		.loc 1 182 0
 534 0086 244A     		ldr	r2, .L60+12
 535 0088 291B     		subs	r1, r5, r4
 536 008a 3019     		adds	r0, r6, r4
 537              	.LVL68:
 538 008c FFF7FEFF 		bl	utils_stringCopy
 539              	.LVL69:
 183:C:/Users/lenovo/Desktop/liteos/Project2/BearPi_LiteOS/components/connectivity/lwm2m/core\registration.c ****     case BINDING_S:
 540              		.loc 1 183 0
 541 0090 ECE7     		b	.L48
 542              	.L44:
 185:C:/Users/lenovo/Desktop/liteos/Project2/BearPi_LiteOS/components/connectivity/lwm2m/core\registration.c ****         break;
 543              		.loc 1 185 0
 544 0092 224A     		ldr	r2, .L60+16
 545 0094 291B     		subs	r1, r5, r4
 546 0096 3019     		adds	r0, r6, r4
 547              	.LVL70:
 548 0098 FFF7FEFF 		bl	utils_stringCopy
 549              	.LVL71:
 186:C:/Users/lenovo/Desktop/liteos/Project2/BearPi_LiteOS/components/connectivity/lwm2m/core\registration.c ****     case BINDING_SQ:
 550              		.loc 1 186 0
 551 009c E6E7     		b	.L48
 552              	.L45:
 188:C:/Users/lenovo/Desktop/liteos/Project2/BearPi_LiteOS/components/connectivity/lwm2m/core\registration.c ****         break;
 553              		.loc 1 188 0
 554 009e 204A     		ldr	r2, .L60+20
 555 00a0 291B     		subs	r1, r5, r4
 556 00a2 3019     		adds	r0, r6, r4
 557              	.LVL72:
 558 00a4 FFF7FEFF 		bl	utils_stringCopy
 559              	.LVL73:
 189:C:/Users/lenovo/Desktop/liteos/Project2/BearPi_LiteOS/components/connectivity/lwm2m/core\registration.c ****     case BINDING_US:
 560              		.loc 1 189 0
 561 00a8 E0E7     		b	.L48
 562              	.L46:
 191:C:/Users/lenovo/Desktop/liteos/Project2/BearPi_LiteOS/components/connectivity/lwm2m/core\registration.c ****         break;
 563              		.loc 1 191 0
 564 00aa 1E4A     		ldr	r2, .L60+24
 565 00ac 291B     		subs	r1, r5, r4
 566 00ae 3019     		adds	r0, r6, r4
 567              	.LVL74:
 568 00b0 FFF7FEFF 		bl	utils_stringCopy
 569              	.LVL75:
 192:C:/Users/lenovo/Desktop/liteos/Project2/BearPi_LiteOS/components/connectivity/lwm2m/core\registration.c ****     case BINDING_UQS:
 570              		.loc 1 192 0
 571 00b4 DAE7     		b	.L48
 572              	.L47:
 194:C:/Users/lenovo/Desktop/liteos/Project2/BearPi_LiteOS/components/connectivity/lwm2m/core\registration.c ****         break;
 573              		.loc 1 194 0
 574 00b6 1C4A     		ldr	r2, .L60+28
 575 00b8 291B     		subs	r1, r5, r4
 576 00ba 3019     		adds	r0, r6, r4
 577              	.LVL76:
 578 00bc FFF7FEFF 		bl	utils_stringCopy
 579              	.LVL77:
 195:C:/Users/lenovo/Desktop/liteos/Project2/BearPi_LiteOS/components/connectivity/lwm2m/core\registration.c ****     default:
ARM GAS  c:\Users\lenovo\AppData\Local\Temp\ccyoZgCp.s 			page 23


 580              		.loc 1 195 0
 581 00c0 D4E7     		b	.L48
 582              	.L59:
 204:C:/Users/lenovo/Desktop/liteos/Project2/BearPi_LiteOS/components/connectivity/lwm2m/core\registration.c ****         if (res < 0) return 0;
 583              		.loc 1 204 0
 584 00c2 1A4A     		ldr	r2, .L60+32
 585 00c4 291B     		subs	r1, r5, r4
 586 00c6 3019     		adds	r0, r6, r4
 587              	.LVL78:
 588 00c8 FFF7FEFF 		bl	utils_stringCopy
 589              	.LVL79:
 205:C:/Users/lenovo/Desktop/liteos/Project2/BearPi_LiteOS/components/connectivity/lwm2m/core\registration.c ****         index += res;
 590              		.loc 1 205 0
 591 00cc 0028     		cmp	r0, #0
 592 00ce 18DB     		blt	.L56
 206:C:/Users/lenovo/Desktop/liteos/Project2/BearPi_LiteOS/components/connectivity/lwm2m/core\registration.c ****         res = utils_intToText(server->lifetime, (uint8_t *)buffer + index, length - index);
 593              		.loc 1 206 0
 594 00d0 0444     		add	r4, r4, r0
 595              	.LVL80:
 207:C:/Users/lenovo/Desktop/liteos/Project2/BearPi_LiteOS/components/connectivity/lwm2m/core\registration.c ****         if (res == 0) return 0;
 596              		.loc 1 207 0
 597 00d2 2B1B     		subs	r3, r5, r4
 598 00d4 3219     		adds	r2, r6, r4
 599 00d6 D8E90201 		ldrd	r0, [r8, #8]
 600              	.LVL81:
 601 00da FFF7FEFF 		bl	utils_intToText
 602              	.LVL82:
 208:C:/Users/lenovo/Desktop/liteos/Project2/BearPi_LiteOS/components/connectivity/lwm2m/core\registration.c ****         index += res;
 603              		.loc 1 208 0
 604 00de 0346     		mov	r3, r0
 605 00e0 10B1     		cbz	r0, .L38
 209:C:/Users/lenovo/Desktop/liteos/Project2/BearPi_LiteOS/components/connectivity/lwm2m/core\registration.c ****     }
 606              		.loc 1 209 0
 607 00e2 0444     		add	r4, r4, r0
 608              	.LVL83:
 609 00e4 C9E7     		b	.L49
 610              	.LVL84:
 611              	.L50:
 161:C:/Users/lenovo/Desktop/liteos/Project2/BearPi_LiteOS/components/connectivity/lwm2m/core\registration.c ****     res = utils_stringCopy(buffer + index, length - index, contextP->endpointName);
 612              		.loc 1 161 0
 613 00e6 0023     		movs	r3, #0
 614              	.LVL85:
 615              	.L38:
 222:C:/Users/lenovo/Desktop/liteos/Project2/BearPi_LiteOS/components/connectivity/lwm2m/core\registration.c **** 
 616              		.loc 1 222 0
 617 00e8 1846     		mov	r0, r3
 618 00ea BDE8F081 		pop	{r4, r5, r6, r7, r8, pc}
 619              	.LVL86:
 620              	.L51:
 163:C:/Users/lenovo/Desktop/liteos/Project2/BearPi_LiteOS/components/connectivity/lwm2m/core\registration.c ****     index += res;
 621              		.loc 1 163 0
 622 00ee 0023     		movs	r3, #0
 623 00f0 FAE7     		b	.L38
 624              	.L52:
 169:C:/Users/lenovo/Desktop/liteos/Project2/BearPi_LiteOS/components/connectivity/lwm2m/core\registration.c ****         index += res;
 625              		.loc 1 169 0
 626 00f2 0023     		movs	r3, #0
ARM GAS  c:\Users\lenovo\AppData\Local\Temp\ccyoZgCp.s 			page 24


 627 00f4 F8E7     		b	.L38
 628              	.L53:
 172:C:/Users/lenovo/Desktop/liteos/Project2/BearPi_LiteOS/components/connectivity/lwm2m/core\registration.c ****         index += res;
 629              		.loc 1 172 0
 630 00f6 0023     		movs	r3, #0
 631 00f8 F6E7     		b	.L38
 632              	.L54:
 199:C:/Users/lenovo/Desktop/liteos/Project2/BearPi_LiteOS/components/connectivity/lwm2m/core\registration.c ****     index += res;
 633              		.loc 1 199 0
 634 00fa 0023     		movs	r3, #0
 635 00fc F4E7     		b	.L38
 636              	.L55:
 637 00fe 0023     		movs	r3, #0
 638 0100 F2E7     		b	.L38
 639              	.L56:
 205:C:/Users/lenovo/Desktop/liteos/Project2/BearPi_LiteOS/components/connectivity/lwm2m/core\registration.c ****         index += res;
 640              		.loc 1 205 0
 641 0102 0023     		movs	r3, #0
 642 0104 F0E7     		b	.L38
 643              	.L57:
 218:C:/Users/lenovo/Desktop/liteos/Project2/BearPi_LiteOS/components/connectivity/lwm2m/core\registration.c ****     }
 644              		.loc 1 218 0
 645 0106 0023     		movs	r3, #0
 646 0108 EEE7     		b	.L38
 647              	.L61:
 648 010a 00BF     		.align	2
 649              	.L60:
 650 010c 00000000 		.word	.LC5
 651 0110 10000000 		.word	.LC6
 652 0114 18000000 		.word	.LC7
 653 0118 20000000 		.word	.LC8
 654 011c 28000000 		.word	.LC9
 655 0120 30000000 		.word	.LC10
 656 0124 38000000 		.word	.LC11
 657 0128 40000000 		.word	.LC12
 658 012c 48000000 		.word	.LC13
 659              		.cfi_endproc
 660              	.LFE135:
 662              		.section	.text.prv_register,"ax",%progbits
 663              		.align	1
 664              		.syntax unified
 665              		.thumb
 666              		.thumb_func
 667              		.fpu fpv4-sp-d16
 669              	prv_register:
 670              	.LFB137:
 260:C:/Users/lenovo/Desktop/liteos/Project2/BearPi_LiteOS/components/connectivity/lwm2m/core\registration.c ****     char *query;
 671              		.loc 1 260 0
 672              		.cfi_startproc
 673              		@ args = 0, pretend = 0, frame = 0
 674              		@ frame_needed = 0, uses_anonymous_args = 0
 675              	.LVL87:
 676 0000 2DE9F043 		push	{r4, r5, r6, r7, r8, r9, lr}
 677              	.LCFI7:
 678              		.cfi_def_cfa_offset 28
 679              		.cfi_offset 4, -28
 680              		.cfi_offset 5, -24
ARM GAS  c:\Users\lenovo\AppData\Local\Temp\ccyoZgCp.s 			page 25


 681              		.cfi_offset 6, -20
 682              		.cfi_offset 7, -16
 683              		.cfi_offset 8, -12
 684              		.cfi_offset 9, -8
 685              		.cfi_offset 14, -4
 686 0004 85B0     		sub	sp, sp, #20
 687              	.LCFI8:
 688              		.cfi_def_cfa_offset 48
 689 0006 0446     		mov	r4, r0
 690 0008 0E46     		mov	r6, r1
 267:C:/Users/lenovo/Desktop/liteos/Project2/BearPi_LiteOS/components/connectivity/lwm2m/core\registration.c ****     if(payload_length == 0) return COAP_500_INTERNAL_SERVER_ERROR;
 691              		.loc 1 267 0
 692 000a FFF7FEFF 		bl	object_getRegisterPayloadBufferLength
 693              	.LVL88:
 268:C:/Users/lenovo/Desktop/liteos/Project2/BearPi_LiteOS/components/connectivity/lwm2m/core\registration.c ****     payload = lwm2m_malloc(payload_length);
 694              		.loc 1 268 0
 695 000e 0028     		cmp	r0, #0
 696 0010 00F09780 		beq	.L72
 697 0014 0546     		mov	r5, r0
 269:C:/Users/lenovo/Desktop/liteos/Project2/BearPi_LiteOS/components/connectivity/lwm2m/core\registration.c ****     if(!payload) return COAP_500_INTERNAL_SERVER_ERROR;
 698              		.loc 1 269 0
 699 0016 FFF7FEFF 		bl	lwm2m_malloc
 700              	.LVL89:
 270:C:/Users/lenovo/Desktop/liteos/Project2/BearPi_LiteOS/components/connectivity/lwm2m/core\registration.c ****     payload_length = object_getRegisterPayload(contextP, payload, payload_length);
 701              		.loc 1 270 0
 702 001a 0746     		mov	r7, r0
 703 001c 0028     		cmp	r0, #0
 704 001e 00F09480 		beq	.L73
 271:C:/Users/lenovo/Desktop/liteos/Project2/BearPi_LiteOS/components/connectivity/lwm2m/core\registration.c ****     if(payload_length == 0)
 705              		.loc 1 271 0
 706 0022 2A46     		mov	r2, r5
 707 0024 0146     		mov	r1, r0
 708 0026 2046     		mov	r0, r4
 709              	.LVL90:
 710 0028 FFF7FEFF 		bl	object_getRegisterPayload
 711              	.LVL91:
 272:C:/Users/lenovo/Desktop/liteos/Project2/BearPi_LiteOS/components/connectivity/lwm2m/core\registration.c ****     {
 712              		.loc 1 272 0
 713 002c 8146     		mov	r9, r0
 714 002e 0028     		cmp	r0, #0
 715 0030 51D0     		beq	.L75
 278:C:/Users/lenovo/Desktop/liteos/Project2/BearPi_LiteOS/components/connectivity/lwm2m/core\registration.c ****     if(query_length == 0)
 716              		.loc 1 278 0
 717 0032 3146     		mov	r1, r6
 718 0034 2046     		mov	r0, r4
 719              	.LVL92:
 720 0036 FFF7FEFF 		bl	prv_getRegistrationQueryLength
 721              	.LVL93:
 279:C:/Users/lenovo/Desktop/liteos/Project2/BearPi_LiteOS/components/connectivity/lwm2m/core\registration.c ****     {
 722              		.loc 1 279 0
 723 003a 0546     		mov	r5, r0
 724 003c 0028     		cmp	r0, #0
 725 003e 4FD0     		beq	.L76
 284:C:/Users/lenovo/Desktop/liteos/Project2/BearPi_LiteOS/components/connectivity/lwm2m/core\registration.c ****     if(!query)
 726              		.loc 1 284 0
 727 0040 FFF7FEFF 		bl	lwm2m_malloc
 728              	.LVL94:
ARM GAS  c:\Users\lenovo\AppData\Local\Temp\ccyoZgCp.s 			page 26


 285:C:/Users/lenovo/Desktop/liteos/Project2/BearPi_LiteOS/components/connectivity/lwm2m/core\registration.c ****     {
 729              		.loc 1 285 0
 730 0044 8046     		mov	r8, r0
 731 0046 0028     		cmp	r0, #0
 732 0048 4FD0     		beq	.L77
 290:C:/Users/lenovo/Desktop/liteos/Project2/BearPi_LiteOS/components/connectivity/lwm2m/core\registration.c ****     {
 733              		.loc 1 290 0
 734 004a 2B46     		mov	r3, r5
 735 004c 0246     		mov	r2, r0
 736 004e 3146     		mov	r1, r6
 737 0050 2046     		mov	r0, r4
 738              	.LVL95:
 739 0052 FFF7FEFF 		bl	prv_getRegistrationQuery
 740              	.LVL96:
 741 0056 A842     		cmp	r0, r5
 742 0058 4CD1     		bne	.L78
 297:C:/Users/lenovo/Desktop/liteos/Project2/BearPi_LiteOS/components/connectivity/lwm2m/core\registration.c ****     {
 743              		.loc 1 297 0
 744 005a F369     		ldr	r3, [r6, #28]
 745 005c 002B     		cmp	r3, #0
 746 005e 51D0     		beq	.L79
 747              	.L68:
 302:C:/Users/lenovo/Desktop/liteos/Project2/BearPi_LiteOS/components/connectivity/lwm2m/core\registration.c ****     {
 748              		.loc 1 302 0
 749 0060 F069     		ldr	r0, [r6, #28]
 750 0062 0028     		cmp	r0, #0
 751 0064 55D0     		beq	.L80
 309:C:/Users/lenovo/Desktop/liteos/Project2/BearPi_LiteOS/components/connectivity/lwm2m/core\registration.c ****     if (transaction == NULL)
 752              		.loc 1 309 0
 753 0066 A38D     		ldrh	r3, [r4, #44]
 754 0068 5A1C     		adds	r2, r3, #1
 755 006a A285     		strh	r2, [r4, #44]	@ movhi
 756 006c 0022     		movs	r2, #0
 757 006e 0292     		str	r2, [sp, #8]
 758 0070 0421     		movs	r1, #4
 759 0072 0191     		str	r1, [sp, #4]
 760 0074 0093     		str	r3, [sp]
 761 0076 1346     		mov	r3, r2
 762 0078 0221     		movs	r1, #2
 763 007a FFF7FEFF 		bl	transaction_new
 764              	.LVL97:
 310:C:/Users/lenovo/Desktop/liteos/Project2/BearPi_LiteOS/components/connectivity/lwm2m/core\registration.c ****     {
 765              		.loc 1 310 0
 766 007e 0546     		mov	r5, r0
 767              	.LVL98:
 768 0080 0028     		cmp	r0, #0
 769 0082 4ED0     		beq	.L81
 318:C:/Users/lenovo/Desktop/liteos/Project2/BearPi_LiteOS/components/connectivity/lwm2m/core\registration.c ****     coap_set_header_uri_query(transaction->message, query);
 770              		.loc 1 318 0
 771 0084 3249     		ldr	r1, .L83
 772 0086 806A     		ldr	r0, [r0, #40]
 773              	.LVL99:
 774 0088 FFF7FEFF 		bl	coap_set_header_uri_path
 775              	.LVL100:
 319:C:/Users/lenovo/Desktop/liteos/Project2/BearPi_LiteOS/components/connectivity/lwm2m/core\registration.c ****     coap_set_header_content_type(transaction->message, LWM2M_CONTENT_LINK);
 776              		.loc 1 319 0
 777 008c 4146     		mov	r1, r8
ARM GAS  c:\Users\lenovo\AppData\Local\Temp\ccyoZgCp.s 			page 27


 778 008e A86A     		ldr	r0, [r5, #40]
 779 0090 FFF7FEFF 		bl	coap_set_header_uri_query
 780              	.LVL101:
 320:C:/Users/lenovo/Desktop/liteos/Project2/BearPi_LiteOS/components/connectivity/lwm2m/core\registration.c ****     coap_set_payload(transaction->message, payload, payload_length);
 781              		.loc 1 320 0
 782 0094 2821     		movs	r1, #40
 783 0096 A86A     		ldr	r0, [r5, #40]
 784 0098 FFF7FEFF 		bl	coap_set_header_content_type
 785              	.LVL102:
 321:C:/Users/lenovo/Desktop/liteos/Project2/BearPi_LiteOS/components/connectivity/lwm2m/core\registration.c **** 
 786              		.loc 1 321 0
 787 009c 4A46     		mov	r2, r9
 788 009e 3946     		mov	r1, r7
 789 00a0 A86A     		ldr	r0, [r5, #40]
 790 00a2 FFF7FEFF 		bl	coap_set_payload
 791              	.LVL103:
 323:C:/Users/lenovo/Desktop/liteos/Project2/BearPi_LiteOS/components/connectivity/lwm2m/core\registration.c ****     transaction->userData = (void *) server;
 792              		.loc 1 323 0
 793 00a6 2B4B     		ldr	r3, .L83+4
 794 00a8 2B64     		str	r3, [r5, #64]
 324:C:/Users/lenovo/Desktop/liteos/Project2/BearPi_LiteOS/components/connectivity/lwm2m/core\registration.c **** 
 795              		.loc 1 324 0
 796 00aa 6E64     		str	r6, [r5, #68]
 326:C:/Users/lenovo/Desktop/liteos/Project2/BearPi_LiteOS/components/connectivity/lwm2m/core\registration.c ****     if (transaction_send(contextP, transaction) != 0)
 797              		.loc 1 326 0
 798 00ac 2946     		mov	r1, r5
 799 00ae 206B     		ldr	r0, [r4, #48]
 800 00b0 FFF7FEFF 		bl	lwm2m_list_add
 801              	.LVL104:
 802 00b4 2063     		str	r0, [r4, #48]
 327:C:/Users/lenovo/Desktop/liteos/Project2/BearPi_LiteOS/components/connectivity/lwm2m/core\registration.c ****     {
 803              		.loc 1 327 0
 804 00b6 2946     		mov	r1, r5
 805 00b8 2046     		mov	r0, r4
 806 00ba FFF7FEFF 		bl	transaction_send
 807              	.LVL105:
 808 00be C0BB     		cbnz	r0, .L82
 334:C:/Users/lenovo/Desktop/liteos/Project2/BearPi_LiteOS/components/connectivity/lwm2m/core\registration.c ****     lwm2m_free(query);
 809              		.loc 1 334 0
 810 00c0 3846     		mov	r0, r7
 811 00c2 FFF7FEFF 		bl	lwm2m_free
 812              	.LVL106:
 335:C:/Users/lenovo/Desktop/liteos/Project2/BearPi_LiteOS/components/connectivity/lwm2m/core\registration.c **** 
 813              		.loc 1 335 0
 814 00c6 4046     		mov	r0, r8
 815 00c8 FFF7FEFF 		bl	lwm2m_free
 816              	.LVL107:
 337:C:/Users/lenovo/Desktop/liteos/Project2/BearPi_LiteOS/components/connectivity/lwm2m/core\registration.c **** 
 817              		.loc 1 337 0
 818 00cc 0123     		movs	r3, #1
 819 00ce 86F82030 		strb	r3, [r6, #32]
 339:C:/Users/lenovo/Desktop/liteos/Project2/BearPi_LiteOS/components/connectivity/lwm2m/core\registration.c **** }
 820              		.loc 1 339 0
 821 00d2 0020     		movs	r0, #0
 822 00d4 36E0     		b	.L63
 823              	.LVL108:
 824              	.L75:
ARM GAS  c:\Users\lenovo\AppData\Local\Temp\ccyoZgCp.s 			page 28


 274:C:/Users/lenovo/Desktop/liteos/Project2/BearPi_LiteOS/components/connectivity/lwm2m/core\registration.c ****         return COAP_500_INTERNAL_SERVER_ERROR;
 825              		.loc 1 274 0
 826 00d6 3846     		mov	r0, r7
 827              	.LVL109:
 828 00d8 FFF7FEFF 		bl	lwm2m_free
 829              	.LVL110:
 275:C:/Users/lenovo/Desktop/liteos/Project2/BearPi_LiteOS/components/connectivity/lwm2m/core\registration.c ****     }
 830              		.loc 1 275 0
 831 00dc A020     		movs	r0, #160
 832 00de 31E0     		b	.L63
 833              	.LVL111:
 834              	.L76:
 281:C:/Users/lenovo/Desktop/liteos/Project2/BearPi_LiteOS/components/connectivity/lwm2m/core\registration.c ****         return COAP_500_INTERNAL_SERVER_ERROR;
 835              		.loc 1 281 0
 836 00e0 3846     		mov	r0, r7
 837              	.LVL112:
 838 00e2 FFF7FEFF 		bl	lwm2m_free
 839              	.LVL113:
 282:C:/Users/lenovo/Desktop/liteos/Project2/BearPi_LiteOS/components/connectivity/lwm2m/core\registration.c ****     }
 840              		.loc 1 282 0
 841 00e6 A020     		movs	r0, #160
 842 00e8 2CE0     		b	.L63
 843              	.LVL114:
 844              	.L77:
 287:C:/Users/lenovo/Desktop/liteos/Project2/BearPi_LiteOS/components/connectivity/lwm2m/core\registration.c ****         return COAP_500_INTERNAL_SERVER_ERROR;
 845              		.loc 1 287 0
 846 00ea 3846     		mov	r0, r7
 847              	.LVL115:
 848 00ec FFF7FEFF 		bl	lwm2m_free
 849              	.LVL116:
 288:C:/Users/lenovo/Desktop/liteos/Project2/BearPi_LiteOS/components/connectivity/lwm2m/core\registration.c ****     }
 850              		.loc 1 288 0
 851 00f0 A020     		movs	r0, #160
 852 00f2 27E0     		b	.L63
 853              	.L78:
 292:C:/Users/lenovo/Desktop/liteos/Project2/BearPi_LiteOS/components/connectivity/lwm2m/core\registration.c ****         lwm2m_free(query);
 854              		.loc 1 292 0
 855 00f4 3846     		mov	r0, r7
 856 00f6 FFF7FEFF 		bl	lwm2m_free
 857              	.LVL117:
 293:C:/Users/lenovo/Desktop/liteos/Project2/BearPi_LiteOS/components/connectivity/lwm2m/core\registration.c ****         return COAP_500_INTERNAL_SERVER_ERROR;
 858              		.loc 1 293 0
 859 00fa 4046     		mov	r0, r8
 860 00fc FFF7FEFF 		bl	lwm2m_free
 861              	.LVL118:
 294:C:/Users/lenovo/Desktop/liteos/Project2/BearPi_LiteOS/components/connectivity/lwm2m/core\registration.c ****     }
 862              		.loc 1 294 0
 863 0100 A020     		movs	r0, #160
 864 0102 1FE0     		b	.L63
 865              	.L79:
 299:C:/Users/lenovo/Desktop/liteos/Project2/BearPi_LiteOS/components/connectivity/lwm2m/core\registration.c ****     }
 866              		.loc 1 299 0
 867 0104 0022     		movs	r2, #0
 868 0106 616B     		ldr	r1, [r4, #52]
 869 0108 B088     		ldrh	r0, [r6, #4]
 870 010a FFF7FEFF 		bl	lwm2m_connect_server
 871              	.LVL119:
ARM GAS  c:\Users\lenovo\AppData\Local\Temp\ccyoZgCp.s 			page 29


 872 010e F061     		str	r0, [r6, #28]
 873 0110 A6E7     		b	.L68
 874              	.L80:
 304:C:/Users/lenovo/Desktop/liteos/Project2/BearPi_LiteOS/components/connectivity/lwm2m/core\registration.c ****         lwm2m_free(query);
 875              		.loc 1 304 0
 876 0112 3846     		mov	r0, r7
 877 0114 FFF7FEFF 		bl	lwm2m_free
 878              	.LVL120:
 305:C:/Users/lenovo/Desktop/liteos/Project2/BearPi_LiteOS/components/connectivity/lwm2m/core\registration.c ****         return COAP_503_SERVICE_UNAVAILABLE;
 879              		.loc 1 305 0
 880 0118 4046     		mov	r0, r8
 881 011a FFF7FEFF 		bl	lwm2m_free
 882              	.LVL121:
 306:C:/Users/lenovo/Desktop/liteos/Project2/BearPi_LiteOS/components/connectivity/lwm2m/core\registration.c ****     }
 883              		.loc 1 306 0
 884 011e A320     		movs	r0, #163
 885 0120 10E0     		b	.L63
 886              	.LVL122:
 887              	.L81:
 312:C:/Users/lenovo/Desktop/liteos/Project2/BearPi_LiteOS/components/connectivity/lwm2m/core\registration.c ****         lwm2m_free(query);
 888              		.loc 1 312 0
 889 0122 3846     		mov	r0, r7
 890              	.LVL123:
 891 0124 FFF7FEFF 		bl	lwm2m_free
 892              	.LVL124:
 313:C:/Users/lenovo/Desktop/liteos/Project2/BearPi_LiteOS/components/connectivity/lwm2m/core\registration.c ****         return COAP_503_SERVICE_UNAVAILABLE;
 893              		.loc 1 313 0
 894 0128 4046     		mov	r0, r8
 895 012a FFF7FEFF 		bl	lwm2m_free
 896              	.LVL125:
 314:C:/Users/lenovo/Desktop/liteos/Project2/BearPi_LiteOS/components/connectivity/lwm2m/core\registration.c ****     }
 897              		.loc 1 314 0
 898 012e A320     		movs	r0, #163
 899 0130 08E0     		b	.L63
 900              	.L82:
 329:C:/Users/lenovo/Desktop/liteos/Project2/BearPi_LiteOS/components/connectivity/lwm2m/core\registration.c ****         lwm2m_free(query);
 901              		.loc 1 329 0
 902 0132 3846     		mov	r0, r7
 903 0134 FFF7FEFF 		bl	lwm2m_free
 904              	.LVL126:
 330:C:/Users/lenovo/Desktop/liteos/Project2/BearPi_LiteOS/components/connectivity/lwm2m/core\registration.c ****         return COAP_503_SERVICE_UNAVAILABLE;
 905              		.loc 1 330 0
 906 0138 4046     		mov	r0, r8
 907 013a FFF7FEFF 		bl	lwm2m_free
 908              	.LVL127:
 331:C:/Users/lenovo/Desktop/liteos/Project2/BearPi_LiteOS/components/connectivity/lwm2m/core\registration.c ****     }
 909              		.loc 1 331 0
 910 013e A320     		movs	r0, #163
 911 0140 00E0     		b	.L63
 912              	.LVL128:
 913              	.L72:
 268:C:/Users/lenovo/Desktop/liteos/Project2/BearPi_LiteOS/components/connectivity/lwm2m/core\registration.c ****     payload = lwm2m_malloc(payload_length);
 914              		.loc 1 268 0
 915 0142 A020     		movs	r0, #160
 916              	.LVL129:
 917              	.L63:
 340:C:/Users/lenovo/Desktop/liteos/Project2/BearPi_LiteOS/components/connectivity/lwm2m/core\registration.c **** 
ARM GAS  c:\Users\lenovo\AppData\Local\Temp\ccyoZgCp.s 			page 30


 918              		.loc 1 340 0
 919 0144 05B0     		add	sp, sp, #20
 920              	.LCFI9:
 921              		.cfi_remember_state
 922              		.cfi_def_cfa_offset 28
 923              		@ sp needed
 924 0146 BDE8F083 		pop	{r4, r5, r6, r7, r8, r9, pc}
 925              	.LVL130:
 926              	.L73:
 927              	.LCFI10:
 928              		.cfi_restore_state
 270:C:/Users/lenovo/Desktop/liteos/Project2/BearPi_LiteOS/components/connectivity/lwm2m/core\registration.c ****     payload_length = object_getRegisterPayload(contextP, payload, payload_length);
 929              		.loc 1 270 0
 930 014a A020     		movs	r0, #160
 931              	.LVL131:
 932 014c FAE7     		b	.L63
 933              	.L84:
 934 014e 00BF     		.align	2
 935              	.L83:
 936 0150 00000000 		.word	.LC14
 937 0154 00000000 		.word	prv_handleRegistrationReply
 938              		.cfi_endproc
 939              	.LFE137:
 941              		.section	.text.prv_updateRegistration,"ax",%progbits
 942              		.align	1
 943              		.syntax unified
 944              		.thumb
 945              		.thumb_func
 946              		.fpu fpv4-sp-d16
 948              	prv_updateRegistration:
 949              	.LFB139:
 371:C:/Users/lenovo/Desktop/liteos/Project2/BearPi_LiteOS/components/connectivity/lwm2m/core\registration.c ****     lwm2m_transaction_t *transaction;
 950              		.loc 1 371 0
 951              		.cfi_startproc
 952              		@ args = 0, pretend = 0, frame = 0
 953              		@ frame_needed = 0, uses_anonymous_args = 0
 954              	.LVL132:
 955 0000 2DE9F043 		push	{r4, r5, r6, r7, r8, r9, lr}
 956              	.LCFI11:
 957              		.cfi_def_cfa_offset 28
 958              		.cfi_offset 4, -28
 959              		.cfi_offset 5, -24
 960              		.cfi_offset 6, -20
 961              		.cfi_offset 7, -16
 962              		.cfi_offset 8, -12
 963              		.cfi_offset 9, -8
 964              		.cfi_offset 14, -4
 965 0004 85B0     		sub	sp, sp, #20
 966              	.LCFI12:
 967              		.cfi_def_cfa_offset 48
 968 0006 0446     		mov	r4, r0
 969 0008 0E46     		mov	r6, r1
 970 000a 1746     		mov	r7, r2
 971              	.LVL133:
 376:C:/Users/lenovo/Desktop/liteos/Project2/BearPi_LiteOS/components/connectivity/lwm2m/core\registration.c ****     if (transaction == NULL) return COAP_500_INTERNAL_SERVER_ERROR;
 972              		.loc 1 376 0
 973 000c C869     		ldr	r0, [r1, #28]
ARM GAS  c:\Users\lenovo\AppData\Local\Temp\ccyoZgCp.s 			page 31


 974              	.LVL134:
 975 000e A38D     		ldrh	r3, [r4, #44]
 976 0010 5A1C     		adds	r2, r3, #1
 977              	.LVL135:
 978 0012 A285     		strh	r2, [r4, #44]	@ movhi
 979 0014 0022     		movs	r2, #0
 980 0016 0292     		str	r2, [sp, #8]
 981 0018 0421     		movs	r1, #4
 982              	.LVL136:
 983 001a 0191     		str	r1, [sp, #4]
 984 001c 0093     		str	r3, [sp]
 985 001e 1346     		mov	r3, r2
 986 0020 0221     		movs	r1, #2
 987 0022 FFF7FEFF 		bl	transaction_new
 988              	.LVL137:
 377:C:/Users/lenovo/Desktop/liteos/Project2/BearPi_LiteOS/components/connectivity/lwm2m/core\registration.c **** 
 989              		.loc 1 377 0
 990 0026 0028     		cmp	r0, #0
 991 0028 48D0     		beq	.L92
 992 002a 0546     		mov	r5, r0
 379:C:/Users/lenovo/Desktop/liteos/Project2/BearPi_LiteOS/components/connectivity/lwm2m/core\registration.c **** 
 993              		.loc 1 379 0
 994 002c 716A     		ldr	r1, [r6, #36]
 995 002e 806A     		ldr	r0, [r0, #40]
 996              	.LVL138:
 997 0030 FFF7FEFF 		bl	coap_set_header_uri_path
 998              	.LVL139:
 381:C:/Users/lenovo/Desktop/liteos/Project2/BearPi_LiteOS/components/connectivity/lwm2m/core\registration.c ****     {
 999              		.loc 1 381 0
 1000 0034 37B3     		cbz	r7, .L93
 383:C:/Users/lenovo/Desktop/liteos/Project2/BearPi_LiteOS/components/connectivity/lwm2m/core\registration.c ****         if(payload_length == 0)
 1001              		.loc 1 383 0
 1002 0036 2046     		mov	r0, r4
 1003 0038 FFF7FEFF 		bl	object_getRegisterPayloadBufferLength
 1004              	.LVL140:
 384:C:/Users/lenovo/Desktop/liteos/Project2/BearPi_LiteOS/components/connectivity/lwm2m/core\registration.c ****         {
 1005              		.loc 1 384 0
 1006 003c 8146     		mov	r9, r0
 1007 003e 78B1     		cbz	r0, .L96
 390:C:/Users/lenovo/Desktop/liteos/Project2/BearPi_LiteOS/components/connectivity/lwm2m/core\registration.c ****         if(!payload)
 1008              		.loc 1 390 0
 1009 0040 FFF7FEFF 		bl	lwm2m_malloc
 1010              	.LVL141:
 391:C:/Users/lenovo/Desktop/liteos/Project2/BearPi_LiteOS/components/connectivity/lwm2m/core\registration.c ****         {
 1011              		.loc 1 391 0
 1012 0044 8046     		mov	r8, r0
 1013 0046 80B1     		cbz	r0, .L97
 397:C:/Users/lenovo/Desktop/liteos/Project2/BearPi_LiteOS/components/connectivity/lwm2m/core\registration.c ****         if(payload_length == 0)
 1014              		.loc 1 397 0
 1015 0048 4A46     		mov	r2, r9
 1016 004a 0146     		mov	r1, r0
 1017 004c 2046     		mov	r0, r4
 1018              	.LVL142:
 1019 004e FFF7FEFF 		bl	object_getRegisterPayload
 1020              	.LVL143:
 398:C:/Users/lenovo/Desktop/liteos/Project2/BearPi_LiteOS/components/connectivity/lwm2m/core\registration.c ****         {
 1021              		.loc 1 398 0
ARM GAS  c:\Users\lenovo\AppData\Local\Temp\ccyoZgCp.s 			page 32


 1022 0052 0246     		mov	r2, r0
 1023 0054 70B1     		cbz	r0, .L98
 404:C:/Users/lenovo/Desktop/liteos/Project2/BearPi_LiteOS/components/connectivity/lwm2m/core\registration.c ****     }
 1024              		.loc 1 404 0
 1025 0056 4146     		mov	r1, r8
 1026 0058 A86A     		ldr	r0, [r5, #40]
 1027              	.LVL144:
 1028 005a FFF7FEFF 		bl	coap_set_payload
 1029              	.LVL145:
 1030 005e 13E0     		b	.L87
 1031              	.LVL146:
 1032              	.L96:
 386:C:/Users/lenovo/Desktop/liteos/Project2/BearPi_LiteOS/components/connectivity/lwm2m/core\registration.c ****             return COAP_500_INTERNAL_SERVER_ERROR;
 1033              		.loc 1 386 0
 1034 0060 2846     		mov	r0, r5
 1035              	.LVL147:
 1036 0062 FFF7FEFF 		bl	transaction_free
 1037              	.LVL148:
 387:C:/Users/lenovo/Desktop/liteos/Project2/BearPi_LiteOS/components/connectivity/lwm2m/core\registration.c ****         }
 1038              		.loc 1 387 0
 1039 0066 A020     		movs	r0, #160
 1040 0068 20E0     		b	.L85
 1041              	.LVL149:
 1042              	.L97:
 393:C:/Users/lenovo/Desktop/liteos/Project2/BearPi_LiteOS/components/connectivity/lwm2m/core\registration.c ****             return COAP_500_INTERNAL_SERVER_ERROR;
 1043              		.loc 1 393 0
 1044 006a 2846     		mov	r0, r5
 1045              	.LVL150:
 1046 006c FFF7FEFF 		bl	transaction_free
 1047              	.LVL151:
 394:C:/Users/lenovo/Desktop/liteos/Project2/BearPi_LiteOS/components/connectivity/lwm2m/core\registration.c ****         }
 1048              		.loc 1 394 0
 1049 0070 A020     		movs	r0, #160
 1050 0072 1BE0     		b	.L85
 1051              	.LVL152:
 1052              	.L98:
 400:C:/Users/lenovo/Desktop/liteos/Project2/BearPi_LiteOS/components/connectivity/lwm2m/core\registration.c ****             lwm2m_free(payload);
 1053              		.loc 1 400 0
 1054 0074 2846     		mov	r0, r5
 1055              	.LVL153:
 1056 0076 FFF7FEFF 		bl	transaction_free
 1057              	.LVL154:
 401:C:/Users/lenovo/Desktop/liteos/Project2/BearPi_LiteOS/components/connectivity/lwm2m/core\registration.c ****             return COAP_500_INTERNAL_SERVER_ERROR;
 1058              		.loc 1 401 0
 1059 007a 4046     		mov	r0, r8
 1060 007c FFF7FEFF 		bl	lwm2m_free
 1061              	.LVL155:
 402:C:/Users/lenovo/Desktop/liteos/Project2/BearPi_LiteOS/components/connectivity/lwm2m/core\registration.c ****         }
 1062              		.loc 1 402 0
 1063 0080 A020     		movs	r0, #160
 1064 0082 13E0     		b	.L85
 1065              	.LVL156:
 1066              	.L93:
 373:C:/Users/lenovo/Desktop/liteos/Project2/BearPi_LiteOS/components/connectivity/lwm2m/core\registration.c ****     int payload_length;
 1067              		.loc 1 373 0
 1068 0084 4FF00008 		mov	r8, #0
 1069              	.LVL157:
ARM GAS  c:\Users\lenovo\AppData\Local\Temp\ccyoZgCp.s 			page 33


 1070              	.L87:
 407:C:/Users/lenovo/Desktop/liteos/Project2/BearPi_LiteOS/components/connectivity/lwm2m/core\registration.c ****     transaction->userData = (void *) server;
 1071              		.loc 1 407 0
 1072 0088 0D4B     		ldr	r3, .L100
 1073 008a 2B64     		str	r3, [r5, #64]
 408:C:/Users/lenovo/Desktop/liteos/Project2/BearPi_LiteOS/components/connectivity/lwm2m/core\registration.c **** 
 1074              		.loc 1 408 0
 1075 008c 6E64     		str	r6, [r5, #68]
 410:C:/Users/lenovo/Desktop/liteos/Project2/BearPi_LiteOS/components/connectivity/lwm2m/core\registration.c **** 
 1076              		.loc 1 410 0
 1077 008e 2946     		mov	r1, r5
 1078 0090 206B     		ldr	r0, [r4, #48]
 1079 0092 FFF7FEFF 		bl	lwm2m_list_add
 1080              	.LVL158:
 1081 0096 2063     		str	r0, [r4, #48]
 412:C:/Users/lenovo/Desktop/liteos/Project2/BearPi_LiteOS/components/connectivity/lwm2m/core\registration.c ****     {
 1082              		.loc 1 412 0
 1083 0098 2946     		mov	r1, r5
 1084 009a 2046     		mov	r0, r4
 1085 009c FFF7FEFF 		bl	transaction_send
 1086              	.LVL159:
 1087 00a0 10B9     		cbnz	r0, .L91
 414:C:/Users/lenovo/Desktop/liteos/Project2/BearPi_LiteOS/components/connectivity/lwm2m/core\registration.c ****     }
 1088              		.loc 1 414 0
 1089 00a2 0423     		movs	r3, #4
 1090 00a4 86F82030 		strb	r3, [r6, #32]
 1091              	.L91:
 417:C:/Users/lenovo/Desktop/liteos/Project2/BearPi_LiteOS/components/connectivity/lwm2m/core\registration.c ****     {
 1092              		.loc 1 417 0
 1093 00a8 1FB9     		cbnz	r7, .L99
 422:C:/Users/lenovo/Desktop/liteos/Project2/BearPi_LiteOS/components/connectivity/lwm2m/core\registration.c **** }
 1094              		.loc 1 422 0
 1095 00aa 0020     		movs	r0, #0
 1096              	.LVL160:
 1097              	.L85:
 423:C:/Users/lenovo/Desktop/liteos/Project2/BearPi_LiteOS/components/connectivity/lwm2m/core\registration.c **** 
 1098              		.loc 1 423 0
 1099 00ac 05B0     		add	sp, sp, #20
 1100              	.LCFI13:
 1101              		.cfi_remember_state
 1102              		.cfi_def_cfa_offset 28
 1103              		@ sp needed
 1104 00ae BDE8F083 		pop	{r4, r5, r6, r7, r8, r9, pc}
 1105              	.LVL161:
 1106              	.L99:
 1107              	.LCFI14:
 1108              		.cfi_restore_state
 419:C:/Users/lenovo/Desktop/liteos/Project2/BearPi_LiteOS/components/connectivity/lwm2m/core\registration.c ****     }
 1109              		.loc 1 419 0
 1110 00b2 4046     		mov	r0, r8
 1111 00b4 FFF7FEFF 		bl	lwm2m_free
 1112              	.LVL162:
 422:C:/Users/lenovo/Desktop/liteos/Project2/BearPi_LiteOS/components/connectivity/lwm2m/core\registration.c **** }
 1113              		.loc 1 422 0
 1114 00b8 0020     		movs	r0, #0
 1115 00ba F7E7     		b	.L85
 1116              	.LVL163:
ARM GAS  c:\Users\lenovo\AppData\Local\Temp\ccyoZgCp.s 			page 34


 1117              	.L92:
 377:C:/Users/lenovo/Desktop/liteos/Project2/BearPi_LiteOS/components/connectivity/lwm2m/core\registration.c **** 
 1118              		.loc 1 377 0
 1119 00bc A020     		movs	r0, #160
 1120              	.LVL164:
 1121 00be F5E7     		b	.L85
 1122              	.L101:
 1123              		.align	2
 1124              	.L100:
 1125 00c0 00000000 		.word	prv_handleRegistrationUpdateReply
 1126              		.cfi_endproc
 1127              	.LFE139:
 1129              		.section	.text.lwm2m_update_registration,"ax",%progbits
 1130              		.align	1
 1131              		.global	lwm2m_update_registration
 1132              		.syntax unified
 1133              		.thumb
 1134              		.thumb_func
 1135              		.fpu fpv4-sp-d16
 1137              	lwm2m_update_registration:
 1138              	.LFB140:
 429:C:/Users/lenovo/Desktop/liteos/Project2/BearPi_LiteOS/components/connectivity/lwm2m/core\registration.c ****     lwm2m_server_t *targetP;
 1139              		.loc 1 429 0
 1140              		.cfi_startproc
 1141              		@ args = 0, pretend = 0, frame = 0
 1142              		@ frame_needed = 0, uses_anonymous_args = 0
 1143              	.LVL165:
 1144 0000 F0B5     		push	{r4, r5, r6, r7, lr}
 1145              	.LCFI15:
 1146              		.cfi_def_cfa_offset 20
 1147              		.cfi_offset 4, -20
 1148              		.cfi_offset 5, -16
 1149              		.cfi_offset 6, -12
 1150              		.cfi_offset 7, -8
 1151              		.cfi_offset 14, -4
 1152 0002 83B0     		sub	sp, sp, #12
 1153              	.LCFI16:
 1154              		.cfi_def_cfa_offset 32
 1155 0004 0746     		mov	r7, r0
 1156 0006 0D46     		mov	r5, r1
 1157 0008 1646     		mov	r6, r2
 433:C:/Users/lenovo/Desktop/liteos/Project2/BearPi_LiteOS/components/connectivity/lwm2m/core\registration.c **** 
 1158              		.loc 1 433 0
 1159 000a FFF7FEFF 		bl	lwm2m_gettime
 1160              	.LVL166:
 1161 000e 0146     		mov	r1, r0
 1162 0010 3B78     		ldrb	r3, [r7]	@ zero_extendqisi2
 1163 0012 6BB1     		cbz	r3, .L117
 433:C:/Users/lenovo/Desktop/liteos/Project2/BearPi_LiteOS/components/connectivity/lwm2m/core\registration.c **** 
 1164              		.loc 1 433 0 is_stmt 0 discriminator 1
 1165 0014 012B     		cmp	r3, #1
 1166 0016 28D0     		beq	.L118
 433:C:/Users/lenovo/Desktop/liteos/Project2/BearPi_LiteOS/components/connectivity/lwm2m/core\registration.c **** 
 1167              		.loc 1 433 0 discriminator 3
 1168 0018 022B     		cmp	r3, #2
 1169 001a 28D0     		beq	.L119
 433:C:/Users/lenovo/Desktop/liteos/Project2/BearPi_LiteOS/components/connectivity/lwm2m/core\registration.c **** 
ARM GAS  c:\Users\lenovo\AppData\Local\Temp\ccyoZgCp.s 			page 35


 1170              		.loc 1 433 0 discriminator 5
 1171 001c 032B     		cmp	r3, #3
 1172 001e 28D0     		beq	.L120
 433:C:/Users/lenovo/Desktop/liteos/Project2/BearPi_LiteOS/components/connectivity/lwm2m/core\registration.c **** 
 1173              		.loc 1 433 0 discriminator 7
 1174 0020 042B     		cmp	r3, #4
 1175 0022 28D0     		beq	.L121
 433:C:/Users/lenovo/Desktop/liteos/Project2/BearPi_LiteOS/components/connectivity/lwm2m/core\registration.c **** 
 1176              		.loc 1 433 0 discriminator 9
 1177 0024 052B     		cmp	r3, #5
 1178 0026 01D0     		beq	.L127
 433:C:/Users/lenovo/Desktop/liteos/Project2/BearPi_LiteOS/components/connectivity/lwm2m/core\registration.c **** 
 1179              		.loc 1 433 0
 1180 0028 314B     		ldr	r3, .L129
 1181 002a 02E0     		b	.L103
 1182              	.L127:
 1183 002c 314B     		ldr	r3, .L129+4
 1184 002e 00E0     		b	.L103
 1185              	.L117:
 1186 0030 314B     		ldr	r3, .L129+8
 1187              	.L103:
 433:C:/Users/lenovo/Desktop/liteos/Project2/BearPi_LiteOS/components/connectivity/lwm2m/core\registration.c **** 
 1188              		.loc 1 433 0 discriminator 24
 1189 0032 0195     		str	r5, [sp, #4]
 1190 0034 0093     		str	r3, [sp]
 1191 0036 40F2B113 		movw	r3, #433
 1192 003a 304A     		ldr	r2, .L129+12
 1193 003c 3048     		ldr	r0, .L129+16
 1194 003e FFF7FEFF 		bl	atiny_printf
 1195              	.LVL167:
 437:C:/Users/lenovo/Desktop/liteos/Project2/BearPi_LiteOS/components/connectivity/lwm2m/core\registration.c ****     if (targetP == NULL)
 1196              		.loc 1 437 0 is_stmt 1 discriminator 24
 1197 0042 7C69     		ldr	r4, [r7, #20]
 1198              	.LVL168:
 438:C:/Users/lenovo/Desktop/liteos/Project2/BearPi_LiteOS/components/connectivity/lwm2m/core\registration.c ****     {
 1199              		.loc 1 438 0 discriminator 24
 1200 0044 5CBB     		cbnz	r4, .L105
 440:C:/Users/lenovo/Desktop/liteos/Project2/BearPi_LiteOS/components/connectivity/lwm2m/core\registration.c ****         {
 1201              		.loc 1 440 0
 1202 0046 0021     		movs	r1, #0
 1203 0048 3846     		mov	r0, r7
 1204 004a FFF7FEFF 		bl	object_getServers
 1205              	.LVL169:
 1206 004e B0F1FF3F 		cmp	r0, #-1
 1207 0052 24D1     		bne	.L105
 442:C:/Users/lenovo/Desktop/liteos/Project2/BearPi_LiteOS/components/connectivity/lwm2m/core\registration.c ****             return COAP_404_NOT_FOUND;
 1208              		.loc 1 442 0
 1209 0054 FFF7FEFF 		bl	lwm2m_gettime
 1210              	.LVL170:
 1211 0058 4FF4DD73 		mov	r3, #442
 1212 005c 274A     		ldr	r2, .L129+12
 1213 005e 0146     		mov	r1, r0
 1214 0060 2848     		ldr	r0, .L129+20
 1215 0062 FFF7FEFF 		bl	atiny_printf
 1216              	.LVL171:
 443:C:/Users/lenovo/Desktop/liteos/Project2/BearPi_LiteOS/components/connectivity/lwm2m/core\registration.c ****         }
 1217              		.loc 1 443 0
ARM GAS  c:\Users\lenovo\AppData\Local\Temp\ccyoZgCp.s 			page 36


 1218 0066 8420     		movs	r0, #132
 1219 0068 3AE0     		b	.L102
 1220              	.LVL172:
 1221              	.L118:
 433:C:/Users/lenovo/Desktop/liteos/Project2/BearPi_LiteOS/components/connectivity/lwm2m/core\registration.c **** 
 1222              		.loc 1 433 0
 1223 006a 274B     		ldr	r3, .L129+24
 1224 006c E1E7     		b	.L103
 1225              	.L119:
 1226 006e 274B     		ldr	r3, .L129+28
 1227 0070 DFE7     		b	.L103
 1228              	.L120:
 1229 0072 274B     		ldr	r3, .L129+32
 1230 0074 DDE7     		b	.L103
 1231              	.L121:
 1232 0076 274B     		ldr	r3, .L129+36
 1233 0078 DBE7     		b	.L103
 1234              	.LVL173:
 1235              	.L110:
 456:C:/Users/lenovo/Desktop/liteos/Project2/BearPi_LiteOS/components/connectivity/lwm2m/core\registration.c ****                     {
 1236              		.loc 1 456 0
 1237 007a 26B1     		cbz	r6, .L112
 458:C:/Users/lenovo/Desktop/liteos/Project2/BearPi_LiteOS/components/connectivity/lwm2m/core\registration.c ****                     }
 1238              		.loc 1 458 0
 1239 007c 0623     		movs	r3, #6
 1240 007e 84F82030 		strb	r3, [r4, #32]
 464:C:/Users/lenovo/Desktop/liteos/Project2/BearPi_LiteOS/components/connectivity/lwm2m/core\registration.c ****                 }
 1241              		.loc 1 464 0
 1242 0082 0020     		movs	r0, #0
 1243 0084 2CE0     		b	.L102
 1244              	.L112:
 462:C:/Users/lenovo/Desktop/liteos/Project2/BearPi_LiteOS/components/connectivity/lwm2m/core\registration.c ****                     }
 1245              		.loc 1 462 0
 1246 0086 0523     		movs	r3, #5
 1247 0088 84F82030 		strb	r3, [r4, #32]
 464:C:/Users/lenovo/Desktop/liteos/Project2/BearPi_LiteOS/components/connectivity/lwm2m/core\registration.c ****                 }
 1248              		.loc 1 464 0
 1249 008c 0020     		movs	r0, #0
 1250 008e 27E0     		b	.L102
 1251              	.L108:
 484:C:/Users/lenovo/Desktop/liteos/Project2/BearPi_LiteOS/components/connectivity/lwm2m/core\registration.c ****                     || targetP->status == STATE_REG_UPDATE_PENDING)
 1252              		.loc 1 484 0
 1253 0090 94F82030 		ldrb	r3, [r4, #32]	@ zero_extendqisi2
 1254 0094 022B     		cmp	r3, #2
 1255 0096 18D0     		beq	.L113
 485:C:/Users/lenovo/Desktop/liteos/Project2/BearPi_LiteOS/components/connectivity/lwm2m/core\registration.c ****             {
 1256              		.loc 1 485 0
 1257 0098 042B     		cmp	r3, #4
 1258 009a 16D0     		beq	.L113
 1259              	.L109:
 497:C:/Users/lenovo/Desktop/liteos/Project2/BearPi_LiteOS/components/connectivity/lwm2m/core\registration.c ****     }
 1260              		.loc 1 497 0
 1261 009c 2468     		ldr	r4, [r4]
 1262              	.LVL174:
 1263              	.L105:
 446:C:/Users/lenovo/Desktop/liteos/Project2/BearPi_LiteOS/components/connectivity/lwm2m/core\registration.c ****     {
 1264              		.loc 1 446 0
ARM GAS  c:\Users\lenovo\AppData\Local\Temp\ccyoZgCp.s 			page 37


 1265 009e ECB1     		cbz	r4, .L128
 448:C:/Users/lenovo/Desktop/liteos/Project2/BearPi_LiteOS/components/connectivity/lwm2m/core\registration.c ****         {
 1266              		.loc 1 448 0
 1267 00a0 002D     		cmp	r5, #0
 1268 00a2 F5D0     		beq	.L108
 450:C:/Users/lenovo/Desktop/liteos/Project2/BearPi_LiteOS/components/connectivity/lwm2m/core\registration.c ****             {
 1269              		.loc 1 450 0
 1270 00a4 E388     		ldrh	r3, [r4, #6]
 1271 00a6 AB42     		cmp	r3, r5
 1272 00a8 F8D1     		bne	.L109
 453:C:/Users/lenovo/Desktop/liteos/Project2/BearPi_LiteOS/components/connectivity/lwm2m/core\registration.c ****                         || targetP->status == STATE_REG_UPDATE_PENDING)
 1273              		.loc 1 453 0
 1274 00aa 94F82030 		ldrb	r3, [r4, #32]	@ zero_extendqisi2
 1275 00ae 022B     		cmp	r3, #2
 1276 00b0 E3D0     		beq	.L110
 454:C:/Users/lenovo/Desktop/liteos/Project2/BearPi_LiteOS/components/connectivity/lwm2m/core\registration.c ****                 {
 1277              		.loc 1 454 0
 1278 00b2 042B     		cmp	r3, #4
 1279 00b4 E1D0     		beq	.L110
 467:C:/Users/lenovo/Desktop/liteos/Project2/BearPi_LiteOS/components/connectivity/lwm2m/core\registration.c ****                 {
 1280              		.loc 1 467 0
 1281 00b6 053B     		subs	r3, r3, #5
 1282 00b8 DBB2     		uxtb	r3, r3
 466:C:/Users/lenovo/Desktop/liteos/Project2/BearPi_LiteOS/components/connectivity/lwm2m/core\registration.c ****                          || (targetP->status == STATE_REG_UPDATE_NEEDED))
 1283              		.loc 1 466 0
 1284 00ba 012B     		cmp	r3, #1
 1285 00bc 14D8     		bhi	.L123
 470:C:/Users/lenovo/Desktop/liteos/Project2/BearPi_LiteOS/components/connectivity/lwm2m/core\registration.c ****                     {
 1286              		.loc 1 470 0
 1287 00be AEB1     		cbz	r6, .L124
 472:C:/Users/lenovo/Desktop/liteos/Project2/BearPi_LiteOS/components/connectivity/lwm2m/core\registration.c ****                     }
 1288              		.loc 1 472 0
 1289 00c0 0623     		movs	r3, #6
 1290 00c2 84F82030 		strb	r3, [r4, #32]
 474:C:/Users/lenovo/Desktop/liteos/Project2/BearPi_LiteOS/components/connectivity/lwm2m/core\registration.c ****                 }
 1291              		.loc 1 474 0
 1292 00c6 0020     		movs	r0, #0
 1293 00c8 0AE0     		b	.L102
 1294              	.L113:
 487:C:/Users/lenovo/Desktop/liteos/Project2/BearPi_LiteOS/components/connectivity/lwm2m/core\registration.c ****                 {
 1295              		.loc 1 487 0
 1296 00ca 1EB1     		cbz	r6, .L114
 489:C:/Users/lenovo/Desktop/liteos/Project2/BearPi_LiteOS/components/connectivity/lwm2m/core\registration.c ****                 }
 1297              		.loc 1 489 0
 1298 00cc 0623     		movs	r3, #6
 1299 00ce 84F82030 		strb	r3, [r4, #32]
 1300 00d2 E3E7     		b	.L109
 1301              	.L114:
 493:C:/Users/lenovo/Desktop/liteos/Project2/BearPi_LiteOS/components/connectivity/lwm2m/core\registration.c ****                 }
 1302              		.loc 1 493 0
 1303 00d4 0523     		movs	r3, #5
 1304 00d6 84F82030 		strb	r3, [r4, #32]
 1305 00da DFE7     		b	.L109
 1306              	.L128:
 500:C:/Users/lenovo/Desktop/liteos/Project2/BearPi_LiteOS/components/connectivity/lwm2m/core\registration.c ****             && targetP == NULL)
 1307              		.loc 1 500 0
 1308 00dc 15B9     		cbnz	r5, .L125
ARM GAS  c:\Users\lenovo\AppData\Local\Temp\ccyoZgCp.s 			page 38


 435:C:/Users/lenovo/Desktop/liteos/Project2/BearPi_LiteOS/components/connectivity/lwm2m/core\registration.c **** 
 1309              		.loc 1 435 0
 1310 00de 0020     		movs	r0, #0
 1311              	.LVL175:
 1312              	.L102:
 508:C:/Users/lenovo/Desktop/liteos/Project2/BearPi_LiteOS/components/connectivity/lwm2m/core\registration.c **** //serverlistobjectlist
 1313              		.loc 1 508 0
 1314 00e0 03B0     		add	sp, sp, #12
 1315              	.LCFI17:
 1316              		.cfi_remember_state
 1317              		.cfi_def_cfa_offset 20
 1318              		@ sp needed
 1319 00e2 F0BD     		pop	{r4, r5, r6, r7, pc}
 1320              	.LVL176:
 1321              	.L125:
 1322              	.LCFI18:
 1323              		.cfi_restore_state
 504:C:/Users/lenovo/Desktop/liteos/Project2/BearPi_LiteOS/components/connectivity/lwm2m/core\registration.c ****     }
 1324              		.loc 1 504 0
 1325 00e4 8420     		movs	r0, #132
 1326              	.LVL177:
 507:C:/Users/lenovo/Desktop/liteos/Project2/BearPi_LiteOS/components/connectivity/lwm2m/core\registration.c **** }
 1327              		.loc 1 507 0
 1328 00e6 FBE7     		b	.L102
 1329              	.LVL178:
 1330              	.L123:
 478:C:/Users/lenovo/Desktop/liteos/Project2/BearPi_LiteOS/components/connectivity/lwm2m/core\registration.c ****                 }
 1331              		.loc 1 478 0
 1332 00e8 8020     		movs	r0, #128
 1333 00ea F9E7     		b	.L102
 1334              	.L124:
 474:C:/Users/lenovo/Desktop/liteos/Project2/BearPi_LiteOS/components/connectivity/lwm2m/core\registration.c ****                 }
 1335              		.loc 1 474 0
 1336 00ec 0020     		movs	r0, #0
 1337 00ee F7E7     		b	.L102
 1338              	.L130:
 1339              		.align	2
 1340              	.L129:
 1341 00f0 6C000000 		.word	.LC20
 1342 00f4 74000000 		.word	.LC21
 1343 00f8 1C000000 		.word	.LC16
 1344 00fc 00000000 		.word	.LANCHOR2
 1345 0100 80000000 		.word	.LC22
 1346 0104 AC000000 		.word	.LC23
 1347 0108 00000000 		.word	.LC15
 1348 010c 2C000000 		.word	.LC17
 1349 0110 40000000 		.word	.LC18
 1350 0114 58000000 		.word	.LC19
 1351              		.cfi_endproc
 1352              	.LFE140:
 1354              		.section	.text.registration_start,"ax",%progbits
 1355              		.align	1
 1356              		.global	registration_start
 1357              		.syntax unified
 1358              		.thumb
 1359              		.thumb_func
 1360              		.fpu fpv4-sp-d16
ARM GAS  c:\Users\lenovo\AppData\Local\Temp\ccyoZgCp.s 			page 39


 1362              	registration_start:
 1363              	.LFB141:
 511:C:/Users/lenovo/Desktop/liteos/Project2/BearPi_LiteOS/components/connectivity/lwm2m/core\registration.c ****     lwm2m_server_t *targetP;
 1364              		.loc 1 511 0
 1365              		.cfi_startproc
 1366              		@ args = 0, pretend = 0, frame = 0
 1367              		@ frame_needed = 0, uses_anonymous_args = 0
 1368              	.LVL179:
 1369 0000 30B5     		push	{r4, r5, lr}
 1370              	.LCFI19:
 1371              		.cfi_def_cfa_offset 12
 1372              		.cfi_offset 4, -12
 1373              		.cfi_offset 5, -8
 1374              		.cfi_offset 14, -4
 1375 0002 83B0     		sub	sp, sp, #12
 1376              	.LCFI20:
 1377              		.cfi_def_cfa_offset 24
 1378 0004 0546     		mov	r5, r0
 515:C:/Users/lenovo/Desktop/liteos/Project2/BearPi_LiteOS/components/connectivity/lwm2m/core\registration.c **** 
 1379              		.loc 1 515 0
 1380 0006 FFF7FEFF 		bl	lwm2m_gettime
 1381              	.LVL180:
 1382 000a 0146     		mov	r1, r0
 1383 000c 2B78     		ldrb	r3, [r5]	@ zero_extendqisi2
 1384 000e 6BB1     		cbz	r3, .L138
 515:C:/Users/lenovo/Desktop/liteos/Project2/BearPi_LiteOS/components/connectivity/lwm2m/core\registration.c **** 
 1385              		.loc 1 515 0 is_stmt 0 discriminator 1
 1386 0010 012B     		cmp	r3, #1
 1387 0012 16D0     		beq	.L139
 515:C:/Users/lenovo/Desktop/liteos/Project2/BearPi_LiteOS/components/connectivity/lwm2m/core\registration.c **** 
 1388              		.loc 1 515 0 discriminator 3
 1389 0014 022B     		cmp	r3, #2
 1390 0016 16D0     		beq	.L140
 515:C:/Users/lenovo/Desktop/liteos/Project2/BearPi_LiteOS/components/connectivity/lwm2m/core\registration.c **** 
 1391              		.loc 1 515 0 discriminator 5
 1392 0018 032B     		cmp	r3, #3
 1393 001a 16D0     		beq	.L141
 515:C:/Users/lenovo/Desktop/liteos/Project2/BearPi_LiteOS/components/connectivity/lwm2m/core\registration.c **** 
 1394              		.loc 1 515 0 discriminator 7
 1395 001c 042B     		cmp	r3, #4
 1396 001e 16D0     		beq	.L142
 515:C:/Users/lenovo/Desktop/liteos/Project2/BearPi_LiteOS/components/connectivity/lwm2m/core\registration.c **** 
 1397              		.loc 1 515 0 discriminator 9
 1398 0020 052B     		cmp	r3, #5
 1399 0022 01D0     		beq	.L145
 515:C:/Users/lenovo/Desktop/liteos/Project2/BearPi_LiteOS/components/connectivity/lwm2m/core\registration.c **** 
 1400              		.loc 1 515 0
 1401 0024 134B     		ldr	r3, .L146
 1402 0026 02E0     		b	.L132
 1403              	.L145:
 1404 0028 134B     		ldr	r3, .L146+4
 1405 002a 00E0     		b	.L132
 1406              	.L138:
 1407 002c 134B     		ldr	r3, .L146+8
 1408              	.L132:
 515:C:/Users/lenovo/Desktop/liteos/Project2/BearPi_LiteOS/components/connectivity/lwm2m/core\registration.c **** 
 1409              		.loc 1 515 0 discriminator 24
ARM GAS  c:\Users\lenovo\AppData\Local\Temp\ccyoZgCp.s 			page 40


 1410 002e 0093     		str	r3, [sp]
 1411 0030 40F20323 		movw	r3, #515
 1412 0034 124A     		ldr	r2, .L146+12
 1413 0036 1348     		ldr	r0, .L146+16
 1414 0038 FFF7FEFF 		bl	atiny_printf
 1415              	.LVL181:
 519:C:/Users/lenovo/Desktop/liteos/Project2/BearPi_LiteOS/components/connectivity/lwm2m/core\registration.c ****     while (targetP != NULL && result == COAP_NO_ERROR)
 1416              		.loc 1 519 0 is_stmt 1 discriminator 24
 1417 003c 6C69     		ldr	r4, [r5, #20]
 1418              	.LVL182:
 517:C:/Users/lenovo/Desktop/liteos/Project2/BearPi_LiteOS/components/connectivity/lwm2m/core\registration.c **** 
 1419              		.loc 1 517 0 discriminator 24
 1420 003e 0020     		movs	r0, #0
 520:C:/Users/lenovo/Desktop/liteos/Project2/BearPi_LiteOS/components/connectivity/lwm2m/core\registration.c ****     {
 1421              		.loc 1 520 0 discriminator 24
 1422 0040 0CE0     		b	.L133
 1423              	.LVL183:
 1424              	.L139:
 515:C:/Users/lenovo/Desktop/liteos/Project2/BearPi_LiteOS/components/connectivity/lwm2m/core\registration.c **** 
 1425              		.loc 1 515 0
 1426 0042 114B     		ldr	r3, .L146+20
 1427 0044 F3E7     		b	.L132
 1428              	.L140:
 1429 0046 114B     		ldr	r3, .L146+24
 1430 0048 F1E7     		b	.L132
 1431              	.L141:
 1432 004a 114B     		ldr	r3, .L146+28
 1433 004c EFE7     		b	.L132
 1434              	.L142:
 1435 004e 114B     		ldr	r3, .L146+32
 1436 0050 EDE7     		b	.L132
 1437              	.LVL184:
 1438              	.L134:
 525:C:/Users/lenovo/Desktop/liteos/Project2/BearPi_LiteOS/components/connectivity/lwm2m/core\registration.c ****         }
 1439              		.loc 1 525 0
 1440 0052 2146     		mov	r1, r4
 1441 0054 2846     		mov	r0, r5
 1442              	.LVL185:
 1443 0056 FFF7FEFF 		bl	prv_register
 1444              	.LVL186:
 1445              	.L135:
 527:C:/Users/lenovo/Desktop/liteos/Project2/BearPi_LiteOS/components/connectivity/lwm2m/core\registration.c ****     }
 1446              		.loc 1 527 0
 1447 005a 2468     		ldr	r4, [r4]
 1448              	.LVL187:
 1449              	.L133:
 520:C:/Users/lenovo/Desktop/liteos/Project2/BearPi_LiteOS/components/connectivity/lwm2m/core\registration.c ****     {
 1450              		.loc 1 520 0
 1451 005c 3CB1     		cbz	r4, .L136
 520:C:/Users/lenovo/Desktop/liteos/Project2/BearPi_LiteOS/components/connectivity/lwm2m/core\registration.c ****     {
 1452              		.loc 1 520 0 is_stmt 0 discriminator 1
 1453 005e 30B9     		cbnz	r0, .L136
 522:C:/Users/lenovo/Desktop/liteos/Project2/BearPi_LiteOS/components/connectivity/lwm2m/core\registration.c ****                 || targetP->status == STATE_REG_FAILED)
 1454              		.loc 1 522 0 is_stmt 1
 1455 0060 94F82030 		ldrb	r3, [r4, #32]	@ zero_extendqisi2
 1456 0064 002B     		cmp	r3, #0
 1457 0066 F4D0     		beq	.L134
ARM GAS  c:\Users\lenovo\AppData\Local\Temp\ccyoZgCp.s 			page 41


 523:C:/Users/lenovo/Desktop/liteos/Project2/BearPi_LiteOS/components/connectivity/lwm2m/core\registration.c ****         {
 1458              		.loc 1 523 0
 1459 0068 032B     		cmp	r3, #3
 1460 006a F6D1     		bne	.L135
 1461 006c F1E7     		b	.L134
 1462              	.L136:
 531:C:/Users/lenovo/Desktop/liteos/Project2/BearPi_LiteOS/components/connectivity/lwm2m/core\registration.c **** 
 1463              		.loc 1 531 0
 1464 006e 03B0     		add	sp, sp, #12
 1465              	.LCFI21:
 1466              		.cfi_def_cfa_offset 12
 1467              		@ sp needed
 1468 0070 30BD     		pop	{r4, r5, pc}
 1469              	.LVL188:
 1470              	.L147:
 1471 0072 00BF     		.align	2
 1472              	.L146:
 1473 0074 6C000000 		.word	.LC20
 1474 0078 74000000 		.word	.LC21
 1475 007c 1C000000 		.word	.LC16
 1476 0080 00000000 		.word	.LANCHOR3
 1477 0084 00000000 		.word	.LC24
 1478 0088 00000000 		.word	.LC15
 1479 008c 2C000000 		.word	.LC17
 1480 0090 40000000 		.word	.LC18
 1481 0094 58000000 		.word	.LC19
 1482              		.cfi_endproc
 1483              	.LFE141:
 1485              		.section	.text.registration_getStatus,"ax",%progbits
 1486              		.align	1
 1487              		.global	registration_getStatus
 1488              		.syntax unified
 1489              		.thumb
 1490              		.thumb_func
 1491              		.fpu fpv4-sp-d16
 1493              	registration_getStatus:
 1494              	.LFB142:
 540:C:/Users/lenovo/Desktop/liteos/Project2/BearPi_LiteOS/components/connectivity/lwm2m/core\registration.c ****     lwm2m_server_t *targetP;
 1495              		.loc 1 540 0
 1496              		.cfi_startproc
 1497              		@ args = 0, pretend = 0, frame = 0
 1498              		@ frame_needed = 0, uses_anonymous_args = 0
 1499              	.LVL189:
 1500 0000 30B5     		push	{r4, r5, lr}
 1501              	.LCFI22:
 1502              		.cfi_def_cfa_offset 12
 1503              		.cfi_offset 4, -12
 1504              		.cfi_offset 5, -8
 1505              		.cfi_offset 14, -4
 1506 0002 83B0     		sub	sp, sp, #12
 1507              	.LCFI23:
 1508              		.cfi_def_cfa_offset 24
 1509 0004 0446     		mov	r4, r0
 544:C:/Users/lenovo/Desktop/liteos/Project2/BearPi_LiteOS/components/connectivity/lwm2m/core\registration.c **** 
 1510              		.loc 1 544 0
 1511 0006 FFF7FEFF 		bl	lwm2m_gettime
 1512              	.LVL190:
ARM GAS  c:\Users\lenovo\AppData\Local\Temp\ccyoZgCp.s 			page 42


 1513 000a 0146     		mov	r1, r0
 1514 000c 2378     		ldrb	r3, [r4]	@ zero_extendqisi2
 1515 000e 6BB1     		cbz	r3, .L158
 544:C:/Users/lenovo/Desktop/liteos/Project2/BearPi_LiteOS/components/connectivity/lwm2m/core\registration.c **** 
 1516              		.loc 1 544 0 is_stmt 0 discriminator 1
 1517 0010 012B     		cmp	r3, #1
 1518 0012 16D0     		beq	.L159
 544:C:/Users/lenovo/Desktop/liteos/Project2/BearPi_LiteOS/components/connectivity/lwm2m/core\registration.c **** 
 1519              		.loc 1 544 0 discriminator 3
 1520 0014 022B     		cmp	r3, #2
 1521 0016 16D0     		beq	.L160
 544:C:/Users/lenovo/Desktop/liteos/Project2/BearPi_LiteOS/components/connectivity/lwm2m/core\registration.c **** 
 1522              		.loc 1 544 0 discriminator 5
 1523 0018 032B     		cmp	r3, #3
 1524 001a 16D0     		beq	.L161
 544:C:/Users/lenovo/Desktop/liteos/Project2/BearPi_LiteOS/components/connectivity/lwm2m/core\registration.c **** 
 1525              		.loc 1 544 0 discriminator 7
 1526 001c 042B     		cmp	r3, #4
 1527 001e 16D0     		beq	.L162
 544:C:/Users/lenovo/Desktop/liteos/Project2/BearPi_LiteOS/components/connectivity/lwm2m/core\registration.c **** 
 1528              		.loc 1 544 0 discriminator 9
 1529 0020 052B     		cmp	r3, #5
 1530 0022 01D0     		beq	.L198
 544:C:/Users/lenovo/Desktop/liteos/Project2/BearPi_LiteOS/components/connectivity/lwm2m/core\registration.c **** 
 1531              		.loc 1 544 0
 1532 0024 464B     		ldr	r3, .L202
 1533 0026 02E0     		b	.L149
 1534              	.L198:
 1535 0028 464B     		ldr	r3, .L202+4
 1536 002a 00E0     		b	.L149
 1537              	.L158:
 1538 002c 464B     		ldr	r3, .L202+8
 1539              	.L149:
 544:C:/Users/lenovo/Desktop/liteos/Project2/BearPi_LiteOS/components/connectivity/lwm2m/core\registration.c **** 
 1540              		.loc 1 544 0 discriminator 24
 1541 002e 0093     		str	r3, [sp]
 1542 0030 4FF40873 		mov	r3, #544
 1543 0034 454A     		ldr	r2, .L202+12
 1544 0036 4648     		ldr	r0, .L202+16
 1545 0038 FFF7FEFF 		bl	atiny_printf
 1546              	.LVL191:
 546:C:/Users/lenovo/Desktop/liteos/Project2/BearPi_LiteOS/components/connectivity/lwm2m/core\registration.c ****     reg_status = STATE_REG_FAILED;
 1547              		.loc 1 546 0 is_stmt 1 discriminator 24
 1548 003c 6469     		ldr	r4, [r4, #20]
 1549              	.LVL192:
 547:C:/Users/lenovo/Desktop/liteos/Project2/BearPi_LiteOS/components/connectivity/lwm2m/core\registration.c **** 
 1550              		.loc 1 547 0 discriminator 24
 1551 003e 0325     		movs	r5, #3
 549:C:/Users/lenovo/Desktop/liteos/Project2/BearPi_LiteOS/components/connectivity/lwm2m/core\registration.c ****     {
 1552              		.loc 1 549 0 discriminator 24
 1553 0040 4FE0     		b	.L150
 1554              	.LVL193:
 1555              	.L159:
 544:C:/Users/lenovo/Desktop/liteos/Project2/BearPi_LiteOS/components/connectivity/lwm2m/core\registration.c **** 
 1556              		.loc 1 544 0
 1557 0042 444B     		ldr	r3, .L202+20
 1558 0044 F3E7     		b	.L149
ARM GAS  c:\Users\lenovo\AppData\Local\Temp\ccyoZgCp.s 			page 43


 1559              	.L160:
 1560 0046 444B     		ldr	r3, .L202+24
 1561 0048 F1E7     		b	.L149
 1562              	.L161:
 1563 004a 444B     		ldr	r3, .L202+28
 1564 004c EFE7     		b	.L149
 1565              	.L162:
 1566 004e 444B     		ldr	r3, .L202+32
 1567 0050 EDE7     		b	.L149
 1568              	.LVL194:
 1569              	.L201:
 551:C:/Users/lenovo/Desktop/liteos/Project2/BearPi_LiteOS/components/connectivity/lwm2m/core\registration.c ****         switch (targetP->status)
 1570              		.loc 1 551 0
 1571 0052 444B     		ldr	r3, .L202+36
 1572 0054 00E0     		b	.L151
 1573              	.L164:
 1574 0056 444B     		ldr	r3, .L202+40
 1575              	.L151:
 551:C:/Users/lenovo/Desktop/liteos/Project2/BearPi_LiteOS/components/connectivity/lwm2m/core\registration.c ****         switch (targetP->status)
 1576              		.loc 1 551 0 is_stmt 0 discriminator 60
 1577 0058 0093     		str	r3, [sp]
 1578 005a 40F22723 		movw	r3, #551
 1579 005e 3B4A     		ldr	r2, .L202+12
 1580 0060 4248     		ldr	r0, .L202+44
 1581 0062 FFF7FEFF 		bl	atiny_printf
 1582              	.LVL195:
 552:C:/Users/lenovo/Desktop/liteos/Project2/BearPi_LiteOS/components/connectivity/lwm2m/core\registration.c ****         {
 1583              		.loc 1 552 0 is_stmt 1 discriminator 60
 1584 0066 94F82030 		ldrb	r3, [r4, #32]	@ zero_extendqisi2
 1585 006a 013B     		subs	r3, r3, #1
 1586 006c 052B     		cmp	r3, #5
 1587 006e 23D8     		bhi	.L153
 1588 0070 DFE803F0 		tbb	[pc, r3]
 1589              	.L154:
 1590 0074 21       		.byte	(.L179-.L154)/2
 1591 0075 1D       		.byte	(.L155-.L154)/2
 1592 0076 22       		.byte	(.L153-.L154)/2
 1593 0077 1D       		.byte	(.L155-.L154)/2
 1594 0078 1D       		.byte	(.L155-.L154)/2
 1595 0079 1D       		.byte	(.L155-.L154)/2
 1596              		.p2align 1
 1597              	.L165:
 551:C:/Users/lenovo/Desktop/liteos/Project2/BearPi_LiteOS/components/connectivity/lwm2m/core\registration.c ****         switch (targetP->status)
 1598              		.loc 1 551 0
 1599 007a 3D4B     		ldr	r3, .L202+48
 1600 007c ECE7     		b	.L151
 1601              	.L166:
 1602 007e 3D4B     		ldr	r3, .L202+52
 1603 0080 EAE7     		b	.L151
 1604              	.L167:
 1605 0082 3D4B     		ldr	r3, .L202+56
 1606 0084 E8E7     		b	.L151
 1607              	.L168:
 1608 0086 3D4B     		ldr	r3, .L202+60
 1609 0088 E6E7     		b	.L151
 1610              	.L169:
 1611 008a 3D4B     		ldr	r3, .L202+64
ARM GAS  c:\Users\lenovo\AppData\Local\Temp\ccyoZgCp.s 			page 44


 1612 008c E4E7     		b	.L151
 1613              	.L170:
 1614 008e 3D4B     		ldr	r3, .L202+68
 1615 0090 E2E7     		b	.L151
 1616              	.L171:
 1617 0092 3D4B     		ldr	r3, .L202+72
 1618 0094 E0E7     		b	.L151
 1619              	.L172:
 1620 0096 3D4B     		ldr	r3, .L202+76
 1621 0098 DEE7     		b	.L151
 1622              	.L173:
 1623 009a 3D4B     		ldr	r3, .L202+80
 1624 009c DCE7     		b	.L151
 1625              	.L174:
 1626 009e 3D4B     		ldr	r3, .L202+84
 1627 00a0 DAE7     		b	.L151
 1628              	.L175:
 1629 00a2 3D4B     		ldr	r3, .L202+88
 1630 00a4 D8E7     		b	.L151
 1631              	.L176:
 1632 00a6 3D4B     		ldr	r3, .L202+92
 1633 00a8 D6E7     		b	.L151
 1634              	.L177:
 1635 00aa 3D4B     		ldr	r3, .L202+96
 1636 00ac D4E7     		b	.L151
 1637              	.L155:
 558:C:/Users/lenovo/Desktop/liteos/Project2/BearPi_LiteOS/components/connectivity/lwm2m/core\registration.c ****             {
 1638              		.loc 1 558 0
 1639 00ae 032D     		cmp	r5, #3
 1640 00b0 02D1     		bne	.L153
 560:C:/Users/lenovo/Desktop/liteos/Project2/BearPi_LiteOS/components/connectivity/lwm2m/core\registration.c ****             }
 1641              		.loc 1 560 0
 1642 00b2 0225     		movs	r5, #2
 1643              	.LVL196:
 1644 00b4 00E0     		b	.L153
 1645              	.LVL197:
 1646              	.L179:
 565:C:/Users/lenovo/Desktop/liteos/Project2/BearPi_LiteOS/components/connectivity/lwm2m/core\registration.c ****             break;
 1647              		.loc 1 565 0
 1648 00b6 0125     		movs	r5, #1
 1649              	.LVL198:
 1650              	.L153:
 574:C:/Users/lenovo/Desktop/liteos/Project2/BearPi_LiteOS/components/connectivity/lwm2m/core\registration.c **** 
 1651              		.loc 1 574 0
 1652 00b8 FFF7FEFF 		bl	lwm2m_gettime
 1653              	.LVL199:
 1654 00bc 0146     		mov	r1, r0
 1655 00be 3DB1     		cbz	r5, .L181
 574:C:/Users/lenovo/Desktop/liteos/Project2/BearPi_LiteOS/components/connectivity/lwm2m/core\registration.c **** 
 1656              		.loc 1 574 0 is_stmt 0 discriminator 1
 1657 00c0 012D     		cmp	r5, #1
 1658 00c2 34D0     		beq	.L182
 574:C:/Users/lenovo/Desktop/liteos/Project2/BearPi_LiteOS/components/connectivity/lwm2m/core\registration.c **** 
 1659              		.loc 1 574 0 discriminator 3
 1660 00c4 022D     		cmp	r5, #2
 1661 00c6 34D0     		beq	.L183
 574:C:/Users/lenovo/Desktop/liteos/Project2/BearPi_LiteOS/components/connectivity/lwm2m/core\registration.c **** 
ARM GAS  c:\Users\lenovo\AppData\Local\Temp\ccyoZgCp.s 			page 45


 1662              		.loc 1 574 0 discriminator 5
 1663 00c8 032D     		cmp	r5, #3
 1664 00ca 34D0     		beq	.L199
 574:C:/Users/lenovo/Desktop/liteos/Project2/BearPi_LiteOS/components/connectivity/lwm2m/core\registration.c **** 
 1665              		.loc 1 574 0
 1666 00cc 1C4B     		ldr	r3, .L202
 1667 00ce 00E0     		b	.L156
 1668              	.L181:
 1669 00d0 254B     		ldr	r3, .L202+40
 1670              	.L156:
 574:C:/Users/lenovo/Desktop/liteos/Project2/BearPi_LiteOS/components/connectivity/lwm2m/core\registration.c **** 
 1671              		.loc 1 574 0 discriminator 60
 1672 00d2 0093     		str	r3, [sp]
 1673 00d4 40F23E23 		movw	r3, #574
 1674 00d8 1C4A     		ldr	r2, .L202+12
 1675 00da 3248     		ldr	r0, .L202+100
 1676 00dc FFF7FEFF 		bl	atiny_printf
 1677              	.LVL200:
 576:C:/Users/lenovo/Desktop/liteos/Project2/BearPi_LiteOS/components/connectivity/lwm2m/core\registration.c ****     }
 1678              		.loc 1 576 0 is_stmt 1 discriminator 60
 1679 00e0 2468     		ldr	r4, [r4]
 1680              	.LVL201:
 1681              	.L150:
 549:C:/Users/lenovo/Desktop/liteos/Project2/BearPi_LiteOS/components/connectivity/lwm2m/core\registration.c ****     {
 1682              		.loc 1 549 0
 1683 00e2 54B3     		cbz	r4, .L200
 551:C:/Users/lenovo/Desktop/liteos/Project2/BearPi_LiteOS/components/connectivity/lwm2m/core\registration.c ****         switch (targetP->status)
 1684              		.loc 1 551 0
 1685 00e4 FFF7FEFF 		bl	lwm2m_gettime
 1686              	.LVL202:
 1687 00e8 0146     		mov	r1, r0
 1688 00ea 94F82030 		ldrb	r3, [r4, #32]	@ zero_extendqisi2
 1689 00ee 002B     		cmp	r3, #0
 1690 00f0 B1D0     		beq	.L164
 551:C:/Users/lenovo/Desktop/liteos/Project2/BearPi_LiteOS/components/connectivity/lwm2m/core\registration.c ****         switch (targetP->status)
 1691              		.loc 1 551 0 is_stmt 0 discriminator 1
 1692 00f2 012B     		cmp	r3, #1
 1693 00f4 C1D0     		beq	.L165
 551:C:/Users/lenovo/Desktop/liteos/Project2/BearPi_LiteOS/components/connectivity/lwm2m/core\registration.c ****         switch (targetP->status)
 1694              		.loc 1 551 0 discriminator 3
 1695 00f6 022B     		cmp	r3, #2
 1696 00f8 C1D0     		beq	.L166
 551:C:/Users/lenovo/Desktop/liteos/Project2/BearPi_LiteOS/components/connectivity/lwm2m/core\registration.c ****         switch (targetP->status)
 1697              		.loc 1 551 0 discriminator 5
 1698 00fa 032B     		cmp	r3, #3
 1699 00fc C1D0     		beq	.L167
 551:C:/Users/lenovo/Desktop/liteos/Project2/BearPi_LiteOS/components/connectivity/lwm2m/core\registration.c ****         switch (targetP->status)
 1700              		.loc 1 551 0 discriminator 7
 1701 00fe 042B     		cmp	r3, #4
 1702 0100 C1D0     		beq	.L168
 551:C:/Users/lenovo/Desktop/liteos/Project2/BearPi_LiteOS/components/connectivity/lwm2m/core\registration.c ****         switch (targetP->status)
 1703              		.loc 1 551 0 discriminator 9
 1704 0102 052B     		cmp	r3, #5
 1705 0104 C1D0     		beq	.L169
 551:C:/Users/lenovo/Desktop/liteos/Project2/BearPi_LiteOS/components/connectivity/lwm2m/core\registration.c ****         switch (targetP->status)
 1706              		.loc 1 551 0 discriminator 11
 1707 0106 062B     		cmp	r3, #6
ARM GAS  c:\Users\lenovo\AppData\Local\Temp\ccyoZgCp.s 			page 46


 1708 0108 C1D0     		beq	.L170
 551:C:/Users/lenovo/Desktop/liteos/Project2/BearPi_LiteOS/components/connectivity/lwm2m/core\registration.c ****         switch (targetP->status)
 1709              		.loc 1 551 0 discriminator 13
 1710 010a 072B     		cmp	r3, #7
 1711 010c C1D0     		beq	.L171
 551:C:/Users/lenovo/Desktop/liteos/Project2/BearPi_LiteOS/components/connectivity/lwm2m/core\registration.c ****         switch (targetP->status)
 1712              		.loc 1 551 0 discriminator 15
 1713 010e 082B     		cmp	r3, #8
 1714 0110 C1D0     		beq	.L172
 551:C:/Users/lenovo/Desktop/liteos/Project2/BearPi_LiteOS/components/connectivity/lwm2m/core\registration.c ****         switch (targetP->status)
 1715              		.loc 1 551 0 discriminator 17
 1716 0112 092B     		cmp	r3, #9
 1717 0114 C1D0     		beq	.L173
 551:C:/Users/lenovo/Desktop/liteos/Project2/BearPi_LiteOS/components/connectivity/lwm2m/core\registration.c ****         switch (targetP->status)
 1718              		.loc 1 551 0 discriminator 19
 1719 0116 0A2B     		cmp	r3, #10
 1720 0118 C1D0     		beq	.L174
 551:C:/Users/lenovo/Desktop/liteos/Project2/BearPi_LiteOS/components/connectivity/lwm2m/core\registration.c ****         switch (targetP->status)
 1721              		.loc 1 551 0 discriminator 21
 1722 011a 0C2B     		cmp	r3, #12
 1723 011c C1D0     		beq	.L175
 551:C:/Users/lenovo/Desktop/liteos/Project2/BearPi_LiteOS/components/connectivity/lwm2m/core\registration.c ****         switch (targetP->status)
 1724              		.loc 1 551 0 discriminator 23
 1725 011e 0B2B     		cmp	r3, #11
 1726 0120 C1D0     		beq	.L176
 551:C:/Users/lenovo/Desktop/liteos/Project2/BearPi_LiteOS/components/connectivity/lwm2m/core\registration.c ****         switch (targetP->status)
 1727              		.loc 1 551 0 discriminator 25
 1728 0122 0D2B     		cmp	r3, #13
 1729 0124 C1D0     		beq	.L177
 551:C:/Users/lenovo/Desktop/liteos/Project2/BearPi_LiteOS/components/connectivity/lwm2m/core\registration.c ****         switch (targetP->status)
 1730              		.loc 1 551 0 discriminator 27
 1731 0126 0E2B     		cmp	r3, #14
 1732 0128 93D0     		beq	.L201
 551:C:/Users/lenovo/Desktop/liteos/Project2/BearPi_LiteOS/components/connectivity/lwm2m/core\registration.c ****         switch (targetP->status)
 1733              		.loc 1 551 0
 1734 012a 054B     		ldr	r3, .L202
 1735 012c 94E7     		b	.L151
 1736              	.L182:
 574:C:/Users/lenovo/Desktop/liteos/Project2/BearPi_LiteOS/components/connectivity/lwm2m/core\registration.c **** 
 1737              		.loc 1 574 0 is_stmt 1
 1738 012e 104B     		ldr	r3, .L202+48
 1739 0130 CFE7     		b	.L156
 1740              	.L183:
 1741 0132 104B     		ldr	r3, .L202+52
 1742 0134 CDE7     		b	.L156
 1743              	.L199:
 1744 0136 104B     		ldr	r3, .L202+56
 1745 0138 CBE7     		b	.L156
 1746              	.L200:
 580:C:/Users/lenovo/Desktop/liteos/Project2/BearPi_LiteOS/components/connectivity/lwm2m/core\registration.c **** 
 1747              		.loc 1 580 0
 1748 013a 2846     		mov	r0, r5
 1749 013c 03B0     		add	sp, sp, #12
 1750              	.LCFI24:
 1751              		.cfi_def_cfa_offset 12
 1752              		@ sp needed
 1753 013e 30BD     		pop	{r4, r5, pc}
ARM GAS  c:\Users\lenovo\AppData\Local\Temp\ccyoZgCp.s 			page 47


 1754              	.LVL203:
 1755              	.L203:
 1756              		.align	2
 1757              	.L202:
 1758 0140 6C000000 		.word	.LC20
 1759 0144 74000000 		.word	.LC21
 1760 0148 1C000000 		.word	.LC16
 1761 014c 00000000 		.word	.LANCHOR4
 1762 0150 00000000 		.word	.LC24
 1763 0154 00000000 		.word	.LC15
 1764 0158 2C000000 		.word	.LC17
 1765 015c 40000000 		.word	.LC18
 1766 0160 58000000 		.word	.LC19
 1767 0164 30010000 		.word	.LC39
 1768 0168 14000000 		.word	.LC26
 1769 016c 40010000 		.word	.LC40
 1770 0170 00000000 		.word	.LC25
 1771 0174 28000000 		.word	.LC27
 1772 0178 3C000000 		.word	.LC28
 1773 017c 50000000 		.word	.LC29
 1774 0180 6C000000 		.word	.LC30
 1775 0184 84000000 		.word	.LC31
 1776 0188 A4000000 		.word	.LC32
 1777 018c B8000000 		.word	.LC33
 1778 0190 CC000000 		.word	.LC34
 1779 0194 E0000000 		.word	.LC35
 1780 0198 F4000000 		.word	.LC36
 1781 019c 08010000 		.word	.LC37
 1782 01a0 1C010000 		.word	.LC38
 1783 01a4 64010000 		.word	.LC41
 1784              		.cfi_endproc
 1785              	.LFE142:
 1787              		.section	.text.registration_deregister,"ax",%progbits
 1788              		.align	1
 1789              		.global	registration_deregister
 1790              		.syntax unified
 1791              		.thumb
 1792              		.thumb_func
 1793              		.fpu fpv4-sp-d16
 1795              	registration_deregister:
 1796              	.LFB144:
 596:C:/Users/lenovo/Desktop/liteos/Project2/BearPi_LiteOS/components/connectivity/lwm2m/core\registration.c **** 
 597:C:/Users/lenovo/Desktop/liteos/Project2/BearPi_LiteOS/components/connectivity/lwm2m/core\registration.c **** void registration_deregister(lwm2m_context_t *contextP,
 598:C:/Users/lenovo/Desktop/liteos/Project2/BearPi_LiteOS/components/connectivity/lwm2m/core\registration.c ****                              lwm2m_server_t *serverP)
 599:C:/Users/lenovo/Desktop/liteos/Project2/BearPi_LiteOS/components/connectivity/lwm2m/core\registration.c **** {
 1797              		.loc 1 599 0
 1798              		.cfi_startproc
 1799              		@ args = 0, pretend = 0, frame = 0
 1800              		@ frame_needed = 0, uses_anonymous_args = 0
 1801              	.LVL204:
 1802 0000 70B5     		push	{r4, r5, r6, lr}
 1803              	.LCFI25:
 1804              		.cfi_def_cfa_offset 16
 1805              		.cfi_offset 4, -16
 1806              		.cfi_offset 5, -12
 1807              		.cfi_offset 6, -8
 1808              		.cfi_offset 14, -4
ARM GAS  c:\Users\lenovo\AppData\Local\Temp\ccyoZgCp.s 			page 48


 1809 0002 84B0     		sub	sp, sp, #16
 1810              	.LCFI26:
 1811              		.cfi_def_cfa_offset 32
 1812 0004 0546     		mov	r5, r0
 1813 0006 0C46     		mov	r4, r1
 600:C:/Users/lenovo/Desktop/liteos/Project2/BearPi_LiteOS/components/connectivity/lwm2m/core\registration.c ****     lwm2m_transaction_t *transaction;
 601:C:/Users/lenovo/Desktop/liteos/Project2/BearPi_LiteOS/components/connectivity/lwm2m/core\registration.c **** 
 602:C:/Users/lenovo/Desktop/liteos/Project2/BearPi_LiteOS/components/connectivity/lwm2m/core\registration.c ****     LOG_ARG("State: %s, serverP->status: %s", STR_STATE(contextP->state), STR_STATUS(serverP->statu
 1814              		.loc 1 602 0
 1815 0008 FFF7FEFF 		bl	lwm2m_gettime
 1816              	.LVL205:
 1817 000c 0146     		mov	r1, r0
 1818 000e 2B78     		ldrb	r3, [r5]	@ zero_extendqisi2
 1819 0010 6BB1     		cbz	r3, .L208
 1820              		.loc 1 602 0 is_stmt 0 discriminator 1
 1821 0012 012B     		cmp	r3, #1
 1822 0014 2DD0     		beq	.L209
 1823              		.loc 1 602 0 discriminator 3
 1824 0016 022B     		cmp	r3, #2
 1825 0018 2DD0     		beq	.L210
 1826              		.loc 1 602 0 discriminator 5
 1827 001a 032B     		cmp	r3, #3
 1828 001c 2DD0     		beq	.L211
 1829              		.loc 1 602 0 discriminator 7
 1830 001e 042B     		cmp	r3, #4
 1831 0020 2DD0     		beq	.L212
 1832              		.loc 1 602 0 discriminator 9
 1833 0022 052B     		cmp	r3, #5
 1834 0024 01D0     		beq	.L230
 1835              		.loc 1 602 0
 1836 0026 404A     		ldr	r2, .L232
 1837 0028 02E0     		b	.L205
 1838              	.L230:
 1839 002a 404A     		ldr	r2, .L232+4
 1840 002c 00E0     		b	.L205
 1841              	.L208:
 1842 002e 404A     		ldr	r2, .L232+8
 1843              	.L205:
 1844              		.loc 1 602 0 discriminator 24
 1845 0030 94F82030 		ldrb	r3, [r4, #32]	@ zero_extendqisi2
 1846 0034 3BB3     		cbz	r3, .L214
 1847              		.loc 1 602 0 discriminator 25
 1848 0036 012B     		cmp	r3, #1
 1849 0038 5CD0     		beq	.L215
 1850              		.loc 1 602 0 discriminator 27
 1851 003a 022B     		cmp	r3, #2
 1852 003c 5CD0     		beq	.L216
 1853              		.loc 1 602 0 discriminator 29
 1854 003e 032B     		cmp	r3, #3
 1855 0040 5CD0     		beq	.L217
 1856              		.loc 1 602 0 discriminator 31
 1857 0042 042B     		cmp	r3, #4
 1858 0044 5CD0     		beq	.L218
 1859              		.loc 1 602 0 discriminator 33
 1860 0046 052B     		cmp	r3, #5
 1861 0048 5CD0     		beq	.L219
 1862              		.loc 1 602 0 discriminator 35
ARM GAS  c:\Users\lenovo\AppData\Local\Temp\ccyoZgCp.s 			page 49


 1863 004a 062B     		cmp	r3, #6
 1864 004c 5CD0     		beq	.L220
 1865              		.loc 1 602 0 discriminator 37
 1866 004e 072B     		cmp	r3, #7
 1867 0050 5CD0     		beq	.L221
 1868              		.loc 1 602 0 discriminator 39
 1869 0052 082B     		cmp	r3, #8
 1870 0054 5CD0     		beq	.L222
 1871              		.loc 1 602 0 discriminator 41
 1872 0056 092B     		cmp	r3, #9
 1873 0058 5CD0     		beq	.L223
 1874              		.loc 1 602 0 discriminator 43
 1875 005a 0A2B     		cmp	r3, #10
 1876 005c 5CD0     		beq	.L224
 1877              		.loc 1 602 0 discriminator 45
 1878 005e 0C2B     		cmp	r3, #12
 1879 0060 5CD0     		beq	.L225
 1880              		.loc 1 602 0 discriminator 47
 1881 0062 0B2B     		cmp	r3, #11
 1882 0064 5CD0     		beq	.L226
 1883              		.loc 1 602 0 discriminator 49
 1884 0066 0D2B     		cmp	r3, #13
 1885 0068 5CD0     		beq	.L227
 1886              		.loc 1 602 0 discriminator 51
 1887 006a 0E2B     		cmp	r3, #14
 1888 006c 09D0     		beq	.L231
 1889              		.loc 1 602 0
 1890 006e 2E4B     		ldr	r3, .L232
 1891 0070 0AE0     		b	.L206
 1892              	.L209:
 1893 0072 304A     		ldr	r2, .L232+12
 1894 0074 DCE7     		b	.L205
 1895              	.L210:
 1896 0076 304A     		ldr	r2, .L232+16
 1897 0078 DAE7     		b	.L205
 1898              	.L211:
 1899 007a 304A     		ldr	r2, .L232+20
 1900 007c D8E7     		b	.L205
 1901              	.L212:
 1902 007e 304A     		ldr	r2, .L232+24
 1903 0080 D6E7     		b	.L205
 1904              	.L231:
 1905 0082 304B     		ldr	r3, .L232+28
 1906 0084 00E0     		b	.L206
 1907              	.L214:
 1908 0086 304B     		ldr	r3, .L232+32
 1909              	.L206:
 1910              		.loc 1 602 0 discriminator 84
 1911 0088 0193     		str	r3, [sp, #4]
 1912 008a 0092     		str	r2, [sp]
 1913 008c 40F25A23 		movw	r3, #602
 1914 0090 2E4A     		ldr	r2, .L232+36
 1915 0092 2F48     		ldr	r0, .L232+40
 1916 0094 FFF7FEFF 		bl	atiny_printf
 1917              	.LVL206:
 603:C:/Users/lenovo/Desktop/liteos/Project2/BearPi_LiteOS/components/connectivity/lwm2m/core\registration.c **** 
 604:C:/Users/lenovo/Desktop/liteos/Project2/BearPi_LiteOS/components/connectivity/lwm2m/core\registration.c ****     if (serverP->status == STATE_DEREGISTERED
ARM GAS  c:\Users\lenovo\AppData\Local\Temp\ccyoZgCp.s 			page 50


 1918              		.loc 1 604 0 is_stmt 1 discriminator 84
 1919 0098 94F82030 		ldrb	r3, [r4, #32]	@ zero_extendqisi2
 1920 009c 012B     		cmp	r3, #1
 1921 009e 27D9     		bls	.L204
 605:C:/Users/lenovo/Desktop/liteos/Project2/BearPi_LiteOS/components/connectivity/lwm2m/core\registration.c ****             || serverP->status == STATE_REG_PENDING
 606:C:/Users/lenovo/Desktop/liteos/Project2/BearPi_LiteOS/components/connectivity/lwm2m/core\registration.c ****             || serverP->status == STATE_DEREG_PENDING
 1922              		.loc 1 606 0
 1923 00a0 072B     		cmp	r3, #7
 1924 00a2 25D0     		beq	.L204
 607:C:/Users/lenovo/Desktop/liteos/Project2/BearPi_LiteOS/components/connectivity/lwm2m/core\registration.c ****             || serverP->status == STATE_REG_FAILED
 1925              		.loc 1 607 0
 1926 00a4 032B     		cmp	r3, #3
 1927 00a6 23D0     		beq	.L204
 608:C:/Users/lenovo/Desktop/liteos/Project2/BearPi_LiteOS/components/connectivity/lwm2m/core\registration.c ****             || serverP->location == NULL)
 1928              		.loc 1 608 0
 1929 00a8 636A     		ldr	r3, [r4, #36]
 1930 00aa 0BB3     		cbz	r3, .L204
 609:C:/Users/lenovo/Desktop/liteos/Project2/BearPi_LiteOS/components/connectivity/lwm2m/core\registration.c ****     {
 610:C:/Users/lenovo/Desktop/liteos/Project2/BearPi_LiteOS/components/connectivity/lwm2m/core\registration.c ****         return;
 611:C:/Users/lenovo/Desktop/liteos/Project2/BearPi_LiteOS/components/connectivity/lwm2m/core\registration.c ****     }
 612:C:/Users/lenovo/Desktop/liteos/Project2/BearPi_LiteOS/components/connectivity/lwm2m/core\registration.c **** 
 613:C:/Users/lenovo/Desktop/liteos/Project2/BearPi_LiteOS/components/connectivity/lwm2m/core\registration.c ****     transaction = transaction_new(serverP->sessionH, COAP_DELETE, NULL, NULL, contextP->nextMID++, 
 1931              		.loc 1 613 0
 1932 00ac E069     		ldr	r0, [r4, #28]
 1933 00ae AB8D     		ldrh	r3, [r5, #44]
 1934 00b0 5A1C     		adds	r2, r3, #1
 1935 00b2 AA85     		strh	r2, [r5, #44]	@ movhi
 1936 00b4 0022     		movs	r2, #0
 1937 00b6 0292     		str	r2, [sp, #8]
 1938 00b8 0421     		movs	r1, #4
 1939 00ba 0191     		str	r1, [sp, #4]
 1940 00bc 0093     		str	r3, [sp]
 1941 00be 1346     		mov	r3, r2
 1942 00c0 FFF7FEFF 		bl	transaction_new
 1943              	.LVL207:
 614:C:/Users/lenovo/Desktop/liteos/Project2/BearPi_LiteOS/components/connectivity/lwm2m/core\registration.c ****     if (transaction == NULL) return;
 1944              		.loc 1 614 0
 1945 00c4 0646     		mov	r6, r0
 1946 00c6 98B1     		cbz	r0, .L204
 615:C:/Users/lenovo/Desktop/liteos/Project2/BearPi_LiteOS/components/connectivity/lwm2m/core\registration.c **** 
 616:C:/Users/lenovo/Desktop/liteos/Project2/BearPi_LiteOS/components/connectivity/lwm2m/core\registration.c ****     coap_set_header_uri_path(transaction->message, serverP->location);
 1947              		.loc 1 616 0
 1948 00c8 616A     		ldr	r1, [r4, #36]
 1949 00ca 806A     		ldr	r0, [r0, #40]
 1950              	.LVL208:
 1951 00cc FFF7FEFF 		bl	coap_set_header_uri_path
 1952              	.LVL209:
 617:C:/Users/lenovo/Desktop/liteos/Project2/BearPi_LiteOS/components/connectivity/lwm2m/core\registration.c **** 
 618:C:/Users/lenovo/Desktop/liteos/Project2/BearPi_LiteOS/components/connectivity/lwm2m/core\registration.c ****     transaction->callback = prv_handleDeregistrationReply;
 1953              		.loc 1 618 0
 1954 00d0 204B     		ldr	r3, .L232+44
 1955 00d2 3364     		str	r3, [r6, #64]
 619:C:/Users/lenovo/Desktop/liteos/Project2/BearPi_LiteOS/components/connectivity/lwm2m/core\registration.c ****     transaction->userData = (void *) serverP;
 1956              		.loc 1 619 0
 1957 00d4 7464     		str	r4, [r6, #68]
 620:C:/Users/lenovo/Desktop/liteos/Project2/BearPi_LiteOS/components/connectivity/lwm2m/core\registration.c **** 
 621:C:/Users/lenovo/Desktop/liteos/Project2/BearPi_LiteOS/components/connectivity/lwm2m/core\registration.c ****     contextP->transactionList = (lwm2m_transaction_t *)LWM2M_LIST_ADD(contextP->transactionList, tr
ARM GAS  c:\Users\lenovo\AppData\Local\Temp\ccyoZgCp.s 			page 51


 1958              		.loc 1 621 0
 1959 00d6 3146     		mov	r1, r6
 1960 00d8 286B     		ldr	r0, [r5, #48]
 1961 00da FFF7FEFF 		bl	lwm2m_list_add
 1962              	.LVL210:
 1963 00de 2863     		str	r0, [r5, #48]
 622:C:/Users/lenovo/Desktop/liteos/Project2/BearPi_LiteOS/components/connectivity/lwm2m/core\registration.c ****     if (transaction_send(contextP, transaction) == 0)
 1964              		.loc 1 622 0
 1965 00e0 3146     		mov	r1, r6
 1966 00e2 2846     		mov	r0, r5
 1967 00e4 FFF7FEFF 		bl	transaction_send
 1968              	.LVL211:
 1969 00e8 10B9     		cbnz	r0, .L204
 623:C:/Users/lenovo/Desktop/liteos/Project2/BearPi_LiteOS/components/connectivity/lwm2m/core\registration.c ****     {
 624:C:/Users/lenovo/Desktop/liteos/Project2/BearPi_LiteOS/components/connectivity/lwm2m/core\registration.c ****         serverP->status = STATE_DEREG_PENDING;
 1970              		.loc 1 624 0
 1971 00ea 0723     		movs	r3, #7
 1972 00ec 84F82030 		strb	r3, [r4, #32]
 1973              	.LVL212:
 1974              	.L204:
 625:C:/Users/lenovo/Desktop/liteos/Project2/BearPi_LiteOS/components/connectivity/lwm2m/core\registration.c ****     }
 626:C:/Users/lenovo/Desktop/liteos/Project2/BearPi_LiteOS/components/connectivity/lwm2m/core\registration.c **** }
 1975              		.loc 1 626 0
 1976 00f0 04B0     		add	sp, sp, #16
 1977              	.LCFI27:
 1978              		.cfi_remember_state
 1979              		.cfi_def_cfa_offset 16
 1980              		@ sp needed
 1981 00f2 70BD     		pop	{r4, r5, r6, pc}
 1982              	.LVL213:
 1983              	.L215:
 1984              	.LCFI28:
 1985              		.cfi_restore_state
 602:C:/Users/lenovo/Desktop/liteos/Project2/BearPi_LiteOS/components/connectivity/lwm2m/core\registration.c **** 
 1986              		.loc 1 602 0
 1987 00f4 184B     		ldr	r3, .L232+48
 1988 00f6 C7E7     		b	.L206
 1989              	.L216:
 1990 00f8 184B     		ldr	r3, .L232+52
 1991 00fa C5E7     		b	.L206
 1992              	.L217:
 1993 00fc 184B     		ldr	r3, .L232+56
 1994 00fe C3E7     		b	.L206
 1995              	.L218:
 1996 0100 184B     		ldr	r3, .L232+60
 1997 0102 C1E7     		b	.L206
 1998              	.L219:
 1999 0104 184B     		ldr	r3, .L232+64
 2000 0106 BFE7     		b	.L206
 2001              	.L220:
 2002 0108 184B     		ldr	r3, .L232+68
 2003 010a BDE7     		b	.L206
 2004              	.L221:
 2005 010c 184B     		ldr	r3, .L232+72
 2006 010e BBE7     		b	.L206
 2007              	.L222:
 2008 0110 184B     		ldr	r3, .L232+76
ARM GAS  c:\Users\lenovo\AppData\Local\Temp\ccyoZgCp.s 			page 52


 2009 0112 B9E7     		b	.L206
 2010              	.L223:
 2011 0114 184B     		ldr	r3, .L232+80
 2012 0116 B7E7     		b	.L206
 2013              	.L224:
 2014 0118 184B     		ldr	r3, .L232+84
 2015 011a B5E7     		b	.L206
 2016              	.L225:
 2017 011c 184B     		ldr	r3, .L232+88
 2018 011e B3E7     		b	.L206
 2019              	.L226:
 2020 0120 184B     		ldr	r3, .L232+92
 2021 0122 B1E7     		b	.L206
 2022              	.L227:
 2023 0124 184B     		ldr	r3, .L232+96
 2024 0126 AFE7     		b	.L206
 2025              	.L233:
 2026              		.align	2
 2027              	.L232:
 2028 0128 6C000000 		.word	.LC20
 2029 012c 74000000 		.word	.LC21
 2030 0130 1C000000 		.word	.LC16
 2031 0134 00000000 		.word	.LC15
 2032 0138 2C000000 		.word	.LC17
 2033 013c 40000000 		.word	.LC18
 2034 0140 58000000 		.word	.LC19
 2035 0144 30010000 		.word	.LC39
 2036 0148 14000000 		.word	.LC26
 2037 014c 00000000 		.word	.LANCHOR5
 2038 0150 00000000 		.word	.LC42
 2039 0154 00000000 		.word	prv_handleDeregistrationReply
 2040 0158 00000000 		.word	.LC25
 2041 015c 28000000 		.word	.LC27
 2042 0160 3C000000 		.word	.LC28
 2043 0164 50000000 		.word	.LC29
 2044 0168 6C000000 		.word	.LC30
 2045 016c 84000000 		.word	.LC31
 2046 0170 A4000000 		.word	.LC32
 2047 0174 B8000000 		.word	.LC33
 2048 0178 CC000000 		.word	.LC34
 2049 017c E0000000 		.word	.LC35
 2050 0180 F4000000 		.word	.LC36
 2051 0184 08010000 		.word	.LC37
 2052 0188 1C010000 		.word	.LC38
 2053              		.cfi_endproc
 2054              	.LFE144:
 2056              		.section	.text.registration_reset,"ax",%progbits
 2057              		.align	1
 2058              		.global	registration_reset
 2059              		.syntax unified
 2060              		.thumb
 2061              		.thumb_func
 2062              		.fpu fpv4-sp-d16
 2064              	registration_reset:
 2065              	.LFB145:
 627:C:/Users/lenovo/Desktop/liteos/Project2/BearPi_LiteOS/components/connectivity/lwm2m/core\registration.c **** 
 628:C:/Users/lenovo/Desktop/liteos/Project2/BearPi_LiteOS/components/connectivity/lwm2m/core\registration.c **** void registration_reset(lwm2m_context_t *contextP,
ARM GAS  c:\Users\lenovo\AppData\Local\Temp\ccyoZgCp.s 			page 53


 629:C:/Users/lenovo/Desktop/liteos/Project2/BearPi_LiteOS/components/connectivity/lwm2m/core\registration.c ****                         lwm2m_server_t *serverP)
 630:C:/Users/lenovo/Desktop/liteos/Project2/BearPi_LiteOS/components/connectivity/lwm2m/core\registration.c **** {
 2066              		.loc 1 630 0
 2067              		.cfi_startproc
 2068              		@ args = 0, pretend = 0, frame = 0
 2069              		@ frame_needed = 0, uses_anonymous_args = 0
 2070              	.LVL214:
 2071 0000 10B5     		push	{r4, lr}
 2072              	.LCFI29:
 2073              		.cfi_def_cfa_offset 8
 2074              		.cfi_offset 4, -8
 2075              		.cfi_offset 14, -4
 2076 0002 0C46     		mov	r4, r1
 631:C:/Users/lenovo/Desktop/liteos/Project2/BearPi_LiteOS/components/connectivity/lwm2m/core\registration.c ****     //registration_deregister(contextP, serverP);
 632:C:/Users/lenovo/Desktop/liteos/Project2/BearPi_LiteOS/components/connectivity/lwm2m/core\registration.c ****     if (serverP->sessionH != NULL)
 2077              		.loc 1 632 0
 2078 0004 CB69     		ldr	r3, [r1, #28]
 2079 0006 2BB1     		cbz	r3, .L235
 633:C:/Users/lenovo/Desktop/liteos/Project2/BearPi_LiteOS/components/connectivity/lwm2m/core\registration.c ****     {
 634:C:/Users/lenovo/Desktop/liteos/Project2/BearPi_LiteOS/components/connectivity/lwm2m/core\registration.c ****         lwm2m_close_connection(serverP->sessionH, contextP->userData);
 2080              		.loc 1 634 0
 2081 0008 416B     		ldr	r1, [r0, #52]
 2082              	.LVL215:
 2083 000a 1846     		mov	r0, r3
 2084              	.LVL216:
 2085 000c FFF7FEFF 		bl	lwm2m_close_connection
 2086              	.LVL217:
 635:C:/Users/lenovo/Desktop/liteos/Project2/BearPi_LiteOS/components/connectivity/lwm2m/core\registration.c ****         serverP->sessionH = NULL;
 2087              		.loc 1 635 0
 2088 0010 0023     		movs	r3, #0
 2089 0012 E361     		str	r3, [r4, #28]
 2090              	.L235:
 636:C:/Users/lenovo/Desktop/liteos/Project2/BearPi_LiteOS/components/connectivity/lwm2m/core\registration.c ****     }
 637:C:/Users/lenovo/Desktop/liteos/Project2/BearPi_LiteOS/components/connectivity/lwm2m/core\registration.c ****     serverP->status = STATE_DEREGISTERED;
 2091              		.loc 1 637 0
 2092 0014 0023     		movs	r3, #0
 2093 0016 84F82030 		strb	r3, [r4, #32]
 638:C:/Users/lenovo/Desktop/liteos/Project2/BearPi_LiteOS/components/connectivity/lwm2m/core\registration.c **** }
 2094              		.loc 1 638 0
 2095 001a 10BD     		pop	{r4, pc}
 2096              		.cfi_endproc
 2097              	.LFE145:
 2099              		.section	.text.registration_get_registered_server,"ax",%progbits
 2100              		.align	1
 2101              		.global	registration_get_registered_server
 2102              		.syntax unified
 2103              		.thumb
 2104              		.thumb_func
 2105              		.fpu fpv4-sp-d16
 2107              	registration_get_registered_server:
 2108              	.LFB146:
 639:C:/Users/lenovo/Desktop/liteos/Project2/BearPi_LiteOS/components/connectivity/lwm2m/core\registration.c **** 
 640:C:/Users/lenovo/Desktop/liteos/Project2/BearPi_LiteOS/components/connectivity/lwm2m/core\registration.c **** lwm2m_server_t *registration_get_registered_server(lwm2m_context_t *contextP)
 641:C:/Users/lenovo/Desktop/liteos/Project2/BearPi_LiteOS/components/connectivity/lwm2m/core\registration.c **** {
 2109              		.loc 1 641 0
 2110              		.cfi_startproc
 2111              		@ args = 0, pretend = 0, frame = 0
ARM GAS  c:\Users\lenovo\AppData\Local\Temp\ccyoZgCp.s 			page 54


 2112              		@ frame_needed = 0, uses_anonymous_args = 0
 2113              	.LVL218:
 2114 0000 08B5     		push	{r3, lr}
 2115              	.LCFI30:
 2116              		.cfi_def_cfa_offset 8
 2117              		.cfi_offset 3, -8
 2118              		.cfi_offset 14, -4
 642:C:/Users/lenovo/Desktop/liteos/Project2/BearPi_LiteOS/components/connectivity/lwm2m/core\registration.c ****     lwm2m_server_t *targetP;
 643:C:/Users/lenovo/Desktop/liteos/Project2/BearPi_LiteOS/components/connectivity/lwm2m/core\registration.c **** 
 644:C:/Users/lenovo/Desktop/liteos/Project2/BearPi_LiteOS/components/connectivity/lwm2m/core\registration.c ****     if(NULL == contextP)
 2119              		.loc 1 644 0
 2120 0002 68B1     		cbz	r0, .L243
 645:C:/Users/lenovo/Desktop/liteos/Project2/BearPi_LiteOS/components/connectivity/lwm2m/core\registration.c ****     {
 646:C:/Users/lenovo/Desktop/liteos/Project2/BearPi_LiteOS/components/connectivity/lwm2m/core\registration.c ****         LOG("null pointer");
 647:C:/Users/lenovo/Desktop/liteos/Project2/BearPi_LiteOS/components/connectivity/lwm2m/core\registration.c ****         return NULL;
 648:C:/Users/lenovo/Desktop/liteos/Project2/BearPi_LiteOS/components/connectivity/lwm2m/core\registration.c ****     }
 649:C:/Users/lenovo/Desktop/liteos/Project2/BearPi_LiteOS/components/connectivity/lwm2m/core\registration.c **** 
 650:C:/Users/lenovo/Desktop/liteos/Project2/BearPi_LiteOS/components/connectivity/lwm2m/core\registration.c ****     targetP = contextP->serverList;
 2121              		.loc 1 650 0
 2122 0004 4069     		ldr	r0, [r0, #20]
 2123              	.LVL219:
 2124              	.L240:
 651:C:/Users/lenovo/Desktop/liteos/Project2/BearPi_LiteOS/components/connectivity/lwm2m/core\registration.c ****     while (targetP != NULL)
 2125              		.loc 1 651 0
 2126 0006 A8B1     		cbz	r0, .L237
 652:C:/Users/lenovo/Desktop/liteos/Project2/BearPi_LiteOS/components/connectivity/lwm2m/core\registration.c ****     {
 653:C:/Users/lenovo/Desktop/liteos/Project2/BearPi_LiteOS/components/connectivity/lwm2m/core\registration.c ****         if ((STATE_REGISTERED == targetP->status)
 2127              		.loc 1 653 0
 2128 0008 90F82030 		ldrb	r3, [r0, #32]	@ zero_extendqisi2
 2129 000c 022B     		cmp	r3, #2
 2130 000e 11D0     		beq	.L237
 654:C:/Users/lenovo/Desktop/liteos/Project2/BearPi_LiteOS/components/connectivity/lwm2m/core\registration.c ****                 || (STATE_REG_UPDATE_PENDING == targetP->status)
 2131              		.loc 1 654 0
 2132 0010 042B     		cmp	r3, #4
 2133 0012 0FD0     		beq	.L237
 655:C:/Users/lenovo/Desktop/liteos/Project2/BearPi_LiteOS/components/connectivity/lwm2m/core\registration.c ****                 || (STATE_REG_UPDATE_NEEDED == targetP->status)
 2134              		.loc 1 655 0
 2135 0014 052B     		cmp	r3, #5
 2136 0016 0DD0     		beq	.L237
 656:C:/Users/lenovo/Desktop/liteos/Project2/BearPi_LiteOS/components/connectivity/lwm2m/core\registration.c ****                 || (STATE_REG_FULL_UPDATE_NEEDED == targetP->status))
 2137              		.loc 1 656 0
 2138 0018 062B     		cmp	r3, #6
 2139 001a 0BD0     		beq	.L237
 657:C:/Users/lenovo/Desktop/liteos/Project2/BearPi_LiteOS/components/connectivity/lwm2m/core\registration.c ****         {
 658:C:/Users/lenovo/Desktop/liteos/Project2/BearPi_LiteOS/components/connectivity/lwm2m/core\registration.c ****             return targetP;
 659:C:/Users/lenovo/Desktop/liteos/Project2/BearPi_LiteOS/components/connectivity/lwm2m/core\registration.c ****         }
 660:C:/Users/lenovo/Desktop/liteos/Project2/BearPi_LiteOS/components/connectivity/lwm2m/core\registration.c ****         targetP = targetP->next;
 2140              		.loc 1 660 0
 2141 001c 0068     		ldr	r0, [r0]
 2142              	.LVL220:
 2143 001e F2E7     		b	.L240
 2144              	.LVL221:
 2145              	.L243:
 646:C:/Users/lenovo/Desktop/liteos/Project2/BearPi_LiteOS/components/connectivity/lwm2m/core\registration.c ****         return NULL;
 2146              		.loc 1 646 0
 2147 0020 FFF7FEFF 		bl	lwm2m_gettime
 2148              	.LVL222:
ARM GAS  c:\Users\lenovo\AppData\Local\Temp\ccyoZgCp.s 			page 55


 2149 0024 40F28623 		movw	r3, #646
 2150 0028 034A     		ldr	r2, .L244
 2151 002a 0146     		mov	r1, r0
 2152 002c 0348     		ldr	r0, .L244+4
 2153 002e FFF7FEFF 		bl	atiny_printf
 2154              	.LVL223:
 647:C:/Users/lenovo/Desktop/liteos/Project2/BearPi_LiteOS/components/connectivity/lwm2m/core\registration.c ****     }
 2155              		.loc 1 647 0
 2156 0032 0020     		movs	r0, #0
 2157              	.L237:
 661:C:/Users/lenovo/Desktop/liteos/Project2/BearPi_LiteOS/components/connectivity/lwm2m/core\registration.c ****     }
 662:C:/Users/lenovo/Desktop/liteos/Project2/BearPi_LiteOS/components/connectivity/lwm2m/core\registration.c **** 
 663:C:/Users/lenovo/Desktop/liteos/Project2/BearPi_LiteOS/components/connectivity/lwm2m/core\registration.c ****     return NULL;
 664:C:/Users/lenovo/Desktop/liteos/Project2/BearPi_LiteOS/components/connectivity/lwm2m/core\registration.c **** }
 2158              		.loc 1 664 0
 2159 0034 08BD     		pop	{r3, pc}
 2160              	.L245:
 2161 0036 00BF     		.align	2
 2162              	.L244:
 2163 0038 00000000 		.word	.LANCHOR6
 2164 003c 00000000 		.word	.LC43
 2165              		.cfi_endproc
 2166              	.LFE146:
 2168              		.global	__aeabi_l2d
 2169              		.global	__aeabi_dcmpgt
 2170              		.global	__aeabi_dsub
 2171              		.global	__aeabi_d2lz
 2172              		.section	.text.registration_step,"ax",%progbits
 2173              		.align	1
 2174              		.global	registration_step
 2175              		.syntax unified
 2176              		.thumb
 2177              		.thumb_func
 2178              		.fpu fpv4-sp-d16
 2180              	registration_step:
 2181              	.LFB147:
 665:C:/Users/lenovo/Desktop/liteos/Project2/BearPi_LiteOS/components/connectivity/lwm2m/core\registration.c **** 
 666:C:/Users/lenovo/Desktop/liteos/Project2/BearPi_LiteOS/components/connectivity/lwm2m/core\registration.c **** #endif
 667:C:/Users/lenovo/Desktop/liteos/Project2/BearPi_LiteOS/components/connectivity/lwm2m/core\registration.c **** 
 668:C:/Users/lenovo/Desktop/liteos/Project2/BearPi_LiteOS/components/connectivity/lwm2m/core\registration.c **** #ifdef LWM2M_SERVER_MODE
 669:C:/Users/lenovo/Desktop/liteos/Project2/BearPi_LiteOS/components/connectivity/lwm2m/core\registration.c **** static void prv_freeClientObjectList(lwm2m_client_object_t *objects)
 670:C:/Users/lenovo/Desktop/liteos/Project2/BearPi_LiteOS/components/connectivity/lwm2m/core\registration.c **** {
 671:C:/Users/lenovo/Desktop/liteos/Project2/BearPi_LiteOS/components/connectivity/lwm2m/core\registration.c ****     while (objects != NULL)
 672:C:/Users/lenovo/Desktop/liteos/Project2/BearPi_LiteOS/components/connectivity/lwm2m/core\registration.c ****     {
 673:C:/Users/lenovo/Desktop/liteos/Project2/BearPi_LiteOS/components/connectivity/lwm2m/core\registration.c ****         lwm2m_client_object_t *objP;
 674:C:/Users/lenovo/Desktop/liteos/Project2/BearPi_LiteOS/components/connectivity/lwm2m/core\registration.c **** 
 675:C:/Users/lenovo/Desktop/liteos/Project2/BearPi_LiteOS/components/connectivity/lwm2m/core\registration.c ****         while (objects->instanceList != NULL)
 676:C:/Users/lenovo/Desktop/liteos/Project2/BearPi_LiteOS/components/connectivity/lwm2m/core\registration.c ****         {
 677:C:/Users/lenovo/Desktop/liteos/Project2/BearPi_LiteOS/components/connectivity/lwm2m/core\registration.c ****             lwm2m_list_t *target;
 678:C:/Users/lenovo/Desktop/liteos/Project2/BearPi_LiteOS/components/connectivity/lwm2m/core\registration.c **** 
 679:C:/Users/lenovo/Desktop/liteos/Project2/BearPi_LiteOS/components/connectivity/lwm2m/core\registration.c ****             target = objects->instanceList;
 680:C:/Users/lenovo/Desktop/liteos/Project2/BearPi_LiteOS/components/connectivity/lwm2m/core\registration.c ****             objects->instanceList = objects->instanceList->next;
 681:C:/Users/lenovo/Desktop/liteos/Project2/BearPi_LiteOS/components/connectivity/lwm2m/core\registration.c ****             lwm2m_free(target);
 682:C:/Users/lenovo/Desktop/liteos/Project2/BearPi_LiteOS/components/connectivity/lwm2m/core\registration.c ****         }
 683:C:/Users/lenovo/Desktop/liteos/Project2/BearPi_LiteOS/components/connectivity/lwm2m/core\registration.c **** 
 684:C:/Users/lenovo/Desktop/liteos/Project2/BearPi_LiteOS/components/connectivity/lwm2m/core\registration.c ****         objP = objects;
 685:C:/Users/lenovo/Desktop/liteos/Project2/BearPi_LiteOS/components/connectivity/lwm2m/core\registration.c ****         objects = objects->next;
ARM GAS  c:\Users\lenovo\AppData\Local\Temp\ccyoZgCp.s 			page 56


 686:C:/Users/lenovo/Desktop/liteos/Project2/BearPi_LiteOS/components/connectivity/lwm2m/core\registration.c ****         lwm2m_free(objP);
 687:C:/Users/lenovo/Desktop/liteos/Project2/BearPi_LiteOS/components/connectivity/lwm2m/core\registration.c ****     }
 688:C:/Users/lenovo/Desktop/liteos/Project2/BearPi_LiteOS/components/connectivity/lwm2m/core\registration.c **** }
 689:C:/Users/lenovo/Desktop/liteos/Project2/BearPi_LiteOS/components/connectivity/lwm2m/core\registration.c **** 
 690:C:/Users/lenovo/Desktop/liteos/Project2/BearPi_LiteOS/components/connectivity/lwm2m/core\registration.c **** static int prv_getParameters(multi_option_t *query,
 691:C:/Users/lenovo/Desktop/liteos/Project2/BearPi_LiteOS/components/connectivity/lwm2m/core\registration.c ****                              char **nameP,
 692:C:/Users/lenovo/Desktop/liteos/Project2/BearPi_LiteOS/components/connectivity/lwm2m/core\registration.c ****                              uint32_t *lifetimeP,
 693:C:/Users/lenovo/Desktop/liteos/Project2/BearPi_LiteOS/components/connectivity/lwm2m/core\registration.c ****                              char **msisdnP,
 694:C:/Users/lenovo/Desktop/liteos/Project2/BearPi_LiteOS/components/connectivity/lwm2m/core\registration.c ****                              lwm2m_binding_t *bindingP,
 695:C:/Users/lenovo/Desktop/liteos/Project2/BearPi_LiteOS/components/connectivity/lwm2m/core\registration.c ****                              char **versionP)
 696:C:/Users/lenovo/Desktop/liteos/Project2/BearPi_LiteOS/components/connectivity/lwm2m/core\registration.c **** {
 697:C:/Users/lenovo/Desktop/liteos/Project2/BearPi_LiteOS/components/connectivity/lwm2m/core\registration.c ****     *nameP = NULL;
 698:C:/Users/lenovo/Desktop/liteos/Project2/BearPi_LiteOS/components/connectivity/lwm2m/core\registration.c ****     *lifetimeP = 0;
 699:C:/Users/lenovo/Desktop/liteos/Project2/BearPi_LiteOS/components/connectivity/lwm2m/core\registration.c ****     *msisdnP = NULL;
 700:C:/Users/lenovo/Desktop/liteos/Project2/BearPi_LiteOS/components/connectivity/lwm2m/core\registration.c ****     *bindingP = BINDING_UNKNOWN;
 701:C:/Users/lenovo/Desktop/liteos/Project2/BearPi_LiteOS/components/connectivity/lwm2m/core\registration.c ****     *versionP = NULL;
 702:C:/Users/lenovo/Desktop/liteos/Project2/BearPi_LiteOS/components/connectivity/lwm2m/core\registration.c **** 
 703:C:/Users/lenovo/Desktop/liteos/Project2/BearPi_LiteOS/components/connectivity/lwm2m/core\registration.c ****     while (query != NULL)
 704:C:/Users/lenovo/Desktop/liteos/Project2/BearPi_LiteOS/components/connectivity/lwm2m/core\registration.c ****     {
 705:C:/Users/lenovo/Desktop/liteos/Project2/BearPi_LiteOS/components/connectivity/lwm2m/core\registration.c ****         if (lwm2m_strncmp((char *)query->data, QUERY_NAME, QUERY_NAME_LEN) == 0)
 706:C:/Users/lenovo/Desktop/liteos/Project2/BearPi_LiteOS/components/connectivity/lwm2m/core\registration.c ****         {
 707:C:/Users/lenovo/Desktop/liteos/Project2/BearPi_LiteOS/components/connectivity/lwm2m/core\registration.c ****             if (*nameP != NULL) goto error;
 708:C:/Users/lenovo/Desktop/liteos/Project2/BearPi_LiteOS/components/connectivity/lwm2m/core\registration.c ****             if (query->len == QUERY_NAME_LEN) goto error;
 709:C:/Users/lenovo/Desktop/liteos/Project2/BearPi_LiteOS/components/connectivity/lwm2m/core\registration.c **** 
 710:C:/Users/lenovo/Desktop/liteos/Project2/BearPi_LiteOS/components/connectivity/lwm2m/core\registration.c ****             *nameP = (char *)lwm2m_malloc(query->len - QUERY_NAME_LEN + 1);
 711:C:/Users/lenovo/Desktop/liteos/Project2/BearPi_LiteOS/components/connectivity/lwm2m/core\registration.c ****             if (*nameP != NULL)
 712:C:/Users/lenovo/Desktop/liteos/Project2/BearPi_LiteOS/components/connectivity/lwm2m/core\registration.c ****             {
 713:C:/Users/lenovo/Desktop/liteos/Project2/BearPi_LiteOS/components/connectivity/lwm2m/core\registration.c ****                 memcpy(*nameP, query->data + QUERY_NAME_LEN, query->len - QUERY_NAME_LEN);
 714:C:/Users/lenovo/Desktop/liteos/Project2/BearPi_LiteOS/components/connectivity/lwm2m/core\registration.c ****                 (*nameP)[query->len - QUERY_NAME_LEN] = 0;
 715:C:/Users/lenovo/Desktop/liteos/Project2/BearPi_LiteOS/components/connectivity/lwm2m/core\registration.c ****             }
 716:C:/Users/lenovo/Desktop/liteos/Project2/BearPi_LiteOS/components/connectivity/lwm2m/core\registration.c ****         }
 717:C:/Users/lenovo/Desktop/liteos/Project2/BearPi_LiteOS/components/connectivity/lwm2m/core\registration.c ****         else if (lwm2m_strncmp((char *)query->data, QUERY_SMS, QUERY_SMS_LEN) == 0)
 718:C:/Users/lenovo/Desktop/liteos/Project2/BearPi_LiteOS/components/connectivity/lwm2m/core\registration.c ****         {
 719:C:/Users/lenovo/Desktop/liteos/Project2/BearPi_LiteOS/components/connectivity/lwm2m/core\registration.c ****             if (*msisdnP != NULL) goto error;
 720:C:/Users/lenovo/Desktop/liteos/Project2/BearPi_LiteOS/components/connectivity/lwm2m/core\registration.c ****             if (query->len == QUERY_SMS_LEN) goto error;
 721:C:/Users/lenovo/Desktop/liteos/Project2/BearPi_LiteOS/components/connectivity/lwm2m/core\registration.c **** 
 722:C:/Users/lenovo/Desktop/liteos/Project2/BearPi_LiteOS/components/connectivity/lwm2m/core\registration.c ****             *msisdnP = (char *)lwm2m_malloc(query->len - QUERY_SMS_LEN + 1);
 723:C:/Users/lenovo/Desktop/liteos/Project2/BearPi_LiteOS/components/connectivity/lwm2m/core\registration.c ****             if (*msisdnP != NULL)
 724:C:/Users/lenovo/Desktop/liteos/Project2/BearPi_LiteOS/components/connectivity/lwm2m/core\registration.c ****             {
 725:C:/Users/lenovo/Desktop/liteos/Project2/BearPi_LiteOS/components/connectivity/lwm2m/core\registration.c ****                 memcpy(*msisdnP, query->data + QUERY_SMS_LEN, query->len - QUERY_SMS_LEN);
 726:C:/Users/lenovo/Desktop/liteos/Project2/BearPi_LiteOS/components/connectivity/lwm2m/core\registration.c ****                 (*msisdnP)[query->len - QUERY_SMS_LEN] = 0;
 727:C:/Users/lenovo/Desktop/liteos/Project2/BearPi_LiteOS/components/connectivity/lwm2m/core\registration.c ****             }
 728:C:/Users/lenovo/Desktop/liteos/Project2/BearPi_LiteOS/components/connectivity/lwm2m/core\registration.c ****         }
 729:C:/Users/lenovo/Desktop/liteos/Project2/BearPi_LiteOS/components/connectivity/lwm2m/core\registration.c ****         else if (lwm2m_strncmp((char *)query->data, QUERY_LIFETIME, QUERY_LIFETIME_LEN) == 0)
 730:C:/Users/lenovo/Desktop/liteos/Project2/BearPi_LiteOS/components/connectivity/lwm2m/core\registration.c ****         {
 731:C:/Users/lenovo/Desktop/liteos/Project2/BearPi_LiteOS/components/connectivity/lwm2m/core\registration.c ****             int i;
 732:C:/Users/lenovo/Desktop/liteos/Project2/BearPi_LiteOS/components/connectivity/lwm2m/core\registration.c **** 
 733:C:/Users/lenovo/Desktop/liteos/Project2/BearPi_LiteOS/components/connectivity/lwm2m/core\registration.c ****             if (*lifetimeP != 0) goto error;
 734:C:/Users/lenovo/Desktop/liteos/Project2/BearPi_LiteOS/components/connectivity/lwm2m/core\registration.c ****             if (query->len == QUERY_LIFETIME_LEN) goto error;
 735:C:/Users/lenovo/Desktop/liteos/Project2/BearPi_LiteOS/components/connectivity/lwm2m/core\registration.c **** 
 736:C:/Users/lenovo/Desktop/liteos/Project2/BearPi_LiteOS/components/connectivity/lwm2m/core\registration.c ****             for (i = QUERY_LIFETIME_LEN ; i < query->len ; i++)
 737:C:/Users/lenovo/Desktop/liteos/Project2/BearPi_LiteOS/components/connectivity/lwm2m/core\registration.c ****             {
 738:C:/Users/lenovo/Desktop/liteos/Project2/BearPi_LiteOS/components/connectivity/lwm2m/core\registration.c ****                 if (query->data[i] < '0' || query->data[i] > '9') goto error;
 739:C:/Users/lenovo/Desktop/liteos/Project2/BearPi_LiteOS/components/connectivity/lwm2m/core\registration.c ****                 *lifetimeP = (*lifetimeP * 10) + (query->data[i] - '0');
 740:C:/Users/lenovo/Desktop/liteos/Project2/BearPi_LiteOS/components/connectivity/lwm2m/core\registration.c ****             }
 741:C:/Users/lenovo/Desktop/liteos/Project2/BearPi_LiteOS/components/connectivity/lwm2m/core\registration.c ****         }
 742:C:/Users/lenovo/Desktop/liteos/Project2/BearPi_LiteOS/components/connectivity/lwm2m/core\registration.c ****         else if (lwm2m_strncmp((char *)query->data, QUERY_VERSION, QUERY_VERSION_LEN) == 0)
ARM GAS  c:\Users\lenovo\AppData\Local\Temp\ccyoZgCp.s 			page 57


 743:C:/Users/lenovo/Desktop/liteos/Project2/BearPi_LiteOS/components/connectivity/lwm2m/core\registration.c ****         {
 744:C:/Users/lenovo/Desktop/liteos/Project2/BearPi_LiteOS/components/connectivity/lwm2m/core\registration.c ****             if (*versionP != NULL) goto error;
 745:C:/Users/lenovo/Desktop/liteos/Project2/BearPi_LiteOS/components/connectivity/lwm2m/core\registration.c ****             if (query->len == QUERY_VERSION_LEN) goto error;
 746:C:/Users/lenovo/Desktop/liteos/Project2/BearPi_LiteOS/components/connectivity/lwm2m/core\registration.c **** 
 747:C:/Users/lenovo/Desktop/liteos/Project2/BearPi_LiteOS/components/connectivity/lwm2m/core\registration.c ****             *versionP = (char *)lwm2m_malloc(query->len - QUERY_VERSION_LEN + 1);
 748:C:/Users/lenovo/Desktop/liteos/Project2/BearPi_LiteOS/components/connectivity/lwm2m/core\registration.c ****             if (*versionP != NULL)
 749:C:/Users/lenovo/Desktop/liteos/Project2/BearPi_LiteOS/components/connectivity/lwm2m/core\registration.c ****             {
 750:C:/Users/lenovo/Desktop/liteos/Project2/BearPi_LiteOS/components/connectivity/lwm2m/core\registration.c ****                 memcpy(*versionP, query->data + QUERY_VERSION_LEN, query->len - QUERY_VERSION_LEN);
 751:C:/Users/lenovo/Desktop/liteos/Project2/BearPi_LiteOS/components/connectivity/lwm2m/core\registration.c ****                 (*versionP)[query->len - QUERY_VERSION_LEN] = 0;
 752:C:/Users/lenovo/Desktop/liteos/Project2/BearPi_LiteOS/components/connectivity/lwm2m/core\registration.c ****             }
 753:C:/Users/lenovo/Desktop/liteos/Project2/BearPi_LiteOS/components/connectivity/lwm2m/core\registration.c ****         }
 754:C:/Users/lenovo/Desktop/liteos/Project2/BearPi_LiteOS/components/connectivity/lwm2m/core\registration.c ****         else if (lwm2m_strncmp((char *)query->data, QUERY_BINDING, QUERY_BINDING_LEN) == 0)
 755:C:/Users/lenovo/Desktop/liteos/Project2/BearPi_LiteOS/components/connectivity/lwm2m/core\registration.c ****         {
 756:C:/Users/lenovo/Desktop/liteos/Project2/BearPi_LiteOS/components/connectivity/lwm2m/core\registration.c ****             if (*bindingP != BINDING_UNKNOWN) goto error;
 757:C:/Users/lenovo/Desktop/liteos/Project2/BearPi_LiteOS/components/connectivity/lwm2m/core\registration.c ****             if (query->len == QUERY_BINDING_LEN) goto error;
 758:C:/Users/lenovo/Desktop/liteos/Project2/BearPi_LiteOS/components/connectivity/lwm2m/core\registration.c **** 
 759:C:/Users/lenovo/Desktop/liteos/Project2/BearPi_LiteOS/components/connectivity/lwm2m/core\registration.c ****             *bindingP = utils_stringToBinding(query->data + QUERY_BINDING_LEN, query->len - QUERY_B
 760:C:/Users/lenovo/Desktop/liteos/Project2/BearPi_LiteOS/components/connectivity/lwm2m/core\registration.c ****         }
 761:C:/Users/lenovo/Desktop/liteos/Project2/BearPi_LiteOS/components/connectivity/lwm2m/core\registration.c ****         query = query->next;
 762:C:/Users/lenovo/Desktop/liteos/Project2/BearPi_LiteOS/components/connectivity/lwm2m/core\registration.c ****     }
 763:C:/Users/lenovo/Desktop/liteos/Project2/BearPi_LiteOS/components/connectivity/lwm2m/core\registration.c **** 
 764:C:/Users/lenovo/Desktop/liteos/Project2/BearPi_LiteOS/components/connectivity/lwm2m/core\registration.c ****     return 0;
 765:C:/Users/lenovo/Desktop/liteos/Project2/BearPi_LiteOS/components/connectivity/lwm2m/core\registration.c **** 
 766:C:/Users/lenovo/Desktop/liteos/Project2/BearPi_LiteOS/components/connectivity/lwm2m/core\registration.c **** error:
 767:C:/Users/lenovo/Desktop/liteos/Project2/BearPi_LiteOS/components/connectivity/lwm2m/core\registration.c ****     if (*nameP != NULL) lwm2m_free(*nameP);
 768:C:/Users/lenovo/Desktop/liteos/Project2/BearPi_LiteOS/components/connectivity/lwm2m/core\registration.c ****     if (*msisdnP != NULL) lwm2m_free(*msisdnP);
 769:C:/Users/lenovo/Desktop/liteos/Project2/BearPi_LiteOS/components/connectivity/lwm2m/core\registration.c ****     if (*versionP != NULL) lwm2m_free(*versionP);
 770:C:/Users/lenovo/Desktop/liteos/Project2/BearPi_LiteOS/components/connectivity/lwm2m/core\registration.c **** 
 771:C:/Users/lenovo/Desktop/liteos/Project2/BearPi_LiteOS/components/connectivity/lwm2m/core\registration.c ****     return -1;
 772:C:/Users/lenovo/Desktop/liteos/Project2/BearPi_LiteOS/components/connectivity/lwm2m/core\registration.c **** }
 773:C:/Users/lenovo/Desktop/liteos/Project2/BearPi_LiteOS/components/connectivity/lwm2m/core\registration.c **** 
 774:C:/Users/lenovo/Desktop/liteos/Project2/BearPi_LiteOS/components/connectivity/lwm2m/core\registration.c **** static uint16_t prv_splitLinkAttribute(uint8_t *data,
 775:C:/Users/lenovo/Desktop/liteos/Project2/BearPi_LiteOS/components/connectivity/lwm2m/core\registration.c ****                                        uint16_t length,
 776:C:/Users/lenovo/Desktop/liteos/Project2/BearPi_LiteOS/components/connectivity/lwm2m/core\registration.c ****                                        uint16_t *keyStart,
 777:C:/Users/lenovo/Desktop/liteos/Project2/BearPi_LiteOS/components/connectivity/lwm2m/core\registration.c ****                                        uint16_t *keyLength,
 778:C:/Users/lenovo/Desktop/liteos/Project2/BearPi_LiteOS/components/connectivity/lwm2m/core\registration.c ****                                        uint16_t *valueStart,
 779:C:/Users/lenovo/Desktop/liteos/Project2/BearPi_LiteOS/components/connectivity/lwm2m/core\registration.c ****                                        uint16_t *valueLength)
 780:C:/Users/lenovo/Desktop/liteos/Project2/BearPi_LiteOS/components/connectivity/lwm2m/core\registration.c **** {
 781:C:/Users/lenovo/Desktop/liteos/Project2/BearPi_LiteOS/components/connectivity/lwm2m/core\registration.c ****     uint16_t index;
 782:C:/Users/lenovo/Desktop/liteos/Project2/BearPi_LiteOS/components/connectivity/lwm2m/core\registration.c ****     uint16_t end;
 783:C:/Users/lenovo/Desktop/liteos/Project2/BearPi_LiteOS/components/connectivity/lwm2m/core\registration.c **** 
 784:C:/Users/lenovo/Desktop/liteos/Project2/BearPi_LiteOS/components/connectivity/lwm2m/core\registration.c ****     index = 0;
 785:C:/Users/lenovo/Desktop/liteos/Project2/BearPi_LiteOS/components/connectivity/lwm2m/core\registration.c ****     while (index < length && data[index] == ' ') index++;
 786:C:/Users/lenovo/Desktop/liteos/Project2/BearPi_LiteOS/components/connectivity/lwm2m/core\registration.c ****     if (index == length) return 0;
 787:C:/Users/lenovo/Desktop/liteos/Project2/BearPi_LiteOS/components/connectivity/lwm2m/core\registration.c **** 
 788:C:/Users/lenovo/Desktop/liteos/Project2/BearPi_LiteOS/components/connectivity/lwm2m/core\registration.c ****     if (data[index] == REG_ATTR_SEPARATOR)
 789:C:/Users/lenovo/Desktop/liteos/Project2/BearPi_LiteOS/components/connectivity/lwm2m/core\registration.c ****     {
 790:C:/Users/lenovo/Desktop/liteos/Project2/BearPi_LiteOS/components/connectivity/lwm2m/core\registration.c ****         index++;
 791:C:/Users/lenovo/Desktop/liteos/Project2/BearPi_LiteOS/components/connectivity/lwm2m/core\registration.c ****     }
 792:C:/Users/lenovo/Desktop/liteos/Project2/BearPi_LiteOS/components/connectivity/lwm2m/core\registration.c ****     if (index == length) return 0;
 793:C:/Users/lenovo/Desktop/liteos/Project2/BearPi_LiteOS/components/connectivity/lwm2m/core\registration.c **** 
 794:C:/Users/lenovo/Desktop/liteos/Project2/BearPi_LiteOS/components/connectivity/lwm2m/core\registration.c ****     *keyStart = index;
 795:C:/Users/lenovo/Desktop/liteos/Project2/BearPi_LiteOS/components/connectivity/lwm2m/core\registration.c **** 
 796:C:/Users/lenovo/Desktop/liteos/Project2/BearPi_LiteOS/components/connectivity/lwm2m/core\registration.c ****     while (index < length && data[index] != REG_ATTR_EQUALS) index++;
 797:C:/Users/lenovo/Desktop/liteos/Project2/BearPi_LiteOS/components/connectivity/lwm2m/core\registration.c ****     if (index == *keyStart || index == length) return 0;
 798:C:/Users/lenovo/Desktop/liteos/Project2/BearPi_LiteOS/components/connectivity/lwm2m/core\registration.c **** 
 799:C:/Users/lenovo/Desktop/liteos/Project2/BearPi_LiteOS/components/connectivity/lwm2m/core\registration.c ****     *keyLength = index - *keyStart;
ARM GAS  c:\Users\lenovo\AppData\Local\Temp\ccyoZgCp.s 			page 58


 800:C:/Users/lenovo/Desktop/liteos/Project2/BearPi_LiteOS/components/connectivity/lwm2m/core\registration.c **** 
 801:C:/Users/lenovo/Desktop/liteos/Project2/BearPi_LiteOS/components/connectivity/lwm2m/core\registration.c ****     index++;
 802:C:/Users/lenovo/Desktop/liteos/Project2/BearPi_LiteOS/components/connectivity/lwm2m/core\registration.c ****     while (index < length && data[index] == ' ') index++;
 803:C:/Users/lenovo/Desktop/liteos/Project2/BearPi_LiteOS/components/connectivity/lwm2m/core\registration.c ****     if (index == length) return 0;
 804:C:/Users/lenovo/Desktop/liteos/Project2/BearPi_LiteOS/components/connectivity/lwm2m/core\registration.c **** 
 805:C:/Users/lenovo/Desktop/liteos/Project2/BearPi_LiteOS/components/connectivity/lwm2m/core\registration.c ****     *valueStart = index;
 806:C:/Users/lenovo/Desktop/liteos/Project2/BearPi_LiteOS/components/connectivity/lwm2m/core\registration.c **** 
 807:C:/Users/lenovo/Desktop/liteos/Project2/BearPi_LiteOS/components/connectivity/lwm2m/core\registration.c ****     while (index < length && data[index] != REG_ATTR_SEPARATOR) index++;
 808:C:/Users/lenovo/Desktop/liteos/Project2/BearPi_LiteOS/components/connectivity/lwm2m/core\registration.c ****     end = index;
 809:C:/Users/lenovo/Desktop/liteos/Project2/BearPi_LiteOS/components/connectivity/lwm2m/core\registration.c **** 
 810:C:/Users/lenovo/Desktop/liteos/Project2/BearPi_LiteOS/components/connectivity/lwm2m/core\registration.c ****     index--;
 811:C:/Users/lenovo/Desktop/liteos/Project2/BearPi_LiteOS/components/connectivity/lwm2m/core\registration.c ****     while (index > *valueStart && data[index] == ' ') index--;
 812:C:/Users/lenovo/Desktop/liteos/Project2/BearPi_LiteOS/components/connectivity/lwm2m/core\registration.c ****     if (index == *valueStart) return 0;
 813:C:/Users/lenovo/Desktop/liteos/Project2/BearPi_LiteOS/components/connectivity/lwm2m/core\registration.c **** 
 814:C:/Users/lenovo/Desktop/liteos/Project2/BearPi_LiteOS/components/connectivity/lwm2m/core\registration.c ****     *valueLength = index - *valueStart + 1;
 815:C:/Users/lenovo/Desktop/liteos/Project2/BearPi_LiteOS/components/connectivity/lwm2m/core\registration.c **** 
 816:C:/Users/lenovo/Desktop/liteos/Project2/BearPi_LiteOS/components/connectivity/lwm2m/core\registration.c ****     return end;
 817:C:/Users/lenovo/Desktop/liteos/Project2/BearPi_LiteOS/components/connectivity/lwm2m/core\registration.c **** }
 818:C:/Users/lenovo/Desktop/liteos/Project2/BearPi_LiteOS/components/connectivity/lwm2m/core\registration.c **** 
 819:C:/Users/lenovo/Desktop/liteos/Project2/BearPi_LiteOS/components/connectivity/lwm2m/core\registration.c **** static int prv_parseLinkAttributes(uint8_t *data,
 820:C:/Users/lenovo/Desktop/liteos/Project2/BearPi_LiteOS/components/connectivity/lwm2m/core\registration.c ****                                    uint16_t length,
 821:C:/Users/lenovo/Desktop/liteos/Project2/BearPi_LiteOS/components/connectivity/lwm2m/core\registration.c ****                                    bool *supportJSON,
 822:C:/Users/lenovo/Desktop/liteos/Project2/BearPi_LiteOS/components/connectivity/lwm2m/core\registration.c ****                                    char **altPath)
 823:C:/Users/lenovo/Desktop/liteos/Project2/BearPi_LiteOS/components/connectivity/lwm2m/core\registration.c **** {
 824:C:/Users/lenovo/Desktop/liteos/Project2/BearPi_LiteOS/components/connectivity/lwm2m/core\registration.c ****     uint16_t index;
 825:C:/Users/lenovo/Desktop/liteos/Project2/BearPi_LiteOS/components/connectivity/lwm2m/core\registration.c ****     uint16_t pathStart;
 826:C:/Users/lenovo/Desktop/liteos/Project2/BearPi_LiteOS/components/connectivity/lwm2m/core\registration.c ****     uint16_t pathLength;
 827:C:/Users/lenovo/Desktop/liteos/Project2/BearPi_LiteOS/components/connectivity/lwm2m/core\registration.c ****     bool isValid;
 828:C:/Users/lenovo/Desktop/liteos/Project2/BearPi_LiteOS/components/connectivity/lwm2m/core\registration.c **** 
 829:C:/Users/lenovo/Desktop/liteos/Project2/BearPi_LiteOS/components/connectivity/lwm2m/core\registration.c ****     isValid = false;
 830:C:/Users/lenovo/Desktop/liteos/Project2/BearPi_LiteOS/components/connectivity/lwm2m/core\registration.c **** 
 831:C:/Users/lenovo/Desktop/liteos/Project2/BearPi_LiteOS/components/connectivity/lwm2m/core\registration.c ****     // Expecting application/link-format (RFC6690)
 832:C:/Users/lenovo/Desktop/liteos/Project2/BearPi_LiteOS/components/connectivity/lwm2m/core\registration.c ****     // leading space were removed before. Remove trailing spaces.
 833:C:/Users/lenovo/Desktop/liteos/Project2/BearPi_LiteOS/components/connectivity/lwm2m/core\registration.c ****     while (length > 0 && data[length - 1] == ' ') length--;
 834:C:/Users/lenovo/Desktop/liteos/Project2/BearPi_LiteOS/components/connectivity/lwm2m/core\registration.c **** 
 835:C:/Users/lenovo/Desktop/liteos/Project2/BearPi_LiteOS/components/connectivity/lwm2m/core\registration.c ****     // strip open tag
 836:C:/Users/lenovo/Desktop/liteos/Project2/BearPi_LiteOS/components/connectivity/lwm2m/core\registration.c ****     if (length >= 2 && data[0] == REG_URI_START)
 837:C:/Users/lenovo/Desktop/liteos/Project2/BearPi_LiteOS/components/connectivity/lwm2m/core\registration.c ****     {
 838:C:/Users/lenovo/Desktop/liteos/Project2/BearPi_LiteOS/components/connectivity/lwm2m/core\registration.c ****         data += 1;
 839:C:/Users/lenovo/Desktop/liteos/Project2/BearPi_LiteOS/components/connectivity/lwm2m/core\registration.c ****         length -= 1;
 840:C:/Users/lenovo/Desktop/liteos/Project2/BearPi_LiteOS/components/connectivity/lwm2m/core\registration.c ****     }
 841:C:/Users/lenovo/Desktop/liteos/Project2/BearPi_LiteOS/components/connectivity/lwm2m/core\registration.c ****     else
 842:C:/Users/lenovo/Desktop/liteos/Project2/BearPi_LiteOS/components/connectivity/lwm2m/core\registration.c ****     {
 843:C:/Users/lenovo/Desktop/liteos/Project2/BearPi_LiteOS/components/connectivity/lwm2m/core\registration.c ****         return 0;
 844:C:/Users/lenovo/Desktop/liteos/Project2/BearPi_LiteOS/components/connectivity/lwm2m/core\registration.c ****     }
 845:C:/Users/lenovo/Desktop/liteos/Project2/BearPi_LiteOS/components/connectivity/lwm2m/core\registration.c **** 
 846:C:/Users/lenovo/Desktop/liteos/Project2/BearPi_LiteOS/components/connectivity/lwm2m/core\registration.c ****     pathStart = 0;
 847:C:/Users/lenovo/Desktop/liteos/Project2/BearPi_LiteOS/components/connectivity/lwm2m/core\registration.c ****     index = length - 1;
 848:C:/Users/lenovo/Desktop/liteos/Project2/BearPi_LiteOS/components/connectivity/lwm2m/core\registration.c ****     while (index > 0 && data[index] != REG_URI_END) index--;
 849:C:/Users/lenovo/Desktop/liteos/Project2/BearPi_LiteOS/components/connectivity/lwm2m/core\registration.c ****     // link attributes are required
 850:C:/Users/lenovo/Desktop/liteos/Project2/BearPi_LiteOS/components/connectivity/lwm2m/core\registration.c ****     if (index == 0 || index == length - 1) return 0;
 851:C:/Users/lenovo/Desktop/liteos/Project2/BearPi_LiteOS/components/connectivity/lwm2m/core\registration.c **** 
 852:C:/Users/lenovo/Desktop/liteos/Project2/BearPi_LiteOS/components/connectivity/lwm2m/core\registration.c ****     // If there is a preceding /, remove it
 853:C:/Users/lenovo/Desktop/liteos/Project2/BearPi_LiteOS/components/connectivity/lwm2m/core\registration.c ****     if (data[pathStart] == '/')
 854:C:/Users/lenovo/Desktop/liteos/Project2/BearPi_LiteOS/components/connectivity/lwm2m/core\registration.c ****     {
 855:C:/Users/lenovo/Desktop/liteos/Project2/BearPi_LiteOS/components/connectivity/lwm2m/core\registration.c ****         pathStart += 1;
 856:C:/Users/lenovo/Desktop/liteos/Project2/BearPi_LiteOS/components/connectivity/lwm2m/core\registration.c ****     }
ARM GAS  c:\Users\lenovo\AppData\Local\Temp\ccyoZgCp.s 			page 59


 857:C:/Users/lenovo/Desktop/liteos/Project2/BearPi_LiteOS/components/connectivity/lwm2m/core\registration.c ****     pathLength = index - pathStart;
 858:C:/Users/lenovo/Desktop/liteos/Project2/BearPi_LiteOS/components/connectivity/lwm2m/core\registration.c **** 
 859:C:/Users/lenovo/Desktop/liteos/Project2/BearPi_LiteOS/components/connectivity/lwm2m/core\registration.c ****     index++;
 860:C:/Users/lenovo/Desktop/liteos/Project2/BearPi_LiteOS/components/connectivity/lwm2m/core\registration.c ****     if (index >= length || data[index] != REG_ATTR_SEPARATOR) return 0;
 861:C:/Users/lenovo/Desktop/liteos/Project2/BearPi_LiteOS/components/connectivity/lwm2m/core\registration.c ****     index++;
 862:C:/Users/lenovo/Desktop/liteos/Project2/BearPi_LiteOS/components/connectivity/lwm2m/core\registration.c **** 
 863:C:/Users/lenovo/Desktop/liteos/Project2/BearPi_LiteOS/components/connectivity/lwm2m/core\registration.c ****     while (index < length)
 864:C:/Users/lenovo/Desktop/liteos/Project2/BearPi_LiteOS/components/connectivity/lwm2m/core\registration.c ****     {
 865:C:/Users/lenovo/Desktop/liteos/Project2/BearPi_LiteOS/components/connectivity/lwm2m/core\registration.c ****         uint16_t result;
 866:C:/Users/lenovo/Desktop/liteos/Project2/BearPi_LiteOS/components/connectivity/lwm2m/core\registration.c ****         uint16_t keyStart;
 867:C:/Users/lenovo/Desktop/liteos/Project2/BearPi_LiteOS/components/connectivity/lwm2m/core\registration.c ****         uint16_t keyLength;
 868:C:/Users/lenovo/Desktop/liteos/Project2/BearPi_LiteOS/components/connectivity/lwm2m/core\registration.c ****         uint16_t valueStart;
 869:C:/Users/lenovo/Desktop/liteos/Project2/BearPi_LiteOS/components/connectivity/lwm2m/core\registration.c ****         uint16_t valueLength;
 870:C:/Users/lenovo/Desktop/liteos/Project2/BearPi_LiteOS/components/connectivity/lwm2m/core\registration.c **** 
 871:C:/Users/lenovo/Desktop/liteos/Project2/BearPi_LiteOS/components/connectivity/lwm2m/core\registration.c ****         result = prv_splitLinkAttribute(data + index, length - index, &keyStart, &keyLength, &value
 872:C:/Users/lenovo/Desktop/liteos/Project2/BearPi_LiteOS/components/connectivity/lwm2m/core\registration.c ****         if (result == 0) return 0;
 873:C:/Users/lenovo/Desktop/liteos/Project2/BearPi_LiteOS/components/connectivity/lwm2m/core\registration.c **** 
 874:C:/Users/lenovo/Desktop/liteos/Project2/BearPi_LiteOS/components/connectivity/lwm2m/core\registration.c ****         if (keyLength == REG_ATTR_TYPE_KEY_LEN
 875:C:/Users/lenovo/Desktop/liteos/Project2/BearPi_LiteOS/components/connectivity/lwm2m/core\registration.c ****                 && 0 == lwm2m_strncmp(REG_ATTR_TYPE_KEY, (char *)data + index + keyStart, keyLength
 876:C:/Users/lenovo/Desktop/liteos/Project2/BearPi_LiteOS/components/connectivity/lwm2m/core\registration.c ****         {
 877:C:/Users/lenovo/Desktop/liteos/Project2/BearPi_LiteOS/components/connectivity/lwm2m/core\registration.c ****             if (isValid == true) return 0; // declared twice
 878:C:/Users/lenovo/Desktop/liteos/Project2/BearPi_LiteOS/components/connectivity/lwm2m/core\registration.c ****             if (valueLength != REG_ATTR_TYPE_VALUE_LEN
 879:C:/Users/lenovo/Desktop/liteos/Project2/BearPi_LiteOS/components/connectivity/lwm2m/core\registration.c ****                     || 0 != lwm2m_strncmp(REG_ATTR_TYPE_VALUE, (char *)data + index + valueStart, v
 880:C:/Users/lenovo/Desktop/liteos/Project2/BearPi_LiteOS/components/connectivity/lwm2m/core\registration.c ****             {
 881:C:/Users/lenovo/Desktop/liteos/Project2/BearPi_LiteOS/components/connectivity/lwm2m/core\registration.c ****                 return 0;
 882:C:/Users/lenovo/Desktop/liteos/Project2/BearPi_LiteOS/components/connectivity/lwm2m/core\registration.c ****             }
 883:C:/Users/lenovo/Desktop/liteos/Project2/BearPi_LiteOS/components/connectivity/lwm2m/core\registration.c ****             isValid = true;
 884:C:/Users/lenovo/Desktop/liteos/Project2/BearPi_LiteOS/components/connectivity/lwm2m/core\registration.c ****         }
 885:C:/Users/lenovo/Desktop/liteos/Project2/BearPi_LiteOS/components/connectivity/lwm2m/core\registration.c ****         else if (keyLength == REG_ATTR_CONTENT_KEY_LEN
 886:C:/Users/lenovo/Desktop/liteos/Project2/BearPi_LiteOS/components/connectivity/lwm2m/core\registration.c ****                  && 0 == lwm2m_strncmp(REG_ATTR_CONTENT_KEY, (char *)data + index + keyStart, keyLe
 887:C:/Users/lenovo/Desktop/liteos/Project2/BearPi_LiteOS/components/connectivity/lwm2m/core\registration.c ****         {
 888:C:/Users/lenovo/Desktop/liteos/Project2/BearPi_LiteOS/components/connectivity/lwm2m/core\registration.c ****             if (*supportJSON == true) return 0; // declared twice
 889:C:/Users/lenovo/Desktop/liteos/Project2/BearPi_LiteOS/components/connectivity/lwm2m/core\registration.c ****             if (valueLength == REG_ATTR_CONTENT_JSON_LEN
 890:C:/Users/lenovo/Desktop/liteos/Project2/BearPi_LiteOS/components/connectivity/lwm2m/core\registration.c ****                     && 0 == lwm2m_strncmp(REG_ATTR_CONTENT_JSON, (char *)data + index + valueStart,
 891:C:/Users/lenovo/Desktop/liteos/Project2/BearPi_LiteOS/components/connectivity/lwm2m/core\registration.c ****             {
 892:C:/Users/lenovo/Desktop/liteos/Project2/BearPi_LiteOS/components/connectivity/lwm2m/core\registration.c ****                 *supportJSON = true;
 893:C:/Users/lenovo/Desktop/liteos/Project2/BearPi_LiteOS/components/connectivity/lwm2m/core\registration.c ****             }
 894:C:/Users/lenovo/Desktop/liteos/Project2/BearPi_LiteOS/components/connectivity/lwm2m/core\registration.c ****             else
 895:C:/Users/lenovo/Desktop/liteos/Project2/BearPi_LiteOS/components/connectivity/lwm2m/core\registration.c ****             {
 896:C:/Users/lenovo/Desktop/liteos/Project2/BearPi_LiteOS/components/connectivity/lwm2m/core\registration.c ****                 return 0;
 897:C:/Users/lenovo/Desktop/liteos/Project2/BearPi_LiteOS/components/connectivity/lwm2m/core\registration.c ****             }
 898:C:/Users/lenovo/Desktop/liteos/Project2/BearPi_LiteOS/components/connectivity/lwm2m/core\registration.c ****         }
 899:C:/Users/lenovo/Desktop/liteos/Project2/BearPi_LiteOS/components/connectivity/lwm2m/core\registration.c ****         // else ignore this one
 900:C:/Users/lenovo/Desktop/liteos/Project2/BearPi_LiteOS/components/connectivity/lwm2m/core\registration.c **** 
 901:C:/Users/lenovo/Desktop/liteos/Project2/BearPi_LiteOS/components/connectivity/lwm2m/core\registration.c ****         index += result;
 902:C:/Users/lenovo/Desktop/liteos/Project2/BearPi_LiteOS/components/connectivity/lwm2m/core\registration.c ****     }
