ARM GAS  c:\Users\lenovo\AppData\Local\Temp\ccVehGBj.s 			page 1


   1              		.cpu cortex-m4
   2              		.eabi_attribute 27, 1
   3              		.eabi_attribute 28, 1
   4              		.eabi_attribute 20, 1
   5              		.eabi_attribute 21, 1
   6              		.eabi_attribute 23, 3
   7              		.eabi_attribute 24, 1
   8              		.eabi_attribute 25, 1
   9              		.eabi_attribute 26, 1
  10              		.eabi_attribute 30, 1
  11              		.eabi_attribute 34, 1
  12              		.eabi_attribute 18, 4
  13              		.file	"rsa.c"
  14              		.text
  15              	.Ltext0:
  16              		.cfi_sections	.debug_frame
  17              		.section	.text.mbedtls_zeroize,"ax",%progbits
  18              		.align	1
  19              		.syntax unified
  20              		.thumb
  21              		.thumb_func
  22              		.fpu fpv4-sp-d16
  24              	mbedtls_zeroize:
  25              	.LFB12:
  26              		.file 1 "C:/Users/lenovo/Desktop/liteos/Project2/BearPi_LiteOS/components/security/mbedtls/mbedtls
   1:C:/Users/lenovo/Desktop/liteos/Project2/BearPi_LiteOS/components/security/mbedtls/mbedtls-2.6.0/library\rsa.c **** /*
   2:C:/Users/lenovo/Desktop/liteos/Project2/BearPi_LiteOS/components/security/mbedtls/mbedtls-2.6.0/library\rsa.c ****  *  The RSA public-key cryptosystem
   3:C:/Users/lenovo/Desktop/liteos/Project2/BearPi_LiteOS/components/security/mbedtls/mbedtls-2.6.0/library\rsa.c ****  *
   4:C:/Users/lenovo/Desktop/liteos/Project2/BearPi_LiteOS/components/security/mbedtls/mbedtls-2.6.0/library\rsa.c ****  *  Copyright (C) 2006-2015, ARM Limited, All Rights Reserved
   5:C:/Users/lenovo/Desktop/liteos/Project2/BearPi_LiteOS/components/security/mbedtls/mbedtls-2.6.0/library\rsa.c ****  *  SPDX-License-Identifier: Apache-2.0
   6:C:/Users/lenovo/Desktop/liteos/Project2/BearPi_LiteOS/components/security/mbedtls/mbedtls-2.6.0/library\rsa.c ****  *
   7:C:/Users/lenovo/Desktop/liteos/Project2/BearPi_LiteOS/components/security/mbedtls/mbedtls-2.6.0/library\rsa.c ****  *  Licensed under the Apache License, Version 2.0 (the "License"); you may
   8:C:/Users/lenovo/Desktop/liteos/Project2/BearPi_LiteOS/components/security/mbedtls/mbedtls-2.6.0/library\rsa.c ****  *  not use this file except in compliance with the License.
   9:C:/Users/lenovo/Desktop/liteos/Project2/BearPi_LiteOS/components/security/mbedtls/mbedtls-2.6.0/library\rsa.c ****  *  You may obtain a copy of the License at
  10:C:/Users/lenovo/Desktop/liteos/Project2/BearPi_LiteOS/components/security/mbedtls/mbedtls-2.6.0/library\rsa.c ****  *
  11:C:/Users/lenovo/Desktop/liteos/Project2/BearPi_LiteOS/components/security/mbedtls/mbedtls-2.6.0/library\rsa.c ****  *  http://www.apache.org/licenses/LICENSE-2.0
  12:C:/Users/lenovo/Desktop/liteos/Project2/BearPi_LiteOS/components/security/mbedtls/mbedtls-2.6.0/library\rsa.c ****  *
  13:C:/Users/lenovo/Desktop/liteos/Project2/BearPi_LiteOS/components/security/mbedtls/mbedtls-2.6.0/library\rsa.c ****  *  Unless required by applicable law or agreed to in writing, software
  14:C:/Users/lenovo/Desktop/liteos/Project2/BearPi_LiteOS/components/security/mbedtls/mbedtls-2.6.0/library\rsa.c ****  *  distributed under the License is distributed on an "AS IS" BASIS, WITHOUT
  15:C:/Users/lenovo/Desktop/liteos/Project2/BearPi_LiteOS/components/security/mbedtls/mbedtls-2.6.0/library\rsa.c ****  *  WARRANTIES OR CONDITIONS OF ANY KIND, either express or implied.
  16:C:/Users/lenovo/Desktop/liteos/Project2/BearPi_LiteOS/components/security/mbedtls/mbedtls-2.6.0/library\rsa.c ****  *  See the License for the specific language governing permissions and
  17:C:/Users/lenovo/Desktop/liteos/Project2/BearPi_LiteOS/components/security/mbedtls/mbedtls-2.6.0/library\rsa.c ****  *  limitations under the License.
  18:C:/Users/lenovo/Desktop/liteos/Project2/BearPi_LiteOS/components/security/mbedtls/mbedtls-2.6.0/library\rsa.c ****  *
  19:C:/Users/lenovo/Desktop/liteos/Project2/BearPi_LiteOS/components/security/mbedtls/mbedtls-2.6.0/library\rsa.c ****  *  This file is part of mbed TLS (https://tls.mbed.org)
  20:C:/Users/lenovo/Desktop/liteos/Project2/BearPi_LiteOS/components/security/mbedtls/mbedtls-2.6.0/library\rsa.c ****  */
  21:C:/Users/lenovo/Desktop/liteos/Project2/BearPi_LiteOS/components/security/mbedtls/mbedtls-2.6.0/library\rsa.c **** /*
  22:C:/Users/lenovo/Desktop/liteos/Project2/BearPi_LiteOS/components/security/mbedtls/mbedtls-2.6.0/library\rsa.c ****  *  The following sources were referenced in the design of this implementation
  23:C:/Users/lenovo/Desktop/liteos/Project2/BearPi_LiteOS/components/security/mbedtls/mbedtls-2.6.0/library\rsa.c ****  *  of the RSA algorithm:
  24:C:/Users/lenovo/Desktop/liteos/Project2/BearPi_LiteOS/components/security/mbedtls/mbedtls-2.6.0/library\rsa.c ****  *
  25:C:/Users/lenovo/Desktop/liteos/Project2/BearPi_LiteOS/components/security/mbedtls/mbedtls-2.6.0/library\rsa.c ****  *  [1] A method for obtaining digital signatures and public-key cryptosystems
  26:C:/Users/lenovo/Desktop/liteos/Project2/BearPi_LiteOS/components/security/mbedtls/mbedtls-2.6.0/library\rsa.c ****  *      R Rivest, A Shamir, and L Adleman
  27:C:/Users/lenovo/Desktop/liteos/Project2/BearPi_LiteOS/components/security/mbedtls/mbedtls-2.6.0/library\rsa.c ****  *      http://people.csail.mit.edu/rivest/pubs.html#RSA78
  28:C:/Users/lenovo/Desktop/liteos/Project2/BearPi_LiteOS/components/security/mbedtls/mbedtls-2.6.0/library\rsa.c ****  *
  29:C:/Users/lenovo/Desktop/liteos/Project2/BearPi_LiteOS/components/security/mbedtls/mbedtls-2.6.0/library\rsa.c ****  *  [2] Handbook of Applied Cryptography - 1997, Chapter 8
  30:C:/Users/lenovo/Desktop/liteos/Project2/BearPi_LiteOS/components/security/mbedtls/mbedtls-2.6.0/library\rsa.c ****  *      Menezes, van Oorschot and Vanstone
  31:C:/Users/lenovo/Desktop/liteos/Project2/BearPi_LiteOS/components/security/mbedtls/mbedtls-2.6.0/library\rsa.c ****  *
  32:C:/Users/lenovo/Desktop/liteos/Project2/BearPi_LiteOS/components/security/mbedtls/mbedtls-2.6.0/library\rsa.c ****  *  [3] Malware Guard Extension: Using SGX to Conceal Cache Attacks
ARM GAS  c:\Users\lenovo\AppData\Local\Temp\ccVehGBj.s 			page 2


  33:C:/Users/lenovo/Desktop/liteos/Project2/BearPi_LiteOS/components/security/mbedtls/mbedtls-2.6.0/library\rsa.c ****  *      Michael Schwarz, Samuel Weiser, Daniel Gruss, Clémentine Maurice and
  34:C:/Users/lenovo/Desktop/liteos/Project2/BearPi_LiteOS/components/security/mbedtls/mbedtls-2.6.0/library\rsa.c ****  *      Stefan Mangard
  35:C:/Users/lenovo/Desktop/liteos/Project2/BearPi_LiteOS/components/security/mbedtls/mbedtls-2.6.0/library\rsa.c ****  *      https://arxiv.org/abs/1702.08719v2
  36:C:/Users/lenovo/Desktop/liteos/Project2/BearPi_LiteOS/components/security/mbedtls/mbedtls-2.6.0/library\rsa.c ****  *
  37:C:/Users/lenovo/Desktop/liteos/Project2/BearPi_LiteOS/components/security/mbedtls/mbedtls-2.6.0/library\rsa.c ****  */
  38:C:/Users/lenovo/Desktop/liteos/Project2/BearPi_LiteOS/components/security/mbedtls/mbedtls-2.6.0/library\rsa.c **** 
  39:C:/Users/lenovo/Desktop/liteos/Project2/BearPi_LiteOS/components/security/mbedtls/mbedtls-2.6.0/library\rsa.c **** #if !defined(MBEDTLS_CONFIG_FILE)
  40:C:/Users/lenovo/Desktop/liteos/Project2/BearPi_LiteOS/components/security/mbedtls/mbedtls-2.6.0/library\rsa.c **** #include "mbedtls/config.h"
  41:C:/Users/lenovo/Desktop/liteos/Project2/BearPi_LiteOS/components/security/mbedtls/mbedtls-2.6.0/library\rsa.c **** #else
  42:C:/Users/lenovo/Desktop/liteos/Project2/BearPi_LiteOS/components/security/mbedtls/mbedtls-2.6.0/library\rsa.c **** #include MBEDTLS_CONFIG_FILE
  43:C:/Users/lenovo/Desktop/liteos/Project2/BearPi_LiteOS/components/security/mbedtls/mbedtls-2.6.0/library\rsa.c **** #endif
  44:C:/Users/lenovo/Desktop/liteos/Project2/BearPi_LiteOS/components/security/mbedtls/mbedtls-2.6.0/library\rsa.c **** 
  45:C:/Users/lenovo/Desktop/liteos/Project2/BearPi_LiteOS/components/security/mbedtls/mbedtls-2.6.0/library\rsa.c **** #if defined(MBEDTLS_RSA_C)
  46:C:/Users/lenovo/Desktop/liteos/Project2/BearPi_LiteOS/components/security/mbedtls/mbedtls-2.6.0/library\rsa.c **** 
  47:C:/Users/lenovo/Desktop/liteos/Project2/BearPi_LiteOS/components/security/mbedtls/mbedtls-2.6.0/library\rsa.c **** #include "mbedtls/rsa.h"
  48:C:/Users/lenovo/Desktop/liteos/Project2/BearPi_LiteOS/components/security/mbedtls/mbedtls-2.6.0/library\rsa.c **** #include "mbedtls/oid.h"
  49:C:/Users/lenovo/Desktop/liteos/Project2/BearPi_LiteOS/components/security/mbedtls/mbedtls-2.6.0/library\rsa.c **** 
  50:C:/Users/lenovo/Desktop/liteos/Project2/BearPi_LiteOS/components/security/mbedtls/mbedtls-2.6.0/library\rsa.c **** #include <string.h>
  51:C:/Users/lenovo/Desktop/liteos/Project2/BearPi_LiteOS/components/security/mbedtls/mbedtls-2.6.0/library\rsa.c **** 
  52:C:/Users/lenovo/Desktop/liteos/Project2/BearPi_LiteOS/components/security/mbedtls/mbedtls-2.6.0/library\rsa.c **** #if defined(MBEDTLS_PKCS1_V21)
  53:C:/Users/lenovo/Desktop/liteos/Project2/BearPi_LiteOS/components/security/mbedtls/mbedtls-2.6.0/library\rsa.c **** #include "mbedtls/md.h"
  54:C:/Users/lenovo/Desktop/liteos/Project2/BearPi_LiteOS/components/security/mbedtls/mbedtls-2.6.0/library\rsa.c **** #endif
  55:C:/Users/lenovo/Desktop/liteos/Project2/BearPi_LiteOS/components/security/mbedtls/mbedtls-2.6.0/library\rsa.c **** 
  56:C:/Users/lenovo/Desktop/liteos/Project2/BearPi_LiteOS/components/security/mbedtls/mbedtls-2.6.0/library\rsa.c **** #if defined(MBEDTLS_PKCS1_V15) && !defined(__OpenBSD__)
  57:C:/Users/lenovo/Desktop/liteos/Project2/BearPi_LiteOS/components/security/mbedtls/mbedtls-2.6.0/library\rsa.c **** #include <stdlib.h>
  58:C:/Users/lenovo/Desktop/liteos/Project2/BearPi_LiteOS/components/security/mbedtls/mbedtls-2.6.0/library\rsa.c **** #endif
  59:C:/Users/lenovo/Desktop/liteos/Project2/BearPi_LiteOS/components/security/mbedtls/mbedtls-2.6.0/library\rsa.c **** 
  60:C:/Users/lenovo/Desktop/liteos/Project2/BearPi_LiteOS/components/security/mbedtls/mbedtls-2.6.0/library\rsa.c **** #if defined(MBEDTLS_PLATFORM_C)
  61:C:/Users/lenovo/Desktop/liteos/Project2/BearPi_LiteOS/components/security/mbedtls/mbedtls-2.6.0/library\rsa.c **** #include "mbedtls/platform.h"
  62:C:/Users/lenovo/Desktop/liteos/Project2/BearPi_LiteOS/components/security/mbedtls/mbedtls-2.6.0/library\rsa.c **** #else
  63:C:/Users/lenovo/Desktop/liteos/Project2/BearPi_LiteOS/components/security/mbedtls/mbedtls-2.6.0/library\rsa.c **** #include <stdio.h>
  64:C:/Users/lenovo/Desktop/liteos/Project2/BearPi_LiteOS/components/security/mbedtls/mbedtls-2.6.0/library\rsa.c **** #define mbedtls_printf printf
  65:C:/Users/lenovo/Desktop/liteos/Project2/BearPi_LiteOS/components/security/mbedtls/mbedtls-2.6.0/library\rsa.c **** #define mbedtls_calloc calloc
  66:C:/Users/lenovo/Desktop/liteos/Project2/BearPi_LiteOS/components/security/mbedtls/mbedtls-2.6.0/library\rsa.c **** #define mbedtls_free   free
  67:C:/Users/lenovo/Desktop/liteos/Project2/BearPi_LiteOS/components/security/mbedtls/mbedtls-2.6.0/library\rsa.c **** #endif
  68:C:/Users/lenovo/Desktop/liteos/Project2/BearPi_LiteOS/components/security/mbedtls/mbedtls-2.6.0/library\rsa.c **** 
  69:C:/Users/lenovo/Desktop/liteos/Project2/BearPi_LiteOS/components/security/mbedtls/mbedtls-2.6.0/library\rsa.c **** /* Implementation that should never be optimized out by the compiler */
  70:C:/Users/lenovo/Desktop/liteos/Project2/BearPi_LiteOS/components/security/mbedtls/mbedtls-2.6.0/library\rsa.c **** static void mbedtls_zeroize( void *v, size_t n ) {
  27              		.loc 1 70 0
  28              		.cfi_startproc
  29              		@ args = 0, pretend = 0, frame = 0
  30              		@ frame_needed = 0, uses_anonymous_args = 0
  31              		@ link register save eliminated.
  32              	.LVL0:
  71:C:/Users/lenovo/Desktop/liteos/Project2/BearPi_LiteOS/components/security/mbedtls/mbedtls-2.6.0/library\rsa.c ****     volatile unsigned char *p = (unsigned char*)v; while( n-- ) *p++ = 0;
  33              		.loc 1 71 0
  34 0000 03E0     		b	.L2
  35              	.LVL1:
  36              	.L3:
  37              		.loc 1 71 0 is_stmt 0 discriminator 3
  38 0002 0022     		movs	r2, #0
  39 0004 0270     		strb	r2, [r0]
  40 0006 0130     		adds	r0, r0, #1
  41              	.LVL2:
  42 0008 1946     		mov	r1, r3
  43              	.LVL3:
  44              	.L2:
ARM GAS  c:\Users\lenovo\AppData\Local\Temp\ccVehGBj.s 			page 3


  45              		.loc 1 71 0 discriminator 1
  46 000a 4B1E     		subs	r3, r1, #1
  47              	.LVL4:
  48 000c 0029     		cmp	r1, #0
  49 000e F8D1     		bne	.L3
  72:C:/Users/lenovo/Desktop/liteos/Project2/BearPi_LiteOS/components/security/mbedtls/mbedtls-2.6.0/library\rsa.c **** }
  50              		.loc 1 72 0 is_stmt 1
  51 0010 7047     		bx	lr
  52              		.cfi_endproc
  53              	.LFE12:
  55              		.section	.text.rsa_prepare_blinding,"ax",%progbits
  56              		.align	1
  57              		.syntax unified
  58              		.thumb
  59              		.thumb_func
  60              		.fpu fpv4-sp-d16
  62              	rsa_prepare_blinding:
  63              	.LFB19:
  73:C:/Users/lenovo/Desktop/liteos/Project2/BearPi_LiteOS/components/security/mbedtls/mbedtls-2.6.0/library\rsa.c **** 
  74:C:/Users/lenovo/Desktop/liteos/Project2/BearPi_LiteOS/components/security/mbedtls/mbedtls-2.6.0/library\rsa.c **** /*
  75:C:/Users/lenovo/Desktop/liteos/Project2/BearPi_LiteOS/components/security/mbedtls/mbedtls-2.6.0/library\rsa.c ****  * Initialize an RSA context
  76:C:/Users/lenovo/Desktop/liteos/Project2/BearPi_LiteOS/components/security/mbedtls/mbedtls-2.6.0/library\rsa.c ****  */
  77:C:/Users/lenovo/Desktop/liteos/Project2/BearPi_LiteOS/components/security/mbedtls/mbedtls-2.6.0/library\rsa.c **** void mbedtls_rsa_init( mbedtls_rsa_context *ctx,
  78:C:/Users/lenovo/Desktop/liteos/Project2/BearPi_LiteOS/components/security/mbedtls/mbedtls-2.6.0/library\rsa.c ****                int padding,
  79:C:/Users/lenovo/Desktop/liteos/Project2/BearPi_LiteOS/components/security/mbedtls/mbedtls-2.6.0/library\rsa.c ****                int hash_id )
  80:C:/Users/lenovo/Desktop/liteos/Project2/BearPi_LiteOS/components/security/mbedtls/mbedtls-2.6.0/library\rsa.c **** {
  81:C:/Users/lenovo/Desktop/liteos/Project2/BearPi_LiteOS/components/security/mbedtls/mbedtls-2.6.0/library\rsa.c ****     memset( ctx, 0, sizeof( mbedtls_rsa_context ) );
  82:C:/Users/lenovo/Desktop/liteos/Project2/BearPi_LiteOS/components/security/mbedtls/mbedtls-2.6.0/library\rsa.c **** 
  83:C:/Users/lenovo/Desktop/liteos/Project2/BearPi_LiteOS/components/security/mbedtls/mbedtls-2.6.0/library\rsa.c ****     mbedtls_rsa_set_padding( ctx, padding, hash_id );
  84:C:/Users/lenovo/Desktop/liteos/Project2/BearPi_LiteOS/components/security/mbedtls/mbedtls-2.6.0/library\rsa.c **** 
  85:C:/Users/lenovo/Desktop/liteos/Project2/BearPi_LiteOS/components/security/mbedtls/mbedtls-2.6.0/library\rsa.c **** #if defined(MBEDTLS_THREADING_C)
  86:C:/Users/lenovo/Desktop/liteos/Project2/BearPi_LiteOS/components/security/mbedtls/mbedtls-2.6.0/library\rsa.c ****     mbedtls_mutex_init( &ctx->mutex );
  87:C:/Users/lenovo/Desktop/liteos/Project2/BearPi_LiteOS/components/security/mbedtls/mbedtls-2.6.0/library\rsa.c **** #endif
  88:C:/Users/lenovo/Desktop/liteos/Project2/BearPi_LiteOS/components/security/mbedtls/mbedtls-2.6.0/library\rsa.c **** }
  89:C:/Users/lenovo/Desktop/liteos/Project2/BearPi_LiteOS/components/security/mbedtls/mbedtls-2.6.0/library\rsa.c **** 
  90:C:/Users/lenovo/Desktop/liteos/Project2/BearPi_LiteOS/components/security/mbedtls/mbedtls-2.6.0/library\rsa.c **** /*
  91:C:/Users/lenovo/Desktop/liteos/Project2/BearPi_LiteOS/components/security/mbedtls/mbedtls-2.6.0/library\rsa.c ****  * Set padding for an existing RSA context
  92:C:/Users/lenovo/Desktop/liteos/Project2/BearPi_LiteOS/components/security/mbedtls/mbedtls-2.6.0/library\rsa.c ****  */
  93:C:/Users/lenovo/Desktop/liteos/Project2/BearPi_LiteOS/components/security/mbedtls/mbedtls-2.6.0/library\rsa.c **** void mbedtls_rsa_set_padding( mbedtls_rsa_context *ctx, int padding, int hash_id )
  94:C:/Users/lenovo/Desktop/liteos/Project2/BearPi_LiteOS/components/security/mbedtls/mbedtls-2.6.0/library\rsa.c **** {
  95:C:/Users/lenovo/Desktop/liteos/Project2/BearPi_LiteOS/components/security/mbedtls/mbedtls-2.6.0/library\rsa.c ****     ctx->padding = padding;
  96:C:/Users/lenovo/Desktop/liteos/Project2/BearPi_LiteOS/components/security/mbedtls/mbedtls-2.6.0/library\rsa.c ****     ctx->hash_id = hash_id;
  97:C:/Users/lenovo/Desktop/liteos/Project2/BearPi_LiteOS/components/security/mbedtls/mbedtls-2.6.0/library\rsa.c **** }
  98:C:/Users/lenovo/Desktop/liteos/Project2/BearPi_LiteOS/components/security/mbedtls/mbedtls-2.6.0/library\rsa.c **** 
  99:C:/Users/lenovo/Desktop/liteos/Project2/BearPi_LiteOS/components/security/mbedtls/mbedtls-2.6.0/library\rsa.c **** #if defined(MBEDTLS_GENPRIME)
 100:C:/Users/lenovo/Desktop/liteos/Project2/BearPi_LiteOS/components/security/mbedtls/mbedtls-2.6.0/library\rsa.c **** 
 101:C:/Users/lenovo/Desktop/liteos/Project2/BearPi_LiteOS/components/security/mbedtls/mbedtls-2.6.0/library\rsa.c **** /*
 102:C:/Users/lenovo/Desktop/liteos/Project2/BearPi_LiteOS/components/security/mbedtls/mbedtls-2.6.0/library\rsa.c ****  * Generate an RSA keypair
 103:C:/Users/lenovo/Desktop/liteos/Project2/BearPi_LiteOS/components/security/mbedtls/mbedtls-2.6.0/library\rsa.c ****  */
 104:C:/Users/lenovo/Desktop/liteos/Project2/BearPi_LiteOS/components/security/mbedtls/mbedtls-2.6.0/library\rsa.c **** int mbedtls_rsa_gen_key( mbedtls_rsa_context *ctx,
 105:C:/Users/lenovo/Desktop/liteos/Project2/BearPi_LiteOS/components/security/mbedtls/mbedtls-2.6.0/library\rsa.c ****                  int (*f_rng)(void *, unsigned char *, size_t),
 106:C:/Users/lenovo/Desktop/liteos/Project2/BearPi_LiteOS/components/security/mbedtls/mbedtls-2.6.0/library\rsa.c ****                  void *p_rng,
 107:C:/Users/lenovo/Desktop/liteos/Project2/BearPi_LiteOS/components/security/mbedtls/mbedtls-2.6.0/library\rsa.c ****                  unsigned int nbits, int exponent )
 108:C:/Users/lenovo/Desktop/liteos/Project2/BearPi_LiteOS/components/security/mbedtls/mbedtls-2.6.0/library\rsa.c **** {
 109:C:/Users/lenovo/Desktop/liteos/Project2/BearPi_LiteOS/components/security/mbedtls/mbedtls-2.6.0/library\rsa.c ****     int ret;
 110:C:/Users/lenovo/Desktop/liteos/Project2/BearPi_LiteOS/components/security/mbedtls/mbedtls-2.6.0/library\rsa.c ****     mbedtls_mpi P1, Q1, H, G;
 111:C:/Users/lenovo/Desktop/liteos/Project2/BearPi_LiteOS/components/security/mbedtls/mbedtls-2.6.0/library\rsa.c **** 
ARM GAS  c:\Users\lenovo\AppData\Local\Temp\ccVehGBj.s 			page 4


 112:C:/Users/lenovo/Desktop/liteos/Project2/BearPi_LiteOS/components/security/mbedtls/mbedtls-2.6.0/library\rsa.c ****     if( f_rng == NULL || nbits < 128 || exponent < 3 )
 113:C:/Users/lenovo/Desktop/liteos/Project2/BearPi_LiteOS/components/security/mbedtls/mbedtls-2.6.0/library\rsa.c ****         return( MBEDTLS_ERR_RSA_BAD_INPUT_DATA );
 114:C:/Users/lenovo/Desktop/liteos/Project2/BearPi_LiteOS/components/security/mbedtls/mbedtls-2.6.0/library\rsa.c **** 
 115:C:/Users/lenovo/Desktop/liteos/Project2/BearPi_LiteOS/components/security/mbedtls/mbedtls-2.6.0/library\rsa.c ****     if( nbits % 2 )
 116:C:/Users/lenovo/Desktop/liteos/Project2/BearPi_LiteOS/components/security/mbedtls/mbedtls-2.6.0/library\rsa.c ****         return( MBEDTLS_ERR_RSA_BAD_INPUT_DATA );
 117:C:/Users/lenovo/Desktop/liteos/Project2/BearPi_LiteOS/components/security/mbedtls/mbedtls-2.6.0/library\rsa.c **** 
 118:C:/Users/lenovo/Desktop/liteos/Project2/BearPi_LiteOS/components/security/mbedtls/mbedtls-2.6.0/library\rsa.c ****     mbedtls_mpi_init( &P1 ); mbedtls_mpi_init( &Q1 );
 119:C:/Users/lenovo/Desktop/liteos/Project2/BearPi_LiteOS/components/security/mbedtls/mbedtls-2.6.0/library\rsa.c ****     mbedtls_mpi_init( &H ); mbedtls_mpi_init( &G );
 120:C:/Users/lenovo/Desktop/liteos/Project2/BearPi_LiteOS/components/security/mbedtls/mbedtls-2.6.0/library\rsa.c **** 
 121:C:/Users/lenovo/Desktop/liteos/Project2/BearPi_LiteOS/components/security/mbedtls/mbedtls-2.6.0/library\rsa.c ****     /*
 122:C:/Users/lenovo/Desktop/liteos/Project2/BearPi_LiteOS/components/security/mbedtls/mbedtls-2.6.0/library\rsa.c ****      * find primes P and Q with Q < P so that:
 123:C:/Users/lenovo/Desktop/liteos/Project2/BearPi_LiteOS/components/security/mbedtls/mbedtls-2.6.0/library\rsa.c ****      * GCD( E, (P-1)*(Q-1) ) == 1
 124:C:/Users/lenovo/Desktop/liteos/Project2/BearPi_LiteOS/components/security/mbedtls/mbedtls-2.6.0/library\rsa.c ****      */
 125:C:/Users/lenovo/Desktop/liteos/Project2/BearPi_LiteOS/components/security/mbedtls/mbedtls-2.6.0/library\rsa.c ****     MBEDTLS_MPI_CHK( mbedtls_mpi_lset( &ctx->E, exponent ) );
 126:C:/Users/lenovo/Desktop/liteos/Project2/BearPi_LiteOS/components/security/mbedtls/mbedtls-2.6.0/library\rsa.c **** 
 127:C:/Users/lenovo/Desktop/liteos/Project2/BearPi_LiteOS/components/security/mbedtls/mbedtls-2.6.0/library\rsa.c ****     do
 128:C:/Users/lenovo/Desktop/liteos/Project2/BearPi_LiteOS/components/security/mbedtls/mbedtls-2.6.0/library\rsa.c ****     {
 129:C:/Users/lenovo/Desktop/liteos/Project2/BearPi_LiteOS/components/security/mbedtls/mbedtls-2.6.0/library\rsa.c ****         MBEDTLS_MPI_CHK( mbedtls_mpi_gen_prime( &ctx->P, nbits >> 1, 0,
 130:C:/Users/lenovo/Desktop/liteos/Project2/BearPi_LiteOS/components/security/mbedtls/mbedtls-2.6.0/library\rsa.c ****                                 f_rng, p_rng ) );
 131:C:/Users/lenovo/Desktop/liteos/Project2/BearPi_LiteOS/components/security/mbedtls/mbedtls-2.6.0/library\rsa.c **** 
 132:C:/Users/lenovo/Desktop/liteos/Project2/BearPi_LiteOS/components/security/mbedtls/mbedtls-2.6.0/library\rsa.c ****         MBEDTLS_MPI_CHK( mbedtls_mpi_gen_prime( &ctx->Q, nbits >> 1, 0,
 133:C:/Users/lenovo/Desktop/liteos/Project2/BearPi_LiteOS/components/security/mbedtls/mbedtls-2.6.0/library\rsa.c ****                                 f_rng, p_rng ) );
 134:C:/Users/lenovo/Desktop/liteos/Project2/BearPi_LiteOS/components/security/mbedtls/mbedtls-2.6.0/library\rsa.c **** 
 135:C:/Users/lenovo/Desktop/liteos/Project2/BearPi_LiteOS/components/security/mbedtls/mbedtls-2.6.0/library\rsa.c ****         if( mbedtls_mpi_cmp_mpi( &ctx->P, &ctx->Q ) == 0 )
 136:C:/Users/lenovo/Desktop/liteos/Project2/BearPi_LiteOS/components/security/mbedtls/mbedtls-2.6.0/library\rsa.c ****             continue;
 137:C:/Users/lenovo/Desktop/liteos/Project2/BearPi_LiteOS/components/security/mbedtls/mbedtls-2.6.0/library\rsa.c **** 
 138:C:/Users/lenovo/Desktop/liteos/Project2/BearPi_LiteOS/components/security/mbedtls/mbedtls-2.6.0/library\rsa.c ****         MBEDTLS_MPI_CHK( mbedtls_mpi_mul_mpi( &ctx->N, &ctx->P, &ctx->Q ) );
 139:C:/Users/lenovo/Desktop/liteos/Project2/BearPi_LiteOS/components/security/mbedtls/mbedtls-2.6.0/library\rsa.c ****         if( mbedtls_mpi_bitlen( &ctx->N ) != nbits )
 140:C:/Users/lenovo/Desktop/liteos/Project2/BearPi_LiteOS/components/security/mbedtls/mbedtls-2.6.0/library\rsa.c ****             continue;
 141:C:/Users/lenovo/Desktop/liteos/Project2/BearPi_LiteOS/components/security/mbedtls/mbedtls-2.6.0/library\rsa.c **** 
 142:C:/Users/lenovo/Desktop/liteos/Project2/BearPi_LiteOS/components/security/mbedtls/mbedtls-2.6.0/library\rsa.c ****         if( mbedtls_mpi_cmp_mpi( &ctx->P, &ctx->Q ) < 0 )
 143:C:/Users/lenovo/Desktop/liteos/Project2/BearPi_LiteOS/components/security/mbedtls/mbedtls-2.6.0/library\rsa.c ****                                 mbedtls_mpi_swap( &ctx->P, &ctx->Q );
 144:C:/Users/lenovo/Desktop/liteos/Project2/BearPi_LiteOS/components/security/mbedtls/mbedtls-2.6.0/library\rsa.c **** 
 145:C:/Users/lenovo/Desktop/liteos/Project2/BearPi_LiteOS/components/security/mbedtls/mbedtls-2.6.0/library\rsa.c ****         MBEDTLS_MPI_CHK( mbedtls_mpi_sub_int( &P1, &ctx->P, 1 ) );
 146:C:/Users/lenovo/Desktop/liteos/Project2/BearPi_LiteOS/components/security/mbedtls/mbedtls-2.6.0/library\rsa.c ****         MBEDTLS_MPI_CHK( mbedtls_mpi_sub_int( &Q1, &ctx->Q, 1 ) );
 147:C:/Users/lenovo/Desktop/liteos/Project2/BearPi_LiteOS/components/security/mbedtls/mbedtls-2.6.0/library\rsa.c ****         MBEDTLS_MPI_CHK( mbedtls_mpi_mul_mpi( &H, &P1, &Q1 ) );
 148:C:/Users/lenovo/Desktop/liteos/Project2/BearPi_LiteOS/components/security/mbedtls/mbedtls-2.6.0/library\rsa.c ****         MBEDTLS_MPI_CHK( mbedtls_mpi_gcd( &G, &ctx->E, &H  ) );
 149:C:/Users/lenovo/Desktop/liteos/Project2/BearPi_LiteOS/components/security/mbedtls/mbedtls-2.6.0/library\rsa.c ****     }
 150:C:/Users/lenovo/Desktop/liteos/Project2/BearPi_LiteOS/components/security/mbedtls/mbedtls-2.6.0/library\rsa.c ****     while( mbedtls_mpi_cmp_int( &G, 1 ) != 0 );
 151:C:/Users/lenovo/Desktop/liteos/Project2/BearPi_LiteOS/components/security/mbedtls/mbedtls-2.6.0/library\rsa.c **** 
 152:C:/Users/lenovo/Desktop/liteos/Project2/BearPi_LiteOS/components/security/mbedtls/mbedtls-2.6.0/library\rsa.c ****     /*
 153:C:/Users/lenovo/Desktop/liteos/Project2/BearPi_LiteOS/components/security/mbedtls/mbedtls-2.6.0/library\rsa.c ****      * D  = E^-1 mod ((P-1)*(Q-1))
 154:C:/Users/lenovo/Desktop/liteos/Project2/BearPi_LiteOS/components/security/mbedtls/mbedtls-2.6.0/library\rsa.c ****      * DP = D mod (P - 1)
 155:C:/Users/lenovo/Desktop/liteos/Project2/BearPi_LiteOS/components/security/mbedtls/mbedtls-2.6.0/library\rsa.c ****      * DQ = D mod (Q - 1)
 156:C:/Users/lenovo/Desktop/liteos/Project2/BearPi_LiteOS/components/security/mbedtls/mbedtls-2.6.0/library\rsa.c ****      * QP = Q^-1 mod P
 157:C:/Users/lenovo/Desktop/liteos/Project2/BearPi_LiteOS/components/security/mbedtls/mbedtls-2.6.0/library\rsa.c ****      */
 158:C:/Users/lenovo/Desktop/liteos/Project2/BearPi_LiteOS/components/security/mbedtls/mbedtls-2.6.0/library\rsa.c ****     MBEDTLS_MPI_CHK( mbedtls_mpi_inv_mod( &ctx->D , &ctx->E, &H  ) );
 159:C:/Users/lenovo/Desktop/liteos/Project2/BearPi_LiteOS/components/security/mbedtls/mbedtls-2.6.0/library\rsa.c ****     MBEDTLS_MPI_CHK( mbedtls_mpi_mod_mpi( &ctx->DP, &ctx->D, &P1 ) );
 160:C:/Users/lenovo/Desktop/liteos/Project2/BearPi_LiteOS/components/security/mbedtls/mbedtls-2.6.0/library\rsa.c ****     MBEDTLS_MPI_CHK( mbedtls_mpi_mod_mpi( &ctx->DQ, &ctx->D, &Q1 ) );
 161:C:/Users/lenovo/Desktop/liteos/Project2/BearPi_LiteOS/components/security/mbedtls/mbedtls-2.6.0/library\rsa.c ****     MBEDTLS_MPI_CHK( mbedtls_mpi_inv_mod( &ctx->QP, &ctx->Q, &ctx->P ) );
 162:C:/Users/lenovo/Desktop/liteos/Project2/BearPi_LiteOS/components/security/mbedtls/mbedtls-2.6.0/library\rsa.c **** 
 163:C:/Users/lenovo/Desktop/liteos/Project2/BearPi_LiteOS/components/security/mbedtls/mbedtls-2.6.0/library\rsa.c ****     ctx->len = ( mbedtls_mpi_bitlen( &ctx->N ) + 7 ) >> 3;
 164:C:/Users/lenovo/Desktop/liteos/Project2/BearPi_LiteOS/components/security/mbedtls/mbedtls-2.6.0/library\rsa.c **** 
 165:C:/Users/lenovo/Desktop/liteos/Project2/BearPi_LiteOS/components/security/mbedtls/mbedtls-2.6.0/library\rsa.c **** cleanup:
 166:C:/Users/lenovo/Desktop/liteos/Project2/BearPi_LiteOS/components/security/mbedtls/mbedtls-2.6.0/library\rsa.c **** 
 167:C:/Users/lenovo/Desktop/liteos/Project2/BearPi_LiteOS/components/security/mbedtls/mbedtls-2.6.0/library\rsa.c ****     mbedtls_mpi_free( &P1 ); mbedtls_mpi_free( &Q1 ); mbedtls_mpi_free( &H ); mbedtls_mpi_free( &G 
 168:C:/Users/lenovo/Desktop/liteos/Project2/BearPi_LiteOS/components/security/mbedtls/mbedtls-2.6.0/library\rsa.c **** 
ARM GAS  c:\Users\lenovo\AppData\Local\Temp\ccVehGBj.s 			page 5


 169:C:/Users/lenovo/Desktop/liteos/Project2/BearPi_LiteOS/components/security/mbedtls/mbedtls-2.6.0/library\rsa.c ****     if( ret != 0 )
 170:C:/Users/lenovo/Desktop/liteos/Project2/BearPi_LiteOS/components/security/mbedtls/mbedtls-2.6.0/library\rsa.c ****     {
 171:C:/Users/lenovo/Desktop/liteos/Project2/BearPi_LiteOS/components/security/mbedtls/mbedtls-2.6.0/library\rsa.c ****         mbedtls_rsa_free( ctx );
 172:C:/Users/lenovo/Desktop/liteos/Project2/BearPi_LiteOS/components/security/mbedtls/mbedtls-2.6.0/library\rsa.c ****         return( MBEDTLS_ERR_RSA_KEY_GEN_FAILED + ret );
 173:C:/Users/lenovo/Desktop/liteos/Project2/BearPi_LiteOS/components/security/mbedtls/mbedtls-2.6.0/library\rsa.c ****     }
 174:C:/Users/lenovo/Desktop/liteos/Project2/BearPi_LiteOS/components/security/mbedtls/mbedtls-2.6.0/library\rsa.c **** 
 175:C:/Users/lenovo/Desktop/liteos/Project2/BearPi_LiteOS/components/security/mbedtls/mbedtls-2.6.0/library\rsa.c ****     return( 0 );
 176:C:/Users/lenovo/Desktop/liteos/Project2/BearPi_LiteOS/components/security/mbedtls/mbedtls-2.6.0/library\rsa.c **** }
 177:C:/Users/lenovo/Desktop/liteos/Project2/BearPi_LiteOS/components/security/mbedtls/mbedtls-2.6.0/library\rsa.c **** 
 178:C:/Users/lenovo/Desktop/liteos/Project2/BearPi_LiteOS/components/security/mbedtls/mbedtls-2.6.0/library\rsa.c **** #endif /* MBEDTLS_GENPRIME */
 179:C:/Users/lenovo/Desktop/liteos/Project2/BearPi_LiteOS/components/security/mbedtls/mbedtls-2.6.0/library\rsa.c **** 
 180:C:/Users/lenovo/Desktop/liteos/Project2/BearPi_LiteOS/components/security/mbedtls/mbedtls-2.6.0/library\rsa.c **** /*
 181:C:/Users/lenovo/Desktop/liteos/Project2/BearPi_LiteOS/components/security/mbedtls/mbedtls-2.6.0/library\rsa.c ****  * Check a public RSA key
 182:C:/Users/lenovo/Desktop/liteos/Project2/BearPi_LiteOS/components/security/mbedtls/mbedtls-2.6.0/library\rsa.c ****  */
 183:C:/Users/lenovo/Desktop/liteos/Project2/BearPi_LiteOS/components/security/mbedtls/mbedtls-2.6.0/library\rsa.c **** int mbedtls_rsa_check_pubkey( const mbedtls_rsa_context *ctx )
 184:C:/Users/lenovo/Desktop/liteos/Project2/BearPi_LiteOS/components/security/mbedtls/mbedtls-2.6.0/library\rsa.c **** {
 185:C:/Users/lenovo/Desktop/liteos/Project2/BearPi_LiteOS/components/security/mbedtls/mbedtls-2.6.0/library\rsa.c ****     if( !ctx->N.p || !ctx->E.p )
 186:C:/Users/lenovo/Desktop/liteos/Project2/BearPi_LiteOS/components/security/mbedtls/mbedtls-2.6.0/library\rsa.c ****         return( MBEDTLS_ERR_RSA_KEY_CHECK_FAILED );
 187:C:/Users/lenovo/Desktop/liteos/Project2/BearPi_LiteOS/components/security/mbedtls/mbedtls-2.6.0/library\rsa.c **** 
 188:C:/Users/lenovo/Desktop/liteos/Project2/BearPi_LiteOS/components/security/mbedtls/mbedtls-2.6.0/library\rsa.c ****     if( ( ctx->N.p[0] & 1 ) == 0 ||
 189:C:/Users/lenovo/Desktop/liteos/Project2/BearPi_LiteOS/components/security/mbedtls/mbedtls-2.6.0/library\rsa.c ****         ( ctx->E.p[0] & 1 ) == 0 )
 190:C:/Users/lenovo/Desktop/liteos/Project2/BearPi_LiteOS/components/security/mbedtls/mbedtls-2.6.0/library\rsa.c ****         return( MBEDTLS_ERR_RSA_KEY_CHECK_FAILED );
 191:C:/Users/lenovo/Desktop/liteos/Project2/BearPi_LiteOS/components/security/mbedtls/mbedtls-2.6.0/library\rsa.c **** 
 192:C:/Users/lenovo/Desktop/liteos/Project2/BearPi_LiteOS/components/security/mbedtls/mbedtls-2.6.0/library\rsa.c ****     if( mbedtls_mpi_bitlen( &ctx->N ) < 128 ||
 193:C:/Users/lenovo/Desktop/liteos/Project2/BearPi_LiteOS/components/security/mbedtls/mbedtls-2.6.0/library\rsa.c ****         mbedtls_mpi_bitlen( &ctx->N ) > MBEDTLS_MPI_MAX_BITS )
 194:C:/Users/lenovo/Desktop/liteos/Project2/BearPi_LiteOS/components/security/mbedtls/mbedtls-2.6.0/library\rsa.c ****         return( MBEDTLS_ERR_RSA_KEY_CHECK_FAILED );
 195:C:/Users/lenovo/Desktop/liteos/Project2/BearPi_LiteOS/components/security/mbedtls/mbedtls-2.6.0/library\rsa.c **** 
 196:C:/Users/lenovo/Desktop/liteos/Project2/BearPi_LiteOS/components/security/mbedtls/mbedtls-2.6.0/library\rsa.c ****     if( mbedtls_mpi_bitlen( &ctx->E ) < 2 ||
 197:C:/Users/lenovo/Desktop/liteos/Project2/BearPi_LiteOS/components/security/mbedtls/mbedtls-2.6.0/library\rsa.c ****         mbedtls_mpi_cmp_mpi( &ctx->E, &ctx->N ) >= 0 )
 198:C:/Users/lenovo/Desktop/liteos/Project2/BearPi_LiteOS/components/security/mbedtls/mbedtls-2.6.0/library\rsa.c ****         return( MBEDTLS_ERR_RSA_KEY_CHECK_FAILED );
 199:C:/Users/lenovo/Desktop/liteos/Project2/BearPi_LiteOS/components/security/mbedtls/mbedtls-2.6.0/library\rsa.c **** 
 200:C:/Users/lenovo/Desktop/liteos/Project2/BearPi_LiteOS/components/security/mbedtls/mbedtls-2.6.0/library\rsa.c ****     return( 0 );
 201:C:/Users/lenovo/Desktop/liteos/Project2/BearPi_LiteOS/components/security/mbedtls/mbedtls-2.6.0/library\rsa.c **** }
 202:C:/Users/lenovo/Desktop/liteos/Project2/BearPi_LiteOS/components/security/mbedtls/mbedtls-2.6.0/library\rsa.c **** 
 203:C:/Users/lenovo/Desktop/liteos/Project2/BearPi_LiteOS/components/security/mbedtls/mbedtls-2.6.0/library\rsa.c **** /*
 204:C:/Users/lenovo/Desktop/liteos/Project2/BearPi_LiteOS/components/security/mbedtls/mbedtls-2.6.0/library\rsa.c ****  * Check a private RSA key
 205:C:/Users/lenovo/Desktop/liteos/Project2/BearPi_LiteOS/components/security/mbedtls/mbedtls-2.6.0/library\rsa.c ****  */
 206:C:/Users/lenovo/Desktop/liteos/Project2/BearPi_LiteOS/components/security/mbedtls/mbedtls-2.6.0/library\rsa.c **** int mbedtls_rsa_check_privkey( const mbedtls_rsa_context *ctx )
 207:C:/Users/lenovo/Desktop/liteos/Project2/BearPi_LiteOS/components/security/mbedtls/mbedtls-2.6.0/library\rsa.c **** {
 208:C:/Users/lenovo/Desktop/liteos/Project2/BearPi_LiteOS/components/security/mbedtls/mbedtls-2.6.0/library\rsa.c ****     int ret;
 209:C:/Users/lenovo/Desktop/liteos/Project2/BearPi_LiteOS/components/security/mbedtls/mbedtls-2.6.0/library\rsa.c ****     mbedtls_mpi PQ, DE, P1, Q1, H, I, G, G2, L1, L2, DP, DQ, QP;
 210:C:/Users/lenovo/Desktop/liteos/Project2/BearPi_LiteOS/components/security/mbedtls/mbedtls-2.6.0/library\rsa.c **** 
 211:C:/Users/lenovo/Desktop/liteos/Project2/BearPi_LiteOS/components/security/mbedtls/mbedtls-2.6.0/library\rsa.c ****     if( ( ret = mbedtls_rsa_check_pubkey( ctx ) ) != 0 )
 212:C:/Users/lenovo/Desktop/liteos/Project2/BearPi_LiteOS/components/security/mbedtls/mbedtls-2.6.0/library\rsa.c ****         return( ret );
 213:C:/Users/lenovo/Desktop/liteos/Project2/BearPi_LiteOS/components/security/mbedtls/mbedtls-2.6.0/library\rsa.c **** 
 214:C:/Users/lenovo/Desktop/liteos/Project2/BearPi_LiteOS/components/security/mbedtls/mbedtls-2.6.0/library\rsa.c ****     if( !ctx->P.p || !ctx->Q.p || !ctx->D.p )
 215:C:/Users/lenovo/Desktop/liteos/Project2/BearPi_LiteOS/components/security/mbedtls/mbedtls-2.6.0/library\rsa.c ****         return( MBEDTLS_ERR_RSA_KEY_CHECK_FAILED );
 216:C:/Users/lenovo/Desktop/liteos/Project2/BearPi_LiteOS/components/security/mbedtls/mbedtls-2.6.0/library\rsa.c **** 
 217:C:/Users/lenovo/Desktop/liteos/Project2/BearPi_LiteOS/components/security/mbedtls/mbedtls-2.6.0/library\rsa.c ****     mbedtls_mpi_init( &PQ ); mbedtls_mpi_init( &DE ); mbedtls_mpi_init( &P1 ); mbedtls_mpi_init( &Q
 218:C:/Users/lenovo/Desktop/liteos/Project2/BearPi_LiteOS/components/security/mbedtls/mbedtls-2.6.0/library\rsa.c ****     mbedtls_mpi_init( &H  ); mbedtls_mpi_init( &I  ); mbedtls_mpi_init( &G  ); mbedtls_mpi_init( &G
 219:C:/Users/lenovo/Desktop/liteos/Project2/BearPi_LiteOS/components/security/mbedtls/mbedtls-2.6.0/library\rsa.c ****     mbedtls_mpi_init( &L1 ); mbedtls_mpi_init( &L2 ); mbedtls_mpi_init( &DP ); mbedtls_mpi_init( &D
 220:C:/Users/lenovo/Desktop/liteos/Project2/BearPi_LiteOS/components/security/mbedtls/mbedtls-2.6.0/library\rsa.c ****     mbedtls_mpi_init( &QP );
 221:C:/Users/lenovo/Desktop/liteos/Project2/BearPi_LiteOS/components/security/mbedtls/mbedtls-2.6.0/library\rsa.c **** 
 222:C:/Users/lenovo/Desktop/liteos/Project2/BearPi_LiteOS/components/security/mbedtls/mbedtls-2.6.0/library\rsa.c ****     MBEDTLS_MPI_CHK( mbedtls_mpi_mul_mpi( &PQ, &ctx->P, &ctx->Q ) );
 223:C:/Users/lenovo/Desktop/liteos/Project2/BearPi_LiteOS/components/security/mbedtls/mbedtls-2.6.0/library\rsa.c ****     MBEDTLS_MPI_CHK( mbedtls_mpi_mul_mpi( &DE, &ctx->D, &ctx->E ) );
 224:C:/Users/lenovo/Desktop/liteos/Project2/BearPi_LiteOS/components/security/mbedtls/mbedtls-2.6.0/library\rsa.c ****     MBEDTLS_MPI_CHK( mbedtls_mpi_sub_int( &P1, &ctx->P, 1 ) );
 225:C:/Users/lenovo/Desktop/liteos/Project2/BearPi_LiteOS/components/security/mbedtls/mbedtls-2.6.0/library\rsa.c ****     MBEDTLS_MPI_CHK( mbedtls_mpi_sub_int( &Q1, &ctx->Q, 1 ) );
ARM GAS  c:\Users\lenovo\AppData\Local\Temp\ccVehGBj.s 			page 6


 226:C:/Users/lenovo/Desktop/liteos/Project2/BearPi_LiteOS/components/security/mbedtls/mbedtls-2.6.0/library\rsa.c ****     MBEDTLS_MPI_CHK( mbedtls_mpi_mul_mpi( &H, &P1, &Q1 ) );
 227:C:/Users/lenovo/Desktop/liteos/Project2/BearPi_LiteOS/components/security/mbedtls/mbedtls-2.6.0/library\rsa.c ****     MBEDTLS_MPI_CHK( mbedtls_mpi_gcd( &G, &ctx->E, &H  ) );
 228:C:/Users/lenovo/Desktop/liteos/Project2/BearPi_LiteOS/components/security/mbedtls/mbedtls-2.6.0/library\rsa.c **** 
 229:C:/Users/lenovo/Desktop/liteos/Project2/BearPi_LiteOS/components/security/mbedtls/mbedtls-2.6.0/library\rsa.c ****     MBEDTLS_MPI_CHK( mbedtls_mpi_gcd( &G2, &P1, &Q1 ) );
 230:C:/Users/lenovo/Desktop/liteos/Project2/BearPi_LiteOS/components/security/mbedtls/mbedtls-2.6.0/library\rsa.c ****     MBEDTLS_MPI_CHK( mbedtls_mpi_div_mpi( &L1, &L2, &H, &G2 ) );
 231:C:/Users/lenovo/Desktop/liteos/Project2/BearPi_LiteOS/components/security/mbedtls/mbedtls-2.6.0/library\rsa.c ****     MBEDTLS_MPI_CHK( mbedtls_mpi_mod_mpi( &I, &DE, &L1  ) );
 232:C:/Users/lenovo/Desktop/liteos/Project2/BearPi_LiteOS/components/security/mbedtls/mbedtls-2.6.0/library\rsa.c **** 
 233:C:/Users/lenovo/Desktop/liteos/Project2/BearPi_LiteOS/components/security/mbedtls/mbedtls-2.6.0/library\rsa.c ****     MBEDTLS_MPI_CHK( mbedtls_mpi_mod_mpi( &DP, &ctx->D, &P1 ) );
 234:C:/Users/lenovo/Desktop/liteos/Project2/BearPi_LiteOS/components/security/mbedtls/mbedtls-2.6.0/library\rsa.c ****     MBEDTLS_MPI_CHK( mbedtls_mpi_mod_mpi( &DQ, &ctx->D, &Q1 ) );
 235:C:/Users/lenovo/Desktop/liteos/Project2/BearPi_LiteOS/components/security/mbedtls/mbedtls-2.6.0/library\rsa.c ****     MBEDTLS_MPI_CHK( mbedtls_mpi_inv_mod( &QP, &ctx->Q, &ctx->P ) );
 236:C:/Users/lenovo/Desktop/liteos/Project2/BearPi_LiteOS/components/security/mbedtls/mbedtls-2.6.0/library\rsa.c ****     /*
 237:C:/Users/lenovo/Desktop/liteos/Project2/BearPi_LiteOS/components/security/mbedtls/mbedtls-2.6.0/library\rsa.c ****      * Check for a valid PKCS1v2 private key
 238:C:/Users/lenovo/Desktop/liteos/Project2/BearPi_LiteOS/components/security/mbedtls/mbedtls-2.6.0/library\rsa.c ****      */
 239:C:/Users/lenovo/Desktop/liteos/Project2/BearPi_LiteOS/components/security/mbedtls/mbedtls-2.6.0/library\rsa.c ****     if( mbedtls_mpi_cmp_mpi( &PQ, &ctx->N ) != 0 ||
 240:C:/Users/lenovo/Desktop/liteos/Project2/BearPi_LiteOS/components/security/mbedtls/mbedtls-2.6.0/library\rsa.c ****         mbedtls_mpi_cmp_mpi( &DP, &ctx->DP ) != 0 ||
 241:C:/Users/lenovo/Desktop/liteos/Project2/BearPi_LiteOS/components/security/mbedtls/mbedtls-2.6.0/library\rsa.c ****         mbedtls_mpi_cmp_mpi( &DQ, &ctx->DQ ) != 0 ||
 242:C:/Users/lenovo/Desktop/liteos/Project2/BearPi_LiteOS/components/security/mbedtls/mbedtls-2.6.0/library\rsa.c ****         mbedtls_mpi_cmp_mpi( &QP, &ctx->QP ) != 0 ||
 243:C:/Users/lenovo/Desktop/liteos/Project2/BearPi_LiteOS/components/security/mbedtls/mbedtls-2.6.0/library\rsa.c ****         mbedtls_mpi_cmp_int( &L2, 0 ) != 0 ||
 244:C:/Users/lenovo/Desktop/liteos/Project2/BearPi_LiteOS/components/security/mbedtls/mbedtls-2.6.0/library\rsa.c ****         mbedtls_mpi_cmp_int( &I, 1 ) != 0 ||
 245:C:/Users/lenovo/Desktop/liteos/Project2/BearPi_LiteOS/components/security/mbedtls/mbedtls-2.6.0/library\rsa.c ****         mbedtls_mpi_cmp_int( &G, 1 ) != 0 )
 246:C:/Users/lenovo/Desktop/liteos/Project2/BearPi_LiteOS/components/security/mbedtls/mbedtls-2.6.0/library\rsa.c ****     {
 247:C:/Users/lenovo/Desktop/liteos/Project2/BearPi_LiteOS/components/security/mbedtls/mbedtls-2.6.0/library\rsa.c ****         ret = MBEDTLS_ERR_RSA_KEY_CHECK_FAILED;
 248:C:/Users/lenovo/Desktop/liteos/Project2/BearPi_LiteOS/components/security/mbedtls/mbedtls-2.6.0/library\rsa.c ****     }
 249:C:/Users/lenovo/Desktop/liteos/Project2/BearPi_LiteOS/components/security/mbedtls/mbedtls-2.6.0/library\rsa.c **** 
 250:C:/Users/lenovo/Desktop/liteos/Project2/BearPi_LiteOS/components/security/mbedtls/mbedtls-2.6.0/library\rsa.c **** cleanup:
 251:C:/Users/lenovo/Desktop/liteos/Project2/BearPi_LiteOS/components/security/mbedtls/mbedtls-2.6.0/library\rsa.c ****     mbedtls_mpi_free( &PQ ); mbedtls_mpi_free( &DE ); mbedtls_mpi_free( &P1 ); mbedtls_mpi_free( &Q
 252:C:/Users/lenovo/Desktop/liteos/Project2/BearPi_LiteOS/components/security/mbedtls/mbedtls-2.6.0/library\rsa.c ****     mbedtls_mpi_free( &H  ); mbedtls_mpi_free( &I  ); mbedtls_mpi_free( &G  ); mbedtls_mpi_free( &G
 253:C:/Users/lenovo/Desktop/liteos/Project2/BearPi_LiteOS/components/security/mbedtls/mbedtls-2.6.0/library\rsa.c ****     mbedtls_mpi_free( &L1 ); mbedtls_mpi_free( &L2 ); mbedtls_mpi_free( &DP ); mbedtls_mpi_free( &D
 254:C:/Users/lenovo/Desktop/liteos/Project2/BearPi_LiteOS/components/security/mbedtls/mbedtls-2.6.0/library\rsa.c ****     mbedtls_mpi_free( &QP );
 255:C:/Users/lenovo/Desktop/liteos/Project2/BearPi_LiteOS/components/security/mbedtls/mbedtls-2.6.0/library\rsa.c **** 
 256:C:/Users/lenovo/Desktop/liteos/Project2/BearPi_LiteOS/components/security/mbedtls/mbedtls-2.6.0/library\rsa.c ****     if( ret == MBEDTLS_ERR_RSA_KEY_CHECK_FAILED )
 257:C:/Users/lenovo/Desktop/liteos/Project2/BearPi_LiteOS/components/security/mbedtls/mbedtls-2.6.0/library\rsa.c ****         return( ret );
 258:C:/Users/lenovo/Desktop/liteos/Project2/BearPi_LiteOS/components/security/mbedtls/mbedtls-2.6.0/library\rsa.c **** 
 259:C:/Users/lenovo/Desktop/liteos/Project2/BearPi_LiteOS/components/security/mbedtls/mbedtls-2.6.0/library\rsa.c ****     if( ret != 0 )
 260:C:/Users/lenovo/Desktop/liteos/Project2/BearPi_LiteOS/components/security/mbedtls/mbedtls-2.6.0/library\rsa.c ****         return( MBEDTLS_ERR_RSA_KEY_CHECK_FAILED + ret );
 261:C:/Users/lenovo/Desktop/liteos/Project2/BearPi_LiteOS/components/security/mbedtls/mbedtls-2.6.0/library\rsa.c **** 
 262:C:/Users/lenovo/Desktop/liteos/Project2/BearPi_LiteOS/components/security/mbedtls/mbedtls-2.6.0/library\rsa.c ****     return( 0 );
 263:C:/Users/lenovo/Desktop/liteos/Project2/BearPi_LiteOS/components/security/mbedtls/mbedtls-2.6.0/library\rsa.c **** }
 264:C:/Users/lenovo/Desktop/liteos/Project2/BearPi_LiteOS/components/security/mbedtls/mbedtls-2.6.0/library\rsa.c **** 
 265:C:/Users/lenovo/Desktop/liteos/Project2/BearPi_LiteOS/components/security/mbedtls/mbedtls-2.6.0/library\rsa.c **** /*
 266:C:/Users/lenovo/Desktop/liteos/Project2/BearPi_LiteOS/components/security/mbedtls/mbedtls-2.6.0/library\rsa.c ****  * Check if contexts holding a public and private key match
 267:C:/Users/lenovo/Desktop/liteos/Project2/BearPi_LiteOS/components/security/mbedtls/mbedtls-2.6.0/library\rsa.c ****  */
 268:C:/Users/lenovo/Desktop/liteos/Project2/BearPi_LiteOS/components/security/mbedtls/mbedtls-2.6.0/library\rsa.c **** int mbedtls_rsa_check_pub_priv( const mbedtls_rsa_context *pub, const mbedtls_rsa_context *prv )
 269:C:/Users/lenovo/Desktop/liteos/Project2/BearPi_LiteOS/components/security/mbedtls/mbedtls-2.6.0/library\rsa.c **** {
 270:C:/Users/lenovo/Desktop/liteos/Project2/BearPi_LiteOS/components/security/mbedtls/mbedtls-2.6.0/library\rsa.c ****     if( mbedtls_rsa_check_pubkey( pub ) != 0 ||
 271:C:/Users/lenovo/Desktop/liteos/Project2/BearPi_LiteOS/components/security/mbedtls/mbedtls-2.6.0/library\rsa.c ****         mbedtls_rsa_check_privkey( prv ) != 0 )
 272:C:/Users/lenovo/Desktop/liteos/Project2/BearPi_LiteOS/components/security/mbedtls/mbedtls-2.6.0/library\rsa.c ****     {
 273:C:/Users/lenovo/Desktop/liteos/Project2/BearPi_LiteOS/components/security/mbedtls/mbedtls-2.6.0/library\rsa.c ****         return( MBEDTLS_ERR_RSA_KEY_CHECK_FAILED );
 274:C:/Users/lenovo/Desktop/liteos/Project2/BearPi_LiteOS/components/security/mbedtls/mbedtls-2.6.0/library\rsa.c ****     }
 275:C:/Users/lenovo/Desktop/liteos/Project2/BearPi_LiteOS/components/security/mbedtls/mbedtls-2.6.0/library\rsa.c **** 
 276:C:/Users/lenovo/Desktop/liteos/Project2/BearPi_LiteOS/components/security/mbedtls/mbedtls-2.6.0/library\rsa.c ****     if( mbedtls_mpi_cmp_mpi( &pub->N, &prv->N ) != 0 ||
 277:C:/Users/lenovo/Desktop/liteos/Project2/BearPi_LiteOS/components/security/mbedtls/mbedtls-2.6.0/library\rsa.c ****         mbedtls_mpi_cmp_mpi( &pub->E, &prv->E ) != 0 )
 278:C:/Users/lenovo/Desktop/liteos/Project2/BearPi_LiteOS/components/security/mbedtls/mbedtls-2.6.0/library\rsa.c ****     {
 279:C:/Users/lenovo/Desktop/liteos/Project2/BearPi_LiteOS/components/security/mbedtls/mbedtls-2.6.0/library\rsa.c ****         return( MBEDTLS_ERR_RSA_KEY_CHECK_FAILED );
 280:C:/Users/lenovo/Desktop/liteos/Project2/BearPi_LiteOS/components/security/mbedtls/mbedtls-2.6.0/library\rsa.c ****     }
 281:C:/Users/lenovo/Desktop/liteos/Project2/BearPi_LiteOS/components/security/mbedtls/mbedtls-2.6.0/library\rsa.c **** 
 282:C:/Users/lenovo/Desktop/liteos/Project2/BearPi_LiteOS/components/security/mbedtls/mbedtls-2.6.0/library\rsa.c ****     return( 0 );
ARM GAS  c:\Users\lenovo\AppData\Local\Temp\ccVehGBj.s 			page 7


 283:C:/Users/lenovo/Desktop/liteos/Project2/BearPi_LiteOS/components/security/mbedtls/mbedtls-2.6.0/library\rsa.c **** }
 284:C:/Users/lenovo/Desktop/liteos/Project2/BearPi_LiteOS/components/security/mbedtls/mbedtls-2.6.0/library\rsa.c **** 
 285:C:/Users/lenovo/Desktop/liteos/Project2/BearPi_LiteOS/components/security/mbedtls/mbedtls-2.6.0/library\rsa.c **** /*
 286:C:/Users/lenovo/Desktop/liteos/Project2/BearPi_LiteOS/components/security/mbedtls/mbedtls-2.6.0/library\rsa.c ****  * Do an RSA public key operation
 287:C:/Users/lenovo/Desktop/liteos/Project2/BearPi_LiteOS/components/security/mbedtls/mbedtls-2.6.0/library\rsa.c ****  */
 288:C:/Users/lenovo/Desktop/liteos/Project2/BearPi_LiteOS/components/security/mbedtls/mbedtls-2.6.0/library\rsa.c **** int mbedtls_rsa_public( mbedtls_rsa_context *ctx,
 289:C:/Users/lenovo/Desktop/liteos/Project2/BearPi_LiteOS/components/security/mbedtls/mbedtls-2.6.0/library\rsa.c ****                 const unsigned char *input,
 290:C:/Users/lenovo/Desktop/liteos/Project2/BearPi_LiteOS/components/security/mbedtls/mbedtls-2.6.0/library\rsa.c ****                 unsigned char *output )
 291:C:/Users/lenovo/Desktop/liteos/Project2/BearPi_LiteOS/components/security/mbedtls/mbedtls-2.6.0/library\rsa.c **** {
 292:C:/Users/lenovo/Desktop/liteos/Project2/BearPi_LiteOS/components/security/mbedtls/mbedtls-2.6.0/library\rsa.c ****     int ret;
 293:C:/Users/lenovo/Desktop/liteos/Project2/BearPi_LiteOS/components/security/mbedtls/mbedtls-2.6.0/library\rsa.c ****     size_t olen;
 294:C:/Users/lenovo/Desktop/liteos/Project2/BearPi_LiteOS/components/security/mbedtls/mbedtls-2.6.0/library\rsa.c ****     mbedtls_mpi T;
 295:C:/Users/lenovo/Desktop/liteos/Project2/BearPi_LiteOS/components/security/mbedtls/mbedtls-2.6.0/library\rsa.c **** 
 296:C:/Users/lenovo/Desktop/liteos/Project2/BearPi_LiteOS/components/security/mbedtls/mbedtls-2.6.0/library\rsa.c ****     mbedtls_mpi_init( &T );
 297:C:/Users/lenovo/Desktop/liteos/Project2/BearPi_LiteOS/components/security/mbedtls/mbedtls-2.6.0/library\rsa.c **** 
 298:C:/Users/lenovo/Desktop/liteos/Project2/BearPi_LiteOS/components/security/mbedtls/mbedtls-2.6.0/library\rsa.c **** #if defined(MBEDTLS_THREADING_C)
 299:C:/Users/lenovo/Desktop/liteos/Project2/BearPi_LiteOS/components/security/mbedtls/mbedtls-2.6.0/library\rsa.c ****     if( ( ret = mbedtls_mutex_lock( &ctx->mutex ) ) != 0 )
 300:C:/Users/lenovo/Desktop/liteos/Project2/BearPi_LiteOS/components/security/mbedtls/mbedtls-2.6.0/library\rsa.c ****         return( ret );
 301:C:/Users/lenovo/Desktop/liteos/Project2/BearPi_LiteOS/components/security/mbedtls/mbedtls-2.6.0/library\rsa.c **** #endif
 302:C:/Users/lenovo/Desktop/liteos/Project2/BearPi_LiteOS/components/security/mbedtls/mbedtls-2.6.0/library\rsa.c **** 
 303:C:/Users/lenovo/Desktop/liteos/Project2/BearPi_LiteOS/components/security/mbedtls/mbedtls-2.6.0/library\rsa.c ****     MBEDTLS_MPI_CHK( mbedtls_mpi_read_binary( &T, input, ctx->len ) );
 304:C:/Users/lenovo/Desktop/liteos/Project2/BearPi_LiteOS/components/security/mbedtls/mbedtls-2.6.0/library\rsa.c **** 
 305:C:/Users/lenovo/Desktop/liteos/Project2/BearPi_LiteOS/components/security/mbedtls/mbedtls-2.6.0/library\rsa.c ****     if( mbedtls_mpi_cmp_mpi( &T, &ctx->N ) >= 0 )
 306:C:/Users/lenovo/Desktop/liteos/Project2/BearPi_LiteOS/components/security/mbedtls/mbedtls-2.6.0/library\rsa.c ****     {
 307:C:/Users/lenovo/Desktop/liteos/Project2/BearPi_LiteOS/components/security/mbedtls/mbedtls-2.6.0/library\rsa.c ****         ret = MBEDTLS_ERR_MPI_BAD_INPUT_DATA;
 308:C:/Users/lenovo/Desktop/liteos/Project2/BearPi_LiteOS/components/security/mbedtls/mbedtls-2.6.0/library\rsa.c ****         goto cleanup;
 309:C:/Users/lenovo/Desktop/liteos/Project2/BearPi_LiteOS/components/security/mbedtls/mbedtls-2.6.0/library\rsa.c ****     }
 310:C:/Users/lenovo/Desktop/liteos/Project2/BearPi_LiteOS/components/security/mbedtls/mbedtls-2.6.0/library\rsa.c **** 
 311:C:/Users/lenovo/Desktop/liteos/Project2/BearPi_LiteOS/components/security/mbedtls/mbedtls-2.6.0/library\rsa.c ****     olen = ctx->len;
 312:C:/Users/lenovo/Desktop/liteos/Project2/BearPi_LiteOS/components/security/mbedtls/mbedtls-2.6.0/library\rsa.c ****     MBEDTLS_MPI_CHK( mbedtls_mpi_exp_mod( &T, &T, &ctx->E, &ctx->N, &ctx->RN ) );
 313:C:/Users/lenovo/Desktop/liteos/Project2/BearPi_LiteOS/components/security/mbedtls/mbedtls-2.6.0/library\rsa.c ****     MBEDTLS_MPI_CHK( mbedtls_mpi_write_binary( &T, output, olen ) );
 314:C:/Users/lenovo/Desktop/liteos/Project2/BearPi_LiteOS/components/security/mbedtls/mbedtls-2.6.0/library\rsa.c **** 
 315:C:/Users/lenovo/Desktop/liteos/Project2/BearPi_LiteOS/components/security/mbedtls/mbedtls-2.6.0/library\rsa.c **** cleanup:
 316:C:/Users/lenovo/Desktop/liteos/Project2/BearPi_LiteOS/components/security/mbedtls/mbedtls-2.6.0/library\rsa.c **** #if defined(MBEDTLS_THREADING_C)
 317:C:/Users/lenovo/Desktop/liteos/Project2/BearPi_LiteOS/components/security/mbedtls/mbedtls-2.6.0/library\rsa.c ****     if( mbedtls_mutex_unlock( &ctx->mutex ) != 0 )
 318:C:/Users/lenovo/Desktop/liteos/Project2/BearPi_LiteOS/components/security/mbedtls/mbedtls-2.6.0/library\rsa.c ****         return( MBEDTLS_ERR_THREADING_MUTEX_ERROR );
 319:C:/Users/lenovo/Desktop/liteos/Project2/BearPi_LiteOS/components/security/mbedtls/mbedtls-2.6.0/library\rsa.c **** #endif
 320:C:/Users/lenovo/Desktop/liteos/Project2/BearPi_LiteOS/components/security/mbedtls/mbedtls-2.6.0/library\rsa.c **** 
 321:C:/Users/lenovo/Desktop/liteos/Project2/BearPi_LiteOS/components/security/mbedtls/mbedtls-2.6.0/library\rsa.c ****     mbedtls_mpi_free( &T );
 322:C:/Users/lenovo/Desktop/liteos/Project2/BearPi_LiteOS/components/security/mbedtls/mbedtls-2.6.0/library\rsa.c **** 
 323:C:/Users/lenovo/Desktop/liteos/Project2/BearPi_LiteOS/components/security/mbedtls/mbedtls-2.6.0/library\rsa.c ****     if( ret != 0 )
 324:C:/Users/lenovo/Desktop/liteos/Project2/BearPi_LiteOS/components/security/mbedtls/mbedtls-2.6.0/library\rsa.c ****         return( MBEDTLS_ERR_RSA_PUBLIC_FAILED + ret );
 325:C:/Users/lenovo/Desktop/liteos/Project2/BearPi_LiteOS/components/security/mbedtls/mbedtls-2.6.0/library\rsa.c **** 
 326:C:/Users/lenovo/Desktop/liteos/Project2/BearPi_LiteOS/components/security/mbedtls/mbedtls-2.6.0/library\rsa.c ****     return( 0 );
 327:C:/Users/lenovo/Desktop/liteos/Project2/BearPi_LiteOS/components/security/mbedtls/mbedtls-2.6.0/library\rsa.c **** }
 328:C:/Users/lenovo/Desktop/liteos/Project2/BearPi_LiteOS/components/security/mbedtls/mbedtls-2.6.0/library\rsa.c **** 
 329:C:/Users/lenovo/Desktop/liteos/Project2/BearPi_LiteOS/components/security/mbedtls/mbedtls-2.6.0/library\rsa.c **** /*
 330:C:/Users/lenovo/Desktop/liteos/Project2/BearPi_LiteOS/components/security/mbedtls/mbedtls-2.6.0/library\rsa.c ****  * Generate or update blinding values, see section 10 of:
 331:C:/Users/lenovo/Desktop/liteos/Project2/BearPi_LiteOS/components/security/mbedtls/mbedtls-2.6.0/library\rsa.c ****  *  KOCHER, Paul C. Timing attacks on implementations of Diffie-Hellman, RSA,
 332:C:/Users/lenovo/Desktop/liteos/Project2/BearPi_LiteOS/components/security/mbedtls/mbedtls-2.6.0/library\rsa.c ****  *  DSS, and other systems. In : Advances in Cryptology-CRYPTO'96. Springer
 333:C:/Users/lenovo/Desktop/liteos/Project2/BearPi_LiteOS/components/security/mbedtls/mbedtls-2.6.0/library\rsa.c ****  *  Berlin Heidelberg, 1996. p. 104-113.
 334:C:/Users/lenovo/Desktop/liteos/Project2/BearPi_LiteOS/components/security/mbedtls/mbedtls-2.6.0/library\rsa.c ****  */
 335:C:/Users/lenovo/Desktop/liteos/Project2/BearPi_LiteOS/components/security/mbedtls/mbedtls-2.6.0/library\rsa.c **** static int rsa_prepare_blinding( mbedtls_rsa_context *ctx,
 336:C:/Users/lenovo/Desktop/liteos/Project2/BearPi_LiteOS/components/security/mbedtls/mbedtls-2.6.0/library\rsa.c ****                  int (*f_rng)(void *, unsigned char *, size_t), void *p_rng )
 337:C:/Users/lenovo/Desktop/liteos/Project2/BearPi_LiteOS/components/security/mbedtls/mbedtls-2.6.0/library\rsa.c **** {
  64              		.loc 1 337 0
  65              		.cfi_startproc
ARM GAS  c:\Users\lenovo\AppData\Local\Temp\ccVehGBj.s 			page 8


  66              		@ args = 0, pretend = 0, frame = 0
  67              		@ frame_needed = 0, uses_anonymous_args = 0
  68              	.LVL5:
  69 0000 2DE9F047 		push	{r4, r5, r6, r7, r8, r9, r10, lr}
  70              	.LCFI0:
  71              		.cfi_def_cfa_offset 32
  72              		.cfi_offset 4, -32
  73              		.cfi_offset 5, -28
  74              		.cfi_offset 6, -24
  75              		.cfi_offset 7, -20
  76              		.cfi_offset 8, -16
  77              		.cfi_offset 9, -12
  78              		.cfi_offset 10, -8
  79              		.cfi_offset 14, -4
  80 0004 82B0     		sub	sp, sp, #8
  81              	.LCFI1:
  82              		.cfi_def_cfa_offset 40
  83 0006 0446     		mov	r4, r0
  84              	.LVL6:
 338:C:/Users/lenovo/Desktop/liteos/Project2/BearPi_LiteOS/components/security/mbedtls/mbedtls-2.6.0/library\rsa.c ****     int ret, count = 0;
 339:C:/Users/lenovo/Desktop/liteos/Project2/BearPi_LiteOS/components/security/mbedtls/mbedtls-2.6.0/library\rsa.c **** 
 340:C:/Users/lenovo/Desktop/liteos/Project2/BearPi_LiteOS/components/security/mbedtls/mbedtls-2.6.0/library\rsa.c ****     if( ctx->Vf.p != NULL )
  85              		.loc 1 340 0
  86 0008 D0F8A030 		ldr	r3, [r0, #160]
  87 000c 33B3     		cbz	r3, .L7
 341:C:/Users/lenovo/Desktop/liteos/Project2/BearPi_LiteOS/components/security/mbedtls/mbedtls-2.6.0/library\rsa.c ****     {
 342:C:/Users/lenovo/Desktop/liteos/Project2/BearPi_LiteOS/components/security/mbedtls/mbedtls-2.6.0/library\rsa.c ****         /* We already have blinding values, just update them by squaring */
 343:C:/Users/lenovo/Desktop/liteos/Project2/BearPi_LiteOS/components/security/mbedtls/mbedtls-2.6.0/library\rsa.c ****         MBEDTLS_MPI_CHK( mbedtls_mpi_mul_mpi( &ctx->Vi, &ctx->Vi, &ctx->Vi ) );
  88              		.loc 1 343 0
  89 000e 00F18C05 		add	r5, r0, #140
  90 0012 2A46     		mov	r2, r5
  91              	.LVL7:
  92 0014 2946     		mov	r1, r5
  93              	.LVL8:
  94 0016 2846     		mov	r0, r5
  95              	.LVL9:
  96 0018 FFF7FEFF 		bl	mbedtls_mpi_mul_mpi
  97              	.LVL10:
  98 001c 0346     		mov	r3, r0
  99 001e 18B1     		cbz	r0, .L10
 100              	.LVL11:
 101              	.L4:
 344:C:/Users/lenovo/Desktop/liteos/Project2/BearPi_LiteOS/components/security/mbedtls/mbedtls-2.6.0/library\rsa.c ****         MBEDTLS_MPI_CHK( mbedtls_mpi_mod_mpi( &ctx->Vi, &ctx->Vi, &ctx->N ) );
 345:C:/Users/lenovo/Desktop/liteos/Project2/BearPi_LiteOS/components/security/mbedtls/mbedtls-2.6.0/library\rsa.c ****         MBEDTLS_MPI_CHK( mbedtls_mpi_mul_mpi( &ctx->Vf, &ctx->Vf, &ctx->Vf ) );
 346:C:/Users/lenovo/Desktop/liteos/Project2/BearPi_LiteOS/components/security/mbedtls/mbedtls-2.6.0/library\rsa.c ****         MBEDTLS_MPI_CHK( mbedtls_mpi_mod_mpi( &ctx->Vf, &ctx->Vf, &ctx->N ) );
 347:C:/Users/lenovo/Desktop/liteos/Project2/BearPi_LiteOS/components/security/mbedtls/mbedtls-2.6.0/library\rsa.c **** 
 348:C:/Users/lenovo/Desktop/liteos/Project2/BearPi_LiteOS/components/security/mbedtls/mbedtls-2.6.0/library\rsa.c ****         goto cleanup;
 349:C:/Users/lenovo/Desktop/liteos/Project2/BearPi_LiteOS/components/security/mbedtls/mbedtls-2.6.0/library\rsa.c ****     }
 350:C:/Users/lenovo/Desktop/liteos/Project2/BearPi_LiteOS/components/security/mbedtls/mbedtls-2.6.0/library\rsa.c **** 
 351:C:/Users/lenovo/Desktop/liteos/Project2/BearPi_LiteOS/components/security/mbedtls/mbedtls-2.6.0/library\rsa.c ****     /* Unblinding value: Vf = random number, invertible mod N */
 352:C:/Users/lenovo/Desktop/liteos/Project2/BearPi_LiteOS/components/security/mbedtls/mbedtls-2.6.0/library\rsa.c ****     do {
 353:C:/Users/lenovo/Desktop/liteos/Project2/BearPi_LiteOS/components/security/mbedtls/mbedtls-2.6.0/library\rsa.c ****         if( count++ > 10 )
 354:C:/Users/lenovo/Desktop/liteos/Project2/BearPi_LiteOS/components/security/mbedtls/mbedtls-2.6.0/library\rsa.c ****             return( MBEDTLS_ERR_RSA_RNG_FAILED );
 355:C:/Users/lenovo/Desktop/liteos/Project2/BearPi_LiteOS/components/security/mbedtls/mbedtls-2.6.0/library\rsa.c **** 
 356:C:/Users/lenovo/Desktop/liteos/Project2/BearPi_LiteOS/components/security/mbedtls/mbedtls-2.6.0/library\rsa.c ****         MBEDTLS_MPI_CHK( mbedtls_mpi_fill_random( &ctx->Vf, ctx->len - 1, f_rng, p_rng ) );
 357:C:/Users/lenovo/Desktop/liteos/Project2/BearPi_LiteOS/components/security/mbedtls/mbedtls-2.6.0/library\rsa.c ****         MBEDTLS_MPI_CHK( mbedtls_mpi_gcd( &ctx->Vi, &ctx->Vf, &ctx->N ) );
 358:C:/Users/lenovo/Desktop/liteos/Project2/BearPi_LiteOS/components/security/mbedtls/mbedtls-2.6.0/library\rsa.c ****     } while( mbedtls_mpi_cmp_int( &ctx->Vi, 1 ) != 0 );
ARM GAS  c:\Users\lenovo\AppData\Local\Temp\ccVehGBj.s 			page 9


 359:C:/Users/lenovo/Desktop/liteos/Project2/BearPi_LiteOS/components/security/mbedtls/mbedtls-2.6.0/library\rsa.c **** 
 360:C:/Users/lenovo/Desktop/liteos/Project2/BearPi_LiteOS/components/security/mbedtls/mbedtls-2.6.0/library\rsa.c ****     /* Blinding value: Vi =  Vf^(-e) mod N */
 361:C:/Users/lenovo/Desktop/liteos/Project2/BearPi_LiteOS/components/security/mbedtls/mbedtls-2.6.0/library\rsa.c ****     MBEDTLS_MPI_CHK( mbedtls_mpi_inv_mod( &ctx->Vi, &ctx->Vf, &ctx->N ) );
 362:C:/Users/lenovo/Desktop/liteos/Project2/BearPi_LiteOS/components/security/mbedtls/mbedtls-2.6.0/library\rsa.c ****     MBEDTLS_MPI_CHK( mbedtls_mpi_exp_mod( &ctx->Vi, &ctx->Vi, &ctx->E, &ctx->N, &ctx->RN ) );
 363:C:/Users/lenovo/Desktop/liteos/Project2/BearPi_LiteOS/components/security/mbedtls/mbedtls-2.6.0/library\rsa.c **** 
 364:C:/Users/lenovo/Desktop/liteos/Project2/BearPi_LiteOS/components/security/mbedtls/mbedtls-2.6.0/library\rsa.c **** 
 365:C:/Users/lenovo/Desktop/liteos/Project2/BearPi_LiteOS/components/security/mbedtls/mbedtls-2.6.0/library\rsa.c **** cleanup:
 366:C:/Users/lenovo/Desktop/liteos/Project2/BearPi_LiteOS/components/security/mbedtls/mbedtls-2.6.0/library\rsa.c ****     return( ret );
 367:C:/Users/lenovo/Desktop/liteos/Project2/BearPi_LiteOS/components/security/mbedtls/mbedtls-2.6.0/library\rsa.c **** }
 102              		.loc 1 367 0
 103 0020 1846     		mov	r0, r3
 104 0022 02B0     		add	sp, sp, #8
 105              	.LCFI2:
 106              		.cfi_remember_state
 107              		.cfi_def_cfa_offset 32
 108              		@ sp needed
 109 0024 BDE8F087 		pop	{r4, r5, r6, r7, r8, r9, r10, pc}
 110              	.LVL12:
 111              	.L10:
 112              	.LCFI3:
 113              		.cfi_restore_state
 344:C:/Users/lenovo/Desktop/liteos/Project2/BearPi_LiteOS/components/security/mbedtls/mbedtls-2.6.0/library\rsa.c ****         MBEDTLS_MPI_CHK( mbedtls_mpi_mod_mpi( &ctx->Vi, &ctx->Vi, &ctx->N ) );
 114              		.loc 1 344 0
 115 0028 04F10806 		add	r6, r4, #8
 116 002c 3246     		mov	r2, r6
 117 002e 2946     		mov	r1, r5
 118 0030 2846     		mov	r0, r5
 119              	.LVL13:
 120 0032 FFF7FEFF 		bl	mbedtls_mpi_mod_mpi
 121              	.LVL14:
 122 0036 0346     		mov	r3, r0
 123 0038 0028     		cmp	r0, #0
 124 003a F1D1     		bne	.L4
 345:C:/Users/lenovo/Desktop/liteos/Project2/BearPi_LiteOS/components/security/mbedtls/mbedtls-2.6.0/library\rsa.c ****         MBEDTLS_MPI_CHK( mbedtls_mpi_mod_mpi( &ctx->Vf, &ctx->Vf, &ctx->N ) );
 125              		.loc 1 345 0
 126 003c 9834     		adds	r4, r4, #152
 127              	.LVL15:
 128 003e 2246     		mov	r2, r4
 129 0040 2146     		mov	r1, r4
 130 0042 2046     		mov	r0, r4
 131              	.LVL16:
 132 0044 FFF7FEFF 		bl	mbedtls_mpi_mul_mpi
 133              	.LVL17:
 134 0048 0346     		mov	r3, r0
 135 004a 0028     		cmp	r0, #0
 136 004c E8D1     		bne	.L4
 346:C:/Users/lenovo/Desktop/liteos/Project2/BearPi_LiteOS/components/security/mbedtls/mbedtls-2.6.0/library\rsa.c **** 
 137              		.loc 1 346 0
 138 004e 3246     		mov	r2, r6
 139 0050 2146     		mov	r1, r4
 140 0052 2046     		mov	r0, r4
 141              	.LVL18:
 142 0054 FFF7FEFF 		bl	mbedtls_mpi_mod_mpi
 143              	.LVL19:
 144 0058 0346     		mov	r3, r0
 145              	.LVL20:
 365:C:/Users/lenovo/Desktop/liteos/Project2/BearPi_LiteOS/components/security/mbedtls/mbedtls-2.6.0/library\rsa.c ****     return( ret );
ARM GAS  c:\Users\lenovo\AppData\Local\Temp\ccVehGBj.s 			page 10


 146              		.loc 1 365 0
 147 005a E1E7     		b	.L4
 148              	.LVL21:
 149              	.L7:
 150 005c 8946     		mov	r9, r1
 151 005e 9246     		mov	r10, r2
 338:C:/Users/lenovo/Desktop/liteos/Project2/BearPi_LiteOS/components/security/mbedtls/mbedtls-2.6.0/library\rsa.c **** 
 152              		.loc 1 338 0
 153 0060 0023     		movs	r3, #0
 154              	.LVL22:
 155              	.L5:
 353:C:/Users/lenovo/Desktop/liteos/Project2/BearPi_LiteOS/components/security/mbedtls/mbedtls-2.6.0/library\rsa.c ****             return( MBEDTLS_ERR_RSA_RNG_FAILED );
 156              		.loc 1 353 0
 157 0062 5F1C     		adds	r7, r3, #1
 158              	.LVL23:
 159 0064 0A2B     		cmp	r3, #10
 160 0066 32DC     		bgt	.L8
 356:C:/Users/lenovo/Desktop/liteos/Project2/BearPi_LiteOS/components/security/mbedtls/mbedtls-2.6.0/library\rsa.c ****         MBEDTLS_MPI_CHK( mbedtls_mpi_gcd( &ctx->Vi, &ctx->Vf, &ctx->N ) );
 161              		.loc 1 356 0
 162 0068 04F19805 		add	r5, r4, #152
 163 006c 6168     		ldr	r1, [r4, #4]
 164 006e 5346     		mov	r3, r10
 165 0070 4A46     		mov	r2, r9
 166 0072 0139     		subs	r1, r1, #1
 167 0074 2846     		mov	r0, r5
 168 0076 FFF7FEFF 		bl	mbedtls_mpi_fill_random
 169              	.LVL24:
 170 007a 0346     		mov	r3, r0
 171 007c 0028     		cmp	r0, #0
 172 007e CFD1     		bne	.L4
 357:C:/Users/lenovo/Desktop/liteos/Project2/BearPi_LiteOS/components/security/mbedtls/mbedtls-2.6.0/library\rsa.c ****     } while( mbedtls_mpi_cmp_int( &ctx->Vi, 1 ) != 0 );
 173              		.loc 1 357 0
 174 0080 04F18C06 		add	r6, r4, #140
 175 0084 04F10808 		add	r8, r4, #8
 176 0088 4246     		mov	r2, r8
 177 008a 2946     		mov	r1, r5
 178 008c 3046     		mov	r0, r6
 179              	.LVL25:
 180 008e FFF7FEFF 		bl	mbedtls_mpi_gcd
 181              	.LVL26:
 182 0092 0346     		mov	r3, r0
 183 0094 0028     		cmp	r0, #0
 184 0096 C3D1     		bne	.L4
 358:C:/Users/lenovo/Desktop/liteos/Project2/BearPi_LiteOS/components/security/mbedtls/mbedtls-2.6.0/library\rsa.c **** 
 185              		.loc 1 358 0
 186 0098 0121     		movs	r1, #1
 187 009a 3046     		mov	r0, r6
 188              	.LVL27:
 189 009c FFF7FEFF 		bl	mbedtls_mpi_cmp_int
 190              	.LVL28:
 353:C:/Users/lenovo/Desktop/liteos/Project2/BearPi_LiteOS/components/security/mbedtls/mbedtls-2.6.0/library\rsa.c ****             return( MBEDTLS_ERR_RSA_RNG_FAILED );
 191              		.loc 1 353 0
 192 00a0 3B46     		mov	r3, r7
 358:C:/Users/lenovo/Desktop/liteos/Project2/BearPi_LiteOS/components/security/mbedtls/mbedtls-2.6.0/library\rsa.c **** 
 193              		.loc 1 358 0
 194 00a2 0028     		cmp	r0, #0
 195 00a4 DDD1     		bne	.L5
ARM GAS  c:\Users\lenovo\AppData\Local\Temp\ccVehGBj.s 			page 11


 361:C:/Users/lenovo/Desktop/liteos/Project2/BearPi_LiteOS/components/security/mbedtls/mbedtls-2.6.0/library\rsa.c ****     MBEDTLS_MPI_CHK( mbedtls_mpi_exp_mod( &ctx->Vi, &ctx->Vi, &ctx->E, &ctx->N, &ctx->RN ) );
 196              		.loc 1 361 0
 197 00a6 4246     		mov	r2, r8
 198 00a8 2946     		mov	r1, r5
 199 00aa 3046     		mov	r0, r6
 200 00ac FFF7FEFF 		bl	mbedtls_mpi_inv_mod
 201              	.LVL29:
 202 00b0 0346     		mov	r3, r0
 203 00b2 0028     		cmp	r0, #0
 204 00b4 B4D1     		bne	.L4
 362:C:/Users/lenovo/Desktop/liteos/Project2/BearPi_LiteOS/components/security/mbedtls/mbedtls-2.6.0/library\rsa.c **** 
 205              		.loc 1 362 0
 206 00b6 04F16803 		add	r3, r4, #104
 207 00ba 0093     		str	r3, [sp]
 208 00bc 4346     		mov	r3, r8
 209 00be 04F11402 		add	r2, r4, #20
 210 00c2 3146     		mov	r1, r6
 211 00c4 3046     		mov	r0, r6
 212              	.LVL30:
 213 00c6 FFF7FEFF 		bl	mbedtls_mpi_exp_mod
 214              	.LVL31:
 215 00ca 0346     		mov	r3, r0
 216              	.LVL32:
 365:C:/Users/lenovo/Desktop/liteos/Project2/BearPi_LiteOS/components/security/mbedtls/mbedtls-2.6.0/library\rsa.c ****     return( ret );
 217              		.loc 1 365 0
 218 00cc A8E7     		b	.L4
 219              	.LVL33:
 220              	.L8:
 354:C:/Users/lenovo/Desktop/liteos/Project2/BearPi_LiteOS/components/security/mbedtls/mbedtls-2.6.0/library\rsa.c **** 
 221              		.loc 1 354 0
 222 00ce 014B     		ldr	r3, .L11
 223 00d0 A6E7     		b	.L4
 224              	.L12:
 225 00d2 00BF     		.align	2
 226              	.L11:
 227 00d4 80BBFFFF 		.word	-17536
 228              		.cfi_endproc
 229              	.LFE19:
 231              		.section	.text.mgf_mask,"ax",%progbits
 232              		.align	1
 233              		.syntax unified
 234              		.thumb
 235              		.thumb_func
 236              		.fpu fpv4-sp-d16
 238              	mgf_mask:
 239              	.LFB21:
 368:C:/Users/lenovo/Desktop/liteos/Project2/BearPi_LiteOS/components/security/mbedtls/mbedtls-2.6.0/library\rsa.c **** 
 369:C:/Users/lenovo/Desktop/liteos/Project2/BearPi_LiteOS/components/security/mbedtls/mbedtls-2.6.0/library\rsa.c **** /*
 370:C:/Users/lenovo/Desktop/liteos/Project2/BearPi_LiteOS/components/security/mbedtls/mbedtls-2.6.0/library\rsa.c ****  * Exponent blinding supposed to prevent side-channel attacks using multiple
 371:C:/Users/lenovo/Desktop/liteos/Project2/BearPi_LiteOS/components/security/mbedtls/mbedtls-2.6.0/library\rsa.c ****  * traces of measurements to recover the RSA key. The more collisions are there,
 372:C:/Users/lenovo/Desktop/liteos/Project2/BearPi_LiteOS/components/security/mbedtls/mbedtls-2.6.0/library\rsa.c ****  * the more bits of the key can be recovered. See [3].
 373:C:/Users/lenovo/Desktop/liteos/Project2/BearPi_LiteOS/components/security/mbedtls/mbedtls-2.6.0/library\rsa.c ****  *
 374:C:/Users/lenovo/Desktop/liteos/Project2/BearPi_LiteOS/components/security/mbedtls/mbedtls-2.6.0/library\rsa.c ****  * Collecting n collisions with m bit long blinding value requires 2^(m-m/n)
 375:C:/Users/lenovo/Desktop/liteos/Project2/BearPi_LiteOS/components/security/mbedtls/mbedtls-2.6.0/library\rsa.c ****  * observations on avarage.
 376:C:/Users/lenovo/Desktop/liteos/Project2/BearPi_LiteOS/components/security/mbedtls/mbedtls-2.6.0/library\rsa.c ****  *
 377:C:/Users/lenovo/Desktop/liteos/Project2/BearPi_LiteOS/components/security/mbedtls/mbedtls-2.6.0/library\rsa.c ****  * For example with 28 byte blinding to achieve 2 collisions the adversary has
 378:C:/Users/lenovo/Desktop/liteos/Project2/BearPi_LiteOS/components/security/mbedtls/mbedtls-2.6.0/library\rsa.c ****  * to make 2^112 observations on avarage.
ARM GAS  c:\Users\lenovo\AppData\Local\Temp\ccVehGBj.s 			page 12


 379:C:/Users/lenovo/Desktop/liteos/Project2/BearPi_LiteOS/components/security/mbedtls/mbedtls-2.6.0/library\rsa.c ****  *
 380:C:/Users/lenovo/Desktop/liteos/Project2/BearPi_LiteOS/components/security/mbedtls/mbedtls-2.6.0/library\rsa.c ****  * (With the currently (as of 2017 April) known best algorithms breaking 2048
 381:C:/Users/lenovo/Desktop/liteos/Project2/BearPi_LiteOS/components/security/mbedtls/mbedtls-2.6.0/library\rsa.c ****  * bit RSA requires approximately as much time as trying out 2^112 random keys.
 382:C:/Users/lenovo/Desktop/liteos/Project2/BearPi_LiteOS/components/security/mbedtls/mbedtls-2.6.0/library\rsa.c ****  * Thus in this sense with 28 byte blinding the security is not reduced by
 383:C:/Users/lenovo/Desktop/liteos/Project2/BearPi_LiteOS/components/security/mbedtls/mbedtls-2.6.0/library\rsa.c ****  * side-channel attacks like the one in [3])
 384:C:/Users/lenovo/Desktop/liteos/Project2/BearPi_LiteOS/components/security/mbedtls/mbedtls-2.6.0/library\rsa.c ****  *
 385:C:/Users/lenovo/Desktop/liteos/Project2/BearPi_LiteOS/components/security/mbedtls/mbedtls-2.6.0/library\rsa.c ****  * This countermeasure does not help if the key recovery is possible with a
 386:C:/Users/lenovo/Desktop/liteos/Project2/BearPi_LiteOS/components/security/mbedtls/mbedtls-2.6.0/library\rsa.c ****  * single trace.
 387:C:/Users/lenovo/Desktop/liteos/Project2/BearPi_LiteOS/components/security/mbedtls/mbedtls-2.6.0/library\rsa.c ****  */
 388:C:/Users/lenovo/Desktop/liteos/Project2/BearPi_LiteOS/components/security/mbedtls/mbedtls-2.6.0/library\rsa.c **** #define RSA_EXPONENT_BLINDING 28
 389:C:/Users/lenovo/Desktop/liteos/Project2/BearPi_LiteOS/components/security/mbedtls/mbedtls-2.6.0/library\rsa.c **** 
 390:C:/Users/lenovo/Desktop/liteos/Project2/BearPi_LiteOS/components/security/mbedtls/mbedtls-2.6.0/library\rsa.c **** /*
 391:C:/Users/lenovo/Desktop/liteos/Project2/BearPi_LiteOS/components/security/mbedtls/mbedtls-2.6.0/library\rsa.c ****  * Do an RSA private key operation
 392:C:/Users/lenovo/Desktop/liteos/Project2/BearPi_LiteOS/components/security/mbedtls/mbedtls-2.6.0/library\rsa.c ****  */
 393:C:/Users/lenovo/Desktop/liteos/Project2/BearPi_LiteOS/components/security/mbedtls/mbedtls-2.6.0/library\rsa.c **** int mbedtls_rsa_private( mbedtls_rsa_context *ctx,
 394:C:/Users/lenovo/Desktop/liteos/Project2/BearPi_LiteOS/components/security/mbedtls/mbedtls-2.6.0/library\rsa.c ****                  int (*f_rng)(void *, unsigned char *, size_t),
 395:C:/Users/lenovo/Desktop/liteos/Project2/BearPi_LiteOS/components/security/mbedtls/mbedtls-2.6.0/library\rsa.c ****                  void *p_rng,
 396:C:/Users/lenovo/Desktop/liteos/Project2/BearPi_LiteOS/components/security/mbedtls/mbedtls-2.6.0/library\rsa.c ****                  const unsigned char *input,
 397:C:/Users/lenovo/Desktop/liteos/Project2/BearPi_LiteOS/components/security/mbedtls/mbedtls-2.6.0/library\rsa.c ****                  unsigned char *output )
 398:C:/Users/lenovo/Desktop/liteos/Project2/BearPi_LiteOS/components/security/mbedtls/mbedtls-2.6.0/library\rsa.c **** {
 399:C:/Users/lenovo/Desktop/liteos/Project2/BearPi_LiteOS/components/security/mbedtls/mbedtls-2.6.0/library\rsa.c ****     int ret;
 400:C:/Users/lenovo/Desktop/liteos/Project2/BearPi_LiteOS/components/security/mbedtls/mbedtls-2.6.0/library\rsa.c ****     size_t olen;
 401:C:/Users/lenovo/Desktop/liteos/Project2/BearPi_LiteOS/components/security/mbedtls/mbedtls-2.6.0/library\rsa.c ****     mbedtls_mpi T, T1, T2;
 402:C:/Users/lenovo/Desktop/liteos/Project2/BearPi_LiteOS/components/security/mbedtls/mbedtls-2.6.0/library\rsa.c ****     mbedtls_mpi P1, Q1, R;
 403:C:/Users/lenovo/Desktop/liteos/Project2/BearPi_LiteOS/components/security/mbedtls/mbedtls-2.6.0/library\rsa.c **** #if defined(MBEDTLS_RSA_NO_CRT)
 404:C:/Users/lenovo/Desktop/liteos/Project2/BearPi_LiteOS/components/security/mbedtls/mbedtls-2.6.0/library\rsa.c ****     mbedtls_mpi D_blind;
 405:C:/Users/lenovo/Desktop/liteos/Project2/BearPi_LiteOS/components/security/mbedtls/mbedtls-2.6.0/library\rsa.c ****     mbedtls_mpi *D = &ctx->D;
 406:C:/Users/lenovo/Desktop/liteos/Project2/BearPi_LiteOS/components/security/mbedtls/mbedtls-2.6.0/library\rsa.c **** #else
 407:C:/Users/lenovo/Desktop/liteos/Project2/BearPi_LiteOS/components/security/mbedtls/mbedtls-2.6.0/library\rsa.c ****     mbedtls_mpi DP_blind, DQ_blind;
 408:C:/Users/lenovo/Desktop/liteos/Project2/BearPi_LiteOS/components/security/mbedtls/mbedtls-2.6.0/library\rsa.c ****     mbedtls_mpi *DP = &ctx->DP;
 409:C:/Users/lenovo/Desktop/liteos/Project2/BearPi_LiteOS/components/security/mbedtls/mbedtls-2.6.0/library\rsa.c ****     mbedtls_mpi *DQ = &ctx->DQ;
 410:C:/Users/lenovo/Desktop/liteos/Project2/BearPi_LiteOS/components/security/mbedtls/mbedtls-2.6.0/library\rsa.c **** #endif
 411:C:/Users/lenovo/Desktop/liteos/Project2/BearPi_LiteOS/components/security/mbedtls/mbedtls-2.6.0/library\rsa.c **** 
 412:C:/Users/lenovo/Desktop/liteos/Project2/BearPi_LiteOS/components/security/mbedtls/mbedtls-2.6.0/library\rsa.c ****     /* Make sure we have private key info, prevent possible misuse */
 413:C:/Users/lenovo/Desktop/liteos/Project2/BearPi_LiteOS/components/security/mbedtls/mbedtls-2.6.0/library\rsa.c ****     if( ctx->P.p == NULL || ctx->Q.p == NULL || ctx->D.p == NULL )
 414:C:/Users/lenovo/Desktop/liteos/Project2/BearPi_LiteOS/components/security/mbedtls/mbedtls-2.6.0/library\rsa.c ****         return( MBEDTLS_ERR_RSA_BAD_INPUT_DATA );
 415:C:/Users/lenovo/Desktop/liteos/Project2/BearPi_LiteOS/components/security/mbedtls/mbedtls-2.6.0/library\rsa.c **** 
 416:C:/Users/lenovo/Desktop/liteos/Project2/BearPi_LiteOS/components/security/mbedtls/mbedtls-2.6.0/library\rsa.c ****     mbedtls_mpi_init( &T ); mbedtls_mpi_init( &T1 ); mbedtls_mpi_init( &T2 );
 417:C:/Users/lenovo/Desktop/liteos/Project2/BearPi_LiteOS/components/security/mbedtls/mbedtls-2.6.0/library\rsa.c ****     mbedtls_mpi_init( &P1 ); mbedtls_mpi_init( &Q1 ); mbedtls_mpi_init( &R );
 418:C:/Users/lenovo/Desktop/liteos/Project2/BearPi_LiteOS/components/security/mbedtls/mbedtls-2.6.0/library\rsa.c **** 
 419:C:/Users/lenovo/Desktop/liteos/Project2/BearPi_LiteOS/components/security/mbedtls/mbedtls-2.6.0/library\rsa.c **** 
 420:C:/Users/lenovo/Desktop/liteos/Project2/BearPi_LiteOS/components/security/mbedtls/mbedtls-2.6.0/library\rsa.c ****     if( f_rng != NULL )
 421:C:/Users/lenovo/Desktop/liteos/Project2/BearPi_LiteOS/components/security/mbedtls/mbedtls-2.6.0/library\rsa.c ****     {
 422:C:/Users/lenovo/Desktop/liteos/Project2/BearPi_LiteOS/components/security/mbedtls/mbedtls-2.6.0/library\rsa.c **** #if defined(MBEDTLS_RSA_NO_CRT)
 423:C:/Users/lenovo/Desktop/liteos/Project2/BearPi_LiteOS/components/security/mbedtls/mbedtls-2.6.0/library\rsa.c ****         mbedtls_mpi_init( &D_blind );
 424:C:/Users/lenovo/Desktop/liteos/Project2/BearPi_LiteOS/components/security/mbedtls/mbedtls-2.6.0/library\rsa.c **** #else
 425:C:/Users/lenovo/Desktop/liteos/Project2/BearPi_LiteOS/components/security/mbedtls/mbedtls-2.6.0/library\rsa.c ****         mbedtls_mpi_init( &DP_blind );
 426:C:/Users/lenovo/Desktop/liteos/Project2/BearPi_LiteOS/components/security/mbedtls/mbedtls-2.6.0/library\rsa.c ****         mbedtls_mpi_init( &DQ_blind );
 427:C:/Users/lenovo/Desktop/liteos/Project2/BearPi_LiteOS/components/security/mbedtls/mbedtls-2.6.0/library\rsa.c **** #endif
 428:C:/Users/lenovo/Desktop/liteos/Project2/BearPi_LiteOS/components/security/mbedtls/mbedtls-2.6.0/library\rsa.c ****     }
 429:C:/Users/lenovo/Desktop/liteos/Project2/BearPi_LiteOS/components/security/mbedtls/mbedtls-2.6.0/library\rsa.c **** 
 430:C:/Users/lenovo/Desktop/liteos/Project2/BearPi_LiteOS/components/security/mbedtls/mbedtls-2.6.0/library\rsa.c **** 
 431:C:/Users/lenovo/Desktop/liteos/Project2/BearPi_LiteOS/components/security/mbedtls/mbedtls-2.6.0/library\rsa.c **** #if defined(MBEDTLS_THREADING_C)
 432:C:/Users/lenovo/Desktop/liteos/Project2/BearPi_LiteOS/components/security/mbedtls/mbedtls-2.6.0/library\rsa.c ****     if( ( ret = mbedtls_mutex_lock( &ctx->mutex ) ) != 0 )
 433:C:/Users/lenovo/Desktop/liteos/Project2/BearPi_LiteOS/components/security/mbedtls/mbedtls-2.6.0/library\rsa.c ****         return( ret );
 434:C:/Users/lenovo/Desktop/liteos/Project2/BearPi_LiteOS/components/security/mbedtls/mbedtls-2.6.0/library\rsa.c **** #endif
 435:C:/Users/lenovo/Desktop/liteos/Project2/BearPi_LiteOS/components/security/mbedtls/mbedtls-2.6.0/library\rsa.c **** 
ARM GAS  c:\Users\lenovo\AppData\Local\Temp\ccVehGBj.s 			page 13


 436:C:/Users/lenovo/Desktop/liteos/Project2/BearPi_LiteOS/components/security/mbedtls/mbedtls-2.6.0/library\rsa.c ****     MBEDTLS_MPI_CHK( mbedtls_mpi_read_binary( &T, input, ctx->len ) );
 437:C:/Users/lenovo/Desktop/liteos/Project2/BearPi_LiteOS/components/security/mbedtls/mbedtls-2.6.0/library\rsa.c ****     if( mbedtls_mpi_cmp_mpi( &T, &ctx->N ) >= 0 )
 438:C:/Users/lenovo/Desktop/liteos/Project2/BearPi_LiteOS/components/security/mbedtls/mbedtls-2.6.0/library\rsa.c ****     {
 439:C:/Users/lenovo/Desktop/liteos/Project2/BearPi_LiteOS/components/security/mbedtls/mbedtls-2.6.0/library\rsa.c ****         ret = MBEDTLS_ERR_MPI_BAD_INPUT_DATA;
 440:C:/Users/lenovo/Desktop/liteos/Project2/BearPi_LiteOS/components/security/mbedtls/mbedtls-2.6.0/library\rsa.c ****         goto cleanup;
 441:C:/Users/lenovo/Desktop/liteos/Project2/BearPi_LiteOS/components/security/mbedtls/mbedtls-2.6.0/library\rsa.c ****     }
 442:C:/Users/lenovo/Desktop/liteos/Project2/BearPi_LiteOS/components/security/mbedtls/mbedtls-2.6.0/library\rsa.c **** 
 443:C:/Users/lenovo/Desktop/liteos/Project2/BearPi_LiteOS/components/security/mbedtls/mbedtls-2.6.0/library\rsa.c ****     if( f_rng != NULL )
 444:C:/Users/lenovo/Desktop/liteos/Project2/BearPi_LiteOS/components/security/mbedtls/mbedtls-2.6.0/library\rsa.c ****     {
 445:C:/Users/lenovo/Desktop/liteos/Project2/BearPi_LiteOS/components/security/mbedtls/mbedtls-2.6.0/library\rsa.c ****         /*
 446:C:/Users/lenovo/Desktop/liteos/Project2/BearPi_LiteOS/components/security/mbedtls/mbedtls-2.6.0/library\rsa.c ****          * Blinding
 447:C:/Users/lenovo/Desktop/liteos/Project2/BearPi_LiteOS/components/security/mbedtls/mbedtls-2.6.0/library\rsa.c ****          * T = T * Vi mod N
 448:C:/Users/lenovo/Desktop/liteos/Project2/BearPi_LiteOS/components/security/mbedtls/mbedtls-2.6.0/library\rsa.c ****          */
 449:C:/Users/lenovo/Desktop/liteos/Project2/BearPi_LiteOS/components/security/mbedtls/mbedtls-2.6.0/library\rsa.c ****         MBEDTLS_MPI_CHK( rsa_prepare_blinding( ctx, f_rng, p_rng ) );
 450:C:/Users/lenovo/Desktop/liteos/Project2/BearPi_LiteOS/components/security/mbedtls/mbedtls-2.6.0/library\rsa.c ****         MBEDTLS_MPI_CHK( mbedtls_mpi_mul_mpi( &T, &T, &ctx->Vi ) );
 451:C:/Users/lenovo/Desktop/liteos/Project2/BearPi_LiteOS/components/security/mbedtls/mbedtls-2.6.0/library\rsa.c ****         MBEDTLS_MPI_CHK( mbedtls_mpi_mod_mpi( &T, &T, &ctx->N ) );
 452:C:/Users/lenovo/Desktop/liteos/Project2/BearPi_LiteOS/components/security/mbedtls/mbedtls-2.6.0/library\rsa.c **** 
 453:C:/Users/lenovo/Desktop/liteos/Project2/BearPi_LiteOS/components/security/mbedtls/mbedtls-2.6.0/library\rsa.c ****         /*
 454:C:/Users/lenovo/Desktop/liteos/Project2/BearPi_LiteOS/components/security/mbedtls/mbedtls-2.6.0/library\rsa.c ****          * Exponent blinding
 455:C:/Users/lenovo/Desktop/liteos/Project2/BearPi_LiteOS/components/security/mbedtls/mbedtls-2.6.0/library\rsa.c ****          */
 456:C:/Users/lenovo/Desktop/liteos/Project2/BearPi_LiteOS/components/security/mbedtls/mbedtls-2.6.0/library\rsa.c ****         MBEDTLS_MPI_CHK( mbedtls_mpi_sub_int( &P1, &ctx->P, 1 ) );
 457:C:/Users/lenovo/Desktop/liteos/Project2/BearPi_LiteOS/components/security/mbedtls/mbedtls-2.6.0/library\rsa.c ****         MBEDTLS_MPI_CHK( mbedtls_mpi_sub_int( &Q1, &ctx->Q, 1 ) );
 458:C:/Users/lenovo/Desktop/liteos/Project2/BearPi_LiteOS/components/security/mbedtls/mbedtls-2.6.0/library\rsa.c **** 
 459:C:/Users/lenovo/Desktop/liteos/Project2/BearPi_LiteOS/components/security/mbedtls/mbedtls-2.6.0/library\rsa.c **** #if defined(MBEDTLS_RSA_NO_CRT)
 460:C:/Users/lenovo/Desktop/liteos/Project2/BearPi_LiteOS/components/security/mbedtls/mbedtls-2.6.0/library\rsa.c ****         /*
 461:C:/Users/lenovo/Desktop/liteos/Project2/BearPi_LiteOS/components/security/mbedtls/mbedtls-2.6.0/library\rsa.c ****          * D_blind = ( P - 1 ) * ( Q - 1 ) * R + D
 462:C:/Users/lenovo/Desktop/liteos/Project2/BearPi_LiteOS/components/security/mbedtls/mbedtls-2.6.0/library\rsa.c ****          */
 463:C:/Users/lenovo/Desktop/liteos/Project2/BearPi_LiteOS/components/security/mbedtls/mbedtls-2.6.0/library\rsa.c ****         MBEDTLS_MPI_CHK( mbedtls_mpi_fill_random( &R, RSA_EXPONENT_BLINDING,
 464:C:/Users/lenovo/Desktop/liteos/Project2/BearPi_LiteOS/components/security/mbedtls/mbedtls-2.6.0/library\rsa.c ****                          f_rng, p_rng ) );
 465:C:/Users/lenovo/Desktop/liteos/Project2/BearPi_LiteOS/components/security/mbedtls/mbedtls-2.6.0/library\rsa.c ****         MBEDTLS_MPI_CHK( mbedtls_mpi_mul_mpi( &D_blind, &P1, &Q1 ) );
 466:C:/Users/lenovo/Desktop/liteos/Project2/BearPi_LiteOS/components/security/mbedtls/mbedtls-2.6.0/library\rsa.c ****         MBEDTLS_MPI_CHK( mbedtls_mpi_mul_mpi( &D_blind, &D_blind, &R ) );
 467:C:/Users/lenovo/Desktop/liteos/Project2/BearPi_LiteOS/components/security/mbedtls/mbedtls-2.6.0/library\rsa.c ****         MBEDTLS_MPI_CHK( mbedtls_mpi_add_mpi( &D_blind, &D_blind, &ctx->D ) );
 468:C:/Users/lenovo/Desktop/liteos/Project2/BearPi_LiteOS/components/security/mbedtls/mbedtls-2.6.0/library\rsa.c **** 
 469:C:/Users/lenovo/Desktop/liteos/Project2/BearPi_LiteOS/components/security/mbedtls/mbedtls-2.6.0/library\rsa.c ****         D = &D_blind;
 470:C:/Users/lenovo/Desktop/liteos/Project2/BearPi_LiteOS/components/security/mbedtls/mbedtls-2.6.0/library\rsa.c **** #else
 471:C:/Users/lenovo/Desktop/liteos/Project2/BearPi_LiteOS/components/security/mbedtls/mbedtls-2.6.0/library\rsa.c ****         /*
 472:C:/Users/lenovo/Desktop/liteos/Project2/BearPi_LiteOS/components/security/mbedtls/mbedtls-2.6.0/library\rsa.c ****          * DP_blind = ( P - 1 ) * R + DP
 473:C:/Users/lenovo/Desktop/liteos/Project2/BearPi_LiteOS/components/security/mbedtls/mbedtls-2.6.0/library\rsa.c ****          */
 474:C:/Users/lenovo/Desktop/liteos/Project2/BearPi_LiteOS/components/security/mbedtls/mbedtls-2.6.0/library\rsa.c ****         MBEDTLS_MPI_CHK( mbedtls_mpi_fill_random( &R, RSA_EXPONENT_BLINDING,
 475:C:/Users/lenovo/Desktop/liteos/Project2/BearPi_LiteOS/components/security/mbedtls/mbedtls-2.6.0/library\rsa.c ****                          f_rng, p_rng ) );
 476:C:/Users/lenovo/Desktop/liteos/Project2/BearPi_LiteOS/components/security/mbedtls/mbedtls-2.6.0/library\rsa.c ****         MBEDTLS_MPI_CHK( mbedtls_mpi_mul_mpi( &DP_blind, &P1, &R ) );
 477:C:/Users/lenovo/Desktop/liteos/Project2/BearPi_LiteOS/components/security/mbedtls/mbedtls-2.6.0/library\rsa.c ****         MBEDTLS_MPI_CHK( mbedtls_mpi_add_mpi( &DP_blind, &DP_blind,
 478:C:/Users/lenovo/Desktop/liteos/Project2/BearPi_LiteOS/components/security/mbedtls/mbedtls-2.6.0/library\rsa.c ****                     &ctx->DP ) );
 479:C:/Users/lenovo/Desktop/liteos/Project2/BearPi_LiteOS/components/security/mbedtls/mbedtls-2.6.0/library\rsa.c **** 
 480:C:/Users/lenovo/Desktop/liteos/Project2/BearPi_LiteOS/components/security/mbedtls/mbedtls-2.6.0/library\rsa.c ****         DP = &DP_blind;
 481:C:/Users/lenovo/Desktop/liteos/Project2/BearPi_LiteOS/components/security/mbedtls/mbedtls-2.6.0/library\rsa.c **** 
 482:C:/Users/lenovo/Desktop/liteos/Project2/BearPi_LiteOS/components/security/mbedtls/mbedtls-2.6.0/library\rsa.c ****         /*
 483:C:/Users/lenovo/Desktop/liteos/Project2/BearPi_LiteOS/components/security/mbedtls/mbedtls-2.6.0/library\rsa.c ****          * DQ_blind = ( Q - 1 ) * R + DQ
 484:C:/Users/lenovo/Desktop/liteos/Project2/BearPi_LiteOS/components/security/mbedtls/mbedtls-2.6.0/library\rsa.c ****          */
 485:C:/Users/lenovo/Desktop/liteos/Project2/BearPi_LiteOS/components/security/mbedtls/mbedtls-2.6.0/library\rsa.c ****         MBEDTLS_MPI_CHK( mbedtls_mpi_fill_random( &R, RSA_EXPONENT_BLINDING,
 486:C:/Users/lenovo/Desktop/liteos/Project2/BearPi_LiteOS/components/security/mbedtls/mbedtls-2.6.0/library\rsa.c ****                          f_rng, p_rng ) );
 487:C:/Users/lenovo/Desktop/liteos/Project2/BearPi_LiteOS/components/security/mbedtls/mbedtls-2.6.0/library\rsa.c ****         MBEDTLS_MPI_CHK( mbedtls_mpi_mul_mpi( &DQ_blind, &Q1, &R ) );
 488:C:/Users/lenovo/Desktop/liteos/Project2/BearPi_LiteOS/components/security/mbedtls/mbedtls-2.6.0/library\rsa.c ****         MBEDTLS_MPI_CHK( mbedtls_mpi_add_mpi( &DQ_blind, &DQ_blind,
 489:C:/Users/lenovo/Desktop/liteos/Project2/BearPi_LiteOS/components/security/mbedtls/mbedtls-2.6.0/library\rsa.c ****                     &ctx->DQ ) );
 490:C:/Users/lenovo/Desktop/liteos/Project2/BearPi_LiteOS/components/security/mbedtls/mbedtls-2.6.0/library\rsa.c **** 
 491:C:/Users/lenovo/Desktop/liteos/Project2/BearPi_LiteOS/components/security/mbedtls/mbedtls-2.6.0/library\rsa.c ****         DQ = &DQ_blind;
 492:C:/Users/lenovo/Desktop/liteos/Project2/BearPi_LiteOS/components/security/mbedtls/mbedtls-2.6.0/library\rsa.c **** #endif /* MBEDTLS_RSA_NO_CRT */
ARM GAS  c:\Users\lenovo\AppData\Local\Temp\ccVehGBj.s 			page 14


 493:C:/Users/lenovo/Desktop/liteos/Project2/BearPi_LiteOS/components/security/mbedtls/mbedtls-2.6.0/library\rsa.c ****     }
 494:C:/Users/lenovo/Desktop/liteos/Project2/BearPi_LiteOS/components/security/mbedtls/mbedtls-2.6.0/library\rsa.c **** 
 495:C:/Users/lenovo/Desktop/liteos/Project2/BearPi_LiteOS/components/security/mbedtls/mbedtls-2.6.0/library\rsa.c **** #if defined(MBEDTLS_RSA_NO_CRT)
 496:C:/Users/lenovo/Desktop/liteos/Project2/BearPi_LiteOS/components/security/mbedtls/mbedtls-2.6.0/library\rsa.c ****     MBEDTLS_MPI_CHK( mbedtls_mpi_exp_mod( &T, &T, D, &ctx->N, &ctx->RN ) );
 497:C:/Users/lenovo/Desktop/liteos/Project2/BearPi_LiteOS/components/security/mbedtls/mbedtls-2.6.0/library\rsa.c **** #else
 498:C:/Users/lenovo/Desktop/liteos/Project2/BearPi_LiteOS/components/security/mbedtls/mbedtls-2.6.0/library\rsa.c ****     /*
 499:C:/Users/lenovo/Desktop/liteos/Project2/BearPi_LiteOS/components/security/mbedtls/mbedtls-2.6.0/library\rsa.c ****      * Faster decryption using the CRT
 500:C:/Users/lenovo/Desktop/liteos/Project2/BearPi_LiteOS/components/security/mbedtls/mbedtls-2.6.0/library\rsa.c ****      *
 501:C:/Users/lenovo/Desktop/liteos/Project2/BearPi_LiteOS/components/security/mbedtls/mbedtls-2.6.0/library\rsa.c ****      * T1 = input ^ dP mod P
 502:C:/Users/lenovo/Desktop/liteos/Project2/BearPi_LiteOS/components/security/mbedtls/mbedtls-2.6.0/library\rsa.c ****      * T2 = input ^ dQ mod Q
 503:C:/Users/lenovo/Desktop/liteos/Project2/BearPi_LiteOS/components/security/mbedtls/mbedtls-2.6.0/library\rsa.c ****      */
 504:C:/Users/lenovo/Desktop/liteos/Project2/BearPi_LiteOS/components/security/mbedtls/mbedtls-2.6.0/library\rsa.c ****     MBEDTLS_MPI_CHK( mbedtls_mpi_exp_mod( &T1, &T, DP, &ctx->P, &ctx->RP ) );
 505:C:/Users/lenovo/Desktop/liteos/Project2/BearPi_LiteOS/components/security/mbedtls/mbedtls-2.6.0/library\rsa.c ****     MBEDTLS_MPI_CHK( mbedtls_mpi_exp_mod( &T2, &T, DQ, &ctx->Q, &ctx->RQ ) );
 506:C:/Users/lenovo/Desktop/liteos/Project2/BearPi_LiteOS/components/security/mbedtls/mbedtls-2.6.0/library\rsa.c **** 
 507:C:/Users/lenovo/Desktop/liteos/Project2/BearPi_LiteOS/components/security/mbedtls/mbedtls-2.6.0/library\rsa.c ****     /*
 508:C:/Users/lenovo/Desktop/liteos/Project2/BearPi_LiteOS/components/security/mbedtls/mbedtls-2.6.0/library\rsa.c ****      * T = (T1 - T2) * (Q^-1 mod P) mod P
 509:C:/Users/lenovo/Desktop/liteos/Project2/BearPi_LiteOS/components/security/mbedtls/mbedtls-2.6.0/library\rsa.c ****      */
 510:C:/Users/lenovo/Desktop/liteos/Project2/BearPi_LiteOS/components/security/mbedtls/mbedtls-2.6.0/library\rsa.c ****     MBEDTLS_MPI_CHK( mbedtls_mpi_sub_mpi( &T, &T1, &T2 ) );
 511:C:/Users/lenovo/Desktop/liteos/Project2/BearPi_LiteOS/components/security/mbedtls/mbedtls-2.6.0/library\rsa.c ****     MBEDTLS_MPI_CHK( mbedtls_mpi_mul_mpi( &T1, &T, &ctx->QP ) );
 512:C:/Users/lenovo/Desktop/liteos/Project2/BearPi_LiteOS/components/security/mbedtls/mbedtls-2.6.0/library\rsa.c ****     MBEDTLS_MPI_CHK( mbedtls_mpi_mod_mpi( &T, &T1, &ctx->P ) );
 513:C:/Users/lenovo/Desktop/liteos/Project2/BearPi_LiteOS/components/security/mbedtls/mbedtls-2.6.0/library\rsa.c **** 
 514:C:/Users/lenovo/Desktop/liteos/Project2/BearPi_LiteOS/components/security/mbedtls/mbedtls-2.6.0/library\rsa.c ****     /*
 515:C:/Users/lenovo/Desktop/liteos/Project2/BearPi_LiteOS/components/security/mbedtls/mbedtls-2.6.0/library\rsa.c ****      * T = T2 + T * Q
 516:C:/Users/lenovo/Desktop/liteos/Project2/BearPi_LiteOS/components/security/mbedtls/mbedtls-2.6.0/library\rsa.c ****      */
 517:C:/Users/lenovo/Desktop/liteos/Project2/BearPi_LiteOS/components/security/mbedtls/mbedtls-2.6.0/library\rsa.c ****     MBEDTLS_MPI_CHK( mbedtls_mpi_mul_mpi( &T1, &T, &ctx->Q ) );
 518:C:/Users/lenovo/Desktop/liteos/Project2/BearPi_LiteOS/components/security/mbedtls/mbedtls-2.6.0/library\rsa.c ****     MBEDTLS_MPI_CHK( mbedtls_mpi_add_mpi( &T, &T2, &T1 ) );
 519:C:/Users/lenovo/Desktop/liteos/Project2/BearPi_LiteOS/components/security/mbedtls/mbedtls-2.6.0/library\rsa.c **** #endif /* MBEDTLS_RSA_NO_CRT */
 520:C:/Users/lenovo/Desktop/liteos/Project2/BearPi_LiteOS/components/security/mbedtls/mbedtls-2.6.0/library\rsa.c **** 
 521:C:/Users/lenovo/Desktop/liteos/Project2/BearPi_LiteOS/components/security/mbedtls/mbedtls-2.6.0/library\rsa.c ****     if( f_rng != NULL )
 522:C:/Users/lenovo/Desktop/liteos/Project2/BearPi_LiteOS/components/security/mbedtls/mbedtls-2.6.0/library\rsa.c ****     {
 523:C:/Users/lenovo/Desktop/liteos/Project2/BearPi_LiteOS/components/security/mbedtls/mbedtls-2.6.0/library\rsa.c ****         /*
 524:C:/Users/lenovo/Desktop/liteos/Project2/BearPi_LiteOS/components/security/mbedtls/mbedtls-2.6.0/library\rsa.c ****          * Unblind
 525:C:/Users/lenovo/Desktop/liteos/Project2/BearPi_LiteOS/components/security/mbedtls/mbedtls-2.6.0/library\rsa.c ****          * T = T * Vf mod N
 526:C:/Users/lenovo/Desktop/liteos/Project2/BearPi_LiteOS/components/security/mbedtls/mbedtls-2.6.0/library\rsa.c ****          */
 527:C:/Users/lenovo/Desktop/liteos/Project2/BearPi_LiteOS/components/security/mbedtls/mbedtls-2.6.0/library\rsa.c ****         MBEDTLS_MPI_CHK( mbedtls_mpi_mul_mpi( &T, &T, &ctx->Vf ) );
 528:C:/Users/lenovo/Desktop/liteos/Project2/BearPi_LiteOS/components/security/mbedtls/mbedtls-2.6.0/library\rsa.c ****         MBEDTLS_MPI_CHK( mbedtls_mpi_mod_mpi( &T, &T, &ctx->N ) );
 529:C:/Users/lenovo/Desktop/liteos/Project2/BearPi_LiteOS/components/security/mbedtls/mbedtls-2.6.0/library\rsa.c ****     }
 530:C:/Users/lenovo/Desktop/liteos/Project2/BearPi_LiteOS/components/security/mbedtls/mbedtls-2.6.0/library\rsa.c **** 
 531:C:/Users/lenovo/Desktop/liteos/Project2/BearPi_LiteOS/components/security/mbedtls/mbedtls-2.6.0/library\rsa.c ****     olen = ctx->len;
 532:C:/Users/lenovo/Desktop/liteos/Project2/BearPi_LiteOS/components/security/mbedtls/mbedtls-2.6.0/library\rsa.c ****     MBEDTLS_MPI_CHK( mbedtls_mpi_write_binary( &T, output, olen ) );
 533:C:/Users/lenovo/Desktop/liteos/Project2/BearPi_LiteOS/components/security/mbedtls/mbedtls-2.6.0/library\rsa.c **** 
 534:C:/Users/lenovo/Desktop/liteos/Project2/BearPi_LiteOS/components/security/mbedtls/mbedtls-2.6.0/library\rsa.c **** cleanup:
 535:C:/Users/lenovo/Desktop/liteos/Project2/BearPi_LiteOS/components/security/mbedtls/mbedtls-2.6.0/library\rsa.c **** #if defined(MBEDTLS_THREADING_C)
 536:C:/Users/lenovo/Desktop/liteos/Project2/BearPi_LiteOS/components/security/mbedtls/mbedtls-2.6.0/library\rsa.c ****     if( mbedtls_mutex_unlock( &ctx->mutex ) != 0 )
 537:C:/Users/lenovo/Desktop/liteos/Project2/BearPi_LiteOS/components/security/mbedtls/mbedtls-2.6.0/library\rsa.c ****         return( MBEDTLS_ERR_THREADING_MUTEX_ERROR );
 538:C:/Users/lenovo/Desktop/liteos/Project2/BearPi_LiteOS/components/security/mbedtls/mbedtls-2.6.0/library\rsa.c **** #endif
 539:C:/Users/lenovo/Desktop/liteos/Project2/BearPi_LiteOS/components/security/mbedtls/mbedtls-2.6.0/library\rsa.c **** 
 540:C:/Users/lenovo/Desktop/liteos/Project2/BearPi_LiteOS/components/security/mbedtls/mbedtls-2.6.0/library\rsa.c ****     mbedtls_mpi_free( &T ); mbedtls_mpi_free( &T1 ); mbedtls_mpi_free( &T2 );
 541:C:/Users/lenovo/Desktop/liteos/Project2/BearPi_LiteOS/components/security/mbedtls/mbedtls-2.6.0/library\rsa.c ****     mbedtls_mpi_free( &P1 ); mbedtls_mpi_free( &Q1 ); mbedtls_mpi_free( &R );
 542:C:/Users/lenovo/Desktop/liteos/Project2/BearPi_LiteOS/components/security/mbedtls/mbedtls-2.6.0/library\rsa.c **** 
 543:C:/Users/lenovo/Desktop/liteos/Project2/BearPi_LiteOS/components/security/mbedtls/mbedtls-2.6.0/library\rsa.c ****     if( f_rng != NULL )
 544:C:/Users/lenovo/Desktop/liteos/Project2/BearPi_LiteOS/components/security/mbedtls/mbedtls-2.6.0/library\rsa.c ****     {
 545:C:/Users/lenovo/Desktop/liteos/Project2/BearPi_LiteOS/components/security/mbedtls/mbedtls-2.6.0/library\rsa.c **** #if defined(MBEDTLS_RSA_NO_CRT)
 546:C:/Users/lenovo/Desktop/liteos/Project2/BearPi_LiteOS/components/security/mbedtls/mbedtls-2.6.0/library\rsa.c ****         mbedtls_mpi_free( &D_blind );
 547:C:/Users/lenovo/Desktop/liteos/Project2/BearPi_LiteOS/components/security/mbedtls/mbedtls-2.6.0/library\rsa.c **** #else
 548:C:/Users/lenovo/Desktop/liteos/Project2/BearPi_LiteOS/components/security/mbedtls/mbedtls-2.6.0/library\rsa.c ****         mbedtls_mpi_free( &DP_blind );
 549:C:/Users/lenovo/Desktop/liteos/Project2/BearPi_LiteOS/components/security/mbedtls/mbedtls-2.6.0/library\rsa.c ****         mbedtls_mpi_free( &DQ_blind );
ARM GAS  c:\Users\lenovo\AppData\Local\Temp\ccVehGBj.s 			page 15


 550:C:/Users/lenovo/Desktop/liteos/Project2/BearPi_LiteOS/components/security/mbedtls/mbedtls-2.6.0/library\rsa.c **** #endif
 551:C:/Users/lenovo/Desktop/liteos/Project2/BearPi_LiteOS/components/security/mbedtls/mbedtls-2.6.0/library\rsa.c ****     }
 552:C:/Users/lenovo/Desktop/liteos/Project2/BearPi_LiteOS/components/security/mbedtls/mbedtls-2.6.0/library\rsa.c **** 
 553:C:/Users/lenovo/Desktop/liteos/Project2/BearPi_LiteOS/components/security/mbedtls/mbedtls-2.6.0/library\rsa.c ****     if( ret != 0 )
 554:C:/Users/lenovo/Desktop/liteos/Project2/BearPi_LiteOS/components/security/mbedtls/mbedtls-2.6.0/library\rsa.c ****         return( MBEDTLS_ERR_RSA_PRIVATE_FAILED + ret );
 555:C:/Users/lenovo/Desktop/liteos/Project2/BearPi_LiteOS/components/security/mbedtls/mbedtls-2.6.0/library\rsa.c **** 
 556:C:/Users/lenovo/Desktop/liteos/Project2/BearPi_LiteOS/components/security/mbedtls/mbedtls-2.6.0/library\rsa.c ****     return( 0 );
 557:C:/Users/lenovo/Desktop/liteos/Project2/BearPi_LiteOS/components/security/mbedtls/mbedtls-2.6.0/library\rsa.c **** }
 558:C:/Users/lenovo/Desktop/liteos/Project2/BearPi_LiteOS/components/security/mbedtls/mbedtls-2.6.0/library\rsa.c **** 
 559:C:/Users/lenovo/Desktop/liteos/Project2/BearPi_LiteOS/components/security/mbedtls/mbedtls-2.6.0/library\rsa.c **** #if defined(MBEDTLS_PKCS1_V21)
 560:C:/Users/lenovo/Desktop/liteos/Project2/BearPi_LiteOS/components/security/mbedtls/mbedtls-2.6.0/library\rsa.c **** /**
 561:C:/Users/lenovo/Desktop/liteos/Project2/BearPi_LiteOS/components/security/mbedtls/mbedtls-2.6.0/library\rsa.c ****  * Generate and apply the MGF1 operation (from PKCS#1 v2.1) to a buffer.
 562:C:/Users/lenovo/Desktop/liteos/Project2/BearPi_LiteOS/components/security/mbedtls/mbedtls-2.6.0/library\rsa.c ****  *
 563:C:/Users/lenovo/Desktop/liteos/Project2/BearPi_LiteOS/components/security/mbedtls/mbedtls-2.6.0/library\rsa.c ****  * \param dst       buffer to mask
 564:C:/Users/lenovo/Desktop/liteos/Project2/BearPi_LiteOS/components/security/mbedtls/mbedtls-2.6.0/library\rsa.c ****  * \param dlen      length of destination buffer
 565:C:/Users/lenovo/Desktop/liteos/Project2/BearPi_LiteOS/components/security/mbedtls/mbedtls-2.6.0/library\rsa.c ****  * \param src       source of the mask generation
 566:C:/Users/lenovo/Desktop/liteos/Project2/BearPi_LiteOS/components/security/mbedtls/mbedtls-2.6.0/library\rsa.c ****  * \param slen      length of the source buffer
 567:C:/Users/lenovo/Desktop/liteos/Project2/BearPi_LiteOS/components/security/mbedtls/mbedtls-2.6.0/library\rsa.c ****  * \param md_ctx    message digest context to use
 568:C:/Users/lenovo/Desktop/liteos/Project2/BearPi_LiteOS/components/security/mbedtls/mbedtls-2.6.0/library\rsa.c ****  */
 569:C:/Users/lenovo/Desktop/liteos/Project2/BearPi_LiteOS/components/security/mbedtls/mbedtls-2.6.0/library\rsa.c **** static void mgf_mask( unsigned char *dst, size_t dlen, unsigned char *src,
 570:C:/Users/lenovo/Desktop/liteos/Project2/BearPi_LiteOS/components/security/mbedtls/mbedtls-2.6.0/library\rsa.c ****                       size_t slen, mbedtls_md_context_t *md_ctx )
 571:C:/Users/lenovo/Desktop/liteos/Project2/BearPi_LiteOS/components/security/mbedtls/mbedtls-2.6.0/library\rsa.c **** {
 240              		.loc 1 571 0
 241              		.cfi_startproc
 242              		@ args = 4, pretend = 0, frame = 40
 243              		@ frame_needed = 0, uses_anonymous_args = 0
 244              	.LVL34:
 245 0000 2DE9F047 		push	{r4, r5, r6, r7, r8, r9, r10, lr}
 246              	.LCFI4:
 247              		.cfi_def_cfa_offset 32
 248              		.cfi_offset 4, -32
 249              		.cfi_offset 5, -28
 250              		.cfi_offset 6, -24
 251              		.cfi_offset 7, -20
 252              		.cfi_offset 8, -16
 253              		.cfi_offset 9, -12
 254              		.cfi_offset 10, -8
 255              		.cfi_offset 14, -4
 256 0004 8AB0     		sub	sp, sp, #40
 257              	.LCFI5:
 258              		.cfi_def_cfa_offset 72
 259 0006 0446     		mov	r4, r0
 260 0008 0E46     		mov	r6, r1
 261 000a 9246     		mov	r10, r2
 262 000c 9946     		mov	r9, r3
 263 000e 129F     		ldr	r7, [sp, #72]
 572:C:/Users/lenovo/Desktop/liteos/Project2/BearPi_LiteOS/components/security/mbedtls/mbedtls-2.6.0/library\rsa.c ****     unsigned char mask[MBEDTLS_MD_MAX_SIZE];
 573:C:/Users/lenovo/Desktop/liteos/Project2/BearPi_LiteOS/components/security/mbedtls/mbedtls-2.6.0/library\rsa.c ****     unsigned char counter[4];
 574:C:/Users/lenovo/Desktop/liteos/Project2/BearPi_LiteOS/components/security/mbedtls/mbedtls-2.6.0/library\rsa.c ****     unsigned char *p;
 575:C:/Users/lenovo/Desktop/liteos/Project2/BearPi_LiteOS/components/security/mbedtls/mbedtls-2.6.0/library\rsa.c ****     unsigned int hlen;
 576:C:/Users/lenovo/Desktop/liteos/Project2/BearPi_LiteOS/components/security/mbedtls/mbedtls-2.6.0/library\rsa.c ****     size_t i, use_len;
 577:C:/Users/lenovo/Desktop/liteos/Project2/BearPi_LiteOS/components/security/mbedtls/mbedtls-2.6.0/library\rsa.c **** 
 578:C:/Users/lenovo/Desktop/liteos/Project2/BearPi_LiteOS/components/security/mbedtls/mbedtls-2.6.0/library\rsa.c ****     memset( mask, 0, MBEDTLS_MD_MAX_SIZE );
 264              		.loc 1 578 0
 265 0010 2022     		movs	r2, #32
 266              	.LVL35:
 267 0012 0021     		movs	r1, #0
ARM GAS  c:\Users\lenovo\AppData\Local\Temp\ccVehGBj.s 			page 16


 268              	.LVL36:
 269 0014 02A8     		add	r0, sp, #8
 270              	.LVL37:
 271 0016 FFF7FEFF 		bl	memset
 272              	.LVL38:
 579:C:/Users/lenovo/Desktop/liteos/Project2/BearPi_LiteOS/components/security/mbedtls/mbedtls-2.6.0/library\rsa.c ****     memset( counter, 0, 4 );
 273              		.loc 1 579 0
 274 001a 0023     		movs	r3, #0
 275 001c 0193     		str	r3, [sp, #4]
 580:C:/Users/lenovo/Desktop/liteos/Project2/BearPi_LiteOS/components/security/mbedtls/mbedtls-2.6.0/library\rsa.c **** 
 581:C:/Users/lenovo/Desktop/liteos/Project2/BearPi_LiteOS/components/security/mbedtls/mbedtls-2.6.0/library\rsa.c ****     hlen = mbedtls_md_get_size( md_ctx->md_info );
 276              		.loc 1 581 0
 277 001e 3868     		ldr	r0, [r7]
 278 0020 FFF7FEFF 		bl	mbedtls_md_get_size
 279              	.LVL39:
 280 0024 8046     		mov	r8, r0
 281              	.LVL40:
 582:C:/Users/lenovo/Desktop/liteos/Project2/BearPi_LiteOS/components/security/mbedtls/mbedtls-2.6.0/library\rsa.c **** 
 583:C:/Users/lenovo/Desktop/liteos/Project2/BearPi_LiteOS/components/security/mbedtls/mbedtls-2.6.0/library\rsa.c ****     /* Generate and apply dbMask */
 584:C:/Users/lenovo/Desktop/liteos/Project2/BearPi_LiteOS/components/security/mbedtls/mbedtls-2.6.0/library\rsa.c ****     p = dst;
 585:C:/Users/lenovo/Desktop/liteos/Project2/BearPi_LiteOS/components/security/mbedtls/mbedtls-2.6.0/library\rsa.c **** 
 586:C:/Users/lenovo/Desktop/liteos/Project2/BearPi_LiteOS/components/security/mbedtls/mbedtls-2.6.0/library\rsa.c ****     while( dlen > 0 )
 282              		.loc 1 586 0
 283 0026 12E0     		b	.L14
 284              	.LVL41:
 285              	.L19:
 587:C:/Users/lenovo/Desktop/liteos/Project2/BearPi_LiteOS/components/security/mbedtls/mbedtls-2.6.0/library\rsa.c ****     {
 588:C:/Users/lenovo/Desktop/liteos/Project2/BearPi_LiteOS/components/security/mbedtls/mbedtls-2.6.0/library\rsa.c ****         use_len = hlen;
 589:C:/Users/lenovo/Desktop/liteos/Project2/BearPi_LiteOS/components/security/mbedtls/mbedtls-2.6.0/library\rsa.c ****         if( dlen < hlen )
 590:C:/Users/lenovo/Desktop/liteos/Project2/BearPi_LiteOS/components/security/mbedtls/mbedtls-2.6.0/library\rsa.c ****             use_len = dlen;
 286              		.loc 1 590 0
 287 0028 3546     		mov	r5, r6
 288 002a 14E0     		b	.L15
 289              	.LVL42:
 290              	.L17:
 591:C:/Users/lenovo/Desktop/liteos/Project2/BearPi_LiteOS/components/security/mbedtls/mbedtls-2.6.0/library\rsa.c **** 
 592:C:/Users/lenovo/Desktop/liteos/Project2/BearPi_LiteOS/components/security/mbedtls/mbedtls-2.6.0/library\rsa.c ****         mbedtls_md_starts( md_ctx );
 593:C:/Users/lenovo/Desktop/liteos/Project2/BearPi_LiteOS/components/security/mbedtls/mbedtls-2.6.0/library\rsa.c ****         mbedtls_md_update( md_ctx, src, slen );
 594:C:/Users/lenovo/Desktop/liteos/Project2/BearPi_LiteOS/components/security/mbedtls/mbedtls-2.6.0/library\rsa.c ****         mbedtls_md_update( md_ctx, counter, 4 );
 595:C:/Users/lenovo/Desktop/liteos/Project2/BearPi_LiteOS/components/security/mbedtls/mbedtls-2.6.0/library\rsa.c ****         mbedtls_md_finish( md_ctx, mask );
 596:C:/Users/lenovo/Desktop/liteos/Project2/BearPi_LiteOS/components/security/mbedtls/mbedtls-2.6.0/library\rsa.c **** 
 597:C:/Users/lenovo/Desktop/liteos/Project2/BearPi_LiteOS/components/security/mbedtls/mbedtls-2.6.0/library\rsa.c ****         for( i = 0; i < use_len; ++i )
 598:C:/Users/lenovo/Desktop/liteos/Project2/BearPi_LiteOS/components/security/mbedtls/mbedtls-2.6.0/library\rsa.c ****             *p++ ^= mask[i];
 291              		.loc 1 598 0 discriminator 3
 292 002c 0AAA     		add	r2, sp, #40
 293 002e 1A44     		add	r2, r2, r3
 294 0030 12F8202C 		ldrb	r2, [r2, #-32]	@ zero_extendqisi2
 295 0034 2178     		ldrb	r1, [r4]	@ zero_extendqisi2
 296 0036 4A40     		eors	r2, r2, r1
 297 0038 2270     		strb	r2, [r4]
 597:C:/Users/lenovo/Desktop/liteos/Project2/BearPi_LiteOS/components/security/mbedtls/mbedtls-2.6.0/library\rsa.c ****             *p++ ^= mask[i];
 298              		.loc 1 597 0 discriminator 3
 299 003a 0133     		adds	r3, r3, #1
 300              	.LVL43:
 301              		.loc 1 598 0 discriminator 3
 302 003c 0134     		adds	r4, r4, #1
 303              	.LVL44:
ARM GAS  c:\Users\lenovo\AppData\Local\Temp\ccVehGBj.s 			page 17


 304              	.L16:
 597:C:/Users/lenovo/Desktop/liteos/Project2/BearPi_LiteOS/components/security/mbedtls/mbedtls-2.6.0/library\rsa.c ****             *p++ ^= mask[i];
 305              		.loc 1 597 0 discriminator 1
 306 003e AB42     		cmp	r3, r5
 307 0040 F4D3     		bcc	.L17
 599:C:/Users/lenovo/Desktop/liteos/Project2/BearPi_LiteOS/components/security/mbedtls/mbedtls-2.6.0/library\rsa.c **** 
 600:C:/Users/lenovo/Desktop/liteos/Project2/BearPi_LiteOS/components/security/mbedtls/mbedtls-2.6.0/library\rsa.c ****         counter[3]++;
 308              		.loc 1 600 0
 309 0042 9DF80730 		ldrb	r3, [sp, #7]	@ zero_extendqisi2
 310              	.LVL45:
 311 0046 0133     		adds	r3, r3, #1
 312 0048 8DF80730 		strb	r3, [sp, #7]
 601:C:/Users/lenovo/Desktop/liteos/Project2/BearPi_LiteOS/components/security/mbedtls/mbedtls-2.6.0/library\rsa.c **** 
 602:C:/Users/lenovo/Desktop/liteos/Project2/BearPi_LiteOS/components/security/mbedtls/mbedtls-2.6.0/library\rsa.c ****         dlen -= use_len;
 313              		.loc 1 602 0
 314 004c 761B     		subs	r6, r6, r5
 315              	.LVL46:
 316              	.L14:
 586:C:/Users/lenovo/Desktop/liteos/Project2/BearPi_LiteOS/components/security/mbedtls/mbedtls-2.6.0/library\rsa.c ****     {
 317              		.loc 1 586 0
 318 004e B6B1     		cbz	r6, .L21
 319              	.LVL47:
 589:C:/Users/lenovo/Desktop/liteos/Project2/BearPi_LiteOS/components/security/mbedtls/mbedtls-2.6.0/library\rsa.c ****             use_len = dlen;
 320              		.loc 1 589 0
 321 0050 4645     		cmp	r6, r8
 322 0052 E9D3     		bcc	.L19
 588:C:/Users/lenovo/Desktop/liteos/Project2/BearPi_LiteOS/components/security/mbedtls/mbedtls-2.6.0/library\rsa.c ****         if( dlen < hlen )
 323              		.loc 1 588 0
 324 0054 4546     		mov	r5, r8
 325              	.L15:
 326              	.LVL48:
 592:C:/Users/lenovo/Desktop/liteos/Project2/BearPi_LiteOS/components/security/mbedtls/mbedtls-2.6.0/library\rsa.c ****         mbedtls_md_update( md_ctx, src, slen );
 327              		.loc 1 592 0
 328 0056 3846     		mov	r0, r7
 329 0058 FFF7FEFF 		bl	mbedtls_md_starts
 330              	.LVL49:
 593:C:/Users/lenovo/Desktop/liteos/Project2/BearPi_LiteOS/components/security/mbedtls/mbedtls-2.6.0/library\rsa.c ****         mbedtls_md_update( md_ctx, counter, 4 );
 331              		.loc 1 593 0
 332 005c 4A46     		mov	r2, r9
 333 005e 5146     		mov	r1, r10
 334 0060 3846     		mov	r0, r7
 335 0062 FFF7FEFF 		bl	mbedtls_md_update
 336              	.LVL50:
 594:C:/Users/lenovo/Desktop/liteos/Project2/BearPi_LiteOS/components/security/mbedtls/mbedtls-2.6.0/library\rsa.c ****         mbedtls_md_finish( md_ctx, mask );
 337              		.loc 1 594 0
 338 0066 0422     		movs	r2, #4
 339 0068 0DEB0201 		add	r1, sp, r2
 340 006c 3846     		mov	r0, r7
 341 006e FFF7FEFF 		bl	mbedtls_md_update
 342              	.LVL51:
 595:C:/Users/lenovo/Desktop/liteos/Project2/BearPi_LiteOS/components/security/mbedtls/mbedtls-2.6.0/library\rsa.c **** 
 343              		.loc 1 595 0
 344 0072 02A9     		add	r1, sp, #8
 345 0074 3846     		mov	r0, r7
 346 0076 FFF7FEFF 		bl	mbedtls_md_finish
 347              	.LVL52:
 597:C:/Users/lenovo/Desktop/liteos/Project2/BearPi_LiteOS/components/security/mbedtls/mbedtls-2.6.0/library\rsa.c ****             *p++ ^= mask[i];
ARM GAS  c:\Users\lenovo\AppData\Local\Temp\ccVehGBj.s 			page 18


 348              		.loc 1 597 0
 349 007a 0023     		movs	r3, #0
 350 007c DFE7     		b	.L16
 351              	.LVL53:
 352              	.L21:
 603:C:/Users/lenovo/Desktop/liteos/Project2/BearPi_LiteOS/components/security/mbedtls/mbedtls-2.6.0/library\rsa.c ****     }
 604:C:/Users/lenovo/Desktop/liteos/Project2/BearPi_LiteOS/components/security/mbedtls/mbedtls-2.6.0/library\rsa.c **** 
 605:C:/Users/lenovo/Desktop/liteos/Project2/BearPi_LiteOS/components/security/mbedtls/mbedtls-2.6.0/library\rsa.c ****     mbedtls_zeroize( mask, sizeof( mask ) );
 353              		.loc 1 605 0
 354 007e 2021     		movs	r1, #32
 355 0080 02A8     		add	r0, sp, #8
 356 0082 FFF7FEFF 		bl	mbedtls_zeroize
 357              	.LVL54:
 606:C:/Users/lenovo/Desktop/liteos/Project2/BearPi_LiteOS/components/security/mbedtls/mbedtls-2.6.0/library\rsa.c **** }
 358              		.loc 1 606 0
 359 0086 0AB0     		add	sp, sp, #40
 360              	.LCFI6:
 361              		.cfi_def_cfa_offset 32
 362              		@ sp needed
 363 0088 BDE8F087 		pop	{r4, r5, r6, r7, r8, r9, r10, pc}
 364              		.cfi_endproc
 365              	.LFE21:
 367              		.section	.text.mbedtls_rsa_set_padding,"ax",%progbits
 368              		.align	1
 369              		.global	mbedtls_rsa_set_padding
 370              		.syntax unified
 371              		.thumb
 372              		.thumb_func
 373              		.fpu fpv4-sp-d16
 375              	mbedtls_rsa_set_padding:
 376              	.LFB14:
  94:C:/Users/lenovo/Desktop/liteos/Project2/BearPi_LiteOS/components/security/mbedtls/mbedtls-2.6.0/library\rsa.c ****     ctx->padding = padding;
 377              		.loc 1 94 0
 378              		.cfi_startproc
 379              		@ args = 0, pretend = 0, frame = 0
 380              		@ frame_needed = 0, uses_anonymous_args = 0
 381              		@ link register save eliminated.
 382              	.LVL55:
  95:C:/Users/lenovo/Desktop/liteos/Project2/BearPi_LiteOS/components/security/mbedtls/mbedtls-2.6.0/library\rsa.c ****     ctx->hash_id = hash_id;
 383              		.loc 1 95 0
 384 0000 C0F8A410 		str	r1, [r0, #164]
  96:C:/Users/lenovo/Desktop/liteos/Project2/BearPi_LiteOS/components/security/mbedtls/mbedtls-2.6.0/library\rsa.c **** }
 385              		.loc 1 96 0
 386 0004 C0F8A820 		str	r2, [r0, #168]
  97:C:/Users/lenovo/Desktop/liteos/Project2/BearPi_LiteOS/components/security/mbedtls/mbedtls-2.6.0/library\rsa.c **** 
 387              		.loc 1 97 0
 388 0008 7047     		bx	lr
 389              		.cfi_endproc
 390              	.LFE14:
 392              		.section	.text.mbedtls_rsa_init,"ax",%progbits
 393              		.align	1
 394              		.global	mbedtls_rsa_init
 395              		.syntax unified
 396              		.thumb
 397              		.thumb_func
 398              		.fpu fpv4-sp-d16
 400              	mbedtls_rsa_init:
ARM GAS  c:\Users\lenovo\AppData\Local\Temp\ccVehGBj.s 			page 19


 401              	.LFB13:
  80:C:/Users/lenovo/Desktop/liteos/Project2/BearPi_LiteOS/components/security/mbedtls/mbedtls-2.6.0/library\rsa.c ****     memset( ctx, 0, sizeof( mbedtls_rsa_context ) );
 402              		.loc 1 80 0
 403              		.cfi_startproc
 404              		@ args = 0, pretend = 0, frame = 0
 405              		@ frame_needed = 0, uses_anonymous_args = 0
 406              	.LVL56:
 407 0000 70B5     		push	{r4, r5, r6, lr}
 408              	.LCFI7:
 409              		.cfi_def_cfa_offset 16
 410              		.cfi_offset 4, -16
 411              		.cfi_offset 5, -12
 412              		.cfi_offset 6, -8
 413              		.cfi_offset 14, -4
 414 0002 0446     		mov	r4, r0
 415 0004 0D46     		mov	r5, r1
 416 0006 1646     		mov	r6, r2
  81:C:/Users/lenovo/Desktop/liteos/Project2/BearPi_LiteOS/components/security/mbedtls/mbedtls-2.6.0/library\rsa.c **** 
 417              		.loc 1 81 0
 418 0008 AC22     		movs	r2, #172
 419              	.LVL57:
 420 000a 0021     		movs	r1, #0
 421              	.LVL58:
 422 000c FFF7FEFF 		bl	memset
 423              	.LVL59:
  83:C:/Users/lenovo/Desktop/liteos/Project2/BearPi_LiteOS/components/security/mbedtls/mbedtls-2.6.0/library\rsa.c **** 
 424              		.loc 1 83 0
 425 0010 3246     		mov	r2, r6
 426 0012 2946     		mov	r1, r5
 427 0014 2046     		mov	r0, r4
 428 0016 FFF7FEFF 		bl	mbedtls_rsa_set_padding
 429              	.LVL60:
  88:C:/Users/lenovo/Desktop/liteos/Project2/BearPi_LiteOS/components/security/mbedtls/mbedtls-2.6.0/library\rsa.c **** 
 430              		.loc 1 88 0
 431 001a 70BD     		pop	{r4, r5, r6, pc}
 432              		.cfi_endproc
 433              	.LFE13:
 435              		.section	.text.mbedtls_rsa_check_pubkey,"ax",%progbits
 436              		.align	1
 437              		.global	mbedtls_rsa_check_pubkey
 438              		.syntax unified
 439              		.thumb
 440              		.thumb_func
 441              		.fpu fpv4-sp-d16
 443              	mbedtls_rsa_check_pubkey:
 444              	.LFB15:
 184:C:/Users/lenovo/Desktop/liteos/Project2/BearPi_LiteOS/components/security/mbedtls/mbedtls-2.6.0/library\rsa.c ****     if( !ctx->N.p || !ctx->E.p )
 445              		.loc 1 184 0
 446              		.cfi_startproc
 447              		@ args = 0, pretend = 0, frame = 0
 448              		@ frame_needed = 0, uses_anonymous_args = 0
 449              	.LVL61:
 450 0000 38B5     		push	{r3, r4, r5, lr}
 451              	.LCFI8:
 452              		.cfi_def_cfa_offset 16
 453              		.cfi_offset 3, -16
 454              		.cfi_offset 4, -12
ARM GAS  c:\Users\lenovo\AppData\Local\Temp\ccVehGBj.s 			page 20


 455              		.cfi_offset 5, -8
 456              		.cfi_offset 14, -4
 185:C:/Users/lenovo/Desktop/liteos/Project2/BearPi_LiteOS/components/security/mbedtls/mbedtls-2.6.0/library\rsa.c ****         return( MBEDTLS_ERR_RSA_KEY_CHECK_FAILED );
 457              		.loc 1 185 0
 458 0002 0369     		ldr	r3, [r0, #16]
 459 0004 2BB3     		cbz	r3, .L27
 185:C:/Users/lenovo/Desktop/liteos/Project2/BearPi_LiteOS/components/security/mbedtls/mbedtls-2.6.0/library\rsa.c ****         return( MBEDTLS_ERR_RSA_KEY_CHECK_FAILED );
 460              		.loc 1 185 0 is_stmt 0 discriminator 1
 461 0006 C269     		ldr	r2, [r0, #28]
 462 0008 2AB3     		cbz	r2, .L28
 188:C:/Users/lenovo/Desktop/liteos/Project2/BearPi_LiteOS/components/security/mbedtls/mbedtls-2.6.0/library\rsa.c ****         ( ctx->E.p[0] & 1 ) == 0 )
 463              		.loc 1 188 0 is_stmt 1
 464 000a 1B68     		ldr	r3, [r3]
 465 000c 13F0010F 		tst	r3, #1
 466 0010 23D0     		beq	.L29
 189:C:/Users/lenovo/Desktop/liteos/Project2/BearPi_LiteOS/components/security/mbedtls/mbedtls-2.6.0/library\rsa.c ****         return( MBEDTLS_ERR_RSA_KEY_CHECK_FAILED );
 467              		.loc 1 189 0 discriminator 1
 468 0012 1368     		ldr	r3, [r2]
 188:C:/Users/lenovo/Desktop/liteos/Project2/BearPi_LiteOS/components/security/mbedtls/mbedtls-2.6.0/library\rsa.c ****         ( ctx->E.p[0] & 1 ) == 0 )
 469              		.loc 1 188 0 discriminator 1
 470 0014 13F0010F 		tst	r3, #1
 471 0018 21D0     		beq	.L30
 472 001a 0446     		mov	r4, r0
 192:C:/Users/lenovo/Desktop/liteos/Project2/BearPi_LiteOS/components/security/mbedtls/mbedtls-2.6.0/library\rsa.c ****         mbedtls_mpi_bitlen( &ctx->N ) > MBEDTLS_MPI_MAX_BITS )
 473              		.loc 1 192 0
 474 001c 00F10805 		add	r5, r0, #8
 475 0020 2846     		mov	r0, r5
 476              	.LVL62:
 477 0022 FFF7FEFF 		bl	mbedtls_mpi_bitlen
 478              	.LVL63:
 479 0026 7F28     		cmp	r0, #127
 480 0028 1BD9     		bls	.L31
 193:C:/Users/lenovo/Desktop/liteos/Project2/BearPi_LiteOS/components/security/mbedtls/mbedtls-2.6.0/library\rsa.c ****         return( MBEDTLS_ERR_RSA_KEY_CHECK_FAILED );
 481              		.loc 1 193 0 discriminator 1
 482 002a 2846     		mov	r0, r5
 483 002c FFF7FEFF 		bl	mbedtls_mpi_bitlen
 484              	.LVL64:
 192:C:/Users/lenovo/Desktop/liteos/Project2/BearPi_LiteOS/components/security/mbedtls/mbedtls-2.6.0/library\rsa.c ****         mbedtls_mpi_bitlen( &ctx->N ) > MBEDTLS_MPI_MAX_BITS )
 485              		.loc 1 192 0 discriminator 1
 486 0030 B0F5005F 		cmp	r0, #8192
 487 0034 17D8     		bhi	.L32
 196:C:/Users/lenovo/Desktop/liteos/Project2/BearPi_LiteOS/components/security/mbedtls/mbedtls-2.6.0/library\rsa.c ****         mbedtls_mpi_cmp_mpi( &ctx->E, &ctx->N ) >= 0 )
 488              		.loc 1 196 0
 489 0036 1434     		adds	r4, r4, #20
 490              	.LVL65:
 491 0038 2046     		mov	r0, r4
 492 003a FFF7FEFF 		bl	mbedtls_mpi_bitlen
 493              	.LVL66:
 494 003e 0128     		cmp	r0, #1
 495 0040 13D9     		bls	.L33
 197:C:/Users/lenovo/Desktop/liteos/Project2/BearPi_LiteOS/components/security/mbedtls/mbedtls-2.6.0/library\rsa.c ****         return( MBEDTLS_ERR_RSA_KEY_CHECK_FAILED );
 496              		.loc 1 197 0 discriminator 1
 497 0042 2946     		mov	r1, r5
 498 0044 2046     		mov	r0, r4
 499 0046 FFF7FEFF 		bl	mbedtls_mpi_cmp_mpi
 500              	.LVL67:
 196:C:/Users/lenovo/Desktop/liteos/Project2/BearPi_LiteOS/components/security/mbedtls/mbedtls-2.6.0/library\rsa.c ****         mbedtls_mpi_cmp_mpi( &ctx->E, &ctx->N ) >= 0 )
ARM GAS  c:\Users\lenovo\AppData\Local\Temp\ccVehGBj.s 			page 21


 501              		.loc 1 196 0 discriminator 1
 502 004a 0028     		cmp	r0, #0
 503 004c 0FDA     		bge	.L34
 200:C:/Users/lenovo/Desktop/liteos/Project2/BearPi_LiteOS/components/security/mbedtls/mbedtls-2.6.0/library\rsa.c **** }
 504              		.loc 1 200 0
 505 004e 0020     		movs	r0, #0
 506              	.LVL68:
 507              	.L25:
 201:C:/Users/lenovo/Desktop/liteos/Project2/BearPi_LiteOS/components/security/mbedtls/mbedtls-2.6.0/library\rsa.c **** 
 508              		.loc 1 201 0
 509 0050 38BD     		pop	{r3, r4, r5, pc}
 510              	.LVL69:
 511              	.L27:
 186:C:/Users/lenovo/Desktop/liteos/Project2/BearPi_LiteOS/components/security/mbedtls/mbedtls-2.6.0/library\rsa.c **** 
 512              		.loc 1 186 0
 513 0052 0848     		ldr	r0, .L36
 514              	.LVL70:
 515 0054 FCE7     		b	.L25
 516              	.LVL71:
 517              	.L28:
 518 0056 0748     		ldr	r0, .L36
 519              	.LVL72:
 520 0058 FAE7     		b	.L25
 521              	.LVL73:
 522              	.L29:
 190:C:/Users/lenovo/Desktop/liteos/Project2/BearPi_LiteOS/components/security/mbedtls/mbedtls-2.6.0/library\rsa.c **** 
 523              		.loc 1 190 0
 524 005a 0648     		ldr	r0, .L36
 525              	.LVL74:
 526 005c F8E7     		b	.L25
 527              	.LVL75:
 528              	.L30:
 529 005e 0548     		ldr	r0, .L36
 530              	.LVL76:
 531 0060 F6E7     		b	.L25
 532              	.LVL77:
 533              	.L31:
 194:C:/Users/lenovo/Desktop/liteos/Project2/BearPi_LiteOS/components/security/mbedtls/mbedtls-2.6.0/library\rsa.c **** 
 534              		.loc 1 194 0
 535 0062 0448     		ldr	r0, .L36
 536 0064 F4E7     		b	.L25
 537              	.L32:
 538 0066 0348     		ldr	r0, .L36
 539 0068 F2E7     		b	.L25
 540              	.LVL78:
 541              	.L33:
 198:C:/Users/lenovo/Desktop/liteos/Project2/BearPi_LiteOS/components/security/mbedtls/mbedtls-2.6.0/library\rsa.c **** 
 542              		.loc 1 198 0
 543 006a 0248     		ldr	r0, .L36
 544 006c F0E7     		b	.L25
 545              	.L34:
 546 006e 0148     		ldr	r0, .L36
 547 0070 EEE7     		b	.L25
 548              	.L37:
 549 0072 00BF     		.align	2
 550              	.L36:
 551 0074 00BEFFFF 		.word	-16896
ARM GAS  c:\Users\lenovo\AppData\Local\Temp\ccVehGBj.s 			page 22


 552              		.cfi_endproc
 553              	.LFE15:
 555              		.section	.text.mbedtls_rsa_check_privkey,"ax",%progbits
 556              		.align	1
 557              		.global	mbedtls_rsa_check_privkey
 558              		.syntax unified
 559              		.thumb
 560              		.thumb_func
 561              		.fpu fpv4-sp-d16
 563              	mbedtls_rsa_check_privkey:
 564              	.LFB16:
 207:C:/Users/lenovo/Desktop/liteos/Project2/BearPi_LiteOS/components/security/mbedtls/mbedtls-2.6.0/library\rsa.c ****     int ret;
 565              		.loc 1 207 0
 566              		.cfi_startproc
 567              		@ args = 0, pretend = 0, frame = 160
 568              		@ frame_needed = 0, uses_anonymous_args = 0
 569              	.LVL79:
 570 0000 2DE9F043 		push	{r4, r5, r6, r7, r8, r9, lr}
 571              	.LCFI9:
 572              		.cfi_def_cfa_offset 28
 573              		.cfi_offset 4, -28
 574              		.cfi_offset 5, -24
 575              		.cfi_offset 6, -20
 576              		.cfi_offset 7, -16
 577              		.cfi_offset 8, -12
 578              		.cfi_offset 9, -8
 579              		.cfi_offset 14, -4
 580 0004 A9B0     		sub	sp, sp, #164
 581              	.LCFI10:
 582              		.cfi_def_cfa_offset 192
 583 0006 0546     		mov	r5, r0
 211:C:/Users/lenovo/Desktop/liteos/Project2/BearPi_LiteOS/components/security/mbedtls/mbedtls-2.6.0/library\rsa.c ****         return( ret );
 584              		.loc 1 211 0
 585 0008 FFF7FEFF 		bl	mbedtls_rsa_check_pubkey
 586              	.LVL80:
 587 000c 0446     		mov	r4, r0
 588 000e 0028     		cmp	r0, #0
 589 0010 6AD1     		bne	.L38
 214:C:/Users/lenovo/Desktop/liteos/Project2/BearPi_LiteOS/components/security/mbedtls/mbedtls-2.6.0/library\rsa.c ****         return( MBEDTLS_ERR_RSA_KEY_CHECK_FAILED );
 590              		.loc 1 214 0
 591 0012 6B6B     		ldr	r3, [r5, #52]
 592 0014 002B     		cmp	r3, #0
 593 0016 00F00181 		beq	.L41
 214:C:/Users/lenovo/Desktop/liteos/Project2/BearPi_LiteOS/components/security/mbedtls/mbedtls-2.6.0/library\rsa.c ****         return( MBEDTLS_ERR_RSA_KEY_CHECK_FAILED );
 594              		.loc 1 214 0 is_stmt 0 discriminator 1
 595 001a 2B6C     		ldr	r3, [r5, #64]
 596 001c 002B     		cmp	r3, #0
 597 001e 00F0FF80 		beq	.L42
 214:C:/Users/lenovo/Desktop/liteos/Project2/BearPi_LiteOS/components/security/mbedtls/mbedtls-2.6.0/library\rsa.c ****         return( MBEDTLS_ERR_RSA_KEY_CHECK_FAILED );
 598              		.loc 1 214 0 discriminator 2
 599 0022 AB6A     		ldr	r3, [r5, #40]
 600 0024 002B     		cmp	r3, #0
 601 0026 00F0FD80 		beq	.L43
 217:C:/Users/lenovo/Desktop/liteos/Project2/BearPi_LiteOS/components/security/mbedtls/mbedtls-2.6.0/library\rsa.c ****     mbedtls_mpi_init( &H  ); mbedtls_mpi_init( &I  ); mbedtls_mpi_init( &G  ); mbedtls_mpi_init( &G
 602              		.loc 1 217 0 is_stmt 1
 603 002a 25A8     		add	r0, sp, #148
 604              	.LVL81:
ARM GAS  c:\Users\lenovo\AppData\Local\Temp\ccVehGBj.s 			page 23


 605 002c FFF7FEFF 		bl	mbedtls_mpi_init
 606              	.LVL82:
 607 0030 22A8     		add	r0, sp, #136
 608 0032 FFF7FEFF 		bl	mbedtls_mpi_init
 609              	.LVL83:
 610 0036 1FA8     		add	r0, sp, #124
 611 0038 FFF7FEFF 		bl	mbedtls_mpi_init
 612              	.LVL84:
 613 003c 1CA8     		add	r0, sp, #112
 614 003e FFF7FEFF 		bl	mbedtls_mpi_init
 615              	.LVL85:
 218:C:/Users/lenovo/Desktop/liteos/Project2/BearPi_LiteOS/components/security/mbedtls/mbedtls-2.6.0/library\rsa.c ****     mbedtls_mpi_init( &L1 ); mbedtls_mpi_init( &L2 ); mbedtls_mpi_init( &DP ); mbedtls_mpi_init( &D
 616              		.loc 1 218 0
 617 0042 19A8     		add	r0, sp, #100
 618 0044 FFF7FEFF 		bl	mbedtls_mpi_init
 619              	.LVL86:
 620 0048 16A8     		add	r0, sp, #88
 621 004a FFF7FEFF 		bl	mbedtls_mpi_init
 622              	.LVL87:
 623 004e 13A8     		add	r0, sp, #76
 624 0050 FFF7FEFF 		bl	mbedtls_mpi_init
 625              	.LVL88:
 626 0054 10A8     		add	r0, sp, #64
 627 0056 FFF7FEFF 		bl	mbedtls_mpi_init
 628              	.LVL89:
 219:C:/Users/lenovo/Desktop/liteos/Project2/BearPi_LiteOS/components/security/mbedtls/mbedtls-2.6.0/library\rsa.c ****     mbedtls_mpi_init( &QP );
 629              		.loc 1 219 0
 630 005a 0DA8     		add	r0, sp, #52
 631 005c FFF7FEFF 		bl	mbedtls_mpi_init
 632              	.LVL90:
 633 0060 0AA8     		add	r0, sp, #40
 634 0062 FFF7FEFF 		bl	mbedtls_mpi_init
 635              	.LVL91:
 636 0066 07A8     		add	r0, sp, #28
 637 0068 FFF7FEFF 		bl	mbedtls_mpi_init
 638              	.LVL92:
 639 006c 04A8     		add	r0, sp, #16
 640 006e FFF7FEFF 		bl	mbedtls_mpi_init
 641              	.LVL93:
 220:C:/Users/lenovo/Desktop/liteos/Project2/BearPi_LiteOS/components/security/mbedtls/mbedtls-2.6.0/library\rsa.c **** 
 642              		.loc 1 220 0
 643 0072 01A8     		add	r0, sp, #4
 644 0074 FFF7FEFF 		bl	mbedtls_mpi_init
 645              	.LVL94:
 222:C:/Users/lenovo/Desktop/liteos/Project2/BearPi_LiteOS/components/security/mbedtls/mbedtls-2.6.0/library\rsa.c ****     MBEDTLS_MPI_CHK( mbedtls_mpi_mul_mpi( &DE, &ctx->D, &ctx->E ) );
 646              		.loc 1 222 0
 647 0078 05F12C06 		add	r6, r5, #44
 648 007c 05F13807 		add	r7, r5, #56
 649 0080 3A46     		mov	r2, r7
 650 0082 3146     		mov	r1, r6
 651 0084 25A8     		add	r0, sp, #148
 652 0086 FFF7FEFF 		bl	mbedtls_mpi_mul_mpi
 653              	.LVL95:
 654 008a 0446     		mov	r4, r0
 655 008c 80B3     		cbz	r0, .L52
 656              	.LVL96:
 657              	.L40:
ARM GAS  c:\Users\lenovo\AppData\Local\Temp\ccVehGBj.s 			page 24


 251:C:/Users/lenovo/Desktop/liteos/Project2/BearPi_LiteOS/components/security/mbedtls/mbedtls-2.6.0/library\rsa.c ****     mbedtls_mpi_free( &H  ); mbedtls_mpi_free( &I  ); mbedtls_mpi_free( &G  ); mbedtls_mpi_free( &G
 658              		.loc 1 251 0
 659 008e 25A8     		add	r0, sp, #148
 660 0090 FFF7FEFF 		bl	mbedtls_mpi_free
 661              	.LVL97:
 662 0094 22A8     		add	r0, sp, #136
 663 0096 FFF7FEFF 		bl	mbedtls_mpi_free
 664              	.LVL98:
 665 009a 1FA8     		add	r0, sp, #124
 666 009c FFF7FEFF 		bl	mbedtls_mpi_free
 667              	.LVL99:
 668 00a0 1CA8     		add	r0, sp, #112
 669 00a2 FFF7FEFF 		bl	mbedtls_mpi_free
 670              	.LVL100:
 252:C:/Users/lenovo/Desktop/liteos/Project2/BearPi_LiteOS/components/security/mbedtls/mbedtls-2.6.0/library\rsa.c ****     mbedtls_mpi_free( &L1 ); mbedtls_mpi_free( &L2 ); mbedtls_mpi_free( &DP ); mbedtls_mpi_free( &D
 671              		.loc 1 252 0
 672 00a6 19A8     		add	r0, sp, #100
 673 00a8 FFF7FEFF 		bl	mbedtls_mpi_free
 674              	.LVL101:
 675 00ac 16A8     		add	r0, sp, #88
 676 00ae FFF7FEFF 		bl	mbedtls_mpi_free
 677              	.LVL102:
 678 00b2 13A8     		add	r0, sp, #76
 679 00b4 FFF7FEFF 		bl	mbedtls_mpi_free
 680              	.LVL103:
 681 00b8 10A8     		add	r0, sp, #64
 682 00ba FFF7FEFF 		bl	mbedtls_mpi_free
 683              	.LVL104:
 253:C:/Users/lenovo/Desktop/liteos/Project2/BearPi_LiteOS/components/security/mbedtls/mbedtls-2.6.0/library\rsa.c ****     mbedtls_mpi_free( &QP );
 684              		.loc 1 253 0
 685 00be 0DA8     		add	r0, sp, #52
 686 00c0 FFF7FEFF 		bl	mbedtls_mpi_free
 687              	.LVL105:
 688 00c4 0AA8     		add	r0, sp, #40
 689 00c6 FFF7FEFF 		bl	mbedtls_mpi_free
 690              	.LVL106:
 691 00ca 07A8     		add	r0, sp, #28
 692 00cc FFF7FEFF 		bl	mbedtls_mpi_free
 693              	.LVL107:
 694 00d0 04A8     		add	r0, sp, #16
 695 00d2 FFF7FEFF 		bl	mbedtls_mpi_free
 696              	.LVL108:
 254:C:/Users/lenovo/Desktop/liteos/Project2/BearPi_LiteOS/components/security/mbedtls/mbedtls-2.6.0/library\rsa.c **** 
 697              		.loc 1 254 0
 698 00d6 01A8     		add	r0, sp, #4
 699 00d8 FFF7FEFF 		bl	mbedtls_mpi_free
 700              	.LVL109:
 256:C:/Users/lenovo/Desktop/liteos/Project2/BearPi_LiteOS/components/security/mbedtls/mbedtls-2.6.0/library\rsa.c ****         return( ret );
 701              		.loc 1 256 0
 702 00dc 14F5844F 		cmn	r4, #16896
 703 00e0 02D0     		beq	.L38
 259:C:/Users/lenovo/Desktop/liteos/Project2/BearPi_LiteOS/components/security/mbedtls/mbedtls-2.6.0/library\rsa.c ****         return( MBEDTLS_ERR_RSA_KEY_CHECK_FAILED + ret );
 704              		.loc 1 259 0
 705 00e2 0CB1     		cbz	r4, .L38
 260:C:/Users/lenovo/Desktop/liteos/Project2/BearPi_LiteOS/components/security/mbedtls/mbedtls-2.6.0/library\rsa.c **** 
 706              		.loc 1 260 0
 707 00e4 A4F58444 		sub	r4, r4, #16896
ARM GAS  c:\Users\lenovo\AppData\Local\Temp\ccVehGBj.s 			page 25


 708              	.LVL110:
 709              	.L38:
 263:C:/Users/lenovo/Desktop/liteos/Project2/BearPi_LiteOS/components/security/mbedtls/mbedtls-2.6.0/library\rsa.c **** 
 710              		.loc 1 263 0
 711 00e8 2046     		mov	r0, r4
 712 00ea 29B0     		add	sp, sp, #164
 713              	.LCFI11:
 714              		.cfi_remember_state
 715              		.cfi_def_cfa_offset 28
 716              		@ sp needed
 717 00ec BDE8F083 		pop	{r4, r5, r6, r7, r8, r9, pc}
 718              	.LVL111:
 719              	.L52:
 720              	.LCFI12:
 721              		.cfi_restore_state
 223:C:/Users/lenovo/Desktop/liteos/Project2/BearPi_LiteOS/components/security/mbedtls/mbedtls-2.6.0/library\rsa.c ****     MBEDTLS_MPI_CHK( mbedtls_mpi_sub_int( &P1, &ctx->P, 1 ) );
 722              		.loc 1 223 0
 723 00f0 05F12008 		add	r8, r5, #32
 724 00f4 05F11409 		add	r9, r5, #20
 725 00f8 4A46     		mov	r2, r9
 726 00fa 4146     		mov	r1, r8
 727 00fc 22A8     		add	r0, sp, #136
 728              	.LVL112:
 729 00fe FFF7FEFF 		bl	mbedtls_mpi_mul_mpi
 730              	.LVL113:
 731 0102 0446     		mov	r4, r0
 732 0104 0028     		cmp	r0, #0
 733 0106 C2D1     		bne	.L40
 224:C:/Users/lenovo/Desktop/liteos/Project2/BearPi_LiteOS/components/security/mbedtls/mbedtls-2.6.0/library\rsa.c ****     MBEDTLS_MPI_CHK( mbedtls_mpi_sub_int( &Q1, &ctx->Q, 1 ) );
 734              		.loc 1 224 0
 735 0108 0122     		movs	r2, #1
 736 010a 3146     		mov	r1, r6
 737 010c 1FA8     		add	r0, sp, #124
 738              	.LVL114:
 739 010e FFF7FEFF 		bl	mbedtls_mpi_sub_int
 740              	.LVL115:
 741 0112 0446     		mov	r4, r0
 742 0114 0028     		cmp	r0, #0
 743 0116 BAD1     		bne	.L40
 225:C:/Users/lenovo/Desktop/liteos/Project2/BearPi_LiteOS/components/security/mbedtls/mbedtls-2.6.0/library\rsa.c ****     MBEDTLS_MPI_CHK( mbedtls_mpi_mul_mpi( &H, &P1, &Q1 ) );
 744              		.loc 1 225 0
 745 0118 0122     		movs	r2, #1
 746 011a 3946     		mov	r1, r7
 747 011c 1CA8     		add	r0, sp, #112
 748              	.LVL116:
 749 011e FFF7FEFF 		bl	mbedtls_mpi_sub_int
 750              	.LVL117:
 751 0122 0446     		mov	r4, r0
 752 0124 0028     		cmp	r0, #0
 753 0126 B2D1     		bne	.L40
 226:C:/Users/lenovo/Desktop/liteos/Project2/BearPi_LiteOS/components/security/mbedtls/mbedtls-2.6.0/library\rsa.c ****     MBEDTLS_MPI_CHK( mbedtls_mpi_gcd( &G, &ctx->E, &H  ) );
 754              		.loc 1 226 0
 755 0128 1CAA     		add	r2, sp, #112
 756 012a 1FA9     		add	r1, sp, #124
 757 012c 19A8     		add	r0, sp, #100
 758              	.LVL118:
 759 012e FFF7FEFF 		bl	mbedtls_mpi_mul_mpi
ARM GAS  c:\Users\lenovo\AppData\Local\Temp\ccVehGBj.s 			page 26


 760              	.LVL119:
 761 0132 0446     		mov	r4, r0
 762 0134 0028     		cmp	r0, #0
 763 0136 AAD1     		bne	.L40
 227:C:/Users/lenovo/Desktop/liteos/Project2/BearPi_LiteOS/components/security/mbedtls/mbedtls-2.6.0/library\rsa.c **** 
 764              		.loc 1 227 0
 765 0138 19AA     		add	r2, sp, #100
 766 013a 4946     		mov	r1, r9
 767 013c 13A8     		add	r0, sp, #76
 768              	.LVL120:
 769 013e FFF7FEFF 		bl	mbedtls_mpi_gcd
 770              	.LVL121:
 771 0142 0446     		mov	r4, r0
 772 0144 0028     		cmp	r0, #0
 773 0146 A2D1     		bne	.L40
 229:C:/Users/lenovo/Desktop/liteos/Project2/BearPi_LiteOS/components/security/mbedtls/mbedtls-2.6.0/library\rsa.c ****     MBEDTLS_MPI_CHK( mbedtls_mpi_div_mpi( &L1, &L2, &H, &G2 ) );
 774              		.loc 1 229 0
 775 0148 1CAA     		add	r2, sp, #112
 776 014a 1FA9     		add	r1, sp, #124
 777 014c 10A8     		add	r0, sp, #64
 778              	.LVL122:
 779 014e FFF7FEFF 		bl	mbedtls_mpi_gcd
 780              	.LVL123:
 781 0152 0446     		mov	r4, r0
 782 0154 0028     		cmp	r0, #0
 783 0156 9AD1     		bne	.L40
 230:C:/Users/lenovo/Desktop/liteos/Project2/BearPi_LiteOS/components/security/mbedtls/mbedtls-2.6.0/library\rsa.c ****     MBEDTLS_MPI_CHK( mbedtls_mpi_mod_mpi( &I, &DE, &L1  ) );
 784              		.loc 1 230 0
 785 0158 10AB     		add	r3, sp, #64
 786 015a 19AA     		add	r2, sp, #100
 787 015c 0AA9     		add	r1, sp, #40
 788 015e 0DA8     		add	r0, sp, #52
 789              	.LVL124:
 790 0160 FFF7FEFF 		bl	mbedtls_mpi_div_mpi
 791              	.LVL125:
 792 0164 0446     		mov	r4, r0
 793 0166 0028     		cmp	r0, #0
 794 0168 91D1     		bne	.L40
 231:C:/Users/lenovo/Desktop/liteos/Project2/BearPi_LiteOS/components/security/mbedtls/mbedtls-2.6.0/library\rsa.c **** 
 795              		.loc 1 231 0
 796 016a 0DAA     		add	r2, sp, #52
 797 016c 22A9     		add	r1, sp, #136
 798 016e 16A8     		add	r0, sp, #88
 799              	.LVL126:
 800 0170 FFF7FEFF 		bl	mbedtls_mpi_mod_mpi
 801              	.LVL127:
 802 0174 0446     		mov	r4, r0
 803 0176 0028     		cmp	r0, #0
 804 0178 89D1     		bne	.L40
 233:C:/Users/lenovo/Desktop/liteos/Project2/BearPi_LiteOS/components/security/mbedtls/mbedtls-2.6.0/library\rsa.c ****     MBEDTLS_MPI_CHK( mbedtls_mpi_mod_mpi( &DQ, &ctx->D, &Q1 ) );
 805              		.loc 1 233 0
 806 017a 1FAA     		add	r2, sp, #124
 807 017c 4146     		mov	r1, r8
 808 017e 07A8     		add	r0, sp, #28
 809              	.LVL128:
 810 0180 FFF7FEFF 		bl	mbedtls_mpi_mod_mpi
 811              	.LVL129:
ARM GAS  c:\Users\lenovo\AppData\Local\Temp\ccVehGBj.s 			page 27


 812 0184 0446     		mov	r4, r0
 813 0186 0028     		cmp	r0, #0
 814 0188 81D1     		bne	.L40
 234:C:/Users/lenovo/Desktop/liteos/Project2/BearPi_LiteOS/components/security/mbedtls/mbedtls-2.6.0/library\rsa.c ****     MBEDTLS_MPI_CHK( mbedtls_mpi_inv_mod( &QP, &ctx->Q, &ctx->P ) );
 815              		.loc 1 234 0
 816 018a 1CAA     		add	r2, sp, #112
 817 018c 4146     		mov	r1, r8
 818 018e 04A8     		add	r0, sp, #16
 819              	.LVL130:
 820 0190 FFF7FEFF 		bl	mbedtls_mpi_mod_mpi
 821              	.LVL131:
 822 0194 0446     		mov	r4, r0
 823 0196 0028     		cmp	r0, #0
 824 0198 7FF479AF 		bne	.L40
 235:C:/Users/lenovo/Desktop/liteos/Project2/BearPi_LiteOS/components/security/mbedtls/mbedtls-2.6.0/library\rsa.c ****     /*
 825              		.loc 1 235 0
 826 019c 3246     		mov	r2, r6
 827 019e 3946     		mov	r1, r7
 828 01a0 01A8     		add	r0, sp, #4
 829              	.LVL132:
 830 01a2 FFF7FEFF 		bl	mbedtls_mpi_inv_mod
 831              	.LVL133:
 832 01a6 0446     		mov	r4, r0
 833 01a8 0028     		cmp	r0, #0
 834 01aa 7FF470AF 		bne	.L40
 239:C:/Users/lenovo/Desktop/liteos/Project2/BearPi_LiteOS/components/security/mbedtls/mbedtls-2.6.0/library\rsa.c ****         mbedtls_mpi_cmp_mpi( &DP, &ctx->DP ) != 0 ||
 835              		.loc 1 239 0
 836 01ae 05F10801 		add	r1, r5, #8
 837 01b2 25A8     		add	r0, sp, #148
 838              	.LVL134:
 839 01b4 FFF7FEFF 		bl	mbedtls_mpi_cmp_mpi
 840              	.LVL135:
 841 01b8 20BB     		cbnz	r0, .L44
 240:C:/Users/lenovo/Desktop/liteos/Project2/BearPi_LiteOS/components/security/mbedtls/mbedtls-2.6.0/library\rsa.c ****         mbedtls_mpi_cmp_mpi( &DQ, &ctx->DQ ) != 0 ||
 842              		.loc 1 240 0 discriminator 1
 843 01ba 05F14401 		add	r1, r5, #68
 844 01be 07A8     		add	r0, sp, #28
 845 01c0 FFF7FEFF 		bl	mbedtls_mpi_cmp_mpi
 846              	.LVL136:
 239:C:/Users/lenovo/Desktop/liteos/Project2/BearPi_LiteOS/components/security/mbedtls/mbedtls-2.6.0/library\rsa.c ****         mbedtls_mpi_cmp_mpi( &DP, &ctx->DP ) != 0 ||
 847              		.loc 1 239 0 discriminator 1
 848 01c4 00BB     		cbnz	r0, .L45
 241:C:/Users/lenovo/Desktop/liteos/Project2/BearPi_LiteOS/components/security/mbedtls/mbedtls-2.6.0/library\rsa.c ****         mbedtls_mpi_cmp_mpi( &QP, &ctx->QP ) != 0 ||
 849              		.loc 1 241 0
 850 01c6 05F15001 		add	r1, r5, #80
 851 01ca 04A8     		add	r0, sp, #16
 852 01cc FFF7FEFF 		bl	mbedtls_mpi_cmp_mpi
 853              	.LVL137:
 240:C:/Users/lenovo/Desktop/liteos/Project2/BearPi_LiteOS/components/security/mbedtls/mbedtls-2.6.0/library\rsa.c ****         mbedtls_mpi_cmp_mpi( &DQ, &ctx->DQ ) != 0 ||
 854              		.loc 1 240 0
 855 01d0 E0B9     		cbnz	r0, .L46
 242:C:/Users/lenovo/Desktop/liteos/Project2/BearPi_LiteOS/components/security/mbedtls/mbedtls-2.6.0/library\rsa.c ****         mbedtls_mpi_cmp_int( &L2, 0 ) != 0 ||
 856              		.loc 1 242 0
 857 01d2 05F15C01 		add	r1, r5, #92
 858 01d6 01A8     		add	r0, sp, #4
 859 01d8 FFF7FEFF 		bl	mbedtls_mpi_cmp_mpi
 860              	.LVL138:
ARM GAS  c:\Users\lenovo\AppData\Local\Temp\ccVehGBj.s 			page 28


 241:C:/Users/lenovo/Desktop/liteos/Project2/BearPi_LiteOS/components/security/mbedtls/mbedtls-2.6.0/library\rsa.c ****         mbedtls_mpi_cmp_mpi( &QP, &ctx->QP ) != 0 ||
 861              		.loc 1 241 0
 862 01dc C0B9     		cbnz	r0, .L47
 243:C:/Users/lenovo/Desktop/liteos/Project2/BearPi_LiteOS/components/security/mbedtls/mbedtls-2.6.0/library\rsa.c ****         mbedtls_mpi_cmp_int( &I, 1 ) != 0 ||
 863              		.loc 1 243 0
 864 01de 0021     		movs	r1, #0
 865 01e0 0AA8     		add	r0, sp, #40
 866 01e2 FFF7FEFF 		bl	mbedtls_mpi_cmp_int
 867              	.LVL139:
 242:C:/Users/lenovo/Desktop/liteos/Project2/BearPi_LiteOS/components/security/mbedtls/mbedtls-2.6.0/library\rsa.c ****         mbedtls_mpi_cmp_int( &L2, 0 ) != 0 ||
 868              		.loc 1 242 0
 869 01e6 A8B9     		cbnz	r0, .L48
 244:C:/Users/lenovo/Desktop/liteos/Project2/BearPi_LiteOS/components/security/mbedtls/mbedtls-2.6.0/library\rsa.c ****         mbedtls_mpi_cmp_int( &G, 1 ) != 0 )
 870              		.loc 1 244 0
 871 01e8 0121     		movs	r1, #1
 872 01ea 16A8     		add	r0, sp, #88
 873 01ec FFF7FEFF 		bl	mbedtls_mpi_cmp_int
 874              	.LVL140:
 243:C:/Users/lenovo/Desktop/liteos/Project2/BearPi_LiteOS/components/security/mbedtls/mbedtls-2.6.0/library\rsa.c ****         mbedtls_mpi_cmp_int( &I, 1 ) != 0 ||
 875              		.loc 1 243 0
 876 01f0 90B9     		cbnz	r0, .L49
 245:C:/Users/lenovo/Desktop/liteos/Project2/BearPi_LiteOS/components/security/mbedtls/mbedtls-2.6.0/library\rsa.c ****     {
 877              		.loc 1 245 0
 878 01f2 0121     		movs	r1, #1
 879 01f4 13A8     		add	r0, sp, #76
 880 01f6 FFF7FEFF 		bl	mbedtls_mpi_cmp_int
 881              	.LVL141:
 244:C:/Users/lenovo/Desktop/liteos/Project2/BearPi_LiteOS/components/security/mbedtls/mbedtls-2.6.0/library\rsa.c ****         mbedtls_mpi_cmp_int( &G, 1 ) != 0 )
 882              		.loc 1 244 0
 883 01fa 0028     		cmp	r0, #0
 884 01fc 3FF447AF 		beq	.L40
 247:C:/Users/lenovo/Desktop/liteos/Project2/BearPi_LiteOS/components/security/mbedtls/mbedtls-2.6.0/library\rsa.c ****     }
 885              		.loc 1 247 0
 886 0200 094C     		ldr	r4, .L53
 887              	.LVL142:
 888 0202 44E7     		b	.L40
 889              	.LVL143:
 890              	.L44:
 891 0204 084C     		ldr	r4, .L53
 892              	.LVL144:
 893 0206 42E7     		b	.L40
 894              	.LVL145:
 895              	.L45:
 896 0208 074C     		ldr	r4, .L53
 897              	.LVL146:
 898 020a 40E7     		b	.L40
 899              	.LVL147:
 900              	.L46:
 901 020c 064C     		ldr	r4, .L53
 902              	.LVL148:
 903 020e 3EE7     		b	.L40
 904              	.LVL149:
 905              	.L47:
 906 0210 054C     		ldr	r4, .L53
 907              	.LVL150:
 908 0212 3CE7     		b	.L40
 909              	.LVL151:
ARM GAS  c:\Users\lenovo\AppData\Local\Temp\ccVehGBj.s 			page 29


 910              	.L48:
 911 0214 044C     		ldr	r4, .L53
 912              	.LVL152:
 913 0216 3AE7     		b	.L40
 914              	.LVL153:
 915              	.L49:
 916 0218 034C     		ldr	r4, .L53
 917              	.LVL154:
 918 021a 38E7     		b	.L40
 919              	.LVL155:
 920              	.L41:
 215:C:/Users/lenovo/Desktop/liteos/Project2/BearPi_LiteOS/components/security/mbedtls/mbedtls-2.6.0/library\rsa.c **** 
 921              		.loc 1 215 0
 922 021c 024C     		ldr	r4, .L53
 923 021e 63E7     		b	.L38
 924              	.L42:
 925 0220 014C     		ldr	r4, .L53
 926 0222 61E7     		b	.L38
 927              	.L43:
 928 0224 004C     		ldr	r4, .L53
 929 0226 5FE7     		b	.L38
 930              	.L54:
 931              		.align	2
 932              	.L53:
 933 0228 00BEFFFF 		.word	-16896
 934              		.cfi_endproc
 935              	.LFE16:
 937              		.section	.text.mbedtls_rsa_check_pub_priv,"ax",%progbits
 938              		.align	1
 939              		.global	mbedtls_rsa_check_pub_priv
 940              		.syntax unified
 941              		.thumb
 942              		.thumb_func
 943              		.fpu fpv4-sp-d16
 945              	mbedtls_rsa_check_pub_priv:
 946              	.LFB17:
 269:C:/Users/lenovo/Desktop/liteos/Project2/BearPi_LiteOS/components/security/mbedtls/mbedtls-2.6.0/library\rsa.c ****     if( mbedtls_rsa_check_pubkey( pub ) != 0 ||
 947              		.loc 1 269 0
 948              		.cfi_startproc
 949              		@ args = 0, pretend = 0, frame = 0
 950              		@ frame_needed = 0, uses_anonymous_args = 0
 951              	.LVL156:
 952 0000 38B5     		push	{r3, r4, r5, lr}
 953              	.LCFI13:
 954              		.cfi_def_cfa_offset 16
 955              		.cfi_offset 3, -16
 956              		.cfi_offset 4, -12
 957              		.cfi_offset 5, -8
 958              		.cfi_offset 14, -4
 959 0002 0546     		mov	r5, r0
 960 0004 0C46     		mov	r4, r1
 270:C:/Users/lenovo/Desktop/liteos/Project2/BearPi_LiteOS/components/security/mbedtls/mbedtls-2.6.0/library\rsa.c ****         mbedtls_rsa_check_privkey( prv ) != 0 )
 961              		.loc 1 270 0
 962 0006 FFF7FEFF 		bl	mbedtls_rsa_check_pubkey
 963              	.LVL157:
 964 000a A0B9     		cbnz	r0, .L57
 271:C:/Users/lenovo/Desktop/liteos/Project2/BearPi_LiteOS/components/security/mbedtls/mbedtls-2.6.0/library\rsa.c ****     {
ARM GAS  c:\Users\lenovo\AppData\Local\Temp\ccVehGBj.s 			page 30


 965              		.loc 1 271 0 discriminator 1
 966 000c 2046     		mov	r0, r4
 967 000e FFF7FEFF 		bl	mbedtls_rsa_check_privkey
 968              	.LVL158:
 270:C:/Users/lenovo/Desktop/liteos/Project2/BearPi_LiteOS/components/security/mbedtls/mbedtls-2.6.0/library\rsa.c ****         mbedtls_rsa_check_privkey( prv ) != 0 )
 969              		.loc 1 270 0 discriminator 1
 970 0012 90B9     		cbnz	r0, .L58
 276:C:/Users/lenovo/Desktop/liteos/Project2/BearPi_LiteOS/components/security/mbedtls/mbedtls-2.6.0/library\rsa.c ****         mbedtls_mpi_cmp_mpi( &pub->E, &prv->E ) != 0 )
 971              		.loc 1 276 0
 972 0014 04F10801 		add	r1, r4, #8
 973 0018 05F10800 		add	r0, r5, #8
 974 001c FFF7FEFF 		bl	mbedtls_mpi_cmp_mpi
 975              	.LVL159:
 976 0020 68B9     		cbnz	r0, .L59
 277:C:/Users/lenovo/Desktop/liteos/Project2/BearPi_LiteOS/components/security/mbedtls/mbedtls-2.6.0/library\rsa.c ****     {
 977              		.loc 1 277 0 discriminator 1
 978 0022 04F11401 		add	r1, r4, #20
 979 0026 05F11400 		add	r0, r5, #20
 980 002a FFF7FEFF 		bl	mbedtls_mpi_cmp_mpi
 981              	.LVL160:
 276:C:/Users/lenovo/Desktop/liteos/Project2/BearPi_LiteOS/components/security/mbedtls/mbedtls-2.6.0/library\rsa.c ****         mbedtls_mpi_cmp_mpi( &pub->E, &prv->E ) != 0 )
 982              		.loc 1 276 0 discriminator 1
 983 002e 0346     		mov	r3, r0
 984 0030 38B9     		cbnz	r0, .L62
 985              	.L55:
 283:C:/Users/lenovo/Desktop/liteos/Project2/BearPi_LiteOS/components/security/mbedtls/mbedtls-2.6.0/library\rsa.c **** 
 986              		.loc 1 283 0
 987 0032 1846     		mov	r0, r3
 988 0034 38BD     		pop	{r3, r4, r5, pc}
 989              	.LVL161:
 990              	.L57:
 273:C:/Users/lenovo/Desktop/liteos/Project2/BearPi_LiteOS/components/security/mbedtls/mbedtls-2.6.0/library\rsa.c ****     }
 991              		.loc 1 273 0
 992 0036 044B     		ldr	r3, .L63
 993 0038 FBE7     		b	.L55
 994              	.L58:
 995 003a 034B     		ldr	r3, .L63
 996 003c F9E7     		b	.L55
 997              	.L59:
 279:C:/Users/lenovo/Desktop/liteos/Project2/BearPi_LiteOS/components/security/mbedtls/mbedtls-2.6.0/library\rsa.c ****     }
 998              		.loc 1 279 0
 999 003e 024B     		ldr	r3, .L63
 1000 0040 F7E7     		b	.L55
 1001              	.L62:
 1002 0042 014B     		ldr	r3, .L63
 1003 0044 F5E7     		b	.L55
 1004              	.L64:
 1005 0046 00BF     		.align	2
 1006              	.L63:
 1007 0048 00BEFFFF 		.word	-16896
 1008              		.cfi_endproc
 1009              	.LFE17:
 1011              		.section	.text.mbedtls_rsa_public,"ax",%progbits
 1012              		.align	1
 1013              		.global	mbedtls_rsa_public
 1014              		.syntax unified
 1015              		.thumb
ARM GAS  c:\Users\lenovo\AppData\Local\Temp\ccVehGBj.s 			page 31


 1016              		.thumb_func
 1017              		.fpu fpv4-sp-d16
 1019              	mbedtls_rsa_public:
 1020              	.LFB18:
 291:C:/Users/lenovo/Desktop/liteos/Project2/BearPi_LiteOS/components/security/mbedtls/mbedtls-2.6.0/library\rsa.c ****     int ret;
 1021              		.loc 1 291 0
 1022              		.cfi_startproc
 1023              		@ args = 0, pretend = 0, frame = 16
 1024              		@ frame_needed = 0, uses_anonymous_args = 0
 1025              	.LVL162:
 1026 0000 F0B5     		push	{r4, r5, r6, r7, lr}
 1027              	.LCFI14:
 1028              		.cfi_def_cfa_offset 20
 1029              		.cfi_offset 4, -20
 1030              		.cfi_offset 5, -16
 1031              		.cfi_offset 6, -12
 1032              		.cfi_offset 7, -8
 1033              		.cfi_offset 14, -4
 1034 0002 87B0     		sub	sp, sp, #28
 1035              	.LCFI15:
 1036              		.cfi_def_cfa_offset 48
 1037 0004 0546     		mov	r5, r0
 1038 0006 0C46     		mov	r4, r1
 1039 0008 1646     		mov	r6, r2
 296:C:/Users/lenovo/Desktop/liteos/Project2/BearPi_LiteOS/components/security/mbedtls/mbedtls-2.6.0/library\rsa.c **** 
 1040              		.loc 1 296 0
 1041 000a 03A8     		add	r0, sp, #12
 1042              	.LVL163:
 1043 000c FFF7FEFF 		bl	mbedtls_mpi_init
 1044              	.LVL164:
 303:C:/Users/lenovo/Desktop/liteos/Project2/BearPi_LiteOS/components/security/mbedtls/mbedtls-2.6.0/library\rsa.c **** 
 1045              		.loc 1 303 0
 1046 0010 6A68     		ldr	r2, [r5, #4]
 1047 0012 2146     		mov	r1, r4
 1048 0014 03A8     		add	r0, sp, #12
 1049 0016 FFF7FEFF 		bl	mbedtls_mpi_read_binary
 1050              	.LVL165:
 1051 001a 0446     		mov	r4, r0
 1052              	.LVL166:
 1053 001c 40B1     		cbz	r0, .L70
 1054              	.LVL167:
 1055              	.L66:
 321:C:/Users/lenovo/Desktop/liteos/Project2/BearPi_LiteOS/components/security/mbedtls/mbedtls-2.6.0/library\rsa.c **** 
 1056              		.loc 1 321 0
 1057 001e 03A8     		add	r0, sp, #12
 1058 0020 FFF7FEFF 		bl	mbedtls_mpi_free
 1059              	.LVL168:
 323:C:/Users/lenovo/Desktop/liteos/Project2/BearPi_LiteOS/components/security/mbedtls/mbedtls-2.6.0/library\rsa.c ****         return( MBEDTLS_ERR_RSA_PUBLIC_FAILED + ret );
 1060              		.loc 1 323 0
 1061 0024 0CB1     		cbz	r4, .L65
 324:C:/Users/lenovo/Desktop/liteos/Project2/BearPi_LiteOS/components/security/mbedtls/mbedtls-2.6.0/library\rsa.c **** 
 1062              		.loc 1 324 0
 1063 0026 A4F58544 		sub	r4, r4, #17024
 1064              	.LVL169:
 1065              	.L65:
 327:C:/Users/lenovo/Desktop/liteos/Project2/BearPi_LiteOS/components/security/mbedtls/mbedtls-2.6.0/library\rsa.c **** 
 1066              		.loc 1 327 0
ARM GAS  c:\Users\lenovo\AppData\Local\Temp\ccVehGBj.s 			page 32


 1067 002a 2046     		mov	r0, r4
 1068 002c 07B0     		add	sp, sp, #28
 1069              	.LCFI16:
 1070              		.cfi_remember_state
 1071              		.cfi_def_cfa_offset 20
 1072              		@ sp needed
 1073 002e F0BD     		pop	{r4, r5, r6, r7, pc}
 1074              	.LVL170:
 1075              	.L70:
 1076              	.LCFI17:
 1077              		.cfi_restore_state
 305:C:/Users/lenovo/Desktop/liteos/Project2/BearPi_LiteOS/components/security/mbedtls/mbedtls-2.6.0/library\rsa.c ****     {
 1078              		.loc 1 305 0
 1079 0030 05F10804 		add	r4, r5, #8
 1080 0034 2146     		mov	r1, r4
 1081 0036 03A8     		add	r0, sp, #12
 1082              	.LVL171:
 1083 0038 FFF7FEFF 		bl	mbedtls_mpi_cmp_mpi
 1084              	.LVL172:
 1085 003c 0028     		cmp	r0, #0
 1086 003e 02DB     		blt	.L71
 307:C:/Users/lenovo/Desktop/liteos/Project2/BearPi_LiteOS/components/security/mbedtls/mbedtls-2.6.0/library\rsa.c ****         goto cleanup;
 1087              		.loc 1 307 0
 1088 0040 6FF00304 		mvn	r4, #3
 1089 0044 EBE7     		b	.L66
 1090              	.L71:
 311:C:/Users/lenovo/Desktop/liteos/Project2/BearPi_LiteOS/components/security/mbedtls/mbedtls-2.6.0/library\rsa.c ****     MBEDTLS_MPI_CHK( mbedtls_mpi_exp_mod( &T, &T, &ctx->E, &ctx->N, &ctx->RN ) );
 1091              		.loc 1 311 0
 1092 0046 6F68     		ldr	r7, [r5, #4]
 1093              	.LVL173:
 312:C:/Users/lenovo/Desktop/liteos/Project2/BearPi_LiteOS/components/security/mbedtls/mbedtls-2.6.0/library\rsa.c ****     MBEDTLS_MPI_CHK( mbedtls_mpi_write_binary( &T, output, olen ) );
 1094              		.loc 1 312 0
 1095 0048 05F16803 		add	r3, r5, #104
 1096 004c 0093     		str	r3, [sp]
 1097 004e 2346     		mov	r3, r4
 1098 0050 05F11402 		add	r2, r5, #20
 1099 0054 03A9     		add	r1, sp, #12
 1100 0056 0846     		mov	r0, r1
 1101 0058 FFF7FEFF 		bl	mbedtls_mpi_exp_mod
 1102              	.LVL174:
 1103 005c 0446     		mov	r4, r0
 1104 005e 0028     		cmp	r0, #0
 1105 0060 DDD1     		bne	.L66
 313:C:/Users/lenovo/Desktop/liteos/Project2/BearPi_LiteOS/components/security/mbedtls/mbedtls-2.6.0/library\rsa.c **** 
 1106              		.loc 1 313 0
 1107 0062 3A46     		mov	r2, r7
 1108 0064 3146     		mov	r1, r6
 1109 0066 03A8     		add	r0, sp, #12
 1110              	.LVL175:
 1111 0068 FFF7FEFF 		bl	mbedtls_mpi_write_binary
 1112              	.LVL176:
 1113 006c 0446     		mov	r4, r0
 1114              	.LVL177:
 315:C:/Users/lenovo/Desktop/liteos/Project2/BearPi_LiteOS/components/security/mbedtls/mbedtls-2.6.0/library\rsa.c **** #if defined(MBEDTLS_THREADING_C)
 1115              		.loc 1 315 0
 1116 006e D6E7     		b	.L66
 1117              		.cfi_endproc
ARM GAS  c:\Users\lenovo\AppData\Local\Temp\ccVehGBj.s 			page 33


 1118              	.LFE18:
 1120              		.section	.text.mbedtls_rsa_private,"ax",%progbits
 1121              		.align	1
 1122              		.global	mbedtls_rsa_private
 1123              		.syntax unified
 1124              		.thumb
 1125              		.thumb_func
 1126              		.fpu fpv4-sp-d16
 1128              	mbedtls_rsa_private:
 1129              	.LFB20:
 398:C:/Users/lenovo/Desktop/liteos/Project2/BearPi_LiteOS/components/security/mbedtls/mbedtls-2.6.0/library\rsa.c ****     int ret;
 1130              		.loc 1 398 0
 1131              		.cfi_startproc
 1132              		@ args = 4, pretend = 0, frame = 96
 1133              		@ frame_needed = 0, uses_anonymous_args = 0
 1134              	.LVL178:
 1135 0000 2DE9F047 		push	{r4, r5, r6, r7, r8, r9, r10, lr}
 1136              	.LCFI18:
 1137              		.cfi_def_cfa_offset 32
 1138              		.cfi_offset 4, -32
 1139              		.cfi_offset 5, -28
 1140              		.cfi_offset 6, -24
 1141              		.cfi_offset 7, -20
 1142              		.cfi_offset 8, -16
 1143              		.cfi_offset 9, -12
 1144              		.cfi_offset 10, -8
 1145              		.cfi_offset 14, -4
 1146 0004 9AB0     		sub	sp, sp, #104
 1147              	.LCFI19:
 1148              		.cfi_def_cfa_offset 136
 1149              	.LVL179:
 413:C:/Users/lenovo/Desktop/liteos/Project2/BearPi_LiteOS/components/security/mbedtls/mbedtls-2.6.0/library\rsa.c ****         return( MBEDTLS_ERR_RSA_BAD_INPUT_DATA );
 1150              		.loc 1 413 0
 1151 0006 456B     		ldr	r5, [r0, #52]
 1152 0008 002D     		cmp	r5, #0
 1153 000a 00F02681 		beq	.L79
 1154 000e 00F14407 		add	r7, r0, #68
 1155              	.LVL180:
 1156 0012 00F15008 		add	r8, r0, #80
 1157              	.LVL181:
 413:C:/Users/lenovo/Desktop/liteos/Project2/BearPi_LiteOS/components/security/mbedtls/mbedtls-2.6.0/library\rsa.c ****         return( MBEDTLS_ERR_RSA_BAD_INPUT_DATA );
 1158              		.loc 1 413 0 is_stmt 0 discriminator 1
 1159 0016 056C     		ldr	r5, [r0, #64]
 1160 0018 002D     		cmp	r5, #0
 1161 001a 00F02081 		beq	.L80
 413:C:/Users/lenovo/Desktop/liteos/Project2/BearPi_LiteOS/components/security/mbedtls/mbedtls-2.6.0/library\rsa.c ****         return( MBEDTLS_ERR_RSA_BAD_INPUT_DATA );
 1162              		.loc 1 413 0 discriminator 2
 1163 001e 846A     		ldr	r4, [r0, #40]
 1164 0020 002C     		cmp	r4, #0
 1165 0022 00F01E81 		beq	.L81
 1166 0026 1D46     		mov	r5, r3
 1167 0028 9146     		mov	r9, r2
 1168 002a 0C46     		mov	r4, r1
 1169 002c 0646     		mov	r6, r0
 416:C:/Users/lenovo/Desktop/liteos/Project2/BearPi_LiteOS/components/security/mbedtls/mbedtls-2.6.0/library\rsa.c ****     mbedtls_mpi_init( &P1 ); mbedtls_mpi_init( &Q1 ); mbedtls_mpi_init( &R );
 1170              		.loc 1 416 0 is_stmt 1
 1171 002e 17A8     		add	r0, sp, #92
ARM GAS  c:\Users\lenovo\AppData\Local\Temp\ccVehGBj.s 			page 34


 1172              	.LVL182:
 1173 0030 FFF7FEFF 		bl	mbedtls_mpi_init
 1174              	.LVL183:
 1175 0034 14A8     		add	r0, sp, #80
 1176 0036 FFF7FEFF 		bl	mbedtls_mpi_init
 1177              	.LVL184:
 1178 003a 11A8     		add	r0, sp, #68
 1179 003c FFF7FEFF 		bl	mbedtls_mpi_init
 1180              	.LVL185:
 417:C:/Users/lenovo/Desktop/liteos/Project2/BearPi_LiteOS/components/security/mbedtls/mbedtls-2.6.0/library\rsa.c **** 
 1181              		.loc 1 417 0
 1182 0040 0EA8     		add	r0, sp, #56
 1183 0042 FFF7FEFF 		bl	mbedtls_mpi_init
 1184              	.LVL186:
 1185 0046 0BA8     		add	r0, sp, #44
 1186 0048 FFF7FEFF 		bl	mbedtls_mpi_init
 1187              	.LVL187:
 1188 004c 08A8     		add	r0, sp, #32
 1189 004e FFF7FEFF 		bl	mbedtls_mpi_init
 1190              	.LVL188:
 420:C:/Users/lenovo/Desktop/liteos/Project2/BearPi_LiteOS/components/security/mbedtls/mbedtls-2.6.0/library\rsa.c ****     {
 1191              		.loc 1 420 0
 1192 0052 2CB1     		cbz	r4, .L74
 425:C:/Users/lenovo/Desktop/liteos/Project2/BearPi_LiteOS/components/security/mbedtls/mbedtls-2.6.0/library\rsa.c ****         mbedtls_mpi_init( &DQ_blind );
 1193              		.loc 1 425 0
 1194 0054 05A8     		add	r0, sp, #20
 1195 0056 FFF7FEFF 		bl	mbedtls_mpi_init
 1196              	.LVL189:
 426:C:/Users/lenovo/Desktop/liteos/Project2/BearPi_LiteOS/components/security/mbedtls/mbedtls-2.6.0/library\rsa.c **** #endif
 1197              		.loc 1 426 0
 1198 005a 02A8     		add	r0, sp, #8
 1199 005c FFF7FEFF 		bl	mbedtls_mpi_init
 1200              	.LVL190:
 1201              	.L74:
 436:C:/Users/lenovo/Desktop/liteos/Project2/BearPi_LiteOS/components/security/mbedtls/mbedtls-2.6.0/library\rsa.c ****     if( mbedtls_mpi_cmp_mpi( &T, &ctx->N ) >= 0 )
 1202              		.loc 1 436 0
 1203 0060 7268     		ldr	r2, [r6, #4]
 1204 0062 2946     		mov	r1, r5
 1205 0064 17A8     		add	r0, sp, #92
 1206 0066 FFF7FEFF 		bl	mbedtls_mpi_read_binary
 1207              	.LVL191:
 1208 006a 0546     		mov	r5, r0
 1209              	.LVL192:
 1210 006c F8B1     		cbz	r0, .L84
 1211              	.LVL193:
 1212              	.L75:
 540:C:/Users/lenovo/Desktop/liteos/Project2/BearPi_LiteOS/components/security/mbedtls/mbedtls-2.6.0/library\rsa.c ****     mbedtls_mpi_free( &P1 ); mbedtls_mpi_free( &Q1 ); mbedtls_mpi_free( &R );
 1213              		.loc 1 540 0
 1214 006e 17A8     		add	r0, sp, #92
 1215 0070 FFF7FEFF 		bl	mbedtls_mpi_free
 1216              	.LVL194:
 1217 0074 14A8     		add	r0, sp, #80
 1218 0076 FFF7FEFF 		bl	mbedtls_mpi_free
 1219              	.LVL195:
 1220 007a 11A8     		add	r0, sp, #68
 1221 007c FFF7FEFF 		bl	mbedtls_mpi_free
 1222              	.LVL196:
ARM GAS  c:\Users\lenovo\AppData\Local\Temp\ccVehGBj.s 			page 35


 541:C:/Users/lenovo/Desktop/liteos/Project2/BearPi_LiteOS/components/security/mbedtls/mbedtls-2.6.0/library\rsa.c **** 
 1223              		.loc 1 541 0
 1224 0080 0EA8     		add	r0, sp, #56
 1225 0082 FFF7FEFF 		bl	mbedtls_mpi_free
 1226              	.LVL197:
 1227 0086 0BA8     		add	r0, sp, #44
 1228 0088 FFF7FEFF 		bl	mbedtls_mpi_free
 1229              	.LVL198:
 1230 008c 08A8     		add	r0, sp, #32
 1231 008e FFF7FEFF 		bl	mbedtls_mpi_free
 1232              	.LVL199:
 543:C:/Users/lenovo/Desktop/liteos/Project2/BearPi_LiteOS/components/security/mbedtls/mbedtls-2.6.0/library\rsa.c ****     {
 1233              		.loc 1 543 0
 1234 0092 2CB1     		cbz	r4, .L78
 548:C:/Users/lenovo/Desktop/liteos/Project2/BearPi_LiteOS/components/security/mbedtls/mbedtls-2.6.0/library\rsa.c ****         mbedtls_mpi_free( &DQ_blind );
 1235              		.loc 1 548 0
 1236 0094 05A8     		add	r0, sp, #20
 1237 0096 FFF7FEFF 		bl	mbedtls_mpi_free
 1238              	.LVL200:
 549:C:/Users/lenovo/Desktop/liteos/Project2/BearPi_LiteOS/components/security/mbedtls/mbedtls-2.6.0/library\rsa.c **** #endif
 1239              		.loc 1 549 0
 1240 009a 02A8     		add	r0, sp, #8
 1241 009c FFF7FEFF 		bl	mbedtls_mpi_free
 1242              	.LVL201:
 1243              	.L78:
 553:C:/Users/lenovo/Desktop/liteos/Project2/BearPi_LiteOS/components/security/mbedtls/mbedtls-2.6.0/library\rsa.c ****         return( MBEDTLS_ERR_RSA_PRIVATE_FAILED + ret );
 1244              		.loc 1 553 0
 1245 00a0 0DB1     		cbz	r5, .L72
 554:C:/Users/lenovo/Desktop/liteos/Project2/BearPi_LiteOS/components/security/mbedtls/mbedtls-2.6.0/library\rsa.c **** 
 1246              		.loc 1 554 0
 1247 00a2 A5F58645 		sub	r5, r5, #17152
 1248              	.LVL202:
 1249              	.L72:
 557:C:/Users/lenovo/Desktop/liteos/Project2/BearPi_LiteOS/components/security/mbedtls/mbedtls-2.6.0/library\rsa.c **** 
 1250              		.loc 1 557 0
 1251 00a6 2846     		mov	r0, r5
 1252 00a8 1AB0     		add	sp, sp, #104
 1253              	.LCFI20:
 1254              		.cfi_remember_state
 1255              		.cfi_def_cfa_offset 32
 1256              		@ sp needed
 1257 00aa BDE8F087 		pop	{r4, r5, r6, r7, r8, r9, r10, pc}
 1258              	.LVL203:
 1259              	.L84:
 1260              	.LCFI21:
 1261              		.cfi_restore_state
 437:C:/Users/lenovo/Desktop/liteos/Project2/BearPi_LiteOS/components/security/mbedtls/mbedtls-2.6.0/library\rsa.c ****     {
 1262              		.loc 1 437 0
 1263 00ae 06F1080A 		add	r10, r6, #8
 1264 00b2 5146     		mov	r1, r10
 1265 00b4 17A8     		add	r0, sp, #92
 1266              	.LVL204:
 1267 00b6 FFF7FEFF 		bl	mbedtls_mpi_cmp_mpi
 1268              	.LVL205:
 1269 00ba 0028     		cmp	r0, #0
 1270 00bc 02DB     		blt	.L85
 439:C:/Users/lenovo/Desktop/liteos/Project2/BearPi_LiteOS/components/security/mbedtls/mbedtls-2.6.0/library\rsa.c ****         goto cleanup;
ARM GAS  c:\Users\lenovo\AppData\Local\Temp\ccVehGBj.s 			page 36


 1271              		.loc 1 439 0
 1272 00be 6FF00305 		mvn	r5, #3
 1273              	.LVL206:
 1274 00c2 D4E7     		b	.L75
 1275              	.LVL207:
 1276              	.L85:
 443:C:/Users/lenovo/Desktop/liteos/Project2/BearPi_LiteOS/components/security/mbedtls/mbedtls-2.6.0/library\rsa.c ****     {
 1277              		.loc 1 443 0
 1278 00c4 002C     		cmp	r4, #0
 1279 00c6 61D0     		beq	.L76
 449:C:/Users/lenovo/Desktop/liteos/Project2/BearPi_LiteOS/components/security/mbedtls/mbedtls-2.6.0/library\rsa.c ****         MBEDTLS_MPI_CHK( mbedtls_mpi_mul_mpi( &T, &T, &ctx->Vi ) );
 1280              		.loc 1 449 0
 1281 00c8 4A46     		mov	r2, r9
 1282 00ca 2146     		mov	r1, r4
 1283 00cc 3046     		mov	r0, r6
 1284 00ce FFF7FEFF 		bl	rsa_prepare_blinding
 1285              	.LVL208:
 1286 00d2 0546     		mov	r5, r0
 1287 00d4 0028     		cmp	r0, #0
 1288 00d6 CAD1     		bne	.L75
 450:C:/Users/lenovo/Desktop/liteos/Project2/BearPi_LiteOS/components/security/mbedtls/mbedtls-2.6.0/library\rsa.c ****         MBEDTLS_MPI_CHK( mbedtls_mpi_mod_mpi( &T, &T, &ctx->N ) );
 1289              		.loc 1 450 0
 1290 00d8 06F18C02 		add	r2, r6, #140
 1291 00dc 17A9     		add	r1, sp, #92
 1292 00de 0846     		mov	r0, r1
 1293              	.LVL209:
 1294 00e0 FFF7FEFF 		bl	mbedtls_mpi_mul_mpi
 1295              	.LVL210:
 1296 00e4 0546     		mov	r5, r0
 1297 00e6 0028     		cmp	r0, #0
 1298 00e8 C1D1     		bne	.L75
 451:C:/Users/lenovo/Desktop/liteos/Project2/BearPi_LiteOS/components/security/mbedtls/mbedtls-2.6.0/library\rsa.c **** 
 1299              		.loc 1 451 0
 1300 00ea 5246     		mov	r2, r10
 1301 00ec 17A9     		add	r1, sp, #92
 1302 00ee 0846     		mov	r0, r1
 1303              	.LVL211:
 1304 00f0 FFF7FEFF 		bl	mbedtls_mpi_mod_mpi
 1305              	.LVL212:
 1306 00f4 0546     		mov	r5, r0
 1307 00f6 0028     		cmp	r0, #0
 1308 00f8 B9D1     		bne	.L75
 456:C:/Users/lenovo/Desktop/liteos/Project2/BearPi_LiteOS/components/security/mbedtls/mbedtls-2.6.0/library\rsa.c ****         MBEDTLS_MPI_CHK( mbedtls_mpi_sub_int( &Q1, &ctx->Q, 1 ) );
 1309              		.loc 1 456 0
 1310 00fa 0122     		movs	r2, #1
 1311 00fc 06F12C01 		add	r1, r6, #44
 1312 0100 0EA8     		add	r0, sp, #56
 1313              	.LVL213:
 1314 0102 FFF7FEFF 		bl	mbedtls_mpi_sub_int
 1315              	.LVL214:
 1316 0106 0546     		mov	r5, r0
 1317 0108 0028     		cmp	r0, #0
 1318 010a B0D1     		bne	.L75
 457:C:/Users/lenovo/Desktop/liteos/Project2/BearPi_LiteOS/components/security/mbedtls/mbedtls-2.6.0/library\rsa.c **** 
 1319              		.loc 1 457 0
 1320 010c 0122     		movs	r2, #1
 1321 010e 06F13801 		add	r1, r6, #56
ARM GAS  c:\Users\lenovo\AppData\Local\Temp\ccVehGBj.s 			page 37


 1322 0112 0BA8     		add	r0, sp, #44
 1323              	.LVL215:
 1324 0114 FFF7FEFF 		bl	mbedtls_mpi_sub_int
 1325              	.LVL216:
 1326 0118 0546     		mov	r5, r0
 1327 011a 0028     		cmp	r0, #0
 1328 011c A7D1     		bne	.L75
 474:C:/Users/lenovo/Desktop/liteos/Project2/BearPi_LiteOS/components/security/mbedtls/mbedtls-2.6.0/library\rsa.c ****                          f_rng, p_rng ) );
 1329              		.loc 1 474 0
 1330 011e 4B46     		mov	r3, r9
 1331 0120 2246     		mov	r2, r4
 1332 0122 1C21     		movs	r1, #28
 1333 0124 08A8     		add	r0, sp, #32
 1334              	.LVL217:
 1335 0126 FFF7FEFF 		bl	mbedtls_mpi_fill_random
 1336              	.LVL218:
 1337 012a 0546     		mov	r5, r0
 1338 012c 0028     		cmp	r0, #0
 1339 012e 9ED1     		bne	.L75
 476:C:/Users/lenovo/Desktop/liteos/Project2/BearPi_LiteOS/components/security/mbedtls/mbedtls-2.6.0/library\rsa.c ****         MBEDTLS_MPI_CHK( mbedtls_mpi_add_mpi( &DP_blind, &DP_blind,
 1340              		.loc 1 476 0
 1341 0130 08AA     		add	r2, sp, #32
 1342 0132 0EA9     		add	r1, sp, #56
 1343 0134 05A8     		add	r0, sp, #20
 1344              	.LVL219:
 1345 0136 FFF7FEFF 		bl	mbedtls_mpi_mul_mpi
 1346              	.LVL220:
 1347 013a 0546     		mov	r5, r0
 1348 013c 0028     		cmp	r0, #0
 1349 013e 96D1     		bne	.L75
 477:C:/Users/lenovo/Desktop/liteos/Project2/BearPi_LiteOS/components/security/mbedtls/mbedtls-2.6.0/library\rsa.c ****                     &ctx->DP ) );
 1350              		.loc 1 477 0
 1351 0140 3A46     		mov	r2, r7
 1352 0142 05A9     		add	r1, sp, #20
 1353 0144 0846     		mov	r0, r1
 1354              	.LVL221:
 1355 0146 FFF7FEFF 		bl	mbedtls_mpi_add_mpi
 1356              	.LVL222:
 1357 014a 0546     		mov	r5, r0
 1358 014c 0028     		cmp	r0, #0
 1359 014e 8ED1     		bne	.L75
 1360              	.LVL223:
 485:C:/Users/lenovo/Desktop/liteos/Project2/BearPi_LiteOS/components/security/mbedtls/mbedtls-2.6.0/library\rsa.c ****                          f_rng, p_rng ) );
 1361              		.loc 1 485 0
 1362 0150 4B46     		mov	r3, r9
 1363 0152 2246     		mov	r2, r4
 1364 0154 1C21     		movs	r1, #28
 1365 0156 08A8     		add	r0, sp, #32
 1366              	.LVL224:
 1367 0158 FFF7FEFF 		bl	mbedtls_mpi_fill_random
 1368              	.LVL225:
 1369 015c 0546     		mov	r5, r0
 1370 015e 0028     		cmp	r0, #0
 1371 0160 85D1     		bne	.L75
 487:C:/Users/lenovo/Desktop/liteos/Project2/BearPi_LiteOS/components/security/mbedtls/mbedtls-2.6.0/library\rsa.c ****         MBEDTLS_MPI_CHK( mbedtls_mpi_add_mpi( &DQ_blind, &DQ_blind,
 1372              		.loc 1 487 0
 1373 0162 08AA     		add	r2, sp, #32
ARM GAS  c:\Users\lenovo\AppData\Local\Temp\ccVehGBj.s 			page 38


 1374 0164 0BA9     		add	r1, sp, #44
 1375 0166 02A8     		add	r0, sp, #8
 1376              	.LVL226:
 1377 0168 FFF7FEFF 		bl	mbedtls_mpi_mul_mpi
 1378              	.LVL227:
 1379 016c 0546     		mov	r5, r0
 1380 016e 0028     		cmp	r0, #0
 1381 0170 7FF47DAF 		bne	.L75
 488:C:/Users/lenovo/Desktop/liteos/Project2/BearPi_LiteOS/components/security/mbedtls/mbedtls-2.6.0/library\rsa.c ****                     &ctx->DQ ) );
 1382              		.loc 1 488 0
 1383 0174 4246     		mov	r2, r8
 1384 0176 02A9     		add	r1, sp, #8
 1385 0178 0846     		mov	r0, r1
 1386              	.LVL228:
 1387 017a FFF7FEFF 		bl	mbedtls_mpi_add_mpi
 1388              	.LVL229:
 1389 017e 0546     		mov	r5, r0
 1390 0180 0028     		cmp	r0, #0
 1391 0182 7FF474AF 		bne	.L75
 491:C:/Users/lenovo/Desktop/liteos/Project2/BearPi_LiteOS/components/security/mbedtls/mbedtls-2.6.0/library\rsa.c **** #endif /* MBEDTLS_RSA_NO_CRT */
 1392              		.loc 1 491 0
 1393 0186 0DF10808 		add	r8, sp, #8
 1394              	.LVL230:
 480:C:/Users/lenovo/Desktop/liteos/Project2/BearPi_LiteOS/components/security/mbedtls/mbedtls-2.6.0/library\rsa.c **** 
 1395              		.loc 1 480 0
 1396 018a 05AF     		add	r7, sp, #20
 1397              	.LVL231:
 1398              	.L76:
 504:C:/Users/lenovo/Desktop/liteos/Project2/BearPi_LiteOS/components/security/mbedtls/mbedtls-2.6.0/library\rsa.c ****     MBEDTLS_MPI_CHK( mbedtls_mpi_exp_mod( &T2, &T, DQ, &ctx->Q, &ctx->RQ ) );
 1399              		.loc 1 504 0
 1400 018c 06F12C09 		add	r9, r6, #44
 1401              	.LVL232:
 1402 0190 06F17403 		add	r3, r6, #116
 1403 0194 0093     		str	r3, [sp]
 1404 0196 4B46     		mov	r3, r9
 1405 0198 3A46     		mov	r2, r7
 1406 019a 17A9     		add	r1, sp, #92
 1407 019c 14A8     		add	r0, sp, #80
 1408 019e FFF7FEFF 		bl	mbedtls_mpi_exp_mod
 1409              	.LVL233:
 1410 01a2 0546     		mov	r5, r0
 1411 01a4 0028     		cmp	r0, #0
 1412 01a6 7FF462AF 		bne	.L75
 505:C:/Users/lenovo/Desktop/liteos/Project2/BearPi_LiteOS/components/security/mbedtls/mbedtls-2.6.0/library\rsa.c **** 
 1413              		.loc 1 505 0
 1414 01aa 06F13807 		add	r7, r6, #56
 1415              	.LVL234:
 1416 01ae 06F18003 		add	r3, r6, #128
 1417 01b2 0093     		str	r3, [sp]
 1418 01b4 3B46     		mov	r3, r7
 1419 01b6 4246     		mov	r2, r8
 1420 01b8 17A9     		add	r1, sp, #92
 1421 01ba 11A8     		add	r0, sp, #68
 1422              	.LVL235:
 1423 01bc FFF7FEFF 		bl	mbedtls_mpi_exp_mod
 1424              	.LVL236:
 1425 01c0 0546     		mov	r5, r0
ARM GAS  c:\Users\lenovo\AppData\Local\Temp\ccVehGBj.s 			page 39


 1426 01c2 0028     		cmp	r0, #0
 1427 01c4 7FF453AF 		bne	.L75
 510:C:/Users/lenovo/Desktop/liteos/Project2/BearPi_LiteOS/components/security/mbedtls/mbedtls-2.6.0/library\rsa.c ****     MBEDTLS_MPI_CHK( mbedtls_mpi_mul_mpi( &T1, &T, &ctx->QP ) );
 1428              		.loc 1 510 0
 1429 01c8 11AA     		add	r2, sp, #68
 1430 01ca 14A9     		add	r1, sp, #80
 1431 01cc 17A8     		add	r0, sp, #92
 1432              	.LVL237:
 1433 01ce FFF7FEFF 		bl	mbedtls_mpi_sub_mpi
 1434              	.LVL238:
 1435 01d2 0546     		mov	r5, r0
 1436 01d4 0028     		cmp	r0, #0
 1437 01d6 7FF44AAF 		bne	.L75
 511:C:/Users/lenovo/Desktop/liteos/Project2/BearPi_LiteOS/components/security/mbedtls/mbedtls-2.6.0/library\rsa.c ****     MBEDTLS_MPI_CHK( mbedtls_mpi_mod_mpi( &T, &T1, &ctx->P ) );
 1438              		.loc 1 511 0
 1439 01da 06F15C02 		add	r2, r6, #92
 1440 01de 17A9     		add	r1, sp, #92
 1441 01e0 14A8     		add	r0, sp, #80
 1442              	.LVL239:
 1443 01e2 FFF7FEFF 		bl	mbedtls_mpi_mul_mpi
 1444              	.LVL240:
 1445 01e6 0546     		mov	r5, r0
 1446 01e8 0028     		cmp	r0, #0
 1447 01ea 7FF440AF 		bne	.L75
 512:C:/Users/lenovo/Desktop/liteos/Project2/BearPi_LiteOS/components/security/mbedtls/mbedtls-2.6.0/library\rsa.c **** 
 1448              		.loc 1 512 0
 1449 01ee 4A46     		mov	r2, r9
 1450 01f0 14A9     		add	r1, sp, #80
 1451 01f2 17A8     		add	r0, sp, #92
 1452              	.LVL241:
 1453 01f4 FFF7FEFF 		bl	mbedtls_mpi_mod_mpi
 1454              	.LVL242:
 1455 01f8 0546     		mov	r5, r0
 1456 01fa 0028     		cmp	r0, #0
 1457 01fc 7FF437AF 		bne	.L75
 517:C:/Users/lenovo/Desktop/liteos/Project2/BearPi_LiteOS/components/security/mbedtls/mbedtls-2.6.0/library\rsa.c ****     MBEDTLS_MPI_CHK( mbedtls_mpi_add_mpi( &T, &T2, &T1 ) );
 1458              		.loc 1 517 0
 1459 0200 3A46     		mov	r2, r7
 1460 0202 17A9     		add	r1, sp, #92
 1461 0204 14A8     		add	r0, sp, #80
 1462              	.LVL243:
 1463 0206 FFF7FEFF 		bl	mbedtls_mpi_mul_mpi
 1464              	.LVL244:
 1465 020a 0546     		mov	r5, r0
 1466 020c 0028     		cmp	r0, #0
 1467 020e 7FF42EAF 		bne	.L75
 518:C:/Users/lenovo/Desktop/liteos/Project2/BearPi_LiteOS/components/security/mbedtls/mbedtls-2.6.0/library\rsa.c **** #endif /* MBEDTLS_RSA_NO_CRT */
 1468              		.loc 1 518 0
 1469 0212 14AA     		add	r2, sp, #80
 1470 0214 11A9     		add	r1, sp, #68
 1471 0216 17A8     		add	r0, sp, #92
 1472              	.LVL245:
 1473 0218 FFF7FEFF 		bl	mbedtls_mpi_add_mpi
 1474              	.LVL246:
 1475 021c 0546     		mov	r5, r0
 1476 021e 0028     		cmp	r0, #0
 1477 0220 7FF425AF 		bne	.L75
ARM GAS  c:\Users\lenovo\AppData\Local\Temp\ccVehGBj.s 			page 40


 521:C:/Users/lenovo/Desktop/liteos/Project2/BearPi_LiteOS/components/security/mbedtls/mbedtls-2.6.0/library\rsa.c ****     {
 1478              		.loc 1 521 0
 1479 0224 94B1     		cbz	r4, .L77
 527:C:/Users/lenovo/Desktop/liteos/Project2/BearPi_LiteOS/components/security/mbedtls/mbedtls-2.6.0/library\rsa.c ****         MBEDTLS_MPI_CHK( mbedtls_mpi_mod_mpi( &T, &T, &ctx->N ) );
 1480              		.loc 1 527 0
 1481 0226 06F19802 		add	r2, r6, #152
 1482 022a 17A9     		add	r1, sp, #92
 1483 022c 0846     		mov	r0, r1
 1484              	.LVL247:
 1485 022e FFF7FEFF 		bl	mbedtls_mpi_mul_mpi
 1486              	.LVL248:
 1487 0232 0546     		mov	r5, r0
 1488 0234 0028     		cmp	r0, #0
 1489 0236 7FF41AAF 		bne	.L75
 528:C:/Users/lenovo/Desktop/liteos/Project2/BearPi_LiteOS/components/security/mbedtls/mbedtls-2.6.0/library\rsa.c ****     }
 1490              		.loc 1 528 0
 1491 023a 5246     		mov	r2, r10
 1492 023c 17A9     		add	r1, sp, #92
 1493 023e 0846     		mov	r0, r1
 1494              	.LVL249:
 1495 0240 FFF7FEFF 		bl	mbedtls_mpi_mod_mpi
 1496              	.LVL250:
 1497 0244 0546     		mov	r5, r0
 1498 0246 0028     		cmp	r0, #0
 1499 0248 7FF411AF 		bne	.L75
 1500              	.L77:
 1501              	.LVL251:
 532:C:/Users/lenovo/Desktop/liteos/Project2/BearPi_LiteOS/components/security/mbedtls/mbedtls-2.6.0/library\rsa.c **** 
 1502              		.loc 1 532 0
 1503 024c 7268     		ldr	r2, [r6, #4]
 1504 024e 2299     		ldr	r1, [sp, #136]
 1505 0250 17A8     		add	r0, sp, #92
 1506              	.LVL252:
 1507 0252 FFF7FEFF 		bl	mbedtls_mpi_write_binary
 1508              	.LVL253:
 1509 0256 0546     		mov	r5, r0
 1510              	.LVL254:
 534:C:/Users/lenovo/Desktop/liteos/Project2/BearPi_LiteOS/components/security/mbedtls/mbedtls-2.6.0/library\rsa.c **** #if defined(MBEDTLS_THREADING_C)
 1511              		.loc 1 534 0
 1512 0258 09E7     		b	.L75
 1513              	.LVL255:
 1514              	.L79:
 414:C:/Users/lenovo/Desktop/liteos/Project2/BearPi_LiteOS/components/security/mbedtls/mbedtls-2.6.0/library\rsa.c **** 
 1515              		.loc 1 414 0
 1516 025a 034D     		ldr	r5, .L86
 1517 025c 23E7     		b	.L72
 1518              	.LVL256:
 1519              	.L80:
 1520 025e 024D     		ldr	r5, .L86
 1521 0260 21E7     		b	.L72
 1522              	.L81:
 1523 0262 014D     		ldr	r5, .L86
 1524 0264 1FE7     		b	.L72
 1525              	.L87:
 1526 0266 00BF     		.align	2
 1527              	.L86:
 1528 0268 80BFFFFF 		.word	-16512
ARM GAS  c:\Users\lenovo\AppData\Local\Temp\ccVehGBj.s 			page 41


 1529              		.cfi_endproc
 1530              	.LFE20:
 1532              		.section	.text.mbedtls_rsa_rsaes_oaep_encrypt,"ax",%progbits
 1533              		.align	1
 1534              		.global	mbedtls_rsa_rsaes_oaep_encrypt
 1535              		.syntax unified
 1536              		.thumb
 1537              		.thumb_func
 1538              		.fpu fpv4-sp-d16
 1540              	mbedtls_rsa_rsaes_oaep_encrypt:
 1541              	.LFB22:
 607:C:/Users/lenovo/Desktop/liteos/Project2/BearPi_LiteOS/components/security/mbedtls/mbedtls-2.6.0/library\rsa.c **** #endif /* MBEDTLS_PKCS1_V21 */
 608:C:/Users/lenovo/Desktop/liteos/Project2/BearPi_LiteOS/components/security/mbedtls/mbedtls-2.6.0/library\rsa.c **** 
 609:C:/Users/lenovo/Desktop/liteos/Project2/BearPi_LiteOS/components/security/mbedtls/mbedtls-2.6.0/library\rsa.c **** #if defined(MBEDTLS_PKCS1_V21)
 610:C:/Users/lenovo/Desktop/liteos/Project2/BearPi_LiteOS/components/security/mbedtls/mbedtls-2.6.0/library\rsa.c **** /*
 611:C:/Users/lenovo/Desktop/liteos/Project2/BearPi_LiteOS/components/security/mbedtls/mbedtls-2.6.0/library\rsa.c ****  * Implementation of the PKCS#1 v2.1 RSAES-OAEP-ENCRYPT function
 612:C:/Users/lenovo/Desktop/liteos/Project2/BearPi_LiteOS/components/security/mbedtls/mbedtls-2.6.0/library\rsa.c ****  */
 613:C:/Users/lenovo/Desktop/liteos/Project2/BearPi_LiteOS/components/security/mbedtls/mbedtls-2.6.0/library\rsa.c **** int mbedtls_rsa_rsaes_oaep_encrypt( mbedtls_rsa_context *ctx,
 614:C:/Users/lenovo/Desktop/liteos/Project2/BearPi_LiteOS/components/security/mbedtls/mbedtls-2.6.0/library\rsa.c ****                             int (*f_rng)(void *, unsigned char *, size_t),
 615:C:/Users/lenovo/Desktop/liteos/Project2/BearPi_LiteOS/components/security/mbedtls/mbedtls-2.6.0/library\rsa.c ****                             void *p_rng,
 616:C:/Users/lenovo/Desktop/liteos/Project2/BearPi_LiteOS/components/security/mbedtls/mbedtls-2.6.0/library\rsa.c ****                             int mode,
 617:C:/Users/lenovo/Desktop/liteos/Project2/BearPi_LiteOS/components/security/mbedtls/mbedtls-2.6.0/library\rsa.c ****                             const unsigned char *label, size_t label_len,
 618:C:/Users/lenovo/Desktop/liteos/Project2/BearPi_LiteOS/components/security/mbedtls/mbedtls-2.6.0/library\rsa.c ****                             size_t ilen,
 619:C:/Users/lenovo/Desktop/liteos/Project2/BearPi_LiteOS/components/security/mbedtls/mbedtls-2.6.0/library\rsa.c ****                             const unsigned char *input,
 620:C:/Users/lenovo/Desktop/liteos/Project2/BearPi_LiteOS/components/security/mbedtls/mbedtls-2.6.0/library\rsa.c ****                             unsigned char *output )
 621:C:/Users/lenovo/Desktop/liteos/Project2/BearPi_LiteOS/components/security/mbedtls/mbedtls-2.6.0/library\rsa.c **** {
 1542              		.loc 1 621 0
 1543              		.cfi_startproc
 1544              		@ args = 20, pretend = 0, frame = 32
 1545              		@ frame_needed = 0, uses_anonymous_args = 0
 1546              	.LVL257:
 1547 0000 2DE9F04F 		push	{r4, r5, r6, r7, r8, r9, r10, fp, lr}
 1548              	.LCFI22:
 1549              		.cfi_def_cfa_offset 36
 1550              		.cfi_offset 4, -36
 1551              		.cfi_offset 5, -32
 1552              		.cfi_offset 6, -28
 1553              		.cfi_offset 7, -24
 1554              		.cfi_offset 8, -20
 1555              		.cfi_offset 9, -16
 1556              		.cfi_offset 10, -12
 1557              		.cfi_offset 11, -8
 1558              		.cfi_offset 14, -4
 1559 0004 8BB0     		sub	sp, sp, #44
 1560              	.LCFI23:
 1561              		.cfi_def_cfa_offset 80
 1562 0006 DDF85890 		ldr	r9, [sp, #88]
 1563 000a 189E     		ldr	r6, [sp, #96]
 1564              	.LVL258:
 622:C:/Users/lenovo/Desktop/liteos/Project2/BearPi_LiteOS/components/security/mbedtls/mbedtls-2.6.0/library\rsa.c ****     size_t olen;
 623:C:/Users/lenovo/Desktop/liteos/Project2/BearPi_LiteOS/components/security/mbedtls/mbedtls-2.6.0/library\rsa.c ****     int ret;
 624:C:/Users/lenovo/Desktop/liteos/Project2/BearPi_LiteOS/components/security/mbedtls/mbedtls-2.6.0/library\rsa.c ****     unsigned char *p = output;
 625:C:/Users/lenovo/Desktop/liteos/Project2/BearPi_LiteOS/components/security/mbedtls/mbedtls-2.6.0/library\rsa.c ****     unsigned int hlen;
 626:C:/Users/lenovo/Desktop/liteos/Project2/BearPi_LiteOS/components/security/mbedtls/mbedtls-2.6.0/library\rsa.c ****     const mbedtls_md_info_t *md_info;
 627:C:/Users/lenovo/Desktop/liteos/Project2/BearPi_LiteOS/components/security/mbedtls/mbedtls-2.6.0/library\rsa.c ****     mbedtls_md_context_t md_ctx;
 628:C:/Users/lenovo/Desktop/liteos/Project2/BearPi_LiteOS/components/security/mbedtls/mbedtls-2.6.0/library\rsa.c **** 
 629:C:/Users/lenovo/Desktop/liteos/Project2/BearPi_LiteOS/components/security/mbedtls/mbedtls-2.6.0/library\rsa.c ****     if( mode == MBEDTLS_RSA_PRIVATE && ctx->padding != MBEDTLS_RSA_PKCS_V21 )
ARM GAS  c:\Users\lenovo\AppData\Local\Temp\ccVehGBj.s 			page 42


 1565              		.loc 1 629 0
 1566 000c 012B     		cmp	r3, #1
 1567 000e 2ED0     		beq	.L100
 1568              	.L89:
 630:C:/Users/lenovo/Desktop/liteos/Project2/BearPi_LiteOS/components/security/mbedtls/mbedtls-2.6.0/library\rsa.c ****         return( MBEDTLS_ERR_RSA_BAD_INPUT_DATA );
 631:C:/Users/lenovo/Desktop/liteos/Project2/BearPi_LiteOS/components/security/mbedtls/mbedtls-2.6.0/library\rsa.c **** 
 632:C:/Users/lenovo/Desktop/liteos/Project2/BearPi_LiteOS/components/security/mbedtls/mbedtls-2.6.0/library\rsa.c ****     if( f_rng == NULL )
 1569              		.loc 1 632 0
 1570 0010 0029     		cmp	r1, #0
 1571 0012 00F08180 		beq	.L95
 1572 0016 0493     		str	r3, [sp, #16]
 1573 0018 0292     		str	r2, [sp, #8]
 1574 001a 8B46     		mov	fp, r1
 1575 001c 0591     		str	r1, [sp, #20]
 1576 001e 0446     		mov	r4, r0
 633:C:/Users/lenovo/Desktop/liteos/Project2/BearPi_LiteOS/components/security/mbedtls/mbedtls-2.6.0/library\rsa.c ****         return( MBEDTLS_ERR_RSA_BAD_INPUT_DATA );
 634:C:/Users/lenovo/Desktop/liteos/Project2/BearPi_LiteOS/components/security/mbedtls/mbedtls-2.6.0/library\rsa.c **** 
 635:C:/Users/lenovo/Desktop/liteos/Project2/BearPi_LiteOS/components/security/mbedtls/mbedtls-2.6.0/library\rsa.c ****     md_info = mbedtls_md_info_from_type( (mbedtls_md_type_t) ctx->hash_id );
 1577              		.loc 1 635 0
 1578 0020 90F8A800 		ldrb	r0, [r0, #168]	@ zero_extendqisi2
 1579              	.LVL259:
 1580 0024 FFF7FEFF 		bl	mbedtls_md_info_from_type
 1581              	.LVL260:
 636:C:/Users/lenovo/Desktop/liteos/Project2/BearPi_LiteOS/components/security/mbedtls/mbedtls-2.6.0/library\rsa.c ****     if( md_info == NULL )
 1582              		.loc 1 636 0
 1583 0028 0390     		str	r0, [sp, #12]
 1584 002a 0028     		cmp	r0, #0
 1585 002c 76D0     		beq	.L96
 637:C:/Users/lenovo/Desktop/liteos/Project2/BearPi_LiteOS/components/security/mbedtls/mbedtls-2.6.0/library\rsa.c ****         return( MBEDTLS_ERR_RSA_BAD_INPUT_DATA );
 638:C:/Users/lenovo/Desktop/liteos/Project2/BearPi_LiteOS/components/security/mbedtls/mbedtls-2.6.0/library\rsa.c **** 
 639:C:/Users/lenovo/Desktop/liteos/Project2/BearPi_LiteOS/components/security/mbedtls/mbedtls-2.6.0/library\rsa.c ****     olen = ctx->len;
 1586              		.loc 1 639 0
 1587 002e 6768     		ldr	r7, [r4, #4]
 1588              	.LVL261:
 640:C:/Users/lenovo/Desktop/liteos/Project2/BearPi_LiteOS/components/security/mbedtls/mbedtls-2.6.0/library\rsa.c ****     hlen = mbedtls_md_get_size( md_info );
 1589              		.loc 1 640 0
 1590 0030 FFF7FEFF 		bl	mbedtls_md_get_size
 1591              	.LVL262:
 1592 0034 8046     		mov	r8, r0
 1593              	.LVL263:
 641:C:/Users/lenovo/Desktop/liteos/Project2/BearPi_LiteOS/components/security/mbedtls/mbedtls-2.6.0/library\rsa.c **** 
 642:C:/Users/lenovo/Desktop/liteos/Project2/BearPi_LiteOS/components/security/mbedtls/mbedtls-2.6.0/library\rsa.c ****     /* first comparison checks for overflow */
 643:C:/Users/lenovo/Desktop/liteos/Project2/BearPi_LiteOS/components/security/mbedtls/mbedtls-2.6.0/library\rsa.c ****     if( ilen + 2 * hlen + 2 < ilen || olen < ilen + 2 * hlen + 2 )
 1594              		.loc 1 643 0
 1595 0036 4500     		lsls	r5, r0, #1
 1596 0038 05EB0903 		add	r3, r5, r9
 1597 003c 0233     		adds	r3, r3, #2
 1598 003e 4B45     		cmp	r3, r9
 1599 0040 6ED3     		bcc	.L97
 1600              		.loc 1 643 0 is_stmt 0 discriminator 1
 1601 0042 BB42     		cmp	r3, r7
 1602 0044 6ED8     		bhi	.L98
 644:C:/Users/lenovo/Desktop/liteos/Project2/BearPi_LiteOS/components/security/mbedtls/mbedtls-2.6.0/library\rsa.c ****         return( MBEDTLS_ERR_RSA_BAD_INPUT_DATA );
 645:C:/Users/lenovo/Desktop/liteos/Project2/BearPi_LiteOS/components/security/mbedtls/mbedtls-2.6.0/library\rsa.c **** 
 646:C:/Users/lenovo/Desktop/liteos/Project2/BearPi_LiteOS/components/security/mbedtls/mbedtls-2.6.0/library\rsa.c ****     memset( output, 0, olen );
 1603              		.loc 1 646 0 is_stmt 1
 1604 0046 3A46     		mov	r2, r7
ARM GAS  c:\Users\lenovo\AppData\Local\Temp\ccVehGBj.s 			page 43


 1605 0048 0021     		movs	r1, #0
 1606 004a 3046     		mov	r0, r6
 1607              	.LVL264:
 1608 004c FFF7FEFF 		bl	memset
 1609              	.LVL265:
 647:C:/Users/lenovo/Desktop/liteos/Project2/BearPi_LiteOS/components/security/mbedtls/mbedtls-2.6.0/library\rsa.c **** 
 648:C:/Users/lenovo/Desktop/liteos/Project2/BearPi_LiteOS/components/security/mbedtls/mbedtls-2.6.0/library\rsa.c ****     *p++ = 0;
 1610              		.loc 1 648 0
 1611 0050 06F1010A 		add	r10, r6, #1
 1612              	.LVL266:
 1613 0054 0023     		movs	r3, #0
 1614 0056 3370     		strb	r3, [r6]
 649:C:/Users/lenovo/Desktop/liteos/Project2/BearPi_LiteOS/components/security/mbedtls/mbedtls-2.6.0/library\rsa.c **** 
 650:C:/Users/lenovo/Desktop/liteos/Project2/BearPi_LiteOS/components/security/mbedtls/mbedtls-2.6.0/library\rsa.c ****     /* Generate a random octet string seed */
 651:C:/Users/lenovo/Desktop/liteos/Project2/BearPi_LiteOS/components/security/mbedtls/mbedtls-2.6.0/library\rsa.c ****     if( ( ret = f_rng( p_rng, p, hlen ) ) != 0 )
 1615              		.loc 1 651 0
 1616 0058 4246     		mov	r2, r8
 1617 005a 5146     		mov	r1, r10
 1618 005c 0298     		ldr	r0, [sp, #8]
 1619 005e D847     		blx	fp
 1620              	.LVL267:
 1621 0060 58B1     		cbz	r0, .L91
 652:C:/Users/lenovo/Desktop/liteos/Project2/BearPi_LiteOS/components/security/mbedtls/mbedtls-2.6.0/library\rsa.c ****         return( MBEDTLS_ERR_RSA_RNG_FAILED + ret );
 1622              		.loc 1 652 0
 1623 0062 A0F58945 		sub	r5, r0, #17536
 1624              	.LVL268:
 1625              	.L88:
 653:C:/Users/lenovo/Desktop/liteos/Project2/BearPi_LiteOS/components/security/mbedtls/mbedtls-2.6.0/library\rsa.c **** 
 654:C:/Users/lenovo/Desktop/liteos/Project2/BearPi_LiteOS/components/security/mbedtls/mbedtls-2.6.0/library\rsa.c ****     p += hlen;
 655:C:/Users/lenovo/Desktop/liteos/Project2/BearPi_LiteOS/components/security/mbedtls/mbedtls-2.6.0/library\rsa.c **** 
 656:C:/Users/lenovo/Desktop/liteos/Project2/BearPi_LiteOS/components/security/mbedtls/mbedtls-2.6.0/library\rsa.c ****     /* Construct DB */
 657:C:/Users/lenovo/Desktop/liteos/Project2/BearPi_LiteOS/components/security/mbedtls/mbedtls-2.6.0/library\rsa.c ****     mbedtls_md( md_info, label, label_len, p );
 658:C:/Users/lenovo/Desktop/liteos/Project2/BearPi_LiteOS/components/security/mbedtls/mbedtls-2.6.0/library\rsa.c ****     p += hlen;
 659:C:/Users/lenovo/Desktop/liteos/Project2/BearPi_LiteOS/components/security/mbedtls/mbedtls-2.6.0/library\rsa.c ****     p += olen - 2 * hlen - 2 - ilen;
 660:C:/Users/lenovo/Desktop/liteos/Project2/BearPi_LiteOS/components/security/mbedtls/mbedtls-2.6.0/library\rsa.c ****     *p++ = 1;
 661:C:/Users/lenovo/Desktop/liteos/Project2/BearPi_LiteOS/components/security/mbedtls/mbedtls-2.6.0/library\rsa.c ****     memcpy( p, input, ilen );
 662:C:/Users/lenovo/Desktop/liteos/Project2/BearPi_LiteOS/components/security/mbedtls/mbedtls-2.6.0/library\rsa.c **** 
 663:C:/Users/lenovo/Desktop/liteos/Project2/BearPi_LiteOS/components/security/mbedtls/mbedtls-2.6.0/library\rsa.c ****     mbedtls_md_init( &md_ctx );
 664:C:/Users/lenovo/Desktop/liteos/Project2/BearPi_LiteOS/components/security/mbedtls/mbedtls-2.6.0/library\rsa.c ****     if( ( ret = mbedtls_md_setup( &md_ctx, md_info, 0 ) ) != 0 )
 665:C:/Users/lenovo/Desktop/liteos/Project2/BearPi_LiteOS/components/security/mbedtls/mbedtls-2.6.0/library\rsa.c ****     {
 666:C:/Users/lenovo/Desktop/liteos/Project2/BearPi_LiteOS/components/security/mbedtls/mbedtls-2.6.0/library\rsa.c ****         mbedtls_md_free( &md_ctx );
 667:C:/Users/lenovo/Desktop/liteos/Project2/BearPi_LiteOS/components/security/mbedtls/mbedtls-2.6.0/library\rsa.c ****         return( ret );
 668:C:/Users/lenovo/Desktop/liteos/Project2/BearPi_LiteOS/components/security/mbedtls/mbedtls-2.6.0/library\rsa.c ****     }
 669:C:/Users/lenovo/Desktop/liteos/Project2/BearPi_LiteOS/components/security/mbedtls/mbedtls-2.6.0/library\rsa.c **** 
 670:C:/Users/lenovo/Desktop/liteos/Project2/BearPi_LiteOS/components/security/mbedtls/mbedtls-2.6.0/library\rsa.c ****     /* maskedDB: Apply dbMask to DB */
 671:C:/Users/lenovo/Desktop/liteos/Project2/BearPi_LiteOS/components/security/mbedtls/mbedtls-2.6.0/library\rsa.c ****     mgf_mask( output + hlen + 1, olen - hlen - 1, output + 1, hlen,
 672:C:/Users/lenovo/Desktop/liteos/Project2/BearPi_LiteOS/components/security/mbedtls/mbedtls-2.6.0/library\rsa.c ****                &md_ctx );
 673:C:/Users/lenovo/Desktop/liteos/Project2/BearPi_LiteOS/components/security/mbedtls/mbedtls-2.6.0/library\rsa.c **** 
 674:C:/Users/lenovo/Desktop/liteos/Project2/BearPi_LiteOS/components/security/mbedtls/mbedtls-2.6.0/library\rsa.c ****     /* maskedSeed: Apply seedMask to seed */
 675:C:/Users/lenovo/Desktop/liteos/Project2/BearPi_LiteOS/components/security/mbedtls/mbedtls-2.6.0/library\rsa.c ****     mgf_mask( output + 1, hlen, output + hlen + 1, olen - hlen - 1,
 676:C:/Users/lenovo/Desktop/liteos/Project2/BearPi_LiteOS/components/security/mbedtls/mbedtls-2.6.0/library\rsa.c ****                &md_ctx );
 677:C:/Users/lenovo/Desktop/liteos/Project2/BearPi_LiteOS/components/security/mbedtls/mbedtls-2.6.0/library\rsa.c **** 
 678:C:/Users/lenovo/Desktop/liteos/Project2/BearPi_LiteOS/components/security/mbedtls/mbedtls-2.6.0/library\rsa.c ****     mbedtls_md_free( &md_ctx );
 679:C:/Users/lenovo/Desktop/liteos/Project2/BearPi_LiteOS/components/security/mbedtls/mbedtls-2.6.0/library\rsa.c **** 
 680:C:/Users/lenovo/Desktop/liteos/Project2/BearPi_LiteOS/components/security/mbedtls/mbedtls-2.6.0/library\rsa.c ****     return( ( mode == MBEDTLS_RSA_PUBLIC )
 681:C:/Users/lenovo/Desktop/liteos/Project2/BearPi_LiteOS/components/security/mbedtls/mbedtls-2.6.0/library\rsa.c ****             ? mbedtls_rsa_public(  ctx, output, output )
 682:C:/Users/lenovo/Desktop/liteos/Project2/BearPi_LiteOS/components/security/mbedtls/mbedtls-2.6.0/library\rsa.c ****             : mbedtls_rsa_private( ctx, f_rng, p_rng, output, output ) );
ARM GAS  c:\Users\lenovo\AppData\Local\Temp\ccVehGBj.s 			page 44


 683:C:/Users/lenovo/Desktop/liteos/Project2/BearPi_LiteOS/components/security/mbedtls/mbedtls-2.6.0/library\rsa.c **** }
 1626              		.loc 1 683 0
 1627 0066 2846     		mov	r0, r5
 1628 0068 0BB0     		add	sp, sp, #44
 1629              	.LCFI24:
 1630              		.cfi_remember_state
 1631              		.cfi_def_cfa_offset 36
 1632              		@ sp needed
 1633 006a BDE8F08F 		pop	{r4, r5, r6, r7, r8, r9, r10, fp, pc}
 1634              	.LVL269:
 1635              	.L100:
 1636              	.LCFI25:
 1637              		.cfi_restore_state
 629:C:/Users/lenovo/Desktop/liteos/Project2/BearPi_LiteOS/components/security/mbedtls/mbedtls-2.6.0/library\rsa.c ****         return( MBEDTLS_ERR_RSA_BAD_INPUT_DATA );
 1638              		.loc 1 629 0 discriminator 1
 1639 006e D0F8A440 		ldr	r4, [r0, #164]
 1640 0072 012C     		cmp	r4, #1
 1641 0074 CCD0     		beq	.L89
 630:C:/Users/lenovo/Desktop/liteos/Project2/BearPi_LiteOS/components/security/mbedtls/mbedtls-2.6.0/library\rsa.c **** 
 1642              		.loc 1 630 0
 1643 0076 2C4D     		ldr	r5, .L103
 1644 0078 F5E7     		b	.L88
 1645              	.LVL270:
 1646              	.L91:
 654:C:/Users/lenovo/Desktop/liteos/Project2/BearPi_LiteOS/components/security/mbedtls/mbedtls-2.6.0/library\rsa.c **** 
 1647              		.loc 1 654 0
 1648 007a 0AEB080B 		add	fp, r10, r8
 1649              	.LVL271:
 657:C:/Users/lenovo/Desktop/liteos/Project2/BearPi_LiteOS/components/security/mbedtls/mbedtls-2.6.0/library\rsa.c ****     p += hlen;
 1650              		.loc 1 657 0
 1651 007e 5B46     		mov	r3, fp
 1652 0080 159A     		ldr	r2, [sp, #84]
 1653 0082 1499     		ldr	r1, [sp, #80]
 1654 0084 0398     		ldr	r0, [sp, #12]
 1655              	.LVL272:
 1656 0086 FFF7FEFF 		bl	mbedtls_md
 1657              	.LVL273:
 659:C:/Users/lenovo/Desktop/liteos/Project2/BearPi_LiteOS/components/security/mbedtls/mbedtls-2.6.0/library\rsa.c ****     *p++ = 1;
 1658              		.loc 1 659 0
 1659 008a 7D1B     		subs	r5, r7, r5
 1660 008c A5EB0905 		sub	r5, r5, r9
 1661 0090 023D     		subs	r5, r5, #2
 1662 0092 4544     		add	r5, r5, r8
 1663 0094 0BEB0500 		add	r0, fp, r5
 1664              	.LVL274:
 660:C:/Users/lenovo/Desktop/liteos/Project2/BearPi_LiteOS/components/security/mbedtls/mbedtls-2.6.0/library\rsa.c ****     memcpy( p, input, ilen );
 1665              		.loc 1 660 0
 1666 0098 0123     		movs	r3, #1
 1667 009a 0BF80530 		strb	r3, [fp, r5]
 661:C:/Users/lenovo/Desktop/liteos/Project2/BearPi_LiteOS/components/security/mbedtls/mbedtls-2.6.0/library\rsa.c **** 
 1668              		.loc 1 661 0
 1669 009e 4A46     		mov	r2, r9
 1670 00a0 1799     		ldr	r1, [sp, #92]
 1671 00a2 1844     		add	r0, r0, r3
 1672              	.LVL275:
 1673 00a4 FFF7FEFF 		bl	memcpy
 1674              	.LVL276:
ARM GAS  c:\Users\lenovo\AppData\Local\Temp\ccVehGBj.s 			page 45


 663:C:/Users/lenovo/Desktop/liteos/Project2/BearPi_LiteOS/components/security/mbedtls/mbedtls-2.6.0/library\rsa.c ****     if( ( ret = mbedtls_md_setup( &md_ctx, md_info, 0 ) ) != 0 )
 1675              		.loc 1 663 0
 1676 00a8 07A8     		add	r0, sp, #28
 1677 00aa FFF7FEFF 		bl	mbedtls_md_init
 1678              	.LVL277:
 664:C:/Users/lenovo/Desktop/liteos/Project2/BearPi_LiteOS/components/security/mbedtls/mbedtls-2.6.0/library\rsa.c ****     {
 1679              		.loc 1 664 0
 1680 00ae 0022     		movs	r2, #0
 1681 00b0 0399     		ldr	r1, [sp, #12]
 1682 00b2 07A8     		add	r0, sp, #28
 1683 00b4 FFF7FEFF 		bl	mbedtls_md_setup
 1684              	.LVL278:
 1685 00b8 0546     		mov	r5, r0
 1686              	.LVL279:
 1687 00ba 10BB     		cbnz	r0, .L101
 671:C:/Users/lenovo/Desktop/liteos/Project2/BearPi_LiteOS/components/security/mbedtls/mbedtls-2.6.0/library\rsa.c ****                &md_ctx );
 1688              		.loc 1 671 0
 1689 00bc 08F10109 		add	r9, r8, #1
 1690              	.LVL280:
 1691 00c0 B144     		add	r9, r9, r6
 1692 00c2 A7EB0807 		sub	r7, r7, r8
 1693              	.LVL281:
 1694 00c6 013F     		subs	r7, r7, #1
 1695 00c8 07AD     		add	r5, sp, #28
 1696 00ca 0095     		str	r5, [sp]
 1697 00cc 4346     		mov	r3, r8
 1698 00ce 5246     		mov	r2, r10
 1699 00d0 3946     		mov	r1, r7
 1700 00d2 4846     		mov	r0, r9
 1701              	.LVL282:
 1702 00d4 FFF7FEFF 		bl	mgf_mask
 1703              	.LVL283:
 675:C:/Users/lenovo/Desktop/liteos/Project2/BearPi_LiteOS/components/security/mbedtls/mbedtls-2.6.0/library\rsa.c ****                &md_ctx );
 1704              		.loc 1 675 0
 1705 00d8 0095     		str	r5, [sp]
 1706 00da 3B46     		mov	r3, r7
 1707 00dc 4A46     		mov	r2, r9
 1708 00de 4146     		mov	r1, r8
 1709 00e0 5046     		mov	r0, r10
 1710 00e2 FFF7FEFF 		bl	mgf_mask
 1711              	.LVL284:
 678:C:/Users/lenovo/Desktop/liteos/Project2/BearPi_LiteOS/components/security/mbedtls/mbedtls-2.6.0/library\rsa.c **** 
 1712              		.loc 1 678 0
 1713 00e6 2846     		mov	r0, r5
 1714 00e8 FFF7FEFF 		bl	mbedtls_md_free
 1715              	.LVL285:
 682:C:/Users/lenovo/Desktop/liteos/Project2/BearPi_LiteOS/components/security/mbedtls/mbedtls-2.6.0/library\rsa.c **** }
 1716              		.loc 1 682 0
 1717 00ec 049B     		ldr	r3, [sp, #16]
 1718 00ee 63B1     		cbz	r3, .L102
 682:C:/Users/lenovo/Desktop/liteos/Project2/BearPi_LiteOS/components/security/mbedtls/mbedtls-2.6.0/library\rsa.c **** }
 1719              		.loc 1 682 0 is_stmt 0 discriminator 2
 1720 00f0 0096     		str	r6, [sp]
 1721 00f2 3346     		mov	r3, r6
 1722 00f4 029A     		ldr	r2, [sp, #8]
 1723 00f6 0599     		ldr	r1, [sp, #20]
 1724 00f8 2046     		mov	r0, r4
ARM GAS  c:\Users\lenovo\AppData\Local\Temp\ccVehGBj.s 			page 46


 1725 00fa FFF7FEFF 		bl	mbedtls_rsa_private
 1726              	.LVL286:
 1727 00fe 0546     		mov	r5, r0
 1728 0100 B1E7     		b	.L88
 1729              	.LVL287:
 1730              	.L101:
 666:C:/Users/lenovo/Desktop/liteos/Project2/BearPi_LiteOS/components/security/mbedtls/mbedtls-2.6.0/library\rsa.c ****         return( ret );
 1731              		.loc 1 666 0 is_stmt 1
 1732 0102 07A8     		add	r0, sp, #28
 1733              	.LVL288:
 1734 0104 FFF7FEFF 		bl	mbedtls_md_free
 1735              	.LVL289:
 667:C:/Users/lenovo/Desktop/liteos/Project2/BearPi_LiteOS/components/security/mbedtls/mbedtls-2.6.0/library\rsa.c ****     }
 1736              		.loc 1 667 0
 1737 0108 ADE7     		b	.L88
 1738              	.LVL290:
 1739              	.L102:
 682:C:/Users/lenovo/Desktop/liteos/Project2/BearPi_LiteOS/components/security/mbedtls/mbedtls-2.6.0/library\rsa.c **** }
 1740              		.loc 1 682 0 discriminator 1
 1741 010a 3246     		mov	r2, r6
 1742 010c 3146     		mov	r1, r6
 1743 010e 2046     		mov	r0, r4
 1744 0110 FFF7FEFF 		bl	mbedtls_rsa_public
 1745              	.LVL291:
 1746 0114 0546     		mov	r5, r0
 1747 0116 A6E7     		b	.L88
 1748              	.LVL292:
 1749              	.L95:
 633:C:/Users/lenovo/Desktop/liteos/Project2/BearPi_LiteOS/components/security/mbedtls/mbedtls-2.6.0/library\rsa.c **** 
 1750              		.loc 1 633 0
 1751 0118 034D     		ldr	r5, .L103
 1752 011a A4E7     		b	.L88
 1753              	.LVL293:
 1754              	.L96:
 637:C:/Users/lenovo/Desktop/liteos/Project2/BearPi_LiteOS/components/security/mbedtls/mbedtls-2.6.0/library\rsa.c **** 
 1755              		.loc 1 637 0
 1756 011c 024D     		ldr	r5, .L103
 1757 011e A2E7     		b	.L88
 1758              	.LVL294:
 1759              	.L97:
 644:C:/Users/lenovo/Desktop/liteos/Project2/BearPi_LiteOS/components/security/mbedtls/mbedtls-2.6.0/library\rsa.c **** 
 1760              		.loc 1 644 0
 1761 0120 014D     		ldr	r5, .L103
 1762 0122 A0E7     		b	.L88
 1763              	.L98:
 1764 0124 004D     		ldr	r5, .L103
 1765 0126 9EE7     		b	.L88
 1766              	.L104:
 1767              		.align	2
 1768              	.L103:
 1769 0128 80BFFFFF 		.word	-16512
 1770              		.cfi_endproc
 1771              	.LFE22:
 1773              		.section	.text.mbedtls_rsa_pkcs1_encrypt,"ax",%progbits
 1774              		.align	1
 1775              		.global	mbedtls_rsa_pkcs1_encrypt
 1776              		.syntax unified
ARM GAS  c:\Users\lenovo\AppData\Local\Temp\ccVehGBj.s 			page 47


 1777              		.thumb
 1778              		.thumb_func
 1779              		.fpu fpv4-sp-d16
 1781              	mbedtls_rsa_pkcs1_encrypt:
 1782              	.LFB23:
 684:C:/Users/lenovo/Desktop/liteos/Project2/BearPi_LiteOS/components/security/mbedtls/mbedtls-2.6.0/library\rsa.c **** #endif /* MBEDTLS_PKCS1_V21 */
 685:C:/Users/lenovo/Desktop/liteos/Project2/BearPi_LiteOS/components/security/mbedtls/mbedtls-2.6.0/library\rsa.c **** 
 686:C:/Users/lenovo/Desktop/liteos/Project2/BearPi_LiteOS/components/security/mbedtls/mbedtls-2.6.0/library\rsa.c **** #if defined(MBEDTLS_PKCS1_V15)
 687:C:/Users/lenovo/Desktop/liteos/Project2/BearPi_LiteOS/components/security/mbedtls/mbedtls-2.6.0/library\rsa.c **** /*
 688:C:/Users/lenovo/Desktop/liteos/Project2/BearPi_LiteOS/components/security/mbedtls/mbedtls-2.6.0/library\rsa.c ****  * Implementation of the PKCS#1 v2.1 RSAES-PKCS1-V1_5-ENCRYPT function
 689:C:/Users/lenovo/Desktop/liteos/Project2/BearPi_LiteOS/components/security/mbedtls/mbedtls-2.6.0/library\rsa.c ****  */
 690:C:/Users/lenovo/Desktop/liteos/Project2/BearPi_LiteOS/components/security/mbedtls/mbedtls-2.6.0/library\rsa.c **** int mbedtls_rsa_rsaes_pkcs1_v15_encrypt( mbedtls_rsa_context *ctx,
 691:C:/Users/lenovo/Desktop/liteos/Project2/BearPi_LiteOS/components/security/mbedtls/mbedtls-2.6.0/library\rsa.c ****                                  int (*f_rng)(void *, unsigned char *, size_t),
 692:C:/Users/lenovo/Desktop/liteos/Project2/BearPi_LiteOS/components/security/mbedtls/mbedtls-2.6.0/library\rsa.c ****                                  void *p_rng,
 693:C:/Users/lenovo/Desktop/liteos/Project2/BearPi_LiteOS/components/security/mbedtls/mbedtls-2.6.0/library\rsa.c ****                                  int mode, size_t ilen,
 694:C:/Users/lenovo/Desktop/liteos/Project2/BearPi_LiteOS/components/security/mbedtls/mbedtls-2.6.0/library\rsa.c ****                                  const unsigned char *input,
 695:C:/Users/lenovo/Desktop/liteos/Project2/BearPi_LiteOS/components/security/mbedtls/mbedtls-2.6.0/library\rsa.c ****                                  unsigned char *output )
 696:C:/Users/lenovo/Desktop/liteos/Project2/BearPi_LiteOS/components/security/mbedtls/mbedtls-2.6.0/library\rsa.c **** {
 697:C:/Users/lenovo/Desktop/liteos/Project2/BearPi_LiteOS/components/security/mbedtls/mbedtls-2.6.0/library\rsa.c ****     size_t nb_pad, olen;
 698:C:/Users/lenovo/Desktop/liteos/Project2/BearPi_LiteOS/components/security/mbedtls/mbedtls-2.6.0/library\rsa.c ****     int ret;
 699:C:/Users/lenovo/Desktop/liteos/Project2/BearPi_LiteOS/components/security/mbedtls/mbedtls-2.6.0/library\rsa.c ****     unsigned char *p = output;
 700:C:/Users/lenovo/Desktop/liteos/Project2/BearPi_LiteOS/components/security/mbedtls/mbedtls-2.6.0/library\rsa.c **** 
 701:C:/Users/lenovo/Desktop/liteos/Project2/BearPi_LiteOS/components/security/mbedtls/mbedtls-2.6.0/library\rsa.c ****     if( mode == MBEDTLS_RSA_PRIVATE && ctx->padding != MBEDTLS_RSA_PKCS_V15 )
 702:C:/Users/lenovo/Desktop/liteos/Project2/BearPi_LiteOS/components/security/mbedtls/mbedtls-2.6.0/library\rsa.c ****         return( MBEDTLS_ERR_RSA_BAD_INPUT_DATA );
 703:C:/Users/lenovo/Desktop/liteos/Project2/BearPi_LiteOS/components/security/mbedtls/mbedtls-2.6.0/library\rsa.c **** 
 704:C:/Users/lenovo/Desktop/liteos/Project2/BearPi_LiteOS/components/security/mbedtls/mbedtls-2.6.0/library\rsa.c ****     // We don't check p_rng because it won't be dereferenced here
 705:C:/Users/lenovo/Desktop/liteos/Project2/BearPi_LiteOS/components/security/mbedtls/mbedtls-2.6.0/library\rsa.c ****     if( f_rng == NULL || input == NULL || output == NULL )
 706:C:/Users/lenovo/Desktop/liteos/Project2/BearPi_LiteOS/components/security/mbedtls/mbedtls-2.6.0/library\rsa.c ****         return( MBEDTLS_ERR_RSA_BAD_INPUT_DATA );
 707:C:/Users/lenovo/Desktop/liteos/Project2/BearPi_LiteOS/components/security/mbedtls/mbedtls-2.6.0/library\rsa.c **** 
 708:C:/Users/lenovo/Desktop/liteos/Project2/BearPi_LiteOS/components/security/mbedtls/mbedtls-2.6.0/library\rsa.c ****     olen = ctx->len;
 709:C:/Users/lenovo/Desktop/liteos/Project2/BearPi_LiteOS/components/security/mbedtls/mbedtls-2.6.0/library\rsa.c **** 
 710:C:/Users/lenovo/Desktop/liteos/Project2/BearPi_LiteOS/components/security/mbedtls/mbedtls-2.6.0/library\rsa.c ****     /* first comparison checks for overflow */
 711:C:/Users/lenovo/Desktop/liteos/Project2/BearPi_LiteOS/components/security/mbedtls/mbedtls-2.6.0/library\rsa.c ****     if( ilen + 11 < ilen || olen < ilen + 11 )
 712:C:/Users/lenovo/Desktop/liteos/Project2/BearPi_LiteOS/components/security/mbedtls/mbedtls-2.6.0/library\rsa.c ****         return( MBEDTLS_ERR_RSA_BAD_INPUT_DATA );
 713:C:/Users/lenovo/Desktop/liteos/Project2/BearPi_LiteOS/components/security/mbedtls/mbedtls-2.6.0/library\rsa.c **** 
 714:C:/Users/lenovo/Desktop/liteos/Project2/BearPi_LiteOS/components/security/mbedtls/mbedtls-2.6.0/library\rsa.c ****     nb_pad = olen - 3 - ilen;
 715:C:/Users/lenovo/Desktop/liteos/Project2/BearPi_LiteOS/components/security/mbedtls/mbedtls-2.6.0/library\rsa.c **** 
 716:C:/Users/lenovo/Desktop/liteos/Project2/BearPi_LiteOS/components/security/mbedtls/mbedtls-2.6.0/library\rsa.c ****     *p++ = 0;
 717:C:/Users/lenovo/Desktop/liteos/Project2/BearPi_LiteOS/components/security/mbedtls/mbedtls-2.6.0/library\rsa.c ****     if( mode == MBEDTLS_RSA_PUBLIC )
 718:C:/Users/lenovo/Desktop/liteos/Project2/BearPi_LiteOS/components/security/mbedtls/mbedtls-2.6.0/library\rsa.c ****     {
 719:C:/Users/lenovo/Desktop/liteos/Project2/BearPi_LiteOS/components/security/mbedtls/mbedtls-2.6.0/library\rsa.c ****         *p++ = MBEDTLS_RSA_CRYPT;
 720:C:/Users/lenovo/Desktop/liteos/Project2/BearPi_LiteOS/components/security/mbedtls/mbedtls-2.6.0/library\rsa.c **** 
 721:C:/Users/lenovo/Desktop/liteos/Project2/BearPi_LiteOS/components/security/mbedtls/mbedtls-2.6.0/library\rsa.c ****         while( nb_pad-- > 0 )
 722:C:/Users/lenovo/Desktop/liteos/Project2/BearPi_LiteOS/components/security/mbedtls/mbedtls-2.6.0/library\rsa.c ****         {
 723:C:/Users/lenovo/Desktop/liteos/Project2/BearPi_LiteOS/components/security/mbedtls/mbedtls-2.6.0/library\rsa.c ****             int rng_dl = 100;
 724:C:/Users/lenovo/Desktop/liteos/Project2/BearPi_LiteOS/components/security/mbedtls/mbedtls-2.6.0/library\rsa.c **** 
 725:C:/Users/lenovo/Desktop/liteos/Project2/BearPi_LiteOS/components/security/mbedtls/mbedtls-2.6.0/library\rsa.c ****             do {
 726:C:/Users/lenovo/Desktop/liteos/Project2/BearPi_LiteOS/components/security/mbedtls/mbedtls-2.6.0/library\rsa.c ****                 ret = f_rng( p_rng, p, 1 );
 727:C:/Users/lenovo/Desktop/liteos/Project2/BearPi_LiteOS/components/security/mbedtls/mbedtls-2.6.0/library\rsa.c ****             } while( *p == 0 && --rng_dl && ret == 0 );
 728:C:/Users/lenovo/Desktop/liteos/Project2/BearPi_LiteOS/components/security/mbedtls/mbedtls-2.6.0/library\rsa.c **** 
 729:C:/Users/lenovo/Desktop/liteos/Project2/BearPi_LiteOS/components/security/mbedtls/mbedtls-2.6.0/library\rsa.c ****             /* Check if RNG failed to generate data */
 730:C:/Users/lenovo/Desktop/liteos/Project2/BearPi_LiteOS/components/security/mbedtls/mbedtls-2.6.0/library\rsa.c ****             if( rng_dl == 0 || ret != 0 )
 731:C:/Users/lenovo/Desktop/liteos/Project2/BearPi_LiteOS/components/security/mbedtls/mbedtls-2.6.0/library\rsa.c ****                 return( MBEDTLS_ERR_RSA_RNG_FAILED + ret );
 732:C:/Users/lenovo/Desktop/liteos/Project2/BearPi_LiteOS/components/security/mbedtls/mbedtls-2.6.0/library\rsa.c **** 
 733:C:/Users/lenovo/Desktop/liteos/Project2/BearPi_LiteOS/components/security/mbedtls/mbedtls-2.6.0/library\rsa.c ****             p++;
 734:C:/Users/lenovo/Desktop/liteos/Project2/BearPi_LiteOS/components/security/mbedtls/mbedtls-2.6.0/library\rsa.c ****         }
 735:C:/Users/lenovo/Desktop/liteos/Project2/BearPi_LiteOS/components/security/mbedtls/mbedtls-2.6.0/library\rsa.c ****     }
ARM GAS  c:\Users\lenovo\AppData\Local\Temp\ccVehGBj.s 			page 48


 736:C:/Users/lenovo/Desktop/liteos/Project2/BearPi_LiteOS/components/security/mbedtls/mbedtls-2.6.0/library\rsa.c ****     else
 737:C:/Users/lenovo/Desktop/liteos/Project2/BearPi_LiteOS/components/security/mbedtls/mbedtls-2.6.0/library\rsa.c ****     {
 738:C:/Users/lenovo/Desktop/liteos/Project2/BearPi_LiteOS/components/security/mbedtls/mbedtls-2.6.0/library\rsa.c ****         *p++ = MBEDTLS_RSA_SIGN;
 739:C:/Users/lenovo/Desktop/liteos/Project2/BearPi_LiteOS/components/security/mbedtls/mbedtls-2.6.0/library\rsa.c **** 
 740:C:/Users/lenovo/Desktop/liteos/Project2/BearPi_LiteOS/components/security/mbedtls/mbedtls-2.6.0/library\rsa.c ****         while( nb_pad-- > 0 )
 741:C:/Users/lenovo/Desktop/liteos/Project2/BearPi_LiteOS/components/security/mbedtls/mbedtls-2.6.0/library\rsa.c ****             *p++ = 0xFF;
 742:C:/Users/lenovo/Desktop/liteos/Project2/BearPi_LiteOS/components/security/mbedtls/mbedtls-2.6.0/library\rsa.c ****     }
 743:C:/Users/lenovo/Desktop/liteos/Project2/BearPi_LiteOS/components/security/mbedtls/mbedtls-2.6.0/library\rsa.c **** 
 744:C:/Users/lenovo/Desktop/liteos/Project2/BearPi_LiteOS/components/security/mbedtls/mbedtls-2.6.0/library\rsa.c ****     *p++ = 0;
 745:C:/Users/lenovo/Desktop/liteos/Project2/BearPi_LiteOS/components/security/mbedtls/mbedtls-2.6.0/library\rsa.c ****     memcpy( p, input, ilen );
 746:C:/Users/lenovo/Desktop/liteos/Project2/BearPi_LiteOS/components/security/mbedtls/mbedtls-2.6.0/library\rsa.c **** 
 747:C:/Users/lenovo/Desktop/liteos/Project2/BearPi_LiteOS/components/security/mbedtls/mbedtls-2.6.0/library\rsa.c ****     return( ( mode == MBEDTLS_RSA_PUBLIC )
 748:C:/Users/lenovo/Desktop/liteos/Project2/BearPi_LiteOS/components/security/mbedtls/mbedtls-2.6.0/library\rsa.c ****             ? mbedtls_rsa_public(  ctx, output, output )
 749:C:/Users/lenovo/Desktop/liteos/Project2/BearPi_LiteOS/components/security/mbedtls/mbedtls-2.6.0/library\rsa.c ****             : mbedtls_rsa_private( ctx, f_rng, p_rng, output, output ) );
 750:C:/Users/lenovo/Desktop/liteos/Project2/BearPi_LiteOS/components/security/mbedtls/mbedtls-2.6.0/library\rsa.c **** }
 751:C:/Users/lenovo/Desktop/liteos/Project2/BearPi_LiteOS/components/security/mbedtls/mbedtls-2.6.0/library\rsa.c **** #endif /* MBEDTLS_PKCS1_V15 */
 752:C:/Users/lenovo/Desktop/liteos/Project2/BearPi_LiteOS/components/security/mbedtls/mbedtls-2.6.0/library\rsa.c **** 
 753:C:/Users/lenovo/Desktop/liteos/Project2/BearPi_LiteOS/components/security/mbedtls/mbedtls-2.6.0/library\rsa.c **** /*
 754:C:/Users/lenovo/Desktop/liteos/Project2/BearPi_LiteOS/components/security/mbedtls/mbedtls-2.6.0/library\rsa.c ****  * Add the message padding, then do an RSA operation
 755:C:/Users/lenovo/Desktop/liteos/Project2/BearPi_LiteOS/components/security/mbedtls/mbedtls-2.6.0/library\rsa.c ****  */
 756:C:/Users/lenovo/Desktop/liteos/Project2/BearPi_LiteOS/components/security/mbedtls/mbedtls-2.6.0/library\rsa.c **** int mbedtls_rsa_pkcs1_encrypt( mbedtls_rsa_context *ctx,
 757:C:/Users/lenovo/Desktop/liteos/Project2/BearPi_LiteOS/components/security/mbedtls/mbedtls-2.6.0/library\rsa.c ****                        int (*f_rng)(void *, unsigned char *, size_t),
 758:C:/Users/lenovo/Desktop/liteos/Project2/BearPi_LiteOS/components/security/mbedtls/mbedtls-2.6.0/library\rsa.c ****                        void *p_rng,
 759:C:/Users/lenovo/Desktop/liteos/Project2/BearPi_LiteOS/components/security/mbedtls/mbedtls-2.6.0/library\rsa.c ****                        int mode, size_t ilen,
 760:C:/Users/lenovo/Desktop/liteos/Project2/BearPi_LiteOS/components/security/mbedtls/mbedtls-2.6.0/library\rsa.c ****                        const unsigned char *input,
 761:C:/Users/lenovo/Desktop/liteos/Project2/BearPi_LiteOS/components/security/mbedtls/mbedtls-2.6.0/library\rsa.c ****                        unsigned char *output )
 762:C:/Users/lenovo/Desktop/liteos/Project2/BearPi_LiteOS/components/security/mbedtls/mbedtls-2.6.0/library\rsa.c **** {
 1783              		.loc 1 762 0
 1784              		.cfi_startproc
 1785              		@ args = 12, pretend = 0, frame = 0
 1786              		@ frame_needed = 0, uses_anonymous_args = 0
 1787              	.LVL295:
 1788 0000 10B5     		push	{r4, lr}
 1789              	.LCFI26:
 1790              		.cfi_def_cfa_offset 8
 1791              		.cfi_offset 4, -8
 1792              		.cfi_offset 14, -4
 1793 0002 86B0     		sub	sp, sp, #24
 1794              	.LCFI27:
 1795              		.cfi_def_cfa_offset 32
 763:C:/Users/lenovo/Desktop/liteos/Project2/BearPi_LiteOS/components/security/mbedtls/mbedtls-2.6.0/library\rsa.c ****     switch( ctx->padding )
 1796              		.loc 1 763 0
 1797 0004 D0F8A440 		ldr	r4, [r0, #164]
 1798 0008 012C     		cmp	r4, #1
 1799 000a 0CD1     		bne	.L109
 764:C:/Users/lenovo/Desktop/liteos/Project2/BearPi_LiteOS/components/security/mbedtls/mbedtls-2.6.0/library\rsa.c ****     {
 765:C:/Users/lenovo/Desktop/liteos/Project2/BearPi_LiteOS/components/security/mbedtls/mbedtls-2.6.0/library\rsa.c **** #if defined(MBEDTLS_PKCS1_V15)
 766:C:/Users/lenovo/Desktop/liteos/Project2/BearPi_LiteOS/components/security/mbedtls/mbedtls-2.6.0/library\rsa.c ****         case MBEDTLS_RSA_PKCS_V15:
 767:C:/Users/lenovo/Desktop/liteos/Project2/BearPi_LiteOS/components/security/mbedtls/mbedtls-2.6.0/library\rsa.c ****             return mbedtls_rsa_rsaes_pkcs1_v15_encrypt( ctx, f_rng, p_rng, mode, ilen,
 768:C:/Users/lenovo/Desktop/liteos/Project2/BearPi_LiteOS/components/security/mbedtls/mbedtls-2.6.0/library\rsa.c ****                                                 input, output );
 769:C:/Users/lenovo/Desktop/liteos/Project2/BearPi_LiteOS/components/security/mbedtls/mbedtls-2.6.0/library\rsa.c **** #endif
 770:C:/Users/lenovo/Desktop/liteos/Project2/BearPi_LiteOS/components/security/mbedtls/mbedtls-2.6.0/library\rsa.c **** 
 771:C:/Users/lenovo/Desktop/liteos/Project2/BearPi_LiteOS/components/security/mbedtls/mbedtls-2.6.0/library\rsa.c **** #if defined(MBEDTLS_PKCS1_V21)
 772:C:/Users/lenovo/Desktop/liteos/Project2/BearPi_LiteOS/components/security/mbedtls/mbedtls-2.6.0/library\rsa.c ****         case MBEDTLS_RSA_PKCS_V21:
 773:C:/Users/lenovo/Desktop/liteos/Project2/BearPi_LiteOS/components/security/mbedtls/mbedtls-2.6.0/library\rsa.c ****             return mbedtls_rsa_rsaes_oaep_encrypt( ctx, f_rng, p_rng, mode, NULL, 0,
 1800              		.loc 1 773 0
 1801 000c 0A9C     		ldr	r4, [sp, #40]
ARM GAS  c:\Users\lenovo\AppData\Local\Temp\ccVehGBj.s 			page 49


 1802 000e 0494     		str	r4, [sp, #16]
 1803 0010 099C     		ldr	r4, [sp, #36]
 1804 0012 0394     		str	r4, [sp, #12]
 1805 0014 089C     		ldr	r4, [sp, #32]
 1806 0016 0294     		str	r4, [sp, #8]
 1807 0018 0024     		movs	r4, #0
 1808 001a 0194     		str	r4, [sp, #4]
 1809 001c 0094     		str	r4, [sp]
 1810 001e FFF7FEFF 		bl	mbedtls_rsa_rsaes_oaep_encrypt
 1811              	.LVL296:
 1812              	.L105:
 774:C:/Users/lenovo/Desktop/liteos/Project2/BearPi_LiteOS/components/security/mbedtls/mbedtls-2.6.0/library\rsa.c ****                                            ilen, input, output );
 775:C:/Users/lenovo/Desktop/liteos/Project2/BearPi_LiteOS/components/security/mbedtls/mbedtls-2.6.0/library\rsa.c **** #endif
 776:C:/Users/lenovo/Desktop/liteos/Project2/BearPi_LiteOS/components/security/mbedtls/mbedtls-2.6.0/library\rsa.c **** 
 777:C:/Users/lenovo/Desktop/liteos/Project2/BearPi_LiteOS/components/security/mbedtls/mbedtls-2.6.0/library\rsa.c ****         default:
 778:C:/Users/lenovo/Desktop/liteos/Project2/BearPi_LiteOS/components/security/mbedtls/mbedtls-2.6.0/library\rsa.c ****             return( MBEDTLS_ERR_RSA_INVALID_PADDING );
 779:C:/Users/lenovo/Desktop/liteos/Project2/BearPi_LiteOS/components/security/mbedtls/mbedtls-2.6.0/library\rsa.c ****     }
 780:C:/Users/lenovo/Desktop/liteos/Project2/BearPi_LiteOS/components/security/mbedtls/mbedtls-2.6.0/library\rsa.c **** }
 1813              		.loc 1 780 0
 1814 0022 06B0     		add	sp, sp, #24
 1815              	.LCFI28:
 1816              		.cfi_remember_state
 1817              		.cfi_def_cfa_offset 8
 1818              		@ sp needed
 1819 0024 10BD     		pop	{r4, pc}
 1820              	.LVL297:
 1821              	.L109:
 1822              	.LCFI29:
 1823              		.cfi_restore_state
 778:C:/Users/lenovo/Desktop/liteos/Project2/BearPi_LiteOS/components/security/mbedtls/mbedtls-2.6.0/library\rsa.c ****     }
 1824              		.loc 1 778 0
 1825 0026 0148     		ldr	r0, .L111
 1826              	.LVL298:
 1827 0028 FBE7     		b	.L105
 1828              	.L112:
 1829 002a 00BF     		.align	2
 1830              	.L111:
 1831 002c 00BFFFFF 		.word	-16640
 1832              		.cfi_endproc
 1833              	.LFE23:
 1835              		.section	.text.mbedtls_rsa_rsaes_oaep_decrypt,"ax",%progbits
 1836              		.align	1
 1837              		.global	mbedtls_rsa_rsaes_oaep_decrypt
 1838              		.syntax unified
 1839              		.thumb
 1840              		.thumb_func
 1841              		.fpu fpv4-sp-d16
 1843              	mbedtls_rsa_rsaes_oaep_decrypt:
 1844              	.LFB24:
 781:C:/Users/lenovo/Desktop/liteos/Project2/BearPi_LiteOS/components/security/mbedtls/mbedtls-2.6.0/library\rsa.c **** 
 782:C:/Users/lenovo/Desktop/liteos/Project2/BearPi_LiteOS/components/security/mbedtls/mbedtls-2.6.0/library\rsa.c **** #if defined(MBEDTLS_PKCS1_V21)
 783:C:/Users/lenovo/Desktop/liteos/Project2/BearPi_LiteOS/components/security/mbedtls/mbedtls-2.6.0/library\rsa.c **** /*
 784:C:/Users/lenovo/Desktop/liteos/Project2/BearPi_LiteOS/components/security/mbedtls/mbedtls-2.6.0/library\rsa.c ****  * Implementation of the PKCS#1 v2.1 RSAES-OAEP-DECRYPT function
 785:C:/Users/lenovo/Desktop/liteos/Project2/BearPi_LiteOS/components/security/mbedtls/mbedtls-2.6.0/library\rsa.c ****  */
 786:C:/Users/lenovo/Desktop/liteos/Project2/BearPi_LiteOS/components/security/mbedtls/mbedtls-2.6.0/library\rsa.c **** int mbedtls_rsa_rsaes_oaep_decrypt( mbedtls_rsa_context *ctx,
 787:C:/Users/lenovo/Desktop/liteos/Project2/BearPi_LiteOS/components/security/mbedtls/mbedtls-2.6.0/library\rsa.c ****                             int (*f_rng)(void *, unsigned char *, size_t),
 788:C:/Users/lenovo/Desktop/liteos/Project2/BearPi_LiteOS/components/security/mbedtls/mbedtls-2.6.0/library\rsa.c ****                             void *p_rng,
ARM GAS  c:\Users\lenovo\AppData\Local\Temp\ccVehGBj.s 			page 50


 789:C:/Users/lenovo/Desktop/liteos/Project2/BearPi_LiteOS/components/security/mbedtls/mbedtls-2.6.0/library\rsa.c ****                             int mode,
 790:C:/Users/lenovo/Desktop/liteos/Project2/BearPi_LiteOS/components/security/mbedtls/mbedtls-2.6.0/library\rsa.c ****                             const unsigned char *label, size_t label_len,
 791:C:/Users/lenovo/Desktop/liteos/Project2/BearPi_LiteOS/components/security/mbedtls/mbedtls-2.6.0/library\rsa.c ****                             size_t *olen,
 792:C:/Users/lenovo/Desktop/liteos/Project2/BearPi_LiteOS/components/security/mbedtls/mbedtls-2.6.0/library\rsa.c ****                             const unsigned char *input,
 793:C:/Users/lenovo/Desktop/liteos/Project2/BearPi_LiteOS/components/security/mbedtls/mbedtls-2.6.0/library\rsa.c ****                             unsigned char *output,
 794:C:/Users/lenovo/Desktop/liteos/Project2/BearPi_LiteOS/components/security/mbedtls/mbedtls-2.6.0/library\rsa.c ****                             size_t output_max_len )
 795:C:/Users/lenovo/Desktop/liteos/Project2/BearPi_LiteOS/components/security/mbedtls/mbedtls-2.6.0/library\rsa.c **** {
 1845              		.loc 1 795 0
 1846              		.cfi_startproc
 1847              		@ args = 24, pretend = 0, frame = 1080
 1848              		@ frame_needed = 0, uses_anonymous_args = 0
 1849              	.LVL299:
 1850 0000 2DE9F04F 		push	{r4, r5, r6, r7, r8, r9, r10, fp, lr}
 1851              	.LCFI30:
 1852              		.cfi_def_cfa_offset 36
 1853              		.cfi_offset 4, -36
 1854              		.cfi_offset 5, -32
 1855              		.cfi_offset 6, -28
 1856              		.cfi_offset 7, -24
 1857              		.cfi_offset 8, -20
 1858              		.cfi_offset 9, -16
 1859              		.cfi_offset 10, -12
 1860              		.cfi_offset 11, -8
 1861              		.cfi_offset 14, -4
 1862 0004 ADF2444D 		subw	sp, sp, #1092
 1863              	.LCFI31:
 1864              		.cfi_def_cfa_offset 1128
 796:C:/Users/lenovo/Desktop/liteos/Project2/BearPi_LiteOS/components/security/mbedtls/mbedtls-2.6.0/library\rsa.c ****     int ret;
 797:C:/Users/lenovo/Desktop/liteos/Project2/BearPi_LiteOS/components/security/mbedtls/mbedtls-2.6.0/library\rsa.c ****     size_t ilen, i, pad_len;
 798:C:/Users/lenovo/Desktop/liteos/Project2/BearPi_LiteOS/components/security/mbedtls/mbedtls-2.6.0/library\rsa.c ****     unsigned char *p, bad, pad_done;
 799:C:/Users/lenovo/Desktop/liteos/Project2/BearPi_LiteOS/components/security/mbedtls/mbedtls-2.6.0/library\rsa.c ****     unsigned char buf[MBEDTLS_MPI_MAX_SIZE];
 800:C:/Users/lenovo/Desktop/liteos/Project2/BearPi_LiteOS/components/security/mbedtls/mbedtls-2.6.0/library\rsa.c ****     unsigned char lhash[MBEDTLS_MD_MAX_SIZE];
 801:C:/Users/lenovo/Desktop/liteos/Project2/BearPi_LiteOS/components/security/mbedtls/mbedtls-2.6.0/library\rsa.c ****     unsigned int hlen;
 802:C:/Users/lenovo/Desktop/liteos/Project2/BearPi_LiteOS/components/security/mbedtls/mbedtls-2.6.0/library\rsa.c ****     const mbedtls_md_info_t *md_info;
 803:C:/Users/lenovo/Desktop/liteos/Project2/BearPi_LiteOS/components/security/mbedtls/mbedtls-2.6.0/library\rsa.c ****     mbedtls_md_context_t md_ctx;
 804:C:/Users/lenovo/Desktop/liteos/Project2/BearPi_LiteOS/components/security/mbedtls/mbedtls-2.6.0/library\rsa.c **** 
 805:C:/Users/lenovo/Desktop/liteos/Project2/BearPi_LiteOS/components/security/mbedtls/mbedtls-2.6.0/library\rsa.c ****     /*
 806:C:/Users/lenovo/Desktop/liteos/Project2/BearPi_LiteOS/components/security/mbedtls/mbedtls-2.6.0/library\rsa.c ****      * Parameters sanity checks
 807:C:/Users/lenovo/Desktop/liteos/Project2/BearPi_LiteOS/components/security/mbedtls/mbedtls-2.6.0/library\rsa.c ****      */
 808:C:/Users/lenovo/Desktop/liteos/Project2/BearPi_LiteOS/components/security/mbedtls/mbedtls-2.6.0/library\rsa.c ****     if( mode == MBEDTLS_RSA_PRIVATE && ctx->padding != MBEDTLS_RSA_PKCS_V21 )
 1865              		.loc 1 808 0
 1866 0008 012B     		cmp	r3, #1
 1867 000a 34D0     		beq	.L131
 1868              	.L114:
 809:C:/Users/lenovo/Desktop/liteos/Project2/BearPi_LiteOS/components/security/mbedtls/mbedtls-2.6.0/library\rsa.c ****         return( MBEDTLS_ERR_RSA_BAD_INPUT_DATA );
 810:C:/Users/lenovo/Desktop/liteos/Project2/BearPi_LiteOS/components/security/mbedtls/mbedtls-2.6.0/library\rsa.c **** 
 811:C:/Users/lenovo/Desktop/liteos/Project2/BearPi_LiteOS/components/security/mbedtls/mbedtls-2.6.0/library\rsa.c ****     ilen = ctx->len;
 1869              		.loc 1 811 0
 1870 000c 4668     		ldr	r6, [r0, #4]
 1871              	.LVL300:
 812:C:/Users/lenovo/Desktop/liteos/Project2/BearPi_LiteOS/components/security/mbedtls/mbedtls-2.6.0/library\rsa.c **** 
 813:C:/Users/lenovo/Desktop/liteos/Project2/BearPi_LiteOS/components/security/mbedtls/mbedtls-2.6.0/library\rsa.c ****     if( ilen < 16 || ilen > sizeof( buf ) )
 1872              		.loc 1 813 0
 1873 000e A6F11004 		sub	r4, r6, #16
 1874 0012 B4F57C7F 		cmp	r4, #1008
 1875 0016 00F2AE80 		bhi	.L125
 1876 001a 1D46     		mov	r5, r3
ARM GAS  c:\Users\lenovo\AppData\Local\Temp\ccVehGBj.s 			page 51


 1877 001c 9046     		mov	r8, r2
 1878 001e 0391     		str	r1, [sp, #12]
 1879 0020 0446     		mov	r4, r0
 814:C:/Users/lenovo/Desktop/liteos/Project2/BearPi_LiteOS/components/security/mbedtls/mbedtls-2.6.0/library\rsa.c ****         return( MBEDTLS_ERR_RSA_BAD_INPUT_DATA );
 815:C:/Users/lenovo/Desktop/liteos/Project2/BearPi_LiteOS/components/security/mbedtls/mbedtls-2.6.0/library\rsa.c **** 
 816:C:/Users/lenovo/Desktop/liteos/Project2/BearPi_LiteOS/components/security/mbedtls/mbedtls-2.6.0/library\rsa.c ****     md_info = mbedtls_md_info_from_type( (mbedtls_md_type_t) ctx->hash_id );
 1880              		.loc 1 816 0
 1881 0022 90F8A800 		ldrb	r0, [r0, #168]	@ zero_extendqisi2
 1882              	.LVL301:
 1883 0026 FFF7FEFF 		bl	mbedtls_md_info_from_type
 1884              	.LVL302:
 817:C:/Users/lenovo/Desktop/liteos/Project2/BearPi_LiteOS/components/security/mbedtls/mbedtls-2.6.0/library\rsa.c ****     if( md_info == NULL )
 1885              		.loc 1 817 0
 1886 002a 8346     		mov	fp, r0
 1887 002c 0028     		cmp	r0, #0
 1888 002e 00F0A480 		beq	.L126
 818:C:/Users/lenovo/Desktop/liteos/Project2/BearPi_LiteOS/components/security/mbedtls/mbedtls-2.6.0/library\rsa.c ****         return( MBEDTLS_ERR_RSA_BAD_INPUT_DATA );
 819:C:/Users/lenovo/Desktop/liteos/Project2/BearPi_LiteOS/components/security/mbedtls/mbedtls-2.6.0/library\rsa.c **** 
 820:C:/Users/lenovo/Desktop/liteos/Project2/BearPi_LiteOS/components/security/mbedtls/mbedtls-2.6.0/library\rsa.c ****     hlen = mbedtls_md_get_size( md_info );
 1889              		.loc 1 820 0
 1890 0032 FFF7FEFF 		bl	mbedtls_md_get_size
 1891              	.LVL303:
 1892 0036 0746     		mov	r7, r0
 1893 0038 8146     		mov	r9, r0
 1894              	.LVL304:
 821:C:/Users/lenovo/Desktop/liteos/Project2/BearPi_LiteOS/components/security/mbedtls/mbedtls-2.6.0/library\rsa.c **** 
 822:C:/Users/lenovo/Desktop/liteos/Project2/BearPi_LiteOS/components/security/mbedtls/mbedtls-2.6.0/library\rsa.c ****     // checking for integer underflow
 823:C:/Users/lenovo/Desktop/liteos/Project2/BearPi_LiteOS/components/security/mbedtls/mbedtls-2.6.0/library\rsa.c ****     if( 2 * hlen + 2 > ilen )
 1895              		.loc 1 823 0
 1896 003a 00F1010A 		add	r10, r0, #1
 1897 003e B6EB4A0F 		cmp	r6, r10, lsl #1
 1898 0042 C0F09C80 		bcc	.L127
 824:C:/Users/lenovo/Desktop/liteos/Project2/BearPi_LiteOS/components/security/mbedtls/mbedtls-2.6.0/library\rsa.c ****         return( MBEDTLS_ERR_RSA_BAD_INPUT_DATA );
 825:C:/Users/lenovo/Desktop/liteos/Project2/BearPi_LiteOS/components/security/mbedtls/mbedtls-2.6.0/library\rsa.c **** 
 826:C:/Users/lenovo/Desktop/liteos/Project2/BearPi_LiteOS/components/security/mbedtls/mbedtls-2.6.0/library\rsa.c ****     /*
 827:C:/Users/lenovo/Desktop/liteos/Project2/BearPi_LiteOS/components/security/mbedtls/mbedtls-2.6.0/library\rsa.c ****      * RSA operation
 828:C:/Users/lenovo/Desktop/liteos/Project2/BearPi_LiteOS/components/security/mbedtls/mbedtls-2.6.0/library\rsa.c ****      */
 829:C:/Users/lenovo/Desktop/liteos/Project2/BearPi_LiteOS/components/security/mbedtls/mbedtls-2.6.0/library\rsa.c ****     ret = ( mode == MBEDTLS_RSA_PUBLIC )
 830:C:/Users/lenovo/Desktop/liteos/Project2/BearPi_LiteOS/components/security/mbedtls/mbedtls-2.6.0/library\rsa.c ****           ? mbedtls_rsa_public(  ctx, input, buf )
 831:C:/Users/lenovo/Desktop/liteos/Project2/BearPi_LiteOS/components/security/mbedtls/mbedtls-2.6.0/library\rsa.c ****           : mbedtls_rsa_private( ctx, f_rng, p_rng, input, buf );
 1899              		.loc 1 831 0
 1900 0046 E5B9     		cbnz	r5, .L116
 1901              		.loc 1 831 0 is_stmt 0 discriminator 1
 1902 0048 10AA     		add	r2, sp, #64
 1903 004a DDF87414 		ldr	r1, [sp, #1140]
 1904 004e 2046     		mov	r0, r4
 1905              	.LVL305:
 1906 0050 FFF7FEFF 		bl	mbedtls_rsa_public
 1907              	.LVL306:
 1908 0054 0546     		mov	r5, r0
 1909              	.LVL307:
 1910              	.L117:
 832:C:/Users/lenovo/Desktop/liteos/Project2/BearPi_LiteOS/components/security/mbedtls/mbedtls-2.6.0/library\rsa.c **** 
 833:C:/Users/lenovo/Desktop/liteos/Project2/BearPi_LiteOS/components/security/mbedtls/mbedtls-2.6.0/library\rsa.c ****     if( ret != 0 )
 1911              		.loc 1 833 0 is_stmt 1
 1912 0056 FDB1     		cbz	r5, .L132
 1913              	.LVL308:
ARM GAS  c:\Users\lenovo\AppData\Local\Temp\ccVehGBj.s 			page 52


 1914              	.L118:
 834:C:/Users/lenovo/Desktop/liteos/Project2/BearPi_LiteOS/components/security/mbedtls/mbedtls-2.6.0/library\rsa.c ****         goto cleanup;
 835:C:/Users/lenovo/Desktop/liteos/Project2/BearPi_LiteOS/components/security/mbedtls/mbedtls-2.6.0/library\rsa.c **** 
 836:C:/Users/lenovo/Desktop/liteos/Project2/BearPi_LiteOS/components/security/mbedtls/mbedtls-2.6.0/library\rsa.c ****     /*
 837:C:/Users/lenovo/Desktop/liteos/Project2/BearPi_LiteOS/components/security/mbedtls/mbedtls-2.6.0/library\rsa.c ****      * Unmask data and generate lHash
 838:C:/Users/lenovo/Desktop/liteos/Project2/BearPi_LiteOS/components/security/mbedtls/mbedtls-2.6.0/library\rsa.c ****      */
 839:C:/Users/lenovo/Desktop/liteos/Project2/BearPi_LiteOS/components/security/mbedtls/mbedtls-2.6.0/library\rsa.c ****     mbedtls_md_init( &md_ctx );
 840:C:/Users/lenovo/Desktop/liteos/Project2/BearPi_LiteOS/components/security/mbedtls/mbedtls-2.6.0/library\rsa.c ****     if( ( ret = mbedtls_md_setup( &md_ctx, md_info, 0 ) ) != 0 )
 841:C:/Users/lenovo/Desktop/liteos/Project2/BearPi_LiteOS/components/security/mbedtls/mbedtls-2.6.0/library\rsa.c ****     {
 842:C:/Users/lenovo/Desktop/liteos/Project2/BearPi_LiteOS/components/security/mbedtls/mbedtls-2.6.0/library\rsa.c ****         mbedtls_md_free( &md_ctx );
 843:C:/Users/lenovo/Desktop/liteos/Project2/BearPi_LiteOS/components/security/mbedtls/mbedtls-2.6.0/library\rsa.c ****         goto cleanup;
 844:C:/Users/lenovo/Desktop/liteos/Project2/BearPi_LiteOS/components/security/mbedtls/mbedtls-2.6.0/library\rsa.c ****     }
 845:C:/Users/lenovo/Desktop/liteos/Project2/BearPi_LiteOS/components/security/mbedtls/mbedtls-2.6.0/library\rsa.c **** 
 846:C:/Users/lenovo/Desktop/liteos/Project2/BearPi_LiteOS/components/security/mbedtls/mbedtls-2.6.0/library\rsa.c **** 
 847:C:/Users/lenovo/Desktop/liteos/Project2/BearPi_LiteOS/components/security/mbedtls/mbedtls-2.6.0/library\rsa.c ****     /* Generate lHash */
 848:C:/Users/lenovo/Desktop/liteos/Project2/BearPi_LiteOS/components/security/mbedtls/mbedtls-2.6.0/library\rsa.c ****     mbedtls_md( md_info, label, label_len, lhash );
 849:C:/Users/lenovo/Desktop/liteos/Project2/BearPi_LiteOS/components/security/mbedtls/mbedtls-2.6.0/library\rsa.c **** 
 850:C:/Users/lenovo/Desktop/liteos/Project2/BearPi_LiteOS/components/security/mbedtls/mbedtls-2.6.0/library\rsa.c ****     /* seed: Apply seedMask to maskedSeed */
 851:C:/Users/lenovo/Desktop/liteos/Project2/BearPi_LiteOS/components/security/mbedtls/mbedtls-2.6.0/library\rsa.c ****     mgf_mask( buf + 1, hlen, buf + hlen + 1, ilen - hlen - 1,
 852:C:/Users/lenovo/Desktop/liteos/Project2/BearPi_LiteOS/components/security/mbedtls/mbedtls-2.6.0/library\rsa.c ****                &md_ctx );
 853:C:/Users/lenovo/Desktop/liteos/Project2/BearPi_LiteOS/components/security/mbedtls/mbedtls-2.6.0/library\rsa.c **** 
 854:C:/Users/lenovo/Desktop/liteos/Project2/BearPi_LiteOS/components/security/mbedtls/mbedtls-2.6.0/library\rsa.c ****     /* DB: Apply dbMask to maskedDB */
 855:C:/Users/lenovo/Desktop/liteos/Project2/BearPi_LiteOS/components/security/mbedtls/mbedtls-2.6.0/library\rsa.c ****     mgf_mask( buf + hlen + 1, ilen - hlen - 1, buf + 1, hlen,
 856:C:/Users/lenovo/Desktop/liteos/Project2/BearPi_LiteOS/components/security/mbedtls/mbedtls-2.6.0/library\rsa.c ****                &md_ctx );
 857:C:/Users/lenovo/Desktop/liteos/Project2/BearPi_LiteOS/components/security/mbedtls/mbedtls-2.6.0/library\rsa.c **** 
 858:C:/Users/lenovo/Desktop/liteos/Project2/BearPi_LiteOS/components/security/mbedtls/mbedtls-2.6.0/library\rsa.c ****     mbedtls_md_free( &md_ctx );
 859:C:/Users/lenovo/Desktop/liteos/Project2/BearPi_LiteOS/components/security/mbedtls/mbedtls-2.6.0/library\rsa.c **** 
 860:C:/Users/lenovo/Desktop/liteos/Project2/BearPi_LiteOS/components/security/mbedtls/mbedtls-2.6.0/library\rsa.c ****     /*
 861:C:/Users/lenovo/Desktop/liteos/Project2/BearPi_LiteOS/components/security/mbedtls/mbedtls-2.6.0/library\rsa.c ****      * Check contents, in "constant-time"
 862:C:/Users/lenovo/Desktop/liteos/Project2/BearPi_LiteOS/components/security/mbedtls/mbedtls-2.6.0/library\rsa.c ****      */
 863:C:/Users/lenovo/Desktop/liteos/Project2/BearPi_LiteOS/components/security/mbedtls/mbedtls-2.6.0/library\rsa.c ****     p = buf;
 864:C:/Users/lenovo/Desktop/liteos/Project2/BearPi_LiteOS/components/security/mbedtls/mbedtls-2.6.0/library\rsa.c ****     bad = 0;
 865:C:/Users/lenovo/Desktop/liteos/Project2/BearPi_LiteOS/components/security/mbedtls/mbedtls-2.6.0/library\rsa.c **** 
 866:C:/Users/lenovo/Desktop/liteos/Project2/BearPi_LiteOS/components/security/mbedtls/mbedtls-2.6.0/library\rsa.c ****     bad |= *p++; /* First byte must be 0 */
 867:C:/Users/lenovo/Desktop/liteos/Project2/BearPi_LiteOS/components/security/mbedtls/mbedtls-2.6.0/library\rsa.c **** 
 868:C:/Users/lenovo/Desktop/liteos/Project2/BearPi_LiteOS/components/security/mbedtls/mbedtls-2.6.0/library\rsa.c ****     p += hlen; /* Skip seed */
 869:C:/Users/lenovo/Desktop/liteos/Project2/BearPi_LiteOS/components/security/mbedtls/mbedtls-2.6.0/library\rsa.c **** 
 870:C:/Users/lenovo/Desktop/liteos/Project2/BearPi_LiteOS/components/security/mbedtls/mbedtls-2.6.0/library\rsa.c ****     /* Check lHash */
 871:C:/Users/lenovo/Desktop/liteos/Project2/BearPi_LiteOS/components/security/mbedtls/mbedtls-2.6.0/library\rsa.c ****     for( i = 0; i < hlen; i++ )
 872:C:/Users/lenovo/Desktop/liteos/Project2/BearPi_LiteOS/components/security/mbedtls/mbedtls-2.6.0/library\rsa.c ****         bad |= lhash[i] ^ *p++;
 873:C:/Users/lenovo/Desktop/liteos/Project2/BearPi_LiteOS/components/security/mbedtls/mbedtls-2.6.0/library\rsa.c **** 
 874:C:/Users/lenovo/Desktop/liteos/Project2/BearPi_LiteOS/components/security/mbedtls/mbedtls-2.6.0/library\rsa.c ****     /* Get zero-padding len, but always read till end of buffer
 875:C:/Users/lenovo/Desktop/liteos/Project2/BearPi_LiteOS/components/security/mbedtls/mbedtls-2.6.0/library\rsa.c ****      * (minus one, for the 01 byte) */
 876:C:/Users/lenovo/Desktop/liteos/Project2/BearPi_LiteOS/components/security/mbedtls/mbedtls-2.6.0/library\rsa.c ****     pad_len = 0;
 877:C:/Users/lenovo/Desktop/liteos/Project2/BearPi_LiteOS/components/security/mbedtls/mbedtls-2.6.0/library\rsa.c ****     pad_done = 0;
 878:C:/Users/lenovo/Desktop/liteos/Project2/BearPi_LiteOS/components/security/mbedtls/mbedtls-2.6.0/library\rsa.c ****     for( i = 0; i < ilen - 2 * hlen - 2; i++ )
 879:C:/Users/lenovo/Desktop/liteos/Project2/BearPi_LiteOS/components/security/mbedtls/mbedtls-2.6.0/library\rsa.c ****     {
 880:C:/Users/lenovo/Desktop/liteos/Project2/BearPi_LiteOS/components/security/mbedtls/mbedtls-2.6.0/library\rsa.c ****         pad_done |= p[i];
 881:C:/Users/lenovo/Desktop/liteos/Project2/BearPi_LiteOS/components/security/mbedtls/mbedtls-2.6.0/library\rsa.c ****         pad_len += ((pad_done | (unsigned char)-pad_done) >> 7) ^ 1;
 882:C:/Users/lenovo/Desktop/liteos/Project2/BearPi_LiteOS/components/security/mbedtls/mbedtls-2.6.0/library\rsa.c ****     }
 883:C:/Users/lenovo/Desktop/liteos/Project2/BearPi_LiteOS/components/security/mbedtls/mbedtls-2.6.0/library\rsa.c **** 
 884:C:/Users/lenovo/Desktop/liteos/Project2/BearPi_LiteOS/components/security/mbedtls/mbedtls-2.6.0/library\rsa.c ****     p += pad_len;
 885:C:/Users/lenovo/Desktop/liteos/Project2/BearPi_LiteOS/components/security/mbedtls/mbedtls-2.6.0/library\rsa.c ****     bad |= *p++ ^ 0x01;
 886:C:/Users/lenovo/Desktop/liteos/Project2/BearPi_LiteOS/components/security/mbedtls/mbedtls-2.6.0/library\rsa.c **** 
 887:C:/Users/lenovo/Desktop/liteos/Project2/BearPi_LiteOS/components/security/mbedtls/mbedtls-2.6.0/library\rsa.c ****     /*
 888:C:/Users/lenovo/Desktop/liteos/Project2/BearPi_LiteOS/components/security/mbedtls/mbedtls-2.6.0/library\rsa.c ****      * The only information "leaked" is whether the padding was correct or not
 889:C:/Users/lenovo/Desktop/liteos/Project2/BearPi_LiteOS/components/security/mbedtls/mbedtls-2.6.0/library\rsa.c ****      * (eg, no data is copied if it was not correct). This meets the
ARM GAS  c:\Users\lenovo\AppData\Local\Temp\ccVehGBj.s 			page 53


 890:C:/Users/lenovo/Desktop/liteos/Project2/BearPi_LiteOS/components/security/mbedtls/mbedtls-2.6.0/library\rsa.c ****      * recommendations in PKCS#1 v2.2: an opponent cannot distinguish between
 891:C:/Users/lenovo/Desktop/liteos/Project2/BearPi_LiteOS/components/security/mbedtls/mbedtls-2.6.0/library\rsa.c ****      * the different error conditions.
 892:C:/Users/lenovo/Desktop/liteos/Project2/BearPi_LiteOS/components/security/mbedtls/mbedtls-2.6.0/library\rsa.c ****      */
 893:C:/Users/lenovo/Desktop/liteos/Project2/BearPi_LiteOS/components/security/mbedtls/mbedtls-2.6.0/library\rsa.c ****     if( bad != 0 )
 894:C:/Users/lenovo/Desktop/liteos/Project2/BearPi_LiteOS/components/security/mbedtls/mbedtls-2.6.0/library\rsa.c ****     {
 895:C:/Users/lenovo/Desktop/liteos/Project2/BearPi_LiteOS/components/security/mbedtls/mbedtls-2.6.0/library\rsa.c ****         ret = MBEDTLS_ERR_RSA_INVALID_PADDING;
 896:C:/Users/lenovo/Desktop/liteos/Project2/BearPi_LiteOS/components/security/mbedtls/mbedtls-2.6.0/library\rsa.c ****         goto cleanup;
 897:C:/Users/lenovo/Desktop/liteos/Project2/BearPi_LiteOS/components/security/mbedtls/mbedtls-2.6.0/library\rsa.c ****     }
 898:C:/Users/lenovo/Desktop/liteos/Project2/BearPi_LiteOS/components/security/mbedtls/mbedtls-2.6.0/library\rsa.c **** 
 899:C:/Users/lenovo/Desktop/liteos/Project2/BearPi_LiteOS/components/security/mbedtls/mbedtls-2.6.0/library\rsa.c ****     if( ilen - ( p - buf ) > output_max_len )
 900:C:/Users/lenovo/Desktop/liteos/Project2/BearPi_LiteOS/components/security/mbedtls/mbedtls-2.6.0/library\rsa.c ****     {
 901:C:/Users/lenovo/Desktop/liteos/Project2/BearPi_LiteOS/components/security/mbedtls/mbedtls-2.6.0/library\rsa.c ****         ret = MBEDTLS_ERR_RSA_OUTPUT_TOO_LARGE;
 902:C:/Users/lenovo/Desktop/liteos/Project2/BearPi_LiteOS/components/security/mbedtls/mbedtls-2.6.0/library\rsa.c ****         goto cleanup;
 903:C:/Users/lenovo/Desktop/liteos/Project2/BearPi_LiteOS/components/security/mbedtls/mbedtls-2.6.0/library\rsa.c ****     }
 904:C:/Users/lenovo/Desktop/liteos/Project2/BearPi_LiteOS/components/security/mbedtls/mbedtls-2.6.0/library\rsa.c **** 
 905:C:/Users/lenovo/Desktop/liteos/Project2/BearPi_LiteOS/components/security/mbedtls/mbedtls-2.6.0/library\rsa.c ****     *olen = ilen - (p - buf);
 906:C:/Users/lenovo/Desktop/liteos/Project2/BearPi_LiteOS/components/security/mbedtls/mbedtls-2.6.0/library\rsa.c ****     memcpy( output, p, *olen );
 907:C:/Users/lenovo/Desktop/liteos/Project2/BearPi_LiteOS/components/security/mbedtls/mbedtls-2.6.0/library\rsa.c ****     ret = 0;
 908:C:/Users/lenovo/Desktop/liteos/Project2/BearPi_LiteOS/components/security/mbedtls/mbedtls-2.6.0/library\rsa.c **** 
 909:C:/Users/lenovo/Desktop/liteos/Project2/BearPi_LiteOS/components/security/mbedtls/mbedtls-2.6.0/library\rsa.c **** cleanup:
 910:C:/Users/lenovo/Desktop/liteos/Project2/BearPi_LiteOS/components/security/mbedtls/mbedtls-2.6.0/library\rsa.c ****     mbedtls_zeroize( buf, sizeof( buf ) );
 1915              		.loc 1 910 0
 1916 0058 4FF48061 		mov	r1, #1024
 1917 005c 10A8     		add	r0, sp, #64
 1918 005e FFF7FEFF 		bl	mbedtls_zeroize
 1919              	.LVL309:
 911:C:/Users/lenovo/Desktop/liteos/Project2/BearPi_LiteOS/components/security/mbedtls/mbedtls-2.6.0/library\rsa.c ****     mbedtls_zeroize( lhash, sizeof( lhash ) );
 1920              		.loc 1 911 0
 1921 0062 2021     		movs	r1, #32
 1922 0064 0DEB0100 		add	r0, sp, r1
 1923 0068 FFF7FEFF 		bl	mbedtls_zeroize
 1924              	.LVL310:
 1925              	.L113:
 912:C:/Users/lenovo/Desktop/liteos/Project2/BearPi_LiteOS/components/security/mbedtls/mbedtls-2.6.0/library\rsa.c **** 
 913:C:/Users/lenovo/Desktop/liteos/Project2/BearPi_LiteOS/components/security/mbedtls/mbedtls-2.6.0/library\rsa.c ****     return( ret );
 914:C:/Users/lenovo/Desktop/liteos/Project2/BearPi_LiteOS/components/security/mbedtls/mbedtls-2.6.0/library\rsa.c **** }
 1926              		.loc 1 914 0
 1927 006c 2846     		mov	r0, r5
 1928 006e 0DF2444D 		addw	sp, sp, #1092
 1929              	.LCFI32:
 1930              		.cfi_remember_state
 1931              		.cfi_def_cfa_offset 36
 1932              		@ sp needed
 1933 0072 BDE8F08F 		pop	{r4, r5, r6, r7, r8, r9, r10, fp, pc}
 1934              	.LVL311:
 1935              	.L131:
 1936              	.LCFI33:
 1937              		.cfi_restore_state
 808:C:/Users/lenovo/Desktop/liteos/Project2/BearPi_LiteOS/components/security/mbedtls/mbedtls-2.6.0/library\rsa.c ****         return( MBEDTLS_ERR_RSA_BAD_INPUT_DATA );
 1938              		.loc 1 808 0 discriminator 1
 1939 0076 D0F8A440 		ldr	r4, [r0, #164]
 1940 007a 012C     		cmp	r4, #1
 1941 007c C6D0     		beq	.L114
 809:C:/Users/lenovo/Desktop/liteos/Project2/BearPi_LiteOS/components/security/mbedtls/mbedtls-2.6.0/library\rsa.c **** 
 1942              		.loc 1 809 0
 1943 007e 414D     		ldr	r5, .L134
 1944 0080 F4E7     		b	.L113
ARM GAS  c:\Users\lenovo\AppData\Local\Temp\ccVehGBj.s 			page 54


 1945              	.LVL312:
 1946              	.L116:
 831:C:/Users/lenovo/Desktop/liteos/Project2/BearPi_LiteOS/components/security/mbedtls/mbedtls-2.6.0/library\rsa.c **** 
 1947              		.loc 1 831 0 discriminator 2
 1948 0082 10AB     		add	r3, sp, #64
 1949 0084 0093     		str	r3, [sp]
 1950 0086 DDF87434 		ldr	r3, [sp, #1140]
 1951 008a 4246     		mov	r2, r8
 1952 008c 0399     		ldr	r1, [sp, #12]
 1953 008e 2046     		mov	r0, r4
 1954              	.LVL313:
 1955 0090 FFF7FEFF 		bl	mbedtls_rsa_private
 1956              	.LVL314:
 1957 0094 0546     		mov	r5, r0
 1958              	.LVL315:
 1959 0096 DEE7     		b	.L117
 1960              	.LVL316:
 1961              	.L132:
 839:C:/Users/lenovo/Desktop/liteos/Project2/BearPi_LiteOS/components/security/mbedtls/mbedtls-2.6.0/library\rsa.c ****     if( ( ret = mbedtls_md_setup( &md_ctx, md_info, 0 ) ) != 0 )
 1962              		.loc 1 839 0
 1963 0098 05A8     		add	r0, sp, #20
 1964 009a FFF7FEFF 		bl	mbedtls_md_init
 1965              	.LVL317:
 840:C:/Users/lenovo/Desktop/liteos/Project2/BearPi_LiteOS/components/security/mbedtls/mbedtls-2.6.0/library\rsa.c ****     {
 1966              		.loc 1 840 0
 1967 009e 0022     		movs	r2, #0
 1968 00a0 5946     		mov	r1, fp
 1969 00a2 05A8     		add	r0, sp, #20
 1970 00a4 FFF7FEFF 		bl	mbedtls_md_setup
 1971              	.LVL318:
 1972 00a8 0546     		mov	r5, r0
 1973 00aa 18B1     		cbz	r0, .L119
 842:C:/Users/lenovo/Desktop/liteos/Project2/BearPi_LiteOS/components/security/mbedtls/mbedtls-2.6.0/library\rsa.c ****         goto cleanup;
 1974              		.loc 1 842 0
 1975 00ac 05A8     		add	r0, sp, #20
 1976              	.LVL319:
 1977 00ae FFF7FEFF 		bl	mbedtls_md_free
 1978              	.LVL320:
 843:C:/Users/lenovo/Desktop/liteos/Project2/BearPi_LiteOS/components/security/mbedtls/mbedtls-2.6.0/library\rsa.c ****     }
 1979              		.loc 1 843 0
 1980 00b2 D1E7     		b	.L118
 1981              	.LVL321:
 1982              	.L119:
 848:C:/Users/lenovo/Desktop/liteos/Project2/BearPi_LiteOS/components/security/mbedtls/mbedtls-2.6.0/library\rsa.c **** 
 1983              		.loc 1 848 0
 1984 00b4 08AB     		add	r3, sp, #32
 1985 00b6 DDF86C24 		ldr	r2, [sp, #1132]
 1986 00ba DDF86814 		ldr	r1, [sp, #1128]
 1987 00be 5846     		mov	r0, fp
 1988              	.LVL322:
 1989 00c0 FFF7FEFF 		bl	mbedtls_md
 1990              	.LVL323:
 851:C:/Users/lenovo/Desktop/liteos/Project2/BearPi_LiteOS/components/security/mbedtls/mbedtls-2.6.0/library\rsa.c ****                &md_ctx );
 1991              		.loc 1 851 0
 1992 00c4 10AB     		add	r3, sp, #64
 1993 00c6 9A44     		add	r10, r10, r3
 1994 00c8 A6EB0708 		sub	r8, r6, r7
ARM GAS  c:\Users\lenovo\AppData\Local\Temp\ccVehGBj.s 			page 55


 1995              	.LVL324:
 1996 00cc 08F1FF38 		add	r8, r8, #-1
 1997 00d0 05AC     		add	r4, sp, #20
 1998              	.LVL325:
 1999 00d2 0094     		str	r4, [sp]
 2000 00d4 4346     		mov	r3, r8
 2001 00d6 5246     		mov	r2, r10
 2002 00d8 3946     		mov	r1, r7
 2003 00da 0DF14100 		add	r0, sp, #65
 2004 00de FFF7FEFF 		bl	mgf_mask
 2005              	.LVL326:
 855:C:/Users/lenovo/Desktop/liteos/Project2/BearPi_LiteOS/components/security/mbedtls/mbedtls-2.6.0/library\rsa.c ****                &md_ctx );
 2006              		.loc 1 855 0
 2007 00e2 0094     		str	r4, [sp]
 2008 00e4 3B46     		mov	r3, r7
 2009 00e6 0DF14102 		add	r2, sp, #65
 2010 00ea 4146     		mov	r1, r8
 2011 00ec 5046     		mov	r0, r10
 2012 00ee FFF7FEFF 		bl	mgf_mask
 2013              	.LVL327:
 858:C:/Users/lenovo/Desktop/liteos/Project2/BearPi_LiteOS/components/security/mbedtls/mbedtls-2.6.0/library\rsa.c **** 
 2014              		.loc 1 858 0
 2015 00f2 2046     		mov	r0, r4
 2016 00f4 FFF7FEFF 		bl	mbedtls_md_free
 2017              	.LVL328:
 866:C:/Users/lenovo/Desktop/liteos/Project2/BearPi_LiteOS/components/security/mbedtls/mbedtls-2.6.0/library\rsa.c **** 
 2018              		.loc 1 866 0
 2019 00f8 9DF84000 		ldrb	r0, [sp, #64]	@ zero_extendqisi2
 2020              	.LVL329:
 868:C:/Users/lenovo/Desktop/liteos/Project2/BearPi_LiteOS/components/security/mbedtls/mbedtls-2.6.0/library\rsa.c **** 
 2021              		.loc 1 868 0
 2022 00fc 0DF14103 		add	r3, sp, #65
 2023              	.LVL330:
 2024 0100 1F44     		add	r7, r7, r3
 2025              	.LVL331:
 871:C:/Users/lenovo/Desktop/liteos/Project2/BearPi_LiteOS/components/security/mbedtls/mbedtls-2.6.0/library\rsa.c ****         bad |= lhash[i] ^ *p++;
 2026              		.loc 1 871 0
 2027 0102 0023     		movs	r3, #0
 2028 0104 06E0     		b	.L120
 2029              	.LVL332:
 2030              	.L121:
 872:C:/Users/lenovo/Desktop/liteos/Project2/BearPi_LiteOS/components/security/mbedtls/mbedtls-2.6.0/library\rsa.c **** 
 2031              		.loc 1 872 0 discriminator 3
 2032 0106 08AA     		add	r2, sp, #32
 2033 0108 D25C     		ldrb	r2, [r2, r3]	@ zero_extendqisi2
 2034              	.LVL333:
 2035 010a 3978     		ldrb	r1, [r7]	@ zero_extendqisi2
 2036 010c 4A40     		eors	r2, r2, r1
 2037 010e 1043     		orrs	r0, r0, r2
 2038              	.LVL334:
 871:C:/Users/lenovo/Desktop/liteos/Project2/BearPi_LiteOS/components/security/mbedtls/mbedtls-2.6.0/library\rsa.c ****         bad |= lhash[i] ^ *p++;
 2039              		.loc 1 871 0 discriminator 3
 2040 0110 0133     		adds	r3, r3, #1
 2041              	.LVL335:
 872:C:/Users/lenovo/Desktop/liteos/Project2/BearPi_LiteOS/components/security/mbedtls/mbedtls-2.6.0/library\rsa.c **** 
 2042              		.loc 1 872 0 discriminator 3
 2043 0112 0137     		adds	r7, r7, #1
ARM GAS  c:\Users\lenovo\AppData\Local\Temp\ccVehGBj.s 			page 56


 2044              	.LVL336:
 2045              	.L120:
 871:C:/Users/lenovo/Desktop/liteos/Project2/BearPi_LiteOS/components/security/mbedtls/mbedtls-2.6.0/library\rsa.c ****         bad |= lhash[i] ^ *p++;
 2046              		.loc 1 871 0 discriminator 1
 2047 0114 4B45     		cmp	r3, r9
 2048 0116 F6D3     		bcc	.L121
 877:C:/Users/lenovo/Desktop/liteos/Project2/BearPi_LiteOS/components/security/mbedtls/mbedtls-2.6.0/library\rsa.c ****     for( i = 0; i < ilen - 2 * hlen - 2; i++ )
 2049              		.loc 1 877 0
 2050 0118 0022     		movs	r2, #0
 876:C:/Users/lenovo/Desktop/liteos/Project2/BearPi_LiteOS/components/security/mbedtls/mbedtls-2.6.0/library\rsa.c ****     pad_done = 0;
 2051              		.loc 1 876 0
 2052 011a 1446     		mov	r4, r2
 878:C:/Users/lenovo/Desktop/liteos/Project2/BearPi_LiteOS/components/security/mbedtls/mbedtls-2.6.0/library\rsa.c ****     {
 2053              		.loc 1 878 0
 2054 011c 1146     		mov	r1, r2
 2055 011e 0AE0     		b	.L122
 2056              	.LVL337:
 2057              	.L123:
 880:C:/Users/lenovo/Desktop/liteos/Project2/BearPi_LiteOS/components/security/mbedtls/mbedtls-2.6.0/library\rsa.c ****         pad_len += ((pad_done | (unsigned char)-pad_done) >> 7) ^ 1;
 2058              		.loc 1 880 0 discriminator 3
 2059 0120 7B5C     		ldrb	r3, [r7, r1]	@ zero_extendqisi2
 2060 0122 1A43     		orrs	r2, r2, r3
 2061              	.LVL338:
 881:C:/Users/lenovo/Desktop/liteos/Project2/BearPi_LiteOS/components/security/mbedtls/mbedtls-2.6.0/library\rsa.c ****     }
 2062              		.loc 1 881 0 discriminator 3
 2063 0124 5342     		negs	r3, r2
 2064 0126 DBB2     		uxtb	r3, r3
 2065 0128 1343     		orrs	r3, r3, r2
 2066 012a C3F3C013 		ubfx	r3, r3, #7, #1
 2067 012e 83F00103 		eor	r3, r3, #1
 2068 0132 1C44     		add	r4, r4, r3
 2069              	.LVL339:
 878:C:/Users/lenovo/Desktop/liteos/Project2/BearPi_LiteOS/components/security/mbedtls/mbedtls-2.6.0/library\rsa.c ****     {
 2070              		.loc 1 878 0 discriminator 3
 2071 0134 0131     		adds	r1, r1, #1
 2072              	.LVL340:
 2073              	.L122:
 878:C:/Users/lenovo/Desktop/liteos/Project2/BearPi_LiteOS/components/security/mbedtls/mbedtls-2.6.0/library\rsa.c ****     {
 2074              		.loc 1 878 0 is_stmt 0 discriminator 1
 2075 0136 A6EB4903 		sub	r3, r6, r9, lsl #1
 2076 013a 023B     		subs	r3, r3, #2
 2077 013c 8B42     		cmp	r3, r1
 2078 013e EFD8     		bhi	.L123
 2079              	.LVL341:
 885:C:/Users/lenovo/Desktop/liteos/Project2/BearPi_LiteOS/components/security/mbedtls/mbedtls-2.6.0/library\rsa.c **** 
 2080              		.loc 1 885 0 is_stmt 1
 2081 0140 611C     		adds	r1, r4, #1
 2082              	.LVL342:
 2083 0142 3944     		add	r1, r1, r7
 2084              	.LVL343:
 2085 0144 3B5D     		ldrb	r3, [r7, r4]	@ zero_extendqisi2
 2086 0146 83F00103 		eor	r3, r3, #1
 2087 014a 1843     		orrs	r0, r0, r3
 2088              	.LVL344:
 2089 014c 40B2     		sxtb	r0, r0
 2090              	.LVL345:
 893:C:/Users/lenovo/Desktop/liteos/Project2/BearPi_LiteOS/components/security/mbedtls/mbedtls-2.6.0/library\rsa.c ****     {
ARM GAS  c:\Users\lenovo\AppData\Local\Temp\ccVehGBj.s 			page 57


 2091              		.loc 1 893 0
 2092 014e 80B9     		cbnz	r0, .L128
 899:C:/Users/lenovo/Desktop/liteos/Project2/BearPi_LiteOS/components/security/mbedtls/mbedtls-2.6.0/library\rsa.c ****     {
 2093              		.loc 1 899 0
 2094 0150 10AA     		add	r2, sp, #64
 2095              	.LVL346:
 2096 0152 8A1A     		subs	r2, r1, r2
 2097 0154 B21A     		subs	r2, r6, r2
 2098 0156 DDF87C34 		ldr	r3, [sp, #1148]
 2099 015a 9A42     		cmp	r2, r3
 2100 015c 01D9     		bls	.L133
 901:C:/Users/lenovo/Desktop/liteos/Project2/BearPi_LiteOS/components/security/mbedtls/mbedtls-2.6.0/library\rsa.c ****         goto cleanup;
 2101              		.loc 1 901 0
 2102 015e 0A4D     		ldr	r5, .L134+4
 2103              	.LVL347:
 2104 0160 7AE7     		b	.L118
 2105              	.LVL348:
 2106              	.L133:
 905:C:/Users/lenovo/Desktop/liteos/Project2/BearPi_LiteOS/components/security/mbedtls/mbedtls-2.6.0/library\rsa.c ****     memcpy( output, p, *olen );
 2107              		.loc 1 905 0
 2108 0162 DDF87034 		ldr	r3, [sp, #1136]
 2109 0166 1A60     		str	r2, [r3]
 906:C:/Users/lenovo/Desktop/liteos/Project2/BearPi_LiteOS/components/security/mbedtls/mbedtls-2.6.0/library\rsa.c ****     ret = 0;
 2110              		.loc 1 906 0
 2111 0168 DDF87804 		ldr	r0, [sp, #1144]
 2112              	.LVL349:
 2113 016c FFF7FEFF 		bl	memcpy
 2114              	.LVL350:
 2115 0170 72E7     		b	.L118
 2116              	.LVL351:
 2117              	.L128:
 895:C:/Users/lenovo/Desktop/liteos/Project2/BearPi_LiteOS/components/security/mbedtls/mbedtls-2.6.0/library\rsa.c ****         goto cleanup;
 2118              		.loc 1 895 0
 2119 0172 064D     		ldr	r5, .L134+8
 2120              	.LVL352:
 2121 0174 70E7     		b	.L118
 2122              	.LVL353:
 2123              	.L125:
 814:C:/Users/lenovo/Desktop/liteos/Project2/BearPi_LiteOS/components/security/mbedtls/mbedtls-2.6.0/library\rsa.c **** 
 2124              		.loc 1 814 0
 2125 0176 034D     		ldr	r5, .L134
 2126 0178 78E7     		b	.L113
 2127              	.LVL354:
 2128              	.L126:
 818:C:/Users/lenovo/Desktop/liteos/Project2/BearPi_LiteOS/components/security/mbedtls/mbedtls-2.6.0/library\rsa.c **** 
 2129              		.loc 1 818 0
 2130 017a 024D     		ldr	r5, .L134
 2131              	.LVL355:
 2132 017c 76E7     		b	.L113
 2133              	.LVL356:
 2134              	.L127:
 824:C:/Users/lenovo/Desktop/liteos/Project2/BearPi_LiteOS/components/security/mbedtls/mbedtls-2.6.0/library\rsa.c **** 
 2135              		.loc 1 824 0
 2136 017e 014D     		ldr	r5, .L134
 2137              	.LVL357:
 2138 0180 74E7     		b	.L113
 2139              	.L135:
ARM GAS  c:\Users\lenovo\AppData\Local\Temp\ccVehGBj.s 			page 58


 2140 0182 00BF     		.align	2
 2141              	.L134:
 2142 0184 80BFFFFF 		.word	-16512
 2143 0188 00BCFFFF 		.word	-17408
 2144 018c 00BFFFFF 		.word	-16640
 2145              		.cfi_endproc
 2146              	.LFE24:
 2148              		.section	.text.mbedtls_rsa_pkcs1_decrypt,"ax",%progbits
 2149              		.align	1
 2150              		.global	mbedtls_rsa_pkcs1_decrypt
 2151              		.syntax unified
 2152              		.thumb
 2153              		.thumb_func
 2154              		.fpu fpv4-sp-d16
 2156              	mbedtls_rsa_pkcs1_decrypt:
 2157              	.LFB25:
 915:C:/Users/lenovo/Desktop/liteos/Project2/BearPi_LiteOS/components/security/mbedtls/mbedtls-2.6.0/library\rsa.c **** #endif /* MBEDTLS_PKCS1_V21 */
 916:C:/Users/lenovo/Desktop/liteos/Project2/BearPi_LiteOS/components/security/mbedtls/mbedtls-2.6.0/library\rsa.c **** 
 917:C:/Users/lenovo/Desktop/liteos/Project2/BearPi_LiteOS/components/security/mbedtls/mbedtls-2.6.0/library\rsa.c **** #if defined(MBEDTLS_PKCS1_V15)
 918:C:/Users/lenovo/Desktop/liteos/Project2/BearPi_LiteOS/components/security/mbedtls/mbedtls-2.6.0/library\rsa.c **** /*
 919:C:/Users/lenovo/Desktop/liteos/Project2/BearPi_LiteOS/components/security/mbedtls/mbedtls-2.6.0/library\rsa.c ****  * Implementation of the PKCS#1 v2.1 RSAES-PKCS1-V1_5-DECRYPT function
 920:C:/Users/lenovo/Desktop/liteos/Project2/BearPi_LiteOS/components/security/mbedtls/mbedtls-2.6.0/library\rsa.c ****  */
 921:C:/Users/lenovo/Desktop/liteos/Project2/BearPi_LiteOS/components/security/mbedtls/mbedtls-2.6.0/library\rsa.c **** int mbedtls_rsa_rsaes_pkcs1_v15_decrypt( mbedtls_rsa_context *ctx,
 922:C:/Users/lenovo/Desktop/liteos/Project2/BearPi_LiteOS/components/security/mbedtls/mbedtls-2.6.0/library\rsa.c ****                                  int (*f_rng)(void *, unsigned char *, size_t),
 923:C:/Users/lenovo/Desktop/liteos/Project2/BearPi_LiteOS/components/security/mbedtls/mbedtls-2.6.0/library\rsa.c ****                                  void *p_rng,
 924:C:/Users/lenovo/Desktop/liteos/Project2/BearPi_LiteOS/components/security/mbedtls/mbedtls-2.6.0/library\rsa.c ****                                  int mode, size_t *olen,
 925:C:/Users/lenovo/Desktop/liteos/Project2/BearPi_LiteOS/components/security/mbedtls/mbedtls-2.6.0/library\rsa.c ****                                  const unsigned char *input,
 926:C:/Users/lenovo/Desktop/liteos/Project2/BearPi_LiteOS/components/security/mbedtls/mbedtls-2.6.0/library\rsa.c ****                                  unsigned char *output,
 927:C:/Users/lenovo/Desktop/liteos/Project2/BearPi_LiteOS/components/security/mbedtls/mbedtls-2.6.0/library\rsa.c ****                                  size_t output_max_len)
 928:C:/Users/lenovo/Desktop/liteos/Project2/BearPi_LiteOS/components/security/mbedtls/mbedtls-2.6.0/library\rsa.c **** {
 929:C:/Users/lenovo/Desktop/liteos/Project2/BearPi_LiteOS/components/security/mbedtls/mbedtls-2.6.0/library\rsa.c ****     int ret;
 930:C:/Users/lenovo/Desktop/liteos/Project2/BearPi_LiteOS/components/security/mbedtls/mbedtls-2.6.0/library\rsa.c ****     size_t ilen, pad_count = 0, i;
 931:C:/Users/lenovo/Desktop/liteos/Project2/BearPi_LiteOS/components/security/mbedtls/mbedtls-2.6.0/library\rsa.c ****     unsigned char *p, bad, pad_done = 0;
 932:C:/Users/lenovo/Desktop/liteos/Project2/BearPi_LiteOS/components/security/mbedtls/mbedtls-2.6.0/library\rsa.c ****     unsigned char buf[MBEDTLS_MPI_MAX_SIZE];
 933:C:/Users/lenovo/Desktop/liteos/Project2/BearPi_LiteOS/components/security/mbedtls/mbedtls-2.6.0/library\rsa.c **** 
 934:C:/Users/lenovo/Desktop/liteos/Project2/BearPi_LiteOS/components/security/mbedtls/mbedtls-2.6.0/library\rsa.c ****     if( mode == MBEDTLS_RSA_PRIVATE && ctx->padding != MBEDTLS_RSA_PKCS_V15 )
 935:C:/Users/lenovo/Desktop/liteos/Project2/BearPi_LiteOS/components/security/mbedtls/mbedtls-2.6.0/library\rsa.c ****         return( MBEDTLS_ERR_RSA_BAD_INPUT_DATA );
 936:C:/Users/lenovo/Desktop/liteos/Project2/BearPi_LiteOS/components/security/mbedtls/mbedtls-2.6.0/library\rsa.c **** 
 937:C:/Users/lenovo/Desktop/liteos/Project2/BearPi_LiteOS/components/security/mbedtls/mbedtls-2.6.0/library\rsa.c ****     ilen = ctx->len;
 938:C:/Users/lenovo/Desktop/liteos/Project2/BearPi_LiteOS/components/security/mbedtls/mbedtls-2.6.0/library\rsa.c **** 
 939:C:/Users/lenovo/Desktop/liteos/Project2/BearPi_LiteOS/components/security/mbedtls/mbedtls-2.6.0/library\rsa.c ****     if( ilen < 16 || ilen > sizeof( buf ) )
 940:C:/Users/lenovo/Desktop/liteos/Project2/BearPi_LiteOS/components/security/mbedtls/mbedtls-2.6.0/library\rsa.c ****         return( MBEDTLS_ERR_RSA_BAD_INPUT_DATA );
 941:C:/Users/lenovo/Desktop/liteos/Project2/BearPi_LiteOS/components/security/mbedtls/mbedtls-2.6.0/library\rsa.c **** 
 942:C:/Users/lenovo/Desktop/liteos/Project2/BearPi_LiteOS/components/security/mbedtls/mbedtls-2.6.0/library\rsa.c ****     ret = ( mode == MBEDTLS_RSA_PUBLIC )
 943:C:/Users/lenovo/Desktop/liteos/Project2/BearPi_LiteOS/components/security/mbedtls/mbedtls-2.6.0/library\rsa.c ****           ? mbedtls_rsa_public(  ctx, input, buf )
 944:C:/Users/lenovo/Desktop/liteos/Project2/BearPi_LiteOS/components/security/mbedtls/mbedtls-2.6.0/library\rsa.c ****           : mbedtls_rsa_private( ctx, f_rng, p_rng, input, buf );
 945:C:/Users/lenovo/Desktop/liteos/Project2/BearPi_LiteOS/components/security/mbedtls/mbedtls-2.6.0/library\rsa.c **** 
 946:C:/Users/lenovo/Desktop/liteos/Project2/BearPi_LiteOS/components/security/mbedtls/mbedtls-2.6.0/library\rsa.c ****     if( ret != 0 )
 947:C:/Users/lenovo/Desktop/liteos/Project2/BearPi_LiteOS/components/security/mbedtls/mbedtls-2.6.0/library\rsa.c ****         goto cleanup;
 948:C:/Users/lenovo/Desktop/liteos/Project2/BearPi_LiteOS/components/security/mbedtls/mbedtls-2.6.0/library\rsa.c **** 
 949:C:/Users/lenovo/Desktop/liteos/Project2/BearPi_LiteOS/components/security/mbedtls/mbedtls-2.6.0/library\rsa.c ****     p = buf;
 950:C:/Users/lenovo/Desktop/liteos/Project2/BearPi_LiteOS/components/security/mbedtls/mbedtls-2.6.0/library\rsa.c ****     bad = 0;
 951:C:/Users/lenovo/Desktop/liteos/Project2/BearPi_LiteOS/components/security/mbedtls/mbedtls-2.6.0/library\rsa.c **** 
 952:C:/Users/lenovo/Desktop/liteos/Project2/BearPi_LiteOS/components/security/mbedtls/mbedtls-2.6.0/library\rsa.c ****     /*
 953:C:/Users/lenovo/Desktop/liteos/Project2/BearPi_LiteOS/components/security/mbedtls/mbedtls-2.6.0/library\rsa.c ****      * Check and get padding len in "constant-time"
 954:C:/Users/lenovo/Desktop/liteos/Project2/BearPi_LiteOS/components/security/mbedtls/mbedtls-2.6.0/library\rsa.c ****      */
 955:C:/Users/lenovo/Desktop/liteos/Project2/BearPi_LiteOS/components/security/mbedtls/mbedtls-2.6.0/library\rsa.c ****     bad |= *p++; /* First byte must be 0 */
ARM GAS  c:\Users\lenovo\AppData\Local\Temp\ccVehGBj.s 			page 59


 956:C:/Users/lenovo/Desktop/liteos/Project2/BearPi_LiteOS/components/security/mbedtls/mbedtls-2.6.0/library\rsa.c **** 
 957:C:/Users/lenovo/Desktop/liteos/Project2/BearPi_LiteOS/components/security/mbedtls/mbedtls-2.6.0/library\rsa.c ****     /* This test does not depend on secret data */
 958:C:/Users/lenovo/Desktop/liteos/Project2/BearPi_LiteOS/components/security/mbedtls/mbedtls-2.6.0/library\rsa.c ****     if( mode == MBEDTLS_RSA_PRIVATE )
 959:C:/Users/lenovo/Desktop/liteos/Project2/BearPi_LiteOS/components/security/mbedtls/mbedtls-2.6.0/library\rsa.c ****     {
 960:C:/Users/lenovo/Desktop/liteos/Project2/BearPi_LiteOS/components/security/mbedtls/mbedtls-2.6.0/library\rsa.c ****         bad |= *p++ ^ MBEDTLS_RSA_CRYPT;
 961:C:/Users/lenovo/Desktop/liteos/Project2/BearPi_LiteOS/components/security/mbedtls/mbedtls-2.6.0/library\rsa.c **** 
 962:C:/Users/lenovo/Desktop/liteos/Project2/BearPi_LiteOS/components/security/mbedtls/mbedtls-2.6.0/library\rsa.c ****         /* Get padding len, but always read till end of buffer
 963:C:/Users/lenovo/Desktop/liteos/Project2/BearPi_LiteOS/components/security/mbedtls/mbedtls-2.6.0/library\rsa.c ****          * (minus one, for the 00 byte) */
 964:C:/Users/lenovo/Desktop/liteos/Project2/BearPi_LiteOS/components/security/mbedtls/mbedtls-2.6.0/library\rsa.c ****         for( i = 0; i < ilen - 3; i++ )
 965:C:/Users/lenovo/Desktop/liteos/Project2/BearPi_LiteOS/components/security/mbedtls/mbedtls-2.6.0/library\rsa.c ****         {
 966:C:/Users/lenovo/Desktop/liteos/Project2/BearPi_LiteOS/components/security/mbedtls/mbedtls-2.6.0/library\rsa.c ****             pad_done  |= ((p[i] | (unsigned char)-p[i]) >> 7) ^ 1;
 967:C:/Users/lenovo/Desktop/liteos/Project2/BearPi_LiteOS/components/security/mbedtls/mbedtls-2.6.0/library\rsa.c ****             pad_count += ((pad_done | (unsigned char)-pad_done) >> 7) ^ 1;
 968:C:/Users/lenovo/Desktop/liteos/Project2/BearPi_LiteOS/components/security/mbedtls/mbedtls-2.6.0/library\rsa.c ****         }
 969:C:/Users/lenovo/Desktop/liteos/Project2/BearPi_LiteOS/components/security/mbedtls/mbedtls-2.6.0/library\rsa.c **** 
 970:C:/Users/lenovo/Desktop/liteos/Project2/BearPi_LiteOS/components/security/mbedtls/mbedtls-2.6.0/library\rsa.c ****         p += pad_count;
 971:C:/Users/lenovo/Desktop/liteos/Project2/BearPi_LiteOS/components/security/mbedtls/mbedtls-2.6.0/library\rsa.c ****         bad |= *p++; /* Must be zero */
 972:C:/Users/lenovo/Desktop/liteos/Project2/BearPi_LiteOS/components/security/mbedtls/mbedtls-2.6.0/library\rsa.c ****     }
 973:C:/Users/lenovo/Desktop/liteos/Project2/BearPi_LiteOS/components/security/mbedtls/mbedtls-2.6.0/library\rsa.c ****     else
 974:C:/Users/lenovo/Desktop/liteos/Project2/BearPi_LiteOS/components/security/mbedtls/mbedtls-2.6.0/library\rsa.c ****     {
 975:C:/Users/lenovo/Desktop/liteos/Project2/BearPi_LiteOS/components/security/mbedtls/mbedtls-2.6.0/library\rsa.c ****         bad |= *p++ ^ MBEDTLS_RSA_SIGN;
 976:C:/Users/lenovo/Desktop/liteos/Project2/BearPi_LiteOS/components/security/mbedtls/mbedtls-2.6.0/library\rsa.c **** 
 977:C:/Users/lenovo/Desktop/liteos/Project2/BearPi_LiteOS/components/security/mbedtls/mbedtls-2.6.0/library\rsa.c ****         /* Get padding len, but always read till end of buffer
 978:C:/Users/lenovo/Desktop/liteos/Project2/BearPi_LiteOS/components/security/mbedtls/mbedtls-2.6.0/library\rsa.c ****          * (minus one, for the 00 byte) */
 979:C:/Users/lenovo/Desktop/liteos/Project2/BearPi_LiteOS/components/security/mbedtls/mbedtls-2.6.0/library\rsa.c ****         for( i = 0; i < ilen - 3; i++ )
 980:C:/Users/lenovo/Desktop/liteos/Project2/BearPi_LiteOS/components/security/mbedtls/mbedtls-2.6.0/library\rsa.c ****         {
 981:C:/Users/lenovo/Desktop/liteos/Project2/BearPi_LiteOS/components/security/mbedtls/mbedtls-2.6.0/library\rsa.c ****             pad_done |= ( p[i] != 0xFF );
 982:C:/Users/lenovo/Desktop/liteos/Project2/BearPi_LiteOS/components/security/mbedtls/mbedtls-2.6.0/library\rsa.c ****             pad_count += ( pad_done == 0 );
 983:C:/Users/lenovo/Desktop/liteos/Project2/BearPi_LiteOS/components/security/mbedtls/mbedtls-2.6.0/library\rsa.c ****         }
 984:C:/Users/lenovo/Desktop/liteos/Project2/BearPi_LiteOS/components/security/mbedtls/mbedtls-2.6.0/library\rsa.c **** 
 985:C:/Users/lenovo/Desktop/liteos/Project2/BearPi_LiteOS/components/security/mbedtls/mbedtls-2.6.0/library\rsa.c ****         p += pad_count;
 986:C:/Users/lenovo/Desktop/liteos/Project2/BearPi_LiteOS/components/security/mbedtls/mbedtls-2.6.0/library\rsa.c ****         bad |= *p++; /* Must be zero */
 987:C:/Users/lenovo/Desktop/liteos/Project2/BearPi_LiteOS/components/security/mbedtls/mbedtls-2.6.0/library\rsa.c ****     }
 988:C:/Users/lenovo/Desktop/liteos/Project2/BearPi_LiteOS/components/security/mbedtls/mbedtls-2.6.0/library\rsa.c **** 
 989:C:/Users/lenovo/Desktop/liteos/Project2/BearPi_LiteOS/components/security/mbedtls/mbedtls-2.6.0/library\rsa.c ****     bad |= ( pad_count < 8 );
 990:C:/Users/lenovo/Desktop/liteos/Project2/BearPi_LiteOS/components/security/mbedtls/mbedtls-2.6.0/library\rsa.c **** 
 991:C:/Users/lenovo/Desktop/liteos/Project2/BearPi_LiteOS/components/security/mbedtls/mbedtls-2.6.0/library\rsa.c ****     if( bad )
 992:C:/Users/lenovo/Desktop/liteos/Project2/BearPi_LiteOS/components/security/mbedtls/mbedtls-2.6.0/library\rsa.c ****     {
 993:C:/Users/lenovo/Desktop/liteos/Project2/BearPi_LiteOS/components/security/mbedtls/mbedtls-2.6.0/library\rsa.c ****         ret = MBEDTLS_ERR_RSA_INVALID_PADDING;
 994:C:/Users/lenovo/Desktop/liteos/Project2/BearPi_LiteOS/components/security/mbedtls/mbedtls-2.6.0/library\rsa.c ****         goto cleanup;
 995:C:/Users/lenovo/Desktop/liteos/Project2/BearPi_LiteOS/components/security/mbedtls/mbedtls-2.6.0/library\rsa.c ****     }
 996:C:/Users/lenovo/Desktop/liteos/Project2/BearPi_LiteOS/components/security/mbedtls/mbedtls-2.6.0/library\rsa.c **** 
 997:C:/Users/lenovo/Desktop/liteos/Project2/BearPi_LiteOS/components/security/mbedtls/mbedtls-2.6.0/library\rsa.c ****     if( ilen - ( p - buf ) > output_max_len )
 998:C:/Users/lenovo/Desktop/liteos/Project2/BearPi_LiteOS/components/security/mbedtls/mbedtls-2.6.0/library\rsa.c ****     {
 999:C:/Users/lenovo/Desktop/liteos/Project2/BearPi_LiteOS/components/security/mbedtls/mbedtls-2.6.0/library\rsa.c ****         ret = MBEDTLS_ERR_RSA_OUTPUT_TOO_LARGE;
1000:C:/Users/lenovo/Desktop/liteos/Project2/BearPi_LiteOS/components/security/mbedtls/mbedtls-2.6.0/library\rsa.c ****         goto cleanup;
1001:C:/Users/lenovo/Desktop/liteos/Project2/BearPi_LiteOS/components/security/mbedtls/mbedtls-2.6.0/library\rsa.c ****     }
1002:C:/Users/lenovo/Desktop/liteos/Project2/BearPi_LiteOS/components/security/mbedtls/mbedtls-2.6.0/library\rsa.c **** 
1003:C:/Users/lenovo/Desktop/liteos/Project2/BearPi_LiteOS/components/security/mbedtls/mbedtls-2.6.0/library\rsa.c ****     *olen = ilen - (p - buf);
1004:C:/Users/lenovo/Desktop/liteos/Project2/BearPi_LiteOS/components/security/mbedtls/mbedtls-2.6.0/library\rsa.c ****     memcpy( output, p, *olen );
1005:C:/Users/lenovo/Desktop/liteos/Project2/BearPi_LiteOS/components/security/mbedtls/mbedtls-2.6.0/library\rsa.c ****     ret = 0;
1006:C:/Users/lenovo/Desktop/liteos/Project2/BearPi_LiteOS/components/security/mbedtls/mbedtls-2.6.0/library\rsa.c **** 
1007:C:/Users/lenovo/Desktop/liteos/Project2/BearPi_LiteOS/components/security/mbedtls/mbedtls-2.6.0/library\rsa.c **** cleanup:
1008:C:/Users/lenovo/Desktop/liteos/Project2/BearPi_LiteOS/components/security/mbedtls/mbedtls-2.6.0/library\rsa.c ****     mbedtls_zeroize( buf, sizeof( buf ) );
1009:C:/Users/lenovo/Desktop/liteos/Project2/BearPi_LiteOS/components/security/mbedtls/mbedtls-2.6.0/library\rsa.c **** 
1010:C:/Users/lenovo/Desktop/liteos/Project2/BearPi_LiteOS/components/security/mbedtls/mbedtls-2.6.0/library\rsa.c ****     return( ret );
1011:C:/Users/lenovo/Desktop/liteos/Project2/BearPi_LiteOS/components/security/mbedtls/mbedtls-2.6.0/library\rsa.c **** }
1012:C:/Users/lenovo/Desktop/liteos/Project2/BearPi_LiteOS/components/security/mbedtls/mbedtls-2.6.0/library\rsa.c **** #endif /* MBEDTLS_PKCS1_V15 */
ARM GAS  c:\Users\lenovo\AppData\Local\Temp\ccVehGBj.s 			page 60


1013:C:/Users/lenovo/Desktop/liteos/Project2/BearPi_LiteOS/components/security/mbedtls/mbedtls-2.6.0/library\rsa.c **** 
1014:C:/Users/lenovo/Desktop/liteos/Project2/BearPi_LiteOS/components/security/mbedtls/mbedtls-2.6.0/library\rsa.c **** /*
1015:C:/Users/lenovo/Desktop/liteos/Project2/BearPi_LiteOS/components/security/mbedtls/mbedtls-2.6.0/library\rsa.c ****  * Do an RSA operation, then remove the message padding
1016:C:/Users/lenovo/Desktop/liteos/Project2/BearPi_LiteOS/components/security/mbedtls/mbedtls-2.6.0/library\rsa.c ****  */
1017:C:/Users/lenovo/Desktop/liteos/Project2/BearPi_LiteOS/components/security/mbedtls/mbedtls-2.6.0/library\rsa.c **** int mbedtls_rsa_pkcs1_decrypt( mbedtls_rsa_context *ctx,
1018:C:/Users/lenovo/Desktop/liteos/Project2/BearPi_LiteOS/components/security/mbedtls/mbedtls-2.6.0/library\rsa.c ****                        int (*f_rng)(void *, unsigned char *, size_t),
1019:C:/Users/lenovo/Desktop/liteos/Project2/BearPi_LiteOS/components/security/mbedtls/mbedtls-2.6.0/library\rsa.c ****                        void *p_rng,
1020:C:/Users/lenovo/Desktop/liteos/Project2/BearPi_LiteOS/components/security/mbedtls/mbedtls-2.6.0/library\rsa.c ****                        int mode, size_t *olen,
1021:C:/Users/lenovo/Desktop/liteos/Project2/BearPi_LiteOS/components/security/mbedtls/mbedtls-2.6.0/library\rsa.c ****                        const unsigned char *input,
1022:C:/Users/lenovo/Desktop/liteos/Project2/BearPi_LiteOS/components/security/mbedtls/mbedtls-2.6.0/library\rsa.c ****                        unsigned char *output,
1023:C:/Users/lenovo/Desktop/liteos/Project2/BearPi_LiteOS/components/security/mbedtls/mbedtls-2.6.0/library\rsa.c ****                        size_t output_max_len)
1024:C:/Users/lenovo/Desktop/liteos/Project2/BearPi_LiteOS/components/security/mbedtls/mbedtls-2.6.0/library\rsa.c **** {
 2158              		.loc 1 1024 0
 2159              		.cfi_startproc
 2160              		@ args = 16, pretend = 0, frame = 0
 2161              		@ frame_needed = 0, uses_anonymous_args = 0
 2162              	.LVL358:
 2163 0000 10B5     		push	{r4, lr}
 2164              	.LCFI34:
 2165              		.cfi_def_cfa_offset 8
 2166              		.cfi_offset 4, -8
 2167              		.cfi_offset 14, -4
 2168 0002 86B0     		sub	sp, sp, #24
 2169              	.LCFI35:
 2170              		.cfi_def_cfa_offset 32
1025:C:/Users/lenovo/Desktop/liteos/Project2/BearPi_LiteOS/components/security/mbedtls/mbedtls-2.6.0/library\rsa.c ****     switch( ctx->padding )
 2171              		.loc 1 1025 0
 2172 0004 D0F8A440 		ldr	r4, [r0, #164]
 2173 0008 012C     		cmp	r4, #1
 2174 000a 0ED1     		bne	.L140
1026:C:/Users/lenovo/Desktop/liteos/Project2/BearPi_LiteOS/components/security/mbedtls/mbedtls-2.6.0/library\rsa.c ****     {
1027:C:/Users/lenovo/Desktop/liteos/Project2/BearPi_LiteOS/components/security/mbedtls/mbedtls-2.6.0/library\rsa.c **** #if defined(MBEDTLS_PKCS1_V15)
1028:C:/Users/lenovo/Desktop/liteos/Project2/BearPi_LiteOS/components/security/mbedtls/mbedtls-2.6.0/library\rsa.c ****         case MBEDTLS_RSA_PKCS_V15:
1029:C:/Users/lenovo/Desktop/liteos/Project2/BearPi_LiteOS/components/security/mbedtls/mbedtls-2.6.0/library\rsa.c ****             return mbedtls_rsa_rsaes_pkcs1_v15_decrypt( ctx, f_rng, p_rng, mode, olen,
1030:C:/Users/lenovo/Desktop/liteos/Project2/BearPi_LiteOS/components/security/mbedtls/mbedtls-2.6.0/library\rsa.c ****                                                 input, output, output_max_len );
1031:C:/Users/lenovo/Desktop/liteos/Project2/BearPi_LiteOS/components/security/mbedtls/mbedtls-2.6.0/library\rsa.c **** #endif
1032:C:/Users/lenovo/Desktop/liteos/Project2/BearPi_LiteOS/components/security/mbedtls/mbedtls-2.6.0/library\rsa.c **** 
1033:C:/Users/lenovo/Desktop/liteos/Project2/BearPi_LiteOS/components/security/mbedtls/mbedtls-2.6.0/library\rsa.c **** #if defined(MBEDTLS_PKCS1_V21)
1034:C:/Users/lenovo/Desktop/liteos/Project2/BearPi_LiteOS/components/security/mbedtls/mbedtls-2.6.0/library\rsa.c ****         case MBEDTLS_RSA_PKCS_V21:
1035:C:/Users/lenovo/Desktop/liteos/Project2/BearPi_LiteOS/components/security/mbedtls/mbedtls-2.6.0/library\rsa.c ****             return mbedtls_rsa_rsaes_oaep_decrypt( ctx, f_rng, p_rng, mode, NULL, 0,
 2175              		.loc 1 1035 0
 2176 000c 0B9C     		ldr	r4, [sp, #44]
 2177 000e 0594     		str	r4, [sp, #20]
 2178 0010 0A9C     		ldr	r4, [sp, #40]
 2179 0012 0494     		str	r4, [sp, #16]
 2180 0014 099C     		ldr	r4, [sp, #36]
 2181 0016 0394     		str	r4, [sp, #12]
 2182 0018 089C     		ldr	r4, [sp, #32]
 2183 001a 0294     		str	r4, [sp, #8]
 2184 001c 0024     		movs	r4, #0
 2185 001e 0194     		str	r4, [sp, #4]
 2186 0020 0094     		str	r4, [sp]
 2187 0022 FFF7FEFF 		bl	mbedtls_rsa_rsaes_oaep_decrypt
 2188              	.LVL359:
 2189              	.L136:
1036:C:/Users/lenovo/Desktop/liteos/Project2/BearPi_LiteOS/components/security/mbedtls/mbedtls-2.6.0/library\rsa.c ****                                            olen, input, output,
1037:C:/Users/lenovo/Desktop/liteos/Project2/BearPi_LiteOS/components/security/mbedtls/mbedtls-2.6.0/library\rsa.c ****                                            output_max_len );
ARM GAS  c:\Users\lenovo\AppData\Local\Temp\ccVehGBj.s 			page 61


1038:C:/Users/lenovo/Desktop/liteos/Project2/BearPi_LiteOS/components/security/mbedtls/mbedtls-2.6.0/library\rsa.c **** #endif
1039:C:/Users/lenovo/Desktop/liteos/Project2/BearPi_LiteOS/components/security/mbedtls/mbedtls-2.6.0/library\rsa.c **** 
1040:C:/Users/lenovo/Desktop/liteos/Project2/BearPi_LiteOS/components/security/mbedtls/mbedtls-2.6.0/library\rsa.c ****         default:
1041:C:/Users/lenovo/Desktop/liteos/Project2/BearPi_LiteOS/components/security/mbedtls/mbedtls-2.6.0/library\rsa.c ****             return( MBEDTLS_ERR_RSA_INVALID_PADDING );
1042:C:/Users/lenovo/Desktop/liteos/Project2/BearPi_LiteOS/components/security/mbedtls/mbedtls-2.6.0/library\rsa.c ****     }
1043:C:/Users/lenovo/Desktop/liteos/Project2/BearPi_LiteOS/components/security/mbedtls/mbedtls-2.6.0/library\rsa.c **** }
 2190              		.loc 1 1043 0
 2191 0026 06B0     		add	sp, sp, #24
 2192              	.LCFI36:
 2193              		.cfi_remember_state
 2194              		.cfi_def_cfa_offset 8
 2195              		@ sp needed
 2196 0028 10BD     		pop	{r4, pc}
 2197              	.LVL360:
 2198              	.L140:
 2199              	.LCFI37:
 2200              		.cfi_restore_state
1041:C:/Users/lenovo/Desktop/liteos/Project2/BearPi_LiteOS/components/security/mbedtls/mbedtls-2.6.0/library\rsa.c ****     }
 2201              		.loc 1 1041 0
 2202 002a 0148     		ldr	r0, .L142
 2203              	.LVL361:
 2204 002c FBE7     		b	.L136
 2205              	.L143:
 2206 002e 00BF     		.align	2
 2207              	.L142:
 2208 0030 00BFFFFF 		.word	-16640
 2209              		.cfi_endproc
 2210              	.LFE25:
 2212              		.section	.text.mbedtls_rsa_rsassa_pss_sign,"ax",%progbits
 2213              		.align	1
 2214              		.global	mbedtls_rsa_rsassa_pss_sign
 2215              		.syntax unified
 2216              		.thumb
 2217              		.thumb_func
 2218              		.fpu fpv4-sp-d16
 2220              	mbedtls_rsa_rsassa_pss_sign:
 2221              	.LFB26:
1044:C:/Users/lenovo/Desktop/liteos/Project2/BearPi_LiteOS/components/security/mbedtls/mbedtls-2.6.0/library\rsa.c **** 
1045:C:/Users/lenovo/Desktop/liteos/Project2/BearPi_LiteOS/components/security/mbedtls/mbedtls-2.6.0/library\rsa.c **** #if defined(MBEDTLS_PKCS1_V21)
1046:C:/Users/lenovo/Desktop/liteos/Project2/BearPi_LiteOS/components/security/mbedtls/mbedtls-2.6.0/library\rsa.c **** /*
1047:C:/Users/lenovo/Desktop/liteos/Project2/BearPi_LiteOS/components/security/mbedtls/mbedtls-2.6.0/library\rsa.c ****  * Implementation of the PKCS#1 v2.1 RSASSA-PSS-SIGN function
1048:C:/Users/lenovo/Desktop/liteos/Project2/BearPi_LiteOS/components/security/mbedtls/mbedtls-2.6.0/library\rsa.c ****  */
1049:C:/Users/lenovo/Desktop/liteos/Project2/BearPi_LiteOS/components/security/mbedtls/mbedtls-2.6.0/library\rsa.c **** int mbedtls_rsa_rsassa_pss_sign( mbedtls_rsa_context *ctx,
1050:C:/Users/lenovo/Desktop/liteos/Project2/BearPi_LiteOS/components/security/mbedtls/mbedtls-2.6.0/library\rsa.c ****                          int (*f_rng)(void *, unsigned char *, size_t),
1051:C:/Users/lenovo/Desktop/liteos/Project2/BearPi_LiteOS/components/security/mbedtls/mbedtls-2.6.0/library\rsa.c ****                          void *p_rng,
1052:C:/Users/lenovo/Desktop/liteos/Project2/BearPi_LiteOS/components/security/mbedtls/mbedtls-2.6.0/library\rsa.c ****                          int mode,
1053:C:/Users/lenovo/Desktop/liteos/Project2/BearPi_LiteOS/components/security/mbedtls/mbedtls-2.6.0/library\rsa.c ****                          mbedtls_md_type_t md_alg,
1054:C:/Users/lenovo/Desktop/liteos/Project2/BearPi_LiteOS/components/security/mbedtls/mbedtls-2.6.0/library\rsa.c ****                          unsigned int hashlen,
1055:C:/Users/lenovo/Desktop/liteos/Project2/BearPi_LiteOS/components/security/mbedtls/mbedtls-2.6.0/library\rsa.c ****                          const unsigned char *hash,
1056:C:/Users/lenovo/Desktop/liteos/Project2/BearPi_LiteOS/components/security/mbedtls/mbedtls-2.6.0/library\rsa.c ****                          unsigned char *sig )
1057:C:/Users/lenovo/Desktop/liteos/Project2/BearPi_LiteOS/components/security/mbedtls/mbedtls-2.6.0/library\rsa.c **** {
 2222              		.loc 1 1057 0
 2223              		.cfi_startproc
 2224              		@ args = 16, pretend = 0, frame = 64
 2225              		@ frame_needed = 0, uses_anonymous_args = 0
 2226              	.LVL362:
 2227 0000 2DE9F04F 		push	{r4, r5, r6, r7, r8, r9, r10, fp, lr}
ARM GAS  c:\Users\lenovo\AppData\Local\Temp\ccVehGBj.s 			page 62


 2228              	.LCFI38:
 2229              		.cfi_def_cfa_offset 36
 2230              		.cfi_offset 4, -36
 2231              		.cfi_offset 5, -32
 2232              		.cfi_offset 6, -28
 2233              		.cfi_offset 7, -24
 2234              		.cfi_offset 8, -20
 2235              		.cfi_offset 9, -16
 2236              		.cfi_offset 10, -12
 2237              		.cfi_offset 11, -8
 2238              		.cfi_offset 14, -4
 2239 0004 93B0     		sub	sp, sp, #76
 2240              	.LCFI39:
 2241              		.cfi_def_cfa_offset 112
 2242 0006 9DF87060 		ldrb	r6, [sp, #112]	@ zero_extendqisi2
 2243              	.LVL363:
1058:C:/Users/lenovo/Desktop/liteos/Project2/BearPi_LiteOS/components/security/mbedtls/mbedtls-2.6.0/library\rsa.c ****     size_t olen;
1059:C:/Users/lenovo/Desktop/liteos/Project2/BearPi_LiteOS/components/security/mbedtls/mbedtls-2.6.0/library\rsa.c ****     unsigned char *p = sig;
1060:C:/Users/lenovo/Desktop/liteos/Project2/BearPi_LiteOS/components/security/mbedtls/mbedtls-2.6.0/library\rsa.c ****     unsigned char salt[MBEDTLS_MD_MAX_SIZE];
1061:C:/Users/lenovo/Desktop/liteos/Project2/BearPi_LiteOS/components/security/mbedtls/mbedtls-2.6.0/library\rsa.c ****     unsigned int slen, hlen, offset = 0;
1062:C:/Users/lenovo/Desktop/liteos/Project2/BearPi_LiteOS/components/security/mbedtls/mbedtls-2.6.0/library\rsa.c ****     int ret;
1063:C:/Users/lenovo/Desktop/liteos/Project2/BearPi_LiteOS/components/security/mbedtls/mbedtls-2.6.0/library\rsa.c ****     size_t msb;
1064:C:/Users/lenovo/Desktop/liteos/Project2/BearPi_LiteOS/components/security/mbedtls/mbedtls-2.6.0/library\rsa.c ****     const mbedtls_md_info_t *md_info;
1065:C:/Users/lenovo/Desktop/liteos/Project2/BearPi_LiteOS/components/security/mbedtls/mbedtls-2.6.0/library\rsa.c ****     mbedtls_md_context_t md_ctx;
1066:C:/Users/lenovo/Desktop/liteos/Project2/BearPi_LiteOS/components/security/mbedtls/mbedtls-2.6.0/library\rsa.c **** 
1067:C:/Users/lenovo/Desktop/liteos/Project2/BearPi_LiteOS/components/security/mbedtls/mbedtls-2.6.0/library\rsa.c ****     if( mode == MBEDTLS_RSA_PRIVATE && ctx->padding != MBEDTLS_RSA_PKCS_V21 )
 2244              		.loc 1 1067 0
 2245 000a 012B     		cmp	r3, #1
 2246 000c 34D0     		beq	.L159
 2247              	.L145:
1068:C:/Users/lenovo/Desktop/liteos/Project2/BearPi_LiteOS/components/security/mbedtls/mbedtls-2.6.0/library\rsa.c ****         return( MBEDTLS_ERR_RSA_BAD_INPUT_DATA );
1069:C:/Users/lenovo/Desktop/liteos/Project2/BearPi_LiteOS/components/security/mbedtls/mbedtls-2.6.0/library\rsa.c **** 
1070:C:/Users/lenovo/Desktop/liteos/Project2/BearPi_LiteOS/components/security/mbedtls/mbedtls-2.6.0/library\rsa.c ****     if( f_rng == NULL )
 2248              		.loc 1 1070 0
 2249 000e 0029     		cmp	r1, #0
 2250 0010 00F0BA80 		beq	.L153
 2251 0014 0493     		str	r3, [sp, #16]
 2252 0016 0392     		str	r2, [sp, #12]
 2253 0018 0D46     		mov	r5, r1
 2254 001a 0446     		mov	r4, r0
1071:C:/Users/lenovo/Desktop/liteos/Project2/BearPi_LiteOS/components/security/mbedtls/mbedtls-2.6.0/library\rsa.c ****         return( MBEDTLS_ERR_RSA_BAD_INPUT_DATA );
1072:C:/Users/lenovo/Desktop/liteos/Project2/BearPi_LiteOS/components/security/mbedtls/mbedtls-2.6.0/library\rsa.c **** 
1073:C:/Users/lenovo/Desktop/liteos/Project2/BearPi_LiteOS/components/security/mbedtls/mbedtls-2.6.0/library\rsa.c ****     olen = ctx->len;
 2255              		.loc 1 1073 0
 2256 001c D0F80480 		ldr	r8, [r0, #4]
 2257              	.LVL364:
1074:C:/Users/lenovo/Desktop/liteos/Project2/BearPi_LiteOS/components/security/mbedtls/mbedtls-2.6.0/library\rsa.c **** 
1075:C:/Users/lenovo/Desktop/liteos/Project2/BearPi_LiteOS/components/security/mbedtls/mbedtls-2.6.0/library\rsa.c ****     if( md_alg != MBEDTLS_MD_NONE )
 2258              		.loc 1 1075 0
 2259 0020 46B1     		cbz	r6, .L147
1076:C:/Users/lenovo/Desktop/liteos/Project2/BearPi_LiteOS/components/security/mbedtls/mbedtls-2.6.0/library\rsa.c ****     {
1077:C:/Users/lenovo/Desktop/liteos/Project2/BearPi_LiteOS/components/security/mbedtls/mbedtls-2.6.0/library\rsa.c ****         /* Gather length of hash to sign */
1078:C:/Users/lenovo/Desktop/liteos/Project2/BearPi_LiteOS/components/security/mbedtls/mbedtls-2.6.0/library\rsa.c ****         md_info = mbedtls_md_info_from_type( md_alg );
 2260              		.loc 1 1078 0
 2261 0022 3046     		mov	r0, r6
 2262              	.LVL365:
 2263 0024 FFF7FEFF 		bl	mbedtls_md_info_from_type
ARM GAS  c:\Users\lenovo\AppData\Local\Temp\ccVehGBj.s 			page 63


 2264              	.LVL366:
1079:C:/Users/lenovo/Desktop/liteos/Project2/BearPi_LiteOS/components/security/mbedtls/mbedtls-2.6.0/library\rsa.c ****         if( md_info == NULL )
 2265              		.loc 1 1079 0
 2266 0028 0028     		cmp	r0, #0
 2267 002a 00F0AF80 		beq	.L154
1080:C:/Users/lenovo/Desktop/liteos/Project2/BearPi_LiteOS/components/security/mbedtls/mbedtls-2.6.0/library\rsa.c ****             return( MBEDTLS_ERR_RSA_BAD_INPUT_DATA );
1081:C:/Users/lenovo/Desktop/liteos/Project2/BearPi_LiteOS/components/security/mbedtls/mbedtls-2.6.0/library\rsa.c **** 
1082:C:/Users/lenovo/Desktop/liteos/Project2/BearPi_LiteOS/components/security/mbedtls/mbedtls-2.6.0/library\rsa.c ****         hashlen = mbedtls_md_get_size( md_info );
 2268              		.loc 1 1082 0
 2269 002e FFF7FEFF 		bl	mbedtls_md_get_size
 2270              	.LVL367:
 2271 0032 1D90     		str	r0, [sp, #116]
 2272              	.LVL368:
 2273              	.L147:
1083:C:/Users/lenovo/Desktop/liteos/Project2/BearPi_LiteOS/components/security/mbedtls/mbedtls-2.6.0/library\rsa.c ****     }
1084:C:/Users/lenovo/Desktop/liteos/Project2/BearPi_LiteOS/components/security/mbedtls/mbedtls-2.6.0/library\rsa.c **** 
1085:C:/Users/lenovo/Desktop/liteos/Project2/BearPi_LiteOS/components/security/mbedtls/mbedtls-2.6.0/library\rsa.c ****     md_info = mbedtls_md_info_from_type( (mbedtls_md_type_t) ctx->hash_id );
 2274              		.loc 1 1085 0
 2275 0034 94F8A800 		ldrb	r0, [r4, #168]	@ zero_extendqisi2
 2276 0038 FFF7FEFF 		bl	mbedtls_md_info_from_type
 2277              	.LVL369:
1086:C:/Users/lenovo/Desktop/liteos/Project2/BearPi_LiteOS/components/security/mbedtls/mbedtls-2.6.0/library\rsa.c ****     if( md_info == NULL )
 2278              		.loc 1 1086 0
 2279 003c 0746     		mov	r7, r0
 2280 003e 0028     		cmp	r0, #0
 2281 0040 00F0A680 		beq	.L155
1087:C:/Users/lenovo/Desktop/liteos/Project2/BearPi_LiteOS/components/security/mbedtls/mbedtls-2.6.0/library\rsa.c ****         return( MBEDTLS_ERR_RSA_BAD_INPUT_DATA );
1088:C:/Users/lenovo/Desktop/liteos/Project2/BearPi_LiteOS/components/security/mbedtls/mbedtls-2.6.0/library\rsa.c **** 
1089:C:/Users/lenovo/Desktop/liteos/Project2/BearPi_LiteOS/components/security/mbedtls/mbedtls-2.6.0/library\rsa.c ****     hlen = mbedtls_md_get_size( md_info );
 2282              		.loc 1 1089 0
 2283 0044 FFF7FEFF 		bl	mbedtls_md_get_size
 2284              	.LVL370:
 2285 0048 0646     		mov	r6, r0
 2286              	.LVL371:
1090:C:/Users/lenovo/Desktop/liteos/Project2/BearPi_LiteOS/components/security/mbedtls/mbedtls-2.6.0/library\rsa.c ****     slen = hlen;
1091:C:/Users/lenovo/Desktop/liteos/Project2/BearPi_LiteOS/components/security/mbedtls/mbedtls-2.6.0/library\rsa.c **** 
1092:C:/Users/lenovo/Desktop/liteos/Project2/BearPi_LiteOS/components/security/mbedtls/mbedtls-2.6.0/library\rsa.c ****     if( olen < hlen + slen + 2 )
 2287              		.loc 1 1092 0
 2288 004a 4FEA4009 		lsl	r9, r0, #1
 2289 004e 09F10203 		add	r3, r9, #2
 2290 0052 4345     		cmp	r3, r8
 2291 0054 00F29E80 		bhi	.L156
1093:C:/Users/lenovo/Desktop/liteos/Project2/BearPi_LiteOS/components/security/mbedtls/mbedtls-2.6.0/library\rsa.c ****         return( MBEDTLS_ERR_RSA_BAD_INPUT_DATA );
1094:C:/Users/lenovo/Desktop/liteos/Project2/BearPi_LiteOS/components/security/mbedtls/mbedtls-2.6.0/library\rsa.c **** 
1095:C:/Users/lenovo/Desktop/liteos/Project2/BearPi_LiteOS/components/security/mbedtls/mbedtls-2.6.0/library\rsa.c ****     memset( sig, 0, olen );
 2292              		.loc 1 1095 0
 2293 0058 4246     		mov	r2, r8
 2294 005a 0021     		movs	r1, #0
 2295 005c 1F98     		ldr	r0, [sp, #124]
 2296              	.LVL372:
 2297 005e FFF7FEFF 		bl	memset
 2298              	.LVL373:
1096:C:/Users/lenovo/Desktop/liteos/Project2/BearPi_LiteOS/components/security/mbedtls/mbedtls-2.6.0/library\rsa.c **** 
1097:C:/Users/lenovo/Desktop/liteos/Project2/BearPi_LiteOS/components/security/mbedtls/mbedtls-2.6.0/library\rsa.c ****     /* Generate salt of length slen */
1098:C:/Users/lenovo/Desktop/liteos/Project2/BearPi_LiteOS/components/security/mbedtls/mbedtls-2.6.0/library\rsa.c ****     if( ( ret = f_rng( p_rng, salt, slen ) ) != 0 )
 2299              		.loc 1 1098 0
 2300 0062 3246     		mov	r2, r6
ARM GAS  c:\Users\lenovo\AppData\Local\Temp\ccVehGBj.s 			page 64


 2301 0064 0AA9     		add	r1, sp, #40
 2302 0066 0398     		ldr	r0, [sp, #12]
 2303 0068 A847     		blx	r5
 2304              	.LVL374:
 2305 006a 58B1     		cbz	r0, .L148
1099:C:/Users/lenovo/Desktop/liteos/Project2/BearPi_LiteOS/components/security/mbedtls/mbedtls-2.6.0/library\rsa.c ****         return( MBEDTLS_ERR_RSA_RNG_FAILED + ret );
 2306              		.loc 1 1099 0
 2307 006c A0F58947 		sub	r7, r0, #17536
 2308              	.LVL375:
 2309              	.L144:
1100:C:/Users/lenovo/Desktop/liteos/Project2/BearPi_LiteOS/components/security/mbedtls/mbedtls-2.6.0/library\rsa.c **** 
1101:C:/Users/lenovo/Desktop/liteos/Project2/BearPi_LiteOS/components/security/mbedtls/mbedtls-2.6.0/library\rsa.c ****     /* Note: EMSA-PSS encoding is over the length of N - 1 bits */
1102:C:/Users/lenovo/Desktop/liteos/Project2/BearPi_LiteOS/components/security/mbedtls/mbedtls-2.6.0/library\rsa.c ****     msb = mbedtls_mpi_bitlen( &ctx->N ) - 1;
1103:C:/Users/lenovo/Desktop/liteos/Project2/BearPi_LiteOS/components/security/mbedtls/mbedtls-2.6.0/library\rsa.c ****     p += olen - hlen * 2 - 2;
1104:C:/Users/lenovo/Desktop/liteos/Project2/BearPi_LiteOS/components/security/mbedtls/mbedtls-2.6.0/library\rsa.c ****     *p++ = 0x01;
1105:C:/Users/lenovo/Desktop/liteos/Project2/BearPi_LiteOS/components/security/mbedtls/mbedtls-2.6.0/library\rsa.c ****     memcpy( p, salt, slen );
1106:C:/Users/lenovo/Desktop/liteos/Project2/BearPi_LiteOS/components/security/mbedtls/mbedtls-2.6.0/library\rsa.c ****     p += slen;
1107:C:/Users/lenovo/Desktop/liteos/Project2/BearPi_LiteOS/components/security/mbedtls/mbedtls-2.6.0/library\rsa.c **** 
1108:C:/Users/lenovo/Desktop/liteos/Project2/BearPi_LiteOS/components/security/mbedtls/mbedtls-2.6.0/library\rsa.c ****     mbedtls_md_init( &md_ctx );
1109:C:/Users/lenovo/Desktop/liteos/Project2/BearPi_LiteOS/components/security/mbedtls/mbedtls-2.6.0/library\rsa.c ****     if( ( ret = mbedtls_md_setup( &md_ctx, md_info, 0 ) ) != 0 )
1110:C:/Users/lenovo/Desktop/liteos/Project2/BearPi_LiteOS/components/security/mbedtls/mbedtls-2.6.0/library\rsa.c ****     {
1111:C:/Users/lenovo/Desktop/liteos/Project2/BearPi_LiteOS/components/security/mbedtls/mbedtls-2.6.0/library\rsa.c ****         mbedtls_md_free( &md_ctx );
1112:C:/Users/lenovo/Desktop/liteos/Project2/BearPi_LiteOS/components/security/mbedtls/mbedtls-2.6.0/library\rsa.c ****         /* No need to zeroize salt: we didn't use it. */
1113:C:/Users/lenovo/Desktop/liteos/Project2/BearPi_LiteOS/components/security/mbedtls/mbedtls-2.6.0/library\rsa.c ****         return( ret );
1114:C:/Users/lenovo/Desktop/liteos/Project2/BearPi_LiteOS/components/security/mbedtls/mbedtls-2.6.0/library\rsa.c ****     }
1115:C:/Users/lenovo/Desktop/liteos/Project2/BearPi_LiteOS/components/security/mbedtls/mbedtls-2.6.0/library\rsa.c **** 
1116:C:/Users/lenovo/Desktop/liteos/Project2/BearPi_LiteOS/components/security/mbedtls/mbedtls-2.6.0/library\rsa.c ****     /* Generate H = Hash( M' ) */
1117:C:/Users/lenovo/Desktop/liteos/Project2/BearPi_LiteOS/components/security/mbedtls/mbedtls-2.6.0/library\rsa.c ****     mbedtls_md_starts( &md_ctx );
1118:C:/Users/lenovo/Desktop/liteos/Project2/BearPi_LiteOS/components/security/mbedtls/mbedtls-2.6.0/library\rsa.c ****     mbedtls_md_update( &md_ctx, p, 8 );
1119:C:/Users/lenovo/Desktop/liteos/Project2/BearPi_LiteOS/components/security/mbedtls/mbedtls-2.6.0/library\rsa.c ****     mbedtls_md_update( &md_ctx, hash, hashlen );
1120:C:/Users/lenovo/Desktop/liteos/Project2/BearPi_LiteOS/components/security/mbedtls/mbedtls-2.6.0/library\rsa.c ****     mbedtls_md_update( &md_ctx, salt, slen );
1121:C:/Users/lenovo/Desktop/liteos/Project2/BearPi_LiteOS/components/security/mbedtls/mbedtls-2.6.0/library\rsa.c ****     mbedtls_md_finish( &md_ctx, p );
1122:C:/Users/lenovo/Desktop/liteos/Project2/BearPi_LiteOS/components/security/mbedtls/mbedtls-2.6.0/library\rsa.c ****     mbedtls_zeroize( salt, sizeof( salt ) );
1123:C:/Users/lenovo/Desktop/liteos/Project2/BearPi_LiteOS/components/security/mbedtls/mbedtls-2.6.0/library\rsa.c **** 
1124:C:/Users/lenovo/Desktop/liteos/Project2/BearPi_LiteOS/components/security/mbedtls/mbedtls-2.6.0/library\rsa.c ****     /* Compensate for boundary condition when applying mask */
1125:C:/Users/lenovo/Desktop/liteos/Project2/BearPi_LiteOS/components/security/mbedtls/mbedtls-2.6.0/library\rsa.c ****     if( msb % 8 == 0 )
1126:C:/Users/lenovo/Desktop/liteos/Project2/BearPi_LiteOS/components/security/mbedtls/mbedtls-2.6.0/library\rsa.c ****         offset = 1;
1127:C:/Users/lenovo/Desktop/liteos/Project2/BearPi_LiteOS/components/security/mbedtls/mbedtls-2.6.0/library\rsa.c **** 
1128:C:/Users/lenovo/Desktop/liteos/Project2/BearPi_LiteOS/components/security/mbedtls/mbedtls-2.6.0/library\rsa.c ****     /* maskedDB: Apply dbMask to DB */
1129:C:/Users/lenovo/Desktop/liteos/Project2/BearPi_LiteOS/components/security/mbedtls/mbedtls-2.6.0/library\rsa.c ****     mgf_mask( sig + offset, olen - hlen - 1 - offset, p, hlen, &md_ctx );
1130:C:/Users/lenovo/Desktop/liteos/Project2/BearPi_LiteOS/components/security/mbedtls/mbedtls-2.6.0/library\rsa.c **** 
1131:C:/Users/lenovo/Desktop/liteos/Project2/BearPi_LiteOS/components/security/mbedtls/mbedtls-2.6.0/library\rsa.c ****     mbedtls_md_free( &md_ctx );
1132:C:/Users/lenovo/Desktop/liteos/Project2/BearPi_LiteOS/components/security/mbedtls/mbedtls-2.6.0/library\rsa.c **** 
1133:C:/Users/lenovo/Desktop/liteos/Project2/BearPi_LiteOS/components/security/mbedtls/mbedtls-2.6.0/library\rsa.c ****     msb = mbedtls_mpi_bitlen( &ctx->N ) - 1;
1134:C:/Users/lenovo/Desktop/liteos/Project2/BearPi_LiteOS/components/security/mbedtls/mbedtls-2.6.0/library\rsa.c ****     sig[0] &= 0xFF >> ( olen * 8 - msb );
1135:C:/Users/lenovo/Desktop/liteos/Project2/BearPi_LiteOS/components/security/mbedtls/mbedtls-2.6.0/library\rsa.c **** 
1136:C:/Users/lenovo/Desktop/liteos/Project2/BearPi_LiteOS/components/security/mbedtls/mbedtls-2.6.0/library\rsa.c ****     p += hlen;
1137:C:/Users/lenovo/Desktop/liteos/Project2/BearPi_LiteOS/components/security/mbedtls/mbedtls-2.6.0/library\rsa.c ****     *p++ = 0xBC;
1138:C:/Users/lenovo/Desktop/liteos/Project2/BearPi_LiteOS/components/security/mbedtls/mbedtls-2.6.0/library\rsa.c **** 
1139:C:/Users/lenovo/Desktop/liteos/Project2/BearPi_LiteOS/components/security/mbedtls/mbedtls-2.6.0/library\rsa.c ****     return( ( mode == MBEDTLS_RSA_PUBLIC )
1140:C:/Users/lenovo/Desktop/liteos/Project2/BearPi_LiteOS/components/security/mbedtls/mbedtls-2.6.0/library\rsa.c ****             ? mbedtls_rsa_public(  ctx, sig, sig )
1141:C:/Users/lenovo/Desktop/liteos/Project2/BearPi_LiteOS/components/security/mbedtls/mbedtls-2.6.0/library\rsa.c ****             : mbedtls_rsa_private( ctx, f_rng, p_rng, sig, sig ) );
1142:C:/Users/lenovo/Desktop/liteos/Project2/BearPi_LiteOS/components/security/mbedtls/mbedtls-2.6.0/library\rsa.c **** }
 2310              		.loc 1 1142 0
 2311 0070 3846     		mov	r0, r7
 2312 0072 13B0     		add	sp, sp, #76
 2313              	.LCFI40:
ARM GAS  c:\Users\lenovo\AppData\Local\Temp\ccVehGBj.s 			page 65


 2314              		.cfi_remember_state
 2315              		.cfi_def_cfa_offset 36
 2316              		@ sp needed
 2317 0074 BDE8F08F 		pop	{r4, r5, r6, r7, r8, r9, r10, fp, pc}
 2318              	.LVL376:
 2319              	.L159:
 2320              	.LCFI41:
 2321              		.cfi_restore_state
1067:C:/Users/lenovo/Desktop/liteos/Project2/BearPi_LiteOS/components/security/mbedtls/mbedtls-2.6.0/library\rsa.c ****         return( MBEDTLS_ERR_RSA_BAD_INPUT_DATA );
 2322              		.loc 1 1067 0 discriminator 1
 2323 0078 D0F8A440 		ldr	r4, [r0, #164]
 2324 007c 012C     		cmp	r4, #1
 2325 007e C6D0     		beq	.L145
1068:C:/Users/lenovo/Desktop/liteos/Project2/BearPi_LiteOS/components/security/mbedtls/mbedtls-2.6.0/library\rsa.c **** 
 2326              		.loc 1 1068 0
 2327 0080 454F     		ldr	r7, .L162
 2328 0082 F5E7     		b	.L144
 2329              	.LVL377:
 2330              	.L148:
1102:C:/Users/lenovo/Desktop/liteos/Project2/BearPi_LiteOS/components/security/mbedtls/mbedtls-2.6.0/library\rsa.c ****     p += olen - hlen * 2 - 2;
 2331              		.loc 1 1102 0
 2332 0084 04F10803 		add	r3, r4, #8
 2333 0088 0593     		str	r3, [sp, #20]
 2334 008a 1846     		mov	r0, r3
 2335              	.LVL378:
 2336 008c FFF7FEFF 		bl	mbedtls_mpi_bitlen
 2337              	.LVL379:
 2338 0090 00F1FF3B 		add	fp, r0, #-1
 2339              	.LVL380:
1103:C:/Users/lenovo/Desktop/liteos/Project2/BearPi_LiteOS/components/security/mbedtls/mbedtls-2.6.0/library\rsa.c ****     *p++ = 0x01;
 2340              		.loc 1 1103 0
 2341 0094 A8EB0909 		sub	r9, r8, r9
 2342 0098 A9F10203 		sub	r3, r9, #2
 2343 009c 1F9A     		ldr	r2, [sp, #124]
 2344 009e 02EB0309 		add	r9, r2, r3
 2345              	.LVL381:
1104:C:/Users/lenovo/Desktop/liteos/Project2/BearPi_LiteOS/components/security/mbedtls/mbedtls-2.6.0/library\rsa.c ****     memcpy( p, salt, slen );
 2346              		.loc 1 1104 0
 2347 00a2 09F10109 		add	r9, r9, #1
 2348              	.LVL382:
 2349 00a6 0122     		movs	r2, #1
 2350 00a8 1F99     		ldr	r1, [sp, #124]
 2351 00aa CA54     		strb	r2, [r1, r3]
1105:C:/Users/lenovo/Desktop/liteos/Project2/BearPi_LiteOS/components/security/mbedtls/mbedtls-2.6.0/library\rsa.c ****     p += slen;
 2352              		.loc 1 1105 0
 2353 00ac 3246     		mov	r2, r6
 2354 00ae 0AA9     		add	r1, sp, #40
 2355 00b0 4846     		mov	r0, r9
 2356 00b2 FFF7FEFF 		bl	memcpy
 2357              	.LVL383:
1106:C:/Users/lenovo/Desktop/liteos/Project2/BearPi_LiteOS/components/security/mbedtls/mbedtls-2.6.0/library\rsa.c **** 
 2358              		.loc 1 1106 0
 2359 00b6 09EB060A 		add	r10, r9, r6
 2360              	.LVL384:
1108:C:/Users/lenovo/Desktop/liteos/Project2/BearPi_LiteOS/components/security/mbedtls/mbedtls-2.6.0/library\rsa.c ****     if( ( ret = mbedtls_md_setup( &md_ctx, md_info, 0 ) ) != 0 )
 2361              		.loc 1 1108 0
 2362 00ba 07A8     		add	r0, sp, #28
ARM GAS  c:\Users\lenovo\AppData\Local\Temp\ccVehGBj.s 			page 66


 2363 00bc FFF7FEFF 		bl	mbedtls_md_init
 2364              	.LVL385:
1109:C:/Users/lenovo/Desktop/liteos/Project2/BearPi_LiteOS/components/security/mbedtls/mbedtls-2.6.0/library\rsa.c ****     {
 2365              		.loc 1 1109 0
 2366 00c0 0022     		movs	r2, #0
 2367 00c2 3946     		mov	r1, r7
 2368 00c4 07A8     		add	r0, sp, #28
 2369 00c6 FFF7FEFF 		bl	mbedtls_md_setup
 2370              	.LVL386:
 2371 00ca 0746     		mov	r7, r0
 2372              	.LVL387:
 2373 00cc 0028     		cmp	r0, #0
 2374 00ce 4DD1     		bne	.L160
1117:C:/Users/lenovo/Desktop/liteos/Project2/BearPi_LiteOS/components/security/mbedtls/mbedtls-2.6.0/library\rsa.c ****     mbedtls_md_update( &md_ctx, p, 8 );
 2375              		.loc 1 1117 0
 2376 00d0 07A8     		add	r0, sp, #28
 2377              	.LVL388:
 2378 00d2 FFF7FEFF 		bl	mbedtls_md_starts
 2379              	.LVL389:
1118:C:/Users/lenovo/Desktop/liteos/Project2/BearPi_LiteOS/components/security/mbedtls/mbedtls-2.6.0/library\rsa.c ****     mbedtls_md_update( &md_ctx, hash, hashlen );
 2380              		.loc 1 1118 0
 2381 00d6 0822     		movs	r2, #8
 2382 00d8 5146     		mov	r1, r10
 2383 00da 07A8     		add	r0, sp, #28
 2384 00dc FFF7FEFF 		bl	mbedtls_md_update
 2385              	.LVL390:
1119:C:/Users/lenovo/Desktop/liteos/Project2/BearPi_LiteOS/components/security/mbedtls/mbedtls-2.6.0/library\rsa.c ****     mbedtls_md_update( &md_ctx, salt, slen );
 2386              		.loc 1 1119 0
 2387 00e0 1D9A     		ldr	r2, [sp, #116]
 2388 00e2 1E99     		ldr	r1, [sp, #120]
 2389 00e4 07A8     		add	r0, sp, #28
 2390 00e6 FFF7FEFF 		bl	mbedtls_md_update
 2391              	.LVL391:
1120:C:/Users/lenovo/Desktop/liteos/Project2/BearPi_LiteOS/components/security/mbedtls/mbedtls-2.6.0/library\rsa.c ****     mbedtls_md_finish( &md_ctx, p );
 2392              		.loc 1 1120 0
 2393 00ea 3246     		mov	r2, r6
 2394 00ec 0AA9     		add	r1, sp, #40
 2395 00ee 07A8     		add	r0, sp, #28
 2396 00f0 FFF7FEFF 		bl	mbedtls_md_update
 2397              	.LVL392:
1121:C:/Users/lenovo/Desktop/liteos/Project2/BearPi_LiteOS/components/security/mbedtls/mbedtls-2.6.0/library\rsa.c ****     mbedtls_zeroize( salt, sizeof( salt ) );
 2398              		.loc 1 1121 0
 2399 00f4 5146     		mov	r1, r10
 2400 00f6 07A8     		add	r0, sp, #28
 2401 00f8 FFF7FEFF 		bl	mbedtls_md_finish
 2402              	.LVL393:
1122:C:/Users/lenovo/Desktop/liteos/Project2/BearPi_LiteOS/components/security/mbedtls/mbedtls-2.6.0/library\rsa.c **** 
 2403              		.loc 1 1122 0
 2404 00fc 2021     		movs	r1, #32
 2405 00fe 0AA8     		add	r0, sp, #40
 2406 0100 FFF7FEFF 		bl	mbedtls_zeroize
 2407              	.LVL394:
1125:C:/Users/lenovo/Desktop/liteos/Project2/BearPi_LiteOS/components/security/mbedtls/mbedtls-2.6.0/library\rsa.c ****         offset = 1;
 2408              		.loc 1 1125 0
 2409 0104 1BF0070F 		tst	fp, #7
 2410 0108 34D0     		beq	.L157
1061:C:/Users/lenovo/Desktop/liteos/Project2/BearPi_LiteOS/components/security/mbedtls/mbedtls-2.6.0/library\rsa.c ****     int ret;
ARM GAS  c:\Users\lenovo\AppData\Local\Temp\ccVehGBj.s 			page 67


 2411              		.loc 1 1061 0
 2412 010a 4FF0000C 		mov	ip, #0
 2413              	.L150:
 2414              	.LVL395:
1129:C:/Users/lenovo/Desktop/liteos/Project2/BearPi_LiteOS/components/security/mbedtls/mbedtls-2.6.0/library\rsa.c **** 
 2415              		.loc 1 1129 0
 2416 010e A8EB0601 		sub	r1, r8, r6
 2417 0112 A1EB0C01 		sub	r1, r1, ip
 2418 0116 07AF     		add	r7, sp, #28
 2419              	.LVL396:
 2420 0118 0097     		str	r7, [sp]
 2421 011a 3346     		mov	r3, r6
 2422 011c 5246     		mov	r2, r10
 2423 011e 0139     		subs	r1, r1, #1
 2424 0120 1F98     		ldr	r0, [sp, #124]
 2425 0122 6044     		add	r0, r0, ip
 2426 0124 FFF7FEFF 		bl	mgf_mask
 2427              	.LVL397:
1131:C:/Users/lenovo/Desktop/liteos/Project2/BearPi_LiteOS/components/security/mbedtls/mbedtls-2.6.0/library\rsa.c **** 
 2428              		.loc 1 1131 0
 2429 0128 3846     		mov	r0, r7
 2430 012a FFF7FEFF 		bl	mbedtls_md_free
 2431              	.LVL398:
1133:C:/Users/lenovo/Desktop/liteos/Project2/BearPi_LiteOS/components/security/mbedtls/mbedtls-2.6.0/library\rsa.c ****     sig[0] &= 0xFF >> ( olen * 8 - msb );
 2432              		.loc 1 1133 0
 2433 012e 0598     		ldr	r0, [sp, #20]
 2434 0130 FFF7FEFF 		bl	mbedtls_mpi_bitlen
 2435              	.LVL399:
 2436 0134 0138     		subs	r0, r0, #1
 2437              	.LVL400:
1134:C:/Users/lenovo/Desktop/liteos/Project2/BearPi_LiteOS/components/security/mbedtls/mbedtls-2.6.0/library\rsa.c **** 
 2438              		.loc 1 1134 0
 2439 0136 C0EBC800 		rsb	r0, r0, r8, lsl #3
 2440              	.LVL401:
 2441 013a 4FF0FF08 		mov	r8, #255
 2442              	.LVL402:
 2443 013e 48FA00F0 		asr	r0, r8, r0
 2444 0142 1F9B     		ldr	r3, [sp, #124]
 2445 0144 93F80080 		ldrb	r8, [r3]	@ zero_extendqisi2
 2446 0148 08EA0008 		and	r8, r8, r0
 2447 014c 83F80080 		strb	r8, [r3]
 2448              	.LVL403:
1137:C:/Users/lenovo/Desktop/liteos/Project2/BearPi_LiteOS/components/security/mbedtls/mbedtls-2.6.0/library\rsa.c **** 
 2449              		.loc 1 1137 0
 2450 0150 BC23     		movs	r3, #188
 2451 0152 09F81630 		strb	r3, [r9, r6, lsl #1]
1141:C:/Users/lenovo/Desktop/liteos/Project2/BearPi_LiteOS/components/security/mbedtls/mbedtls-2.6.0/library\rsa.c **** }
 2452              		.loc 1 1141 0
 2453 0156 049B     		ldr	r3, [sp, #16]
 2454 0158 7BB1     		cbz	r3, .L161
1141:C:/Users/lenovo/Desktop/liteos/Project2/BearPi_LiteOS/components/security/mbedtls/mbedtls-2.6.0/library\rsa.c **** }
 2455              		.loc 1 1141 0 is_stmt 0 discriminator 2
 2456 015a 1F9B     		ldr	r3, [sp, #124]
 2457 015c 0093     		str	r3, [sp]
 2458 015e 039A     		ldr	r2, [sp, #12]
 2459 0160 2946     		mov	r1, r5
 2460 0162 2046     		mov	r0, r4
ARM GAS  c:\Users\lenovo\AppData\Local\Temp\ccVehGBj.s 			page 68


 2461 0164 FFF7FEFF 		bl	mbedtls_rsa_private
 2462              	.LVL404:
 2463 0168 0746     		mov	r7, r0
 2464 016a 81E7     		b	.L144
 2465              	.LVL405:
 2466              	.L160:
1111:C:/Users/lenovo/Desktop/liteos/Project2/BearPi_LiteOS/components/security/mbedtls/mbedtls-2.6.0/library\rsa.c ****         /* No need to zeroize salt: we didn't use it. */
 2467              		.loc 1 1111 0 is_stmt 1
 2468 016c 07A8     		add	r0, sp, #28
 2469              	.LVL406:
 2470 016e FFF7FEFF 		bl	mbedtls_md_free
 2471              	.LVL407:
1113:C:/Users/lenovo/Desktop/liteos/Project2/BearPi_LiteOS/components/security/mbedtls/mbedtls-2.6.0/library\rsa.c ****     }
 2472              		.loc 1 1113 0
 2473 0172 7DE7     		b	.L144
 2474              	.L157:
1126:C:/Users/lenovo/Desktop/liteos/Project2/BearPi_LiteOS/components/security/mbedtls/mbedtls-2.6.0/library\rsa.c **** 
 2475              		.loc 1 1126 0
 2476 0174 4FF0010C 		mov	ip, #1
 2477 0178 C9E7     		b	.L150
 2478              	.LVL408:
 2479              	.L161:
1141:C:/Users/lenovo/Desktop/liteos/Project2/BearPi_LiteOS/components/security/mbedtls/mbedtls-2.6.0/library\rsa.c **** }
 2480              		.loc 1 1141 0 discriminator 1
 2481 017a 1F9A     		ldr	r2, [sp, #124]
 2482 017c 1146     		mov	r1, r2
 2483 017e 2046     		mov	r0, r4
 2484 0180 FFF7FEFF 		bl	mbedtls_rsa_public
 2485              	.LVL409:
 2486 0184 0746     		mov	r7, r0
 2487 0186 73E7     		b	.L144
 2488              	.LVL410:
 2489              	.L153:
1071:C:/Users/lenovo/Desktop/liteos/Project2/BearPi_LiteOS/components/security/mbedtls/mbedtls-2.6.0/library\rsa.c **** 
 2490              		.loc 1 1071 0
 2491 0188 034F     		ldr	r7, .L162
 2492 018a 71E7     		b	.L144
 2493              	.LVL411:
 2494              	.L154:
1080:C:/Users/lenovo/Desktop/liteos/Project2/BearPi_LiteOS/components/security/mbedtls/mbedtls-2.6.0/library\rsa.c **** 
 2495              		.loc 1 1080 0
 2496 018c 024F     		ldr	r7, .L162
 2497 018e 6FE7     		b	.L144
 2498              	.L155:
1087:C:/Users/lenovo/Desktop/liteos/Project2/BearPi_LiteOS/components/security/mbedtls/mbedtls-2.6.0/library\rsa.c **** 
 2499              		.loc 1 1087 0
 2500 0190 014F     		ldr	r7, .L162
 2501 0192 6DE7     		b	.L144
 2502              	.LVL412:
 2503              	.L156:
1093:C:/Users/lenovo/Desktop/liteos/Project2/BearPi_LiteOS/components/security/mbedtls/mbedtls-2.6.0/library\rsa.c **** 
 2504              		.loc 1 1093 0
 2505 0194 004F     		ldr	r7, .L162
 2506              	.LVL413:
 2507 0196 6BE7     		b	.L144
 2508              	.L163:
 2509              		.align	2
ARM GAS  c:\Users\lenovo\AppData\Local\Temp\ccVehGBj.s 			page 69


 2510              	.L162:
 2511 0198 80BFFFFF 		.word	-16512
 2512              		.cfi_endproc
 2513              	.LFE26:
 2515              		.section	.text.mbedtls_rsa_pkcs1_sign,"ax",%progbits
 2516              		.align	1
 2517              		.global	mbedtls_rsa_pkcs1_sign
 2518              		.syntax unified
 2519              		.thumb
 2520              		.thumb_func
 2521              		.fpu fpv4-sp-d16
 2523              	mbedtls_rsa_pkcs1_sign:
 2524              	.LFB27:
1143:C:/Users/lenovo/Desktop/liteos/Project2/BearPi_LiteOS/components/security/mbedtls/mbedtls-2.6.0/library\rsa.c **** #endif /* MBEDTLS_PKCS1_V21 */
1144:C:/Users/lenovo/Desktop/liteos/Project2/BearPi_LiteOS/components/security/mbedtls/mbedtls-2.6.0/library\rsa.c **** 
1145:C:/Users/lenovo/Desktop/liteos/Project2/BearPi_LiteOS/components/security/mbedtls/mbedtls-2.6.0/library\rsa.c **** #if defined(MBEDTLS_PKCS1_V15)
1146:C:/Users/lenovo/Desktop/liteos/Project2/BearPi_LiteOS/components/security/mbedtls/mbedtls-2.6.0/library\rsa.c **** /*
1147:C:/Users/lenovo/Desktop/liteos/Project2/BearPi_LiteOS/components/security/mbedtls/mbedtls-2.6.0/library\rsa.c ****  * Implementation of the PKCS#1 v2.1 RSASSA-PKCS1-V1_5-SIGN function
1148:C:/Users/lenovo/Desktop/liteos/Project2/BearPi_LiteOS/components/security/mbedtls/mbedtls-2.6.0/library\rsa.c ****  */
1149:C:/Users/lenovo/Desktop/liteos/Project2/BearPi_LiteOS/components/security/mbedtls/mbedtls-2.6.0/library\rsa.c **** /*
1150:C:/Users/lenovo/Desktop/liteos/Project2/BearPi_LiteOS/components/security/mbedtls/mbedtls-2.6.0/library\rsa.c ****  * Do an RSA operation to sign the message digest
1151:C:/Users/lenovo/Desktop/liteos/Project2/BearPi_LiteOS/components/security/mbedtls/mbedtls-2.6.0/library\rsa.c ****  */
1152:C:/Users/lenovo/Desktop/liteos/Project2/BearPi_LiteOS/components/security/mbedtls/mbedtls-2.6.0/library\rsa.c **** int mbedtls_rsa_rsassa_pkcs1_v15_sign( mbedtls_rsa_context *ctx,
1153:C:/Users/lenovo/Desktop/liteos/Project2/BearPi_LiteOS/components/security/mbedtls/mbedtls-2.6.0/library\rsa.c ****                                int (*f_rng)(void *, unsigned char *, size_t),
1154:C:/Users/lenovo/Desktop/liteos/Project2/BearPi_LiteOS/components/security/mbedtls/mbedtls-2.6.0/library\rsa.c ****                                void *p_rng,
1155:C:/Users/lenovo/Desktop/liteos/Project2/BearPi_LiteOS/components/security/mbedtls/mbedtls-2.6.0/library\rsa.c ****                                int mode,
1156:C:/Users/lenovo/Desktop/liteos/Project2/BearPi_LiteOS/components/security/mbedtls/mbedtls-2.6.0/library\rsa.c ****                                mbedtls_md_type_t md_alg,
1157:C:/Users/lenovo/Desktop/liteos/Project2/BearPi_LiteOS/components/security/mbedtls/mbedtls-2.6.0/library\rsa.c ****                                unsigned int hashlen,
1158:C:/Users/lenovo/Desktop/liteos/Project2/BearPi_LiteOS/components/security/mbedtls/mbedtls-2.6.0/library\rsa.c ****                                const unsigned char *hash,
1159:C:/Users/lenovo/Desktop/liteos/Project2/BearPi_LiteOS/components/security/mbedtls/mbedtls-2.6.0/library\rsa.c ****                                unsigned char *sig )
1160:C:/Users/lenovo/Desktop/liteos/Project2/BearPi_LiteOS/components/security/mbedtls/mbedtls-2.6.0/library\rsa.c **** {
1161:C:/Users/lenovo/Desktop/liteos/Project2/BearPi_LiteOS/components/security/mbedtls/mbedtls-2.6.0/library\rsa.c ****     size_t nb_pad, olen, oid_size = 0;
1162:C:/Users/lenovo/Desktop/liteos/Project2/BearPi_LiteOS/components/security/mbedtls/mbedtls-2.6.0/library\rsa.c ****     unsigned char *p = sig;
1163:C:/Users/lenovo/Desktop/liteos/Project2/BearPi_LiteOS/components/security/mbedtls/mbedtls-2.6.0/library\rsa.c ****     const char *oid = NULL;
1164:C:/Users/lenovo/Desktop/liteos/Project2/BearPi_LiteOS/components/security/mbedtls/mbedtls-2.6.0/library\rsa.c ****     unsigned char *sig_try = NULL, *verif = NULL;
1165:C:/Users/lenovo/Desktop/liteos/Project2/BearPi_LiteOS/components/security/mbedtls/mbedtls-2.6.0/library\rsa.c ****     size_t i;
1166:C:/Users/lenovo/Desktop/liteos/Project2/BearPi_LiteOS/components/security/mbedtls/mbedtls-2.6.0/library\rsa.c ****     unsigned char diff;
1167:C:/Users/lenovo/Desktop/liteos/Project2/BearPi_LiteOS/components/security/mbedtls/mbedtls-2.6.0/library\rsa.c ****     volatile unsigned char diff_no_optimize;
1168:C:/Users/lenovo/Desktop/liteos/Project2/BearPi_LiteOS/components/security/mbedtls/mbedtls-2.6.0/library\rsa.c ****     int ret;
1169:C:/Users/lenovo/Desktop/liteos/Project2/BearPi_LiteOS/components/security/mbedtls/mbedtls-2.6.0/library\rsa.c **** 
1170:C:/Users/lenovo/Desktop/liteos/Project2/BearPi_LiteOS/components/security/mbedtls/mbedtls-2.6.0/library\rsa.c ****     if( mode == MBEDTLS_RSA_PRIVATE && ctx->padding != MBEDTLS_RSA_PKCS_V15 )
1171:C:/Users/lenovo/Desktop/liteos/Project2/BearPi_LiteOS/components/security/mbedtls/mbedtls-2.6.0/library\rsa.c ****         return( MBEDTLS_ERR_RSA_BAD_INPUT_DATA );
1172:C:/Users/lenovo/Desktop/liteos/Project2/BearPi_LiteOS/components/security/mbedtls/mbedtls-2.6.0/library\rsa.c **** 
1173:C:/Users/lenovo/Desktop/liteos/Project2/BearPi_LiteOS/components/security/mbedtls/mbedtls-2.6.0/library\rsa.c ****     olen = ctx->len;
1174:C:/Users/lenovo/Desktop/liteos/Project2/BearPi_LiteOS/components/security/mbedtls/mbedtls-2.6.0/library\rsa.c ****     nb_pad = olen - 3;
1175:C:/Users/lenovo/Desktop/liteos/Project2/BearPi_LiteOS/components/security/mbedtls/mbedtls-2.6.0/library\rsa.c **** 
1176:C:/Users/lenovo/Desktop/liteos/Project2/BearPi_LiteOS/components/security/mbedtls/mbedtls-2.6.0/library\rsa.c ****     if( md_alg != MBEDTLS_MD_NONE )
1177:C:/Users/lenovo/Desktop/liteos/Project2/BearPi_LiteOS/components/security/mbedtls/mbedtls-2.6.0/library\rsa.c ****     {
1178:C:/Users/lenovo/Desktop/liteos/Project2/BearPi_LiteOS/components/security/mbedtls/mbedtls-2.6.0/library\rsa.c ****         const mbedtls_md_info_t *md_info = mbedtls_md_info_from_type( md_alg );
1179:C:/Users/lenovo/Desktop/liteos/Project2/BearPi_LiteOS/components/security/mbedtls/mbedtls-2.6.0/library\rsa.c ****         if( md_info == NULL )
1180:C:/Users/lenovo/Desktop/liteos/Project2/BearPi_LiteOS/components/security/mbedtls/mbedtls-2.6.0/library\rsa.c ****             return( MBEDTLS_ERR_RSA_BAD_INPUT_DATA );
1181:C:/Users/lenovo/Desktop/liteos/Project2/BearPi_LiteOS/components/security/mbedtls/mbedtls-2.6.0/library\rsa.c **** 
1182:C:/Users/lenovo/Desktop/liteos/Project2/BearPi_LiteOS/components/security/mbedtls/mbedtls-2.6.0/library\rsa.c ****         if( mbedtls_oid_get_oid_by_md( md_alg, &oid, &oid_size ) != 0 )
1183:C:/Users/lenovo/Desktop/liteos/Project2/BearPi_LiteOS/components/security/mbedtls/mbedtls-2.6.0/library\rsa.c ****             return( MBEDTLS_ERR_RSA_BAD_INPUT_DATA );
1184:C:/Users/lenovo/Desktop/liteos/Project2/BearPi_LiteOS/components/security/mbedtls/mbedtls-2.6.0/library\rsa.c **** 
1185:C:/Users/lenovo/Desktop/liteos/Project2/BearPi_LiteOS/components/security/mbedtls/mbedtls-2.6.0/library\rsa.c ****         nb_pad -= 10 + oid_size;
1186:C:/Users/lenovo/Desktop/liteos/Project2/BearPi_LiteOS/components/security/mbedtls/mbedtls-2.6.0/library\rsa.c **** 
ARM GAS  c:\Users\lenovo\AppData\Local\Temp\ccVehGBj.s 			page 70


1187:C:/Users/lenovo/Desktop/liteos/Project2/BearPi_LiteOS/components/security/mbedtls/mbedtls-2.6.0/library\rsa.c ****         hashlen = mbedtls_md_get_size( md_info );
1188:C:/Users/lenovo/Desktop/liteos/Project2/BearPi_LiteOS/components/security/mbedtls/mbedtls-2.6.0/library\rsa.c ****     }
1189:C:/Users/lenovo/Desktop/liteos/Project2/BearPi_LiteOS/components/security/mbedtls/mbedtls-2.6.0/library\rsa.c **** 
1190:C:/Users/lenovo/Desktop/liteos/Project2/BearPi_LiteOS/components/security/mbedtls/mbedtls-2.6.0/library\rsa.c ****     nb_pad -= hashlen;
1191:C:/Users/lenovo/Desktop/liteos/Project2/BearPi_LiteOS/components/security/mbedtls/mbedtls-2.6.0/library\rsa.c **** 
1192:C:/Users/lenovo/Desktop/liteos/Project2/BearPi_LiteOS/components/security/mbedtls/mbedtls-2.6.0/library\rsa.c ****     if( ( nb_pad < 8 ) || ( nb_pad > olen ) )
1193:C:/Users/lenovo/Desktop/liteos/Project2/BearPi_LiteOS/components/security/mbedtls/mbedtls-2.6.0/library\rsa.c ****         return( MBEDTLS_ERR_RSA_BAD_INPUT_DATA );
1194:C:/Users/lenovo/Desktop/liteos/Project2/BearPi_LiteOS/components/security/mbedtls/mbedtls-2.6.0/library\rsa.c **** 
1195:C:/Users/lenovo/Desktop/liteos/Project2/BearPi_LiteOS/components/security/mbedtls/mbedtls-2.6.0/library\rsa.c ****     *p++ = 0;
1196:C:/Users/lenovo/Desktop/liteos/Project2/BearPi_LiteOS/components/security/mbedtls/mbedtls-2.6.0/library\rsa.c ****     *p++ = MBEDTLS_RSA_SIGN;
1197:C:/Users/lenovo/Desktop/liteos/Project2/BearPi_LiteOS/components/security/mbedtls/mbedtls-2.6.0/library\rsa.c ****     memset( p, 0xFF, nb_pad );
1198:C:/Users/lenovo/Desktop/liteos/Project2/BearPi_LiteOS/components/security/mbedtls/mbedtls-2.6.0/library\rsa.c ****     p += nb_pad;
1199:C:/Users/lenovo/Desktop/liteos/Project2/BearPi_LiteOS/components/security/mbedtls/mbedtls-2.6.0/library\rsa.c ****     *p++ = 0;
1200:C:/Users/lenovo/Desktop/liteos/Project2/BearPi_LiteOS/components/security/mbedtls/mbedtls-2.6.0/library\rsa.c **** 
1201:C:/Users/lenovo/Desktop/liteos/Project2/BearPi_LiteOS/components/security/mbedtls/mbedtls-2.6.0/library\rsa.c ****     if( md_alg == MBEDTLS_MD_NONE )
1202:C:/Users/lenovo/Desktop/liteos/Project2/BearPi_LiteOS/components/security/mbedtls/mbedtls-2.6.0/library\rsa.c ****     {
1203:C:/Users/lenovo/Desktop/liteos/Project2/BearPi_LiteOS/components/security/mbedtls/mbedtls-2.6.0/library\rsa.c ****         memcpy( p, hash, hashlen );
1204:C:/Users/lenovo/Desktop/liteos/Project2/BearPi_LiteOS/components/security/mbedtls/mbedtls-2.6.0/library\rsa.c ****     }
1205:C:/Users/lenovo/Desktop/liteos/Project2/BearPi_LiteOS/components/security/mbedtls/mbedtls-2.6.0/library\rsa.c ****     else
1206:C:/Users/lenovo/Desktop/liteos/Project2/BearPi_LiteOS/components/security/mbedtls/mbedtls-2.6.0/library\rsa.c ****     {
1207:C:/Users/lenovo/Desktop/liteos/Project2/BearPi_LiteOS/components/security/mbedtls/mbedtls-2.6.0/library\rsa.c ****         /*
1208:C:/Users/lenovo/Desktop/liteos/Project2/BearPi_LiteOS/components/security/mbedtls/mbedtls-2.6.0/library\rsa.c ****          * DigestInfo ::= SEQUENCE {
1209:C:/Users/lenovo/Desktop/liteos/Project2/BearPi_LiteOS/components/security/mbedtls/mbedtls-2.6.0/library\rsa.c ****          *   digestAlgorithm DigestAlgorithmIdentifier,
1210:C:/Users/lenovo/Desktop/liteos/Project2/BearPi_LiteOS/components/security/mbedtls/mbedtls-2.6.0/library\rsa.c ****          *   digest Digest }
1211:C:/Users/lenovo/Desktop/liteos/Project2/BearPi_LiteOS/components/security/mbedtls/mbedtls-2.6.0/library\rsa.c ****          *
1212:C:/Users/lenovo/Desktop/liteos/Project2/BearPi_LiteOS/components/security/mbedtls/mbedtls-2.6.0/library\rsa.c ****          * DigestAlgorithmIdentifier ::= AlgorithmIdentifier
1213:C:/Users/lenovo/Desktop/liteos/Project2/BearPi_LiteOS/components/security/mbedtls/mbedtls-2.6.0/library\rsa.c ****          *
1214:C:/Users/lenovo/Desktop/liteos/Project2/BearPi_LiteOS/components/security/mbedtls/mbedtls-2.6.0/library\rsa.c ****          * Digest ::= OCTET STRING
1215:C:/Users/lenovo/Desktop/liteos/Project2/BearPi_LiteOS/components/security/mbedtls/mbedtls-2.6.0/library\rsa.c ****          */
1216:C:/Users/lenovo/Desktop/liteos/Project2/BearPi_LiteOS/components/security/mbedtls/mbedtls-2.6.0/library\rsa.c ****         *p++ = MBEDTLS_ASN1_SEQUENCE | MBEDTLS_ASN1_CONSTRUCTED;
1217:C:/Users/lenovo/Desktop/liteos/Project2/BearPi_LiteOS/components/security/mbedtls/mbedtls-2.6.0/library\rsa.c ****         *p++ = (unsigned char) ( 0x08 + oid_size + hashlen );
1218:C:/Users/lenovo/Desktop/liteos/Project2/BearPi_LiteOS/components/security/mbedtls/mbedtls-2.6.0/library\rsa.c ****         *p++ = MBEDTLS_ASN1_SEQUENCE | MBEDTLS_ASN1_CONSTRUCTED;
1219:C:/Users/lenovo/Desktop/liteos/Project2/BearPi_LiteOS/components/security/mbedtls/mbedtls-2.6.0/library\rsa.c ****         *p++ = (unsigned char) ( 0x04 + oid_size );
1220:C:/Users/lenovo/Desktop/liteos/Project2/BearPi_LiteOS/components/security/mbedtls/mbedtls-2.6.0/library\rsa.c ****         *p++ = MBEDTLS_ASN1_OID;
1221:C:/Users/lenovo/Desktop/liteos/Project2/BearPi_LiteOS/components/security/mbedtls/mbedtls-2.6.0/library\rsa.c ****         *p++ = oid_size & 0xFF;
1222:C:/Users/lenovo/Desktop/liteos/Project2/BearPi_LiteOS/components/security/mbedtls/mbedtls-2.6.0/library\rsa.c ****         memcpy( p, oid, oid_size );
1223:C:/Users/lenovo/Desktop/liteos/Project2/BearPi_LiteOS/components/security/mbedtls/mbedtls-2.6.0/library\rsa.c ****         p += oid_size;
1224:C:/Users/lenovo/Desktop/liteos/Project2/BearPi_LiteOS/components/security/mbedtls/mbedtls-2.6.0/library\rsa.c ****         *p++ = MBEDTLS_ASN1_NULL;
1225:C:/Users/lenovo/Desktop/liteos/Project2/BearPi_LiteOS/components/security/mbedtls/mbedtls-2.6.0/library\rsa.c ****         *p++ = 0x00;
1226:C:/Users/lenovo/Desktop/liteos/Project2/BearPi_LiteOS/components/security/mbedtls/mbedtls-2.6.0/library\rsa.c ****         *p++ = MBEDTLS_ASN1_OCTET_STRING;
1227:C:/Users/lenovo/Desktop/liteos/Project2/BearPi_LiteOS/components/security/mbedtls/mbedtls-2.6.0/library\rsa.c ****         *p++ = hashlen;
1228:C:/Users/lenovo/Desktop/liteos/Project2/BearPi_LiteOS/components/security/mbedtls/mbedtls-2.6.0/library\rsa.c ****         memcpy( p, hash, hashlen );
1229:C:/Users/lenovo/Desktop/liteos/Project2/BearPi_LiteOS/components/security/mbedtls/mbedtls-2.6.0/library\rsa.c ****     }
1230:C:/Users/lenovo/Desktop/liteos/Project2/BearPi_LiteOS/components/security/mbedtls/mbedtls-2.6.0/library\rsa.c **** 
1231:C:/Users/lenovo/Desktop/liteos/Project2/BearPi_LiteOS/components/security/mbedtls/mbedtls-2.6.0/library\rsa.c ****     if( mode == MBEDTLS_RSA_PUBLIC )
1232:C:/Users/lenovo/Desktop/liteos/Project2/BearPi_LiteOS/components/security/mbedtls/mbedtls-2.6.0/library\rsa.c ****         return( mbedtls_rsa_public(  ctx, sig, sig ) );
1233:C:/Users/lenovo/Desktop/liteos/Project2/BearPi_LiteOS/components/security/mbedtls/mbedtls-2.6.0/library\rsa.c **** 
1234:C:/Users/lenovo/Desktop/liteos/Project2/BearPi_LiteOS/components/security/mbedtls/mbedtls-2.6.0/library\rsa.c ****     /*
1235:C:/Users/lenovo/Desktop/liteos/Project2/BearPi_LiteOS/components/security/mbedtls/mbedtls-2.6.0/library\rsa.c ****      * In order to prevent Lenstra's attack, make the signature in a
1236:C:/Users/lenovo/Desktop/liteos/Project2/BearPi_LiteOS/components/security/mbedtls/mbedtls-2.6.0/library\rsa.c ****      * temporary buffer and check it before returning it.
1237:C:/Users/lenovo/Desktop/liteos/Project2/BearPi_LiteOS/components/security/mbedtls/mbedtls-2.6.0/library\rsa.c ****      */
1238:C:/Users/lenovo/Desktop/liteos/Project2/BearPi_LiteOS/components/security/mbedtls/mbedtls-2.6.0/library\rsa.c ****     sig_try = mbedtls_calloc( 1, ctx->len );
1239:C:/Users/lenovo/Desktop/liteos/Project2/BearPi_LiteOS/components/security/mbedtls/mbedtls-2.6.0/library\rsa.c ****     if( sig_try == NULL )
1240:C:/Users/lenovo/Desktop/liteos/Project2/BearPi_LiteOS/components/security/mbedtls/mbedtls-2.6.0/library\rsa.c ****         return( MBEDTLS_ERR_MPI_ALLOC_FAILED );
1241:C:/Users/lenovo/Desktop/liteos/Project2/BearPi_LiteOS/components/security/mbedtls/mbedtls-2.6.0/library\rsa.c **** 
1242:C:/Users/lenovo/Desktop/liteos/Project2/BearPi_LiteOS/components/security/mbedtls/mbedtls-2.6.0/library\rsa.c ****     verif   = mbedtls_calloc( 1, ctx->len );
1243:C:/Users/lenovo/Desktop/liteos/Project2/BearPi_LiteOS/components/security/mbedtls/mbedtls-2.6.0/library\rsa.c ****     if( verif == NULL )
ARM GAS  c:\Users\lenovo\AppData\Local\Temp\ccVehGBj.s 			page 71


1244:C:/Users/lenovo/Desktop/liteos/Project2/BearPi_LiteOS/components/security/mbedtls/mbedtls-2.6.0/library\rsa.c ****     {
1245:C:/Users/lenovo/Desktop/liteos/Project2/BearPi_LiteOS/components/security/mbedtls/mbedtls-2.6.0/library\rsa.c ****         mbedtls_free( sig_try );
1246:C:/Users/lenovo/Desktop/liteos/Project2/BearPi_LiteOS/components/security/mbedtls/mbedtls-2.6.0/library\rsa.c ****         return( MBEDTLS_ERR_MPI_ALLOC_FAILED );
1247:C:/Users/lenovo/Desktop/liteos/Project2/BearPi_LiteOS/components/security/mbedtls/mbedtls-2.6.0/library\rsa.c ****     }
1248:C:/Users/lenovo/Desktop/liteos/Project2/BearPi_LiteOS/components/security/mbedtls/mbedtls-2.6.0/library\rsa.c **** 
1249:C:/Users/lenovo/Desktop/liteos/Project2/BearPi_LiteOS/components/security/mbedtls/mbedtls-2.6.0/library\rsa.c ****     MBEDTLS_MPI_CHK( mbedtls_rsa_private( ctx, f_rng, p_rng, sig, sig_try ) );
1250:C:/Users/lenovo/Desktop/liteos/Project2/BearPi_LiteOS/components/security/mbedtls/mbedtls-2.6.0/library\rsa.c ****     MBEDTLS_MPI_CHK( mbedtls_rsa_public( ctx, sig_try, verif ) );
1251:C:/Users/lenovo/Desktop/liteos/Project2/BearPi_LiteOS/components/security/mbedtls/mbedtls-2.6.0/library\rsa.c **** 
1252:C:/Users/lenovo/Desktop/liteos/Project2/BearPi_LiteOS/components/security/mbedtls/mbedtls-2.6.0/library\rsa.c ****     /* Compare in constant time just in case */
1253:C:/Users/lenovo/Desktop/liteos/Project2/BearPi_LiteOS/components/security/mbedtls/mbedtls-2.6.0/library\rsa.c ****     for( diff = 0, i = 0; i < ctx->len; i++ )
1254:C:/Users/lenovo/Desktop/liteos/Project2/BearPi_LiteOS/components/security/mbedtls/mbedtls-2.6.0/library\rsa.c ****         diff |= verif[i] ^ sig[i];
1255:C:/Users/lenovo/Desktop/liteos/Project2/BearPi_LiteOS/components/security/mbedtls/mbedtls-2.6.0/library\rsa.c ****     diff_no_optimize = diff;
1256:C:/Users/lenovo/Desktop/liteos/Project2/BearPi_LiteOS/components/security/mbedtls/mbedtls-2.6.0/library\rsa.c **** 
1257:C:/Users/lenovo/Desktop/liteos/Project2/BearPi_LiteOS/components/security/mbedtls/mbedtls-2.6.0/library\rsa.c ****     if( diff_no_optimize != 0 )
1258:C:/Users/lenovo/Desktop/liteos/Project2/BearPi_LiteOS/components/security/mbedtls/mbedtls-2.6.0/library\rsa.c ****     {
1259:C:/Users/lenovo/Desktop/liteos/Project2/BearPi_LiteOS/components/security/mbedtls/mbedtls-2.6.0/library\rsa.c ****         ret = MBEDTLS_ERR_RSA_PRIVATE_FAILED;
1260:C:/Users/lenovo/Desktop/liteos/Project2/BearPi_LiteOS/components/security/mbedtls/mbedtls-2.6.0/library\rsa.c ****         goto cleanup;
1261:C:/Users/lenovo/Desktop/liteos/Project2/BearPi_LiteOS/components/security/mbedtls/mbedtls-2.6.0/library\rsa.c ****     }
1262:C:/Users/lenovo/Desktop/liteos/Project2/BearPi_LiteOS/components/security/mbedtls/mbedtls-2.6.0/library\rsa.c **** 
1263:C:/Users/lenovo/Desktop/liteos/Project2/BearPi_LiteOS/components/security/mbedtls/mbedtls-2.6.0/library\rsa.c ****     memcpy( sig, sig_try, ctx->len );
1264:C:/Users/lenovo/Desktop/liteos/Project2/BearPi_LiteOS/components/security/mbedtls/mbedtls-2.6.0/library\rsa.c **** 
1265:C:/Users/lenovo/Desktop/liteos/Project2/BearPi_LiteOS/components/security/mbedtls/mbedtls-2.6.0/library\rsa.c **** cleanup:
1266:C:/Users/lenovo/Desktop/liteos/Project2/BearPi_LiteOS/components/security/mbedtls/mbedtls-2.6.0/library\rsa.c ****     mbedtls_free( sig_try );
1267:C:/Users/lenovo/Desktop/liteos/Project2/BearPi_LiteOS/components/security/mbedtls/mbedtls-2.6.0/library\rsa.c ****     mbedtls_free( verif );
1268:C:/Users/lenovo/Desktop/liteos/Project2/BearPi_LiteOS/components/security/mbedtls/mbedtls-2.6.0/library\rsa.c **** 
1269:C:/Users/lenovo/Desktop/liteos/Project2/BearPi_LiteOS/components/security/mbedtls/mbedtls-2.6.0/library\rsa.c ****     return( ret );
1270:C:/Users/lenovo/Desktop/liteos/Project2/BearPi_LiteOS/components/security/mbedtls/mbedtls-2.6.0/library\rsa.c **** }
1271:C:/Users/lenovo/Desktop/liteos/Project2/BearPi_LiteOS/components/security/mbedtls/mbedtls-2.6.0/library\rsa.c **** #endif /* MBEDTLS_PKCS1_V15 */
1272:C:/Users/lenovo/Desktop/liteos/Project2/BearPi_LiteOS/components/security/mbedtls/mbedtls-2.6.0/library\rsa.c **** 
1273:C:/Users/lenovo/Desktop/liteos/Project2/BearPi_LiteOS/components/security/mbedtls/mbedtls-2.6.0/library\rsa.c **** /*
1274:C:/Users/lenovo/Desktop/liteos/Project2/BearPi_LiteOS/components/security/mbedtls/mbedtls-2.6.0/library\rsa.c ****  * Do an RSA operation to sign the message digest
1275:C:/Users/lenovo/Desktop/liteos/Project2/BearPi_LiteOS/components/security/mbedtls/mbedtls-2.6.0/library\rsa.c ****  */
1276:C:/Users/lenovo/Desktop/liteos/Project2/BearPi_LiteOS/components/security/mbedtls/mbedtls-2.6.0/library\rsa.c **** int mbedtls_rsa_pkcs1_sign( mbedtls_rsa_context *ctx,
1277:C:/Users/lenovo/Desktop/liteos/Project2/BearPi_LiteOS/components/security/mbedtls/mbedtls-2.6.0/library\rsa.c ****                     int (*f_rng)(void *, unsigned char *, size_t),
1278:C:/Users/lenovo/Desktop/liteos/Project2/BearPi_LiteOS/components/security/mbedtls/mbedtls-2.6.0/library\rsa.c ****                     void *p_rng,
1279:C:/Users/lenovo/Desktop/liteos/Project2/BearPi_LiteOS/components/security/mbedtls/mbedtls-2.6.0/library\rsa.c ****                     int mode,
1280:C:/Users/lenovo/Desktop/liteos/Project2/BearPi_LiteOS/components/security/mbedtls/mbedtls-2.6.0/library\rsa.c ****                     mbedtls_md_type_t md_alg,
1281:C:/Users/lenovo/Desktop/liteos/Project2/BearPi_LiteOS/components/security/mbedtls/mbedtls-2.6.0/library\rsa.c ****                     unsigned int hashlen,
1282:C:/Users/lenovo/Desktop/liteos/Project2/BearPi_LiteOS/components/security/mbedtls/mbedtls-2.6.0/library\rsa.c ****                     const unsigned char *hash,
1283:C:/Users/lenovo/Desktop/liteos/Project2/BearPi_LiteOS/components/security/mbedtls/mbedtls-2.6.0/library\rsa.c ****                     unsigned char *sig )
1284:C:/Users/lenovo/Desktop/liteos/Project2/BearPi_LiteOS/components/security/mbedtls/mbedtls-2.6.0/library\rsa.c **** {
 2525              		.loc 1 1284 0
 2526              		.cfi_startproc
 2527              		@ args = 16, pretend = 0, frame = 0
 2528              		@ frame_needed = 0, uses_anonymous_args = 0
 2529              	.LVL414:
 2530 0000 10B5     		push	{r4, lr}
 2531              	.LCFI42:
 2532              		.cfi_def_cfa_offset 8
 2533              		.cfi_offset 4, -8
 2534              		.cfi_offset 14, -4
 2535 0002 84B0     		sub	sp, sp, #16
 2536              	.LCFI43:
 2537              		.cfi_def_cfa_offset 24
1285:C:/Users/lenovo/Desktop/liteos/Project2/BearPi_LiteOS/components/security/mbedtls/mbedtls-2.6.0/library\rsa.c ****     switch( ctx->padding )
 2538              		.loc 1 1285 0
 2539 0004 D0F8A440 		ldr	r4, [r0, #164]
ARM GAS  c:\Users\lenovo\AppData\Local\Temp\ccVehGBj.s 			page 72


 2540 0008 012C     		cmp	r4, #1
 2541 000a 0CD1     		bne	.L168
1286:C:/Users/lenovo/Desktop/liteos/Project2/BearPi_LiteOS/components/security/mbedtls/mbedtls-2.6.0/library\rsa.c ****     {
1287:C:/Users/lenovo/Desktop/liteos/Project2/BearPi_LiteOS/components/security/mbedtls/mbedtls-2.6.0/library\rsa.c **** #if defined(MBEDTLS_PKCS1_V15)
1288:C:/Users/lenovo/Desktop/liteos/Project2/BearPi_LiteOS/components/security/mbedtls/mbedtls-2.6.0/library\rsa.c ****         case MBEDTLS_RSA_PKCS_V15:
1289:C:/Users/lenovo/Desktop/liteos/Project2/BearPi_LiteOS/components/security/mbedtls/mbedtls-2.6.0/library\rsa.c ****             return mbedtls_rsa_rsassa_pkcs1_v15_sign( ctx, f_rng, p_rng, mode, md_alg,
1290:C:/Users/lenovo/Desktop/liteos/Project2/BearPi_LiteOS/components/security/mbedtls/mbedtls-2.6.0/library\rsa.c ****                                               hashlen, hash, sig );
1291:C:/Users/lenovo/Desktop/liteos/Project2/BearPi_LiteOS/components/security/mbedtls/mbedtls-2.6.0/library\rsa.c **** #endif
1292:C:/Users/lenovo/Desktop/liteos/Project2/BearPi_LiteOS/components/security/mbedtls/mbedtls-2.6.0/library\rsa.c **** 
1293:C:/Users/lenovo/Desktop/liteos/Project2/BearPi_LiteOS/components/security/mbedtls/mbedtls-2.6.0/library\rsa.c **** #if defined(MBEDTLS_PKCS1_V21)
1294:C:/Users/lenovo/Desktop/liteos/Project2/BearPi_LiteOS/components/security/mbedtls/mbedtls-2.6.0/library\rsa.c ****         case MBEDTLS_RSA_PKCS_V21:
1295:C:/Users/lenovo/Desktop/liteos/Project2/BearPi_LiteOS/components/security/mbedtls/mbedtls-2.6.0/library\rsa.c ****             return mbedtls_rsa_rsassa_pss_sign( ctx, f_rng, p_rng, mode, md_alg,
 2542              		.loc 1 1295 0
 2543 000c 099C     		ldr	r4, [sp, #36]
 2544 000e 0394     		str	r4, [sp, #12]
 2545 0010 089C     		ldr	r4, [sp, #32]
 2546 0012 0294     		str	r4, [sp, #8]
 2547 0014 079C     		ldr	r4, [sp, #28]
 2548 0016 0194     		str	r4, [sp, #4]
 2549 0018 9DF81840 		ldrb	r4, [sp, #24]	@ zero_extendqisi2
 2550 001c 0094     		str	r4, [sp]
 2551 001e FFF7FEFF 		bl	mbedtls_rsa_rsassa_pss_sign
 2552              	.LVL415:
 2553              	.L164:
1296:C:/Users/lenovo/Desktop/liteos/Project2/BearPi_LiteOS/components/security/mbedtls/mbedtls-2.6.0/library\rsa.c ****                                         hashlen, hash, sig );
1297:C:/Users/lenovo/Desktop/liteos/Project2/BearPi_LiteOS/components/security/mbedtls/mbedtls-2.6.0/library\rsa.c **** #endif
1298:C:/Users/lenovo/Desktop/liteos/Project2/BearPi_LiteOS/components/security/mbedtls/mbedtls-2.6.0/library\rsa.c **** 
1299:C:/Users/lenovo/Desktop/liteos/Project2/BearPi_LiteOS/components/security/mbedtls/mbedtls-2.6.0/library\rsa.c ****         default:
1300:C:/Users/lenovo/Desktop/liteos/Project2/BearPi_LiteOS/components/security/mbedtls/mbedtls-2.6.0/library\rsa.c ****             return( MBEDTLS_ERR_RSA_INVALID_PADDING );
1301:C:/Users/lenovo/Desktop/liteos/Project2/BearPi_LiteOS/components/security/mbedtls/mbedtls-2.6.0/library\rsa.c ****     }
1302:C:/Users/lenovo/Desktop/liteos/Project2/BearPi_LiteOS/components/security/mbedtls/mbedtls-2.6.0/library\rsa.c **** }
 2554              		.loc 1 1302 0
 2555 0022 04B0     		add	sp, sp, #16
 2556              	.LCFI44:
 2557              		.cfi_remember_state
 2558              		.cfi_def_cfa_offset 8
 2559              		@ sp needed
 2560 0024 10BD     		pop	{r4, pc}
 2561              	.LVL416:
 2562              	.L168:
 2563              	.LCFI45:
 2564              		.cfi_restore_state
1300:C:/Users/lenovo/Desktop/liteos/Project2/BearPi_LiteOS/components/security/mbedtls/mbedtls-2.6.0/library\rsa.c ****     }
 2565              		.loc 1 1300 0
 2566 0026 0148     		ldr	r0, .L170
 2567              	.LVL417:
 2568 0028 FBE7     		b	.L164
 2569              	.L171:
 2570 002a 00BF     		.align	2
 2571              	.L170:
 2572 002c 00BFFFFF 		.word	-16640
 2573              		.cfi_endproc
 2574              	.LFE27:
 2576              		.section	.text.mbedtls_rsa_rsassa_pss_verify_ext,"ax",%progbits
 2577              		.align	1
 2578              		.global	mbedtls_rsa_rsassa_pss_verify_ext
 2579              		.syntax unified
ARM GAS  c:\Users\lenovo\AppData\Local\Temp\ccVehGBj.s 			page 73


 2580              		.thumb
 2581              		.thumb_func
 2582              		.fpu fpv4-sp-d16
 2584              	mbedtls_rsa_rsassa_pss_verify_ext:
 2585              	.LFB28:
1303:C:/Users/lenovo/Desktop/liteos/Project2/BearPi_LiteOS/components/security/mbedtls/mbedtls-2.6.0/library\rsa.c **** 
1304:C:/Users/lenovo/Desktop/liteos/Project2/BearPi_LiteOS/components/security/mbedtls/mbedtls-2.6.0/library\rsa.c **** #if defined(MBEDTLS_PKCS1_V21)
1305:C:/Users/lenovo/Desktop/liteos/Project2/BearPi_LiteOS/components/security/mbedtls/mbedtls-2.6.0/library\rsa.c **** /*
1306:C:/Users/lenovo/Desktop/liteos/Project2/BearPi_LiteOS/components/security/mbedtls/mbedtls-2.6.0/library\rsa.c ****  * Implementation of the PKCS#1 v2.1 RSASSA-PSS-VERIFY function
1307:C:/Users/lenovo/Desktop/liteos/Project2/BearPi_LiteOS/components/security/mbedtls/mbedtls-2.6.0/library\rsa.c ****  */
1308:C:/Users/lenovo/Desktop/liteos/Project2/BearPi_LiteOS/components/security/mbedtls/mbedtls-2.6.0/library\rsa.c **** int mbedtls_rsa_rsassa_pss_verify_ext( mbedtls_rsa_context *ctx,
1309:C:/Users/lenovo/Desktop/liteos/Project2/BearPi_LiteOS/components/security/mbedtls/mbedtls-2.6.0/library\rsa.c ****                                int (*f_rng)(void *, unsigned char *, size_t),
1310:C:/Users/lenovo/Desktop/liteos/Project2/BearPi_LiteOS/components/security/mbedtls/mbedtls-2.6.0/library\rsa.c ****                                void *p_rng,
1311:C:/Users/lenovo/Desktop/liteos/Project2/BearPi_LiteOS/components/security/mbedtls/mbedtls-2.6.0/library\rsa.c ****                                int mode,
1312:C:/Users/lenovo/Desktop/liteos/Project2/BearPi_LiteOS/components/security/mbedtls/mbedtls-2.6.0/library\rsa.c ****                                mbedtls_md_type_t md_alg,
1313:C:/Users/lenovo/Desktop/liteos/Project2/BearPi_LiteOS/components/security/mbedtls/mbedtls-2.6.0/library\rsa.c ****                                unsigned int hashlen,
1314:C:/Users/lenovo/Desktop/liteos/Project2/BearPi_LiteOS/components/security/mbedtls/mbedtls-2.6.0/library\rsa.c ****                                const unsigned char *hash,
1315:C:/Users/lenovo/Desktop/liteos/Project2/BearPi_LiteOS/components/security/mbedtls/mbedtls-2.6.0/library\rsa.c ****                                mbedtls_md_type_t mgf1_hash_id,
1316:C:/Users/lenovo/Desktop/liteos/Project2/BearPi_LiteOS/components/security/mbedtls/mbedtls-2.6.0/library\rsa.c ****                                int expected_salt_len,
1317:C:/Users/lenovo/Desktop/liteos/Project2/BearPi_LiteOS/components/security/mbedtls/mbedtls-2.6.0/library\rsa.c ****                                const unsigned char *sig )
1318:C:/Users/lenovo/Desktop/liteos/Project2/BearPi_LiteOS/components/security/mbedtls/mbedtls-2.6.0/library\rsa.c **** {
 2586              		.loc 1 1318 0
 2587              		.cfi_startproc
 2588              		@ args = 24, pretend = 0, frame = 1080
 2589              		@ frame_needed = 0, uses_anonymous_args = 0
 2590              	.LVL418:
 2591 0000 2DE9F047 		push	{r4, r5, r6, r7, r8, r9, r10, lr}
 2592              	.LCFI46:
 2593              		.cfi_def_cfa_offset 32
 2594              		.cfi_offset 4, -32
 2595              		.cfi_offset 5, -28
 2596              		.cfi_offset 6, -24
 2597              		.cfi_offset 7, -20
 2598              		.cfi_offset 8, -16
 2599              		.cfi_offset 9, -12
 2600              		.cfi_offset 10, -8
 2601              		.cfi_offset 14, -4
 2602 0004 ADF5886D 		sub	sp, sp, #1088
 2603              	.LCFI47:
 2604              		.cfi_def_cfa_offset 1120
 2605 0008 9DF86084 		ldrb	r8, [sp, #1120]	@ zero_extendqisi2
1319:C:/Users/lenovo/Desktop/liteos/Project2/BearPi_LiteOS/components/security/mbedtls/mbedtls-2.6.0/library\rsa.c ****     int ret;
1320:C:/Users/lenovo/Desktop/liteos/Project2/BearPi_LiteOS/components/security/mbedtls/mbedtls-2.6.0/library\rsa.c ****     size_t siglen;
1321:C:/Users/lenovo/Desktop/liteos/Project2/BearPi_LiteOS/components/security/mbedtls/mbedtls-2.6.0/library\rsa.c ****     unsigned char *p;
1322:C:/Users/lenovo/Desktop/liteos/Project2/BearPi_LiteOS/components/security/mbedtls/mbedtls-2.6.0/library\rsa.c ****     unsigned char result[MBEDTLS_MD_MAX_SIZE];
1323:C:/Users/lenovo/Desktop/liteos/Project2/BearPi_LiteOS/components/security/mbedtls/mbedtls-2.6.0/library\rsa.c ****     unsigned char zeros[8];
1324:C:/Users/lenovo/Desktop/liteos/Project2/BearPi_LiteOS/components/security/mbedtls/mbedtls-2.6.0/library\rsa.c ****     unsigned int hlen;
1325:C:/Users/lenovo/Desktop/liteos/Project2/BearPi_LiteOS/components/security/mbedtls/mbedtls-2.6.0/library\rsa.c ****     size_t slen, msb;
1326:C:/Users/lenovo/Desktop/liteos/Project2/BearPi_LiteOS/components/security/mbedtls/mbedtls-2.6.0/library\rsa.c ****     const mbedtls_md_info_t *md_info;
1327:C:/Users/lenovo/Desktop/liteos/Project2/BearPi_LiteOS/components/security/mbedtls/mbedtls-2.6.0/library\rsa.c ****     mbedtls_md_context_t md_ctx;
1328:C:/Users/lenovo/Desktop/liteos/Project2/BearPi_LiteOS/components/security/mbedtls/mbedtls-2.6.0/library\rsa.c ****     unsigned char buf[MBEDTLS_MPI_MAX_SIZE];
1329:C:/Users/lenovo/Desktop/liteos/Project2/BearPi_LiteOS/components/security/mbedtls/mbedtls-2.6.0/library\rsa.c **** 
1330:C:/Users/lenovo/Desktop/liteos/Project2/BearPi_LiteOS/components/security/mbedtls/mbedtls-2.6.0/library\rsa.c ****     if( mode == MBEDTLS_RSA_PRIVATE && ctx->padding != MBEDTLS_RSA_PKCS_V21 )
 2606              		.loc 1 1330 0
 2607 000c 012B     		cmp	r3, #1
 2608 000e 72D0     		beq	.L195
 2609              	.L173:
ARM GAS  c:\Users\lenovo\AppData\Local\Temp\ccVehGBj.s 			page 74


1331:C:/Users/lenovo/Desktop/liteos/Project2/BearPi_LiteOS/components/security/mbedtls/mbedtls-2.6.0/library\rsa.c ****         return( MBEDTLS_ERR_RSA_BAD_INPUT_DATA );
1332:C:/Users/lenovo/Desktop/liteos/Project2/BearPi_LiteOS/components/security/mbedtls/mbedtls-2.6.0/library\rsa.c **** 
1333:C:/Users/lenovo/Desktop/liteos/Project2/BearPi_LiteOS/components/security/mbedtls/mbedtls-2.6.0/library\rsa.c ****     siglen = ctx->len;
 2610              		.loc 1 1333 0
 2611 0010 4768     		ldr	r7, [r0, #4]
 2612              	.LVL419:
1334:C:/Users/lenovo/Desktop/liteos/Project2/BearPi_LiteOS/components/security/mbedtls/mbedtls-2.6.0/library\rsa.c **** 
1335:C:/Users/lenovo/Desktop/liteos/Project2/BearPi_LiteOS/components/security/mbedtls/mbedtls-2.6.0/library\rsa.c ****     if( siglen < 16 || siglen > sizeof( buf ) )
 2613              		.loc 1 1335 0
 2614 0012 A7F11004 		sub	r4, r7, #16
 2615 0016 B4F57C7F 		cmp	r4, #1008
 2616 001a 00F2D880 		bhi	.L187
 2617 001e 0446     		mov	r4, r0
1336:C:/Users/lenovo/Desktop/liteos/Project2/BearPi_LiteOS/components/security/mbedtls/mbedtls-2.6.0/library\rsa.c ****         return( MBEDTLS_ERR_RSA_BAD_INPUT_DATA );
1337:C:/Users/lenovo/Desktop/liteos/Project2/BearPi_LiteOS/components/security/mbedtls/mbedtls-2.6.0/library\rsa.c **** 
1338:C:/Users/lenovo/Desktop/liteos/Project2/BearPi_LiteOS/components/security/mbedtls/mbedtls-2.6.0/library\rsa.c ****     ret = ( mode == MBEDTLS_RSA_PUBLIC )
1339:C:/Users/lenovo/Desktop/liteos/Project2/BearPi_LiteOS/components/security/mbedtls/mbedtls-2.6.0/library\rsa.c ****           ? mbedtls_rsa_public(  ctx, sig, buf )
1340:C:/Users/lenovo/Desktop/liteos/Project2/BearPi_LiteOS/components/security/mbedtls/mbedtls-2.6.0/library\rsa.c ****           : mbedtls_rsa_private( ctx, f_rng, p_rng, sig, buf );
 2618              		.loc 1 1340 0
 2619 0020 002B     		cmp	r3, #0
 2620 0022 6ED1     		bne	.L175
 2621              		.loc 1 1340 0 is_stmt 0 discriminator 1
 2622 0024 03AA     		add	r2, sp, #12
 2623              	.LVL420:
 2624 0026 DDF87414 		ldr	r1, [sp, #1140]
 2625              	.LVL421:
 2626 002a FFF7FEFF 		bl	mbedtls_rsa_public
 2627              	.LVL422:
 2628 002e 0646     		mov	r6, r0
 2629              	.L176:
 2630              	.LVL423:
1341:C:/Users/lenovo/Desktop/liteos/Project2/BearPi_LiteOS/components/security/mbedtls/mbedtls-2.6.0/library\rsa.c **** 
1342:C:/Users/lenovo/Desktop/liteos/Project2/BearPi_LiteOS/components/security/mbedtls/mbedtls-2.6.0/library\rsa.c ****     if( ret != 0 )
 2631              		.loc 1 1342 0 is_stmt 1
 2632 0030 002E     		cmp	r6, #0
 2633 0032 40F0BB80 		bne	.L172
 2634              	.LVL424:
1343:C:/Users/lenovo/Desktop/liteos/Project2/BearPi_LiteOS/components/security/mbedtls/mbedtls-2.6.0/library\rsa.c ****         return( ret );
1344:C:/Users/lenovo/Desktop/liteos/Project2/BearPi_LiteOS/components/security/mbedtls/mbedtls-2.6.0/library\rsa.c **** 
1345:C:/Users/lenovo/Desktop/liteos/Project2/BearPi_LiteOS/components/security/mbedtls/mbedtls-2.6.0/library\rsa.c ****     p = buf;
1346:C:/Users/lenovo/Desktop/liteos/Project2/BearPi_LiteOS/components/security/mbedtls/mbedtls-2.6.0/library\rsa.c **** 
1347:C:/Users/lenovo/Desktop/liteos/Project2/BearPi_LiteOS/components/security/mbedtls/mbedtls-2.6.0/library\rsa.c ****     if( buf[siglen - 1] != 0xBC )
 2635              		.loc 1 1347 0
 2636 0036 7D1E     		subs	r5, r7, #1
 2637 0038 03AB     		add	r3, sp, #12
 2638              	.LVL425:
 2639 003a 5B5D     		ldrb	r3, [r3, r5]	@ zero_extendqisi2
 2640              	.LVL426:
 2641 003c BC2B     		cmp	r3, #188
 2642 003e 40F0C880 		bne	.L188
1348:C:/Users/lenovo/Desktop/liteos/Project2/BearPi_LiteOS/components/security/mbedtls/mbedtls-2.6.0/library\rsa.c ****         return( MBEDTLS_ERR_RSA_INVALID_PADDING );
1349:C:/Users/lenovo/Desktop/liteos/Project2/BearPi_LiteOS/components/security/mbedtls/mbedtls-2.6.0/library\rsa.c **** 
1350:C:/Users/lenovo/Desktop/liteos/Project2/BearPi_LiteOS/components/security/mbedtls/mbedtls-2.6.0/library\rsa.c ****     if( md_alg != MBEDTLS_MD_NONE )
 2643              		.loc 1 1350 0
 2644 0042 B8F1000F 		cmp	r8, #0
 2645 0046 09D0     		beq	.L177
1351:C:/Users/lenovo/Desktop/liteos/Project2/BearPi_LiteOS/components/security/mbedtls/mbedtls-2.6.0/library\rsa.c ****     {
ARM GAS  c:\Users\lenovo\AppData\Local\Temp\ccVehGBj.s 			page 75


1352:C:/Users/lenovo/Desktop/liteos/Project2/BearPi_LiteOS/components/security/mbedtls/mbedtls-2.6.0/library\rsa.c ****         /* Gather length of hash to sign */
1353:C:/Users/lenovo/Desktop/liteos/Project2/BearPi_LiteOS/components/security/mbedtls/mbedtls-2.6.0/library\rsa.c ****         md_info = mbedtls_md_info_from_type( md_alg );
 2646              		.loc 1 1353 0
 2647 0048 4046     		mov	r0, r8
 2648 004a FFF7FEFF 		bl	mbedtls_md_info_from_type
 2649              	.LVL427:
1354:C:/Users/lenovo/Desktop/liteos/Project2/BearPi_LiteOS/components/security/mbedtls/mbedtls-2.6.0/library\rsa.c ****         if( md_info == NULL )
 2650              		.loc 1 1354 0
 2651 004e 0028     		cmp	r0, #0
 2652 0050 00F0C180 		beq	.L189
1355:C:/Users/lenovo/Desktop/liteos/Project2/BearPi_LiteOS/components/security/mbedtls/mbedtls-2.6.0/library\rsa.c ****             return( MBEDTLS_ERR_RSA_BAD_INPUT_DATA );
1356:C:/Users/lenovo/Desktop/liteos/Project2/BearPi_LiteOS/components/security/mbedtls/mbedtls-2.6.0/library\rsa.c **** 
1357:C:/Users/lenovo/Desktop/liteos/Project2/BearPi_LiteOS/components/security/mbedtls/mbedtls-2.6.0/library\rsa.c ****         hashlen = mbedtls_md_get_size( md_info );
 2653              		.loc 1 1357 0
 2654 0054 FFF7FEFF 		bl	mbedtls_md_get_size
 2655              	.LVL428:
 2656 0058 CDF86404 		str	r0, [sp, #1124]
 2657              	.LVL429:
 2658              	.L177:
1358:C:/Users/lenovo/Desktop/liteos/Project2/BearPi_LiteOS/components/security/mbedtls/mbedtls-2.6.0/library\rsa.c ****     }
1359:C:/Users/lenovo/Desktop/liteos/Project2/BearPi_LiteOS/components/security/mbedtls/mbedtls-2.6.0/library\rsa.c **** 
1360:C:/Users/lenovo/Desktop/liteos/Project2/BearPi_LiteOS/components/security/mbedtls/mbedtls-2.6.0/library\rsa.c ****     md_info = mbedtls_md_info_from_type( mgf1_hash_id );
 2659              		.loc 1 1360 0
 2660 005c 9DF86C04 		ldrb	r0, [sp, #1132]	@ zero_extendqisi2
 2661 0060 FFF7FEFF 		bl	mbedtls_md_info_from_type
 2662              	.LVL430:
1361:C:/Users/lenovo/Desktop/liteos/Project2/BearPi_LiteOS/components/security/mbedtls/mbedtls-2.6.0/library\rsa.c ****     if( md_info == NULL )
 2663              		.loc 1 1361 0
 2664 0064 0646     		mov	r6, r0
 2665              	.LVL431:
 2666 0066 0028     		cmp	r0, #0
 2667 0068 00F0B780 		beq	.L190
1362:C:/Users/lenovo/Desktop/liteos/Project2/BearPi_LiteOS/components/security/mbedtls/mbedtls-2.6.0/library\rsa.c ****         return( MBEDTLS_ERR_RSA_BAD_INPUT_DATA );
1363:C:/Users/lenovo/Desktop/liteos/Project2/BearPi_LiteOS/components/security/mbedtls/mbedtls-2.6.0/library\rsa.c **** 
1364:C:/Users/lenovo/Desktop/liteos/Project2/BearPi_LiteOS/components/security/mbedtls/mbedtls-2.6.0/library\rsa.c ****     hlen = mbedtls_md_get_size( md_info );
 2668              		.loc 1 1364 0
 2669 006c FFF7FEFF 		bl	mbedtls_md_get_size
 2670              	.LVL432:
 2671 0070 8146     		mov	r9, r0
 2672              	.LVL433:
1365:C:/Users/lenovo/Desktop/liteos/Project2/BearPi_LiteOS/components/security/mbedtls/mbedtls-2.6.0/library\rsa.c ****     slen = siglen - hlen - 1; /* Currently length of salt + padding */
 2673              		.loc 1 1365 0
 2674 0072 A7EB0008 		sub	r8, r7, r0
 2675 0076 08F1FF38 		add	r8, r8, #-1
 2676              	.LVL434:
1366:C:/Users/lenovo/Desktop/liteos/Project2/BearPi_LiteOS/components/security/mbedtls/mbedtls-2.6.0/library\rsa.c **** 
1367:C:/Users/lenovo/Desktop/liteos/Project2/BearPi_LiteOS/components/security/mbedtls/mbedtls-2.6.0/library\rsa.c ****     memset( zeros, 0, 8 );
 2677              		.loc 1 1367 0
 2678 007a 0023     		movs	r3, #0
 2679 007c CDF81834 		str	r3, [sp, #1048]
 2680 0080 CDF81C34 		str	r3, [sp, #1052]
1368:C:/Users/lenovo/Desktop/liteos/Project2/BearPi_LiteOS/components/security/mbedtls/mbedtls-2.6.0/library\rsa.c **** 
1369:C:/Users/lenovo/Desktop/liteos/Project2/BearPi_LiteOS/components/security/mbedtls/mbedtls-2.6.0/library\rsa.c ****     /*
1370:C:/Users/lenovo/Desktop/liteos/Project2/BearPi_LiteOS/components/security/mbedtls/mbedtls-2.6.0/library\rsa.c ****      * Note: EMSA-PSS verification is over the length of N - 1 bits
1371:C:/Users/lenovo/Desktop/liteos/Project2/BearPi_LiteOS/components/security/mbedtls/mbedtls-2.6.0/library\rsa.c ****      */
1372:C:/Users/lenovo/Desktop/liteos/Project2/BearPi_LiteOS/components/security/mbedtls/mbedtls-2.6.0/library\rsa.c ****     msb = mbedtls_mpi_bitlen( &ctx->N ) - 1;
 2681              		.loc 1 1372 0
ARM GAS  c:\Users\lenovo\AppData\Local\Temp\ccVehGBj.s 			page 76


 2682 0084 04F10800 		add	r0, r4, #8
 2683              	.LVL435:
 2684 0088 FFF7FEFF 		bl	mbedtls_mpi_bitlen
 2685              	.LVL436:
 2686 008c 00F1FF3A 		add	r10, r0, #-1
 2687              	.LVL437:
1373:C:/Users/lenovo/Desktop/liteos/Project2/BearPi_LiteOS/components/security/mbedtls/mbedtls-2.6.0/library\rsa.c **** 
1374:C:/Users/lenovo/Desktop/liteos/Project2/BearPi_LiteOS/components/security/mbedtls/mbedtls-2.6.0/library\rsa.c ****     /* Compensate for boundary condition when applying mask */
1375:C:/Users/lenovo/Desktop/liteos/Project2/BearPi_LiteOS/components/security/mbedtls/mbedtls-2.6.0/library\rsa.c ****     if( msb % 8 == 0 )
 2688              		.loc 1 1375 0
 2689 0090 1AF0070F 		tst	r10, #7
 2690 0094 3DD0     		beq	.L191
1333:C:/Users/lenovo/Desktop/liteos/Project2/BearPi_LiteOS/components/security/mbedtls/mbedtls-2.6.0/library\rsa.c **** 
 2691              		.loc 1 1333 0
 2692 0096 3D46     		mov	r5, r7
1345:C:/Users/lenovo/Desktop/liteos/Project2/BearPi_LiteOS/components/security/mbedtls/mbedtls-2.6.0/library\rsa.c **** 
 2693              		.loc 1 1345 0
 2694 0098 03AC     		add	r4, sp, #12
 2695              	.LVL438:
 2696              	.L178:
1376:C:/Users/lenovo/Desktop/liteos/Project2/BearPi_LiteOS/components/security/mbedtls/mbedtls-2.6.0/library\rsa.c ****     {
1377:C:/Users/lenovo/Desktop/liteos/Project2/BearPi_LiteOS/components/security/mbedtls/mbedtls-2.6.0/library\rsa.c ****         p++;
1378:C:/Users/lenovo/Desktop/liteos/Project2/BearPi_LiteOS/components/security/mbedtls/mbedtls-2.6.0/library\rsa.c ****         siglen -= 1;
1379:C:/Users/lenovo/Desktop/liteos/Project2/BearPi_LiteOS/components/security/mbedtls/mbedtls-2.6.0/library\rsa.c ****     }
1380:C:/Users/lenovo/Desktop/liteos/Project2/BearPi_LiteOS/components/security/mbedtls/mbedtls-2.6.0/library\rsa.c ****     if( buf[0] >> ( 8 - siglen * 8 + msb ) )
 2697              		.loc 1 1380 0
 2698 009a 9DF80C10 		ldrb	r1, [sp, #12]	@ zero_extendqisi2
 2699 009e C5EB4572 		rsb	r2, r5, r5, lsl #29
 2700 00a2 D300     		lsls	r3, r2, #3
 2701 00a4 5344     		add	r3, r3, r10
 2702 00a6 0833     		adds	r3, r3, #8
 2703 00a8 51FA03F3 		asrs	r3, r1, r3
 2704 00ac 40F09780 		bne	.L192
1381:C:/Users/lenovo/Desktop/liteos/Project2/BearPi_LiteOS/components/security/mbedtls/mbedtls-2.6.0/library\rsa.c ****         return( MBEDTLS_ERR_RSA_BAD_INPUT_DATA );
1382:C:/Users/lenovo/Desktop/liteos/Project2/BearPi_LiteOS/components/security/mbedtls/mbedtls-2.6.0/library\rsa.c **** 
1383:C:/Users/lenovo/Desktop/liteos/Project2/BearPi_LiteOS/components/security/mbedtls/mbedtls-2.6.0/library\rsa.c ****     mbedtls_md_init( &md_ctx );
 2705              		.loc 1 1383 0
 2706 00b0 0DF20C40 		addw	r0, sp, #1036
 2707 00b4 FFF7FEFF 		bl	mbedtls_md_init
 2708              	.LVL439:
1384:C:/Users/lenovo/Desktop/liteos/Project2/BearPi_LiteOS/components/security/mbedtls/mbedtls-2.6.0/library\rsa.c ****     if( ( ret = mbedtls_md_setup( &md_ctx, md_info, 0 ) ) != 0 )
 2709              		.loc 1 1384 0
 2710 00b8 0022     		movs	r2, #0
 2711 00ba 3146     		mov	r1, r6
 2712 00bc 0DF20C40 		addw	r0, sp, #1036
 2713 00c0 FFF7FEFF 		bl	mbedtls_md_setup
 2714              	.LVL440:
 2715 00c4 0646     		mov	r6, r0
 2716              	.LVL441:
 2717 00c6 38BB     		cbnz	r0, .L196
1385:C:/Users/lenovo/Desktop/liteos/Project2/BearPi_LiteOS/components/security/mbedtls/mbedtls-2.6.0/library\rsa.c ****     {
1386:C:/Users/lenovo/Desktop/liteos/Project2/BearPi_LiteOS/components/security/mbedtls/mbedtls-2.6.0/library\rsa.c ****         mbedtls_md_free( &md_ctx );
1387:C:/Users/lenovo/Desktop/liteos/Project2/BearPi_LiteOS/components/security/mbedtls/mbedtls-2.6.0/library\rsa.c ****         return( ret );
1388:C:/Users/lenovo/Desktop/liteos/Project2/BearPi_LiteOS/components/security/mbedtls/mbedtls-2.6.0/library\rsa.c ****     }
1389:C:/Users/lenovo/Desktop/liteos/Project2/BearPi_LiteOS/components/security/mbedtls/mbedtls-2.6.0/library\rsa.c **** 
1390:C:/Users/lenovo/Desktop/liteos/Project2/BearPi_LiteOS/components/security/mbedtls/mbedtls-2.6.0/library\rsa.c ****     mgf_mask( p, siglen - hlen - 1, p + siglen - hlen - 1, hlen, &md_ctx );
 2718              		.loc 1 1390 0
ARM GAS  c:\Users\lenovo\AppData\Local\Temp\ccVehGBj.s 			page 77


 2719 00c8 A5EB0901 		sub	r1, r5, r9
 2720 00cc 0139     		subs	r1, r1, #1
 2721 00ce 0DF20C43 		addw	r3, sp, #1036
 2722 00d2 0093     		str	r3, [sp]
 2723 00d4 4B46     		mov	r3, r9
 2724 00d6 6218     		adds	r2, r4, r1
 2725 00d8 2046     		mov	r0, r4
 2726              	.LVL442:
 2727 00da FFF7FEFF 		bl	mgf_mask
 2728              	.LVL443:
1391:C:/Users/lenovo/Desktop/liteos/Project2/BearPi_LiteOS/components/security/mbedtls/mbedtls-2.6.0/library\rsa.c **** 
1392:C:/Users/lenovo/Desktop/liteos/Project2/BearPi_LiteOS/components/security/mbedtls/mbedtls-2.6.0/library\rsa.c ****     buf[0] &= 0xFF >> ( siglen * 8 - msb );
 2729              		.loc 1 1392 0
 2730 00de CAEBC50A 		rsb	r10, r10, r5, lsl #3
 2731              	.LVL444:
 2732 00e2 FF23     		movs	r3, #255
 2733 00e4 43FA0AF3 		asr	r3, r3, r10
 2734 00e8 9DF80CA0 		ldrb	r10, [sp, #12]	@ zero_extendqisi2
 2735 00ec 0AEA030A 		and	r10, r10, r3
 2736 00f0 8DF80CA0 		strb	r10, [sp, #12]
1393:C:/Users/lenovo/Desktop/liteos/Project2/BearPi_LiteOS/components/security/mbedtls/mbedtls-2.6.0/library\rsa.c **** 
1394:C:/Users/lenovo/Desktop/liteos/Project2/BearPi_LiteOS/components/security/mbedtls/mbedtls-2.6.0/library\rsa.c ****     while( p < buf + siglen && *p == 0 )
 2737              		.loc 1 1394 0
 2738 00f4 16E0     		b	.L180
 2739              	.LVL445:
 2740              	.L195:
1330:C:/Users/lenovo/Desktop/liteos/Project2/BearPi_LiteOS/components/security/mbedtls/mbedtls-2.6.0/library\rsa.c ****         return( MBEDTLS_ERR_RSA_BAD_INPUT_DATA );
 2741              		.loc 1 1330 0 discriminator 1
 2742 00f6 D0F8A440 		ldr	r4, [r0, #164]
 2743 00fa 012C     		cmp	r4, #1
 2744 00fc 88D0     		beq	.L173
1331:C:/Users/lenovo/Desktop/liteos/Project2/BearPi_LiteOS/components/security/mbedtls/mbedtls-2.6.0/library\rsa.c **** 
 2745              		.loc 1 1331 0
 2746 00fe 3A4E     		ldr	r6, .L199
 2747 0100 54E0     		b	.L172
 2748              	.LVL446:
 2749              	.L175:
1340:C:/Users/lenovo/Desktop/liteos/Project2/BearPi_LiteOS/components/security/mbedtls/mbedtls-2.6.0/library\rsa.c **** 
 2750              		.loc 1 1340 0 discriminator 2
 2751 0102 03AB     		add	r3, sp, #12
 2752              	.LVL447:
 2753 0104 0093     		str	r3, [sp]
 2754 0106 DDF87434 		ldr	r3, [sp, #1140]
 2755 010a FFF7FEFF 		bl	mbedtls_rsa_private
 2756              	.LVL448:
 2757 010e 0646     		mov	r6, r0
 2758 0110 8EE7     		b	.L176
 2759              	.LVL449:
 2760              	.L191:
1377:C:/Users/lenovo/Desktop/liteos/Project2/BearPi_LiteOS/components/security/mbedtls/mbedtls-2.6.0/library\rsa.c ****         siglen -= 1;
 2761              		.loc 1 1377 0
 2762 0112 0DF10D04 		add	r4, sp, #13
 2763              	.LVL450:
 2764 0116 C0E7     		b	.L178
 2765              	.LVL451:
 2766              	.L196:
1386:C:/Users/lenovo/Desktop/liteos/Project2/BearPi_LiteOS/components/security/mbedtls/mbedtls-2.6.0/library\rsa.c ****         return( ret );
ARM GAS  c:\Users\lenovo\AppData\Local\Temp\ccVehGBj.s 			page 78


 2767              		.loc 1 1386 0
 2768 0118 0DF20C40 		addw	r0, sp, #1036
 2769              	.LVL452:
 2770 011c FFF7FEFF 		bl	mbedtls_md_free
 2771              	.LVL453:
1387:C:/Users/lenovo/Desktop/liteos/Project2/BearPi_LiteOS/components/security/mbedtls/mbedtls-2.6.0/library\rsa.c ****     }
 2772              		.loc 1 1387 0
 2773 0120 44E0     		b	.L172
 2774              	.LVL454:
 2775              	.L182:
1395:C:/Users/lenovo/Desktop/liteos/Project2/BearPi_LiteOS/components/security/mbedtls/mbedtls-2.6.0/library\rsa.c ****         p++;
 2776              		.loc 1 1395 0
 2777 0122 0134     		adds	r4, r4, #1
 2778              	.LVL455:
 2779              	.L180:
1394:C:/Users/lenovo/Desktop/liteos/Project2/BearPi_LiteOS/components/security/mbedtls/mbedtls-2.6.0/library\rsa.c ****         p++;
 2780              		.loc 1 1394 0
 2781 0124 03AB     		add	r3, sp, #12
 2782 0126 2B44     		add	r3, r3, r5
 2783 0128 A342     		cmp	r3, r4
 2784 012a 02D9     		bls	.L181
1394:C:/Users/lenovo/Desktop/liteos/Project2/BearPi_LiteOS/components/security/mbedtls/mbedtls-2.6.0/library\rsa.c ****         p++;
 2785              		.loc 1 1394 0 is_stmt 0 discriminator 1
 2786 012c 2278     		ldrb	r2, [r4]	@ zero_extendqisi2
 2787 012e 002A     		cmp	r2, #0
 2788 0130 F7D0     		beq	.L182
 2789              	.L181:
1396:C:/Users/lenovo/Desktop/liteos/Project2/BearPi_LiteOS/components/security/mbedtls/mbedtls-2.6.0/library\rsa.c **** 
1397:C:/Users/lenovo/Desktop/liteos/Project2/BearPi_LiteOS/components/security/mbedtls/mbedtls-2.6.0/library\rsa.c ****     if( p == buf + siglen ||
 2790              		.loc 1 1397 0 is_stmt 1
 2791 0132 A342     		cmp	r3, r4
 2792 0134 3FD0     		beq	.L183
1398:C:/Users/lenovo/Desktop/liteos/Project2/BearPi_LiteOS/components/security/mbedtls/mbedtls-2.6.0/library\rsa.c ****         *p++ != 0x01 )
 2793              		.loc 1 1398 0 discriminator 1
 2794 0136 651C     		adds	r5, r4, #1
 2795              	.LVL456:
 2796 0138 2378     		ldrb	r3, [r4]	@ zero_extendqisi2
1397:C:/Users/lenovo/Desktop/liteos/Project2/BearPi_LiteOS/components/security/mbedtls/mbedtls-2.6.0/library\rsa.c ****         *p++ != 0x01 )
 2797              		.loc 1 1397 0 discriminator 1
 2798 013a 012B     		cmp	r3, #1
 2799 013c 3BD1     		bne	.L183
1399:C:/Users/lenovo/Desktop/liteos/Project2/BearPi_LiteOS/components/security/mbedtls/mbedtls-2.6.0/library\rsa.c ****     {
1400:C:/Users/lenovo/Desktop/liteos/Project2/BearPi_LiteOS/components/security/mbedtls/mbedtls-2.6.0/library\rsa.c ****         mbedtls_md_free( &md_ctx );
1401:C:/Users/lenovo/Desktop/liteos/Project2/BearPi_LiteOS/components/security/mbedtls/mbedtls-2.6.0/library\rsa.c ****         return( MBEDTLS_ERR_RSA_INVALID_PADDING );
1402:C:/Users/lenovo/Desktop/liteos/Project2/BearPi_LiteOS/components/security/mbedtls/mbedtls-2.6.0/library\rsa.c ****     }
1403:C:/Users/lenovo/Desktop/liteos/Project2/BearPi_LiteOS/components/security/mbedtls/mbedtls-2.6.0/library\rsa.c **** 
1404:C:/Users/lenovo/Desktop/liteos/Project2/BearPi_LiteOS/components/security/mbedtls/mbedtls-2.6.0/library\rsa.c ****     /* Actual salt len */
1405:C:/Users/lenovo/Desktop/liteos/Project2/BearPi_LiteOS/components/security/mbedtls/mbedtls-2.6.0/library\rsa.c ****     slen -= p - buf;
 2800              		.loc 1 1405 0
 2801 013e 03AB     		add	r3, sp, #12
 2802 0140 EB1A     		subs	r3, r5, r3
 2803 0142 A8EB0308 		sub	r8, r8, r3
 2804              	.LVL457:
1406:C:/Users/lenovo/Desktop/liteos/Project2/BearPi_LiteOS/components/security/mbedtls/mbedtls-2.6.0/library\rsa.c **** 
1407:C:/Users/lenovo/Desktop/liteos/Project2/BearPi_LiteOS/components/security/mbedtls/mbedtls-2.6.0/library\rsa.c ****     if( expected_salt_len != MBEDTLS_RSA_SALT_LEN_ANY &&
 2805              		.loc 1 1407 0
 2806 0146 DDF87034 		ldr	r3, [sp, #1136]
ARM GAS  c:\Users\lenovo\AppData\Local\Temp\ccVehGBj.s 			page 79


 2807 014a B3F1FF3F 		cmp	r3, #-1
 2808 014e 01D0     		beq	.L185
 2809              		.loc 1 1407 0 is_stmt 0 discriminator 1
 2810 0150 4345     		cmp	r3, r8
 2811 0152 36D1     		bne	.L197
 2812              	.L185:
1408:C:/Users/lenovo/Desktop/liteos/Project2/BearPi_LiteOS/components/security/mbedtls/mbedtls-2.6.0/library\rsa.c ****         slen != (size_t) expected_salt_len )
1409:C:/Users/lenovo/Desktop/liteos/Project2/BearPi_LiteOS/components/security/mbedtls/mbedtls-2.6.0/library\rsa.c ****     {
1410:C:/Users/lenovo/Desktop/liteos/Project2/BearPi_LiteOS/components/security/mbedtls/mbedtls-2.6.0/library\rsa.c ****         mbedtls_md_free( &md_ctx );
1411:C:/Users/lenovo/Desktop/liteos/Project2/BearPi_LiteOS/components/security/mbedtls/mbedtls-2.6.0/library\rsa.c ****         return( MBEDTLS_ERR_RSA_INVALID_PADDING );
1412:C:/Users/lenovo/Desktop/liteos/Project2/BearPi_LiteOS/components/security/mbedtls/mbedtls-2.6.0/library\rsa.c ****     }
1413:C:/Users/lenovo/Desktop/liteos/Project2/BearPi_LiteOS/components/security/mbedtls/mbedtls-2.6.0/library\rsa.c **** 
1414:C:/Users/lenovo/Desktop/liteos/Project2/BearPi_LiteOS/components/security/mbedtls/mbedtls-2.6.0/library\rsa.c ****     /*
1415:C:/Users/lenovo/Desktop/liteos/Project2/BearPi_LiteOS/components/security/mbedtls/mbedtls-2.6.0/library\rsa.c ****      * Generate H = Hash( M' )
1416:C:/Users/lenovo/Desktop/liteos/Project2/BearPi_LiteOS/components/security/mbedtls/mbedtls-2.6.0/library\rsa.c ****      */
1417:C:/Users/lenovo/Desktop/liteos/Project2/BearPi_LiteOS/components/security/mbedtls/mbedtls-2.6.0/library\rsa.c ****     mbedtls_md_starts( &md_ctx );
 2813              		.loc 1 1417 0 is_stmt 1
 2814 0154 0DF20C40 		addw	r0, sp, #1036
 2815 0158 FFF7FEFF 		bl	mbedtls_md_starts
 2816              	.LVL458:
1418:C:/Users/lenovo/Desktop/liteos/Project2/BearPi_LiteOS/components/security/mbedtls/mbedtls-2.6.0/library\rsa.c ****     mbedtls_md_update( &md_ctx, zeros, 8 );
 2817              		.loc 1 1418 0
 2818 015c 0822     		movs	r2, #8
 2819 015e 0DF58361 		add	r1, sp, #1048
 2820 0162 0DF20C40 		addw	r0, sp, #1036
 2821 0166 FFF7FEFF 		bl	mbedtls_md_update
 2822              	.LVL459:
1419:C:/Users/lenovo/Desktop/liteos/Project2/BearPi_LiteOS/components/security/mbedtls/mbedtls-2.6.0/library\rsa.c ****     mbedtls_md_update( &md_ctx, hash, hashlen );
 2823              		.loc 1 1419 0
 2824 016a DDF86424 		ldr	r2, [sp, #1124]
 2825 016e DDF86814 		ldr	r1, [sp, #1128]
 2826 0172 0DF20C40 		addw	r0, sp, #1036
 2827 0176 FFF7FEFF 		bl	mbedtls_md_update
 2828              	.LVL460:
1420:C:/Users/lenovo/Desktop/liteos/Project2/BearPi_LiteOS/components/security/mbedtls/mbedtls-2.6.0/library\rsa.c ****     mbedtls_md_update( &md_ctx, p, slen );
 2829              		.loc 1 1420 0
 2830 017a 4246     		mov	r2, r8
 2831 017c 2946     		mov	r1, r5
 2832 017e 0DF20C40 		addw	r0, sp, #1036
 2833 0182 FFF7FEFF 		bl	mbedtls_md_update
 2834              	.LVL461:
1421:C:/Users/lenovo/Desktop/liteos/Project2/BearPi_LiteOS/components/security/mbedtls/mbedtls-2.6.0/library\rsa.c ****     mbedtls_md_finish( &md_ctx, result );
 2835              		.loc 1 1421 0
 2836 0186 0DF58461 		add	r1, sp, #1056
 2837 018a 0DF20C40 		addw	r0, sp, #1036
 2838 018e FFF7FEFF 		bl	mbedtls_md_finish
 2839              	.LVL462:
1422:C:/Users/lenovo/Desktop/liteos/Project2/BearPi_LiteOS/components/security/mbedtls/mbedtls-2.6.0/library\rsa.c **** 
1423:C:/Users/lenovo/Desktop/liteos/Project2/BearPi_LiteOS/components/security/mbedtls/mbedtls-2.6.0/library\rsa.c ****     mbedtls_md_free( &md_ctx );
 2840              		.loc 1 1423 0
 2841 0192 0DF20C40 		addw	r0, sp, #1036
 2842 0196 FFF7FEFF 		bl	mbedtls_md_free
 2843              	.LVL463:
1424:C:/Users/lenovo/Desktop/liteos/Project2/BearPi_LiteOS/components/security/mbedtls/mbedtls-2.6.0/library\rsa.c **** 
1425:C:/Users/lenovo/Desktop/liteos/Project2/BearPi_LiteOS/components/security/mbedtls/mbedtls-2.6.0/library\rsa.c ****     if( memcmp( p + slen, result, hlen ) == 0 )
 2844              		.loc 1 1425 0
 2845 019a 4A46     		mov	r2, r9
ARM GAS  c:\Users\lenovo\AppData\Local\Temp\ccVehGBj.s 			page 80


 2846 019c 0DF58461 		add	r1, sp, #1056
 2847 01a0 05EB0800 		add	r0, r5, r8
 2848 01a4 FFF7FEFF 		bl	memcmp
 2849              	.LVL464:
 2850 01a8 0646     		mov	r6, r0
 2851              	.LVL465:
 2852 01aa D0B9     		cbnz	r0, .L198
 2853              	.LVL466:
 2854              	.L172:
1426:C:/Users/lenovo/Desktop/liteos/Project2/BearPi_LiteOS/components/security/mbedtls/mbedtls-2.6.0/library\rsa.c ****         return( 0 );
1427:C:/Users/lenovo/Desktop/liteos/Project2/BearPi_LiteOS/components/security/mbedtls/mbedtls-2.6.0/library\rsa.c ****     else
1428:C:/Users/lenovo/Desktop/liteos/Project2/BearPi_LiteOS/components/security/mbedtls/mbedtls-2.6.0/library\rsa.c ****         return( MBEDTLS_ERR_RSA_VERIFY_FAILED );
1429:C:/Users/lenovo/Desktop/liteos/Project2/BearPi_LiteOS/components/security/mbedtls/mbedtls-2.6.0/library\rsa.c **** }
 2855              		.loc 1 1429 0
 2856 01ac 3046     		mov	r0, r6
 2857 01ae 0DF5886D 		add	sp, sp, #1088
 2858              	.LCFI48:
 2859              		.cfi_remember_state
 2860              		.cfi_def_cfa_offset 32
 2861              		@ sp needed
 2862 01b2 BDE8F087 		pop	{r4, r5, r6, r7, r8, r9, r10, pc}
 2863              	.LVL467:
 2864              	.L183:
 2865              	.LCFI49:
 2866              		.cfi_restore_state
1400:C:/Users/lenovo/Desktop/liteos/Project2/BearPi_LiteOS/components/security/mbedtls/mbedtls-2.6.0/library\rsa.c ****         return( MBEDTLS_ERR_RSA_INVALID_PADDING );
 2867              		.loc 1 1400 0
 2868 01b6 0DF20C40 		addw	r0, sp, #1036
 2869 01ba FFF7FEFF 		bl	mbedtls_md_free
 2870              	.LVL468:
1401:C:/Users/lenovo/Desktop/liteos/Project2/BearPi_LiteOS/components/security/mbedtls/mbedtls-2.6.0/library\rsa.c ****     }
 2871              		.loc 1 1401 0
 2872 01be 0B4E     		ldr	r6, .L199+4
 2873              	.LVL469:
 2874 01c0 F4E7     		b	.L172
 2875              	.LVL470:
 2876              	.L197:
1410:C:/Users/lenovo/Desktop/liteos/Project2/BearPi_LiteOS/components/security/mbedtls/mbedtls-2.6.0/library\rsa.c ****         return( MBEDTLS_ERR_RSA_INVALID_PADDING );
 2877              		.loc 1 1410 0
 2878 01c2 0DF20C40 		addw	r0, sp, #1036
 2879 01c6 FFF7FEFF 		bl	mbedtls_md_free
 2880              	.LVL471:
1411:C:/Users/lenovo/Desktop/liteos/Project2/BearPi_LiteOS/components/security/mbedtls/mbedtls-2.6.0/library\rsa.c ****     }
 2881              		.loc 1 1411 0
 2882 01ca 084E     		ldr	r6, .L199+4
 2883              	.LVL472:
 2884 01cc EEE7     		b	.L172
 2885              	.LVL473:
 2886              	.L187:
1336:C:/Users/lenovo/Desktop/liteos/Project2/BearPi_LiteOS/components/security/mbedtls/mbedtls-2.6.0/library\rsa.c **** 
 2887              		.loc 1 1336 0
 2888 01ce 064E     		ldr	r6, .L199
 2889 01d0 ECE7     		b	.L172
 2890              	.LVL474:
 2891              	.L188:
1348:C:/Users/lenovo/Desktop/liteos/Project2/BearPi_LiteOS/components/security/mbedtls/mbedtls-2.6.0/library\rsa.c **** 
 2892              		.loc 1 1348 0
ARM GAS  c:\Users\lenovo\AppData\Local\Temp\ccVehGBj.s 			page 81


 2893 01d2 064E     		ldr	r6, .L199+4
 2894              	.LVL475:
 2895 01d4 EAE7     		b	.L172
 2896              	.LVL476:
 2897              	.L189:
1355:C:/Users/lenovo/Desktop/liteos/Project2/BearPi_LiteOS/components/security/mbedtls/mbedtls-2.6.0/library\rsa.c **** 
 2898              		.loc 1 1355 0
 2899 01d6 044E     		ldr	r6, .L199
 2900              	.LVL477:
 2901 01d8 E8E7     		b	.L172
 2902              	.L190:
1362:C:/Users/lenovo/Desktop/liteos/Project2/BearPi_LiteOS/components/security/mbedtls/mbedtls-2.6.0/library\rsa.c **** 
 2903              		.loc 1 1362 0
 2904 01da 034E     		ldr	r6, .L199
 2905 01dc E6E7     		b	.L172
 2906              	.LVL478:
 2907              	.L192:
1381:C:/Users/lenovo/Desktop/liteos/Project2/BearPi_LiteOS/components/security/mbedtls/mbedtls-2.6.0/library\rsa.c **** 
 2908              		.loc 1 1381 0
 2909 01de 024E     		ldr	r6, .L199
 2910              	.LVL479:
 2911 01e0 E4E7     		b	.L172
 2912              	.LVL480:
 2913              	.L198:
1428:C:/Users/lenovo/Desktop/liteos/Project2/BearPi_LiteOS/components/security/mbedtls/mbedtls-2.6.0/library\rsa.c **** }
 2914              		.loc 1 1428 0
 2915 01e2 034E     		ldr	r6, .L199+8
 2916 01e4 E2E7     		b	.L172
 2917              	.L200:
 2918 01e6 00BF     		.align	2
 2919              	.L199:
 2920 01e8 80BFFFFF 		.word	-16512
 2921 01ec 00BFFFFF 		.word	-16640
 2922 01f0 80BCFFFF 		.word	-17280
 2923              		.cfi_endproc
 2924              	.LFE28:
 2926              		.section	.text.mbedtls_rsa_rsassa_pss_verify,"ax",%progbits
 2927              		.align	1
 2928              		.global	mbedtls_rsa_rsassa_pss_verify
 2929              		.syntax unified
 2930              		.thumb
 2931              		.thumb_func
 2932              		.fpu fpv4-sp-d16
 2934              	mbedtls_rsa_rsassa_pss_verify:
 2935              	.LFB29:
1430:C:/Users/lenovo/Desktop/liteos/Project2/BearPi_LiteOS/components/security/mbedtls/mbedtls-2.6.0/library\rsa.c **** 
1431:C:/Users/lenovo/Desktop/liteos/Project2/BearPi_LiteOS/components/security/mbedtls/mbedtls-2.6.0/library\rsa.c **** /*
1432:C:/Users/lenovo/Desktop/liteos/Project2/BearPi_LiteOS/components/security/mbedtls/mbedtls-2.6.0/library\rsa.c ****  * Simplified PKCS#1 v2.1 RSASSA-PSS-VERIFY function
1433:C:/Users/lenovo/Desktop/liteos/Project2/BearPi_LiteOS/components/security/mbedtls/mbedtls-2.6.0/library\rsa.c ****  */
1434:C:/Users/lenovo/Desktop/liteos/Project2/BearPi_LiteOS/components/security/mbedtls/mbedtls-2.6.0/library\rsa.c **** int mbedtls_rsa_rsassa_pss_verify( mbedtls_rsa_context *ctx,
1435:C:/Users/lenovo/Desktop/liteos/Project2/BearPi_LiteOS/components/security/mbedtls/mbedtls-2.6.0/library\rsa.c ****                            int (*f_rng)(void *, unsigned char *, size_t),
1436:C:/Users/lenovo/Desktop/liteos/Project2/BearPi_LiteOS/components/security/mbedtls/mbedtls-2.6.0/library\rsa.c ****                            void *p_rng,
1437:C:/Users/lenovo/Desktop/liteos/Project2/BearPi_LiteOS/components/security/mbedtls/mbedtls-2.6.0/library\rsa.c ****                            int mode,
1438:C:/Users/lenovo/Desktop/liteos/Project2/BearPi_LiteOS/components/security/mbedtls/mbedtls-2.6.0/library\rsa.c ****                            mbedtls_md_type_t md_alg,
1439:C:/Users/lenovo/Desktop/liteos/Project2/BearPi_LiteOS/components/security/mbedtls/mbedtls-2.6.0/library\rsa.c ****                            unsigned int hashlen,
1440:C:/Users/lenovo/Desktop/liteos/Project2/BearPi_LiteOS/components/security/mbedtls/mbedtls-2.6.0/library\rsa.c ****                            const unsigned char *hash,
1441:C:/Users/lenovo/Desktop/liteos/Project2/BearPi_LiteOS/components/security/mbedtls/mbedtls-2.6.0/library\rsa.c ****                            const unsigned char *sig )
ARM GAS  c:\Users\lenovo\AppData\Local\Temp\ccVehGBj.s 			page 82


1442:C:/Users/lenovo/Desktop/liteos/Project2/BearPi_LiteOS/components/security/mbedtls/mbedtls-2.6.0/library\rsa.c **** {
 2936              		.loc 1 1442 0
 2937              		.cfi_startproc
 2938              		@ args = 16, pretend = 0, frame = 0
 2939              		@ frame_needed = 0, uses_anonymous_args = 0
 2940              	.LVL481:
 2941 0000 70B5     		push	{r4, r5, r6, lr}
 2942              	.LCFI50:
 2943              		.cfi_def_cfa_offset 16
 2944              		.cfi_offset 4, -16
 2945              		.cfi_offset 5, -12
 2946              		.cfi_offset 6, -8
 2947              		.cfi_offset 14, -4
 2948 0002 86B0     		sub	sp, sp, #24
 2949              	.LCFI51:
 2950              		.cfi_def_cfa_offset 40
 2951 0004 9DF82850 		ldrb	r5, [sp, #40]	@ zero_extendqisi2
1443:C:/Users/lenovo/Desktop/liteos/Project2/BearPi_LiteOS/components/security/mbedtls/mbedtls-2.6.0/library\rsa.c ****     mbedtls_md_type_t mgf1_hash_id = ( ctx->hash_id != MBEDTLS_MD_NONE )
 2952              		.loc 1 1443 0
 2953 0008 D0F8A840 		ldr	r4, [r0, #168]
1444:C:/Users/lenovo/Desktop/liteos/Project2/BearPi_LiteOS/components/security/mbedtls/mbedtls-2.6.0/library\rsa.c ****                              ? (mbedtls_md_type_t) ctx->hash_id
1445:C:/Users/lenovo/Desktop/liteos/Project2/BearPi_LiteOS/components/security/mbedtls/mbedtls-2.6.0/library\rsa.c ****                              : md_alg;
 2954              		.loc 1 1445 0
 2955 000c 7CB1     		cbz	r4, .L203
 2956              		.loc 1 1445 0 is_stmt 0 discriminator 1
 2957 000e E4B2     		uxtb	r4, r4
 2958              	.L202:
 2959              	.LVL482:
1446:C:/Users/lenovo/Desktop/liteos/Project2/BearPi_LiteOS/components/security/mbedtls/mbedtls-2.6.0/library\rsa.c **** 
1447:C:/Users/lenovo/Desktop/liteos/Project2/BearPi_LiteOS/components/security/mbedtls/mbedtls-2.6.0/library\rsa.c ****     return( mbedtls_rsa_rsassa_pss_verify_ext( ctx, f_rng, p_rng, mode,
 2960              		.loc 1 1447 0 is_stmt 1
 2961 0010 0D9E     		ldr	r6, [sp, #52]
 2962 0012 0596     		str	r6, [sp, #20]
 2963 0014 4FF0FF36 		mov	r6, #-1
 2964 0018 0496     		str	r6, [sp, #16]
 2965 001a 0394     		str	r4, [sp, #12]
 2966 001c 0C9C     		ldr	r4, [sp, #48]
 2967              	.LVL483:
 2968 001e 0294     		str	r4, [sp, #8]
 2969 0020 0B9C     		ldr	r4, [sp, #44]
 2970 0022 0194     		str	r4, [sp, #4]
 2971 0024 0095     		str	r5, [sp]
 2972 0026 FFF7FEFF 		bl	mbedtls_rsa_rsassa_pss_verify_ext
 2973              	.LVL484:
1448:C:/Users/lenovo/Desktop/liteos/Project2/BearPi_LiteOS/components/security/mbedtls/mbedtls-2.6.0/library\rsa.c ****                                        md_alg, hashlen, hash,
1449:C:/Users/lenovo/Desktop/liteos/Project2/BearPi_LiteOS/components/security/mbedtls/mbedtls-2.6.0/library\rsa.c ****                                        mgf1_hash_id, MBEDTLS_RSA_SALT_LEN_ANY,
1450:C:/Users/lenovo/Desktop/liteos/Project2/BearPi_LiteOS/components/security/mbedtls/mbedtls-2.6.0/library\rsa.c ****                                        sig ) );
1451:C:/Users/lenovo/Desktop/liteos/Project2/BearPi_LiteOS/components/security/mbedtls/mbedtls-2.6.0/library\rsa.c **** 
1452:C:/Users/lenovo/Desktop/liteos/Project2/BearPi_LiteOS/components/security/mbedtls/mbedtls-2.6.0/library\rsa.c **** }
 2974              		.loc 1 1452 0
 2975 002a 06B0     		add	sp, sp, #24
 2976              	.LCFI52:
 2977              		.cfi_remember_state
 2978              		.cfi_def_cfa_offset 16
 2979              		@ sp needed
 2980 002c 70BD     		pop	{r4, r5, r6, pc}
 2981              	.LVL485:
ARM GAS  c:\Users\lenovo\AppData\Local\Temp\ccVehGBj.s 			page 83


 2982              	.L203:
 2983              	.LCFI53:
 2984              		.cfi_restore_state
1445:C:/Users/lenovo/Desktop/liteos/Project2/BearPi_LiteOS/components/security/mbedtls/mbedtls-2.6.0/library\rsa.c **** 
 2985              		.loc 1 1445 0
 2986 002e 2C46     		mov	r4, r5
 2987 0030 EEE7     		b	.L202
 2988              		.cfi_endproc
 2989              	.LFE29:
 2991              		.section	.text.mbedtls_rsa_pkcs1_verify,"ax",%progbits
 2992              		.align	1
 2993              		.global	mbedtls_rsa_pkcs1_verify
 2994              		.syntax unified
 2995              		.thumb
 2996              		.thumb_func
 2997              		.fpu fpv4-sp-d16
 2999              	mbedtls_rsa_pkcs1_verify:
 3000              	.LFB30:
1453:C:/Users/lenovo/Desktop/liteos/Project2/BearPi_LiteOS/components/security/mbedtls/mbedtls-2.6.0/library\rsa.c **** #endif /* MBEDTLS_PKCS1_V21 */
1454:C:/Users/lenovo/Desktop/liteos/Project2/BearPi_LiteOS/components/security/mbedtls/mbedtls-2.6.0/library\rsa.c **** 
1455:C:/Users/lenovo/Desktop/liteos/Project2/BearPi_LiteOS/components/security/mbedtls/mbedtls-2.6.0/library\rsa.c **** #if defined(MBEDTLS_PKCS1_V15)
1456:C:/Users/lenovo/Desktop/liteos/Project2/BearPi_LiteOS/components/security/mbedtls/mbedtls-2.6.0/library\rsa.c **** /*
1457:C:/Users/lenovo/Desktop/liteos/Project2/BearPi_LiteOS/components/security/mbedtls/mbedtls-2.6.0/library\rsa.c ****  * Implementation of the PKCS#1 v2.1 RSASSA-PKCS1-v1_5-VERIFY function
1458:C:/Users/lenovo/Desktop/liteos/Project2/BearPi_LiteOS/components/security/mbedtls/mbedtls-2.6.0/library\rsa.c ****  */
1459:C:/Users/lenovo/Desktop/liteos/Project2/BearPi_LiteOS/components/security/mbedtls/mbedtls-2.6.0/library\rsa.c **** int mbedtls_rsa_rsassa_pkcs1_v15_verify( mbedtls_rsa_context *ctx,
1460:C:/Users/lenovo/Desktop/liteos/Project2/BearPi_LiteOS/components/security/mbedtls/mbedtls-2.6.0/library\rsa.c ****                                  int (*f_rng)(void *, unsigned char *, size_t),
1461:C:/Users/lenovo/Desktop/liteos/Project2/BearPi_LiteOS/components/security/mbedtls/mbedtls-2.6.0/library\rsa.c ****                                  void *p_rng,
1462:C:/Users/lenovo/Desktop/liteos/Project2/BearPi_LiteOS/components/security/mbedtls/mbedtls-2.6.0/library\rsa.c ****                                  int mode,
1463:C:/Users/lenovo/Desktop/liteos/Project2/BearPi_LiteOS/components/security/mbedtls/mbedtls-2.6.0/library\rsa.c ****                                  mbedtls_md_type_t md_alg,
1464:C:/Users/lenovo/Desktop/liteos/Project2/BearPi_LiteOS/components/security/mbedtls/mbedtls-2.6.0/library\rsa.c ****                                  unsigned int hashlen,
1465:C:/Users/lenovo/Desktop/liteos/Project2/BearPi_LiteOS/components/security/mbedtls/mbedtls-2.6.0/library\rsa.c ****                                  const unsigned char *hash,
1466:C:/Users/lenovo/Desktop/liteos/Project2/BearPi_LiteOS/components/security/mbedtls/mbedtls-2.6.0/library\rsa.c ****                                  const unsigned char *sig )
1467:C:/Users/lenovo/Desktop/liteos/Project2/BearPi_LiteOS/components/security/mbedtls/mbedtls-2.6.0/library\rsa.c **** {
1468:C:/Users/lenovo/Desktop/liteos/Project2/BearPi_LiteOS/components/security/mbedtls/mbedtls-2.6.0/library\rsa.c ****     int ret;
1469:C:/Users/lenovo/Desktop/liteos/Project2/BearPi_LiteOS/components/security/mbedtls/mbedtls-2.6.0/library\rsa.c ****     size_t len, siglen, asn1_len;
1470:C:/Users/lenovo/Desktop/liteos/Project2/BearPi_LiteOS/components/security/mbedtls/mbedtls-2.6.0/library\rsa.c ****     unsigned char *p, *p0, *end;
1471:C:/Users/lenovo/Desktop/liteos/Project2/BearPi_LiteOS/components/security/mbedtls/mbedtls-2.6.0/library\rsa.c ****     mbedtls_md_type_t msg_md_alg;
1472:C:/Users/lenovo/Desktop/liteos/Project2/BearPi_LiteOS/components/security/mbedtls/mbedtls-2.6.0/library\rsa.c ****     const mbedtls_md_info_t *md_info;
1473:C:/Users/lenovo/Desktop/liteos/Project2/BearPi_LiteOS/components/security/mbedtls/mbedtls-2.6.0/library\rsa.c ****     mbedtls_asn1_buf oid;
1474:C:/Users/lenovo/Desktop/liteos/Project2/BearPi_LiteOS/components/security/mbedtls/mbedtls-2.6.0/library\rsa.c ****     unsigned char buf[MBEDTLS_MPI_MAX_SIZE];
1475:C:/Users/lenovo/Desktop/liteos/Project2/BearPi_LiteOS/components/security/mbedtls/mbedtls-2.6.0/library\rsa.c **** 
1476:C:/Users/lenovo/Desktop/liteos/Project2/BearPi_LiteOS/components/security/mbedtls/mbedtls-2.6.0/library\rsa.c ****     if( mode == MBEDTLS_RSA_PRIVATE && ctx->padding != MBEDTLS_RSA_PKCS_V15 )
1477:C:/Users/lenovo/Desktop/liteos/Project2/BearPi_LiteOS/components/security/mbedtls/mbedtls-2.6.0/library\rsa.c ****         return( MBEDTLS_ERR_RSA_BAD_INPUT_DATA );
1478:C:/Users/lenovo/Desktop/liteos/Project2/BearPi_LiteOS/components/security/mbedtls/mbedtls-2.6.0/library\rsa.c **** 
1479:C:/Users/lenovo/Desktop/liteos/Project2/BearPi_LiteOS/components/security/mbedtls/mbedtls-2.6.0/library\rsa.c ****     siglen = ctx->len;
1480:C:/Users/lenovo/Desktop/liteos/Project2/BearPi_LiteOS/components/security/mbedtls/mbedtls-2.6.0/library\rsa.c **** 
1481:C:/Users/lenovo/Desktop/liteos/Project2/BearPi_LiteOS/components/security/mbedtls/mbedtls-2.6.0/library\rsa.c ****     if( siglen < 16 || siglen > sizeof( buf ) )
1482:C:/Users/lenovo/Desktop/liteos/Project2/BearPi_LiteOS/components/security/mbedtls/mbedtls-2.6.0/library\rsa.c ****         return( MBEDTLS_ERR_RSA_BAD_INPUT_DATA );
1483:C:/Users/lenovo/Desktop/liteos/Project2/BearPi_LiteOS/components/security/mbedtls/mbedtls-2.6.0/library\rsa.c **** 
1484:C:/Users/lenovo/Desktop/liteos/Project2/BearPi_LiteOS/components/security/mbedtls/mbedtls-2.6.0/library\rsa.c ****     ret = ( mode == MBEDTLS_RSA_PUBLIC )
1485:C:/Users/lenovo/Desktop/liteos/Project2/BearPi_LiteOS/components/security/mbedtls/mbedtls-2.6.0/library\rsa.c ****           ? mbedtls_rsa_public(  ctx, sig, buf )
1486:C:/Users/lenovo/Desktop/liteos/Project2/BearPi_LiteOS/components/security/mbedtls/mbedtls-2.6.0/library\rsa.c ****           : mbedtls_rsa_private( ctx, f_rng, p_rng, sig, buf );
1487:C:/Users/lenovo/Desktop/liteos/Project2/BearPi_LiteOS/components/security/mbedtls/mbedtls-2.6.0/library\rsa.c **** 
1488:C:/Users/lenovo/Desktop/liteos/Project2/BearPi_LiteOS/components/security/mbedtls/mbedtls-2.6.0/library\rsa.c ****     if( ret != 0 )
1489:C:/Users/lenovo/Desktop/liteos/Project2/BearPi_LiteOS/components/security/mbedtls/mbedtls-2.6.0/library\rsa.c ****         return( ret );
1490:C:/Users/lenovo/Desktop/liteos/Project2/BearPi_LiteOS/components/security/mbedtls/mbedtls-2.6.0/library\rsa.c **** 
1491:C:/Users/lenovo/Desktop/liteos/Project2/BearPi_LiteOS/components/security/mbedtls/mbedtls-2.6.0/library\rsa.c ****     p = buf;
ARM GAS  c:\Users\lenovo\AppData\Local\Temp\ccVehGBj.s 			page 84


1492:C:/Users/lenovo/Desktop/liteos/Project2/BearPi_LiteOS/components/security/mbedtls/mbedtls-2.6.0/library\rsa.c **** 
1493:C:/Users/lenovo/Desktop/liteos/Project2/BearPi_LiteOS/components/security/mbedtls/mbedtls-2.6.0/library\rsa.c ****     if( *p++ != 0 || *p++ != MBEDTLS_RSA_SIGN )
1494:C:/Users/lenovo/Desktop/liteos/Project2/BearPi_LiteOS/components/security/mbedtls/mbedtls-2.6.0/library\rsa.c ****         return( MBEDTLS_ERR_RSA_INVALID_PADDING );
1495:C:/Users/lenovo/Desktop/liteos/Project2/BearPi_LiteOS/components/security/mbedtls/mbedtls-2.6.0/library\rsa.c **** 
1496:C:/Users/lenovo/Desktop/liteos/Project2/BearPi_LiteOS/components/security/mbedtls/mbedtls-2.6.0/library\rsa.c ****     while( *p != 0 )
1497:C:/Users/lenovo/Desktop/liteos/Project2/BearPi_LiteOS/components/security/mbedtls/mbedtls-2.6.0/library\rsa.c ****     {
1498:C:/Users/lenovo/Desktop/liteos/Project2/BearPi_LiteOS/components/security/mbedtls/mbedtls-2.6.0/library\rsa.c ****         if( p >= buf + siglen - 1 || *p != 0xFF )
1499:C:/Users/lenovo/Desktop/liteos/Project2/BearPi_LiteOS/components/security/mbedtls/mbedtls-2.6.0/library\rsa.c ****             return( MBEDTLS_ERR_RSA_INVALID_PADDING );
1500:C:/Users/lenovo/Desktop/liteos/Project2/BearPi_LiteOS/components/security/mbedtls/mbedtls-2.6.0/library\rsa.c ****         p++;
1501:C:/Users/lenovo/Desktop/liteos/Project2/BearPi_LiteOS/components/security/mbedtls/mbedtls-2.6.0/library\rsa.c ****     }
1502:C:/Users/lenovo/Desktop/liteos/Project2/BearPi_LiteOS/components/security/mbedtls/mbedtls-2.6.0/library\rsa.c ****     p++; /* skip 00 byte */
1503:C:/Users/lenovo/Desktop/liteos/Project2/BearPi_LiteOS/components/security/mbedtls/mbedtls-2.6.0/library\rsa.c **** 
1504:C:/Users/lenovo/Desktop/liteos/Project2/BearPi_LiteOS/components/security/mbedtls/mbedtls-2.6.0/library\rsa.c ****     /* We've read: 00 01 PS 00 where PS must be at least 8 bytes */
1505:C:/Users/lenovo/Desktop/liteos/Project2/BearPi_LiteOS/components/security/mbedtls/mbedtls-2.6.0/library\rsa.c ****     if( p - buf < 11 )
1506:C:/Users/lenovo/Desktop/liteos/Project2/BearPi_LiteOS/components/security/mbedtls/mbedtls-2.6.0/library\rsa.c ****         return( MBEDTLS_ERR_RSA_INVALID_PADDING );
1507:C:/Users/lenovo/Desktop/liteos/Project2/BearPi_LiteOS/components/security/mbedtls/mbedtls-2.6.0/library\rsa.c **** 
1508:C:/Users/lenovo/Desktop/liteos/Project2/BearPi_LiteOS/components/security/mbedtls/mbedtls-2.6.0/library\rsa.c ****     len = siglen - ( p - buf );
1509:C:/Users/lenovo/Desktop/liteos/Project2/BearPi_LiteOS/components/security/mbedtls/mbedtls-2.6.0/library\rsa.c **** 
1510:C:/Users/lenovo/Desktop/liteos/Project2/BearPi_LiteOS/components/security/mbedtls/mbedtls-2.6.0/library\rsa.c ****     if( len == hashlen && md_alg == MBEDTLS_MD_NONE )
1511:C:/Users/lenovo/Desktop/liteos/Project2/BearPi_LiteOS/components/security/mbedtls/mbedtls-2.6.0/library\rsa.c ****     {
1512:C:/Users/lenovo/Desktop/liteos/Project2/BearPi_LiteOS/components/security/mbedtls/mbedtls-2.6.0/library\rsa.c ****         if( memcmp( p, hash, hashlen ) == 0 )
1513:C:/Users/lenovo/Desktop/liteos/Project2/BearPi_LiteOS/components/security/mbedtls/mbedtls-2.6.0/library\rsa.c ****             return( 0 );
1514:C:/Users/lenovo/Desktop/liteos/Project2/BearPi_LiteOS/components/security/mbedtls/mbedtls-2.6.0/library\rsa.c ****         else
1515:C:/Users/lenovo/Desktop/liteos/Project2/BearPi_LiteOS/components/security/mbedtls/mbedtls-2.6.0/library\rsa.c ****             return( MBEDTLS_ERR_RSA_VERIFY_FAILED );
1516:C:/Users/lenovo/Desktop/liteos/Project2/BearPi_LiteOS/components/security/mbedtls/mbedtls-2.6.0/library\rsa.c ****     }
1517:C:/Users/lenovo/Desktop/liteos/Project2/BearPi_LiteOS/components/security/mbedtls/mbedtls-2.6.0/library\rsa.c **** 
1518:C:/Users/lenovo/Desktop/liteos/Project2/BearPi_LiteOS/components/security/mbedtls/mbedtls-2.6.0/library\rsa.c ****     md_info = mbedtls_md_info_from_type( md_alg );
1519:C:/Users/lenovo/Desktop/liteos/Project2/BearPi_LiteOS/components/security/mbedtls/mbedtls-2.6.0/library\rsa.c ****     if( md_info == NULL )
1520:C:/Users/lenovo/Desktop/liteos/Project2/BearPi_LiteOS/components/security/mbedtls/mbedtls-2.6.0/library\rsa.c ****         return( MBEDTLS_ERR_RSA_BAD_INPUT_DATA );
1521:C:/Users/lenovo/Desktop/liteos/Project2/BearPi_LiteOS/components/security/mbedtls/mbedtls-2.6.0/library\rsa.c ****     hashlen = mbedtls_md_get_size( md_info );
1522:C:/Users/lenovo/Desktop/liteos/Project2/BearPi_LiteOS/components/security/mbedtls/mbedtls-2.6.0/library\rsa.c **** 
1523:C:/Users/lenovo/Desktop/liteos/Project2/BearPi_LiteOS/components/security/mbedtls/mbedtls-2.6.0/library\rsa.c ****     end = p + len;
1524:C:/Users/lenovo/Desktop/liteos/Project2/BearPi_LiteOS/components/security/mbedtls/mbedtls-2.6.0/library\rsa.c **** 
1525:C:/Users/lenovo/Desktop/liteos/Project2/BearPi_LiteOS/components/security/mbedtls/mbedtls-2.6.0/library\rsa.c ****     /*
1526:C:/Users/lenovo/Desktop/liteos/Project2/BearPi_LiteOS/components/security/mbedtls/mbedtls-2.6.0/library\rsa.c ****      * Parse the ASN.1 structure inside the PKCS#1 v1.5 structure.
1527:C:/Users/lenovo/Desktop/liteos/Project2/BearPi_LiteOS/components/security/mbedtls/mbedtls-2.6.0/library\rsa.c ****      * Insist on 2-byte length tags, to protect against variants of
1528:C:/Users/lenovo/Desktop/liteos/Project2/BearPi_LiteOS/components/security/mbedtls/mbedtls-2.6.0/library\rsa.c ****      * Bleichenbacher's forgery attack against lax PKCS#1v1.5 verification.
1529:C:/Users/lenovo/Desktop/liteos/Project2/BearPi_LiteOS/components/security/mbedtls/mbedtls-2.6.0/library\rsa.c ****      */
1530:C:/Users/lenovo/Desktop/liteos/Project2/BearPi_LiteOS/components/security/mbedtls/mbedtls-2.6.0/library\rsa.c ****     p0 = p;
1531:C:/Users/lenovo/Desktop/liteos/Project2/BearPi_LiteOS/components/security/mbedtls/mbedtls-2.6.0/library\rsa.c ****     if( ( ret = mbedtls_asn1_get_tag( &p, end, &asn1_len,
1532:C:/Users/lenovo/Desktop/liteos/Project2/BearPi_LiteOS/components/security/mbedtls/mbedtls-2.6.0/library\rsa.c ****             MBEDTLS_ASN1_CONSTRUCTED | MBEDTLS_ASN1_SEQUENCE ) ) != 0 )
1533:C:/Users/lenovo/Desktop/liteos/Project2/BearPi_LiteOS/components/security/mbedtls/mbedtls-2.6.0/library\rsa.c ****         return( MBEDTLS_ERR_RSA_VERIFY_FAILED );
1534:C:/Users/lenovo/Desktop/liteos/Project2/BearPi_LiteOS/components/security/mbedtls/mbedtls-2.6.0/library\rsa.c ****     if( p != p0 + 2 || asn1_len + 2 != len )
1535:C:/Users/lenovo/Desktop/liteos/Project2/BearPi_LiteOS/components/security/mbedtls/mbedtls-2.6.0/library\rsa.c ****         return( MBEDTLS_ERR_RSA_VERIFY_FAILED );
1536:C:/Users/lenovo/Desktop/liteos/Project2/BearPi_LiteOS/components/security/mbedtls/mbedtls-2.6.0/library\rsa.c **** 
1537:C:/Users/lenovo/Desktop/liteos/Project2/BearPi_LiteOS/components/security/mbedtls/mbedtls-2.6.0/library\rsa.c ****     p0 = p;
1538:C:/Users/lenovo/Desktop/liteos/Project2/BearPi_LiteOS/components/security/mbedtls/mbedtls-2.6.0/library\rsa.c ****     if( ( ret = mbedtls_asn1_get_tag( &p, end, &asn1_len,
1539:C:/Users/lenovo/Desktop/liteos/Project2/BearPi_LiteOS/components/security/mbedtls/mbedtls-2.6.0/library\rsa.c ****             MBEDTLS_ASN1_CONSTRUCTED | MBEDTLS_ASN1_SEQUENCE ) ) != 0 )
1540:C:/Users/lenovo/Desktop/liteos/Project2/BearPi_LiteOS/components/security/mbedtls/mbedtls-2.6.0/library\rsa.c ****         return( MBEDTLS_ERR_RSA_VERIFY_FAILED );
1541:C:/Users/lenovo/Desktop/liteos/Project2/BearPi_LiteOS/components/security/mbedtls/mbedtls-2.6.0/library\rsa.c ****     if( p != p0 + 2 || asn1_len + 6 + hashlen != len )
1542:C:/Users/lenovo/Desktop/liteos/Project2/BearPi_LiteOS/components/security/mbedtls/mbedtls-2.6.0/library\rsa.c ****         return( MBEDTLS_ERR_RSA_VERIFY_FAILED );
1543:C:/Users/lenovo/Desktop/liteos/Project2/BearPi_LiteOS/components/security/mbedtls/mbedtls-2.6.0/library\rsa.c **** 
1544:C:/Users/lenovo/Desktop/liteos/Project2/BearPi_LiteOS/components/security/mbedtls/mbedtls-2.6.0/library\rsa.c ****     p0 = p;
1545:C:/Users/lenovo/Desktop/liteos/Project2/BearPi_LiteOS/components/security/mbedtls/mbedtls-2.6.0/library\rsa.c ****     if( ( ret = mbedtls_asn1_get_tag( &p, end, &oid.len, MBEDTLS_ASN1_OID ) ) != 0 )
1546:C:/Users/lenovo/Desktop/liteos/Project2/BearPi_LiteOS/components/security/mbedtls/mbedtls-2.6.0/library\rsa.c ****         return( MBEDTLS_ERR_RSA_VERIFY_FAILED );
1547:C:/Users/lenovo/Desktop/liteos/Project2/BearPi_LiteOS/components/security/mbedtls/mbedtls-2.6.0/library\rsa.c ****     if( p != p0 + 2 )
1548:C:/Users/lenovo/Desktop/liteos/Project2/BearPi_LiteOS/components/security/mbedtls/mbedtls-2.6.0/library\rsa.c ****         return( MBEDTLS_ERR_RSA_VERIFY_FAILED );
ARM GAS  c:\Users\lenovo\AppData\Local\Temp\ccVehGBj.s 			page 85


1549:C:/Users/lenovo/Desktop/liteos/Project2/BearPi_LiteOS/components/security/mbedtls/mbedtls-2.6.0/library\rsa.c **** 
1550:C:/Users/lenovo/Desktop/liteos/Project2/BearPi_LiteOS/components/security/mbedtls/mbedtls-2.6.0/library\rsa.c ****     oid.p = p;
1551:C:/Users/lenovo/Desktop/liteos/Project2/BearPi_LiteOS/components/security/mbedtls/mbedtls-2.6.0/library\rsa.c ****     p += oid.len;
1552:C:/Users/lenovo/Desktop/liteos/Project2/BearPi_LiteOS/components/security/mbedtls/mbedtls-2.6.0/library\rsa.c **** 
1553:C:/Users/lenovo/Desktop/liteos/Project2/BearPi_LiteOS/components/security/mbedtls/mbedtls-2.6.0/library\rsa.c ****     if( mbedtls_oid_get_md_alg( &oid, &msg_md_alg ) != 0 )
1554:C:/Users/lenovo/Desktop/liteos/Project2/BearPi_LiteOS/components/security/mbedtls/mbedtls-2.6.0/library\rsa.c ****         return( MBEDTLS_ERR_RSA_VERIFY_FAILED );
1555:C:/Users/lenovo/Desktop/liteos/Project2/BearPi_LiteOS/components/security/mbedtls/mbedtls-2.6.0/library\rsa.c **** 
1556:C:/Users/lenovo/Desktop/liteos/Project2/BearPi_LiteOS/components/security/mbedtls/mbedtls-2.6.0/library\rsa.c ****     if( md_alg != msg_md_alg )
1557:C:/Users/lenovo/Desktop/liteos/Project2/BearPi_LiteOS/components/security/mbedtls/mbedtls-2.6.0/library\rsa.c ****         return( MBEDTLS_ERR_RSA_VERIFY_FAILED );
1558:C:/Users/lenovo/Desktop/liteos/Project2/BearPi_LiteOS/components/security/mbedtls/mbedtls-2.6.0/library\rsa.c **** 
1559:C:/Users/lenovo/Desktop/liteos/Project2/BearPi_LiteOS/components/security/mbedtls/mbedtls-2.6.0/library\rsa.c ****     /*
1560:C:/Users/lenovo/Desktop/liteos/Project2/BearPi_LiteOS/components/security/mbedtls/mbedtls-2.6.0/library\rsa.c ****      * assume the algorithm parameters must be NULL
1561:C:/Users/lenovo/Desktop/liteos/Project2/BearPi_LiteOS/components/security/mbedtls/mbedtls-2.6.0/library\rsa.c ****      */
1562:C:/Users/lenovo/Desktop/liteos/Project2/BearPi_LiteOS/components/security/mbedtls/mbedtls-2.6.0/library\rsa.c ****     p0 = p;
1563:C:/Users/lenovo/Desktop/liteos/Project2/BearPi_LiteOS/components/security/mbedtls/mbedtls-2.6.0/library\rsa.c ****     if( ( ret = mbedtls_asn1_get_tag( &p, end, &asn1_len, MBEDTLS_ASN1_NULL ) ) != 0 )
1564:C:/Users/lenovo/Desktop/liteos/Project2/BearPi_LiteOS/components/security/mbedtls/mbedtls-2.6.0/library\rsa.c ****         return( MBEDTLS_ERR_RSA_VERIFY_FAILED );
1565:C:/Users/lenovo/Desktop/liteos/Project2/BearPi_LiteOS/components/security/mbedtls/mbedtls-2.6.0/library\rsa.c ****     if( p != p0 + 2 )
1566:C:/Users/lenovo/Desktop/liteos/Project2/BearPi_LiteOS/components/security/mbedtls/mbedtls-2.6.0/library\rsa.c ****         return( MBEDTLS_ERR_RSA_VERIFY_FAILED );
1567:C:/Users/lenovo/Desktop/liteos/Project2/BearPi_LiteOS/components/security/mbedtls/mbedtls-2.6.0/library\rsa.c **** 
1568:C:/Users/lenovo/Desktop/liteos/Project2/BearPi_LiteOS/components/security/mbedtls/mbedtls-2.6.0/library\rsa.c ****     p0 = p;
1569:C:/Users/lenovo/Desktop/liteos/Project2/BearPi_LiteOS/components/security/mbedtls/mbedtls-2.6.0/library\rsa.c ****     if( ( ret = mbedtls_asn1_get_tag( &p, end, &asn1_len, MBEDTLS_ASN1_OCTET_STRING ) ) != 0 )
1570:C:/Users/lenovo/Desktop/liteos/Project2/BearPi_LiteOS/components/security/mbedtls/mbedtls-2.6.0/library\rsa.c ****         return( MBEDTLS_ERR_RSA_VERIFY_FAILED );
1571:C:/Users/lenovo/Desktop/liteos/Project2/BearPi_LiteOS/components/security/mbedtls/mbedtls-2.6.0/library\rsa.c ****     if( p != p0 + 2 || asn1_len != hashlen )
1572:C:/Users/lenovo/Desktop/liteos/Project2/BearPi_LiteOS/components/security/mbedtls/mbedtls-2.6.0/library\rsa.c ****         return( MBEDTLS_ERR_RSA_VERIFY_FAILED );
1573:C:/Users/lenovo/Desktop/liteos/Project2/BearPi_LiteOS/components/security/mbedtls/mbedtls-2.6.0/library\rsa.c **** 
1574:C:/Users/lenovo/Desktop/liteos/Project2/BearPi_LiteOS/components/security/mbedtls/mbedtls-2.6.0/library\rsa.c ****     if( memcmp( p, hash, hashlen ) != 0 )
1575:C:/Users/lenovo/Desktop/liteos/Project2/BearPi_LiteOS/components/security/mbedtls/mbedtls-2.6.0/library\rsa.c ****         return( MBEDTLS_ERR_RSA_VERIFY_FAILED );
1576:C:/Users/lenovo/Desktop/liteos/Project2/BearPi_LiteOS/components/security/mbedtls/mbedtls-2.6.0/library\rsa.c **** 
1577:C:/Users/lenovo/Desktop/liteos/Project2/BearPi_LiteOS/components/security/mbedtls/mbedtls-2.6.0/library\rsa.c ****     p += hashlen;
1578:C:/Users/lenovo/Desktop/liteos/Project2/BearPi_LiteOS/components/security/mbedtls/mbedtls-2.6.0/library\rsa.c **** 
1579:C:/Users/lenovo/Desktop/liteos/Project2/BearPi_LiteOS/components/security/mbedtls/mbedtls-2.6.0/library\rsa.c ****     if( p != end )
1580:C:/Users/lenovo/Desktop/liteos/Project2/BearPi_LiteOS/components/security/mbedtls/mbedtls-2.6.0/library\rsa.c ****         return( MBEDTLS_ERR_RSA_VERIFY_FAILED );
1581:C:/Users/lenovo/Desktop/liteos/Project2/BearPi_LiteOS/components/security/mbedtls/mbedtls-2.6.0/library\rsa.c **** 
1582:C:/Users/lenovo/Desktop/liteos/Project2/BearPi_LiteOS/components/security/mbedtls/mbedtls-2.6.0/library\rsa.c ****     return( 0 );
1583:C:/Users/lenovo/Desktop/liteos/Project2/BearPi_LiteOS/components/security/mbedtls/mbedtls-2.6.0/library\rsa.c **** }
1584:C:/Users/lenovo/Desktop/liteos/Project2/BearPi_LiteOS/components/security/mbedtls/mbedtls-2.6.0/library\rsa.c **** #endif /* MBEDTLS_PKCS1_V15 */
1585:C:/Users/lenovo/Desktop/liteos/Project2/BearPi_LiteOS/components/security/mbedtls/mbedtls-2.6.0/library\rsa.c **** 
1586:C:/Users/lenovo/Desktop/liteos/Project2/BearPi_LiteOS/components/security/mbedtls/mbedtls-2.6.0/library\rsa.c **** /*
1587:C:/Users/lenovo/Desktop/liteos/Project2/BearPi_LiteOS/components/security/mbedtls/mbedtls-2.6.0/library\rsa.c ****  * Do an RSA operation and check the message digest
1588:C:/Users/lenovo/Desktop/liteos/Project2/BearPi_LiteOS/components/security/mbedtls/mbedtls-2.6.0/library\rsa.c ****  */
1589:C:/Users/lenovo/Desktop/liteos/Project2/BearPi_LiteOS/components/security/mbedtls/mbedtls-2.6.0/library\rsa.c **** int mbedtls_rsa_pkcs1_verify( mbedtls_rsa_context *ctx,
1590:C:/Users/lenovo/Desktop/liteos/Project2/BearPi_LiteOS/components/security/mbedtls/mbedtls-2.6.0/library\rsa.c ****                       int (*f_rng)(void *, unsigned char *, size_t),
1591:C:/Users/lenovo/Desktop/liteos/Project2/BearPi_LiteOS/components/security/mbedtls/mbedtls-2.6.0/library\rsa.c ****                       void *p_rng,
1592:C:/Users/lenovo/Desktop/liteos/Project2/BearPi_LiteOS/components/security/mbedtls/mbedtls-2.6.0/library\rsa.c ****                       int mode,
1593:C:/Users/lenovo/Desktop/liteos/Project2/BearPi_LiteOS/components/security/mbedtls/mbedtls-2.6.0/library\rsa.c ****                       mbedtls_md_type_t md_alg,
1594:C:/Users/lenovo/Desktop/liteos/Project2/BearPi_LiteOS/components/security/mbedtls/mbedtls-2.6.0/library\rsa.c ****                       unsigned int hashlen,
1595:C:/Users/lenovo/Desktop/liteos/Project2/BearPi_LiteOS/components/security/mbedtls/mbedtls-2.6.0/library\rsa.c ****                       const unsigned char *hash,
1596:C:/Users/lenovo/Desktop/liteos/Project2/BearPi_LiteOS/components/security/mbedtls/mbedtls-2.6.0/library\rsa.c ****                       const unsigned char *sig )
1597:C:/Users/lenovo/Desktop/liteos/Project2/BearPi_LiteOS/components/security/mbedtls/mbedtls-2.6.0/library\rsa.c **** {
 3001              		.loc 1 1597 0
 3002              		.cfi_startproc
 3003              		@ args = 16, pretend = 0, frame = 0
 3004              		@ frame_needed = 0, uses_anonymous_args = 0
 3005              	.LVL486:
 3006 0000 10B5     		push	{r4, lr}
 3007              	.LCFI54:
 3008              		.cfi_def_cfa_offset 8
ARM GAS  c:\Users\lenovo\AppData\Local\Temp\ccVehGBj.s 			page 86


 3009              		.cfi_offset 4, -8
 3010              		.cfi_offset 14, -4
 3011 0002 84B0     		sub	sp, sp, #16
 3012              	.LCFI55:
 3013              		.cfi_def_cfa_offset 24
1598:C:/Users/lenovo/Desktop/liteos/Project2/BearPi_LiteOS/components/security/mbedtls/mbedtls-2.6.0/library\rsa.c ****     switch( ctx->padding )
 3014              		.loc 1 1598 0
 3015 0004 D0F8A440 		ldr	r4, [r0, #164]
 3016 0008 012C     		cmp	r4, #1
 3017 000a 0CD1     		bne	.L209
1599:C:/Users/lenovo/Desktop/liteos/Project2/BearPi_LiteOS/components/security/mbedtls/mbedtls-2.6.0/library\rsa.c ****     {
1600:C:/Users/lenovo/Desktop/liteos/Project2/BearPi_LiteOS/components/security/mbedtls/mbedtls-2.6.0/library\rsa.c **** #if defined(MBEDTLS_PKCS1_V15)
1601:C:/Users/lenovo/Desktop/liteos/Project2/BearPi_LiteOS/components/security/mbedtls/mbedtls-2.6.0/library\rsa.c ****         case MBEDTLS_RSA_PKCS_V15:
1602:C:/Users/lenovo/Desktop/liteos/Project2/BearPi_LiteOS/components/security/mbedtls/mbedtls-2.6.0/library\rsa.c ****             return mbedtls_rsa_rsassa_pkcs1_v15_verify( ctx, f_rng, p_rng, mode, md_alg,
1603:C:/Users/lenovo/Desktop/liteos/Project2/BearPi_LiteOS/components/security/mbedtls/mbedtls-2.6.0/library\rsa.c ****                                                 hashlen, hash, sig );
1604:C:/Users/lenovo/Desktop/liteos/Project2/BearPi_LiteOS/components/security/mbedtls/mbedtls-2.6.0/library\rsa.c **** #endif
1605:C:/Users/lenovo/Desktop/liteos/Project2/BearPi_LiteOS/components/security/mbedtls/mbedtls-2.6.0/library\rsa.c **** 
1606:C:/Users/lenovo/Desktop/liteos/Project2/BearPi_LiteOS/components/security/mbedtls/mbedtls-2.6.0/library\rsa.c **** #if defined(MBEDTLS_PKCS1_V21)
1607:C:/Users/lenovo/Desktop/liteos/Project2/BearPi_LiteOS/components/security/mbedtls/mbedtls-2.6.0/library\rsa.c ****         case MBEDTLS_RSA_PKCS_V21:
1608:C:/Users/lenovo/Desktop/liteos/Project2/BearPi_LiteOS/components/security/mbedtls/mbedtls-2.6.0/library\rsa.c ****             return mbedtls_rsa_rsassa_pss_verify( ctx, f_rng, p_rng, mode, md_alg,
 3018              		.loc 1 1608 0
 3019 000c 099C     		ldr	r4, [sp, #36]
 3020 000e 0394     		str	r4, [sp, #12]
 3021 0010 089C     		ldr	r4, [sp, #32]
 3022 0012 0294     		str	r4, [sp, #8]
 3023 0014 079C     		ldr	r4, [sp, #28]
 3024 0016 0194     		str	r4, [sp, #4]
 3025 0018 9DF81840 		ldrb	r4, [sp, #24]	@ zero_extendqisi2
 3026 001c 0094     		str	r4, [sp]
 3027 001e FFF7FEFF 		bl	mbedtls_rsa_rsassa_pss_verify
 3028              	.LVL487:
 3029              	.L205:
1609:C:/Users/lenovo/Desktop/liteos/Project2/BearPi_LiteOS/components/security/mbedtls/mbedtls-2.6.0/library\rsa.c ****                                           hashlen, hash, sig );
1610:C:/Users/lenovo/Desktop/liteos/Project2/BearPi_LiteOS/components/security/mbedtls/mbedtls-2.6.0/library\rsa.c **** #endif
1611:C:/Users/lenovo/Desktop/liteos/Project2/BearPi_LiteOS/components/security/mbedtls/mbedtls-2.6.0/library\rsa.c **** 
1612:C:/Users/lenovo/Desktop/liteos/Project2/BearPi_LiteOS/components/security/mbedtls/mbedtls-2.6.0/library\rsa.c ****         default:
1613:C:/Users/lenovo/Desktop/liteos/Project2/BearPi_LiteOS/components/security/mbedtls/mbedtls-2.6.0/library\rsa.c ****             return( MBEDTLS_ERR_RSA_INVALID_PADDING );
1614:C:/Users/lenovo/Desktop/liteos/Project2/BearPi_LiteOS/components/security/mbedtls/mbedtls-2.6.0/library\rsa.c ****     }
1615:C:/Users/lenovo/Desktop/liteos/Project2/BearPi_LiteOS/components/security/mbedtls/mbedtls-2.6.0/library\rsa.c **** }
 3030              		.loc 1 1615 0
 3031 0022 04B0     		add	sp, sp, #16
 3032              	.LCFI56:
 3033              		.cfi_remember_state
 3034              		.cfi_def_cfa_offset 8
 3035              		@ sp needed
 3036 0024 10BD     		pop	{r4, pc}
 3037              	.LVL488:
 3038              	.L209:
 3039              	.LCFI57:
 3040              		.cfi_restore_state
1613:C:/Users/lenovo/Desktop/liteos/Project2/BearPi_LiteOS/components/security/mbedtls/mbedtls-2.6.0/library\rsa.c ****     }
 3041              		.loc 1 1613 0
 3042 0026 0148     		ldr	r0, .L211
 3043              	.LVL489:
 3044 0028 FBE7     		b	.L205
 3045              	.L212:
 3046 002a 00BF     		.align	2
ARM GAS  c:\Users\lenovo\AppData\Local\Temp\ccVehGBj.s 			page 87


 3047              	.L211:
 3048 002c 00BFFFFF 		.word	-16640
 3049              		.cfi_endproc
 3050              	.LFE30:
 3052              		.section	.text.mbedtls_rsa_free,"ax",%progbits
 3053              		.align	1
 3054              		.global	mbedtls_rsa_free
 3055              		.syntax unified
 3056              		.thumb
 3057              		.thumb_func
 3058              		.fpu fpv4-sp-d16
 3060              	mbedtls_rsa_free:
 3061              	.LFB32:
1616:C:/Users/lenovo/Desktop/liteos/Project2/BearPi_LiteOS/components/security/mbedtls/mbedtls-2.6.0/library\rsa.c **** 
1617:C:/Users/lenovo/Desktop/liteos/Project2/BearPi_LiteOS/components/security/mbedtls/mbedtls-2.6.0/library\rsa.c **** /*
1618:C:/Users/lenovo/Desktop/liteos/Project2/BearPi_LiteOS/components/security/mbedtls/mbedtls-2.6.0/library\rsa.c ****  * Copy the components of an RSA key
1619:C:/Users/lenovo/Desktop/liteos/Project2/BearPi_LiteOS/components/security/mbedtls/mbedtls-2.6.0/library\rsa.c ****  */
1620:C:/Users/lenovo/Desktop/liteos/Project2/BearPi_LiteOS/components/security/mbedtls/mbedtls-2.6.0/library\rsa.c **** int mbedtls_rsa_copy( mbedtls_rsa_context *dst, const mbedtls_rsa_context *src )
1621:C:/Users/lenovo/Desktop/liteos/Project2/BearPi_LiteOS/components/security/mbedtls/mbedtls-2.6.0/library\rsa.c **** {
1622:C:/Users/lenovo/Desktop/liteos/Project2/BearPi_LiteOS/components/security/mbedtls/mbedtls-2.6.0/library\rsa.c ****     int ret;
1623:C:/Users/lenovo/Desktop/liteos/Project2/BearPi_LiteOS/components/security/mbedtls/mbedtls-2.6.0/library\rsa.c **** 
1624:C:/Users/lenovo/Desktop/liteos/Project2/BearPi_LiteOS/components/security/mbedtls/mbedtls-2.6.0/library\rsa.c ****     dst->ver = src->ver;
1625:C:/Users/lenovo/Desktop/liteos/Project2/BearPi_LiteOS/components/security/mbedtls/mbedtls-2.6.0/library\rsa.c ****     dst->len = src->len;
1626:C:/Users/lenovo/Desktop/liteos/Project2/BearPi_LiteOS/components/security/mbedtls/mbedtls-2.6.0/library\rsa.c **** 
1627:C:/Users/lenovo/Desktop/liteos/Project2/BearPi_LiteOS/components/security/mbedtls/mbedtls-2.6.0/library\rsa.c ****     MBEDTLS_MPI_CHK( mbedtls_mpi_copy( &dst->N, &src->N ) );
1628:C:/Users/lenovo/Desktop/liteos/Project2/BearPi_LiteOS/components/security/mbedtls/mbedtls-2.6.0/library\rsa.c ****     MBEDTLS_MPI_CHK( mbedtls_mpi_copy( &dst->E, &src->E ) );
1629:C:/Users/lenovo/Desktop/liteos/Project2/BearPi_LiteOS/components/security/mbedtls/mbedtls-2.6.0/library\rsa.c **** 
1630:C:/Users/lenovo/Desktop/liteos/Project2/BearPi_LiteOS/components/security/mbedtls/mbedtls-2.6.0/library\rsa.c ****     MBEDTLS_MPI_CHK( mbedtls_mpi_copy( &dst->D, &src->D ) );
1631:C:/Users/lenovo/Desktop/liteos/Project2/BearPi_LiteOS/components/security/mbedtls/mbedtls-2.6.0/library\rsa.c ****     MBEDTLS_MPI_CHK( mbedtls_mpi_copy( &dst->P, &src->P ) );
1632:C:/Users/lenovo/Desktop/liteos/Project2/BearPi_LiteOS/components/security/mbedtls/mbedtls-2.6.0/library\rsa.c ****     MBEDTLS_MPI_CHK( mbedtls_mpi_copy( &dst->Q, &src->Q ) );
1633:C:/Users/lenovo/Desktop/liteos/Project2/BearPi_LiteOS/components/security/mbedtls/mbedtls-2.6.0/library\rsa.c ****     MBEDTLS_MPI_CHK( mbedtls_mpi_copy( &dst->DP, &src->DP ) );
1634:C:/Users/lenovo/Desktop/liteos/Project2/BearPi_LiteOS/components/security/mbedtls/mbedtls-2.6.0/library\rsa.c ****     MBEDTLS_MPI_CHK( mbedtls_mpi_copy( &dst->DQ, &src->DQ ) );
1635:C:/Users/lenovo/Desktop/liteos/Project2/BearPi_LiteOS/components/security/mbedtls/mbedtls-2.6.0/library\rsa.c ****     MBEDTLS_MPI_CHK( mbedtls_mpi_copy( &dst->QP, &src->QP ) );
1636:C:/Users/lenovo/Desktop/liteos/Project2/BearPi_LiteOS/components/security/mbedtls/mbedtls-2.6.0/library\rsa.c **** 
1637:C:/Users/lenovo/Desktop/liteos/Project2/BearPi_LiteOS/components/security/mbedtls/mbedtls-2.6.0/library\rsa.c ****     MBEDTLS_MPI_CHK( mbedtls_mpi_copy( &dst->RN, &src->RN ) );
1638:C:/Users/lenovo/Desktop/liteos/Project2/BearPi_LiteOS/components/security/mbedtls/mbedtls-2.6.0/library\rsa.c ****     MBEDTLS_MPI_CHK( mbedtls_mpi_copy( &dst->RP, &src->RP ) );
1639:C:/Users/lenovo/Desktop/liteos/Project2/BearPi_LiteOS/components/security/mbedtls/mbedtls-2.6.0/library\rsa.c ****     MBEDTLS_MPI_CHK( mbedtls_mpi_copy( &dst->RQ, &src->RQ ) );
1640:C:/Users/lenovo/Desktop/liteos/Project2/BearPi_LiteOS/components/security/mbedtls/mbedtls-2.6.0/library\rsa.c **** 
1641:C:/Users/lenovo/Desktop/liteos/Project2/BearPi_LiteOS/components/security/mbedtls/mbedtls-2.6.0/library\rsa.c ****     MBEDTLS_MPI_CHK( mbedtls_mpi_copy( &dst->Vi, &src->Vi ) );
1642:C:/Users/lenovo/Desktop/liteos/Project2/BearPi_LiteOS/components/security/mbedtls/mbedtls-2.6.0/library\rsa.c ****     MBEDTLS_MPI_CHK( mbedtls_mpi_copy( &dst->Vf, &src->Vf ) );
1643:C:/Users/lenovo/Desktop/liteos/Project2/BearPi_LiteOS/components/security/mbedtls/mbedtls-2.6.0/library\rsa.c **** 
1644:C:/Users/lenovo/Desktop/liteos/Project2/BearPi_LiteOS/components/security/mbedtls/mbedtls-2.6.0/library\rsa.c ****     dst->padding = src->padding;
1645:C:/Users/lenovo/Desktop/liteos/Project2/BearPi_LiteOS/components/security/mbedtls/mbedtls-2.6.0/library\rsa.c ****     dst->hash_id = src->hash_id;
1646:C:/Users/lenovo/Desktop/liteos/Project2/BearPi_LiteOS/components/security/mbedtls/mbedtls-2.6.0/library\rsa.c **** 
1647:C:/Users/lenovo/Desktop/liteos/Project2/BearPi_LiteOS/components/security/mbedtls/mbedtls-2.6.0/library\rsa.c **** cleanup:
1648:C:/Users/lenovo/Desktop/liteos/Project2/BearPi_LiteOS/components/security/mbedtls/mbedtls-2.6.0/library\rsa.c ****     if( ret != 0 )
1649:C:/Users/lenovo/Desktop/liteos/Project2/BearPi_LiteOS/components/security/mbedtls/mbedtls-2.6.0/library\rsa.c ****         mbedtls_rsa_free( dst );
1650:C:/Users/lenovo/Desktop/liteos/Project2/BearPi_LiteOS/components/security/mbedtls/mbedtls-2.6.0/library\rsa.c **** 
1651:C:/Users/lenovo/Desktop/liteos/Project2/BearPi_LiteOS/components/security/mbedtls/mbedtls-2.6.0/library\rsa.c ****     return( ret );
1652:C:/Users/lenovo/Desktop/liteos/Project2/BearPi_LiteOS/components/security/mbedtls/mbedtls-2.6.0/library\rsa.c **** }
1653:C:/Users/lenovo/Desktop/liteos/Project2/BearPi_LiteOS/components/security/mbedtls/mbedtls-2.6.0/library\rsa.c **** 
1654:C:/Users/lenovo/Desktop/liteos/Project2/BearPi_LiteOS/components/security/mbedtls/mbedtls-2.6.0/library\rsa.c **** /*
1655:C:/Users/lenovo/Desktop/liteos/Project2/BearPi_LiteOS/components/security/mbedtls/mbedtls-2.6.0/library\rsa.c ****  * Free the components of an RSA key
1656:C:/Users/lenovo/Desktop/liteos/Project2/BearPi_LiteOS/components/security/mbedtls/mbedtls-2.6.0/library\rsa.c ****  */
1657:C:/Users/lenovo/Desktop/liteos/Project2/BearPi_LiteOS/components/security/mbedtls/mbedtls-2.6.0/library\rsa.c **** void mbedtls_rsa_free( mbedtls_rsa_context *ctx )
1658:C:/Users/lenovo/Desktop/liteos/Project2/BearPi_LiteOS/components/security/mbedtls/mbedtls-2.6.0/library\rsa.c **** {
 3062              		.loc 1 1658 0
ARM GAS  c:\Users\lenovo\AppData\Local\Temp\ccVehGBj.s 			page 88


 3063              		.cfi_startproc
 3064              		@ args = 0, pretend = 0, frame = 0
 3065              		@ frame_needed = 0, uses_anonymous_args = 0
 3066              	.LVL490:
 3067 0000 10B5     		push	{r4, lr}
 3068              	.LCFI58:
 3069              		.cfi_def_cfa_offset 8
 3070              		.cfi_offset 4, -8
 3071              		.cfi_offset 14, -4
 3072 0002 0446     		mov	r4, r0
1659:C:/Users/lenovo/Desktop/liteos/Project2/BearPi_LiteOS/components/security/mbedtls/mbedtls-2.6.0/library\rsa.c ****     mbedtls_mpi_free( &ctx->Vi ); mbedtls_mpi_free( &ctx->Vf );
 3073              		.loc 1 1659 0
 3074 0004 8C30     		adds	r0, r0, #140
 3075              	.LVL491:
 3076 0006 FFF7FEFF 		bl	mbedtls_mpi_free
 3077              	.LVL492:
 3078 000a 04F19800 		add	r0, r4, #152
 3079 000e FFF7FEFF 		bl	mbedtls_mpi_free
 3080              	.LVL493:
1660:C:/Users/lenovo/Desktop/liteos/Project2/BearPi_LiteOS/components/security/mbedtls/mbedtls-2.6.0/library\rsa.c ****     mbedtls_mpi_free( &ctx->RQ ); mbedtls_mpi_free( &ctx->RP ); mbedtls_mpi_free( &ctx->RN );
 3081              		.loc 1 1660 0
 3082 0012 04F18000 		add	r0, r4, #128
 3083 0016 FFF7FEFF 		bl	mbedtls_mpi_free
 3084              	.LVL494:
 3085 001a 04F17400 		add	r0, r4, #116
 3086 001e FFF7FEFF 		bl	mbedtls_mpi_free
 3087              	.LVL495:
 3088 0022 04F16800 		add	r0, r4, #104
 3089 0026 FFF7FEFF 		bl	mbedtls_mpi_free
 3090              	.LVL496:
1661:C:/Users/lenovo/Desktop/liteos/Project2/BearPi_LiteOS/components/security/mbedtls/mbedtls-2.6.0/library\rsa.c ****     mbedtls_mpi_free( &ctx->QP ); mbedtls_mpi_free( &ctx->DQ ); mbedtls_mpi_free( &ctx->DP );
 3091              		.loc 1 1661 0
 3092 002a 04F15C00 		add	r0, r4, #92
 3093 002e FFF7FEFF 		bl	mbedtls_mpi_free
 3094              	.LVL497:
 3095 0032 04F15000 		add	r0, r4, #80
 3096 0036 FFF7FEFF 		bl	mbedtls_mpi_free
 3097              	.LVL498:
 3098 003a 04F14400 		add	r0, r4, #68
 3099 003e FFF7FEFF 		bl	mbedtls_mpi_free
 3100              	.LVL499:
1662:C:/Users/lenovo/Desktop/liteos/Project2/BearPi_LiteOS/components/security/mbedtls/mbedtls-2.6.0/library\rsa.c ****     mbedtls_mpi_free( &ctx->Q  ); mbedtls_mpi_free( &ctx->P  ); mbedtls_mpi_free( &ctx->D );
 3101              		.loc 1 1662 0
 3102 0042 04F13800 		add	r0, r4, #56
 3103 0046 FFF7FEFF 		bl	mbedtls_mpi_free
 3104              	.LVL500:
 3105 004a 04F12C00 		add	r0, r4, #44
 3106 004e FFF7FEFF 		bl	mbedtls_mpi_free
 3107              	.LVL501:
 3108 0052 04F12000 		add	r0, r4, #32
 3109 0056 FFF7FEFF 		bl	mbedtls_mpi_free
 3110              	.LVL502:
1663:C:/Users/lenovo/Desktop/liteos/Project2/BearPi_LiteOS/components/security/mbedtls/mbedtls-2.6.0/library\rsa.c ****     mbedtls_mpi_free( &ctx->E  ); mbedtls_mpi_free( &ctx->N  );
 3111              		.loc 1 1663 0
 3112 005a 04F11400 		add	r0, r4, #20
 3113 005e FFF7FEFF 		bl	mbedtls_mpi_free
 3114              	.LVL503:
ARM GAS  c:\Users\lenovo\AppData\Local\Temp\ccVehGBj.s 			page 89


 3115 0062 04F10800 		add	r0, r4, #8
 3116 0066 FFF7FEFF 		bl	mbedtls_mpi_free
 3117              	.LVL504:
1664:C:/Users/lenovo/Desktop/liteos/Project2/BearPi_LiteOS/components/security/mbedtls/mbedtls-2.6.0/library\rsa.c **** 
1665:C:/Users/lenovo/Desktop/liteos/Project2/BearPi_LiteOS/components/security/mbedtls/mbedtls-2.6.0/library\rsa.c **** #if defined(MBEDTLS_THREADING_C)
1666:C:/Users/lenovo/Desktop/liteos/Project2/BearPi_LiteOS/components/security/mbedtls/mbedtls-2.6.0/library\rsa.c ****     mbedtls_mutex_free( &ctx->mutex );
1667:C:/Users/lenovo/Desktop/liteos/Project2/BearPi_LiteOS/components/security/mbedtls/mbedtls-2.6.0/library\rsa.c **** #endif
1668:C:/Users/lenovo/Desktop/liteos/Project2/BearPi_LiteOS/components/security/mbedtls/mbedtls-2.6.0/library\rsa.c **** }
 3118              		.loc 1 1668 0
 3119 006a 10BD     		pop	{r4, pc}
 3120              		.cfi_endproc
 3121              	.LFE32:
 3123              		.section	.text.mbedtls_rsa_copy,"ax",%progbits
 3124              		.align	1
 3125              		.global	mbedtls_rsa_copy
 3126              		.syntax unified
 3127              		.thumb
 3128              		.thumb_func
 3129              		.fpu fpv4-sp-d16
 3131              	mbedtls_rsa_copy:
 3132              	.LFB31:
1621:C:/Users/lenovo/Desktop/liteos/Project2/BearPi_LiteOS/components/security/mbedtls/mbedtls-2.6.0/library\rsa.c ****     int ret;
 3133              		.loc 1 1621 0
 3134              		.cfi_startproc
 3135              		@ args = 0, pretend = 0, frame = 0
 3136              		@ frame_needed = 0, uses_anonymous_args = 0
 3137              	.LVL505:
 3138 0000 70B5     		push	{r4, r5, r6, lr}
 3139              	.LCFI59:
 3140              		.cfi_def_cfa_offset 16
 3141              		.cfi_offset 4, -16
 3142              		.cfi_offset 5, -12
 3143              		.cfi_offset 6, -8
 3144              		.cfi_offset 14, -4
 3145 0002 0446     		mov	r4, r0
 3146 0004 0D46     		mov	r5, r1
1624:C:/Users/lenovo/Desktop/liteos/Project2/BearPi_LiteOS/components/security/mbedtls/mbedtls-2.6.0/library\rsa.c ****     dst->len = src->len;
 3147              		.loc 1 1624 0
 3148 0006 0B68     		ldr	r3, [r1]
 3149 0008 0360     		str	r3, [r0]
1625:C:/Users/lenovo/Desktop/liteos/Project2/BearPi_LiteOS/components/security/mbedtls/mbedtls-2.6.0/library\rsa.c **** 
 3150              		.loc 1 1625 0
 3151 000a 4B68     		ldr	r3, [r1, #4]
 3152 000c 4360     		str	r3, [r0, #4]
1627:C:/Users/lenovo/Desktop/liteos/Project2/BearPi_LiteOS/components/security/mbedtls/mbedtls-2.6.0/library\rsa.c ****     MBEDTLS_MPI_CHK( mbedtls_mpi_copy( &dst->E, &src->E ) );
 3153              		.loc 1 1627 0
 3154 000e 0831     		adds	r1, r1, #8
 3155              	.LVL506:
 3156 0010 0830     		adds	r0, r0, #8
 3157              	.LVL507:
 3158 0012 FFF7FEFF 		bl	mbedtls_mpi_copy
 3159              	.LVL508:
 3160 0016 0646     		mov	r6, r0
 3161 0018 18B1     		cbz	r0, .L219
 3162              	.L216:
1648:C:/Users/lenovo/Desktop/liteos/Project2/BearPi_LiteOS/components/security/mbedtls/mbedtls-2.6.0/library\rsa.c ****         mbedtls_rsa_free( dst );
 3163              		.loc 1 1648 0
ARM GAS  c:\Users\lenovo\AppData\Local\Temp\ccVehGBj.s 			page 90


 3164 001a 002E     		cmp	r6, #0
 3165 001c 76D1     		bne	.L220
 3166              	.LVL509:
 3167              	.L215:
1652:C:/Users/lenovo/Desktop/liteos/Project2/BearPi_LiteOS/components/security/mbedtls/mbedtls-2.6.0/library\rsa.c **** 
 3168              		.loc 1 1652 0
 3169 001e 3046     		mov	r0, r6
 3170 0020 70BD     		pop	{r4, r5, r6, pc}
 3171              	.LVL510:
 3172              	.L219:
1628:C:/Users/lenovo/Desktop/liteos/Project2/BearPi_LiteOS/components/security/mbedtls/mbedtls-2.6.0/library\rsa.c **** 
 3173              		.loc 1 1628 0
 3174 0022 05F11401 		add	r1, r5, #20
 3175 0026 04F11400 		add	r0, r4, #20
 3176              	.LVL511:
 3177 002a FFF7FEFF 		bl	mbedtls_mpi_copy
 3178              	.LVL512:
 3179 002e 0646     		mov	r6, r0
 3180 0030 0028     		cmp	r0, #0
 3181 0032 F2D1     		bne	.L216
1630:C:/Users/lenovo/Desktop/liteos/Project2/BearPi_LiteOS/components/security/mbedtls/mbedtls-2.6.0/library\rsa.c ****     MBEDTLS_MPI_CHK( mbedtls_mpi_copy( &dst->P, &src->P ) );
 3182              		.loc 1 1630 0
 3183 0034 05F12001 		add	r1, r5, #32
 3184 0038 04F12000 		add	r0, r4, #32
 3185              	.LVL513:
 3186 003c FFF7FEFF 		bl	mbedtls_mpi_copy
 3187              	.LVL514:
 3188 0040 0646     		mov	r6, r0
 3189 0042 0028     		cmp	r0, #0
 3190 0044 E9D1     		bne	.L216
1631:C:/Users/lenovo/Desktop/liteos/Project2/BearPi_LiteOS/components/security/mbedtls/mbedtls-2.6.0/library\rsa.c ****     MBEDTLS_MPI_CHK( mbedtls_mpi_copy( &dst->Q, &src->Q ) );
 3191              		.loc 1 1631 0
 3192 0046 05F12C01 		add	r1, r5, #44
 3193 004a 04F12C00 		add	r0, r4, #44
 3194              	.LVL515:
 3195 004e FFF7FEFF 		bl	mbedtls_mpi_copy
 3196              	.LVL516:
 3197 0052 0646     		mov	r6, r0
 3198 0054 0028     		cmp	r0, #0
 3199 0056 E0D1     		bne	.L216
1632:C:/Users/lenovo/Desktop/liteos/Project2/BearPi_LiteOS/components/security/mbedtls/mbedtls-2.6.0/library\rsa.c ****     MBEDTLS_MPI_CHK( mbedtls_mpi_copy( &dst->DP, &src->DP ) );
 3200              		.loc 1 1632 0
 3201 0058 05F13801 		add	r1, r5, #56
 3202 005c 04F13800 		add	r0, r4, #56
 3203              	.LVL517:
 3204 0060 FFF7FEFF 		bl	mbedtls_mpi_copy
 3205              	.LVL518:
 3206 0064 0646     		mov	r6, r0
 3207 0066 0028     		cmp	r0, #0
 3208 0068 D7D1     		bne	.L216
1633:C:/Users/lenovo/Desktop/liteos/Project2/BearPi_LiteOS/components/security/mbedtls/mbedtls-2.6.0/library\rsa.c ****     MBEDTLS_MPI_CHK( mbedtls_mpi_copy( &dst->DQ, &src->DQ ) );
 3209              		.loc 1 1633 0
 3210 006a 05F14401 		add	r1, r5, #68
 3211 006e 04F14400 		add	r0, r4, #68
 3212              	.LVL519:
 3213 0072 FFF7FEFF 		bl	mbedtls_mpi_copy
 3214              	.LVL520:
ARM GAS  c:\Users\lenovo\AppData\Local\Temp\ccVehGBj.s 			page 91


 3215 0076 0646     		mov	r6, r0
 3216 0078 0028     		cmp	r0, #0
 3217 007a CED1     		bne	.L216
1634:C:/Users/lenovo/Desktop/liteos/Project2/BearPi_LiteOS/components/security/mbedtls/mbedtls-2.6.0/library\rsa.c ****     MBEDTLS_MPI_CHK( mbedtls_mpi_copy( &dst->QP, &src->QP ) );
 3218              		.loc 1 1634 0
 3219 007c 05F15001 		add	r1, r5, #80
 3220 0080 04F15000 		add	r0, r4, #80
 3221              	.LVL521:
 3222 0084 FFF7FEFF 		bl	mbedtls_mpi_copy
 3223              	.LVL522:
 3224 0088 0646     		mov	r6, r0
 3225 008a 0028     		cmp	r0, #0
 3226 008c C5D1     		bne	.L216
1635:C:/Users/lenovo/Desktop/liteos/Project2/BearPi_LiteOS/components/security/mbedtls/mbedtls-2.6.0/library\rsa.c **** 
 3227              		.loc 1 1635 0
 3228 008e 05F15C01 		add	r1, r5, #92
 3229 0092 04F15C00 		add	r0, r4, #92
 3230              	.LVL523:
 3231 0096 FFF7FEFF 		bl	mbedtls_mpi_copy
 3232              	.LVL524:
 3233 009a 0646     		mov	r6, r0
 3234 009c 0028     		cmp	r0, #0
 3235 009e BCD1     		bne	.L216
1637:C:/Users/lenovo/Desktop/liteos/Project2/BearPi_LiteOS/components/security/mbedtls/mbedtls-2.6.0/library\rsa.c ****     MBEDTLS_MPI_CHK( mbedtls_mpi_copy( &dst->RP, &src->RP ) );
 3236              		.loc 1 1637 0
 3237 00a0 05F16801 		add	r1, r5, #104
 3238 00a4 04F16800 		add	r0, r4, #104
 3239              	.LVL525:
 3240 00a8 FFF7FEFF 		bl	mbedtls_mpi_copy
 3241              	.LVL526:
 3242 00ac 0646     		mov	r6, r0
 3243 00ae 0028     		cmp	r0, #0
 3244 00b0 B3D1     		bne	.L216
1638:C:/Users/lenovo/Desktop/liteos/Project2/BearPi_LiteOS/components/security/mbedtls/mbedtls-2.6.0/library\rsa.c ****     MBEDTLS_MPI_CHK( mbedtls_mpi_copy( &dst->RQ, &src->RQ ) );
 3245              		.loc 1 1638 0
 3246 00b2 05F17401 		add	r1, r5, #116
 3247 00b6 04F17400 		add	r0, r4, #116
 3248              	.LVL527:
 3249 00ba FFF7FEFF 		bl	mbedtls_mpi_copy
 3250              	.LVL528:
 3251 00be 0646     		mov	r6, r0
 3252 00c0 0028     		cmp	r0, #0
 3253 00c2 AAD1     		bne	.L216
1639:C:/Users/lenovo/Desktop/liteos/Project2/BearPi_LiteOS/components/security/mbedtls/mbedtls-2.6.0/library\rsa.c **** 
 3254              		.loc 1 1639 0
 3255 00c4 05F18001 		add	r1, r5, #128
 3256 00c8 04F18000 		add	r0, r4, #128
 3257              	.LVL529:
 3258 00cc FFF7FEFF 		bl	mbedtls_mpi_copy
 3259              	.LVL530:
 3260 00d0 0646     		mov	r6, r0
 3261 00d2 0028     		cmp	r0, #0
 3262 00d4 A1D1     		bne	.L216
1641:C:/Users/lenovo/Desktop/liteos/Project2/BearPi_LiteOS/components/security/mbedtls/mbedtls-2.6.0/library\rsa.c ****     MBEDTLS_MPI_CHK( mbedtls_mpi_copy( &dst->Vf, &src->Vf ) );
 3263              		.loc 1 1641 0
 3264 00d6 05F18C01 		add	r1, r5, #140
 3265 00da 04F18C00 		add	r0, r4, #140
ARM GAS  c:\Users\lenovo\AppData\Local\Temp\ccVehGBj.s 			page 92


 3266              	.LVL531:
 3267 00de FFF7FEFF 		bl	mbedtls_mpi_copy
 3268              	.LVL532:
 3269 00e2 0646     		mov	r6, r0
 3270 00e4 0028     		cmp	r0, #0
 3271 00e6 98D1     		bne	.L216
1642:C:/Users/lenovo/Desktop/liteos/Project2/BearPi_LiteOS/components/security/mbedtls/mbedtls-2.6.0/library\rsa.c **** 
 3272              		.loc 1 1642 0
 3273 00e8 05F19801 		add	r1, r5, #152
 3274 00ec 04F19800 		add	r0, r4, #152
 3275              	.LVL533:
 3276 00f0 FFF7FEFF 		bl	mbedtls_mpi_copy
 3277              	.LVL534:
 3278 00f4 0646     		mov	r6, r0
 3279 00f6 0028     		cmp	r0, #0
 3280 00f8 8FD1     		bne	.L216
1644:C:/Users/lenovo/Desktop/liteos/Project2/BearPi_LiteOS/components/security/mbedtls/mbedtls-2.6.0/library\rsa.c ****     dst->hash_id = src->hash_id;
 3281              		.loc 1 1644 0
 3282 00fa D5F8A430 		ldr	r3, [r5, #164]
 3283 00fe C4F8A430 		str	r3, [r4, #164]
1645:C:/Users/lenovo/Desktop/liteos/Project2/BearPi_LiteOS/components/security/mbedtls/mbedtls-2.6.0/library\rsa.c **** 
 3284              		.loc 1 1645 0
 3285 0102 D5F8A830 		ldr	r3, [r5, #168]
 3286 0106 C4F8A830 		str	r3, [r4, #168]
 3287 010a 86E7     		b	.L216
 3288              	.L220:
1649:C:/Users/lenovo/Desktop/liteos/Project2/BearPi_LiteOS/components/security/mbedtls/mbedtls-2.6.0/library\rsa.c **** 
 3289              		.loc 1 1649 0
 3290 010c 2046     		mov	r0, r4
 3291              	.LVL535:
 3292 010e FFF7FEFF 		bl	mbedtls_rsa_free
 3293              	.LVL536:
1651:C:/Users/lenovo/Desktop/liteos/Project2/BearPi_LiteOS/components/security/mbedtls/mbedtls-2.6.0/library\rsa.c **** }
 3294              		.loc 1 1651 0
 3295 0112 84E7     		b	.L215
 3296              		.cfi_endproc
 3297              	.LFE31:
 3299              		.text
 3300              	.Letext0:
 3301              		.file 2 "c:\\program files (x86)\\liteos studio\\resources\\arm-none-eabi\\arm-none-eabi\\include\
 3302              		.file 3 "c:\\program files (x86)\\liteos studio\\resources\\arm-none-eabi\\lib\\gcc\\arm-none-eabi
 3303              		.file 4 "c:\\program files (x86)\\liteos studio\\resources\\arm-none-eabi\\arm-none-eabi\\include\
 3304              		.file 5 "C:/Users/lenovo/Desktop/liteos/Project2/BearPi_LiteOS/components/security/mbedtls/mbedtls
 3305              		.file 6 "C:/Users/lenovo/Desktop/liteos/Project2/BearPi_LiteOS/components/security/mbedtls/mbedtls
 3306              		.file 7 "C:/Users/lenovo/Desktop/liteos/Project2/BearPi_LiteOS/components/security/mbedtls/mbedtls
 3307              		.file 8 "c:\\program files (x86)\\liteos studio\\resources\\arm-none-eabi\\arm-none-eabi\\include\
 3308              		.file 9 "c:\\program files (x86)\\liteos studio\\resources\\arm-none-eabi\\arm-none-eabi\\include\
 3309              		.file 10 "c:\\program files (x86)\\liteos studio\\resources\\arm-none-eabi\\arm-none-eabi\\include
 3310              		.file 11 "c:\\program files (x86)\\liteos studio\\resources\\arm-none-eabi\\arm-none-eabi\\include
 3311              		.file 12 "c:\\program files (x86)\\liteos studio\\resources\\arm-none-eabi\\arm-none-eabi\\include
 3312              		.file 13 "C:/Users/lenovo/Desktop/liteos/Project2/BearPi_LiteOS/components/security/mbedtls/mbedtl
 3313              		.file 14 "c:\\program files (x86)\\liteos studio\\resources\\arm-none-eabi\\arm-none-eabi\\include
 3314              		.file 15 "<built-in>"
ARM GAS  c:\Users\lenovo\AppData\Local\Temp\ccVehGBj.s 			page 93


DEFINED SYMBOLS
                            *ABS*:00000000 rsa.c
c:\Users\lenovo\AppData\Local\Temp\ccVehGBj.s:18     .text.mbedtls_zeroize:00000000 $t
c:\Users\lenovo\AppData\Local\Temp\ccVehGBj.s:24     .text.mbedtls_zeroize:00000000 mbedtls_zeroize
c:\Users\lenovo\AppData\Local\Temp\ccVehGBj.s:56     .text.rsa_prepare_blinding:00000000 $t
c:\Users\lenovo\AppData\Local\Temp\ccVehGBj.s:62     .text.rsa_prepare_blinding:00000000 rsa_prepare_blinding
c:\Users\lenovo\AppData\Local\Temp\ccVehGBj.s:227    .text.rsa_prepare_blinding:000000d4 $d
c:\Users\lenovo\AppData\Local\Temp\ccVehGBj.s:232    .text.mgf_mask:00000000 $t
c:\Users\lenovo\AppData\Local\Temp\ccVehGBj.s:238    .text.mgf_mask:00000000 mgf_mask
c:\Users\lenovo\AppData\Local\Temp\ccVehGBj.s:368    .text.mbedtls_rsa_set_padding:00000000 $t
c:\Users\lenovo\AppData\Local\Temp\ccVehGBj.s:375    .text.mbedtls_rsa_set_padding:00000000 mbedtls_rsa_set_padding
c:\Users\lenovo\AppData\Local\Temp\ccVehGBj.s:393    .text.mbedtls_rsa_init:00000000 $t
c:\Users\lenovo\AppData\Local\Temp\ccVehGBj.s:400    .text.mbedtls_rsa_init:00000000 mbedtls_rsa_init
c:\Users\lenovo\AppData\Local\Temp\ccVehGBj.s:436    .text.mbedtls_rsa_check_pubkey:00000000 $t
c:\Users\lenovo\AppData\Local\Temp\ccVehGBj.s:443    .text.mbedtls_rsa_check_pubkey:00000000 mbedtls_rsa_check_pubkey
c:\Users\lenovo\AppData\Local\Temp\ccVehGBj.s:551    .text.mbedtls_rsa_check_pubkey:00000074 $d
c:\Users\lenovo\AppData\Local\Temp\ccVehGBj.s:556    .text.mbedtls_rsa_check_privkey:00000000 $t
c:\Users\lenovo\AppData\Local\Temp\ccVehGBj.s:563    .text.mbedtls_rsa_check_privkey:00000000 mbedtls_rsa_check_privkey
c:\Users\lenovo\AppData\Local\Temp\ccVehGBj.s:933    .text.mbedtls_rsa_check_privkey:00000228 $d
c:\Users\lenovo\AppData\Local\Temp\ccVehGBj.s:938    .text.mbedtls_rsa_check_pub_priv:00000000 $t
c:\Users\lenovo\AppData\Local\Temp\ccVehGBj.s:945    .text.mbedtls_rsa_check_pub_priv:00000000 mbedtls_rsa_check_pub_priv
c:\Users\lenovo\AppData\Local\Temp\ccVehGBj.s:1007   .text.mbedtls_rsa_check_pub_priv:00000048 $d
c:\Users\lenovo\AppData\Local\Temp\ccVehGBj.s:1012   .text.mbedtls_rsa_public:00000000 $t
c:\Users\lenovo\AppData\Local\Temp\ccVehGBj.s:1019   .text.mbedtls_rsa_public:00000000 mbedtls_rsa_public
c:\Users\lenovo\AppData\Local\Temp\ccVehGBj.s:1121   .text.mbedtls_rsa_private:00000000 $t
c:\Users\lenovo\AppData\Local\Temp\ccVehGBj.s:1128   .text.mbedtls_rsa_private:00000000 mbedtls_rsa_private
c:\Users\lenovo\AppData\Local\Temp\ccVehGBj.s:1528   .text.mbedtls_rsa_private:00000268 $d
c:\Users\lenovo\AppData\Local\Temp\ccVehGBj.s:1533   .text.mbedtls_rsa_rsaes_oaep_encrypt:00000000 $t
c:\Users\lenovo\AppData\Local\Temp\ccVehGBj.s:1540   .text.mbedtls_rsa_rsaes_oaep_encrypt:00000000 mbedtls_rsa_rsaes_oaep_encrypt
c:\Users\lenovo\AppData\Local\Temp\ccVehGBj.s:1769   .text.mbedtls_rsa_rsaes_oaep_encrypt:00000128 $d
c:\Users\lenovo\AppData\Local\Temp\ccVehGBj.s:1774   .text.mbedtls_rsa_pkcs1_encrypt:00000000 $t
c:\Users\lenovo\AppData\Local\Temp\ccVehGBj.s:1781   .text.mbedtls_rsa_pkcs1_encrypt:00000000 mbedtls_rsa_pkcs1_encrypt
c:\Users\lenovo\AppData\Local\Temp\ccVehGBj.s:1831   .text.mbedtls_rsa_pkcs1_encrypt:0000002c $d
c:\Users\lenovo\AppData\Local\Temp\ccVehGBj.s:1836   .text.mbedtls_rsa_rsaes_oaep_decrypt:00000000 $t
c:\Users\lenovo\AppData\Local\Temp\ccVehGBj.s:1843   .text.mbedtls_rsa_rsaes_oaep_decrypt:00000000 mbedtls_rsa_rsaes_oaep_decrypt
c:\Users\lenovo\AppData\Local\Temp\ccVehGBj.s:2142   .text.mbedtls_rsa_rsaes_oaep_decrypt:00000184 $d
c:\Users\lenovo\AppData\Local\Temp\ccVehGBj.s:2149   .text.mbedtls_rsa_pkcs1_decrypt:00000000 $t
c:\Users\lenovo\AppData\Local\Temp\ccVehGBj.s:2156   .text.mbedtls_rsa_pkcs1_decrypt:00000000 mbedtls_rsa_pkcs1_decrypt
c:\Users\lenovo\AppData\Local\Temp\ccVehGBj.s:2208   .text.mbedtls_rsa_pkcs1_decrypt:00000030 $d
c:\Users\lenovo\AppData\Local\Temp\ccVehGBj.s:2213   .text.mbedtls_rsa_rsassa_pss_sign:00000000 $t
c:\Users\lenovo\AppData\Local\Temp\ccVehGBj.s:2220   .text.mbedtls_rsa_rsassa_pss_sign:00000000 mbedtls_rsa_rsassa_pss_sign
c:\Users\lenovo\AppData\Local\Temp\ccVehGBj.s:2511   .text.mbedtls_rsa_rsassa_pss_sign:00000198 $d
c:\Users\lenovo\AppData\Local\Temp\ccVehGBj.s:2516   .text.mbedtls_rsa_pkcs1_sign:00000000 $t
c:\Users\lenovo\AppData\Local\Temp\ccVehGBj.s:2523   .text.mbedtls_rsa_pkcs1_sign:00000000 mbedtls_rsa_pkcs1_sign
c:\Users\lenovo\AppData\Local\Temp\ccVehGBj.s:2572   .text.mbedtls_rsa_pkcs1_sign:0000002c $d
c:\Users\lenovo\AppData\Local\Temp\ccVehGBj.s:2577   .text.mbedtls_rsa_rsassa_pss_verify_ext:00000000 $t
c:\Users\lenovo\AppData\Local\Temp\ccVehGBj.s:2584   .text.mbedtls_rsa_rsassa_pss_verify_ext:00000000 mbedtls_rsa_rsassa_pss_verify_ext
c:\Users\lenovo\AppData\Local\Temp\ccVehGBj.s:2920   .text.mbedtls_rsa_rsassa_pss_verify_ext:000001e8 $d
c:\Users\lenovo\AppData\Local\Temp\ccVehGBj.s:2927   .text.mbedtls_rsa_rsassa_pss_verify:00000000 $t
c:\Users\lenovo\AppData\Local\Temp\ccVehGBj.s:2934   .text.mbedtls_rsa_rsassa_pss_verify:00000000 mbedtls_rsa_rsassa_pss_verify
c:\Users\lenovo\AppData\Local\Temp\ccVehGBj.s:2992   .text.mbedtls_rsa_pkcs1_verify:00000000 $t
c:\Users\lenovo\AppData\Local\Temp\ccVehGBj.s:2999   .text.mbedtls_rsa_pkcs1_verify:00000000 mbedtls_rsa_pkcs1_verify
c:\Users\lenovo\AppData\Local\Temp\ccVehGBj.s:3048   .text.mbedtls_rsa_pkcs1_verify:0000002c $d
c:\Users\lenovo\AppData\Local\Temp\ccVehGBj.s:3053   .text.mbedtls_rsa_free:00000000 $t
c:\Users\lenovo\AppData\Local\Temp\ccVehGBj.s:3060   .text.mbedtls_rsa_free:00000000 mbedtls_rsa_free
c:\Users\lenovo\AppData\Local\Temp\ccVehGBj.s:3124   .text.mbedtls_rsa_copy:00000000 $t
c:\Users\lenovo\AppData\Local\Temp\ccVehGBj.s:3131   .text.mbedtls_rsa_copy:00000000 mbedtls_rsa_copy
ARM GAS  c:\Users\lenovo\AppData\Local\Temp\ccVehGBj.s 			page 94



UNDEFINED SYMBOLS
mbedtls_mpi_mul_mpi
mbedtls_mpi_mod_mpi
mbedtls_mpi_fill_random
mbedtls_mpi_gcd
mbedtls_mpi_cmp_int
mbedtls_mpi_inv_mod
mbedtls_mpi_exp_mod
memset
mbedtls_md_get_size
mbedtls_md_starts
mbedtls_md_update
mbedtls_md_finish
mbedtls_mpi_bitlen
mbedtls_mpi_cmp_mpi
mbedtls_mpi_init
mbedtls_mpi_free
mbedtls_mpi_sub_int
mbedtls_mpi_div_mpi
mbedtls_mpi_read_binary
mbedtls_mpi_write_binary
mbedtls_mpi_add_mpi
mbedtls_mpi_sub_mpi
mbedtls_md_info_from_type
mbedtls_md
memcpy
mbedtls_md_init
mbedtls_md_setup
mbedtls_md_free
memcmp
mbedtls_mpi_copy
