ARM GAS  c:\Users\lenovo\AppData\Local\Temp\ccVehGBj.s 			page 1


   1              		.cpu cortex-m4
   2              		.eabi_attribute 27, 1
   3              		.eabi_attribute 28, 1
   4              		.eabi_attribute 20, 1
   5              		.eabi_attribute 21, 1
   6              		.eabi_attribute 23, 3
   7              		.eabi_attribute 24, 1
   8              		.eabi_attribute 25, 1
   9              		.eabi_attribute 26, 1
  10              		.eabi_attribute 30, 1
  11              		.eabi_attribute 34, 1
  12              		.eabi_attribute 18, 4
  13              		.file	"rsa.c"
  14              		.text
  15              	.Ltext0:
  16              		.cfi_sections	.debug_frame
  17              		.section	.text.mbedtls_zeroize,"ax",%progbits
  18              		.align	1
  19              		.syntax unified
  20              		.thumb
  21              		.thumb_func
  22              		.fpu fpv4-sp-d16
  24              	mbedtls_zeroize:
  25              	.LFB12:
  26              		.file 1 "C:/Users/lenovo/Desktop/liteos/Project2/BearPi_LiteOS/components/security/mbedtls/mbedtls
   1:C:/Users/lenovo/Desktop/liteos/Project2/BearPi_LiteOS/components/security/mbedtls/mbedtls-2.6.0/library\rsa.c **** /*
   2:C:/Users/lenovo/Desktop/liteos/Project2/BearPi_LiteOS/components/security/mbedtls/mbedtls-2.6.0/library\rsa.c ****  *  The RSA public-key cryptosystem
   3:C:/Users/lenovo/Desktop/liteos/Project2/BearPi_LiteOS/components/security/mbedtls/mbedtls-2.6.0/library\rsa.c ****  *
   4:C:/Users/lenovo/Desktop/liteos/Project2/BearPi_LiteOS/components/security/mbedtls/mbedtls-2.6.0/library\rsa.c ****  *  Copyright (C) 2006-2015, ARM Limited, All Rights Reserved
   5:C:/Users/lenovo/Desktop/liteos/Project2/BearPi_LiteOS/components/security/mbedtls/mbedtls-2.6.0/library\rsa.c ****  *  SPDX-License-Identifier: Apache-2.0
   6:C:/Users/lenovo/Desktop/liteos/Project2/BearPi_LiteOS/components/security/mbedtls/mbedtls-2.6.0/library\rsa.c ****  *
   7:C:/Users/lenovo/Desktop/liteos/Project2/BearPi_LiteOS/components/security/mbedtls/mbedtls-2.6.0/library\rsa.c ****  *  Licensed under the Apache License, Version 2.0 (the "License"); you may
   8:C:/Users/lenovo/Desktop/liteos/Project2/BearPi_LiteOS/components/security/mbedtls/mbedtls-2.6.0/library\rsa.c ****  *  not use this file except in compliance with the License.
   9:C:/Users/lenovo/Desktop/liteos/Project2/BearPi_LiteOS/components/security/mbedtls/mbedtls-2.6.0/library\rsa.c ****  *  You may obtain a copy of the License at
  10:C:/Users/lenovo/Desktop/liteos/Project2/BearPi_LiteOS/components/security/mbedtls/mbedtls-2.6.0/library\rsa.c ****  *
  11:C:/Users/lenovo/Desktop/liteos/Project2/BearPi_LiteOS/components/security/mbedtls/mbedtls-2.6.0/library\rsa.c ****  *  http://www.apache.org/licenses/LICENSE-2.0
  12:C:/Users/lenovo/Desktop/liteos/Project2/BearPi_LiteOS/components/security/mbedtls/mbedtls-2.6.0/library\rsa.c ****  *
  13:C:/Users/lenovo/Desktop/liteos/Project2/BearPi_LiteOS/components/security/mbedtls/mbedtls-2.6.0/library\rsa.c ****  *  Unless required by applicable law or agreed to in writing, software
  14:C:/Users/lenovo/Desktop/liteos/Project2/BearPi_LiteOS/components/security/mbedtls/mbedtls-2.6.0/library\rsa.c ****  *  distributed under the License is distributed on an "AS IS" BASIS, WITHOUT
  15:C:/Users/lenovo/Desktop/liteos/Project2/BearPi_LiteOS/components/security/mbedtls/mbedtls-2.6.0/library\rsa.c ****  *  WARRANTIES OR CONDITIONS OF ANY KIND, either express or implied.
  16:C:/Users/lenovo/Desktop/liteos/Project2/BearPi_LiteOS/components/security/mbedtls/mbedtls-2.6.0/library\rsa.c ****  *  See the License for the specific language governing permissions and
  17:C:/Users/lenovo/Desktop/liteos/Project2/BearPi_LiteOS/components/security/mbedtls/mbedtls-2.6.0/library\rsa.c ****  *  limitations under the License.
  18:C:/Users/lenovo/Desktop/liteos/Project2/BearPi_LiteOS/components/security/mbedtls/mbedtls-2.6.0/library\rsa.c ****  *
  19:C:/Users/lenovo/Desktop/liteos/Project2/BearPi_LiteOS/components/security/mbedtls/mbedtls-2.6.0/library\rsa.c ****  *  This file is part of mbed TLS (https://tls.mbed.org)
  20:C:/Users/lenovo/Desktop/liteos/Project2/BearPi_LiteOS/components/security/mbedtls/mbedtls-2.6.0/library\rsa.c ****  */
  21:C:/Users/lenovo/Desktop/liteos/Project2/BearPi_LiteOS/components/security/mbedtls/mbedtls-2.6.0/library\rsa.c **** /*
  22:C:/Users/lenovo/Desktop/liteos/Project2/BearPi_LiteOS/components/security/mbedtls/mbedtls-2.6.0/library\rsa.c ****  *  The following sources were referenced in the design of this implementation
  23:C:/Users/lenovo/Desktop/liteos/Project2/BearPi_LiteOS/components/security/mbedtls/mbedtls-2.6.0/library\rsa.c ****  *  of the RSA algorithm:
  24:C:/Users/lenovo/Desktop/liteos/Project2/BearPi_LiteOS/components/security/mbedtls/mbedtls-2.6.0/library\rsa.c ****  *
  25:C:/Users/lenovo/Desktop/liteos/Project2/BearPi_LiteOS/components/security/mbedtls/mbedtls-2.6.0/library\rsa.c ****  *  [1] A method for obtaining digital signatures and public-key cryptosystems
  26:C:/Users/lenovo/Desktop/liteos/Project2/BearPi_LiteOS/components/security/mbedtls/mbedtls-2.6.0/library\rsa.c ****  *      R Rivest, A Shamir, and L Adleman
  27:C:/Users/lenovo/Desktop/liteos/Project2/BearPi_LiteOS/components/security/mbedtls/mbedtls-2.6.0/library\rsa.c ****  *      http://people.csail.mit.edu/rivest/pubs.html#RSA78
  28:C:/Users/lenovo/Desktop/liteos/Project2/BearPi_LiteOS/components/security/mbedtls/mbedtls-2.6.0/library\rsa.c ****  *
  29:C:/Users/lenovo/Desktop/liteos/Project2/BearPi_LiteOS/components/security/mbedtls/mbedtls-2.6.0/library\rsa.c ****  *  [2] Handbook of Applied Cryptography - 1997, Chapter 8
  30:C:/Users/lenovo/Desktop/liteos/Project2/BearPi_LiteOS/components/security/mbedtls/mbedtls-2.6.0/library\rsa.c ****  *      Menezes, van Oorschot and Vanstone
  31:C:/Users/lenovo/Desktop/liteos/Project2/BearPi_LiteOS/components/security/mbedtls/mbedtls-2.6.0/library\rsa.c ****  *
  32:C:/Users/lenovo/Desktop/liteos/Project2/BearPi_LiteOS/components/security/mbedtls/mbedtls-2.6.0/library\rsa.c ****  *  [3] Malware Guard Extension: Using SGX to Conceal Cache Attacks
ARM GAS  c:\Users\lenovo\AppData\Local\Temp\ccVehGBj.s 			page 2


  33:C:/Users/lenovo/Desktop/liteos/Project2/BearPi_LiteOS/components/security/mbedtls/mbedtls-2.6.0/library\rsa.c ****  *      Michael Schwarz, Samuel Weiser, Daniel Gruss, Clémentine Maurice and
  34:C:/Users/lenovo/Desktop/liteos/Project2/BearPi_LiteOS/components/security/mbedtls/mbedtls-2.6.0/library\rsa.c ****  *      Stefan Mangard
  35:C:/Users/lenovo/Desktop/liteos/Project2/BearPi_LiteOS/components/security/mbedtls/mbedtls-2.6.0/library\rsa.c ****  *      https://arxiv.org/abs/1702.08719v2
  36:C:/Users/lenovo/Desktop/liteos/Project2/BearPi_LiteOS/components/security/mbedtls/mbedtls-2.6.0/library\rsa.c ****  *
  37:C:/Users/lenovo/Desktop/liteos/Project2/BearPi_LiteOS/components/security/mbedtls/mbedtls-2.6.0/library\rsa.c ****  */
  38:C:/Users/lenovo/Desktop/liteos/Project2/BearPi_LiteOS/components/security/mbedtls/mbedtls-2.6.0/library\rsa.c **** 
  39:C:/Users/lenovo/Desktop/liteos/Project2/BearPi_LiteOS/components/security/mbedtls/mbedtls-2.6.0/library\rsa.c **** #if !defined(MBEDTLS_CONFIG_FILE)
  40:C:/Users/lenovo/Desktop/liteos/Project2/BearPi_LiteOS/components/security/mbedtls/mbedtls-2.6.0/library\rsa.c **** #include "mbedtls/config.h"
  41:C:/Users/lenovo/Desktop/liteos/Project2/BearPi_LiteOS/components/security/mbedtls/mbedtls-2.6.0/library\rsa.c **** #else
  42:C:/Users/lenovo/Desktop/liteos/Project2/BearPi_LiteOS/components/security/mbedtls/mbedtls-2.6.0/library\rsa.c **** #include MBEDTLS_CONFIG_FILE
  43:C:/Users/lenovo/Desktop/liteos/Project2/BearPi_LiteOS/components/security/mbedtls/mbedtls-2.6.0/library\rsa.c **** #endif
  44:C:/Users/lenovo/Desktop/liteos/Project2/BearPi_LiteOS/components/security/mbedtls/mbedtls-2.6.0/library\rsa.c **** 
  45:C:/Users/lenovo/Desktop/liteos/Project2/BearPi_LiteOS/components/security/mbedtls/mbedtls-2.6.0/library\rsa.c **** #if defined(MBEDTLS_RSA_C)
  46:C:/Users/lenovo/Desktop/liteos/Project2/BearPi_LiteOS/components/security/mbedtls/mbedtls-2.6.0/library\rsa.c **** 
  47:C:/Users/lenovo/Desktop/liteos/Project2/BearPi_LiteOS/components/security/mbedtls/mbedtls-2.6.0/library\rsa.c **** #include "mbedtls/rsa.h"
  48:C:/Users/lenovo/Desktop/liteos/Project2/BearPi_LiteOS/components/security/mbedtls/mbedtls-2.6.0/library\rsa.c **** #include "mbedtls/oid.h"
  49:C:/Users/lenovo/Desktop/liteos/Project2/BearPi_LiteOS/components/security/mbedtls/mbedtls-2.6.0/library\rsa.c **** 
  50:C:/Users/lenovo/Desktop/liteos/Project2/BearPi_LiteOS/components/security/mbedtls/mbedtls-2.6.0/library\rsa.c **** #include <string.h>
  51:C:/Users/lenovo/Desktop/liteos/Project2/BearPi_LiteOS/components/security/mbedtls/mbedtls-2.6.0/library\rsa.c **** 
  52:C:/Users/lenovo/Desktop/liteos/Project2/BearPi_LiteOS/components/security/mbedtls/mbedtls-2.6.0/library\rsa.c **** #if defined(MBEDTLS_PKCS1_V21)
  53:C:/Users/lenovo/Desktop/liteos/Project2/BearPi_LiteOS/components/security/mbedtls/mbedtls-2.6.0/library\rsa.c **** #include "mbedtls/md.h"
  54:C:/Users/lenovo/Desktop/liteos/Project2/BearPi_LiteOS/components/security/mbedtls/mbedtls-2.6.0/library\rsa.c **** #endif
  55:C:/Users/lenovo/Desktop/liteos/Project2/BearPi_LiteOS/components/security/mbedtls/mbedtls-2.6.0/library\rsa.c **** 
  56:C:/Users/lenovo/Desktop/liteos/Project2/BearPi_LiteOS/components/security/mbedtls/mbedtls-2.6.0/library\rsa.c **** #if defined(MBEDTLS_PKCS1_V15) && !defined(__OpenBSD__)
  57:C:/Users/lenovo/Desktop/liteos/Project2/BearPi_LiteOS/components/security/mbedtls/mbedtls-2.6.0/library\rsa.c **** #include <stdlib.h>
  58:C:/Users/lenovo/Desktop/liteos/Project2/BearPi_LiteOS/components/security/mbedtls/mbedtls-2.6.0/library\rsa.c **** #endif
  59:C:/Users/lenovo/Desktop/liteos/Project2/BearPi_LiteOS/components/security/mbedtls/mbedtls-2.6.0/library\rsa.c **** 
  60:C:/Users/lenovo/Desktop/liteos/Project2/BearPi_LiteOS/components/security/mbedtls/mbedtls-2.6.0/library\rsa.c **** #if defined(MBEDTLS_PLATFORM_C)
  61:C:/Users/lenovo/Desktop/liteos/Project2/BearPi_LiteOS/components/security/mbedtls/mbedtls-2.6.0/library\rsa.c **** #include "mbedtls/platform.h"
  62:C:/Users/lenovo/Desktop/liteos/Project2/BearPi_LiteOS/components/security/mbedtls/mbedtls-2.6.0/library\rsa.c **** #else
  63:C:/Users/lenovo/Desktop/liteos/Project2/BearPi_LiteOS/components/security/mbedtls/mbedtls-2.6.0/library\rsa.c **** #include <stdio.h>
  64:C:/Users/lenovo/Desktop/liteos/Project2/BearPi_LiteOS/components/security/mbedtls/mbedtls-2.6.0/library\rsa.c **** #define mbedtls_printf printf
  65:C:/Users/lenovo/Desktop/liteos/Project2/BearPi_LiteOS/components/security/mbedtls/mbedtls-2.6.0/library\rsa.c **** #define mbedtls_calloc calloc
  66:C:/Users/lenovo/Desktop/liteos/Project2/BearPi_LiteOS/components/security/mbedtls/mbedtls-2.6.0/library\rsa.c **** #define mbedtls_free   free
  67:C:/Users/lenovo/Desktop/liteos/Project2/BearPi_LiteOS/components/security/mbedtls/mbedtls-2.6.0/library\rsa.c **** #endif
  68:C:/Users/lenovo/Desktop/liteos/Project2/BearPi_LiteOS/components/security/mbedtls/mbedtls-2.6.0/library\rsa.c **** 
  69:C:/Users/lenovo/Desktop/liteos/Project2/BearPi_LiteOS/components/security/mbedtls/mbedtls-2.6.0/library\rsa.c **** /* Implementation that should never be optimized out by the compiler */
  70:C:/Users/lenovo/Desktop/liteos/Project2/BearPi_LiteOS/components/security/mbedtls/mbedtls-2.6.0/library\rsa.c **** static void mbedtls_zeroize( void *v, size_t n ) {
  27              		.loc 1 70 0
  28              		.cfi_startproc
  29              		@ args = 0, pretend = 0, frame = 0
  30              		@ frame_needed = 0, uses_anonymous_args = 0
  31              		@ link register save eliminated.
  32              	.LVL0:
  71:C:/Users/lenovo/Desktop/liteos/Project2/BearPi_LiteOS/components/security/mbedtls/mbedtls-2.6.0/library\rsa.c ****     volatile unsigned char *p = (unsigned char*)v; while( n-- ) *p++ = 0;
  33              		.loc 1 71 0
  34 0000 03E0     		b	.L2
  35              	.LVL1:
  36              	.L3:
  37              		.loc 1 71 0 is_stmt 0 discriminator 3
  38 0002 0022     		movs	r2, #0
  39 0004 0270     		strb	r2, [r0]
  40 0006 0130     		adds	r0, r0, #1
  41              	.LVL2:
  42 0008 1946     		mov	r1, r3
  43              	.LVL3:
  44              	.L2:
ARM GAS  c:\Users\lenovo\AppData\Local\Temp\ccVehGBj.s 			page 3


  45              		.loc 1 71 0 discriminator 1
  46 000a 4B1E     		subs	r3, r1, #1
  47              	.LVL4:
  48 000c 0029     		cmp	r1, #0
  49 000e F8D1     		bne	.L3
  72:C:/Users/lenovo/Desktop/liteos/Project2/BearPi_LiteOS/components/security/mbedtls/mbedtls-2.6.0/library\rsa.c **** }
  50              		.loc 1 72 0 is_stmt 1
  51 0010 7047     		bx	lr
  52              		.cfi_endproc
  53              	.LFE12:
  55              		.section	.text.rsa_prepare_blinding,"ax",%progbits
  56              		.align	1
  57              		.syntax unified
  58              		.thumb
  59              		.thumb_func
  60              		.fpu fpv4-sp-d16
  62              	rsa_prepare_blinding:
  63              	.LFB19:
  73:C:/Users/lenovo/Desktop/liteos/Project2/BearPi_LiteOS/components/security/mbedtls/mbedtls-2.6.0/library\rsa.c **** 
  74:C:/Users/lenovo/Desktop/liteos/Project2/BearPi_LiteOS/components/security/mbedtls/mbedtls-2.6.0/library\rsa.c **** /*
  75:C:/Users/lenovo/Desktop/liteos/Project2/BearPi_LiteOS/components/security/mbedtls/mbedtls-2.6.0/library\rsa.c ****  * Initialize an RSA context
  76:C:/Users/lenovo/Desktop/liteos/Project2/BearPi_LiteOS/components/security/mbedtls/mbedtls-2.6.0/library\rsa.c ****  */
  77:C:/Users/lenovo/Desktop/liteos/Project2/BearPi_LiteOS/components/security/mbedtls/mbedtls-2.6.0/library\rsa.c **** void mbedtls_rsa_init( mbedtls_rsa_context *ctx,
  78:C:/Users/lenovo/Desktop/liteos/Project2/BearPi_LiteOS/components/security/mbedtls/mbedtls-2.6.0/library\rsa.c ****                int padding,
  79:C:/Users/lenovo/Desktop/liteos/Project2/BearPi_LiteOS/components/security/mbedtls/mbedtls-2.6.0/library\rsa.c ****                int hash_id )
  80:C:/Users/lenovo/Desktop/liteos/Project2/BearPi_LiteOS/components/security/mbedtls/mbedtls-2.6.0/library\rsa.c **** {
  81:C:/Users/lenovo/Desktop/liteos/Project2/BearPi_LiteOS/components/security/mbedtls/mbedtls-2.6.0/library\rsa.c ****     memset( ctx, 0, sizeof( mbedtls_rsa_context ) );
  82:C:/Users/lenovo/Desktop/liteos/Project2/BearPi_LiteOS/components/security/mbedtls/mbedtls-2.6.0/library\rsa.c **** 
  83:C:/Users/lenovo/Desktop/liteos/Project2/BearPi_LiteOS/components/security/mbedtls/mbedtls-2.6.0/library\rsa.c ****     mbedtls_rsa_set_padding( ctx, padding, hash_id );
  84:C:/Users/lenovo/Desktop/liteos/Project2/BearPi_LiteOS/components/security/mbedtls/mbedtls-2.6.0/library\rsa.c **** 
  85:C:/Users/lenovo/Desktop/liteos/Project2/BearPi_LiteOS/components/security/mbedtls/mbedtls-2.6.0/library\rsa.c **** #if defined(MBEDTLS_THREADING_C)
  86:C:/Users/lenovo/Desktop/liteos/Project2/BearPi_LiteOS/components/security/mbedtls/mbedtls-2.6.0/library\rsa.c ****     mbedtls_mutex_init( &ctx->mutex );
  87:C:/Users/lenovo/Desktop/liteos/Project2/BearPi_LiteOS/components/security/mbedtls/mbedtls-2.6.0/library\rsa.c **** #endif
  88:C:/Users/lenovo/Desktop/liteos/Project2/BearPi_LiteOS/components/security/mbedtls/mbedtls-2.6.0/library\rsa.c **** }
  89:C:/Users/lenovo/Desktop/liteos/Project2/BearPi_LiteOS/components/security/mbedtls/mbedtls-2.6.0/library\rsa.c **** 
  90:C:/Users/lenovo/Desktop/liteos/Project2/BearPi_LiteOS/components/security/mbedtls/mbedtls-2.6.0/library\rsa.c **** /*
  91:C:/Users/lenovo/Desktop/liteos/Project2/BearPi_LiteOS/components/security/mbedtls/mbedtls-2.6.0/library\rsa.c ****  * Set padding for an existing RSA context
  92:C:/Users/lenovo/Desktop/liteos/Project2/BearPi_LiteOS/components/security/mbedtls/mbedtls-2.6.0/library\rsa.c ****  */
  93:C:/Users/lenovo/Desktop/liteos/Project2/BearPi_LiteOS/components/security/mbedtls/mbedtls-2.6.0/library\rsa.c **** void mbedtls_rsa_set_padding( mbedtls_rsa_context *ctx, int padding, int hash_id )
  94:C:/Users/lenovo/Desktop/liteos/Project2/BearPi_LiteOS/components/security/mbedtls/mbedtls-2.6.0/library\rsa.c **** {
  95:C:/Users/lenovo/Desktop/liteos/Project2/BearPi_LiteOS/components/security/mbedtls/mbedtls-2.6.0/library\rsa.c ****     ctx->padding = padding;
  96:C:/Users/lenovo/Desktop/liteos/Project2/BearPi_LiteOS/components/security/mbedtls/mbedtls-2.6.0/library\rsa.c ****     ctx->hash_id = hash_id;
  97:C:/Users/lenovo/Desktop/liteos/Project2/BearPi_LiteOS/components/security/mbedtls/mbedtls-2.6.0/library\rsa.c **** }
  98:C:/Users/lenovo/Desktop/liteos/Project2/BearPi_LiteOS/components/security/mbedtls/mbedtls-2.6.0/library\rsa.c **** 
  99:C:/Users/lenovo/Desktop/liteos/Project2/BearPi_LiteOS/components/security/mbedtls/mbedtls-2.6.0/library\rsa.c **** #if defined(MBEDTLS_GENPRIME)
 100:C:/Users/lenovo/Desktop/liteos/Project2/BearPi_LiteOS/components/security/mbedtls/mbedtls-2.6.0/library\rsa.c **** 
 101:C:/Users/lenovo/Desktop/liteos/Project2/BearPi_LiteOS/components/security/mbedtls/mbedtls-2.6.0/library\rsa.c **** /*
 102:C:/Users/lenovo/Desktop/liteos/Project2/BearPi_LiteOS/components/security/mbedtls/mbedtls-2.6.0/library\rsa.c ****  * Generate an RSA keypair
 103:C:/Users/lenovo/Desktop/liteos/Project2/BearPi_LiteOS/components/security/mbedtls/mbedtls-2.6.0/library\rsa.c ****  */
 104:C:/Users/lenovo/Desktop/liteos/Project2/BearPi_LiteOS/components/security/mbedtls/mbedtls-2.6.0/library\rsa.c **** int mbedtls_rsa_gen_key( mbedtls_rsa_context *ctx,
 105:C:/Users/lenovo/Desktop/liteos/Project2/BearPi_LiteOS/components/security/mbedtls/mbedtls-2.6.0/library\rsa.c ****                  int (*f_rng)(void *, unsigned char *, size_t),
 106:C:/Users/lenovo/Desktop/liteos/Project2/BearPi_LiteOS/components/security/mbedtls/mbedtls-2.6.0/library\rsa.c ****                  void *p_rng,
 107:C:/Users/lenovo/Desktop/liteos/Project2/BearPi_LiteOS/components/security/mbedtls/mbedtls-2.6.0/library\rsa.c ****                  unsigned int nbits, int exponent )
 108:C:/Users/lenovo/Desktop/liteos/Project2/BearPi_LiteOS/components/security/mbedtls/mbedtls-2.6.0/library\rsa.c **** {
 109:C:/Users/lenovo/Desktop/liteos/Project2/BearPi_LiteOS/components/security/mbedtls/mbedtls-2.6.0/library\rsa.c ****     int ret;
 110:C:/Users/lenovo/Desktop/liteos/Project2/BearPi_LiteOS/components/security/mbedtls/mbedtls-2.6.0/library\rsa.c ****     mbedtls_mpi P1, Q1, H, G;
 111:C:/Users/lenovo/Desktop/liteos/Project2/BearPi_LiteOS/components/security/mbedtls/mbedtls-2.6.0/library\rsa.c **** 
ARM GAS  c:\Users\lenovo\AppData\Local\Temp\ccVehGBj.s 			page 4


 112:C:/Users/lenovo/Desktop/liteos/Project2/BearPi_LiteOS/components/security/mbedtls/mbedtls-2.6.0/library\rsa.c ****     if( f_rng == NULL || nbits < 128 || exponent < 3 )
 113:C:/Users/lenovo/Desktop/liteos/Project2/BearPi_LiteOS/components/security/mbedtls/mbedtls-2.6.0/library\rsa.c ****         return( MBEDTLS_ERR_RSA_BAD_INPUT_DATA );
 114:C:/Users/lenovo/Desktop/liteos/Project2/BearPi_LiteOS/components/security/mbedtls/mbedtls-2.6.0/library\rsa.c **** 
 115:C:/Users/lenovo/Desktop/liteos/Project2/BearPi_LiteOS/components/security/mbedtls/mbedtls-2.6.0/library\rsa.c ****     if( nbits % 2 )
 116:C:/Users/lenovo/Desktop/liteos/Project2/BearPi_LiteOS/components/security/mbedtls/mbedtls-2.6.0/library\rsa.c ****         return( MBEDTLS_ERR_RSA_BAD_INPUT_DATA );
 117:C:/Users/lenovo/Desktop/liteos/Project2/BearPi_LiteOS/components/security/mbedtls/mbedtls-2.6.0/library\rsa.c **** 
 118:C:/Users/lenovo/Desktop/liteos/Project2/BearPi_LiteOS/components/security/mbedtls/mbedtls-2.6.0/library\rsa.c ****     mbedtls_mpi_init( &P1 ); mbedtls_mpi_init( &Q1 );
 119:C:/Users/lenovo/Desktop/liteos/Project2/BearPi_LiteOS/components/security/mbedtls/mbedtls-2.6.0/library\rsa.c ****     mbedtls_mpi_init( &H ); mbedtls_mpi_init( &G );
 120:C:/Users/lenovo/Desktop/liteos/Project2/BearPi_LiteOS/components/security/mbedtls/mbedtls-2.6.0/library\rsa.c **** 
 121:C:/Users/lenovo/Desktop/liteos/Project2/BearPi_LiteOS/components/security/mbedtls/mbedtls-2.6.0/library\rsa.c ****     /*
 122:C:/Users/lenovo/Desktop/liteos/Project2/BearPi_LiteOS/components/security/mbedtls/mbedtls-2.6.0/library\rsa.c ****      * find primes P and Q with Q < P so that:
 123:C:/Users/lenovo/Desktop/liteos/Project2/BearPi_LiteOS/components/security/mbedtls/mbedtls-2.6.0/library\rsa.c ****      * GCD( E, (P-1)*(Q-1) ) == 1
 124:C:/Users/lenovo/Desktop/liteos/Project2/BearPi_LiteOS/components/security/mbedtls/mbedtls-2.6.0/library\rsa.c ****      */
 125:C:/Users/lenovo/Desktop/liteos/Project2/BearPi_LiteOS/components/security/mbedtls/mbedtls-2.6.0/library\rsa.c ****     MBEDTLS_MPI_CHK( mbedtls_mpi_lset( &ctx->E, exponent ) );
 126:C:/Users/lenovo/Desktop/liteos/Project2/BearPi_LiteOS/components/security/mbedtls/mbedtls-2.6.0/library\rsa.c **** 
 127:C:/Users/lenovo/Desktop/liteos/Project2/BearPi_LiteOS/components/security/mbedtls/mbedtls-2.6.0/library\rsa.c ****     do
 128:C:/Users/lenovo/Desktop/liteos/Project2/BearPi_LiteOS/components/security/mbedtls/mbedtls-2.6.0/library\rsa.c ****     {
 129:C:/Users/lenovo/Desktop/liteos/Project2/BearPi_LiteOS/components/security/mbedtls/mbedtls-2.6.0/library\rsa.c ****         MBEDTLS_MPI_CHK( mbedtls_mpi_gen_prime( &ctx->P, nbits >> 1, 0,
 130:C:/Users/lenovo/Desktop/liteos/Project2/BearPi_LiteOS/components/security/mbedtls/mbedtls-2.6.0/library\rsa.c ****                                 f_rng, p_rng ) );
 131:C:/Users/lenovo/Desktop/liteos/Project2/BearPi_LiteOS/components/security/mbedtls/mbedtls-2.6.0/library\rsa.c **** 
 132:C:/Users/lenovo/Desktop/liteos/Project2/BearPi_LiteOS/components/security/mbedtls/mbedtls-2.6.0/library\rsa.c ****         MBEDTLS_MPI_CHK( mbedtls_mpi_gen_prime( &ctx->Q, nbits >> 1, 0,
 133:C:/Users/lenovo/Desktop/liteos/Project2/BearPi_LiteOS/components/security/mbedtls/mbedtls-2.6.0/library\rsa.c ****                                 f_rng, p_rng ) );
 134:C:/Users/lenovo/Desktop/liteos/Project2/BearPi_LiteOS/components/security/mbedtls/mbedtls-2.6.0/library\rsa.c **** 
 135:C:/Users/lenovo/Desktop/liteos/Project2/BearPi_LiteOS/components/security/mbedtls/mbedtls-2.6.0/library\rsa.c ****         if( mbedtls_mpi_cmp_mpi( &ctx->P, &ctx->Q ) == 0 )
 136:C:/Users/lenovo/Desktop/liteos/Project2/BearPi_LiteOS/components/security/mbedtls/mbedtls-2.6.0/library\rsa.c ****             continue;
 137:C:/Users/lenovo/Desktop/liteos/Project2/BearPi_LiteOS/components/security/mbedtls/mbedtls-2.6.0/library\rsa.c **** 
 138:C:/Users/lenovo/Desktop/liteos/Project2/BearPi_LiteOS/components/security/mbedtls/mbedtls-2.6.0/library\rsa.c ****         MBEDTLS_MPI_CHK( mbedtls_mpi_mul_mpi( &ctx->N, &ctx->P, &ctx->Q ) );
 139:C:/Users/lenovo/Desktop/liteos/Project2/BearPi_LiteOS/components/security/mbedtls/mbedtls-2.6.0/library\rsa.c ****         if( mbedtls_mpi_bitlen( &ctx->N ) != nbits )
 140:C:/Users/lenovo/Desktop/liteos/Project2/BearPi_LiteOS/components/security/mbedtls/mbedtls-2.6.0/library\rsa.c ****             continue;
 141:C:/Users/lenovo/Desktop/liteos/Project2/BearPi_LiteOS/components/security/mbedtls/mbedtls-2.6.0/library\rsa.c **** 
 142:C:/Users/lenovo/Desktop/liteos/Project2/BearPi_LiteOS/components/security/mbedtls/mbedtls-2.6.0/library\rsa.c ****         if( mbedtls_mpi_cmp_mpi( &ctx->P, &ctx->Q ) < 0 )
 143:C:/Users/lenovo/Desktop/liteos/Project2/BearPi_LiteOS/components/security/mbedtls/mbedtls-2.6.0/library\rsa.c ****                                 mbedtls_mpi_swap( &ctx->P, &ctx->Q );
 144:C:/Users/lenovo/Desktop/liteos/Project2/BearPi_LiteOS/components/security/mbedtls/mbedtls-2.6.0/library\rsa.c **** 
 145:C:/Users/lenovo/Desktop/liteos/Project2/BearPi_LiteOS/components/security/mbedtls/mbedtls-2.6.0/library\rsa.c ****         MBEDTLS_MPI_CHK( mbedtls_mpi_sub_int( &P1, &ctx->P, 1 ) );
 146:C:/Users/lenovo/Desktop/liteos/Project2/BearPi_LiteOS/components/security/mbedtls/mbedtls-2.6.0/library\rsa.c ****         MBEDTLS_MPI_CHK( mbedtls_mpi_sub_int( &Q1, &ctx->Q, 1 ) );
 147:C:/Users/lenovo/Desktop/liteos/Project2/BearPi_LiteOS/components/security/mbedtls/mbedtls-2.6.0/library\rsa.c ****         MBEDTLS_MPI_CHK( mbedtls_mpi_mul_mpi( &H, &P1, &Q1 ) );
 148:C:/Users/lenovo/Desktop/liteos/Project2/BearPi_LiteOS/components/security/mbedtls/mbedtls-2.6.0/library\rsa.c ****         MBEDTLS_MPI_CHK( mbedtls_mpi_gcd( &G, &ctx->E, &H  ) );
 149:C:/Users/lenovo/Desktop/liteos/Project2/BearPi_LiteOS/components/security/mbedtls/mbedtls-2.6.0/library\rsa.c ****     }
 150:C:/Users/lenovo/Desktop/liteos/Project2/BearPi_LiteOS/components/security/mbedtls/mbedtls-2.6.0/library\rsa.c ****     while( mbedtls_mpi_cmp_int( &G, 1 ) != 0 );
 151:C:/Users/lenovo/Desktop/liteos/Project2/BearPi_LiteOS/components/security/mbedtls/mbedtls-2.6.0/library\rsa.c **** 
 152:C:/Users/lenovo/Desktop/liteos/Project2/BearPi_LiteOS/components/security/mbedtls/mbedtls-2.6.0/library\rsa.c ****     /*
 153:C:/Users/lenovo/Desktop/liteos/Project2/BearPi_LiteOS/components/security/mbedtls/mbedtls-2.6.0/library\rsa.c ****      * D  = E^-1 mod ((P-1)*(Q-1))
 154:C:/Users/lenovo/Desktop/liteos/Project2/BearPi_LiteOS/components/security/mbedtls/mbedtls-2.6.0/library\rsa.c ****      * DP = D mod (P - 1)
 155:C:/Users/lenovo/Desktop/liteos/Project2/BearPi_LiteOS/components/security/mbedtls/mbedtls-2.6.0/library\rsa.c ****      * DQ = D mod (Q - 1)
 156:C:/Users/lenovo/Desktop/liteos/Project2/BearPi_LiteOS/components/security/mbedtls/mbedtls-2.6.0/library\rsa.c ****      * QP = Q^-1 mod P
 157:C:/Users/lenovo/Desktop/liteos/Project2/BearPi_LiteOS/components/security/mbedtls/mbedtls-2.6.0/library\rsa.c ****      */
 158:C:/Users/lenovo/Desktop/liteos/Project2/BearPi_LiteOS/components/security/mbedtls/mbedtls-2.6.0/library\rsa.c ****     MBEDTLS_MPI_CHK( mbedtls_mpi_inv_mod( &ctx->D , &ctx->E, &H  ) );
 159:C:/Users/lenovo/Desktop/liteos/Project2/BearPi_LiteOS/components/security/mbedtls/mbedtls-2.6.0/library\rsa.c ****     MBEDTLS_MPI_CHK( mbedtls_mpi_mod_mpi( &ctx->DP, &ctx->D, &P1 ) );
 160:C:/Users/lenovo/Desktop/liteos/Project2/BearPi_LiteOS/components/security/mbedtls/mbedtls-2.6.0/library\rsa.c ****     MBEDTLS_MPI_CHK( mbedtls_mpi_mod_mpi( &ctx->DQ, &ctx->D, &Q1 ) );
 161:C:/Users/lenovo/Desktop/liteos/Project2/BearPi_LiteOS/components/security/mbedtls/mbedtls-2.6.0/library\rsa.c ****     MBEDTLS_MPI_CHK( mbedtls_mpi_inv_mod( &ctx->QP, &ctx->Q, &ctx->P ) );
 162:C:/Users/lenovo/Desktop/liteos/Project2/BearPi_LiteOS/components/security/mbedtls/mbedtls-2.6.0/library\rsa.c **** 
 163:C:/Users/lenovo/Desktop/liteos/Project2/BearPi_LiteOS/components/security/mbedtls/mbedtls-2.6.0/library\rsa.c ****     ctx->len = ( mbedtls_mpi_bitlen( &ctx->N ) + 7 ) >> 3;
 164:C:/Users/lenovo/Desktop/liteos/Project2/BearPi_LiteOS/components/security/mbedtls/mbedtls-2.6.0/library\rsa.c **** 
 165:C:/Users/lenovo/Desktop/liteos/Project2/BearPi_LiteOS/components/security/mbedtls/mbedtls-2.6.0/library\rsa.c **** cleanup:
 166:C:/Users/lenovo/Desktop/liteos/Project2/BearPi_LiteOS/components/security/mbedtls/mbedtls-2.6.0/library\rsa.c **** 
 167:C:/Users/lenovo/Desktop/liteos/Project2/BearPi_LiteOS/components/security/mbedtls/mbedtls-2.6.0/library\rsa.c ****     mbedtls_mpi_free( &P1 ); mbedtls_mpi_free( &Q1 ); mbedtls_mpi_free( &H ); mbedtls_mpi_free( &G 
 168:C:/Users/lenovo/Desktop/liteos/Project2/BearPi_LiteOS/components/security/mbedtls/mbedtls-2.6.0/library\rsa.c **** 
ARM GAS  c:\Users\lenovo\AppData\Local\Temp\ccVehGBj.s 			page 5


 169:C:/Users/lenovo/Desktop/liteos/Project2/BearPi_LiteOS/components/security/mbedtls/mbedtls-2.6.0/library\rsa.c ****     if( ret != 0 )
 170:C:/Users/lenovo/Desktop/liteos/Project2/BearPi_LiteOS/components/security/mbedtls/mbedtls-2.6.0/library\rsa.c ****     {
 171:C:/Users/lenovo/Desktop/liteos/Project2/BearPi_LiteOS/components/security/mbedtls/mbedtls-2.6.0/library\rsa.c ****         mbedtls_rsa_free( ctx );
 172:C:/Users/lenovo/Desktop/liteos/Project2/BearPi_LiteOS/components/security/mbedtls/mbedtls-2.6.0/library\rsa.c ****         return( MBEDTLS_ERR_RSA_KEY_GEN_FAILED + ret );
 173:C:/Users/lenovo/Desktop/liteos/Project2/BearPi_LiteOS/components/security/mbedtls/mbedtls-2.6.0/library\rsa.c ****     }
 174:C:/Users/lenovo/Desktop/liteos/Project2/BearPi_LiteOS/components/security/mbedtls/mbedtls-2.6.0/library\rsa.c **** 
 175:C:/Users/lenovo/Desktop/liteos/Project2/BearPi_LiteOS/components/security/mbedtls/mbedtls-2.6.0/library\rsa.c ****     return( 0 );
 176:C:/Users/lenovo/Desktop/liteos/Project2/BearPi_LiteOS/components/security/mbedtls/mbedtls-2.6.0/library\rsa.c **** }
 177:C:/Users/lenovo/Desktop/liteos/Project2/BearPi_LiteOS/components/security/mbedtls/mbedtls-2.6.0/library\rsa.c **** 
 178:C:/Users/lenovo/Desktop/liteos/Project2/BearPi_LiteOS/components/security/mbedtls/mbedtls-2.6.0/library\rsa.c **** #endif /* MBEDTLS_GENPRIME */
 179:C:/Users/lenovo/Desktop/liteos/Project2/BearPi_LiteOS/components/security/mbedtls/mbedtls-2.6.0/library\rsa.c **** 
 180:C:/Users/lenovo/Desktop/liteos/Project2/BearPi_LiteOS/components/security/mbedtls/mbedtls-2.6.0/library\rsa.c **** /*
 181:C:/Users/lenovo/Desktop/liteos/Project2/BearPi_LiteOS/components/security/mbedtls/mbedtls-2.6.0/library\rsa.c ****  * Check a public RSA key
 182:C:/Users/lenovo/Desktop/liteos/Project2/BearPi_LiteOS/components/security/mbedtls/mbedtls-2.6.0/library\rsa.c ****  */
 183:C:/Users/lenovo/Desktop/liteos/Project2/BearPi_LiteOS/components/security/mbedtls/mbedtls-2.6.0/library\rsa.c **** int mbedtls_rsa_check_pubkey( const mbedtls_rsa_context *ctx )
 184:C:/Users/lenovo/Desktop/liteos/Project2/BearPi_LiteOS/components/security/mbedtls/mbedtls-2.6.0/library\rsa.c **** {
 185:C:/Users/lenovo/Desktop/liteos/Project2/BearPi_LiteOS/components/security/mbedtls/mbedtls-2.6.0/library\rsa.c ****     if( !ctx->N.p || !ctx->E.p )
 186:C:/Users/lenovo/Desktop/liteos/Project2/BearPi_LiteOS/components/security/mbedtls/mbedtls-2.6.0/library\rsa.c ****         return( MBEDTLS_ERR_RSA_KEY_CHECK_FAILED );
 187:C:/Users/lenovo/Desktop/liteos/Project2/BearPi_LiteOS/components/security/mbedtls/mbedtls-2.6.0/library\rsa.c **** 
 188:C:/Users/lenovo/Desktop/liteos/Project2/BearPi_LiteOS/components/security/mbedtls/mbedtls-2.6.0/library\rsa.c ****     if( ( ctx->N.p[0] & 1 ) == 0 ||
 189:C:/Users/lenovo/Desktop/liteos/Project2/BearPi_LiteOS/components/security/mbedtls/mbedtls-2.6.0/library\rsa.c ****         ( ctx->E.p[0] & 1 ) == 0 )
 190:C:/Users/lenovo/Desktop/liteos/Project2/BearPi_LiteOS/components/security/mbedtls/mbedtls-2.6.0/library\rsa.c ****         return( MBEDTLS_ERR_RSA_KEY_CHECK_FAILED );
 191:C:/Users/lenovo/Desktop/liteos/Project2/BearPi_LiteOS/components/security/mbedtls/mbedtls-2.6.0/library\rsa.c **** 
 192:C:/Users/lenovo/Desktop/liteos/Project2/BearPi_LiteOS/components/security/mbedtls/mbedtls-2.6.0/library\rsa.c ****     if( mbedtls_mpi_bitlen( &ctx->N ) < 128 ||
 193:C:/Users/lenovo/Desktop/liteos/Project2/BearPi_LiteOS/components/security/mbedtls/mbedtls-2.6.0/library\rsa.c ****         mbedtls_mpi_bitlen( &ctx->N ) > MBEDTLS_MPI_MAX_BITS )
 194:C:/Users/lenovo/Desktop/liteos/Project2/BearPi_LiteOS/components/security/mbedtls/mbedtls-2.6.0/library\rsa.c ****         return( MBEDTLS_ERR_RSA_KEY_CHECK_FAILED );
 195:C:/Users/lenovo/Desktop/liteos/Project2/BearPi_LiteOS/components/security/mbedtls/mbedtls-2.6.0/library\rsa.c **** 
 196:C:/Users/lenovo/Desktop/liteos/Project2/BearPi_LiteOS/components/security/mbedtls/mbedtls-2.6.0/library\rsa.c ****     if( mbedtls_mpi_bitlen( &ctx->E ) < 2 ||
 197:C:/Users/lenovo/Desktop/liteos/Project2/BearPi_LiteOS/components/security/mbedtls/mbedtls-2.6.0/library\rsa.c ****         mbedtls_mpi_cmp_mpi( &ctx->E, &ctx->N ) >= 0 )
 198:C:/Users/lenovo/Desktop/liteos/Project2/BearPi_LiteOS/components/security/mbedtls/mbedtls-2.6.0/library\rsa.c ****         return( MBEDTLS_ERR_RSA_KEY_CHECK_FAILED );
 199:C:/Users/lenovo/Desktop/liteos/Project2/BearPi_LiteOS/components/security/mbedtls/mbedtls-2.6.0/library\rsa.c **** 
 200:C:/Users/lenovo/Desktop/liteos/Project2/BearPi_LiteOS/components/security/mbedtls/mbedtls-2.6.0/library\rsa.c ****     return( 0 );
 201:C:/Users/lenovo/Desktop/liteos/Project2/BearPi_LiteOS/components/security/mbedtls/mbedtls-2.6.0/library\rsa.c **** }
 202:C:/Users/lenovo/Desktop/liteos/Project2/BearPi_LiteOS/components/security/mbedtls/mbedtls-2.6.0/library\rsa.c **** 
 203:C:/Users/lenovo/Desktop/liteos/Project2/BearPi_LiteOS/components/security/mbedtls/mbedtls-2.6.0/library\rsa.c **** /*
 204:C:/Users/lenovo/Desktop/liteos/Project2/BearPi_LiteOS/components/security/mbedtls/mbedtls-2.6.0/library\rsa.c ****  * Check a private RSA key
 205:C:/Users/lenovo/Desktop/liteos/Project2/BearPi_LiteOS/components/security/mbedtls/mbedtls-2.6.0/library\rsa.c ****  */
 206:C:/Users/lenovo/Desktop/liteos/Project2/BearPi_LiteOS/components/security/mbedtls/mbedtls-2.6.0/library\rsa.c **** int mbedtls_rsa_check_privkey( const mbedtls_rsa_context *ctx )
 207:C:/Users/lenovo/Desktop/liteos/Project2/BearPi_LiteOS/components/security/mbedtls/mbedtls-2.6.0/library\rsa.c **** {
 208:C:/Users/lenovo/Desktop/liteos/Project2/BearPi_LiteOS/components/security/mbedtls/mbedtls-2.6.0/library\rsa.c ****     int ret;
 209:C:/Users/lenovo/Desktop/liteos/Project2/BearPi_LiteOS/components/security/mbedtls/mbedtls-2.6.0/library\rsa.c ****     mbedtls_mpi PQ, DE, P1, Q1, H, I, G, G2, L1, L2, DP, DQ, QP;
 210:C:/Users/lenovo/Desktop/liteos/Project2/BearPi_LiteOS/components/security/mbedtls/mbedtls-2.6.0/library\rsa.c **** 
 211:C:/Users/lenovo/Desktop/liteos/Project2/BearPi_LiteOS/components/security/mbedtls/mbedtls-2.6.0/library\rsa.c ****     if( ( ret = mbedtls_rsa_check_pubkey( ctx ) ) != 0 )
 212:C:/Users/lenovo/Desktop/liteos/Project2/BearPi_LiteOS/components/security/mbedtls/mbedtls-2.6.0/library\rsa.c ****         return( ret );
 213:C:/Users/lenovo/Desktop/liteos/Project2/BearPi_LiteOS/components/security/mbedtls/mbedtls-2.6.0/library\rsa.c **** 
 214:C:/Users/lenovo/Desktop/liteos/Project2/BearPi_LiteOS/components/security/mbedtls/mbedtls-2.6.0/library\rsa.c ****     if( !ctx->P.p || !ctx->Q.p || !ctx->D.p )
 215:C:/Users/lenovo/Desktop/liteos/Project2/BearPi_LiteOS/components/security/mbedtls/mbedtls-2.6.0/library\rsa.c ****         return( MBEDTLS_ERR_RSA_KEY_CHECK_FAILED );
 216:C:/Users/lenovo/Desktop/liteos/Project2/BearPi_LiteOS/components/security/mbedtls/mbedtls-2.6.0/library\rsa.c **** 
 217:C:/Users/lenovo/Desktop/liteos/Project2/BearPi_LiteOS/components/security/mbedtls/mbedtls-2.6.0/library\rsa.c ****     mbedtls_mpi_init( &PQ ); mbedtls_mpi_init( &DE ); mbedtls_mpi_init( &P1 ); mbedtls_mpi_init( &Q
 218:C:/Users/lenovo/Desktop/liteos/Project2/BearPi_LiteOS/components/security/mbedtls/mbedtls-2.6.0/library\rsa.c ****     mbedtls_mpi_init( &H  ); mbedtls_mpi_init( &I  ); mbedtls_mpi_init( &G  ); mbedtls_mpi_init( &G
 219:C:/Users/lenovo/Desktop/liteos/Project2/BearPi_LiteOS/components/security/mbedtls/mbedtls-2.6.0/library\rsa.c ****     mbedtls_mpi_init( &L1 ); mbedtls_mpi_init( &L2 ); mbedtls_mpi_init( &DP ); mbedtls_mpi_init( &D
 220:C:/Users/lenovo/Desktop/liteos/Project2/BearPi_LiteOS/components/security/mbedtls/mbedtls-2.6.0/library\rsa.c ****     mbedtls_mpi_init( &QP );
 221:C:/Users/lenovo/Desktop/liteos/Project2/BearPi_LiteOS/components/security/mbedtls/mbedtls-2.6.0/library\rsa.c **** 
 222:C:/Users/lenovo/Desktop/liteos/Project2/BearPi_LiteOS/components/security/mbedtls/mbedtls-2.6.0/library\rsa.c ****     MBEDTLS_MPI_CHK( mbedtls_mpi_mul_mpi( &PQ, &ctx->P, &ctx->Q ) );
 223:C:/Users/lenovo/Desktop/liteos/Project2/BearPi_LiteOS/components/security/mbedtls/mbedtls-2.6.0/library\rsa.c ****     MBEDTLS_MPI_CHK( mbedtls_mpi_mul_mpi( &DE, &ctx->D, &ctx->E ) );
 224:C:/Users/lenovo/Desktop/liteos/Project2/BearPi_LiteOS/components/security/mbedtls/mbedtls-2.6.0/library\rsa.c ****     MBEDTLS_MPI_CHK( mbedtls_mpi_sub_int( &P1, &ctx->P, 1 ) );
 225:C:/Users/lenovo/Desktop/liteos/Project2/BearPi_LiteOS/components/security/mbedtls/mbedtls-2.6.0/library\rsa.c ****     MBEDTLS_MPI_CHK( mbedtls_mpi_sub_int( &Q1, &ctx->Q, 1 ) );
ARM GAS  c:\Users\lenovo\AppData\Local\Temp\ccVehGBj.s 			page 6


 226:C:/Users/lenovo/Desktop/liteos/Project2/BearPi_LiteOS/components/security/mbedtls/mbedtls-2.6.0/library\rsa.c ****     MBEDTLS_MPI_CHK( mbedtls_mpi_mul_mpi( &H, &P1, &Q1 ) );
 227:C:/Users/lenovo/Desktop/liteos/Project2/BearPi_LiteOS/components/security/mbedtls/mbedtls-2.6.0/library\rsa.c ****     MBEDTLS_MPI_CHK( mbedtls_mpi_gcd( &G, &ctx->E, &H  ) );
 228:C:/Users/lenovo/Desktop/liteos/Project2/BearPi_LiteOS/components/security/mbedtls/mbedtls-2.6.0/library\rsa.c **** 
 229:C:/Users/lenovo/Desktop/liteos/Project2/BearPi_LiteOS/components/security/mbedtls/mbedtls-2.6.0/library\rsa.c ****     MBEDTLS_MPI_CHK( mbedtls_mpi_gcd( &G2, &P1, &Q1 ) );
 230:C:/Users/lenovo/Desktop/liteos/Project2/BearPi_LiteOS/components/security/mbedtls/mbedtls-2.6.0/library\rsa.c ****     MBEDTLS_MPI_CHK( mbedtls_mpi_div_mpi( &L1, &L2, &H, &G2 ) );
 231:C:/Users/lenovo/Desktop/liteos/Project2/BearPi_LiteOS/components/security/mbedtls/mbedtls-2.6.0/library\rsa.c ****     MBEDTLS_MPI_CHK( mbedtls_mpi_mod_mpi( &I, &DE, &L1  ) );
 232:C:/Users/lenovo/Desktop/liteos/Project2/BearPi_LiteOS/components/security/mbedtls/mbedtls-2.6.0/library\rsa.c **** 
 233:C:/Users/lenovo/Desktop/liteos/Project2/BearPi_LiteOS/components/security/mbedtls/mbedtls-2.6.0/library\rsa.c ****     MBEDTLS_MPI_CHK( mbedtls_mpi_mod_mpi( &DP, &ctx->D, &P1 ) );
 234:C:/Users/lenovo/Desktop/liteos/Project2/BearPi_LiteOS/components/security/mbedtls/mbedtls-2.6.0/library\rsa.c ****     MBEDTLS_MPI_CHK( mbedtls_mpi_mod_mpi( &DQ, &ctx->D, &Q1 ) );
 235:C:/Users/lenovo/Desktop/liteos/Project2/BearPi_LiteOS/components/security/mbedtls/mbedtls-2.6.0/library\rsa.c ****     MBEDTLS_MPI_CHK( mbedtls_mpi_inv_mod( &QP, &ctx->Q, &ctx->P ) );
 236:C:/Users/lenovo/Desktop/liteos/Project2/BearPi_LiteOS/components/security/mbedtls/mbedtls-2.6.0/library\rsa.c ****     /*
 237:C:/Users/lenovo/Desktop/liteos/Project2/BearPi_LiteOS/components/security/mbedtls/mbedtls-2.6.0/library\rsa.c ****      * Check for a valid PKCS1v2 private key
 238:C:/Users/lenovo/Desktop/liteos/Project2/BearPi_LiteOS/components/security/mbedtls/mbedtls-2.6.0/library\rsa.c ****      */
 239:C:/Users/lenovo/Desktop/liteos/Project2/BearPi_LiteOS/components/security/mbedtls/mbedtls-2.6.0/library\rsa.c ****     if( mbedtls_mpi_cmp_mpi( &PQ, &ctx->N ) != 0 ||
 240:C:/Users/lenovo/Desktop/liteos/Project2/BearPi_LiteOS/components/security/mbedtls/mbedtls-2.6.0/library\rsa.c ****         mbedtls_mpi_cmp_mpi( &DP, &ctx->DP ) != 0 ||
 241:C:/Users/lenovo/Desktop/liteos/Project2/BearPi_LiteOS/components/security/mbedtls/mbedtls-2.6.0/library\rsa.c ****         mbedtls_mpi_cmp_mpi( &DQ, &ctx->DQ ) != 0 ||
 242:C:/Users/lenovo/Desktop/liteos/Project2/BearPi_LiteOS/components/security/mbedtls/mbedtls-2.6.0/library\rsa.c ****         mbedtls_mpi_cmp_mpi( &QP, &ctx->QP ) != 0 ||
 243:C:/Users/lenovo/Desktop/liteos/Project2/BearPi_LiteOS/components/security/mbedtls/mbedtls-2.6.0/library\rsa.c ****         mbedtls_mpi_cmp_int( &L2, 0 ) != 0 ||
 244:C:/Users/lenovo/Desktop/liteos/Project2/BearPi_LiteOS/components/security/mbedtls/mbedtls-2.6.0/library\rsa.c ****         mbedtls_mpi_cmp_int( &I, 1 ) != 0 ||
 245:C:/Users/lenovo/Desktop/liteos/Project2/BearPi_LiteOS/components/security/mbedtls/mbedtls-2.6.0/library\rsa.c ****         mbedtls_mpi_cmp_int( &G, 1 ) != 0 )
 246:C:/Users/lenovo/Desktop/liteos/Project2/BearPi_LiteOS/components/security/mbedtls/mbedtls-2.6.0/library\rsa.c ****     {
 247:C:/Users/lenovo/Desktop/liteos/Project2/BearPi_LiteOS/components/security/mbedtls/mbedtls-2.6.0/library\rsa.c ****         ret = MBEDTLS_ERR_RSA_KEY_CHECK_FAILED;
 248:C:/Users/lenovo/Desktop/liteos/Project2/BearPi_LiteOS/components/security/mbedtls/mbedtls-2.6.0/library\rsa.c ****     }
 249:C:/Users/lenovo/Desktop/liteos/Project2/BearPi_LiteOS/components/security/mbedtls/mbedtls-2.6.0/library\rsa.c **** 
 250:C:/Users/lenovo/Desktop/liteos/Project2/BearPi_LiteOS/components/security/mbedtls/mbedtls-2.6.0/library\rsa.c **** cleanup:
 251:C:/Users/lenovo/Desktop/liteos/Project2/BearPi_LiteOS/components/security/mbedtls/mbedtls-2.6.0/library\rsa.c ****     mbedtls_mpi_free( &PQ ); mbedtls_mpi_free( &DE ); mbedtls_mpi_free( &P1 ); mbedtls_mpi_free( &Q
 252:C:/Users/lenovo/Desktop/liteos/Project2/BearPi_LiteOS/components/security/mbedtls/mbedtls-2.6.0/library\rsa.c ****     mbedtls_mpi_free( &H  ); mbedtls_mpi_free( &I  ); mbedtls_mpi_free( &G  ); mbedtls_mpi_free( &G
 253:C:/Users/lenovo/Desktop/liteos/Project2/BearPi_LiteOS/components/security/mbedtls/mbedtls-2.6.0/library\rsa.c ****     mbedtls_mpi_free( &L1 ); mbedtls_mpi_free( &L2 ); mbedtls_mpi_free( &DP ); mbedtls_mpi_free( &D
 254:C:/Users/lenovo/Desktop/liteos/Project2/BearPi_LiteOS/components/security/mbedtls/mbedtls-2.6.0/library\rsa.c ****     mbedtls_mpi_free( &QP );
 255:C:/Users/lenovo/Desktop/liteos/Project2/BearPi_LiteOS/components/security/mbedtls/mbedtls-2.6.0/library\rsa.c **** 
 256:C:/Users/lenovo/Desktop/liteos/Project2/BearPi_LiteOS/components/security/mbedtls/mbedtls-2.6.0/library\rsa.c ****     if( ret == MBEDTLS_ERR_RSA_KEY_CHECK_FAILED )
 257:C:/Users/lenovo/Desktop/liteos/Project2/BearPi_LiteOS/components/security/mbedtls/mbedtls-2.6.0/library\rsa.c ****         return( ret );
 258:C:/Users/lenovo/Desktop/liteos/Project2/BearPi_LiteOS/components/security/mbedtls/mbedtls-2.6.0/library\rsa.c **** 
 259:C:/Users/lenovo/Desktop/liteos/Project2/BearPi_LiteOS/components/security/mbedtls/mbedtls-2.6.0/library\rsa.c ****     if( ret != 0 )
 260:C:/Users/lenovo/Desktop/liteos/Project2/BearPi_LiteOS/components/security/mbedtls/mbedtls-2.6.0/library\rsa.c ****         return( MBEDTLS_ERR_RSA_KEY_CHECK_FAILED + ret );
 261:C:/Users/lenovo/Desktop/liteos/Project2/BearPi_LiteOS/components/security/mbedtls/mbedtls-2.6.0/library\rsa.c **** 
 262:C:/Users/lenovo/Desktop/liteos/Project2/BearPi_LiteOS/components/security/mbedtls/mbedtls-2.6.0/library\rsa.c ****     return( 0 );
 263:C:/Users/lenovo/Desktop/liteos/Project2/BearPi_LiteOS/components/security/mbedtls/mbedtls-2.6.0/library\rsa.c **** }
 264:C:/Users/lenovo/Desktop/liteos/Project2/BearPi_LiteOS/components/security/mbedtls/mbedtls-2.6.0/library\rsa.c **** 
 265:C:/Users/lenovo/Desktop/liteos/Project2/BearPi_LiteOS/components/security/mbedtls/mbedtls-2.6.0/library\rsa.c **** /*
 266:C:/Users/lenovo/Desktop/liteos/Project2/BearPi_LiteOS/components/security/mbedtls/mbedtls-2.6.0/library\rsa.c ****  * Check if contexts holding a public and private key match
 267:C:/Users/lenovo/Desktop/liteos/Project2/BearPi_LiteOS/components/security/mbedtls/mbedtls-2.6.0/library\rsa.c ****  */
 268:C:/Users/lenovo/Desktop/liteos/Project2/BearPi_LiteOS/components/security/mbedtls/mbedtls-2.6.0/library\rsa.c **** int mbedtls_rsa_check_pub_priv( const mbedtls_rsa_context *pub, const mbedtls_rsa_context *prv )
 269:C:/Users/lenovo/Desktop/liteos/Project2/BearPi_LiteOS/components/security/mbedtls/mbedtls-2.6.0/library\rsa.c **** {
 270:C:/Users/lenovo/Desktop/liteos/Project2/BearPi_LiteOS/components/security/mbedtls/mbedtls-2.6.0/library\rsa.c ****     if( mbedtls_rsa_check_pubkey( pub ) != 0 ||
 271:C:/Users/lenovo/Desktop/liteos/Project2/BearPi_LiteOS/components/security/mbedtls/mbedtls-2.6.0/library\rsa.c ****         mbedtls_rsa_check_privkey( prv ) != 0 )
 272:C:/Users/lenovo/Desktop/liteos/Project2/BearPi_LiteOS/components/security/mbedtls/mbedtls-2.6.0/library\rsa.c ****     {
 273:C:/Users/lenovo/Desktop/liteos/Project2/BearPi_LiteOS/components/security/mbedtls/mbedtls-2.6.0/library\rsa.c ****         return( MBEDTLS_ERR_RSA_KEY_CHECK_FAILED );
 274:C:/Users/lenovo/Desktop/liteos/Project2/BearPi_LiteOS/components/security/mbedtls/mbedtls-2.6.0/library\rsa.c ****     }
 275:C:/Users/lenovo/Desktop/liteos/Project2/BearPi_LiteOS/components/security/mbedtls/mbedtls-2.6.0/library\rsa.c **** 
 276:C:/Users/lenovo/Desktop/liteos/Project2/BearPi_LiteOS/components/security/mbedtls/mbedtls-2.6.0/library\rsa.c ****     if( mbedtls_mpi_cmp_mpi( &pub->N, &prv->N ) != 0 ||
 277:C:/Users/lenovo/Desktop/liteos/Project2/BearPi_LiteOS/components/security/mbedtls/mbedtls-2.6.0/library\rsa.c ****         mbedtls_mpi_cmp_mpi( &pub->E, &prv->E ) != 0 )
 278:C:/Users/lenovo/Desktop/liteos/Project2/BearPi_LiteOS/components/security/mbedtls/mbedtls-2.6.0/library\rsa.c ****     {
 279:C:/Users/lenovo/Desktop/liteos/Project2/BearPi_LiteOS/components/security/mbedtls/mbedtls-2.6.0/library\rsa.c ****         return( MBEDTLS_ERR_RSA_KEY_CHECK_FAILED );
 280:C:/Users/lenovo/Desktop/liteos/Project2/BearPi_LiteOS/components/security/mbedtls/mbedtls-2.6.0/library\rsa.c ****     }
 281:C:/Users/lenovo/Desktop/liteos/Project2/BearPi_LiteOS/components/security/mbedtls/mbedtls-2.6.0/library\rsa.c **** 
 282:C:/Users/lenovo/Desktop/liteos/Project2/BearPi_LiteOS/components/security/mbedtls/mbedtls-2.6.0/library\rsa.c ****     return( 0 );
ARM GAS  c:\Users\lenovo\AppData\Local\Temp\ccVehGBj.s 			page 7


 283:C:/Users/lenovo/Desktop/liteos/Project2/BearPi_LiteOS/components/security/mbedtls/mbedtls-2.6.0/library\rsa.c **** }
 284:C:/Users/lenovo/Desktop/liteos/Project2/BearPi_LiteOS/components/security/mbedtls/mbedtls-2.6.0/library\rsa.c **** 
 285:C:/Users/lenovo/Desktop/liteos/Project2/BearPi_LiteOS/components/security/mbedtls/mbedtls-2.6.0/library\rsa.c **** /*
 286:C:/Users/lenovo/Desktop/liteos/Project2/BearPi_LiteOS/components/security/mbedtls/mbedtls-2.6.0/library\rsa.c ****  * Do an RSA public key operation
 287:C:/Users/lenovo/Desktop/liteos/Project2/BearPi_LiteOS/components/security/mbedtls/mbedtls-2.6.0/library\rsa.c ****  */
 288:C:/Users/lenovo/Desktop/liteos/Project2/BearPi_LiteOS/components/security/mbedtls/mbedtls-2.6.0/library\rsa.c **** int mbedtls_rsa_public( mbedtls_rsa_context *ctx,
 289:C:/Users/lenovo/Desktop/liteos/Project2/BearPi_LiteOS/components/security/mbedtls/mbedtls-2.6.0/library\rsa.c ****                 const unsigned char *input,
 290:C:/Users/lenovo/Desktop/liteos/Project2/BearPi_LiteOS/components/security/mbedtls/mbedtls-2.6.0/library\rsa.c ****                 unsigned char *output )
 291:C:/Users/lenovo/Desktop/liteos/Project2/BearPi_LiteOS/components/security/mbedtls/mbedtls-2.6.0/library\rsa.c **** {
 292:C:/Users/lenovo/Desktop/liteos/Project2/BearPi_LiteOS/components/security/mbedtls/mbedtls-2.6.0/library\rsa.c ****     int ret;
 293:C:/Users/lenovo/Desktop/liteos/Project2/BearPi_LiteOS/components/security/mbedtls/mbedtls-2.6.0/library\rsa.c ****     size_t olen;
 294:C:/Users/lenovo/Desktop/liteos/Project2/BearPi_LiteOS/components/security/mbedtls/mbedtls-2.6.0/library\rsa.c ****     mbedtls_mpi T;
 295:C:/Users/lenovo/Desktop/liteos/Project2/BearPi_LiteOS/components/security/mbedtls/mbedtls-2.6.0/library\rsa.c **** 
 296:C:/Users/lenovo/Desktop/liteos/Project2/BearPi_LiteOS/components/security/mbedtls/mbedtls-2.6.0/library\rsa.c ****     mbedtls_mpi_init( &T );
 297:C:/Users/lenovo/Desktop/liteos/Project2/BearPi_LiteOS/components/security/mbedtls/mbedtls-2.6.0/library\rsa.c **** 
 298:C:/Users/lenovo/Desktop/liteos/Project2/BearPi_LiteOS/components/security/mbedtls/mbedtls-2.6.0/library\rsa.c **** #if defined(MBEDTLS_THREADING_C)
 299:C:/Users/lenovo/Desktop/liteos/Project2/BearPi_LiteOS/components/security/mbedtls/mbedtls-2.6.0/library\rsa.c ****     if( ( ret = mbedtls_mutex_lock( &ctx->mutex ) ) != 0 )
 300:C:/Users/lenovo/Desktop/liteos/Project2/BearPi_LiteOS/components/security/mbedtls/mbedtls-2.6.0/library\rsa.c ****         return( ret );
 301:C:/Users/lenovo/Desktop/liteos/Project2/BearPi_LiteOS/components/security/mbedtls/mbedtls-2.6.0/library\rsa.c **** #endif
 302:C:/Users/lenovo/Desktop/liteos/Project2/BearPi_LiteOS/components/security/mbedtls/mbedtls-2.6.0/library\rsa.c **** 
 303:C:/Users/lenovo/Desktop/liteos/Project2/BearPi_LiteOS/components/security/mbedtls/mbedtls-2.6.0/library\rsa.c ****     MBEDTLS_MPI_CHK( mbedtls_mpi_read_binary( &T, input, ctx->len ) );
 304:C:/Users/lenovo/Desktop/liteos/Project2/BearPi_LiteOS/components/security/mbedtls/mbedtls-2.6.0/library\rsa.c **** 
 305:C:/Users/lenovo/Desktop/liteos/Project2/BearPi_LiteOS/components/security/mbedtls/mbedtls-2.6.0/library\rsa.c ****     if( mbedtls_mpi_cmp_mpi( &T, &ctx->N ) >= 0 )
 306:C:/Users/lenovo/Desktop/liteos/Project2/BearPi_LiteOS/components/security/mbedtls/mbedtls-2.6.0/library\rsa.c ****     {
 307:C:/Users/lenovo/Desktop/liteos/Project2/BearPi_LiteOS/components/security/mbedtls/mbedtls-2.6.0/library\rsa.c ****         ret = MBEDTLS_ERR_MPI_BAD_INPUT_DATA;
 308:C:/Users/lenovo/Desktop/liteos/Project2/BearPi_LiteOS/components/security/mbedtls/mbedtls-2.6.0/library\rsa.c ****         goto cleanup;
 309:C:/Users/lenovo/Desktop/liteos/Project2/BearPi_LiteOS/components/security/mbedtls/mbedtls-2.6.0/library\rsa.c ****     }
 310:C:/Users/lenovo/Desktop/liteos/Project2/BearPi_LiteOS/components/security/mbedtls/mbedtls-2.6.0/library\rsa.c **** 
 311:C:/Users/lenovo/Desktop/liteos/Project2/BearPi_LiteOS/components/security/mbedtls/mbedtls-2.6.0/library\rsa.c ****     olen = ctx->len;
 312:C:/Users/lenovo/Desktop/liteos/Project2/BearPi_LiteOS/components/security/mbedtls/mbedtls-2.6.0/library\rsa.c ****     MBEDTLS_MPI_CHK( mbedtls_mpi_exp_mod( &T, &T, &ctx->E, &ctx->N, &ctx->RN ) );
 313:C:/Users/lenovo/Desktop/liteos/Project2/BearPi_LiteOS/components/security/mbedtls/mbedtls-2.6.0/library\rsa.c ****     MBEDTLS_MPI_CHK( mbedtls_mpi_write_binary( &T, output, olen ) );
 314:C:/Users/lenovo/Desktop/liteos/Project2/BearPi_LiteOS/components/security/mbedtls/mbedtls-2.6.0/library\rsa.c **** 
 315:C:/Users/lenovo/Desktop/liteos/Project2/BearPi_LiteOS/components/security/mbedtls/mbedtls-2.6.0/library\rsa.c **** cleanup:
 316:C:/Users/lenovo/Desktop/liteos/Project2/BearPi_LiteOS/components/security/mbedtls/mbedtls-2.6.0/library\rsa.c **** #if defined(MBEDTLS_THREADING_C)
 317:C:/Users/lenovo/Desktop/liteos/Project2/BearPi_LiteOS/components/security/mbedtls/mbedtls-2.6.0/library\rsa.c ****     if( mbedtls_mutex_unlock( &ctx->mutex ) != 0 )
 318:C:/Users/lenovo/Desktop/liteos/Project2/BearPi_LiteOS/components/security/mbedtls/mbedtls-2.6.0/library\rsa.c ****         return( MBEDTLS_ERR_THREADING_MUTEX_ERROR );
 319:C:/Users/lenovo/Desktop/liteos/Project2/BearPi_LiteOS/components/security/mbedtls/mbedtls-2.6.0/library\rsa.c **** #endif
 320:C:/Users/lenovo/Desktop/liteos/Project2/BearPi_LiteOS/components/security/mbedtls/mbedtls-2.6.0/library\rsa.c **** 
 321:C:/Users/lenovo/Desktop/liteos/Project2/BearPi_LiteOS/components/security/mbedtls/mbedtls-2.6.0/library\rsa.c ****     mbedtls_mpi_free( &T );
 322:C:/Users/lenovo/Desktop/liteos/Project2/BearPi_LiteOS/components/security/mbedtls/mbedtls-2.6.0/library\rsa.c **** 
 323:C:/Users/lenovo/Desktop/liteos/Project2/BearPi_LiteOS/components/security/mbedtls/mbedtls-2.6.0/library\rsa.c ****     if( ret != 0 )
 324:C:/Users/lenovo/Desktop/liteos/Project2/BearPi_LiteOS/components/security/mbedtls/mbedtls-2.6.0/library\rsa.c ****         return( MBEDTLS_ERR_RSA_PUBLIC_FAILED + ret );
 325:C:/Users/lenovo/Desktop/liteos/Project2/BearPi_LiteOS/components/security/mbedtls/mbedtls-2.6.0/library\rsa.c **** 
 326:C:/Users/lenovo/Desktop/liteos/Project2/BearPi_LiteOS/components/security/mbedtls/mbedtls-2.6.0/library\rsa.c ****     return( 0 );
 327:C:/Users/lenovo/Desktop/liteos/Project2/BearPi_LiteOS/components/security/mbedtls/mbedtls-2.6.0/library\rsa.c **** }
 328:C:/Users/lenovo/Desktop/liteos/Project2/BearPi_LiteOS/components/security/mbedtls/mbedtls-2.6.0/library\rsa.c **** 
 329:C:/Users/lenovo/Desktop/liteos/Project2/BearPi_LiteOS/components/security/mbedtls/mbedtls-2.6.0/library\rsa.c **** /*
 330:C:/Users/lenovo/Desktop/liteos/Project2/BearPi_LiteOS/components/security/mbedtls/mbedtls-2.6.0/library\rsa.c ****  * Generate or update blinding values, see section 10 of:
 331:C:/Users/lenovo/Desktop/liteos/Project2/BearPi_LiteOS/components/security/mbedtls/mbedtls-2.6.0/library\rsa.c ****  *  KOCHER, Paul C. Timing attacks on implementations of Diffie-Hellman, RSA,
 332:C:/Users/lenovo/Desktop/liteos/Project2/BearPi_LiteOS/components/security/mbedtls/mbedtls-2.6.0/library\rsa.c ****  *  DSS, and other systems. In : Advances in Cryptology-CRYPTO'96. Springer
 333:C:/Users/lenovo/Desktop/liteos/Project2/BearPi_LiteOS/components/security/mbedtls/mbedtls-2.6.0/library\rsa.c ****  *  Berlin Heidelberg, 1996. p. 104-113.
 334:C:/Users/lenovo/Desktop/liteos/Project2/BearPi_LiteOS/components/security/mbedtls/mbedtls-2.6.0/library\rsa.c ****  */
 335:C:/Users/lenovo/Desktop/liteos/Project2/BearPi_LiteOS/components/security/mbedtls/mbedtls-2.6.0/library\rsa.c **** static int rsa_prepare_blinding( mbedtls_rsa_context *ctx,
 336:C:/Users/lenovo/Desktop/liteos/Project2/BearPi_LiteOS/components/security/mbedtls/mbedtls-2.6.0/library\rsa.c ****                  int (*f_rng)(void *, unsigned char *, size_t), void *p_rng )
 337:C:/Users/lenovo/Desktop/liteos/Project2/BearPi_LiteOS/components/security/mbedtls/mbedtls-2.6.0/library\rsa.c **** {
  64              		.loc 1 337 0
  65              		.cfi_startproc
ARM GAS  c:\Users\lenovo\AppData\Local\Temp\ccVehGBj.s 			page 8


  66              		@ args = 0, pretend = 0, frame = 0
  67              		@ frame_needed = 0, uses_anonymous_args = 0
  68              	.LVL5:
  69 0000 2DE9F047 		push	{r4, r5, r6, r7, r8, r9, r10, lr}
  70              	.LCFI0:
  71              		.cfi_def_cfa_offset 32
  72              		.cfi_offset 4, -32
  73              		.cfi_offset 5, -28
  74              		.cfi_offset 6, -24
  75              		.cfi_offset 7, -20
  76              		.cfi_offset 8, -16
  77              		.cfi_offset 9, -12
  78              		.cfi_offset 10, -8
  79              		.cfi_offset 14, -4
  80 0004 82B0     		sub	sp, sp, #8
  81              	.LCFI1:
  82              		.cfi_def_cfa_offset 40
  83 0006 0446     		mov	r4, r0
  84              	.LVL6:
 338:C:/Users/lenovo/Desktop/liteos/Project2/BearPi_LiteOS/components/security/mbedtls/mbedtls-2.6.0/library\rsa.c ****     int ret, count = 0;
 339:C:/Users/lenovo/Desktop/liteos/Project2/BearPi_LiteOS/components/security/mbedtls/mbedtls-2.6.0/library\rsa.c **** 
 340:C:/Users/lenovo/Desktop/liteos/Project2/BearPi_LiteOS/components/security/mbedtls/mbedtls-2.6.0/library\rsa.c ****     if( ctx->Vf.p != NULL )
  85              		.loc 1 340 0
  86 0008 D0F8A030 		ldr	r3, [r0, #160]
  87 000c 33B3     		cbz	r3, .L7
 341:C:/Users/lenovo/Desktop/liteos/Project2/BearPi_LiteOS/components/security/mbedtls/mbedtls-2.6.0/library\rsa.c ****     {
 342:C:/Users/lenovo/Desktop/liteos/Project2/BearPi_LiteOS/components/security/mbedtls/mbedtls-2.6.0/library\rsa.c ****         /* We already have blinding values, just update them by squaring */
 343:C:/Users/lenovo/Desktop/liteos/Project2/BearPi_LiteOS/components/security/mbedtls/mbedtls-2.6.0/library\rsa.c ****         MBEDTLS_MPI_CHK( mbedtls_mpi_mul_mpi( &ctx->Vi, &ctx->Vi, &ctx->Vi ) );
  88              		.loc 1 343 0
  89 000e 00F18C05 		add	r5, r0, #140
  90 0012 2A46     		mov	r2, r5
  91              	.LVL7:
  92 0014 2946     		mov	r1, r5
  93              	.LVL8:
  94 0016 2846     		mov	r0, r5
  95              	.LVL9:
  96 0018 FFF7FEFF 		bl	mbedtls_mpi_mul_mpi
  97              	.LVL10:
  98 001c 0346     		mov	r3, r0
  99 001e 18B1     		cbz	r0, .L10
 100              	.LVL11:
 101              	.L4:
 344:C:/Users/lenovo/Desktop/liteos/Project2/BearPi_LiteOS/components/security/mbedtls/mbedtls-2.6.0/library\rsa.c ****         MBEDTLS_MPI_CHK( mbedtls_mpi_mod_mpi( &ctx->Vi, &ctx->Vi, &ctx->N ) );
 345:C:/Users/lenovo/Desktop/liteos/Project2/BearPi_LiteOS/components/security/mbedtls/mbedtls-2.6.0/library\rsa.c ****         MBEDTLS_MPI_CHK( mbedtls_mpi_mul_mpi( &ctx->Vf, &ctx->Vf, &ctx->Vf ) );
 346:C:/Users/lenovo/Desktop/liteos/Project2/BearPi_LiteOS/components/security/mbedtls/mbedtls-2.6.0/library\rsa.c ****         MBEDTLS_MPI_CHK( mbedtls_mpi_mod_mpi( &ctx->Vf, &ctx->Vf, &ctx->N ) );
 347:C:/Users/lenovo/Desktop/liteos/Project2/BearPi_LiteOS/components/security/mbedtls/mbedtls-2.6.0/library\rsa.c **** 
 348:C:/Users/lenovo/Desktop/liteos/Project2/BearPi_LiteOS/components/security/mbedtls/mbedtls-2.6.0/library\rsa.c ****         goto cleanup;
 349:C:/Users/lenovo/Desktop/liteos/Project2/BearPi_LiteOS/components/security/mbedtls/mbedtls-2.6.0/library\rsa.c ****     }
 350:C:/Users/lenovo/Desktop/liteos/Project2/BearPi_LiteOS/components/security/mbedtls/mbedtls-2.6.0/library\rsa.c **** 
 351:C:/Users/lenovo/Desktop/liteos/Project2/BearPi_LiteOS/components/security/mbedtls/mbedtls-2.6.0/library\rsa.c ****     /* Unblinding value: Vf = random number, invertible mod N */
 352:C:/Users/lenovo/Desktop/liteos/Project2/BearPi_LiteOS/components/security/mbedtls/mbedtls-2.6.0/library\rsa.c ****     do {
 353:C:/Users/lenovo/Desktop/liteos/Project2/BearPi_LiteOS/components/security/mbedtls/mbedtls-2.6.0/library\rsa.c ****         if( count++ > 10 )
 354:C:/Users/lenovo/Desktop/liteos/Project2/BearPi_LiteOS/components/security/mbedtls/mbedtls-2.6.0/library\rsa.c ****             return( MBEDTLS_ERR_RSA_RNG_FAILED );
 355:C:/Users/lenovo/Desktop/liteos/Project2/BearPi_LiteOS/components/security/mbedtls/mbedtls-2.6.0/library\rsa.c **** 
 356:C:/Users/lenovo/Desktop/liteos/Project2/BearPi_LiteOS/components/security/mbedtls/mbedtls-2.6.0/library\rsa.c ****         MBEDTLS_MPI_CHK( mbedtls_mpi_fill_random( &ctx->Vf, ctx->len - 1, f_rng, p_rng ) );
 357:C:/Users/lenovo/Desktop/liteos/Project2/BearPi_LiteOS/components/security/mbedtls/mbedtls-2.6.0/library\rsa.c ****         MBEDTLS_MPI_CHK( mbedtls_mpi_gcd( &ctx->Vi, &ctx->Vf, &ctx->N ) );
 358:C:/Users/lenovo/Desktop/liteos/Project2/BearPi_LiteOS/components/security/mbedtls/mbedtls-2.6.0/library\rsa.c ****     } while( mbedtls_mpi_cmp_int( &ctx->Vi, 1 ) != 0 );
ARM GAS  c:\Users\lenovo\AppData\Local\Temp\ccVehGBj.s 			page 9


 359:C:/Users/lenovo/Desktop/liteos/Project2/BearPi_LiteOS/components/security/mbedtls/mbedtls-2.6.0/library\rsa.c **** 
 360:C:/Users/lenovo/Desktop/liteos/Project2/BearPi_LiteOS/components/security/mbedtls/mbedtls-2.6.0/library\rsa.c ****     /* Blinding value: Vi =  Vf^(-e) mod N */
 361:C:/Users/lenovo/Desktop/liteos/Project2/BearPi_LiteOS/components/security/mbedtls/mbedtls-2.6.0/library\rsa.c ****     MBEDTLS_MPI_CHK( mbedtls_mpi_inv_mod( &ctx->Vi, &ctx->Vf, &ctx->N ) );
 362:C:/Users/lenovo/Desktop/liteos/Project2/BearPi_LiteOS/components/security/mbedtls/mbedtls-2.6.0/library\rsa.c ****     MBEDTLS_MPI_CHK( mbedtls_mpi_exp_mod( &ctx->Vi, &ctx->Vi, &ctx->E, &ctx->N, &ctx->RN ) );
 363:C:/Users/lenovo/Desktop/liteos/Project2/BearPi_LiteOS/components/security/mbedtls/mbedtls-2.6.0/library\rsa.c **** 
 364:C:/Users/lenovo/Desktop/liteos/Project2/BearPi_LiteOS/components/security/mbedtls/mbedtls-2.6.0/library\rsa.c **** 
 365:C:/Users/lenovo/Desktop/liteos/Project2/BearPi_LiteOS/components/security/mbedtls/mbedtls-2.6.0/library\rsa.c **** cleanup:
 366:C:/Users/lenovo/Desktop/liteos/Project2/BearPi_LiteOS/components/security/mbedtls/mbedtls-2.6.0/library\rsa.c ****     return( ret );
 367:C:/Users/lenovo/Desktop/liteos/Project2/BearPi_LiteOS/components/security/mbedtls/mbedtls-2.6.0/library\rsa.c **** }
 102              		.loc 1 367 0
 103 0020 1846     		mov	r0, r3
 104 0022 02B0     		add	sp, sp, #8
 105              	.LCFI2:
 106              		.cfi_remember_state
 107              		.cfi_def_cfa_offset 32
 108              		@ sp needed
 109 0024 BDE8F087 		pop	{r4, r5, r6, r7, r8, r9, r10, pc}
 110              	.LVL12:
 111              	.L10:
 112              	.LCFI3:
 113              		.cfi_restore_state
 344:C:/Users/lenovo/Desktop/liteos/Project2/BearPi_LiteOS/components/security/mbedtls/mbedtls-2.6.0/library\rsa.c ****         MBEDTLS_MPI_CHK( mbedtls_mpi_mod_mpi( &ctx->Vi, &ctx->Vi, &ctx->N ) );
 114              		.loc 1 344 0
 115 0028 04F10806 		add	r6, r4, #8
 116 002c 3246     		mov	r2, r6
 117 002e 2946     		mov	r1, r5
 118 0030 2846     		mov	r0, r5
 119              	.LVL13:
 120 0032 FFF7FEFF 		bl	mbedtls_mpi_mod_mpi
 121              	.LVL14:
 122 0036 0346     		mov	r3, r0
 123 0038 0028     		cmp	r0, #0
 124 003a F1D1     		bne	.L4
 345:C:/Users/lenovo/Desktop/liteos/Project2/BearPi_LiteOS/components/security/mbedtls/mbedtls-2.6.0/library\rsa.c ****         MBEDTLS_MPI_CHK( mbedtls_mpi_mod_mpi( &ctx->Vf, &ctx->Vf, &ctx->N ) );
 125              		.loc 1 345 0
 126 003c 9834     		adds	r4, r4, #152
 127              	.LVL15:
 128 003e 2246     		mov	r2, r4
 129 0040 2146     		mov	r1, r4
 130 0042 2046     		mov	r0, r4
 131              	.LVL16:
 132 0044 FFF7FEFF 		bl	mbedtls_mpi_mul_mpi
 133              	.LVL17:
 134 0048 0346     		mov	r3, r0
 135 004a 0028     		cmp	r0, #0
 136 004c E8D1     		bne	.L4
 346:C:/Users/lenovo/Desktop/liteos/Project2/BearPi_LiteOS/components/security/mbedtls/mbedtls-2.6.0/library\rsa.c **** 
 137              		.loc 1 346 0
 138 004e 3246     		mov	r2, r6
 139 0050 2146     		mov	r1, r4
 140 0052 2046     		mov	r0, r4
 141              	.LVL18:
 142 0054 FFF7FEFF 		bl	mbedtls_mpi_mod_mpi
 143              	.LVL19:
 144 0058 0346     		mov	r3, r0
 145              	.LVL20:
 365:C:/Users/lenovo/Desktop/liteos/Project2/BearPi_LiteOS/components/security/mbedtls/mbedtls-2.6.0/library\rsa.c ****     return( ret );
ARM GAS  c:\Users\lenovo\AppData\Local\Temp\ccVehGBj.s 			page 10


 146              		.loc 1 365 0
 147 005a E1E7     		b	.L4
 148              	.LVL21:
 149              	.L7:
 150 005c 8946     		mov	r9, r1
 151 005e 9246     		mov	r10, r2
 338:C:/Users/lenovo/Desktop/liteos/Project2/BearPi_LiteOS/components/security/mbedtls/mbedtls-2.6.0/library\rsa.c **** 
 152              		.loc 1 338 0
 153 0060 0023     		movs	r3, #0
 154              	.LVL22:
 155              	.L5:
 353:C:/Users/lenovo/Desktop/liteos/Project2/BearPi_LiteOS/components/security/mbedtls/mbedtls-2.6.0/library\rsa.c ****             return( MBEDTLS_ERR_RSA_RNG_FAILED );
 156              		.loc 1 353 0
 157 0062 5F1C     		adds	r7, r3, #1
 158              	.LVL23:
 159 0064 0A2B     		cmp	r3, #10
 160 0066 32DC     		bgt	.L8
 356:C:/Users/lenovo/Desktop/liteos/Project2/BearPi_LiteOS/components/security/mbedtls/mbedtls-2.6.0/library\rsa.c ****         MBEDTLS_MPI_CHK( mbedtls_mpi_gcd( &ctx->Vi, &ctx->Vf, &ctx->N ) );
 161              		.loc 1 356 0
 162 0068 04F19805 		add	r5, r4, #152
 163 006c 6168     		ldr	r1, [r4, #4]
 164 006e 5346     		mov	r3, r10
 165 0070 4A46     		mov	r2, r9
 166 0072 0139     		subs	r1, r1, #1
 167 0074 2846     		mov	r0, r5
 168 0076 FFF7FEFF 		bl	mbedtls_mpi_fill_random
 169              	.LVL24:
 170 007a 0346     		mov	r3, r0
 171 007c 0028     		cmp	r0, #0
 172 007e CFD1     		bne	.L4
 357:C:/Users/lenovo/Desktop/liteos/Project2/BearPi_LiteOS/components/security/mbedtls/mbedtls-2.6.0/library\rsa.c ****     } while( mbedtls_mpi_cmp_int( &ctx->Vi, 1 ) != 0 );
 173              		.loc 1 357 0
 174 0080 04F18C06 		add	r6, r4, #140
 175 0084 04F10808 		add	r8, r4, #8
 176 0088 4246     		mov	r2, r8
 177 008a 2946     		mov	r1, r5
 178 008c 3046     		mov	r0, r6
 179              	.LVL25:
 180 008e FFF7FEFF 		bl	mbedtls_mpi_gcd
 181              	.LVL26:
 182 0092 0346     		mov	r3, r0
 183 0094 0028     		cmp	r0, #0
 184 0096 C3D1     		bne	.L4
 358:C:/Users/lenovo/Desktop/liteos/Project2/BearPi_LiteOS/components/security/mbedtls/mbedtls-2.6.0/library\rsa.c **** 
 185              		.loc 1 358 0
 186 0098 0121     		movs	r1, #1
 187 009a 3046     		mov	r0, r6
 188              	.LVL27:
 189 009c FFF7FEFF 		bl	mbedtls_mpi_cmp_int
 190              	.LVL28:
 353:C:/Users/lenovo/Desktop/liteos/Project2/BearPi_LiteOS/components/security/mbedtls/mbedtls-2.6.0/library\rsa.c ****             return( MBEDTLS_ERR_RSA_RNG_FAILED );
 191              		.loc 1 353 0
 192 00a0 3B46     		mov	r3, r7
 358:C:/Users/lenovo/Desktop/liteos/Project2/BearPi_LiteOS/components/security/mbedtls/mbedtls-2.6.0/library\rsa.c **** 
 193              		.loc 1 358 0
 194 00a2 0028     		cmp	r0, #0
 195 00a4 DDD1     		bne	.L5
ARM GAS  c:\Users\lenovo\AppData\Local\Temp\ccVehGBj.s 			page 11


 361:C:/Users/lenovo/Desktop/liteos/Project2/BearPi_LiteOS/components/security/mbedtls/mbedtls-2.6.0/library\rsa.c ****     MBEDTLS_MPI_CHK( mbedtls_mpi_exp_mod( &ctx->Vi, &ctx->Vi, &ctx->E, &ctx->N, &ctx->RN ) );
 196              		.loc 1 361 0
 197 00a6 4246     		mov	r2, r8
 198 00a8 2946     		mov	r1, r5
 199 00aa 3046     		mov	r0, r6
 200 00ac FFF7FEFF 		bl	mbedtls_mpi_inv_mod
 201              	.LVL29:
 202 00b0 0346     		mov	r3, r0
 203 00b2 0028     		cmp	r0, #0
 204 00b4 B4D1     		bne	.L4
 362:C:/Users/lenovo/Desktop/liteos/Project2/BearPi_LiteOS/components/security/mbedtls/mbedtls-2.6.0/library\rsa.c **** 
 205              		.loc 1 362 0
 206 00b6 04F16803 		add	r3, r4, #104
 207 00ba 0093     		str	r3, [sp]
 208 00bc 4346     		mov	r3, r8
 209 00be 04F11402 		add	r2, r4, #20
 210 00c2 3146     		mov	r1, r6
 211 00c4 3046     		mov	r0, r6
 212              	.LVL30:
 213 00c6 FFF7FEFF 		bl	mbedtls_mpi_exp_mod
 214              	.LVL31:
 215 00ca 0346     		mov	r3, r0
 216              	.LVL32:
 365:C:/Users/lenovo/Desktop/liteos/Project2/BearPi_LiteOS/components/security/mbedtls/mbedtls-2.6.0/library\rsa.c ****     return( ret );
 217              		.loc 1 365 0
 218 00cc A8E7     		b	.L4
 219              	.LVL33:
 220              	.L8:
 354:C:/Users/lenovo/Desktop/liteos/Project2/BearPi_LiteOS/components/security/mbedtls/mbedtls-2.6.0/library\rsa.c **** 
 221              		.loc 1 354 0
 222 00ce 014B     		ldr	r3, .L11
 223 00d0 A6E7     		b	.L4
 224              	.L12:
 225 00d2 00BF     		.align	2
 226              	.L11:
 227 00d4 80BBFFFF 		.word	-17536
 228              		.cfi_endproc
 229              	.LFE19:
 231              		.section	.text.mgf_mask,"ax",%progbits
 232              		.align	1
 233              		.syntax unified
 234              		.thumb
 235              		.thumb_func
 236              		.fpu fpv4-sp-d16
 238              	mgf_mask:
 239              	.LFB21:
 368:C:/Users/lenovo/Desktop/liteos/Project2/BearPi_LiteOS/components/security/mbedtls/mbedtls-2.6.0/library\rsa.c **** 
 369:C:/Users/lenovo/Desktop/liteos/Project2/BearPi_LiteOS/components/security/mbedtls/mbedtls-2.6.0/library\rsa.c **** /*
 370:C:/Users/lenovo/Desktop/liteos/Project2/BearPi_LiteOS/components/security/mbedtls/mbedtls-2.6.0/library\rsa.c ****  * Exponent blinding supposed to prevent side-channel attacks using multiple
 371:C:/Users/lenovo/Desktop/liteos/Project2/BearPi_LiteOS/components/security/mbedtls/mbedtls-2.6.0/library\rsa.c ****  * traces of measurements to recover the RSA key. The more collisions are there,
 372:C:/Users/lenovo/Desktop/liteos/Project2/BearPi_LiteOS/components/security/mbedtls/mbedtls-2.6.0/library\rsa.c ****  * the more bits of the key can be recovered. See [3].
 373:C:/Users/lenovo/Desktop/liteos/Project2/BearPi_LiteOS/components/security/mbedtls/mbedtls-2.6.0/library\rsa.c ****  *
 374:C:/Users/lenovo/Desktop/liteos/Project2/BearPi_LiteOS/components/security/mbedtls/mbedtls-2.6.0/library\rsa.c ****  * Collecting n collisions with m bit long blinding value requires 2^(m-m/n)
 375:C:/Users/lenovo/Desktop/liteos/Project2/BearPi_LiteOS/components/security/mbedtls/mbedtls-2.6.0/library\rsa.c ****  * observations on avarage.
 376:C:/Users/lenovo/Desktop/liteos/Project2/BearPi_LiteOS/components/security/mbedtls/mbedtls-2.6.0/library\rsa.c ****  *
 377:C:/Users/lenovo/Desktop/liteos/Project2/BearPi_LiteOS/components/security/mbedtls/mbedtls-2.6.0/library\rsa.c ****  * For example with 28 byte blinding to achieve 2 collisions the adversary has
 378:C:/Users/lenovo/Desktop/liteos/Project2/BearPi_LiteOS/components/security/mbedtls/mbedtls-2.6.0/library\rsa.c ****  * to make 2^112 observations on avarage.
ARM GAS  c:\Users\lenovo\AppData\Local\Temp\ccVehGBj.s 			page 12


 379:C:/Users/lenovo/Desktop/liteos/Project2/BearPi_LiteOS/components/security/mbedtls/mbedtls-2.6.0/library\rsa.c ****  *
 380:C:/Users/lenovo/Desktop/liteos/Project2/BearPi_LiteOS/components/security/mbedtls/mbedtls-2.6.0/library\rsa.c ****  * (With the currently (as of 2017 April) known best algorithms breaking 2048
 381:C:/Users/lenovo/Desktop/liteos/Project2/BearPi_LiteOS/components/security/mbedtls/mbedtls-2.6.0/library\rsa.c ****  * bit RSA requires approximately as much time as trying out 2^112 random keys.
 382:C:/Users/lenovo/Desktop/liteos/Project2/BearPi_LiteOS/components/security/mbedtls/mbedtls-2.6.0/library\rsa.c ****  * Thus in this sense with 28 byte blinding the security is not reduced by
 383:C:/Users/lenovo/Desktop/liteos/Project2/BearPi_LiteOS/components/security/mbedtls/mbedtls-2.6.0/library\rsa.c ****  * side-channel attacks like the one in [3])
 384:C:/Users/lenovo/Desktop/liteos/Project2/BearPi_LiteOS/components/security/mbedtls/mbedtls-2.6.0/library\rsa.c ****  *
 385:C:/Users/lenovo/Desktop/liteos/Project2/BearPi_LiteOS/components/security/mbedtls/mbedtls-2.6.0/library\rsa.c ****  * This countermeasure does not help if the key recovery is possible with a
 386:C:/Users/lenovo/Desktop/liteos/Project2/BearPi_LiteOS/components/security/mbedtls/mbedtls-2.6.0/library\rsa.c ****  * single trace.
 387:C:/Users/lenovo/Desktop/liteos/Project2/BearPi_LiteOS/components/security/mbedtls/mbedtls-2.6.0/library\rsa.c ****  */
 388:C:/Users/lenovo/Desktop/liteos/Project2/BearPi_LiteOS/components/security/mbedtls/mbedtls-2.6.0/library\rsa.c **** #define RSA_EXPONENT_BLINDING 28
 389:C:/Users/lenovo/Desktop/liteos/Project2/BearPi_LiteOS/components/security/mbedtls/mbedtls-2.6.0/library\rsa.c **** 
 390:C:/Users/lenovo/Desktop/liteos/Project2/BearPi_LiteOS/components/security/mbedtls/mbedtls-2.6.0/library\rsa.c **** /*
 391:C:/Users/lenovo/Desktop/liteos/Project2/BearPi_LiteOS/components/security/mbedtls/mbedtls-2.6.0/library\rsa.c ****  * Do an RSA private key operation
 392:C:/Users/lenovo/Desktop/liteos/Project2/BearPi_LiteOS/components/security/mbedtls/mbedtls-2.6.0/library\rsa.c ****  */
 393:C:/Users/lenovo/Desktop/liteos/Project2/BearPi_LiteOS/components/security/mbedtls/mbedtls-2.6.0/library\rsa.c **** int mbedtls_rsa_private( mbedtls_rsa_context *ctx,
 394:C:/Users/lenovo/Desktop/liteos/Project2/BearPi_LiteOS/components/security/mbedtls/mbedtls-2.6.0/library\rsa.c ****                  int (*f_rng)(void *, unsigned char *, size_t),
 395:C:/Users/lenovo/Desktop/liteos/Project2/BearPi_LiteOS/components/security/mbedtls/mbedtls-2.6.0/library\rsa.c ****                  void *p_rng,
 396:C:/Users/lenovo/Desktop/liteos/Project2/BearPi_LiteOS/components/security/mbedtls/mbedtls-2.6.0/library\rsa.c ****                  const unsigned char *input,
 397:C:/Users/lenovo/Desktop/liteos/Project2/BearPi_LiteOS/components/security/mbedtls/mbedtls-2.6.0/library\rsa.c ****                  unsigned char *output )
 398:C:/Users/lenovo/Desktop/liteos/Project2/BearPi_LiteOS/components/security/mbedtls/mbedtls-2.6.0/library\rsa.c **** {
 399:C:/Users/lenovo/Desktop/liteos/Project2/BearPi_LiteOS/components/security/mbedtls/mbedtls-2.6.0/library\rsa.c ****     int ret;
 400:C:/Users/lenovo/Desktop/liteos/Project2/BearPi_LiteOS/components/security/mbedtls/mbedtls-2.6.0/library\rsa.c ****     size_t olen;
 401:C:/Users/lenovo/Desktop/liteos/Project2/BearPi_LiteOS/components/security/mbedtls/mbedtls-2.6.0/library\rsa.c ****     mbedtls_mpi T, T1, T2;
 402:C:/Users/lenovo/Desktop/liteos/Project2/BearPi_LiteOS/components/security/mbedtls/mbedtls-2.6.0/library\rsa.c ****     mbedtls_mpi P1, Q1, R;
 403:C:/Users/lenovo/Desktop/liteos/Project2/BearPi_LiteOS/components/security/mbedtls/mbedtls-2.6.0/library\rsa.c **** #if defined(MBEDTLS_RSA_NO_CRT)
 404:C:/Users/lenovo/Desktop/liteos/Project2/BearPi_LiteOS/components/security/mbedtls/mbedtls-2.6.0/library\rsa.c ****     mbedtls_mpi D_blind;
 405:C:/Users/lenovo/Desktop/liteos/Project2/BearPi_LiteOS/components/security/mbedtls/mbedtls-2.6.0/library\rsa.c ****     mbedtls_mpi *D = &ctx->D;
 406:C:/Users/lenovo/Desktop/liteos/Project2/BearPi_LiteOS/components/security/mbedtls/mbedtls-2.6.0/library\rsa.c **** #else
 407:C:/Users/lenovo/Desktop/liteos/Project2/BearPi_LiteOS/components/security/mbedtls/mbedtls-2.6.0/library\rsa.c ****     mbedtls_mpi DP_blind, DQ_blind;
 408:C:/Users/lenovo/Desktop/liteos/Project2/BearPi_LiteOS/components/security/mbedtls/mbedtls-2.6.0/library\rsa.c ****     mbedtls_mpi *DP = &ctx->DP;
 409:C:/Users/lenovo/Desktop/liteos/Project2/BearPi_LiteOS/components/security/mbedtls/mbedtls-2.6.0/library\rsa.c ****     mbedtls_mpi *DQ = &ctx->DQ;
 410:C:/Users/lenovo/Desktop/liteos/Project2/BearPi_LiteOS/components/security/mbedtls/mbedtls-2.6.0/library\rsa.c **** #endif
 411:C:/Users/lenovo/Desktop/liteos/Project2/BearPi_LiteOS/components/security/mbedtls/mbedtls-2.6.0/library\rsa.c **** 
 412:C:/Users/lenovo/Desktop/liteos/Project2/BearPi_LiteOS/components/security/mbedtls/mbedtls-2.6.0/library\rsa.c ****     /* Make sure we have private key info, prevent possible misuse */
 413:C:/Users/lenovo/Desktop/liteos/Project2/BearPi_LiteOS/components/security/mbedtls/mbedtls-2.6.0/library\rsa.c ****     if( ctx->P.p == NULL || ctx->Q.p == NULL || ctx->D.p == NULL )
 414:C:/Users/lenovo/Desktop/liteos/Project2/BearPi_LiteOS/components/security/mbedtls/mbedtls-2.6.0/library\rsa.c ****         return( MBEDTLS_ERR_RSA_BAD_INPUT_DATA );
 415:C:/Users/lenovo/Desktop/liteos/Project2/BearPi_LiteOS/components/security/mbedtls/mbedtls-2.6.0/library\rsa.c **** 
 416:C:/Users/lenovo/Desktop/liteos/Project2/BearPi_LiteOS/components/security/mbedtls/mbedtls-2.6.0/library\rsa.c ****     mbedtls_mpi_init( &T ); mbedtls_mpi_init( &T1 ); mbedtls_mpi_init( &T2 );
 417:C:/Users/lenovo/Desktop/liteos/Project2/BearPi_LiteOS/components/security/mbedtls/mbedtls-2.6.0/library\rsa.c ****     mbedtls_mpi_init( &P1 ); mbedtls_mpi_init( &Q1 ); mbedtls_mpi_init( &R );
 418:C:/Users/lenovo/Desktop/liteos/Project2/BearPi_LiteOS/components/security/mbedtls/mbedtls-2.6.0/library\rsa.c **** 
 419:C:/Users/lenovo/Desktop/liteos/Project2/BearPi_LiteOS/components/security/mbedtls/mbedtls-2.6.0/library\rsa.c **** 
 420:C:/Users/lenovo/Desktop/liteos/Project2/BearPi_LiteOS/components/security/mbedtls/mbedtls-2.6.0/library\rsa.c ****     if( f_rng != NULL )
 421:C:/Users/lenovo/Desktop/liteos/Project2/BearPi_LiteOS/components/security/mbedtls/mbedtls-2.6.0/library\rsa.c ****     {
 422:C:/Users/lenovo/Desktop/liteos/Project2/BearPi_LiteOS/components/security/mbedtls/mbedtls-2.6.0/library\rsa.c **** #if defined(MBEDTLS_RSA_NO_CRT)
 423:C:/Users/lenovo/Desktop/liteos/Project2/BearPi_LiteOS/components/security/mbedtls/mbedtls-2.6.0/library\rsa.c ****         mbedtls_mpi_init( &D_blind );
 424:C:/Users/lenovo/Desktop/liteos/Project2/BearPi_LiteOS/components/security/mbedtls/mbedtls-2.6.0/library\rsa.c **** #else
 425:C:/Users/lenovo/Desktop/liteos/Project2/BearPi_LiteOS/components/security/mbedtls/mbedtls-2.6.0/library\rsa.c ****         mbedtls_mpi_init( &DP_blind );
 426:C:/Users/lenovo/Desktop/liteos/Project2/BearPi_LiteOS/components/security/mbedtls/mbedtls-2.6.0/library\rsa.c ****         mbedtls_mpi_init( &DQ_blind );
 427:C:/Users/lenovo/Desktop/liteos/Project2/BearPi_LiteOS/components/security/mbedtls/mbedtls-2.6.0/library\rsa.c **** #endif
 428:C:/Users/lenovo/Desktop/liteos/Project2/BearPi_LiteOS/components/security/mbedtls/mbedtls-2.6.0/library\rsa.c ****     }
 429:C:/Users/lenovo/Desktop/liteos/Project2/BearPi_LiteOS/components/security/mbedtls/mbedtls-2.6.0/library\rsa.c **** 
 430:C:/Users/lenovo/Desktop/liteos/Project2/BearPi_LiteOS/components/security/mbedtls/mbedtls-2.6.0/library\rsa.c **** 
 431:C:/Users/lenovo/Desktop/liteos/Project2/BearPi_LiteOS/components/security/mbedtls/mbedtls-2.6.0/library\rsa.c **** #if defined(MBEDTLS_THREADING_C)
 432:C:/Users/lenovo/Desktop/liteos/Project2/BearPi_LiteOS/components/security/mbedtls/mbedtls-2.6.0/library\rsa.c ****     if( ( ret = mbedtls_mutex_lock( &ctx->mutex ) ) != 0 )
 433:C:/Users/lenovo/Desktop/liteos/Project2/BearPi_LiteOS/components/security/mbedtls/mbedtls-2.6.0/library\rsa.c ****         return( ret );
 434:C:/Users/lenovo/Desktop/liteos/Project2/BearPi_LiteOS/components/security/mbedtls/mbedtls-2.6.0/library\rsa.c **** #endif
 435:C:/Users/lenovo/Desktop/liteos/Project2/BearPi_LiteOS/components/security/mbedtls/mbedtls-2.6.0/library\rsa.c **** 
ARM GAS  c:\Users\lenovo\AppData\Local\Temp\ccVehGBj.s 			page 13


 436:C:/Users/lenovo/Desktop/liteos/Project2/BearPi_LiteOS/components/security/mbedtls/mbedtls-2.6.0/library\rsa.c ****     MBEDTLS_MPI_CHK( mbedtls_mpi_read_binary( &T, input, ctx->len ) );
 437:C:/Users/lenovo/Desktop/liteos/Project2/BearPi_LiteOS/components/security/mbedtls/mbedtls-2.6.0/library\rsa.c ****     if( mbedtls_mpi_cmp_mpi( &T, &ctx->N ) >= 0 )
 438:C:/Users/lenovo/Desktop/liteos/Project2/BearPi_LiteOS/components/security/mbedtls/mbedtls-2.6.0/library\rsa.c ****     {
 439:C:/Users/lenovo/Desktop/liteos/Project2/BearPi_LiteOS/components/security/mbedtls/mbedtls-2.6.0/library\rsa.c ****         ret = MBEDTLS_ERR_MPI_BAD_INPUT_DATA;
 440:C:/Users/lenovo/Desktop/liteos/Project2/BearPi_LiteOS/components/security/mbedtls/mbedtls-2.6.0/library\rsa.c ****         goto cleanup;
 441:C:/Users/lenovo/Desktop/liteos/Project2/BearPi_LiteOS/components/security/mbedtls/mbedtls-2.6.0/library\rsa.c ****     }
 442:C:/Users/lenovo/Desktop/liteos/Project2/BearPi_LiteOS/components/security/mbedtls/mbedtls-2.6.0/library\rsa.c **** 
 443:C:/Users/lenovo/Desktop/liteos/Project2/BearPi_LiteOS/components/security/mbedtls/mbedtls-2.6.0/library\rsa.c ****     if( f_rng != NULL )
 444:C:/Users/lenovo/Desktop/liteos/Project2/BearPi_LiteOS/components/security/mbedtls/mbedtls-2.6.0/library\rsa.c ****     {
 445:C:/Users/lenovo/Desktop/liteos/Project2/BearPi_LiteOS/components/security/mbedtls/mbedtls-2.6.0/library\rsa.c ****         /*
 446:C:/Users/lenovo/Desktop/liteos/Project2/BearPi_LiteOS/components/security/mbedtls/mbedtls-2.6.0/library\rsa.c ****          * Blinding
 447:C:/Users/lenovo/Desktop/liteos/Project2/BearPi_LiteOS/components/security/mbedtls/mbedtls-2.6.0/library\rsa.c ****          * T = T * Vi mod N
 448:C:/Users/lenovo/Desktop/liteos/Project2/BearPi_LiteOS/components/security/mbedtls/mbedtls-2.6.0/library\rsa.c ****          */
 449:C:/Users/lenovo/Desktop/liteos/Project2/BearPi_LiteOS/components/security/mbedtls/mbedtls-2.6.0/library\rsa.c ****         MBEDTLS_MPI_CHK( rsa_prepare_blinding( ctx, f_rng, p_rng ) );
 450:C:/Users/lenovo/Desktop/liteos/Project2/BearPi_LiteOS/components/security/mbedtls/mbedtls-2.6.0/library\rsa.c ****         MBEDTLS_MPI_CHK( mbedtls_mpi_mul_mpi( &T, &T, &ctx->Vi ) );
 451:C:/Users/lenovo/Desktop/liteos/Project2/BearPi_LiteOS/components/security/mbedtls/mbedtls-2.6.0/library\rsa.c ****         MBEDTLS_MPI_CHK( mbedtls_mpi_mod_mpi( &T, &T, &ctx->N ) );
 452:C:/Users/lenovo/Desktop/liteos/Project2/BearPi_LiteOS/components/security/mbedtls/mbedtls-2.6.0/library\rsa.c **** 
 453:C:/Users/lenovo/Desktop/liteos/Project2/BearPi_LiteOS/components/security/mbedtls/mbedtls-2.6.0/library\rsa.c ****         /*
 454:C:/Users/lenovo/Desktop/liteos/Project2/BearPi_LiteOS/components/security/mbedtls/mbedtls-2.6.0/library\rsa.c ****          * Exponent blinding
 455:C:/Users/lenovo/Desktop/liteos/Project2/BearPi_LiteOS/components/security/mbedtls/mbedtls-2.6.0/library\rsa.c ****          */
 456:C:/Users/lenovo/Desktop/liteos/Project2/BearPi_LiteOS/components/security/mbedtls/mbedtls-2.6.0/library\rsa.c ****         MBEDTLS_MPI_CHK( mbedtls_mpi_sub_int( &P1, &ctx->P, 1 ) );
 457:C:/Users/lenovo/Desktop/liteos/Project2/BearPi_LiteOS/components/security/mbedtls/mbedtls-2.6.0/library\rsa.c ****         MBEDTLS_MPI_CHK( mbedtls_mpi_sub_int( &Q1, &ctx->Q, 1 ) );
 458:C:/Users/lenovo/Desktop/liteos/Project2/BearPi_LiteOS/components/security/mbedtls/mbedtls-2.6.0/library\rsa.c **** 
 459:C:/Users/lenovo/Desktop/liteos/Project2/BearPi_LiteOS/components/security/mbedtls/mbedtls-2.6.0/library\rsa.c **** #if defined(MBEDTLS_RSA_NO_CRT)
 460:C:/Users/lenovo/Desktop/liteos/Project2/BearPi_LiteOS/components/security/mbedtls/mbedtls-2.6.0/library\rsa.c ****         /*
 461:C:/Users/lenovo/Desktop/liteos/Project2/BearPi_LiteOS/components/security/mbedtls/mbedtls-2.6.0/library\rsa.c ****          * D_blind = ( P - 1 ) * ( Q - 1 ) * R + D
 462:C:/Users/lenovo/Desktop/liteos/Project2/BearPi_LiteOS/components/security/mbedtls/mbedtls-2.6.0/library\rsa.c ****          */
 463:C:/Users/lenovo/Desktop/liteos/Project2/BearPi_LiteOS/components/security/mbedtls/mbedtls-2.6.0/library\rsa.c ****         MBEDTLS_MPI_CHK( mbedtls_mpi_fill_random( &R, RSA_EXPONENT_BLINDING,
 464:C:/Users/lenovo/Desktop/liteos/Project2/BearPi_LiteOS/components/security/mbedtls/mbedtls-2.6.0/library\rsa.c ****                          f_rng, p_rng ) );
 465:C:/Users/lenovo/Desktop/liteos/Project2/BearPi_LiteOS/components/security/mbedtls/mbedtls-2.6.0/library\rsa.c ****         MBEDTLS_MPI_CHK( mbedtls_mpi_mul_mpi( &D_blind, &P1, &Q1 ) );
 466:C:/Users/lenovo/Desktop/liteos/Project2/BearPi_LiteOS/components/security/mbedtls/mbedtls-2.6.0/library\rsa.c ****         MBEDTLS_MPI_CHK( mbedtls_mpi_mul_mpi( &D_blind, &D_blind, &R ) );
 467:C:/Users/lenovo/Desktop/liteos/Project2/BearPi_LiteOS/components/security/mbedtls/mbedtls-2.6.0/library\rsa.c ****         MBEDTLS_MPI_CHK( mbedtls_mpi_add_mpi( &D_blind, &D_blind, &ctx->D ) );
 468:C:/Users/lenovo/Desktop/liteos/Project2/BearPi_LiteOS/components/security/mbedtls/mbedtls-2.6.0/library\rsa.c **** 
 469:C:/Users/lenovo/Desktop/liteos/Project2/BearPi_LiteOS/components/security/mbedtls/mbedtls-2.6.0/library\rsa.c ****         D = &D_blind;
 470:C:/Users/lenovo/Desktop/liteos/Project2/BearPi_LiteOS/components/security/mbedtls/mbedtls-2.6.0/library\rsa.c **** #else
 471:C:/Users/lenovo/Desktop/liteos/Project2/BearPi_LiteOS/components/security/mbedtls/mbedtls-2.6.0/library\rsa.c ****         /*
 472:C:/Users/lenovo/Desktop/liteos/Project2/BearPi_LiteOS/components/security/mbedtls/mbedtls-2.6.0/library\rsa.c ****          * DP_blind = ( P - 1 ) * R + DP
 473:C:/Users/lenovo/Desktop/liteos/Project2/BearPi_LiteOS/components/security/mbedtls/mbedtls-2.6.0/library\rsa.c ****          */
 474:C:/Users/lenovo/Desktop/liteos/Project2/BearPi_LiteOS/components/security/mbedtls/mbedtls-2.6.0/library\rsa.c ****         MBEDTLS_MPI_CHK( mbedtls_mpi_fill_random( &R, RSA_EXPONENT_BLINDING,
 475:C:/Users/lenovo/Desktop/liteos/Project2/BearPi_LiteOS/components/security/mbedtls/mbedtls-2.6.0/library\rsa.c ****                          f_rng, p_rng ) );
 476:C:/Users/lenovo/Desktop/liteos/Project2/BearPi_LiteOS/components/security/mbedtls/mbedtls-2.6.0/library\rsa.c ****         MBEDTLS_MPI_CHK( mbedtls_mpi_mul_mpi( &DP_blind, &P1, &R ) );
 477:C:/Users/lenovo/Desktop/liteos/Project2/BearPi_LiteOS/components/security/mbedtls/mbedtls-2.6.0/library\rsa.c ****         MBEDTLS_MPI_CHK( mbedtls_mpi_add_mpi( &DP_blind, &DP_blind,
 478:C:/Users/lenovo/Desktop/liteos/Project2/BearPi_LiteOS/components/security/mbedtls/mbedtls-2.6.0/library\rsa.c ****                     &ctx->DP ) );
 479:C:/Users/lenovo/Desktop/liteos/Project2/BearPi_LiteOS/components/security/mbedtls/mbedtls-2.6.0/library\rsa.c **** 
 480:C:/Users/lenovo/Desktop/liteos/Project2/BearPi_LiteOS/components/security/mbedtls/mbedtls-2.6.0/library\rsa.c ****         DP = &DP_blind;
 481:C:/Users/lenovo/Desktop/liteos/Project2/BearPi_LiteOS/components/security/mbedtls/mbedtls-2.6.0/library\rsa.c **** 
 482:C:/Users/lenovo/Desktop/liteos/Project2/BearPi_LiteOS/components/security/mbedtls/mbedtls-2.6.0/library\rsa.c ****         /*
 483:C:/Users/lenovo/Desktop/liteos/Project2/BearPi_LiteOS/components/security/mbedtls/mbedtls-2.6.0/library\rsa.c ****          * DQ_blind = ( Q - 1 ) * R + DQ
 484:C:/Users/lenovo/Desktop/liteos/Project2/BearPi_LiteOS/components/security/mbedtls/mbedtls-2.6.0/library\rsa.c ****          */
 485:C:/Users/lenovo/Desktop/liteos/Project2/BearPi_LiteOS/components/security/mbedtls/mbedtls-2.6.0/library\rsa.c ****         MBEDTLS_MPI_CHK( mbedtls_mpi_fill_random( &R, RSA_EXPONENT_BLINDING,
 486:C:/Users/lenovo/Desktop/liteos/Project2/BearPi_LiteOS/components/security/mbedtls/mbedtls-2.6.0/library\rsa.c ****                          f_rng, p_rng ) );
 487:C:/Users/lenovo/Desktop/liteos/Project2/BearPi_LiteOS/components/security/mbedtls/mbedtls-2.6.0/library\rsa.c ****         MBEDTLS_MPI_CHK( mbedtls_mpi_mul_mpi( &DQ_blind, &Q1, &R ) );
 488:C:/Users/lenovo/Desktop/liteos/Project2/BearPi_LiteOS/components/security/mbedtls/mbedtls-2.6.0/library\rsa.c ****         MBEDTLS_MPI_CHK( mbedtls_mpi_add_mpi( &DQ_blind, &DQ_blind,
 489:C:/Users/lenovo/Desktop/liteos/Project2/BearPi_LiteOS/components/security/mbedtls/mbedtls-2.6.0/library\rsa.c ****                     &ctx->DQ ) );
 490:C:/Users/lenovo/Desktop/liteos/Project2/BearPi_LiteOS/components/security/mbedtls/mbedtls-2.6.0/library\rsa.c **** 
 491:C:/Users/lenovo/Desktop/liteos/Project2/BearPi_LiteOS/components/security/mbedtls/mbedtls-2.6.0/library\rsa.c ****         DQ = &DQ_blind;
 492:C:/Users/lenovo/Desktop/liteos/Project2/BearPi_LiteOS/components/security/mbedtls/mbedtls-2.6.0/library\rsa.c **** #endif /* MBEDTLS_RSA_NO_CRT */
ARM GAS  c:\Users\lenovo\AppData\Local\Temp\ccVehGBj.s 			page 14


 493:C:/Users/lenovo/Desktop/liteos/Project2/BearPi_LiteOS/components/security/mbedtls/mbedtls-2.6.0/library\rsa.c ****     }
 494:C:/Users/lenovo/Desktop/liteos/Project2/BearPi_LiteOS/components/security/mbedtls/mbedtls-2.6.0/library\rsa.c **** 
 495:C:/Users/lenovo/Desktop/liteos/Project2/BearPi_LiteOS/components/security/mbedtls/mbedtls-2.6.0/library\rsa.c **** #if defined(MBEDTLS_RSA_NO_CRT)
 496:C:/Users/lenovo/Desktop/liteos/Project2/BearPi_LiteOS/components/security/mbedtls/mbedtls-2.6.0/library\rsa.c ****     MBEDTLS_MPI_CHK( mbedtls_mpi_exp_mod( &T, &T, D, &ctx->N, &ctx->RN ) );
 497:C:/Users/lenovo/Desktop/liteos/Project2/BearPi_LiteOS/components/security/mbedtls/mbedtls-2.6.0/library\rsa.c **** #else
 498:C:/Users/lenovo/Desktop/liteos/Project2/BearPi_LiteOS/components/security/mbedtls/mbedtls-2.6.0/library\rsa.c ****     /*
 499:C:/Users/lenovo/Desktop/liteos/Project2/BearPi_LiteOS/components/security/mbedtls/mbedtls-2.6.0/library\rsa.c ****      * Faster decryption using the CRT
 500:C:/Users/lenovo/Desktop/liteos/Project2/BearPi_LiteOS/components/security/mbedtls/mbedtls-2.6.0/library\rsa.c ****      *
 501:C:/Users/lenovo/Desktop/liteos/Project2/BearPi_LiteOS/components/security/mbedtls/mbedtls-2.6.0/library\rsa.c ****      * T1 = input ^ dP mod P
 502:C:/Users/lenovo/Desktop/liteos/Project2/BearPi_LiteOS/components/security/mbedtls/mbedtls-2.6.0/library\rsa.c ****      * T2 = input ^ dQ mod Q
 503:C:/Users/lenovo/Desktop/liteos/Project2/BearPi_LiteOS/components/security/mbedtls/mbedtls-2.6.0/library\rsa.c ****      */
 504:C:/Users/lenovo/Desktop/liteos/Project2/BearPi_LiteOS/components/security/mbedtls/mbedtls-2.6.0/library\rsa.c ****     MBEDTLS_MPI_CHK( mbedtls_mpi_exp_mod( &T1, &T, DP, &ctx->P, &ctx->RP ) );
 505:C:/Users/lenovo/Desktop/liteos/Project2/BearPi_LiteOS/components/security/mbedtls/mbedtls-2.6.0/library\rsa.c ****     MBEDTLS_MPI_CHK( mbedtls_mpi_exp_mod( &T2, &T, DQ, &ctx->Q, &ctx->RQ ) );
 506:C:/Users/lenovo/Desktop/liteos/Project2/BearPi_LiteOS/components/security/mbedtls/mbedtls-2.6.0/library\rsa.c **** 
 507:C:/Users/lenovo/Desktop/liteos/Project2/BearPi_LiteOS/components/security/mbedtls/mbedtls-2.6.0/library\rsa.c ****     /*
 508:C:/Users/lenovo/Desktop/liteos/Project2/BearPi_LiteOS/components/security/mbedtls/mbedtls-2.6.0/library\rsa.c ****      * T = (T1 - T2) * (Q^-1 mod P) mod P
 509:C:/Users/lenovo/Desktop/liteos/Project2/BearPi_LiteOS/components/security/mbedtls/mbedtls-2.6.0/library\rsa.c ****      */
 510:C:/Users/lenovo/Desktop/liteos/Project2/BearPi_LiteOS/components/security/mbedtls/mbedtls-2.6.0/library\rsa.c ****     MBEDTLS_MPI_CHK( mbedtls_mpi_sub_mpi( &T, &T1, &T2 ) );
 511:C:/Users/lenovo/Desktop/liteos/Project2/BearPi_LiteOS/components/security/mbedtls/mbedtls-2.6.0/library\rsa.c ****     MBEDTLS_MPI_CHK( mbedtls_mpi_mul_mpi( &T1, &T, &ctx->QP ) );
 512:C:/Users/lenovo/Desktop/liteos/Project2/BearPi_LiteOS/components/security/mbedtls/mbedtls-2.6.0/library\rsa.c ****     MBEDTLS_MPI_CHK( mbedtls_mpi_mod_mpi( &T, &T1, &ctx->P ) );
 513:C:/Users/lenovo/Desktop/liteos/Project2/BearPi_LiteOS/components/security/mbedtls/mbedtls-2.6.0/library\rsa.c **** 
 514:C:/Users/lenovo/Desktop/liteos/Project2/BearPi_LiteOS/components/security/mbedtls/mbedtls-2.6.0/library\rsa.c ****     /*
 515:C:/Users/lenovo/Desktop/liteos/Project2/BearPi_LiteOS/components/security/mbedtls/mbedtls-2.6.0/library\rsa.c ****      * T = T2 + T * Q
 516:C:/Users/lenovo/Desktop/liteos/Project2/BearPi_LiteOS/components/security/mbedtls/mbedtls-2.6.0/library\rsa.c ****      */
 517:C:/Users/lenovo/Desktop/liteos/Project2/BearPi_LiteOS/components/security/mbedtls/mbedtls-2.6.0/library\rsa.c ****     MBEDTLS_MPI_CHK( mbedtls_mpi_mul_mpi( &T1, &T, &ctx->Q ) );
 518:C:/Users/lenovo/Desktop/liteos/Project2/BearPi_LiteOS/components/security/mbedtls/mbedtls-2.6.0/library\rsa.c ****     MBEDTLS_MPI_CHK( mbedtls_mpi_add_mpi( &T, &T2, &T1 ) );
 519:C:/Users/lenovo/Desktop/liteos/Project2/BearPi_LiteOS/components/security/mbedtls/mbedtls-2.6.0/library\rsa.c **** #endif /* MBEDTLS_RSA_NO_CRT */
 520:C:/Users/lenovo/Desktop/liteos/Project2/BearPi_LiteOS/components/security/mbedtls/mbedtls-2.6.0/library\rsa.c **** 
 521:C:/Users/lenovo/Desktop/liteos/Project2/BearPi_LiteOS/components/security/mbedtls/mbedtls-2.6.0/library\rsa.c ****     if( f_rng != NULL )
 522:C:/Users/lenovo/Desktop/liteos/Project2/BearPi_LiteOS/components/security/mbedtls/mbedtls-2.6.0/library\rsa.c ****     {
 523:C:/Users/lenovo/Desktop/liteos/Project2/BearPi_LiteOS/components/security/mbedtls/mbedtls-2.6.0/library\rsa.c ****         /*
 524:C:/Users/lenovo/Desktop/liteos/Project2/BearPi_LiteOS/components/security/mbedtls/mbedtls-2.6.0/library\rsa.c ****          * Unblind
 525:C:/Users/lenovo/Desktop/liteos/Project2/BearPi_LiteOS/components/security/mbedtls/mbedtls-2.6.0/library\rsa.c ****          * T = T * Vf mod N
 526:C:/Users/lenovo/Desktop/liteos/Project2/BearPi_LiteOS/components/security/mbedtls/mbedtls-2.6.0/library\rsa.c ****          */
 527:C:/Users/lenovo/Desktop/liteos/Project2/BearPi_LiteOS/components/security/mbedtls/mbedtls-2.6.0/library\rsa.c ****         MBEDTLS_MPI_CHK( mbedtls_mpi_mul_mpi( &T, &T, &ctx->Vf ) );
 528:C:/Users/lenovo/Desktop/liteos/Project2/BearPi_LiteOS/components/security/mbedtls/mbedtls-2.6.0/library\rsa.c ****         MBEDTLS_MPI_CHK( mbedtls_mpi_mod_mpi( &T, &T, &ctx->N ) );
 529:C:/Users/lenovo/Desktop/liteos/Project2/BearPi_LiteOS/components/security/mbedtls/mbedtls-2.6.0/library\rsa.c ****     }
 530:C:/Users/lenovo/Desktop/liteos/Project2/BearPi_LiteOS/components/security/mbedtls/mbedtls-2.6.0/library\rsa.c **** 
 531:C:/Users/lenovo/Desktop/liteos/Project2/BearPi_LiteOS/components/security/mbedtls/mbedtls-2.6.0/library\rsa.c ****     olen = ctx->len;
 532:C:/Users/lenovo/Desktop/liteos/Project2/BearPi_LiteOS/components/security/mbedtls/mbedtls-2.6.0/library\rsa.c ****     MBEDTLS_MPI_CHK( mbedtls_mpi_write_binary( &T, output, olen ) );
 533:C:/Users/lenovo/Desktop/liteos/Project2/BearPi_LiteOS/components/security/mbedtls/mbedtls-2.6.0/library\rsa.c **** 
 534:C:/Users/lenovo/Desktop/liteos/Project2/BearPi_LiteOS/components/security/mbedtls/mbedtls-2.6.0/library\rsa.c **** cleanup:
 535:C:/Users/lenovo/Desktop/liteos/Project2/BearPi_LiteOS/components/security/mbedtls/mbedtls-2.6.0/library\rsa.c **** #if defined(MBEDTLS_THREADING_C)
 536:C:/Users/lenovo/Desktop/liteos/Project2/BearPi_LiteOS/components/security/mbedtls/mbedtls-2.6.0/library\rsa.c ****     if( mbedtls_mutex_unlock( &ctx->mutex ) != 0 )
 537:C:/Users/lenovo/Desktop/liteos/Project2/BearPi_LiteOS/components/security/mbedtls/mbedtls-2.6.0/library\rsa.c ****         return( MBEDTLS_ERR_THREADING_MUTEX_ERROR );
 538:C:/Users/lenovo/Desktop/liteos/Project2/BearPi_LiteOS/components/security/mbedtls/mbedtls-2.6.0/library\rsa.c **** #endif
 539:C:/Users/lenovo/Desktop/liteos/Project2/BearPi_LiteOS/components/security/mbedtls/mbedtls-2.6.0/library\rsa.c **** 
 540:C:/Users/lenovo/Desktop/liteos/Project2/BearPi_LiteOS/components/security/mbedtls/mbedtls-2.6.0/library\rsa.c ****     mbedtls_mpi_free( &T ); mbedtls_mpi_free( &T1 ); mbedtls_mpi_free( &T2 );
 541:C:/Users/lenovo/Desktop/liteos/Project2/BearPi_LiteOS/components/security/mbedtls/mbedtls-2.6.0/library\rsa.c ****     mbedtls_mpi_free( &P1 ); mbedtls_mpi_free( &Q1 ); mbedtls_mpi_free( &R );
 542:C:/Users/lenovo/Desktop/liteos/Project2/BearPi_LiteOS/components/security/mbedtls/mbedtls-2.6.0/library\rsa.c **** 
 543:C:/Users/lenovo/Desktop/liteos/Project2/BearPi_LiteOS/components/security/mbedtls/mbedtls-2.6.0/library\rsa.c ****     if( f_rng != NULL )
 544:C:/Users/lenovo/Desktop/liteos/Project2/BearPi_LiteOS/components/security/mbedtls/mbedtls-2.6.0/library\rsa.c ****     {
 545:C:/Users/lenovo/Desktop/liteos/Project2/BearPi_LiteOS/components/security/mbedtls/mbedtls-2.6.0/library\rsa.c **** #if defined(MBEDTLS_RSA_NO_CRT)
 546:C:/Users/lenovo/Desktop/liteos/Project2/BearPi_LiteOS/components/security/mbedtls/mbedtls-2.6.0/library\rsa.c ****         mbedtls_mpi_free( &D_blind );
 547:C:/Users/lenovo/Desktop/liteos/Project2/BearPi_LiteOS/components/security/mbedtls/mbedtls-2.6.0/library\rsa.c **** #else
 548:C:/Users/lenovo/Desktop/liteos/Project2/BearPi_LiteOS/components/security/mbedtls/mbedtls-2.6.0/library\rsa.c ****         mbedtls_mpi_free( &DP_blind );
 549:C:/Users/lenovo/Desktop/liteos/Project2/BearPi_LiteOS/components/security/mbedtls/mbedtls-2.6.0/library\rsa.c ****         mbedtls_mpi_free( &DQ_blind );
ARM GAS  c:\Users\lenovo\AppData\Local\Temp\ccVehGBj.s 			page 15


 550:C:/Users/lenovo/Desktop/liteos/Project2/BearPi_LiteOS/components/security/mbedtls/mbedtls-2.6.0/library\rsa.c **** #endif
 551:C:/Users/lenovo/Desktop/liteos/Project2/BearPi_LiteOS/components/security/mbedtls/mbedtls-2.6.0/library\rsa.c ****     }
 552:C:/Users/lenovo/Desktop/liteos/Project2/BearPi_LiteOS/components/security/mbedtls/mbedtls-2.6.0/library\rsa.c **** 
 553:C:/Users/lenovo/Desktop/liteos/Project2/BearPi_LiteOS/components/security/mbedtls/mbedtls-2.6.0/library\rsa.c ****     if( ret != 0 )
 554:C:/Users/lenovo/Desktop/liteos/Project2/BearPi_LiteOS/components/security/mbedtls/mbedtls-2.6.0/library\rsa.c ****         return( MBEDTLS_ERR_RSA_PRIVATE_FAILED + ret );
 555:C:/Users/lenovo/Desktop/liteos/Project2/BearPi_LiteOS/components/security/mbedtls/mbedtls-2.6.0/library\rsa.c **** 
 556:C:/Users/lenovo/Desktop/liteos/Project2/BearPi_LiteOS/components/security/mbedtls/mbedtls-2.6.0/library\rsa.c ****     return( 0 );
 557:C:/Users/lenovo/Desktop/liteos/Project2/BearPi_LiteOS/components/security/mbedtls/mbedtls-2.6.0/library\rsa.c **** }
 558:C:/Users/lenovo/Desktop/liteos/Project2/BearPi_LiteOS/components/security/mbedtls/mbedtls-2.6.0/library\rsa.c **** 
 559:C:/Users/lenovo/Desktop/liteos/Project2/BearPi_LiteOS/components/security/mbedtls/mbedtls-2.6.0/library\rsa.c **** #if defined(MBEDTLS_PKCS1_V21)
 560:C:/Users/lenovo/Desktop/liteos/Project2/BearPi_LiteOS/components/security/mbedtls/mbedtls-2.6.0/library\rsa.c **** /**
 561:C:/Users/lenovo/Desktop/liteos/Project2/BearPi_LiteOS/components/security/mbedtls/mbedtls-2.6.0/library\rsa.c ****  * Generate and apply the MGF1 operation (from PKCS#1 v2.1) to a buffer.
 562:C:/Users/lenovo/Desktop/liteos/Project2/BearPi_LiteOS/components/security/mbedtls/mbedtls-2.6.0/library\rsa.c ****  *
 563:C:/Users/lenovo/Desktop/liteos/Project2/BearPi_LiteOS/components/security/mbedtls/mbedtls-2.6.0/library\rsa.c ****  * \param dst       buffer to mask
 564:C:/Users/lenovo/Desktop/liteos/Project2/BearPi_LiteOS/components/security/mbedtls/mbedtls-2.6.0/library\rsa.c ****  * \param dlen      length of destination buffer
 565:C:/Users/lenovo/Desktop/liteos/Project2/BearPi_LiteOS/components/security/mbedtls/mbedtls-2.6.0/library\rsa.c ****  * \param src       source of the mask generation
 566:C:/Users/lenovo/Desktop/liteos/Project2/BearPi_LiteOS/components/security/mbedtls/mbedtls-2.6.0/library\rsa.c ****  * \param slen      length of the source buffer
 567:C:/Users/lenovo/Desktop/liteos/Project2/BearPi_LiteOS/components/security/mbedtls/mbedtls-2.6.0/library\rsa.c ****  * \param md_ctx    message digest context to use
 568:C:/Users/lenovo/Desktop/liteos/Project2/BearPi_LiteOS/components/security/mbedtls/mbedtls-2.6.0/library\rsa.c ****  */
 569:C:/Users/lenovo/Desktop/liteos/Project2/BearPi_LiteOS/components/security/mbedtls/mbedtls-2.6.0/library\rsa.c **** static void mgf_mask( unsigned char *dst, size_t dlen, unsigned char *src,
 570:C:/Users/lenovo/Desktop/liteos/Project2/BearPi_LiteOS/components/security/mbedtls/mbedtls-2.6.0/library\rsa.c ****                       size_t slen, mbedtls_md_context_t *md_ctx )
 571:C:/Users/lenovo/Desktop/liteos/Project2/BearPi_LiteOS/components/security/mbedtls/mbedtls-2.6.0/library\rsa.c **** {
 240              		.loc 1 571 0
 241              		.cfi_startproc
 242              		@ args = 4, pretend = 0, frame = 40
 243              		@ frame_needed = 0, uses_anonymous_args = 0
 244              	.LVL34:
 245 0000 2DE9F047 		push	{r4, r5, r6, r7, r8, r9, r10, lr}
 246              	.LCFI4:
 247              		.cfi_def_cfa_offset 32
 248              		.cfi_offset 4, -32
 249              		.cfi_offset 5, -28
 250              		.cfi_offset 6, -24
 251              		.cfi_offset 7, -20
 252              		.cfi_offset 8, -16
 253              		.cfi_offset 9, -12
 254              		.cfi_offset 10, -8
 255              		.cfi_offset 14, -4
 256 0004 8AB0     		sub	sp, sp, #40
 257              	.LCFI5:
 258              		.cfi_def_cfa_offset 72
 259 0006 0446     		mov	r4, r0
 260 0008 0E46     		mov	r6, r1
 261 000a 9246     		mov	r10, r2
 262 000c 9946     		mov	r9, r3
 263 000e 129F     		ldr	r7, [sp, #72]
 572:C:/Users/lenovo/Desktop/liteos/Project2/BearPi_LiteOS/components/security/mbedtls/mbedtls-2.6.0/library\rsa.c ****     unsigned char mask[MBEDTLS_MD_MAX_SIZE];
 573:C:/Users/lenovo/Desktop/liteos/Project2/BearPi_LiteOS/components/security/mbedtls/mbedtls-2.6.0/library\rsa.c ****     unsigned char counter[4];
 574:C:/Users/lenovo/Desktop/liteos/Project2/BearPi_LiteOS/components/security/mbedtls/mbedtls-2.6.0/library\rsa.c ****     unsigned char *p;
 575:C:/Users/lenovo/Desktop/liteos/Project2/BearPi_LiteOS/components/security/mbedtls/mbedtls-2.6.0/library\rsa.c ****     unsigned int hlen;
 576:C:/Users/lenovo/Desktop/liteos/Project2/BearPi_LiteOS/components/security/mbedtls/mbedtls-2.6.0/library\rsa.c ****     size_t i, use_len;
 577:C:/Users/lenovo/Desktop/liteos/Project2/BearPi_LiteOS/components/security/mbedtls/mbedtls-2.6.0/library\rsa.c **** 
 578:C:/Users/lenovo/Desktop/liteos/Project2/BearPi_LiteOS/components/security/mbedtls/mbedtls-2.6.0/library\rsa.c ****     memset( mask, 0, MBEDTLS_MD_MAX_SIZE );
 264              		.loc 1 578 0
 265 0010 2022     		movs	r2, #32
 266              	.LVL35:
 267 0012 0021     		movs	r1, #0
ARM GAS  c:\Users\lenovo\AppData\Local\Temp\ccVehGBj.s 			page 16


 268              	.LVL36:
 269 0014 02A8     		add	r0, sp, #8
 270              	.LVL37:
 271 0016 FFF7FEFF 		bl	memset
 272              	.LVL38:
 579:C:/Users/lenovo/Desktop/liteos/Project2/BearPi_LiteOS/components/security/mbedtls/mbedtls-2.6.0/library\rsa.c ****     memset( counter, 0, 4 );
 273              		.loc 1 579 0
 274 001a 0023     		movs	r3, #0
 275 001c 0193     		str	r3, [sp, #4]
 580:C:/Users/lenovo/Desktop/liteos/Project2/BearPi_LiteOS/components/security/mbedtls/mbedtls-2.6.0/library\rsa.c **** 
 581:C:/Users/lenovo/Desktop/liteos/Project2/BearPi_LiteOS/components/security/mbedtls/mbedtls-2.6.0/library\rsa.c ****     hlen = mbedtls_md_get_size( md_ctx->md_info );
 276              		.loc 1 581 0
 277 001e 3868     		ldr	r0, [r7]
 278 0020 FFF7FEFF 		bl	mbedtls_md_get_size
 279              	.LVL39:
 280 0024 8046     		mov	r8, r0
 281              	.LVL40:
 582:C:/Users/lenovo/Desktop/liteos/Project2/BearPi_LiteOS/components/security/mbedtls/mbedtls-2.6.0/library\rsa.c **** 
 583:C:/Users/lenovo/Desktop/liteos/Project2/BearPi_LiteOS/components/security/mbedtls/mbedtls-2.6.0/library\rsa.c ****     /* Generate and apply dbMask */
 584:C:/Users/lenovo/Desktop/liteos/Project2/BearPi_LiteOS/components/security/mbedtls/mbedtls-2.6.0/library\rsa.c ****     p = dst;
 585:C:/Users/lenovo/Desktop/liteos/Project2/BearPi_LiteOS/components/security/mbedtls/mbedtls-2.6.0/library\rsa.c **** 
 586:C:/Users/lenovo/Desktop/liteos/Project2/BearPi_LiteOS/components/security/mbedtls/mbedtls-2.6.0/library\rsa.c ****     while( dlen > 0 )
 282              		.loc 1 586 0
 283 0026 12E0     		b	.L14
 284              	.LVL41:
 285              	.L19:
 587:C:/Users/lenovo/Desktop/liteos/Project2/BearPi_LiteOS/components/security/mbedtls/mbedtls-2.6.0/library\rsa.c ****     {
 588:C:/Users/lenovo/Desktop/liteos/Project2/BearPi_LiteOS/components/security/mbedtls/mbedtls-2.6.0/library\rsa.c ****         use_len = hlen;
 589:C:/Users/lenovo/Desktop/liteos/Project2/BearPi_LiteOS/components/security/mbedtls/mbedtls-2.6.0/library\rsa.c ****         if( dlen < hlen )
 590:C:/Users/lenovo/Desktop/liteos/Project2/BearPi_LiteOS/components/security/mbedtls/mbedtls-2.6.0/library\rsa.c ****             use_len = dlen;
 286              		.loc 1 590 0
 287 0028 3546     		mov	r5, r6
 288 002a 14E0     		b	.L15
 289              	.LVL42:
 290              	.L17:
 591:C:/Users/lenovo/Desktop/liteos/Project2/BearPi_LiteOS/components/security/mbedtls/mbedtls-2.6.0/library\rsa.c **** 
 592:C:/Users/lenovo/Desktop/liteos/Project2/BearPi_LiteOS/components/security/mbedtls/mbedtls-2.6.0/library\rsa.c ****         mbedtls_md_starts( md_ctx );
 593:C:/Users/lenovo/Desktop/liteos/Project2/BearPi_LiteOS/components/security/mbedtls/mbedtls-2.6.0/library\rsa.c ****         mbedtls_md_update( md_ctx, src, slen );
 594:C:/Users/lenovo/Desktop/liteos/Project2/BearPi_LiteOS/components/security/mbedtls/mbedtls-2.6.0/library\rsa.c ****         mbedtls_md_update( md_ctx, counter, 4 );
 595:C:/Users/lenovo/Desktop/liteos/Project2/BearPi_LiteOS/components/security/mbedtls/mbedtls-2.6.0/library\rsa.c ****         mbedtls_md_finish( md_ctx, mask );
 596:C:/Users/lenovo/Desktop/liteos/Project2/BearPi_LiteOS/components/security/mbedtls/mbedtls-2.6.0/library\rsa.c **** 
 597:C:/Users/lenovo/Desktop/liteos/Project2/BearPi_LiteOS/components/security/mbedtls/mbedtls-2.6.0/library\rsa.c ****         for( i = 0; i < use_len; ++i )
 598:C:/Users/lenovo/Desktop/liteos/Project2/BearPi_LiteOS/components/security/mbedtls/mbedtls-2.6.0/library\rsa.c ****             *p++ ^= mask[i];
 291              		.loc 1 598 0 discriminator 3
 292 002c 0AAA     		add	r2, sp, #40
 293 002e 1A44     		add	r2, r2, r3
 294 0030 12F8202C 		ldrb	r2, [r2, #-32]	@ zero_extendqisi2
 295 0034 2178     		ldrb	r1, [r4]	@ zero_extendqisi2
 296 0036 4A40     		eors	r2, r2, r1
 297 0038 2270     		strb	r2, [r4]
 597:C:/Users/lenovo/Desktop/liteos/Project2/BearPi_LiteOS/components/security/mbedtls/mbedtls-2.6.0/library\rsa.c ****             *p++ ^= mask[i];
 298              		.loc 1 597 0 discriminator 3
 299 003a 0133     		adds	r3, r3, #1
 300              	.LVL43:
 301              		.loc 1 598 0 discriminator 3
 302 003c 0134     		adds	r4, r4, #1
 303              	.LVL44:
ARM GAS  c:\Users\lenovo\AppData\Local\Temp\ccVehGBj.s 			page 17


 304              	.L16:
 597:C:/Users/lenovo/Desktop/liteos/Project2/BearPi_LiteOS/components/security/mbedtls/mbedtls-2.6.0/library\rsa.c ****             *p++ ^= mask[i];
 305              		.loc 1 597 0 discriminator 1
 306 003e AB42     		cmp	r3, r5
 307 0040 F4D3     		bcc	.L17
 599:C:/Users/lenovo/Desktop/liteos/Project2/BearPi_LiteOS/components/security/mbedtls/mbedtls-2.6.0/library\rsa.c **** 
 600:C:/Users/lenovo/Desktop/liteos/Project2/BearPi_LiteOS/components/security/mbedtls/mbedtls-2.6.0/library\rsa.c ****         counter[3]++;
 308              		.loc 1 600 0
 309 0042 9DF80730 		ldrb	r3, [sp, #7]	@ zero_extendqisi2
 310              	.LVL45:
 311 0046 0133     		adds	r3, r3, #1
 312 0048 8DF80730 		strb	r3, [sp, #7]
 601:C:/Users/lenovo/Desktop/liteos/Project2/BearPi_LiteOS/components/security/mbedtls/mbedtls-2.6.0/library\rsa.c **** 
 602:C:/Users/lenovo/Desktop/liteos/Project2/BearPi_LiteOS/components/security/mbedtls/mbedtls-2.6.0/library\rsa.c ****         dlen -= use_len;
 313              		.loc 1 602 0
 314 004c 761B     		subs	r6, r6, r5
 315              	.LVL46:
 316              	.L14:
 586:C:/Users/lenovo/Desktop/liteos/Project2/BearPi_LiteOS/components/security/mbedtls/mbedtls-2.6.0/library\rsa.c ****     {
 317              		.loc 1 586 0
 318 004e B6B1     		cbz	r6, .L21
 319              	.LVL47:
 589:C:/Users/lenovo/Desktop/liteos/Project2/BearPi_LiteOS/components/security/mbedtls/mbedtls-2.6.0/library\rsa.c ****             use_len = dlen;
 320              		.loc 1 589 0
 321 0050 4645     		cmp	r6, r8
 322 0052 E9D3     		bcc	.L19
 588:C:/Users/lenovo/Desktop/liteos/Project2/BearPi_LiteOS/components/security/mbedtls/mbedtls-2.6.0/library\rsa.c ****         if( dlen < hlen )
 323              		.loc 1 588 0
 324 0054 4546     		mov	r5, r8
 325              	.L15:
 326              	.LVL48:
 592:C:/Users/lenovo/Desktop/liteos/Project2/BearPi_LiteOS/components/security/mbedtls/mbedtls-2.6.0/library\rsa.c ****         mbedtls_md_update( md_ctx, src, slen );
 327              		.loc 1 592 0
 328 0056 3846     		mov	r0, r7
 329 0058 FFF7FEFF 		bl	mbedtls_md_starts
 330              	.LVL49:
 593:C:/Users/lenovo/Desktop/liteos/Project2/BearPi_LiteOS/components/security/mbedtls/mbedtls-2.6.0/library\rsa.c ****         mbedtls_md_update( md_ctx, counter, 4 );
 331              		.loc 1 593 0
 332 005c 4A46     		mov	r2, r9
 333 005e 5146     		mov	r1, r10
 334 0060 3846     		mov	r0, r7
 335 0062 FFF7FEFF 		bl	mbedtls_md_update
 336              	.LVL50:
 594:C:/Users/lenovo/Desktop/liteos/Project2/BearPi_LiteOS/components/security/mbedtls/mbedtls-2.6.0/library\rsa.c ****         mbedtls_md_finish( md_ctx, mask );
 337              		.loc 1 594 0
 338 0066 0422     		movs	r2, #4
 339 0068 0DEB0201 		add	r1, sp, r2
 340 006c 3846     		mov	r0, r7
 341 006e FFF7FEFF 		bl	mbedtls_md_update
 342              	.LVL51:
 595:C:/Users/lenovo/Desktop/liteos/Project2/BearPi_LiteOS/components/security/mbedtls/mbedtls-2.6.0/library\rsa.c **** 
 343              		.loc 1 595 0
 344 0072 02A9     		add	r1, sp, #8
 345 0074 3846     		mov	r0, r7
 346 0076 FFF7FEFF 		bl	mbedtls_md_finish
 347              	.LVL52:
 597:C:/Users/lenovo/Desktop/liteos/Project2/BearPi_LiteOS/components/security/mbedtls/mbedtls-2.6.0/library\rsa.c ****             *p++ ^= mask[i];
ARM GAS  c:\Users\lenovo\AppData\Local\Temp\ccVehGBj.s 			page 18


 348              		.loc 1 597 0
 349 007a 0023     		movs	r3, #0
 350 007c DFE7     		b	.L16
 351              	.LVL53:
 352              	.L21:
 603:C:/Users/lenovo/Desktop/liteos/Project2/BearPi_LiteOS/components/security/mbedtls/mbedtls-2.6.0/library\rsa.c ****     }
 604:C:/Users/lenovo/Desktop/liteos/Project2/BearPi_LiteOS/components/security/mbedtls/mbedtls-2.6.0/library\rsa.c **** 
 605:C:/Users/lenovo/Desktop/liteos/Project2/BearPi_LiteOS/components/security/mbedtls/mbedtls-2.6.0/library\rsa.c ****     mbedtls_zeroize( mask, sizeof( mask ) );
 353              		.loc 1 605 0
 354 007e 2021     		movs	r1, #32
 355 0080 02A8     		add	r0, sp, #8
 356 0082 FFF7FEFF 		bl	mbedtls_zeroize
 357              	.LVL54:
 606:C:/Users/lenovo/Desktop/liteos/Project2/BearPi_LiteOS/components/security/mbedtls/mbedtls-2.6.0/library\rsa.c **** }
 358              		.loc 1 606 0
 359 0086 0AB0     		add	sp, sp, #40
 360              	.LCFI6:
 361              		.cfi_def_cfa_offset 32
 362              		@ sp needed
 363 0088 BDE8F087 		pop	{r4, r5, r6, r7, r8, r9, r10, pc}
 364              		.cfi_endproc
 365              	.LFE21:
 367              		.section	.text.mbedtls_rsa_set_padding,"ax",%progbits
 368              		.align	1
 369              		.global	mbedtls_rsa_set_padding
 370              		.syntax unified
 371              		.thumb
 372              		.thumb_func
 373              		.fpu fpv4-sp-d16
 375              	mbedtls_rsa_set_padding:
 376              	.LFB14:
  94:C:/Users/lenovo/Desktop/liteos/Project2/BearPi_LiteOS/components/security/mbedtls/mbedtls-2.6.0/library\rsa.c ****     ctx->padding = padding;
 377              		.loc 1 94 0
 378              		.cfi_startproc
 379              		@ args = 0, pretend = 0, frame = 0
 380              		@ frame_needed = 0, uses_anonymous_args = 0
 381              		@ link register save eliminated.
 382              	.LVL55:
  95:C:/Users/lenovo/Desktop/liteos/Project2/BearPi_LiteOS/components/security/mbedtls/mbedtls-2.6.0/library\rsa.c ****     ctx->hash_id = hash_id;
 383              		.loc 1 95 0
 384 0000 C0F8A410 		str	r1, [r0, #164]
  96:C:/Users/lenovo/Desktop/liteos/Project2/BearPi_LiteOS/components/security/mbedtls/mbedtls-2.6.0/library\rsa.c **** }
 385              		.loc 1 96 0
 386 0004 C0F8A820 		str	r2, [r0, #168]
  97:C:/Users/lenovo/Desktop/liteos/Project2/BearPi_LiteOS/components/security/mbedtls/mbedtls-2.6.0/library\rsa.c **** 
 387              		.loc 1 97 0
 388 0008 7047     		bx	lr
 389              		.cfi_endproc
 390              	.LFE14:
 392              		.section	.text.mbedtls_rsa_init,"ax",%progbits
 393              		.align	1
 394              		.global	mbedtls_rsa_init
 395              		.syntax unified
 396              		.thumb
 397              		.thumb_func
 398              		.fpu fpv4-sp-d16
 400              	mbedtls_rsa_init:
ARM GAS  c:\Users\lenovo\AppData\Local\Temp\ccVehGBj.s 			page 19


 401              	.LFB13:
  80:C:/Users/lenovo/Desktop/liteos/Project2/BearPi_LiteOS/components/security/mbedtls/mbedtls-2.6.0/library\rsa.c ****     memset( ctx, 0, sizeof( mbedtls_rsa_context ) );
 402              		.loc 1 80 0
 403              		.cfi_startproc
 404              		@ args = 0, pretend = 0, frame = 0
 405              		@ frame_needed = 0, uses_anonymous_args = 0
 406              	.LVL56:
 407 0000 70B5     		push	{r4, r5, r6, lr}
 408              	.LCFI7:
 409              		.cfi_def_cfa_offset 16
 410              		.cfi_offset 4, -16
 411              		.cfi_offset 5, -12
 412              		.cfi_offset 6, -8
 413              		.cfi_offset 14, -4
 414 0002 0446     		mov	r4, r0
 415 0004 0D46     		mov	r5, r1
 416 0006 1646     		mov	r6, r2
  81:C:/Users/lenovo/Desktop/liteos/Project2/BearPi_LiteOS/components/security/mbedtls/mbedtls-2.6.0/library\rsa.c **** 
 417              		.loc 1 81 0
 418 0008 AC22     		movs	r2, #172
 419              	.LVL57:
 420 000a 0021     		movs	r1, #0
 421              	.LVL58:
 422 000c FFF7FEFF 		bl	memset
 423              	.LVL59:
  83:C:/Users/lenovo/Desktop/liteos/Project2/BearPi_LiteOS/components/security/mbedtls/mbedtls-2.6.0/library\rsa.c **** 
 424              		.loc 1 83 0
 425 0010 3246     		mov	r2, r6
 426 0012 2946     		mov	r1, r5
 427 0014 2046     		mov	r0, r4
 428 0016 FFF7FEFF 		bl	mbedtls_rsa_set_padding
 429              	.LVL60:
  88:C:/Users/lenovo/Desktop/liteos/Project2/BearPi_LiteOS/components/security/mbedtls/mbedtls-2.6.0/library\rsa.c **** 
 430              		.loc 1 88 0
 431 001a 70BD     		pop	{r4, r5, r6, pc}
 432              		.cfi_endproc
 433              	.LFE13:
 435              		.section	.text.mbedtls_rsa_check_pubkey,"ax",%progbits
 436              		.align	1
 437              		.global	mbedtls_rsa_check_pubkey
 438              		.syntax unified
 439              		.thumb
 440              		.thumb_func
 441              		.fpu fpv4-sp-d16
 443              	mbedtls_rsa_check_pubkey:
 444              	.LFB15:
 184:C:/Users/lenovo/Desktop/liteos/Project2/BearPi_LiteOS/components/security/mbedtls/mbedtls-2.6.0/library\rsa.c ****     if( !ctx->N.p || !ctx->E.p )
 445              		.loc 1 184 0
 446              		.cfi_startproc
 447              		@ args = 0, pretend = 0, frame = 0
 448              		@ frame_needed = 0, uses_anonymous_args = 0
 449              	.LVL61:
 450 0000 38B5     		push	{r3, r4, r5, lr}
 451              	.LCFI8:
 452              		.cfi_def_cfa_offset 16
 453              		.cfi_offset 3, -16
 454              		.cfi_offset 4, -12
ARM GAS  c:\Users\lenovo\AppData\Local\Temp\ccVehGBj.s 			page 20


 455              		.cfi_offset 5, -8
 456              		.cfi_offset 14, -4
 185:C:/Users/lenovo/Desktop/liteos/Project2/BearPi_LiteOS/components/security/mbedtls/mbedtls-2.6.0/library\rsa.c ****         return( MBEDTLS_ERR_RSA_KEY_CHECK_FAILED );
 457              		.loc 1 185 0
 458 0002 0369     		ldr	r3, [r0, #16]
 459 0004 2BB3     		cbz	r3, .L27
 185:C:/Users/lenovo/Desktop/liteos/Project2/BearPi_LiteOS/components/security/mbedtls/mbedtls-2.6.0/library\rsa.c ****         return( MBEDTLS_ERR_RSA_KEY_CHECK_FAILED );
 460              		.loc 1 185 0 is_stmt 0 discriminator 1
 461 0006 C269     		ldr	r2, [r0, #28]
 462 0008 2AB3     		cbz	r2, .L28
 188:C:/Users/lenovo/Desktop/liteos/Project2/BearPi_LiteOS/components/security/mbedtls/mbedtls-2.6.0/library\rsa.c ****         ( ctx->E.p[0] & 1 ) == 0 )
 463              		.loc 1 188 0 is_stmt 1
 464 000a 1B68     		ldr	r3, [r3]
 465 000c 13F0010F 		tst	r3, #1
 466 0010 23D0     		beq	.L29
 189:C:/Users/lenovo/Desktop/liteos/Project2/BearPi_LiteOS/components/security/mbedtls/mbedtls-2.6.0/library\rsa.c ****         return( MBEDTLS_ERR_RSA_KEY_CHECK_FAILED );
 467              		.loc 1 189 0 discriminator 1
 468 0012 1368     		ldr	r3, [r2]
 188:C:/Users/lenovo/Desktop/liteos/Project2/BearPi_LiteOS/components/security/mbedtls/mbedtls-2.6.0/library\rsa.c ****         ( ctx->E.p[0] & 1 ) == 0 )
 469              		.loc 1 188 0 discriminator 1
 470 0014 13F0010F 		tst	r3, #1
 471 0018 21D0     		beq	.L30
 472 001a 0446     		mov	r4, r0
 192:C:/Users/lenovo/Desktop/liteos/Project2/BearPi_LiteOS/components/security/mbedtls/mbedtls-2.6.0/library\rsa.c ****         mbedtls_mpi_bitlen( &ctx->N ) > MBEDTLS_MPI_MAX_BITS )
 473              		.loc 1 192 0
 474 001c 00F10805 		add	r5, r0, #8
 475 0020 2846     		mov	r0, r5
 476              	.LVL62:
 477 0022 FFF7FEFF 		bl	mbedtls_mpi_bitlen
 478              	.LVL63:
 479 0026 7F28     		cmp	r0, #127
 480 0028 1BD9     		bls	.L31
 193:C:/Users/lenovo/Desktop/liteos/Project2/BearPi_LiteOS/components/security/mbedtls/mbedtls-2.6.0/library\rsa.c ****         return( MBEDTLS_ERR_RSA_KEY_CHECK_FAILED );
 481              		.loc 1 193 0 discriminator 1
 482 002a 2846     		mov	r0, r5
 483 002c FFF7FEFF 		bl	mbedtls_mpi_bitlen
 484              	.LVL64:
 192:C:/Users/lenovo/Desktop/liteos/Project2/BearPi_LiteOS/components/security/mbedtls/mbedtls-2.6.0/library\rsa.c ****         mbedtls_mpi_bitlen( &ctx->N ) > MBEDTLS_MPI_MAX_BITS )
 485              		.loc 1 192 0 discriminator 1
 486 0030 B0F5005F 		cmp	r0, #8192
 487 0034 17D8     		bhi	.L32
 196:C:/Users/lenovo/Desktop/liteos/Project2/BearPi_LiteOS/components/security/mbedtls/mbedtls-2.6.0/library\rsa.c ****         mbedtls_mpi_cmp_mpi( &ctx->E, &ctx->N ) >= 0 )
 488              		.loc 1 196 0
 489 0036 1434     		adds	r4, r4, #20
 490              	.LVL65:
 491 0038 2046     		mov	r0, r4
 492 003a FFF7FEFF 		bl	mbedtls_mpi_bitlen
 493              	.LVL66:
 494 003e 0128     		cmp	r0, #1
 495 0040 13D9     		bls	.L33
 197:C:/Users/lenovo/Desktop/liteos/Project2/BearPi_LiteOS/components/security/mbedtls/mbedtls-2.6.0/library\rsa.c ****         return( MBEDTLS_ERR_RSA_KEY_CHECK_FAILED );
 496              		.loc 1 197 0 discriminator 1
 497 0042 2946     		mov	r1, r5
 498 0044 2046     		mov	r0, r4
 499 0046 FFF7FEFF 		bl	mbedtls_mpi_cmp_mpi
 500              	.LVL67:
 196:C:/Users/lenovo/Desktop/liteos/Project2/BearPi_LiteOS/components/security/mbedtls/mbedtls-2.6.0/library\rsa.c ****         mbedtls_mpi_cmp_mpi( &ctx->E, &ctx->N ) >= 0 )
ARM GAS  c:\Users\lenovo\AppData\Local\Temp\ccVehGBj.s 			page 21


 501              		.loc 1 196 0 discriminator 1
 502 004a 0028     		cmp	r0, #0
 503 004c 0FDA     		bge	.L34
 200:C:/Users/lenovo/Desktop/liteos/Project2/BearPi_LiteOS/components/security/mbedtls/mbedtls-2.6.0/library\rsa.c **** }
 504              		.loc 1 200 0
 505 004e 0020     		movs	r0, #0
 506              	.LVL68:
 507              	.L25:
 201:C:/Users/lenovo/Desktop/liteos/Project2/BearPi_LiteOS/components/security/mbedtls/mbedtls-2.6.0/library\rsa.c **** 
 508              		.loc 1 201 0
 509 0050 38BD     		pop	{r3, r4, r5, pc}
 510              	.LVL69:
 511              	.L27:
 186:C:/Users/lenovo/Desktop/liteos/Project2/BearPi_LiteOS/components/security/mbedtls/mbedtls-2.6.0/library\rsa.c **** 
 512              		.loc 1 186 0
 513 0052 0848     		ldr	r0, .L36
 514              	.LVL70:
 515 0054 FCE7     		b	.L25
 516              	.LVL71:
 517              	.L28:
 518 0056 0748     		ldr	r0, .L36
 519              	.LVL72:
 520 0058 FAE7     		b	.L25
 521              	.LVL73:
 522              	.L29:
 190:C:/Users/lenovo/Desktop/liteos/Project2/BearPi_LiteOS/components/security/mbedtls/mbedtls-2.6.0/library\rsa.c **** 
 523              		.loc 1 190 0
 524 005a 0648     		ldr	r0, .L36
 525              	.LVL74:
 526 005c F8E7     		b	.L25
 527              	.LVL75:
 528              	.L30:
 529 005e 0548     		ldr	r0, .L36
 530              	.LVL76:
 531 0060 F6E7     		b	.L25
 532              	.LVL77:
 533              	.L31:
 194:C:/Users/lenovo/Desktop/liteos/Project2/BearPi_LiteOS/components/security/mbedtls/mbedtls-2.6.0/library\rsa.c **** 
 534              		.loc 1 194 0
 535 0062 0448     		ldr	r0, .L36
 536 0064 F4E7     		b	.L25
 537              	.L32:
 538 0066 0348     		ldr	r0, .L36
 539 0068 F2E7     		b	.L25
 540              	.LVL78:
 541              	.L33:
 198:C:/Users/lenovo/Desktop/liteos/Project2/BearPi_LiteOS/components/security/mbedtls/mbedtls-2.6.0/library\rsa.c **** 
 542              		.loc 1 198 0
 543 006a 0248     		ldr	r0, .L36
 544 006c F0E7     		b	.L25
 545              	.L34:
 546 006e 0148     		ldr	r0, .L36
 547 0070 EEE7     		b	.L25
 548              	.L37:
 549 0072 00BF     		.align	2
 550              	.L36:
 551 0074 00BEFFFF 		.word	-16896
ARM GAS  c:\Users\lenovo\AppData\Local\Temp\ccVehGBj.s 			page 22


 552              		.cfi_endproc
 553              	.LFE15:
 555              		.section	.text.mbedtls_rsa_check_privkey,"ax",%progbits
 556              		.align	1
 557              		.global	mbedtls_rsa_check_privkey
 558              		.syntax unified
 559              		.thumb
 560              		.thumb_func
 561              		.fpu fpv4-sp-d16
 563              	mbedtls_rsa_check_privkey:
 564              	.LFB16:
 207:C:/Users/lenovo/Desktop/liteos/Project2/BearPi_LiteOS/components/security/mbedtls/mbedtls-2.6.0/library\rsa.c ****     int ret;
 565              		.loc 1 207 0
 566              		.cfi_startproc
 567              		@ args = 0, pretend = 0, frame = 160
 568              		@ frame_needed = 0, uses_anonymous_args = 0
 569              	.LVL79:
 570 0000 2DE9F043 		push	{r4, r5, r6, r7, r8, r9, lr}
 571              	.LCFI9:
 572              		.cfi_def_cfa_offset 28
 573              		.cfi_offset 4, -28
 574              		.cfi_offset 5, -24
 575              		.cfi_offset 6, -20
 576              		.cfi_offset 7, -16
 577              		.cfi_offset 8, -12
 578              		.cfi_offset 9, -8
 579              		.cfi_offset 14, -4
 580 0004 A9B0     		sub	sp, sp, #164
 581              	.LCFI10:
 582              		.cfi_def_cfa_offset 192
 583 0006 0546     		mov	r5, r0
 211:C:/Users/lenovo/Desktop/liteos/Project2/BearPi_LiteOS/components/security/mbedtls/mbedtls-2.6.0/library\rsa.c ****         return( ret );
 584              		.loc 1 211 0
 585 0008 FFF7FEFF 		bl	mbedtls_rsa_check_pubkey
 586              	.LVL80:
 587 000c 0446     		mov	r4, r0
 588 000e 0028     		cmp	r0, #0
 589 0010 6AD1     		bne	.L38
 214:C:/Users/lenovo/Desktop/liteos/Project2/BearPi_LiteOS/components/security/mbedtls/mbedtls-2.6.0/library\rsa.c ****         return( MBEDTLS_ERR_RSA_KEY_CHECK_FAILED );
 590              		.loc 1 214 0
 591 0012 6B6B     		ldr	r3, [r5, #52]
 592 0014 002B     		cmp	r3, #0
 593 0016 00F00181 		beq	.L41
 214:C:/Users/lenovo/Desktop/liteos/Project2/BearPi_LiteOS/components/security/mbedtls/mbedtls-2.6.0/library\rsa.c ****         return( MBEDTLS_ERR_RSA_KEY_CHECK_FAILED );
 594              		.loc 1 214 0 is_stmt 0 discriminator 1
 595 001a 2B6C     		ldr	r3, [r5, #64]
 596 001c 002B     		cmp	r3, #0
 597 001e 00F0FF80 		beq	.L42
 214:C:/Users/lenovo/Desktop/liteos/Project2/BearPi_LiteOS/components/security/mbedtls/mbedtls-2.6.0/library\rsa.c ****         return( MBEDTLS_ERR_RSA_KEY_CHECK_FAILED );
 598              		.loc 1 214 0 discriminator 2
 599 0022 AB6A     		ldr	r3, [r5, #40]
 600 0024 002B     		cmp	r3, #0
 601 0026 00F0FD80 		beq	.L43
 217:C:/Users/lenovo/Desktop/liteos/Project2/BearPi_LiteOS/components/security/mbedtls/mbedtls-2.6.0/library\rsa.c ****     mbedtls_mpi_init( &H  ); mbedtls_mpi_init( &I  ); mbedtls_mpi_init( &G  ); mbedtls_mpi_init( &G
 602              		.loc 1 217 0 is_stmt 1
 603 002a 25A8     		add	r0, sp, #148
 604              	.LVL81:
ARM GAS  c:\Users\lenovo\AppData\Local\Temp\ccVehGBj.s 			page 23


 605 002c FFF7FEFF 		bl	mbedtls_mpi_init
 606              	.LVL82:
 607 0030 22A8     		add	r0, sp, #136
 608 0032 FFF7FEFF 		bl	mbedtls_mpi_init
 609              	.LVL83:
 610 0036 1FA8     		add	r0, sp, #124
 611 0038 FFF7FEFF 		bl	mbedtls_mpi_init
 612              	.LVL84:
 613 003c 1CA8     		add	r0, sp, #112
 614 003e FFF7FEFF 		bl	mbedtls_mpi_init
 615              	.LVL85:
 218:C:/Users/lenovo/Desktop/liteos/Project2/BearPi_LiteOS/components/security/mbedtls/mbedtls-2.6.0/library\rsa.c ****     mbedtls_mpi_init( &L1 ); mbedtls_mpi_init( &L2 ); mbedtls_mpi_init( &DP ); mbedtls_mpi_init( &D
 616              		.loc 1 218 0
 617 0042 19A8     		add	r0, sp, #100
 618 0044 FFF7FEFF 		bl	mbedtls_mpi_init
 619              	.LVL86:
 620 0048 16A8     		add	r0, sp, #88
 621 004a FFF7FEFF 		bl	mbedtls_mpi_init
 622              	.LVL87:
 623 004e 13A8     		add	r0, sp, #76
 624 0050 FFF7FEFF 		bl	mbedtls_mpi_init
 625              	.LVL88:
 626 0054 10A8     		add	r0, sp, #64
 627 0056 FFF7FEFF 		bl	mbedtls_mpi_init
 628              	.LVL89:
 219:C:/Users/lenovo/Desktop/liteos/Project2/BearPi_LiteOS/components/security/mbedtls/mbedtls-2.6.0/library\rsa.c ****     mbedtls_mpi_init( &QP );
 629              		.loc 1 219 0
 630 005a 0DA8     		add	r0, sp, #52
 631 005c FFF7FEFF 		bl	mbedtls_mpi_init
 632              	.LVL90:
 633 0060 0AA8     		add	r0, sp, #40
 634 0062 FFF7FEFF 		bl	mbedtls_mpi_init
 635              	.LVL91:
 636 0066 07A8     		add	r0, sp, #28
 637 0068 FFF7FEFF 		bl	mbedtls_mpi_init
 638              	.LVL92:
 639 006c 04A8     		add	r0, sp, #16
 640 006e FFF7FEFF 		bl	mbedtls_mpi_init
 641              	.LVL93:
 220:C:/Users/lenovo/Desktop/liteos/Project2/BearPi_LiteOS/components/security/mbedtls/mbedtls-2.6.0/library\rsa.c **** 
 642              		.loc 1 220 0
 643 0072 01A8     		add	r0, sp, #4
 644 0074 FFF7FEFF 		bl	mbedtls_mpi_init
 645              	.LVL94:
 222:C:/Users/lenovo/Desktop/liteos/Project2/BearPi_LiteOS/components/security/mbedtls/mbedtls-2.6.0/library\rsa.c ****     MBEDTLS_MPI_CHK( mbedtls_mpi_mul_mpi( &DE, &ctx->D, &ctx->E ) );
 646              		.loc 1 222 0
 647 0078 05F12C06 		add	r6, r5, #44
 648 007c 05F13807 		add	r7, r5, #56
 649 0080 3A46     		mov	r2, r7
 650 0082 3146     		mov	r1, r6
 651 0084 25A8     		add	r0, sp, #148
 652 0086 FFF7FEFF 		bl	mbedtls_mpi_mul_mpi
 653              	.LVL95:
 654 008a 0446     		mov	r4, r0
 655 008c 80B3     		cbz	r0, .L52
 656              	.LVL96:
 657              	.L40:
ARM GAS  c:\Users\lenovo\AppData\Local\Temp\ccVehGBj.s 			page 24


 251:C:/Users/lenovo/Desktop/liteos/Project2/BearPi_LiteOS/components/security/mbedtls/mbedtls-2.6.0/library\rsa.c ****     mbedtls_mpi_free( &H  ); mbedtls_mpi_free( &I  ); mbedtls_mpi_free( &G  ); mbedtls_mpi_free( &G
 658              		.loc 1 251 0
 659 008e 25A8     		add	r0, sp, #148
 660 0090 FFF7FEFF 		bl	mbedtls_mpi_free
 661              	.LVL97:
 662 0094 22A8     		add	r0, sp, #136
 663 0096 FFF7FEFF 		bl	mbedtls_mpi_free
 664              	.LVL98:
 665 009a 1FA8     		add	r0, sp, #124
 666 009c FFF7FEFF 		bl	mbedtls_mpi_free
 667              	.LVL99:
 668 00a0 1CA8     		add	r0, sp, #112
 669 00a2 FFF7FEFF 		bl	mbedtls_mpi_free
 670              	.LVL100:
 252:C:/Users/lenovo/Desktop/liteos/Project2/BearPi_LiteOS/components/security/mbedtls/mbedtls-2.6.0/library\rsa.c ****     mbedtls_mpi_free( &L1 ); mbedtls_mpi_free( &L2 ); mbedtls_mpi_free( &DP ); mbedtls_mpi_free( &D
 671              		.loc 1 252 0
 672 00a6 19A8     		add	r0, sp, #100
 673 00a8 FFF7FEFF 		bl	mbedtls_mpi_free
 674              	.LVL101:
 675 00ac 16A8     		add	r0, sp, #88
 676 00ae FFF7FEFF 		bl	mbedtls_mpi_free
 677              	.LVL102:
 678 00b2 13A8     		add	r0, sp, #76
 679 00b4 FFF7FEFF 		bl	mbedtls_mpi_free
 680              	.LVL103:
 681 00b8 10A8     		add	r0, sp, #64
 682 00ba FFF7FEFF 		bl	mbedtls_mpi_free
 683              	.LVL104:
 253:C:/Users/lenovo/Desktop/liteos/Project2/BearPi_LiteOS/components/security/mbedtls/mbedtls-2.6.0/library\rsa.c ****     mbedtls_mpi_free( &QP );
 684              		.loc 1 253 0
 685 00be 0DA8     		add	r0, sp, #52
 686 00c0 FFF7FEFF 		bl	mbedtls_mpi_free
 687              	.LVL105:
 688 00c4 0AA8     		add	r0, sp, #40
 689 00c6 FFF7FEFF 		bl	mbedtls_mpi_free
 690              	.LVL106:
 691 00ca 07A8     		add	r0, sp, #28
 692 00cc FFF7FEFF 		bl	mbedtls_mpi_free
 693              	.LVL107:
 694 00d0 04A8     		add	r0, sp, #16
 695 00d2 FFF7FEFF 		bl	mbedtls_mpi_free
 696              	.LVL108:
 254:C:/Users/lenovo/Desktop/liteos/Project2/BearPi_LiteOS/components/security/mbedtls/mbedtls-2.6.0/library\rsa.c **** 
 697              		.loc 1 254 0
 698 00d6 01A8     		add	r0, sp, #4
 699 00d8 FFF7FEFF 		bl	mbedtls_mpi_free
 700              	.LVL109:
 256:C:/Users/lenovo/Desktop/liteos/Project2/BearPi_LiteOS/components/security/mbedtls/mbedtls-2.6.0/library\rsa.c ****         return( ret );
 701              		.loc 1 256 0
 702 00dc 14F5844F 		cmn	r4, #16896
 703 00e0 02D0     		beq	.L38
 259:C:/Users/lenovo/Desktop/liteos/Project2/BearPi_LiteOS/components/security/mbedtls/mbedtls-2.6.0/library\rsa.c ****         return( MBEDTLS_ERR_RSA_KEY_CHECK_FAILED + ret );
 704              		.loc 1 259 0
 705 00e2 0CB1     		cbz	r4, .L38
 260:C:/Users/lenovo/Desktop/liteos/Project2/BearPi_LiteOS/components/security/mbedtls/mbedtls-2.6.0/library\rsa.c **** 
 706              		.loc 1 260 0
 707 00e4 A4F58444 		sub	r4, r4, #16896
ARM GAS  c:\Users\lenovo\AppData\Local\Temp\ccVehGBj.s 			page 25


 708              	.LVL110:
 709              	.L38:
 263:C:/Users/lenovo/Desktop/liteos/Project2/BearPi_LiteOS/components/security/mbedtls/mbedtls-2.6.0/library\rsa.c **** 
 710              		.loc 1 263 0
 711 00e8 2046     		mov	r0, r4
 712 00ea 29B0     		add	sp, sp, #164
 713              	.LCFI11:
 714              		.cfi_remember_state
 715              		.cfi_def_cfa_offset 28
 716              		@ sp needed
 717 00ec BDE8F083 		pop	{r4, r5, r6, r7, r8, r9, pc}
 718              	.LVL111:
 719              	.L52:
 720              	.LCFI12:
 721              		.cfi_restore_state
 223:C:/Users/lenovo/Desktop/liteos/Project2/BearPi_LiteOS/components/security/mbedtls/mbedtls-2.6.0/library\rsa.c ****     MBEDTLS_MPI_CHK( mbedtls_mpi_sub_int( &P1, &ctx->P, 1 ) );
 722              		.loc 1 223 0
 723 00f0 05F12008 		add	r8, r5, #32
 724 00f4 05F11409 		add	r9, r5, #20
 725 00f8 4A46     		mov	r2, r9
 726 00fa 4146     		mov	r1, r8
 727 00fc 22A8     		add	r0, sp, #136
 728              	.LVL112:
 729 00fe FFF7FEFF 		bl	mbedtls_mpi_mul_mpi
 730              	.LVL113:
 731 0102 0446     		mov	r4, r0
 732 0104 0028     		cmp	r0, #0
 733 0106 C2D1     		bne	.L40
 224:C:/Users/lenovo/Desktop/liteos/Project2/BearPi_LiteOS/components/security/mbedtls/mbedtls-2.6.0/library\rsa.c ****     MBEDTLS_MPI_CHK( mbedtls_mpi_sub_int( &Q1, &ctx->Q, 1 ) );
 734              		.loc 1 224 0
 735 0108 0122     		movs	r2, #1
 736 010a 3146     		mov	r1, r6
 737 010c 1FA8     		add	r0, sp, #124
 738              	.LVL114:
 739 010e FFF7FEFF 		bl	mbedtls_mpi_sub_int
 740              	.LVL115:
 741 0112 0446     		mov	r4, r0
 742 0114 0028     		cmp	r0, #0
 743 0116 BAD1     		bne	.L40
 225:C:/Users/lenovo/Desktop/liteos/Project2/BearPi_LiteOS/components/security/mbedtls/mbedtls-2.6.0/library\rsa.c ****     MBEDTLS_MPI_CHK( mbedtls_mpi_mul_mpi( &H, &P1, &Q1 ) );
 744              		.loc 1 225 0
 745 0118 0122     		movs	r2, #1
 746 011a 3946     		mov	r1, r7
 747 011c 1CA8     		add	r0, sp, #112
 748              	.LVL116:
 749 011e FFF7FEFF 		bl	mbedtls_mpi_sub_int
 750              	.LVL117:
 751 0122 0446     		mov	r4, r0
 752 0124 0028     		cmp	r0, #0
 753 0126 B2D1     		bne	.L40
 226:C:/Users/lenovo/Desktop/liteos/Project2/BearPi_LiteOS/components/security/mbedtls/mbedtls-2.6.0/library\rsa.c ****     MBEDTLS_MPI_CHK( mbedtls_mpi_gcd( &G, &ctx->E, &H  ) );
 754              		.loc 1 226 0
 755 0128 1CAA     		add	r2, sp, #112
 756 012a 1FA9     		add	r1, sp, #124
 757 012c 19A8     		add	r0, sp, #100
 758              	.LVL118:
 759 012e FFF7FEFF 		bl	mbedtls_mpi_mul_mpi
ARM GAS  c:\Users\lenovo\AppData\Local\Temp\ccVehGBj.s 			page 26


 760              	.LVL119:
 761 0132 0446     		mov	r4, r0
 762 0134 0028     		cmp	r0, #0
 763 0136 AAD1     		bne	.L40
 227:C:/Users/lenovo/Desktop/liteos/Project2/BearPi_LiteOS/components/security/mbedtls/mbedtls-2.6.0/library\rsa.c **** 
 764              		.loc 1 227 0
 765 0138 19AA     		add	r2, sp, #100
 766 013a 4946     		mov	r1, r9
 767 013c 13A8     		add	r0, sp, #76
 768              	.LVL120:
 769 013e FFF7FEFF 		bl	mbedtls_mpi_gcd
 770              	.LVL121:
 771 0142 0446     		mov	r4, r0
 772 0144 0028     		cmp	r0, #0
 773 0146 A2D1     		bne	.L40
 229:C:/Users/lenovo/Desktop/liteos/Project2/BearPi_LiteOS/components/security/mbedtls/mbedtls-2.6.0/library\rsa.c ****     MBEDTLS_MPI_CHK( mbedtls_mpi_div_mpi( &L1, &L2, &H, &G2 ) );
 774              		.loc 1 229 0
 775 0148 1CAA     		add	r2, sp, #112
 776 014a 1FA9     		add	r1, sp, #124
 777 014c 10A8     		add	r0, sp, #64
 778              	.LVL122:
 779 014e FFF7FEFF 		bl	mbedtls_mpi_gcd
 780              	.LVL123:
 781 0152 0446     		mov	r4, r0
 782 0154 0028     		cmp	r0, #0
 783 0156 9AD1     		bne	.L40
 230:C:/Users/lenovo/Desktop/liteos/Project2/BearPi_LiteOS/components/security/mbedtls/mbedtls-2.6.0/library\rsa.c ****     MBEDTLS_MPI_CHK( mbedtls_mpi_mod_mpi( &I, &DE, &L1  ) );
 784              		.loc 1 230 0
 785 0158 10AB     		add	r3, sp, #64
 786 015a 19AA     		add	r2, sp, #100
 787 015c 0AA9     		add	r1, sp, #40
 788 015e 0DA8     		add	r0, sp, #52
 789              	.LVL124:
 790 0160 FFF7FEFF 		bl	mbedtls_mpi_div_mpi
 791              	.LVL125:
 792 0164 0446     		mov	r4, r0
 793 0166 0028     		cmp	r0, #0
 794 0168 91D1     		bne	.L40
 231:C:/Users/lenovo/Desktop/liteos/Project2/BearPi_LiteOS/components/security/mbedtls/mbedtls-2.6.0/library\rsa.c **** 
 795              		.loc 1 231 0
 796 016a 0DAA     		add	r2, sp, #52
 797 016c 22A9     		add	r1, sp, #136
 798 016e 16A8     		add	r0, sp, #88
 799              	.LVL126:
 800 0170 FFF7FEFF 		bl	mbedtls_mpi_mod_mpi
 801              	.LVL127:
 802 0174 0446     		mov	r4, r0
 803 0176 0028     		cmp	r0, #0
 804 0178 89D1     		bne	.L40
 233:C:/Users/lenovo/Desktop/liteos/Project2/BearPi_LiteOS/components/security/mbedtls/mbedtls-2.6.0/library\rsa.c ****     MBEDTLS_MPI_CHK( mbedtls_mpi_mod_mpi( &DQ, &ctx->D, &Q1 ) );
 805              		.loc 1 233 0
 806 017a 1FAA     		add	r2, sp, #124
 807 017c 4146     		mov	r1, r8
 808 017e 07A8     		add	r0, sp, #28
 809              	.LVL128:
 810 0180 FFF7FEFF 		bl	mbedtls_mpi_mod_mpi
 811              	.LVL129:
ARM GAS  c:\Users\lenovo\AppData\Local\Temp\ccVehGBj.s 			page 27


 812 0184 0446     		mov	r4, r0
 813 0186 0028     		cmp	r0, #0
 814 0188 81D1     		bne	.L40
 234:C:/Users/lenovo/Desktop/liteos/Project2/BearPi_LiteOS/components/security/mbedtls/mbedtls-2.6.0/library\rsa.c ****     MBEDTLS_MPI_CHK( mbedtls_mpi_inv_mod( &QP, &ctx->Q, &ctx->P ) );
 815              		.loc 1 234 0
 816 018a 1CAA     		add	r2, sp, #112
 817 018c 4146     		mov	r1, r8
 818 018e 04A8     		add	r0, sp, #16
 819              	.LVL130:
 820 0190 FFF7FEFF 		bl	mbedtls_mpi_mod_mpi
 821              	.LVL131:
 822 0194 0446     		mov	r4, r0
 823 0196 0028     		cmp	r0, #0
 824 0198 7FF479AF 		bne	.L40
 235:C:/Users/lenovo/Desktop/liteos/Project2/BearPi_LiteOS/components/security/mbedtls/mbedtls-2.6.0/library\rsa.c ****     /*
 825              		.loc 1 235 0
 826 019c 3246     		mov	r2, r6
 827 019e 3946     		mov	r1, r7
 828 01a0 01A8     		add	r0, sp, #4
 829              	.LVL132:
 830 01a2 FFF7FEFF 		bl	mbedtls_mpi_inv_mod
 831              	.LVL133:
 832 01a6 0446     		mov	r4, r0
 833 01a8 0028     		cmp	r0, #0
 834 01aa 7FF470AF 		bne	.L40
 239:C:/Users/lenovo/Desktop/liteos/Project2/BearPi_LiteOS/components/security/mbedtls/mbedtls-2.6.0/library\rsa.c ****         mbedtls_mpi_cmp_mpi( &DP, &ctx->DP ) != 0 ||
 835              		.loc 1 239 0
 836 01ae 05F10801 		add	r1, r5, #8
 837 01b2 25A8     		add	r0, sp, #148
 838              	.LVL134:
 839 01b4 FFF7FEFF 		bl	mbedtls_mpi_cmp_mpi
 840              	.LVL135:
 841 01b8 20BB     		cbnz	r0, .L44
 240:C:/Users/lenovo/Desktop/liteos/Project2/BearPi_LiteOS/components/security/mbedtls/mbedtls-2.6.0/library\rsa.c ****         mbedtls_mpi_cmp_mpi( &DQ, &ctx->DQ ) != 0 ||
 842              		.loc 1 240 0 discriminator 1
 843 01ba 05F14401 		add	r1, r5, #68
 844 01be 07A8     		add	r0, sp, #28
 845 01c0 FFF7FEFF 		bl	mbedtls_mpi_cmp_mpi
 846              	.LVL136:
 239:C:/Users/lenovo/Desktop/liteos/Project2/BearPi_LiteOS/components/security/mbedtls/mbedtls-2.6.0/library\rsa.c ****         mbedtls_mpi_cmp_mpi( &DP, &ctx->DP ) != 0 ||
 847              		.loc 1 239 0 discriminator 1
 848 01c4 00BB     		cbnz	r0, .L45
 241:C:/Users/lenovo/Desktop/liteos/Project2/BearPi_LiteOS/components/security/mbedtls/mbedtls-2.6.0/library\rsa.c ****         mbedtls_mpi_cmp_mpi( &QP, &ctx->QP ) != 0 ||
 849              		.loc 1 241 0
 850 01c6 05F15001 		add	r1, r5, #80
 851 01ca 04A8     		add	r0, sp, #16
 852 01cc FFF7FEFF 		bl	mbedtls_mpi_cmp_mpi
 853              	.LVL137:
 240:C:/Users/lenovo/Desktop/liteos/Project2/BearPi_LiteOS/components/security/mbedtls/mbedtls-2.6.0/library\rsa.c ****         mbedtls_mpi_cmp_mpi( &DQ, &ctx->DQ ) != 0 ||
 854              		.loc 1 240 0
 855 01d0 E0B9     		cbnz	r0, .L46
 242:C:/Users/lenovo/Desktop/liteos/Project2/BearPi_LiteOS/components/security/mbedtls/mbedtls-2.6.0/library\rsa.c ****         mbedtls_mpi_cmp_int( &L2, 0 ) != 0 ||
 856              		.loc 1 242 0
 857 01d2 05F15C01 		add	r1, r5, #92
 858 01d6 01A8     		add	r0, sp, #4
 859 01d8 FFF7FEFF 		bl	mbedtls_mpi_cmp_mpi
 860              	.LVL138:
ARM GAS  c:\Users\lenovo\AppData\Local\Temp\ccVehGBj.s 			page 28


 241:C:/Users/lenovo/Desktop/liteos/Project2/BearPi_LiteOS/components/security/mbedtls/mbedtls-2.6.0/library\rsa.c ****         mbedtls_mpi_cmp_mpi( &QP, &ctx->QP ) != 0 ||
 861              		.loc 1 241 0
 862 01dc C0B9     		cbnz	r0, .L47
 243:C:/Users/lenovo/Desktop/liteos/Project2/BearPi_LiteOS/components/security/mbedtls/mbedtls-2.6.0/library\rsa.c ****         mbedtls_mpi_cmp_int( &I, 1 ) != 0 ||
 863              		.loc 1 243 0
 864 01de 0021     		movs	r1, #0
 865 01e0 0AA8     		add	r0, sp, #40
 866 01e2 FFF7FEFF 		bl	mbedtls_mpi_cmp_int
 867              	.LVL139:
 242:C:/Users/lenovo/Desktop/liteos/Project2/BearPi_LiteOS/components/security/mbedtls/mbedtls-2.6.0/library\rsa.c ****         mbedtls_mpi_cmp_int( &L2, 0 ) != 0 ||
 868              		.loc 1 242 0
 869 01e6 A8B9     		cbnz	r0, .L48
 244:C:/Users/lenovo/Desktop/liteos/Project2/BearPi_LiteOS/components/security/mbedtls/mbedtls-2.6.0/library\rsa.c ****         mbedtls_mpi_cmp_int( &G, 1 ) != 0 )
 870              		.loc 1 244 0
 871 01e8 0121     		movs	r1, #1
 872 01ea 16A8     		add	r0, sp, #88
 873 01ec FFF7FEFF 		bl	mbedtls_mpi_cmp_int
 874              	.LVL140:
 243:C:/Users/lenovo/Desktop/liteos/Project2/BearPi_LiteOS/components/security/mbedtls/mbedtls-2.6.0/library\rsa.c ****         mbedtls_mpi_cmp_int( &I, 1 ) != 0 ||
 875              		.loc 1 243 0
 876 01f0 90B9     		cbnz	r0, .L49
 245:C:/Users/lenovo/Desktop/liteos/Project2/BearPi_LiteOS/components/security/mbedtls/mbedtls-2.6.0/library\rsa.c ****     {
 877              		.loc 1 245 0
 878 01f2 0121     		movs	r1, #1
 879 01f4 13A8     		add	r0, sp, #76
 880 01f6 FFF7FEFF 		bl	mbedtls_mpi_cmp_int
 881              	.LVL141:
 244:C:/Users/lenovo/Desktop/liteos/Project2/BearPi_LiteOS/components/security/mbedtls/mbedtls-2.6.0/library\rsa.c ****         mbedtls_mpi_cmp_int( &G, 1 ) != 0 )
 882              		.loc 1 244 0
 883 01fa 0028     		cmp	r0, #0
 884 01fc 3FF447AF 		beq	.L40
 247:C:/Users/lenovo/Desktop/liteos/Project2/BearPi_LiteOS/components/security/mbedtls/mbedtls-2.6.0/library\rsa.c ****     }
 885              		.loc 1 247 0
 886 0200 094C     		ldr	r4, .L53
 887              	.LVL142:
 888 0202 44E7     		b	.L40
 889              	.LVL143:
 890              	.L44:
 891 0204 084C     		ldr	r4, .L53
 892              	.LVL144:
 893 0206 42E7     		b	.L40
 894              	.LVL145:
 895              	.L45:
 896 0208 074C     		ldr	r4, .L53
 897              	.LVL146:
 898 020a 40E7     		b	.L40
 899              	.LVL147:
 900              	.L46:
 901 020c 064C     		ldr	r4, .L53
 902              	.LVL148:
 903 020e 3EE7     		b	.L40
 904              	.LVL149:
 905              	.L47:
 906 0210 054C     		ldr	r4, .L53
 907              	.LVL150:
 908 0212 3CE7     		b	.L40
 909              	.LVL151:
ARM GAS  c:\Users\lenovo\AppData\Local\Temp\ccVehGBj.s 			page 29


 910              	.L48:
 911 0214 044C     		ldr	r4, .L53
 912              	.LVL152:
 913 0216 3AE7     		b	.L40
 914              	.LVL153:
 915              	.L49:
 916 0218 034C     		ldr	r4, .L53
 917              	.LVL154:
 918 021a 38E7     		b	.L40
 919              	.LVL155:
 920              	.L41:
 215:C:/Users/lenovo/Desktop/liteos/Project2/BearPi_LiteOS/components/security/mbedtls/mbedtls-2.6.0/library\rsa.c **** 
 921              		.loc 1 215 0
 922 021c 024C     		ldr	r4, .L53
 923 021e 63E7     		b	.L38
 924              	.L42:
 925 0220 014C     		ldr	r4, .L53
 926 0222 61E7     		b	.L38
 927              	.L43:
 928 0224 004C     		ldr	r4, .L53
 929 0226 5FE7     		b	.L38
 930              	.L54:
 931              		.align	2
 932              	.L53:
 933 0228 00BEFFFF 		.word	-16896
 934              		.cfi_endproc
 935              	.LFE16:
 937              		.section	.text.mbedtls_rsa_check_pub_priv,"ax",%progbits
 938              		.align	1
 939              		.global	mbedtls_rsa_check_pub_priv
 940              		.syntax unified
 941              		.thumb
 942              		.thumb_func
 943              		.fpu fpv4-sp-d16
 945              	mbedtls_rsa_check_pub_priv:
 946              	.LFB17:
 269:C:/Users/lenovo/Desktop/liteos/Project2/BearPi_LiteOS/components/security/mbedtls/mbedtls-2.6.0/library\rsa.c ****     if( mbedtls_rsa_check_pubkey( pub ) != 0 ||
 947              		.loc 1 269 0
 948              		.cfi_startproc
 949              		@ args = 0, pretend = 0, frame = 0
 950              		@ frame_needed = 0, uses_anonymous_args = 0
 951              	.LVL156:
 952 0000 38B5     		push	{r3, r4, r5, lr}
 953              	.LCFI13:
 954              		.cfi_def_cfa_offset 16
 955              		.cfi_offset 3, -16
 956              		.cfi_offset 4, -12
 957              		.cfi_offset 5, -8
 958              		.cfi_offset 14, -4
 959 0002 0546     		mov	r5, r0
 960 0004 0C46     		mov	r4, r1
 270:C:/Users/lenovo/Desktop/liteos/Project2/BearPi_LiteOS/components/security/mbedtls/mbedtls-2.6.0/library\rsa.c ****         mbedtls_rsa_check_privkey( prv ) != 0 )
 961              		.loc 1 270 0
 962 0006 FFF7FEFF 		bl	mbedtls_rsa_check_pubkey
 963              	.LVL157:
 964 000a A0B9     		cbnz	r0, .L57
 271:C:/Users/lenovo/Desktop/liteos/Project2/BearPi_LiteOS/components/security/mbedtls/mbedtls-2.6.0/library\rsa.c ****     {
ARM GAS  c:\Users\lenovo\AppData\Local\Temp\ccVehGBj.s 			page 30


 965              		.loc 1 271 0 discriminator 1
 966 000c 2046     		mov	r0, r4
 967 000e FFF7FEFF 		bl	mbedtls_rsa_check_privkey
 968              	.LVL158:
 270:C:/Users/lenovo/Desktop/liteos/Project2/BearPi_LiteOS/components/security/mbedtls/mbedtls-2.6.0/library\rsa.c ****         mbedtls_rsa_check_privkey( prv ) != 0 )
 969              		.loc 1 270 0 discriminator 1
 970 0012 90B9     		cbnz	r0, .L58
 276:C:/Users/lenovo/Desktop/liteos/Project2/BearPi_LiteOS/components/security/mbedtls/mbedtls-2.6.0/library\rsa.c ****         mbedtls_mpi_cmp_mpi( &pub->E, &prv->E ) != 0 )
 971              		.loc 1 276 0
 972 0014 04F10801 		add	r1, r4, #8
 973 0018 05F10800 		add	r0, r5, #8
 974 001c FFF7FEFF 		bl	mbedtls_mpi_cmp_mpi
 975              	.LVL159:
 976 0020 68B9     		cbnz	r0, .L59
 277:C:/Users/lenovo/Desktop/liteos/Project2/BearPi_LiteOS/components/security/mbedtls/mbedtls-2.6.0/library\rsa.c ****     {
 977              		.loc 1 277 0 discriminator 1
 978 0022 04F11401 		add	r1, r4, #20
 979 0026 05F11400 		add	r0, r5, #20
 980 002a FFF7FEFF 		bl	mbedtls_mpi_cmp_mpi
 981              	.LVL160:
 276:C:/Users/lenovo/Desktop/liteos/Project2/BearPi_LiteOS/components/security/mbedtls/mbedtls-2.6.0/library\rsa.c ****         mbedtls_mpi_cmp_mpi( &pub->E, &prv->E ) != 0 )
 982              		.loc 1 276 0 discriminator 1
 983 002e 0346     		mov	r3, r0
 984 0030 38B9     		cbnz	r0, .L62
 985              	.L55:
 283:C:/Users/lenovo/Desktop/liteos/Project2/BearPi_LiteOS/components/security/mbedtls/mbedtls-2.6.0/library\rsa.c **** 
 986              		.loc 1 283 0
 987 0032 1846     		mov	r0, r3
 988 0034 38BD     		pop	{r3, r4, r5, pc}
 989              	.LVL161:
 990              	.L57:
 273:C:/Users/lenovo/Desktop/liteos/Project2/BearPi_LiteOS/components/security/mbedtls/mbedtls-2.6.0/library\rsa.c ****     }
 991              		.loc 1 273 0
 992 0036 044B     		ldr	r3, .L63
 993 0038 FBE7     		b	.L55
 994              	.L58:
 995 003a 034B     		ldr	r3, .L63
 996 003c F9E7     		b	.L55
 997              	.L59:
 279:C:/Users/lenovo/Desktop/liteos/Project2/BearPi_LiteOS/components/security/mbedtls/mbedtls-2.6.0/library\rsa.c ****     }
 998              		.loc 1 279 0
 999 003e 024B     		ldr	r3, .L63
 1000 0040 F7E7     		b	.L55
 1001              	.L62:
 1002 0042 014B     		ldr	r3, .L63
 1003 0044 F5E7     		b	.L55
 1004              	.L64:
 1005 0046 00BF     		.align	2
 1006              	.L63:
 1007 0048 00BEFFFF 		.word	-16896
 1008              		.cfi_endproc
 1009              	.LFE17:
 1011              		.section	.text.mbedtls_rsa_public,"ax",%progbits
 1012              		.align	1
 1013              		.global	mbedtls_rsa_public
 1014              		.syntax unified
 1015              		.thumb
ARM GAS  c:\Users\lenovo\AppData\Local\Temp\ccVehGBj.s 			page 31


 1016              		.thumb_func
 1017              		.fpu fpv4-sp-d16
 1019              	mbedtls_rsa_public:
 1020              	.LFB18:
 291:C:/Users/lenovo/Desktop/liteos/Project2/BearPi_LiteOS/components/security/mbedtls/mbedtls-2.6.0/library\rsa.c ****     int ret;
 1021              		.loc 1 291 0
 1022              		.cfi_startproc
 1023              		@ args = 0, pretend = 0, frame = 16
 1024              		@ frame_needed = 0, uses_anonymous_args = 0
 1025              	.LVL162:
 1026 0000 F0B5     		push	{r4, r5, r6, r7, lr}
 1027              	.LCFI14:
 1028              		.cfi_def_cfa_offset 20
 1029              		.cfi_offset 4, -20
 1030              		.cfi_offset 5, -16
 1031              		.cfi_offset 6, -12
 1032              		.cfi_offset 7, -8
 1033              		.cfi_offset 14, -4
 1034 0002 87B0     		sub	sp, sp, #28
 1035              	.LCFI15:
 1036              		.cfi_def_cfa_offset 48
 1037 0004 0546     		mov	r5, r0
 1038 0006 0C46     		mov	r4, r1
 1039 0008 1646     		mov	r6, r2
 296:C:/Users/lenovo/Desktop/liteos/Project2/BearPi_LiteOS/components/security/mbedtls/mbedtls-2.6.0/library\rsa.c **** 
 1040              		.loc 1 296 0
 1041 000a 03A8     		add	r0, sp, #12
 1042              	.LVL163:
 1043 000c FFF7FEFF 		bl	mbedtls_mpi_init
 1044              	.LVL164:
 303:C:/Users/lenovo/Desktop/liteos/Project2/BearPi_LiteOS/components/security/mbedtls/mbedtls-2.6.0/library\rsa.c **** 
 1045              		.loc 1 303 0
 1046 0010 6A68     		ldr	r2, [r5, #4]
 1047 0012 2146     		mov	r1, r4
 1048 0014 03A8     		add	r0, sp, #12
 1049 0016 FFF7FEFF 		bl	mbedtls_mpi_read_binary
 1050              	.LVL165:
 1051 001a 0446     		mov	r4, r0
 1052              	.LVL166:
 1053 001c 40B1     		cbz	r0, .L70
 1054              	.LVL167:
 1055              	.L66:
 321:C:/Users/lenovo/Desktop/liteos/Project2/BearPi_LiteOS/components/security/mbedtls/mbedtls-2.6.0/library\rsa.c **** 
 1056              		.loc 1 321 0
 1057 001e 03A8     		add	r0, sp, #12
 1058 0020 FFF7FEFF 		bl	mbedtls_mpi_free
 1059              	.LVL168:
 323:C:/Users/lenovo/Desktop/liteos/Project2/BearPi_LiteOS/components/security/mbedtls/mbedtls-2.6.0/library\rsa.c ****         return( MBEDTLS_ERR_RSA_PUBLIC_FAILED + ret );
 1060              		.loc 1 323 0
 1061 0024 0CB1     		cbz	r4, .L65
 324:C:/Users/lenovo/Desktop/liteos/Project2/BearPi_LiteOS/components/security/mbedtls/mbedtls-2.6.0/library\rsa.c **** 
 1062              		.loc 1 324 0
 1063 0026 A4F58544 		sub	r4, r4, #17024
 1064              	.LVL169:
 1065              	.L65:
 327:C:/Users/lenovo/Desktop/liteos/Project2/BearPi_LiteOS/components/security/mbedtls/mbedtls-2.6.0/library\rsa.c **** 
 1066              		.loc 1 327 0
ARM GAS  c:\Users\lenovo\AppData\Local\Temp\ccVehGBj.s 			page 32


 1067 002a 2046     		mov	r0, r4
 1068 002c 07B0     		add	sp, sp, #28
 1069              	.LCFI16:
 1070              		.cfi_remember_state
 1071              		.cfi_def_cfa_offset 20
 1072              		@ sp needed
 1073 002e F0BD     		pop	{r4, r5, r6, r7, pc}
 1074              	.LVL170:
 1075              	.L70:
 1076              	.LCFI17:
 1077              		.cfi_restore_state
 305:C:/Users/lenovo/Desktop/liteos/Project2/BearPi_LiteOS/components/security/mbedtls/mbedtls-2.6.0/library\rsa.c ****     {
 1078              		.loc 1 305 0
 1079 0030 05F10804 		add	r4, r5, #8
 1080 0034 2146     		mov	r1, r4
 1081 0036 03A8     		add	r0, sp, #12
 1082              	.LVL171:
 1083 0038 FFF7FEFF 		bl	mbedtls_mpi_cmp_mpi
 1084              	.LVL172:
 1085 003c 0028     		cmp	r0, #0
 1086 003e 02DB     		blt	.L71
 307:C:/Users/lenovo/Desktop/liteos/Project2/BearPi_LiteOS/components/security/mbedtls/mbedtls-2.6.0/library\rsa.c ****         goto cleanup;
 1087              		.loc 1 307 0
 1088 0040 6FF00304 		mvn	r4, #3
 1089 0044 EBE7     		b	.L66
 1090              	.L71:
 311:C:/Users/lenovo/Desktop/liteos/Project2/BearPi_LiteOS/components/security/mbedtls/mbedtls-2.6.0/library\rsa.c ****     MBEDTLS_MPI_CHK( mbedtls_mpi_exp_mod( &T, &T, &ctx->E, &ctx->N, &ctx->RN ) );
 1091              		.loc 1 311 0
 1092 0046 6F68     		ldr	r7, [r5, #4]
 1093              	.LVL173:
 312:C:/Users/lenovo/Desktop/liteos/Project2/BearPi_LiteOS/components/security/mbedtls/mbedtls-2.6.0/library\rsa.c ****     MBEDTLS_MPI_CHK( mbedtls_mpi_write_binary( &T, output, olen ) );
 1094              		.loc 1 312 0
 1095 0048 05F16803 		add	r3, r5, #104
 1096 004c 0093     		str	r3, [sp]
 1097 004e 2346     		mov	r3, r4
 1098 0050 05F11402 		add	r2, r5, #20
 1099 0054 03A9     		add	r1, sp, #12
 1100 0056 0846     		mov	r0, r1
 1101 0058 FFF7FEFF 		bl	mbedtls_mpi_exp_mod
 1102              	.LVL174:
 1103 005c 0446     		mov	r4, r0
 1104 005e 0028     		cmp	r0, #0
 1105 0060 DDD1     		bne	.L66
 313:C:/Users/lenovo/Desktop/liteos/Project2/BearPi_LiteOS/components/security/mbedtls/mbedtls-2.6.0/library\rsa.c **** 
 1106              		.loc 1 313 0
 1107 0062 3A46     		mov	r2, r7
 1108 0064 3146     		mov	r1, r6
 1109 0066 03A8     		add	r0, sp, #12
 1110              	.LVL175:
 1111 0068 FFF7FEFF 		bl	mbedtls_mpi_write_binary
 1112              	.LVL176:
 1113 006c 0446     		mov	r4, r0
 1114              	.LVL177:
 315:C:/Users/lenovo/Desktop/liteos/Project2/BearPi_LiteOS/components/security/mbedtls/mbedtls-2.6.0/library\rsa.c **** #if defined(MBEDTLS_THREADING_C)
 1115              		.loc 1 315 0
 1116 006e D6E7     		b	.L66
 1117              		.cfi_endproc
ARM GAS  c:\Users\lenovo\AppData\Local\Temp\ccVehGBj.s 			page 33


 1118              	.LFE18:
 1120              		.section	.text.mbedtls_rsa_private,"ax",%progbits
 1121              		.align	1
 1122              		.global	mbedtls_rsa_private
 1123              		.syntax unified
 1124              		.thumb
 1125              		.thumb_func
 1126              		.fpu fpv4-sp-d16
 1128              	mbedtls_rsa_private:
 1129              	.LFB20:
 398:C:/Users/lenovo/Desktop/liteos/Project2/BearPi_LiteOS/components/security/mbedtls/mbedtls-2.6.0/library\rsa.c ****     int ret;
 1130              		.loc 1 398 0
 1131              		.cfi_startproc
 1132              		@ args = 4, pretend = 0, frame = 96
 1133              		@ frame_needed = 0, uses_anonymous_args = 0
 1134              	.LVL178:
 1135 0000 2DE9F047 		push	{r4, r5, r6, r7, r8, r9, r10, lr}
 1136              	.LCFI18:
 1137              		.cfi_def_cfa_offset 32
 1138              		.cfi_offset 4, -32
 1139              		.cfi_offset 5, -28
 1140              		.cfi_offset 6, -24
 1141              		.cfi_offset 7, -20
 1142              		.cfi_offset 8, -16
 1143              		.cfi_offset 9, -12
 1144              		.cfi_offset 10, -8
 1145              		.cfi_offset 14, -4
 1146 0004 9AB0     		sub	sp, sp, #104
 1147              	.LCFI19:
 1148              		.cfi_def_cfa_offset 136
 1149              	.LVL179:
 413:C:/Users/lenovo/Desktop/liteos/Project2/BearPi_LiteOS/components/security/mbedtls/mbedtls-2.6.0/library\rsa.c ****         return( MBEDTLS_ERR_RSA_BAD_INPUT_DATA );
 1150              		.loc 1 413 0
 1151 0006 456B     		ldr	r5, [r0, #52]
 1152 0008 002D     		cmp	r5, #0
 1153 000a 00F02681 		beq	.L79
 1154 000e 00F14407 		add	r7, r0, #68
 1155              	.LVL180:
 1156 0012 00F15008 		add	r8, r0, #80
 1157              	.LVL181:
 413:C:/Users/lenovo/Desktop/liteos/Project2/BearPi_LiteOS/components/security/mbedtls/mbedtls-2.6.0/library\rsa.c ****         return( MBEDTLS_ERR_RSA_BAD_INPUT_DATA );
 1158              		.loc 1 413 0 is_stmt 0 discriminator 1
 1159 0016 056C     		ldr	r5, [r0, #64]
 1160 0018 002D     		cmp	r5, #0
 1161 001a 00F02081 		beq	.L80
 413:C:/Users/lenovo/Desktop/liteos/Project2/BearPi_LiteOS/components/security/mbedtls/mbedtls-2.6.0/library\rsa.c ****         return( MBEDTLS_ERR_RSA_BAD_INPUT_DATA );
 1162              		.loc 1 413 0 discriminator 2
 1163 001e 846A     		ldr	r4, [r0, #40]
 1164 0020 002C     		cmp	r4, #0
 1165 0022 00F01E81 		beq	.L81
 1166 0026 1D46     		mov	r5, r3
 1167 0028 9146     		mov	r9, r2
 1168 002a 0C46     		mov	r4, r1
 1169 002c 0646     		mov	r6, r0
 416:C:/Users/lenovo/Desktop/liteos/Project2/BearPi_LiteOS/components/security/mbedtls/mbedtls-2.6.0/library\rsa.c ****     mbedtls_mpi_init( &P1 ); mbedtls_mpi_init( &Q1 ); mbedtls_mpi_init( &R );
 1170              		.loc 1 416 0 is_stmt 1
 1171 002e 17A8     		add	r0, sp, #92
ARM GAS  c:\Users\lenovo\AppData\Local\Temp\ccVehGBj.s 			page 34


 1172              	.LVL182:
 1173 0030 FFF7FEFF 		bl	mbedtls_mpi_init
 1174              	.LVL183:
 1175 0034 14A8     		add	r0, sp, #80
 1176 0036 FFF7FEFF 		bl	mbedtls_mpi_init
 1177              	.LVL184:
 1178 003a 11A8     		add	r0, sp, #68
 1179 003c FFF7FEFF 		bl	mbedtls_mpi_init
 1180              	.LVL185:
 417:C:/Users/lenovo/Desktop/liteos/Project2/BearPi_LiteOS/components/security/mbedtls/mbedtls-2.6.0/library\rsa.c **** 
 1181              		.loc 1 417 0
 1182 0040 0EA8     		add	r0, sp, #56
 1183 0042 FFF7FEFF 		bl	mbedtls_mpi_init
 1184              	.LVL186:
 1185 0046 0BA8     		add	r0, sp, #44
 1186 0048 FFF7FEFF 		bl	mbedtls_mpi_init
 1187              	.LVL187:
 1188 004c 08A8     		add	r0, sp, #32
 1189 004e FFF7FEFF 		bl	mbedtls_mpi_init
 1190              	.LVL188:
 420:C:/Users/lenovo/Desktop/liteos/Project2/BearPi_LiteOS/components/security/mbedtls/mbedtls-2.6.0/library\rsa.c ****     {
 1191              		.loc 1 420 0
 1192 0052 2CB1     		cbz	r4, .L74
 425:C:/Users/lenovo/Desktop/liteos/Project2/BearPi_LiteOS/components/security/mbedtls/mbedtls-2.6.0/library\rsa.c ****         mbedtls_mpi_init( &DQ_blind );
 1193              		.loc 1 425 0
 1194 0054 05A8     		add	r0, sp, #20
 1195 0056 FFF7FEFF 		bl	mbedtls_mpi_init
 1196              	.LVL189:
 426:C:/Users/lenovo/Desktop/liteos/Project2/BearPi_LiteOS/components/security/mbedtls/mbedtls-2.6.0/library\rsa.c **** #endif
 1197              		.loc 1 426 0
 1198 005a 02A8     		add	r0, sp, #8
 1199 005c FFF7FEFF 		bl	mbedtls_mpi_init
 1200              	.LVL190:
 1201              	.L74:
 436:C:/Users/lenovo/Desktop/liteos/Project2/BearPi_LiteOS/components/security/mbedtls/mbedtls-2.6.0/library\rsa.c ****     if( mbedtls_mpi_cmp_mpi( &T, &ctx->N ) >= 0 )
 1202              		.loc 1 436 0
 1203 0060 7268     		ldr	r2, [r6, #4]
 1204 0062 2946     		mov	r1, r5
 1205 0064 17A8     		add	r0, sp, #92
 1206 0066 FFF7FEFF 		bl	mbedtls_mpi_read_binary
 1207              	.LVL191:
 1208 006a 0546     		mov	r5, r0
 1209              	.LVL192:
 1210 006c F8B1     		cbz	r0, .L84
 1211              	.LVL193:
 1212              	.L75:
 540:C:/Users/lenovo/Desktop/liteos/Project2/BearPi_LiteOS/components/security/mbedtls/mbedtls-2.6.0/library\rsa.c ****     mbedtls_mpi_free( &P1 ); mbedtls_mpi_free( &Q1 ); mbedtls_mpi_free( &R );
 1213              		.loc 1 540 0
 1214 006e 17A8     		add	r0, sp, #92
 1215 0070 FFF7FEFF 		bl	mbedtls_mpi_free
 1216              	.LVL194:
 1217 0074 14A8     		add	r0, sp, #80
 1218 0076 FFF7FEFF 		bl	mbedtls_mpi_free
 1219              	.LVL195:
 1220 007a 11A8     		add	r0, sp, #68
 1221 007c FFF7FEFF 		bl	mbedtls_mpi_free
 1222              	.LVL196:
ARM GAS  c:\Users\lenovo\AppData\Local\Temp\ccVehGBj.s 			page 35


 541:C:/Users/lenovo/Desktop/liteos/Project2/BearPi_LiteOS/components/security/mbedtls/mbedtls-2.6.0/library\rsa.c **** 
 1223              		.loc 1 541 0
 1224 0080 0EA8     		add	r0, sp, #56
 1225 0082 FFF7FEFF 		bl	mbedtls_mpi_free
 1226              	.LVL197:
 1227 0086 0BA8     		add	r0, sp, #44
 1228 0088 FFF7FEFF 		bl	mbedtls_mpi_free
 1229              	.LVL198:
 1230 008c 08A8     		add	r0, sp, #32
 1231 008e FFF7FEFF 		bl	mbedtls_mpi_free
 1232              	.LVL199:
 543:C:/Users/lenovo/Desktop/liteos/Project2/BearPi_LiteOS/components/security/mbedtls/mbedtls-2.6.0/library\rsa.c ****     {
 1233              		.loc 1 543 0
 1234 0092 2CB1     		cbz	r4, .L78
 548:C:/Users/lenovo/Desktop/liteos/Project2/BearPi_LiteOS/components/security/mbedtls/mbedtls-2.6.0/library\rsa.c ****         mbedtls_mpi_free( &DQ_blind );
 1235              		.loc 1 548 0
 1236 0094 05A8     		add	r0, sp, #20
 1237 0096 FFF7FEFF 		bl	mbedtls_mpi_free
 1238              	.LVL200:
 549:C:/Users/lenovo/Desktop/liteos/Project2/BearPi_LiteOS/components/security/mbedtls/mbedtls-2.6.0/library\rsa.c **** #endif
 1239              		.loc 1 549 0
 1240 009a 02A8     		add	r0, sp, #8
 1241 009c FFF7FEFF 		bl	mbedtls_mpi_free
 1242              	.LVL201:
 1243              	.L78:
 553:C:/Users/lenovo/Desktop/liteos/Project2/BearPi_LiteOS/components/security/mbedtls/mbedtls-2.6.0/library\rsa.c ****         return( MBEDTLS_ERR_RSA_PRIVATE_FAILED + ret );
 1244              		.loc 1 553 0
 1245 00a0 0DB1     		cbz	r5, .L72
 554:C:/Users/lenovo/Desktop/liteos/Project2/BearPi_LiteOS/components/security/mbedtls/mbedtls-2.6.0/library\rsa.c **** 
 1246              		.loc 1 554 0
 1247 00a2 A5F58645 		sub	r5, r5, #17152
 1248              	.LVL202:
 1249              	.L72:
 557:C:/Users/lenovo/Desktop/liteos/Project2/BearPi_LiteOS/components/security/mbedtls/mbedtls-2.6.0/library\rsa.c **** 
 1250              		.loc 1 557 0
 1251 00a6 2846     		mov	r0, r5
 1252 00a8 1AB0     		add	sp, sp, #104
 1253              	.LCFI20:
 1254              		.cfi_remember_state
 1255              		.cfi_def_cfa_offset 32
 1256              		@ sp needed
 1257 00aa BDE8F087 		pop	{r4, r5, r6, r7, r8, r9, r10, pc}
 1258              	.LVL203:
 1259              	.L84:
 1260              	.LCFI21:
 1261              		.cfi_restore_state
 437:C:/Users/lenovo/Desktop/liteos/Project2/BearPi_LiteOS/components/security/mbedtls/mbedtls-2.6.0/library\rsa.c ****     {
 1262              		.loc 1 437 0
 1263 00ae 06F1080A 		add	r10, r6, #8
 1264 00b2 5146     		mov	r1, r10
 1265 00b4 17A8     		add	r0, sp, #92
 1266              	.LVL204:
 1267 00b6 FFF7FEFF 		bl	mbedtls_mpi_cmp_mpi
 1268              	.LVL205:
 1269 00ba 0028     		cmp	r0, #0
 1270 00bc 02DB     		blt	.L85
 439:C:/Users/lenovo/Desktop/liteos/Project2/BearPi_LiteOS/components/security/mbedtls/mbedtls-2.6.0/library\rsa.c ****         goto cleanup;
ARM GAS  c:\Users\lenovo\AppData\Local\Temp\ccVehGBj.s 			page 36


 1271              		.loc 1 439 0
 1272 00be 6FF00305 		mvn	r5, #3
 1273              	.LVL206:
 1274 00c2 D4E7     		b	.L75
 1275              	.LVL207:
 1276              	.L85:
 443:C:/Users/lenovo/Desktop/liteos/Project2/BearPi_LiteOS/components/security/mbedtls/mbedtls-2.6.0/library\rsa.c ****     {
 1277              		.loc 1 443 0
 1278 00c4 002C     		cmp	r4, #0
 1279 00c6 61D0     		beq	.L76
 449:C:/Users/lenovo/Desktop/liteos/Project2/BearPi_LiteOS/components/security/mbedtls/mbedtls-2.6.0/library\rsa.c ****         MBEDTLS_MPI_CHK( mbedtls_mpi_mul_mpi( &T, &T, &ctx->Vi ) );
 1280              		.loc 1 449 0
 1281 00c8 4A46     		mov	r2, r9
 1282 00ca 2146     		mov	r1, r4
 1283 00cc 3046     		mov	r0, r6
 1284 00ce FFF7FEFF 		bl	rsa_prepare_blinding
 1285              	.LVL208:
 1286 00d2 0546     		mov	r5, r0
 1287 00d4 0028     		cmp	r0, #0
 1288 00d6 CAD1     		bne	.L75
 450:C:/Users/lenovo/Desktop/liteos/Project2/BearPi_LiteOS/components/security/mbedtls/mbedtls-2.6.0/library\rsa.c ****         MBEDTLS_MPI_CHK( mbedtls_mpi_mod_mpi( &T, &T, &ctx->N ) );
 1289              		.loc 1 450 0
 1290 00d8 06F18C02 		add	r2, r6, #140
 1291 00dc 17A9     		add	r1, sp, #92
 1292 00de 0846     		mov	r0, r1
 1293              	.LVL209:
 1294 00e0 FFF7FEFF 		bl	mbedtls_mpi_mul_mpi
 1295              	.LVL210:
 1296 00e4 0546     		mov	r5, r0
 1297 00e6 0028     		cmp	r0, #0
 1298 00e8 C1D1     		bne	.L75
 451:C:/Users/lenovo/Desktop/liteos/Project2/BearPi_LiteOS/components/security/mbedtls/mbedtls-2.6.0/library\rsa.c **** 
 1299              		.loc 1 451 0
 1300 00ea 5246     		mov	r2, r10
 1301 00ec 17A9     		add	r1, sp, #92
 1302 00ee 0846     		mov	r0, r1
 1303              	.LVL211:
 1304 00f0 FFF7FEFF 		bl	mbedtls_mpi_mod_mpi
 1305              	.LVL212:
 1306 00f4 0546     		mov	r5, r0
 1307 00f6 0028     		cmp	r0, #0
 1308 00f8 B9D1     		bne	.L75
 456:C:/Users/lenovo/Desktop/liteos/Project2/BearPi_LiteOS/components/security/mbedtls/mbedtls-2.6.0/library\rsa.c ****         MBEDTLS_MPI_CHK( mbedtls_mpi_sub_int( &Q1, &ctx->Q, 1 ) );
 1309              		.loc 1 456 0
 1310 00fa 0122     		movs	r2, #1
 1311 00fc 06F12C01 		add	r1, r6, #44
 1312 0100 0EA8     		add	r0, sp, #56
 1313              	.LVL213:
 1314 0102 FFF7FEFF 		bl	mbedtls_mpi_sub_int
 1315              	.LVL214:
 1316 0106 0546     		mov	r5, r0
 1317 0108 0028     		cmp	r0, #0
 1318 010a B0D1     		bne	.L75
 457:C:/Users/lenovo/Desktop/liteos/Project2/BearPi_LiteOS/components/security/mbedtls/mbedtls-2.6.0/library\rsa.c **** 
 1319              		.loc 1 457 0
 1320 010c 0122     		movs	r2, #1
 1321 010e 06F13801 		add	r1, r6, #56
ARM GAS  c:\Users\lenovo\AppData\Local\Temp\ccVehGBj.s 			page 37


 1322 0112 0BA8     		add	r0, sp, #44
 1323              	.LVL215:
 1324 0114 FFF7FEFF 		bl	mbedtls_mpi_sub_int
 1325              	.LVL216:
 1326 0118 0546     		mov	r5, r0
 1327 011a 0028     		cmp	r0, #0
 1328 011c A7D1     		bne	.L75
 474:C:/Users/lenovo/Desktop/liteos/Project2/BearPi_LiteOS/components/security/mbedtls/mbedtls-2.6.0/library\rsa.c ****                          f_rng, p_rng ) );
 1329              		.loc 1 474 0
 1330 011e 4B46     		mov	r3, r9
 1331 0120 2246     		mov	r2, r4
 1332 0122 1C21     		movs	r1, #28
 1333 0124 08A8     		add	r0, sp, #32
 1334              	.LVL217:
 1335 0126 FFF7FEFF 		bl	mbedtls_mpi_fill_random
 1336              	.LVL218:
 1337 012a 0546     		mov	r5, r0
 1338 012c 0028     		cmp	r0, #0
 1339 012e 9ED1     		bne	.L75
 476:C:/Users/lenovo/Desktop/liteos/Project2/BearPi_LiteOS/components/security/mbedtls/mbedtls-2.6.0/library\rsa.c ****         MBEDTLS_MPI_CHK( mbedtls_mpi_add_mpi( &DP_blind, &DP_blind,
 1340              		.loc 1 476 0
 1341 0130 08AA     		add	r2, sp, #32
 1342 0132 0EA9     		add	r1, sp, #56
 1343 0134 05A8     		add	r0, sp, #20
 1344              	.LVL219:
 1345 0136 FFF7FEFF 		bl	mbedtls_mpi_mul_mpi
 1346              	.LVL220:
 1347 013a 0546     		mov	r5, r0
 1348 013c 0028     		cmp	r0, #0
 1349 013e 96D1     		bne	.L75
 477:C:/Users/lenovo/Desktop/liteos/Project2/BearPi_LiteOS/components/security/mbedtls/mbedtls-2.6.0/library\rsa.c ****                     &ctx->DP ) );
 1350              		.loc 1 477 0
 1351 0140 3A46     		mov	r2, r7
 1352 0142 05A9     		add	r1, sp, #20
 1353 0144 0846     		mov	r0, r1
 1354              	.LVL221:
 1355 0146 FFF7FEFF 		bl	mbedtls_mpi_add_mpi
 1356              	.LVL222:
 1357 014a 0546     		mov	r5, r0
 1358 014c 0028     		cmp	r0, #0
 1359 014e 8ED1     		bne	.L75
 1360              	.LVL223:
 485:C:/Users/lenovo/Desktop/liteos/Project2/BearPi_LiteOS/components/security/mbedtls/mbedtls-2.6.0/library\rsa.c ****                          f_rng, p_rng ) );
 1361              		.loc 1 485 0
 1362 0150 4B46     		mov	r3, r9
 1363 0152 2246     		mov	r2, r4
 1364 0154 1C21     		movs	r1, #28
 1365 0156 08A8     		add	r0, sp, #32
 1366              	.LVL224:
 1367 0158 FFF7FEFF 		bl	mbedtls_mpi_fill_random
 1368              	.LVL225:
 1369 015c 0546     		mov	r5, r0
 1370 015e 0028     		cmp	r0, #0
 1371 0160 85D1     		bne	.L75
 487:C:/Users/lenovo/Desktop/liteos/Project2/BearPi_LiteOS/components/security/mbedtls/mbedtls-2.6.0/library\rsa.c ****         MBEDTLS_MPI_CHK( mbedtls_mpi_add_mpi( &DQ_blind, &DQ_blind,
 1372              		.loc 1 487 0
 1373 0162 08AA     		add	r2, sp, #32
ARM GAS  c:\Users\lenovo\AppData\Local\Temp\ccVehGBj.s 			page 38


 1374 0164 0BA9     		add	r1, sp, #44
 1375 0166 02A8     		add	r0, sp, #8
 1376              	.LVL226:
 1377 0168 FFF7FEFF 		bl	mbedtls_mpi_mul_mpi
 1378              	.LVL227:
 1379 016c 0546     		mov	r5, r0
 1380 016e 0028     		cmp	r0, #0
 1381 0170 7FF47DAF 		bne	.L75
 488:C:/Users/lenovo/Desktop/liteos/Project2/BearPi_LiteOS/components/security/mbedtls/mbedtls-2.6.0/library\rsa.c ****                     &ctx->DQ ) );
 1382              		.loc 1 488 0
 1383 0174 4246     		mov	r2, r8
 1384 0176 02A9     		add	r1, sp, #8
 1385 0178 0846     		mov	r0, r1
 1386              	.LVL228:
 1387 017a FFF7FEFF 		bl	mbedtls_mpi_add_mpi
 1388              	.LVL229:
 1389 017e 0546     		mov	r5, r0
 1390 0180 0028     		cmp	r0, #0
 1391 0182 7FF474AF 		bne	.L75
 491:C:/Users/lenovo/Desktop/liteos/Project2/BearPi_LiteOS/components/security/mbedtls/mbedtls-2.6.0/library\rsa.c **** #endif /* MBEDTLS_RSA_NO_CRT */
 1392              		.loc 1 491 0
 1393 0186 0DF10808 		add	r8, sp, #8
 1394              	.LVL230:
 480:C:/Users/lenovo/Desktop/liteos/Project2/BearPi_LiteOS/components/security/mbedtls/mbedtls-2.6.0/library\rsa.c **** 
 1395              		.loc 1 480 0
 1396 018a 05AF     		add	r7, sp, #20
 1397              	.LVL231:
 1398              	.L76:
 504:C:/Users/lenovo/Desktop/liteos/Project2/BearPi_LiteOS/components/security/mbedtls/mbedtls-2.6.0/library\rsa.c ****     MBEDTLS_MPI_CHK( mbedtls_mpi_exp_mod( &T2, &T, DQ, &ctx->Q, &ctx->RQ ) );
 1399              		.loc 1 504 0
 1400 018c 06F12C09 		add	r9, r6, #44
 1401              	.LVL232:
 1402 0190 06F17403 		add	r3, r6, #116
 1403 0194 0093     		str	r3, [sp]
 1404 0196 4B46     		mov	r3, r9
 1405 0198 3A46     		mov	r2, r7
 1406 019a 17A9     		add	r1, sp, #92
 1407 019c 14A8     		add	r0, sp, #80
 1408 019e FFF7FEFF 		bl	mbedtls_mpi_exp_mod
 1409              	.LVL233:
 1410 01a2 0546     		mov	r5, r0
 1411 01a4 0028     		cmp	r0, #0
 1412 01a6 7FF462AF 		bne	.L75
 505:C:/Users/lenovo/Desktop/liteos/Project2/BearPi_LiteOS/components/security/mbedtls/mbedtls-2.6.0/library\rsa.c **** 
 1413              		.loc 1 505 0
 1414 01aa 06F13807 		add	r7, r6, #56
 1415              	.LVL234:
 1416 01ae 06F18003 		add	r3, r6, #128
 1417 01b2 0093     		str	r3, [sp]
 1418 01b4 3B46     		mov	r3, r7
 1419 01b6 4246     		mov	r2, r8
 1420 01b8 17A9     		add	r1, sp, #92
 1421 01ba 11A8     		add	r0, sp, #68
 1422              	.LVL235:
 1423 01bc FFF7FEFF 		bl	mbedtls_mpi_exp_mod
 1424              	.LVL236:
 1425 01c0 0546     		mov	r5, r0
ARM GAS  c:\Users\lenovo\AppData\Local\Temp\ccVehGBj.s 			page 39


 1426 01c2 0028     		cmp	r0, #0
 1427 01c4 7FF453AF 		bne	.L75
 510:C:/Users/lenovo/Desktop/liteos/Project2/BearPi_LiteOS/components/security/mbedtls/mbedtls-2.6.0/library\rsa.c ****     MBEDTLS_MPI_CHK( mbedtls_mpi_mul_mpi( &T1, &T, &ctx->QP ) );
 1428              		.loc 1 510 0
 1429 01c8 11AA     		add	r2, sp, #68
 1430 01ca 14A9     		add	r1, sp, #80
 1431 01cc 17A8     		add	r0, sp, #92
 1432              	.LVL237:
 1433 01ce FFF7FEFF 		bl	mbedtls_mpi_sub_mpi
 1434              	.LVL238:
 1435 01d2 0546     		mov	r5, r0
 1436 01d4 0028     		cmp	r0, #0
 1437 01d6 7FF44AAF 		bne	.L75
 511:C:/Users/lenovo/Desktop/liteos/Project2/BearPi_LiteOS/components/security/mbedtls/mbedtls-2.6.0/library\rsa.c ****     MBEDTLS_MPI_CHK( mbedtls_mpi_mod_mpi( &T, &T1, &ctx->P ) );
 1438              		.loc 1 511 0
 1439 01da 06F15C02 		add	r2, r6, #92
 1440 01de 17A9     		add	r1, sp, #92
 1441 01e0 14A8     		add	r0, sp, #80
 1442              	.LVL239:
 1443 01e2 FFF7FEFF 		bl	mbedtls_mpi_mul_mpi
 1444              	.LVL240:
 1445 01e6 0546     		mov	r5, r0
 1446 01e8 0028     		cmp	r0, #0
 1447 01ea 7FF440AF 		bne	.L75
 512:C:/Users/lenovo/Desktop/liteos/Project2/BearPi_LiteOS/components/security/mbedtls/mbedtls-2.6.0/library\rsa.c **** 
 1448              		.loc 1 512 0
 1449 01ee 4A46     		mov	r2, r9
 1450 01f0 14A9     		add	r1, sp, #80
 1451 01f2 17A8     		add	r0, sp, #92
 1452              	.LVL241:
 1453 01f4 FFF7FEFF 		bl	mbedtls_mpi_mod_mpi
 1454              	.LVL242:
 1455 01f8 0546     		mov	r5, r0
 1456 01fa 0028     		cmp	r0, #0
 1457 01fc 7FF437AF 		bne	.L75
 517:C:/Users/lenovo/Desktop/liteos/Project2/BearPi_LiteOS/components/security/mbedtls/mbedtls-2.6.0/library\rsa.c ****     MBEDTLS_MPI_CHK( mbedtls_mpi_add_mpi( &T, &T2, &T1 ) );
 1458              		.loc 1 517 0
 1459 0200 3A46     		mov	r2, r7
 1460 0202 17A9     		add	r1, sp, #92
 1461 0204 14A8     		add	r0, sp, #80
 1462              	.LVL243:
 1463 0206 FFF7FEFF 		bl	mbedtls_mpi_mul_mpi
 1464              	.LVL244:
 1465 020a 0546     		mov	r5, r0
 1466 020c 0028     		cmp	r0, #0
 1467 020e 7FF42EAF 		bne	.L75
 518:C:/Users/lenovo/Desktop/liteos/Project2/BearPi_LiteOS/components/security/mbedtls/mbedtls-2.6.0/library\rsa.c **** #endif /* MBEDTLS_RSA_NO_CRT */
 1468              		.loc 1 518 0
 1469 0212 14AA     		add	r2, sp, #80
 1470 0214 11A9     		add	r1, sp, #68
 1471 0216 17A8     		add	r0, sp, #92
 1472              	.LVL245:
 1473 0218 FFF7FEFF 		bl	mbedtls_mpi_add_mpi
 1474              	.LVL246:
 1475 021c 0546     		mov	r5, r0
 1476 021e 0028     		cmp	r0, #0
 1477 0220 7FF425AF 		bne	.L75
ARM GAS  c:\Users\lenovo\AppData\Local\Temp\ccVehGBj.s 			page 40


 521:C:/Users/lenovo/Desktop/liteos/Project2/BearPi_LiteOS/components/security/mbedtls/mbedtls-2.6.0/library\rsa.c ****     {
 1478              		.loc 1 521 0
 1479 0224 94B1     		cbz	r4, .L77
 527:C:/Users/lenovo/Desktop/liteos/Project2/BearPi_LiteOS/components/security/mbedtls/mbedtls-2.6.0/library\rsa.c ****         MBEDTLS_MPI_CHK( mbedtls_mpi_mod_mpi( &T, &T, &ctx->N ) );
 1480              		.loc 1 527 0
 1481 0226 06F19802 		add	r2, r6, #152
 1482 022a 17A9     		add	r1, sp, #92
 1483 022c 0846     		mov	r0, r1
 1484              	.LVL247:
 1485 022e FFF7FEFF 		bl	mbedtls_mpi_mul_mpi
 1486              	.LVL248:
 1487 0232 0546     		mov	r5, r0
 1488 0234 0028     		cmp	r0, #0
 1489 0236 7FF41AAF 		bne	.L75
 528:C:/Users/lenovo/Desktop/liteos/Project2/BearPi_LiteOS/components/security/mbedtls/mbedtls-2.6.0/library\rsa.c ****     }
 1490              		.loc 1 528 0
 1491 023a 5246     		mov	r2, r10
 1492 023c 17A9     		add	r1, sp, #92
 1493 023e 0846     		mov	r0, r1
 1494              	.LVL249:
 1495 0240 FFF7FEFF 		bl	mbedtls_mpi_mod_mpi
 1496              	.LVL250:
 1497 0244 0546     		mov	r5, r0
 1498 0246 0028     		cmp	r0, #0
 1499 0248 7FF411AF 		bne	.L75
 1500              	.L77:
 1501              	.LVL251:
 532:C:/Users/lenovo/Desktop/liteos/Project2/BearPi_LiteOS/components/security/mbedtls/mbedtls-2.6.0/library\rsa.c **** 
 1502              		.loc 1 532 0
 1503 024c 7268     		ldr	r2, [r6, #4]
 1504 024e 2299     		ldr	r1, [sp, #136]
 1505 0250 17A8     		add	r0, sp, #92
 1506              	.LVL252:
 1507 0252 FFF7FEFF 		bl	mbedtls_mpi_write_binary
 1508              	.LVL253:
 1509 0256 0546     		mov	r5, r0
 1510              	.LVL254:
 534:C:/Users/lenovo/Desktop/liteos/Project2/BearPi_LiteOS/components/security/mbedtls/mbedtls-2.6.0/library\rsa.c **** #if defined(MBEDTLS_THREADING_C)
 1511              		.loc 1 534 0
 1512 0258 09E7     		b	.L75
 1513              	.LVL255:
 1514              	.L79:
 414:C:/Users/lenovo/Desktop/liteos/Project2/BearPi_LiteOS/components/security/mbedtls/mbedtls-2.6.0/library\rsa.c **** 
 1515              		.loc 1 414 0
 1516 025a 034D     		ldr	r5, .L86
 1517 025c 23E7     		b	.L72
 1518              	.LVL256:
 1519              	.L80:
 1520 025e 024D     		ldr	r5, .L86
 1521 0260 21E7     		b	.L72
 1522              	.L81:
 1523 0262 014D     		ldr	r5, .L86
 1524 0264 1FE7     		b	.L72
 1525              	.L87:
 1526 0266 00BF     		.align	2
 1527              	.L86:
 1528 0268 80BFFFFF 		.word	-16512
ARM GAS  c:\Users\lenovo\AppData\Local\Temp\ccVehGBj.s 			page 41


 1529              		.cfi_endproc
 1530              	.LFE20:
 1532              		.section	.text.mbedtls_rsa_rsaes_oaep_encrypt,"ax",%progbits
 1533              		.align	1
 1534              		.global	mbedtls_rsa_rsaes_oaep_encrypt
 1535              		.syntax unified
 1536              		.thumb
 1537              		.thumb_func
 1538              		.fpu fpv4-sp-d16
 1540              	mbedtls_rsa_rsaes_oaep_encrypt:
 1541              	.LFB22:
 607:C:/Users/lenovo/Desktop/liteos/Project2/BearPi_LiteOS/components/security/mbedtls/mbedtls-2.6.0/library\rsa.c **** #endif /* MBEDTLS_PKCS1_V21 */
 608:C:/Users/lenovo/Desktop/liteos/Project2/BearPi_LiteOS/components/security/mbedtls/mbedtls-2.6.0/library\rsa.c **** 
 609:C:/Users/lenovo/Desktop/liteos/Project2/BearPi_LiteOS/components/security/mbedtls/mbedtls-2.6.0/library\rsa.c **** #if defined(MBEDTLS_PKCS1_V21)
 610:C:/Users/lenovo/Desktop/liteos/Project2/BearPi_LiteOS/components/security/mbedtls/mbedtls-2.6.0/library\rsa.c **** /*
 611:C:/Users/lenovo/Desktop/liteos/Project2/BearPi_LiteOS/components/security/mbedtls/mbedtls-2.6.0/library\rsa.c ****  * Implementation of the PKCS#1 v2.1 RSAES-OAEP-ENCRYPT function
 612:C:/Users/lenovo/Desktop/liteos/Project2/BearPi_LiteOS/components/security/mbedtls/mbedtls-2.6.0/library\rsa.c ****  */
 613:C:/Users/lenovo/Desktop/liteos/Project2/BearPi_LiteOS/components/security/mbedtls/mbedtls-2.6.0/library\rsa.c **** int mbedtls_rsa_rsaes_oaep_encrypt( mbedtls_rsa_context *ctx,
 614:C:/Users/lenovo/Desktop/liteos/Project2/BearPi_LiteOS/components/security/mbedtls/mbedtls-2.6.0/library\rsa.c ****                             int (*f_rng)(void *, unsigned char *, size_t),
 615:C:/Users/lenovo/Desktop/liteos/Project2/BearPi_LiteOS/components/security/mbedtls/mbedtls-2.6.0/library\rsa.c ****                             void *p_rng,
 616:C:/Users/lenovo/Desktop/liteos/Project2/BearPi_LiteOS/components/security/mbedtls/mbedtls-2.6.0/library\rsa.c ****                             int mode,
 617:C:/Users/lenovo/Desktop/liteos/Project2/BearPi_LiteOS/components/security/mbedtls/mbedtls-2.6.0/library\rsa.c ****                             const unsigned char *label, size_t label_len,
 618:C:/Users/lenovo/Desktop/liteos/Project2/BearPi_LiteOS/components/security/mbedtls/mbedtls-2.6.0/library\rsa.c ****                             size_t ilen,
 619:C:/Users/lenovo/Desktop/liteos/Project2/BearPi_LiteOS/components/security/mbedtls/mbedtls-2.6.0/library\rsa.c ****                             const unsigned char *input,
 620:C:/Users/lenovo/Desktop/liteos/Project2/BearPi_LiteOS/components/security/mbedtls/mbedtls-2.6.0/library\rsa.c ****                             unsigned char *output )
 621:C:/Users/lenovo/Desktop/liteos/Project2/BearPi_LiteOS/components/security/mbedtls/mbedtls-2.6.0/library\rsa.c **** {
 1542              		.loc 1 621 0
 1543              		.cfi_startproc
 1544              		@ args = 20, pretend = 0, frame = 32
 1545              		@ frame_needed = 0, uses_anonymous_args = 0
 1546              	.LVL257:
 1547 0000 2DE9F04F 		push	{r4, r5, r6, r7, r8, r9, r10, fp, lr}
 1548              	.LCFI22:
 1549              		.cfi_def_cfa_offset 36
 1550              		.cfi_offset 4, -36
 1551              		.cfi_offset 5, -32
 1552              		.cfi_offset 6, -28
 1553              		.cfi_offset 7, -24
 1554              		.cfi_offset 8, -20
 1555              		.cfi_offset 9, -16
 1556              		.cfi_offset 10, -12
 1557              		.cfi_offset 11, -8
 1558              		.cfi_offset 14, -4
 1559 0004 8BB0     		sub	sp, sp, #44
 1560              	.LCFI23:
 1561              		.cfi_def_cfa_offset 80
 1562 0006 DDF85890 		ldr	r9, [sp, #88]
 1563 000a 189E     		ldr	r6, [sp, #96]
 1564              	.LVL258:
 622:C:/Users/lenovo/Desktop/liteos/Project2/BearPi_LiteOS/components/security/mbedtls/mbedtls-2.6.0/library\rsa.c ****     size_t olen;
 623:C:/Users/lenovo/Desktop/liteos/Project2/BearPi_LiteOS/components/security/mbedtls/mbedtls-2.6.0/library\rsa.c ****     int ret;
 624:C:/Users/lenovo/Desktop/liteos/Project2/BearPi_LiteOS/components/security/mbedtls/mbedtls-2.6.0/library\rsa.c ****     unsigned char *p = output;
 625:C:/Users/lenovo/Desktop/liteos/Project2/BearPi_LiteOS/components/security/mbedtls/mbedtls-2.6.0/library\rsa.c ****     unsigned int hlen;
 626:C:/Users/lenovo/Desktop/liteos/Project2/BearPi_LiteOS/components/security/mbedtls/mbedtls-2.6.0/library\rsa.c ****     const mbedtls_md_info_t *md_info;
 627:C:/Users/lenovo/Desktop/liteos/Project2/BearPi_LiteOS/components/security/mbedtls/mbedtls-2.6.0/library\rsa.c ****     mbedtls_md_context_t md_ctx;
 628:C:/Users/lenovo/Desktop/liteos/Project2/BearPi_LiteOS/components/security/mbedtls/mbedtls-2.6.0/library\rsa.c **** 
 629:C:/Users/lenovo/Desktop/liteos/Project2/BearPi_LiteOS/components/security/mbedtls/mbedtls-2.6.0/library\rsa.c ****     if( mode == MBEDTLS_RSA_PRIVATE && ctx->padding != MBEDTLS_RSA_PKCS_V21 )
ARM GAS  c:\Users\lenovo\AppData\Local\Temp\ccVehGBj.s 			page 42


 1565              		.loc 1 629 0
 1566 000c 012B     		cmp	r3, #1
 1567 000e 2ED0     		beq	.L100
 1568              	.L89:
 630:C:/Users/lenovo/Desktop/liteos/Project2/BearPi_LiteOS/components/security/mbedtls/mbedtls-2.6.0/library\rsa.c ****         return( MBEDTLS_ERR_RSA_BAD_INPUT_DATA );
 631:C:/Users/lenovo/Desktop/liteos/Project2/BearPi_LiteOS/components/security/mbedtls/mbedtls-2.6.0/library\rsa.c **** 
 632:C:/Users/lenovo/Desktop/liteos/Project2/BearPi_LiteOS/components/security/mbedtls/mbedtls-2.6.0/library\rsa.c ****     if( f_rng == NULL )
 1569              		.loc 1 632 0
 1570 0010 0029     		cmp	r1, #0
 1571 0012 00F08180 		beq	.L95
 1572 0016 0493     		str	r3, [sp, #16]
 1573 0018 0292     		str	r2, [sp, #8]
 1574 001a 8B46     		mov	fp, r1
 1575 001c 0591     		str	r1, [sp, #20]
 1576 001e 0446     		mov	r4, r0
 633:C:/Users/lenovo/Desktop/liteos/Project2/BearPi_LiteOS/components/security/mbedtls/mbedtls-2.6.0/library\rsa.c ****         return( MBEDTLS_ERR_RSA_BAD_INPUT_DATA );
 634:C:/Users/lenovo/Desktop/liteos/Project2/BearPi_LiteOS/components/security/mbedtls/mbedtls-2.6.0/library\rsa.c **** 
 635:C:/Users/lenovo/Desktop/liteos/Project2/BearPi_LiteOS/components/security/mbedtls/mbedtls-2.6.0/library\rsa.c ****     md_info = mbedtls_md_info_from_type( (mbedtls_md_type_t) ctx->hash_id );
 1577              		.loc 1 635 0
 1578 0020 90F8A800 		ldrb	r0, [r0, #168]	@ zero_extendqisi2
 1579              	.LVL259:
 1580 0024 FFF7FEFF 		bl	mbedtls_md_info_from_type
 1581              	.LVL260:
 636:C:/Users/lenovo/Desktop/liteos/Project2/BearPi_LiteOS/components/security/mbedtls/mbedtls-2.6.0/library\rsa.c ****     if( md_info == NULL )
 1582              		.loc 1 636 0
 1583 0028 0390     		str	r0, [sp, #12]
 1584 002a 0028     		cmp	r0, #0
 1585 002c 76D0     		beq	.L96
 637:C:/Users/lenovo/Desktop/liteos/Project2/BearPi_LiteOS/components/security/mbedtls/mbedtls-2.6.0/library\rsa.c ****         return( MBEDTLS_ERR_RSA_BAD_INPUT_DATA );
 638:C:/Users/lenovo/Desktop/liteos/Project2/BearPi_LiteOS/components/security/mbedtls/mbedtls-2.6.0/library\rsa.c **** 
 639:C:/Users/lenovo/Desktop/liteos/Project2/BearPi_LiteOS/components/security/mbedtls/mbedtls-2.6.0/library\rsa.c ****     olen = ctx->len;
 1586              		.loc 1 639 0
 1587 002e 6768     		ldr	r7, [r4, #4]
 1588              	.LVL261:
 640:C:/Users/lenovo/Desktop/liteos/Project2/BearPi_LiteOS/components/security/mbedtls/mbedtls-2.6.0/library\rsa.c ****     hlen = mbedtls_md_get_size( md_info );
 1589              		.loc 1 640 0
 1590 0030 FFF7FEFF 		bl	mbedtls_md_get_size
 1591              	.LVL262:
 1592 0034 8046     		mov	r8, r0
 1593              	.LVL263:
 641:C:/Users/lenovo/Desktop/liteos/Project2/BearPi_LiteOS/components/security/mbedtls/mbedtls-2.6.0/library\rsa.c **** 
 642:C:/Users/lenovo/Desktop/liteos/Project2/BearPi_LiteOS/components/security/mbedtls/mbedtls-2.6.0/library\rsa.c ****     /* first comparison checks for overflow */
 643:C:/Users/lenovo/Desktop/liteos/Project2/BearPi_LiteOS/components/security/mbedtls/mbedtls-2.6.0/library\rsa.c ****     if( ilen + 2 * hlen + 2 < ilen || olen < ilen + 2 * hlen + 2 )
 1594              		.loc 1 643 0
 1595 0036 4500     		lsls	r5, r0, #1
 1596 0038 05EB0903 		add	r3, r5, r9
 1597 003c 0233     		adds	r3, r3, #2
 1598 003e 4B45     		cmp	r3, r9
 1599 0040 6ED3     		bcc	.L97
 1600              		.loc 1 643 0 is_stmt 0 discriminator 1
 1601 0042 BB42     		cmp	r3, r7
 1602 0044 6ED8     		bhi	.L98
 644:C:/Users/lenovo/Desktop/liteos/Project2/BearPi_LiteOS/components/security/mbedtls/mbedtls-2.6.0/library\rsa.c ****         return( MBEDTLS_ERR_RSA_BAD_INPUT_DATA );
 645:C:/Users/lenovo/Desktop/liteos/Project2/BearPi_LiteOS/components/security/mbedtls/mbedtls-2.6.0/library\rsa.c **** 
 646:C:/Users/lenovo/Desktop/liteos/Project2/BearPi_LiteOS/components/security/mbedtls/mbedtls-2.6.0/library\rsa.c ****     memset( output, 0, olen );
 1603              		.loc 1 646 0 is_stmt 1
 1604 0046 3A46     		mov	r2, r7
ARM GAS  c:\Users\lenovo\AppData\Local\Temp\ccVehGBj.s 			page 43


 1605 0048 0021     		movs	r1, #0
 1606 004a 3046     		mov	r0, r6
 1607              	.LVL264:
 1608 004c FFF7FEFF 		bl	memset
 1609              	.LVL265:
 647:C:/Users/lenovo/Desktop/liteos/Project2/BearPi_LiteOS/components/security/mbedtls/mbedtls-2.6.0/library\rsa.c **** 
 648:C:/Users/lenovo/Desktop/liteos/Project2/BearPi_LiteOS/components/security/mbedtls/mbedtls-2.6.0/library\rsa.c ****     *p++ = 0;
 1610              		.loc 1 648 0
 1611 0050 06F1010A 		add	r10, r6, #1
 1612              	.LVL266:
 1613 0054 0023     		movs	r3, #0
 1614 0056 3370     		strb	r3, [r6]
 649:C:/Users/lenovo/Desktop/liteos/Project2/BearPi_LiteOS/components/security/mbedtls/mbedtls-2.6.0/library\rsa.c **** 
 650:C:/Users/lenovo/Desktop/liteos/Project2/BearPi_LiteOS/components/security/mbedtls/mbedtls-2.6.0/library\rsa.c ****     /* Generate a random octet string seed */
 651:C:/Users/lenovo/Desktop/liteos/Project2/BearPi_LiteOS/components/security/mbedtls/mbedtls-2.6.0/library\rsa.c ****     if( ( ret = f_rng( p_rng, p, hlen ) ) != 0 )
 1615              		.loc 1 651 0
 1616 0058 4246     		mov	r2, r8
 1617 005a 5146     		mov	r1, r10
 1618 005c 0298     		ldr	r0, [sp, #8]
 1619 005e D847     		blx	fp
 1620              	.LVL267:
 1621 0060 58B1     		cbz	r0, .L91
 652:C:/Users/lenovo/Desktop/liteos/Project2/BearPi_LiteOS/components/security/mbedtls/mbedtls-2.6.0/library\rsa.c ****         return( MBEDTLS_ERR_RSA_RNG_FAILED + ret );
 1622              		.loc 1 652 0
 1623 0062 A0F58945 		sub	r5, r0, #17536
 1624              	.LVL268:
 1625              	.L88:
 653:C:/Users/lenovo/Desktop/liteos/Project2/BearPi_LiteOS/components/security/mbedtls/mbedtls-2.6.0/library\rsa.c **** 
 654:C:/Users/lenovo/Desktop/liteos/Project2/BearPi_LiteOS/components/security/mbedtls/mbedtls-2.6.0/library\rsa.c ****     p += hlen;
 655:C:/Users/lenovo/Desktop/liteos/Project2/BearPi_LiteOS/components/security/mbedtls/mbedtls-2.6.0/library\rsa.c **** 
 656:C:/Users/lenovo/Desktop/liteos/Project2/BearPi_LiteOS/components/security/mbedtls/mbedtls-2.6.0/library\rsa.c ****     /* Construct DB */
 657:C:/Users/lenovo/Desktop/liteos/Project2/BearPi_LiteOS/components/security/mbedtls/mbedtls-2.6.0/library\rsa.c ****     mbedtls_md( md_info, label, label_len, p );
 658:C:/Users/lenovo/Desktop/liteos/Project2/BearPi_LiteOS/components/security/mbedtls/mbedtls-2.6.0/library\rsa.c ****     p += hlen;
 659:C:/Users/lenovo/Desktop/liteos/Project2/BearPi_LiteOS/components/security/mbedtls/mbedtls-2.6.0/library\rsa.c ****     p += olen - 2 * hlen - 2 - ilen;
 660:C:/Users/lenovo/Desktop/liteos/Project2/BearPi_LiteOS/components/security/mbedtls/mbedtls-2.6.0/library\rsa.c ****     *p++ = 1;
 661:C:/Users/lenovo/Desktop/liteos/Project2/BearPi_LiteOS/components/security/mbedtls/mbedtls-2.6.0/library\rsa.c ****     memcpy( p, input, ilen );
 662:C:/Users/lenovo/Desktop/liteos/Project2/BearPi_LiteOS/components/security/mbedtls/mbedtls-2.6.0/library\rsa.c **** 
 663:C:/Users/lenovo/Desktop/liteos/Project2/BearPi_LiteOS/components/security/mbedtls/mbedtls-2.6.0/library\rsa.c ****     mbedtls_md_init( &md_ctx );
 664:C:/Users/lenovo/Desktop/liteos/Project2/BearPi_LiteOS/components/security/mbedtls/mbedtls-2.6.0/library\rsa.c ****     if( ( ret = mbedtls_md_setup( &md_ctx, md_info, 0 ) ) != 0 )
 665:C:/Users/lenovo/Desktop/liteos/Project2/BearPi_LiteOS/components/security/mbedtls/mbedtls-2.6.0/library\rsa.c ****     {
 666:C:/Users/lenovo/Desktop/liteos/Project2/BearPi_LiteOS/components/security/mbedtls/mbedtls-2.6.0/library\rsa.c ****         mbedtls_md_free( &md_ctx );
 667:C:/Users/lenovo/Desktop/liteos/Project2/BearPi_LiteOS/components/security/mbedtls/mbedtls-2.6.0/library\rsa.c ****         return( ret );
 668:C:/Users/lenovo/Desktop/liteos/Project2/BearPi_LiteOS/components/security/mbedtls/mbedtls-2.6.0/library\rsa.c ****     }
 669:C:/Users/lenovo/Desktop/liteos/Project2/BearPi_LiteOS/components/security/mbedtls/mbedtls-2.6.0/library\rsa.c **** 
 670:C:/Users/lenovo/Desktop/liteos/Project2/BearPi_LiteOS/components/security/mbedtls/mbedtls-2.6.0/library\rsa.c ****     /* maskedDB: Apply dbMask to DB */
 671:C:/Users/lenovo/Desktop/liteos/Project2/BearPi_LiteOS/components/security/mbedtls/mbedtls-2.6.0/library\rsa.c ****     mgf_mask( output + hlen + 1, olen - hlen - 1, output + 1, hlen,
 672:C:/Users/lenovo/Desktop/liteos/Project2/BearPi_LiteOS/components/security/mbedtls/mbedtls-2.6.0/library\rsa.c ****                &md_ctx );
 673:C:/Users/lenovo/Desktop/liteos/Project2/BearPi_LiteOS/components/security/mbedtls/mbedtls-2.6.0/library\rsa.c **** 
 674:C:/Users/lenovo/Desktop/liteos/Project2/BearPi_LiteOS/components/security/mbedtls/mbedtls-2.6.0/library\rsa.c ****     /* maskedSeed: Apply seedMask to seed */
 675:C:/Users/lenovo/Desktop/liteos/Project2/BearPi_LiteOS/components/security/mbedtls/mbedtls-2.6.0/library\rsa.c ****     mgf_mask( output + 1, hlen, output + hlen + 1, olen - hlen - 1,
 676:C:/Users/lenovo/Desktop/liteos/Project2/BearPi_LiteOS/components/security/mbedtls/mbedtls-2.6.0/library\rsa.c ****                &md_ctx );
 677:C:/Users/lenovo/Desktop/liteos/Project2/BearPi_LiteOS/components/security/mbedtls/mbedtls-2.6.0/library\rsa.c **** 
 678:C:/Users/lenovo/Desktop/liteos/Project2/BearPi_LiteOS/components/security/mbedtls/mbedtls-2.6.0/library\rsa.c ****     mbedtls_md_free( &md_ctx );
 679:C:/Users/lenovo/Desktop/liteos/Project2/BearPi_LiteOS/components/security/mbedtls/mbedtls-2.6.0/library\rsa.c **** 
 680:C:/Users/lenovo/Desktop/liteos/Project2/BearPi_LiteOS/components/security/mbedtls/mbedtls-2.6.0/library\rsa.c ****     return( ( mode == MBEDTLS_RSA_PUBLIC )
 681:C:/Users/lenovo/Desktop/liteos/Project2/BearPi_LiteOS/components/security/mbedtls/mbedtls-2.6.0/library\rsa.c ****             ? mbedtls_rsa_public(  ctx, output, output )
 682:C:/Users/lenovo/Desktop/liteos/Project2/BearPi_LiteOS/components/security/mbedtls/mbedtls-2.6.0/library\rsa.c ****             : mbedtls_rsa_private( ctx, f_rng, p_rng, output, output ) );
ARM GAS  c:\Users\lenovo\AppData\Local\Temp\ccVehGBj.s 			page 44


 683:C:/Users/lenovo/Desktop/liteos/Project2/BearPi_LiteOS/components/security/mbedtls/mbedtls-2.6.0/library\rsa.c **** }
 1626              		.loc 1 683 0
 1627 0066 2846     		mov	r0, r5
 1628 0068 0BB0     		add	sp, sp, #44
 1629              	.LCFI24:
 1630              		.cfi_remember_state
 1631              		.cfi_def_cfa_offset 36
 1632              		@ sp needed
 1633 006a BDE8F08F 		pop	{r4, r5, r6, r7, r8, r9, r10, fp, pc}
 1634              	.LVL269:
 1635              	.L100:
 1636              	.LCFI25:
 1637              		.cfi_restore_state
 629:C:/Users/lenovo/Desktop/liteos/Project2/BearPi_LiteOS/components/security/mbedtls/mbedtls-2.6.0/library\rsa.c ****         return( MBEDTLS_ERR_RSA_BAD_INPUT_DATA );
 1638              		.loc 1 629 0 discriminator 1
 1639 006e D0F8A440 		ldr	r4, [r0, #164]
 1640 0072 012C     		cmp	r4, #1
 1641 0074 CCD0     		beq	.L89
 630:C:/Users/lenovo/Desktop/liteos/Project2/BearPi_LiteOS/components/security/mbedtls/mbedtls-2.6.0/library\rsa.c **** 
 1642              		.loc 1 630 0
 1643 0076 2C4D     		ldr	r5, .L103
 1644 0078 F5E7     		b	.L88
 1645              	.LVL270:
 1646              	.L91:
 654:C:/Users/lenovo/Desktop/liteos/Project2/BearPi_LiteOS/components/security/mbedtls/mbedtls-2.6.0/library\rsa.c **** 
 1647              		.loc 1 654 0
 1648 007a 0AEB080B 		add	fp, r10, r8
 1649              	.LVL271:
 657:C:/Users/lenovo/Desktop/liteos/Project2/BearPi_LiteOS/components/security/mbedtls/mbedtls-2.6.0/library\rsa.c ****     p += hlen;
 1650              		.loc 1 657 0
 1651 007e 5B46     		mov	r3, fp
 1652 0080 159A     		ldr	r2, [sp, #84]
 1653 0082 1499     		ldr	r1, [sp, #80]
 1654 0084 0398     		ldr	r0, [sp, #12]
 1655              	.LVL272:
 1656 0086 FFF7FEFF 		bl	mbedtls_md
 1657              	.LVL273:
 659:C:/Users/lenovo/Desktop/liteos/Project2/BearPi_LiteOS/components/security/mbedtls/mbedtls-2.6.0/library\rsa.c ****     *p++ = 1;
 1658              		.loc 1 659 0
 1659 008a 7D1B     		subs	r5, r7, r5
 1660 008c A5EB0905 		sub	r5, r5, r9
 1661 0090 023D     		subs	r5, r5, #2
 1662 0092 4544     		add	r5, r5, r8
 1663 0094 0BEB0500 		add	r0, fp, r5
 1664              	.LVL274:
 660:C:/Users/lenovo/Desktop/liteos/Project2/BearPi_LiteOS/components/security/mbedtls/mbedtls-2.6.0/library\rsa.c ****     memcpy( p, input, ilen );
 1665              		.loc 1 660 0
 1666 0098 0123     		movs	r3, #1
 1667 009a 0BF80530 		strb	r3, [fp, r5]
 661:C:/Users/lenovo/Desktop/liteos/Project2/BearPi_LiteOS/components/security/mbedtls/mbedtls-2.6.0/library\rsa.c **** 
 1668              		.loc 1 661 0
 1669 009e 4A46     		mov	r2, r9
 1670 00a0 1799     		ldr	r1, [sp, #92]
 1671 00a2 1844     		add	r0, r0, r3
 1672              	.LVL275:
 1673 00a4 FFF7FEFF 		bl	memcpy
 1674              	.LVL276:
ARM GAS  c:\Users\lenovo\AppData\Local\Temp\ccVehGBj.s 			page 45


 663:C:/Users/lenovo/Desktop/liteos/Project2/BearPi_LiteOS/components/security/mbedtls/mbedtls-2.6.0/library\rsa.c ****     if( ( ret = mbedtls_md_setup( &md_ctx, md_info, 0 ) ) != 0 )
 1675              		.loc 1 663 0
 1676 00a8 07A8     		add	r0, sp, #28
 1677 00aa FFF7FEFF 		bl	mbedtls_md_init
 1678              	.LVL277:
 664:C:/Users/lenovo/Desktop/liteos/Project2/BearPi_LiteOS/components/security/mbedtls/mbedtls-2.6.0/library\rsa.c ****     {
 1679              		.loc 1 664 0
 1680 00ae 0022     		movs	r2, #0
 1681 00b0 0399     		ldr	r1, [sp, #12]
 1682 00b2 07A8     		add	r0, sp, #28
 1683 00b4 FFF7FEFF 		bl	mbedtls_md_setup
 1684              	.LVL278:
 1685 00b8 0546     		mov	r5, r0
 1686              	.LVL279:
 1687 00ba 10BB     		cbnz	r0, .L101
 671:C:/Users/lenovo/Desktop/liteos/Project2/BearPi_LiteOS/components/security/mbedtls/mbedtls-2.6.0/library\rsa.c ****                &md_ctx );
 1688              		.loc 1 671 0
 1689 00bc 08F10109 		add	r9, r8, #1
 1690              	.LVL280:
 1691 00c0 B144     		add	r9, r9, r6
 1692 00c2 A7EB0807 		sub	r7, r7, r8
 1693              	.LVL281:
 1694 00c6 013F     		subs	r7, r7, #1
 1695 00c8 07AD     		add	r5, sp, #28
 1696 00ca 0095     		str	r5, [sp]
 1697 00cc 4346     		mov	r3, r8
 1698 00ce 5246     		mov	r2, r10
 1699 00d0 3946     		mov	r1, r7
 1700 00d2 4846     		mov	r0, r9
 1701              	.LVL282:
 1702 00d4 FFF7FEFF 		bl	mgf_mask
 1703              	.LVL283:
 675:C:/Users/lenovo/Desktop/liteos/Project2/BearPi_LiteOS/components/security/mbedtls/mbedtls-2.6.0/library\rsa.c ****                &md_ctx );
 1704              		.loc 1 675 0
 1705 00d8 0095     		str	r5, [sp]
 1706 00da 3B46     		mov	r3, r7
 1707 00dc 4A46     		mov	r2, r9
 1708 00de 4146     		mov	r1, r8
 1709 00e0 5046     		mov	r0, r10
 1710 00e2 FFF7FEFF 		bl	mgf_mask
 1711              	.LVL284:
 678:C:/Users/lenovo/Desktop/liteos/Project2/BearPi_LiteOS/components/security/mbedtls/mbedtls-2.6.0/library\rsa.c **** 
 1712              		.loc 1 678 0
 1713 00e6 2846     		mov	r0, r5
 1714 00e8 FFF7FEFF 		bl	mbedtls_md_free
 1715              	.LVL285:
 682:C:/Users/lenovo/Desktop/liteos/Project2/BearPi_LiteOS/components/security/mbedtls/mbedtls-2.6.0/library\rsa.c **** }
 1716              		.loc 1 682 0
 1717 00ec 049B     		ldr	r3, [sp, #16]
 1718 00ee 63B1     		cbz	r3, .L102
 682:C:/Users/lenovo/Desktop/liteos/Project2/BearPi_LiteOS/components/security/mbedtls/mbedtls-2.6.0/library\rsa.c **** }
 1719              		.loc 1 682 0 is_stmt 0 discriminator 2
 1720 00f0 0096     		str	r6, [sp]
 1721 00f2 3346     		mov	r3, r6
 1722 00f4 029A     		ldr	r2, [sp, #8]
 1723 00f6 0599     		ldr	r1, [sp, #20]
 1724 00f8 2046     		mov	r0, r4
ARM GAS  c:\Users\lenovo\AppData\Local\Temp\ccVehGBj.s 			page 46


 1725 00fa FFF7FEFF 		bl	mbedtls_rsa_private
 1726              	.LVL286:
 1727 00fe 0546     		mov	r5, r0
 1728 0100 B1E7     		b	.L88
 1729              	.LVL287:
 1730              	.L101:
 666:C:/Users/lenovo/Desktop/liteos/Project2/BearPi_LiteOS/components/security/mbedtls/mbedtls-2.6.0/library\rsa.c ****         return( ret );
 1731              		.loc 1 666 0 is_stmt 1
 1732 0102 07A8     		add	r0, sp, #28
 1733              	.LVL288:
 1734 0104 FFF7FEFF 		bl	mbedtls_md_free
 1735              	.LVL289:
 667:C:/Users/lenovo/Desktop/liteos/Project2/BearPi_LiteOS/components/security/mbedtls/mbedtls-2.6.0/library\rsa.c ****     }
 1736              		.loc 1 667 0
 1737 0108 ADE7     		b	.L88
 1738              	.LVL290:
 1739              	.L102:
 682:C:/Users/lenovo/Desktop/liteos/Project2/BearPi_LiteOS/components/security/mbedtls/mbedtls-2.6.0/library\rsa.c **** }
 1740              		.loc 1 682 0 discriminator 1
 1741 010a 3246     		mov	r2, r6
 1742 010c 3146     		mov	r1, r6
 1743 010e 2046     		mov	r0, r4
 1744 0110 FFF7FEFF 		bl	mbedtls_rsa_public
 1745              	.LVL291:
 1746 0114 0546     		mov	r5, r0
 1747 0116 A6E7     		b	.L88
 1748              	.LVL292:
 1749              	.L95:
 633:C:/Users/lenovo/Desktop/liteos/Project2/BearPi_LiteOS/components/security/mbedtls/mbedtls-2.6.0/library\rsa.c **** 
 1750              		.loc 1 633 0
 1751 0118 034D     		ldr	r5, .L103
 1752 011a A4E7     		b	.L88
 1753              	.LVL293:
 1754              	.L96:
 637:C:/Users/lenovo/Desktop/liteos/Project2/BearPi_LiteOS/components/security/mbedtls/mbedtls-2.6.0/library\rsa.c **** 
 1755              		.loc 1 637 0
 1756 011c 024D     		ldr	r5, .L103
 1757 011e A2E7     		b	.L88
 1758              	.LVL294:
 1759              	.L97:
 644:C:/Users/lenovo/Desktop/liteos/Project2/BearPi_LiteOS/components/security/mbedtls/mbedtls-2.6.0/library\rsa.c **** 
 1760              		.loc 1 644 0
 1761 0120 014D     		ldr	r5, .L103
 1762 0122 A0E7     		b	.L88
 1763              	.L98:
 1764 0124 004D     		ldr	r5, .L103
 1765 0126 9EE7     		b	.L88
 1766              	.L104:
 1767              		.align	2
 1768              	.L103:
 1769 0128 80BFFFFF 		.word	-16512
 1770              		.cfi_endproc
 1771              	.LFE22:
 1773              		.section	.text.mbedtls_rsa_pkcs1_encrypt,"ax",%progbits
 1774              		.align	1
 1775              		.global	mbedtls_rsa_pkcs1_encrypt
 1776              		.syntax unified
ARM GAS  c:\Users\lenovo\AppData\Local\Temp\ccVehGBj.s 			page 47


 1777              		.thumb
 1778              		.thumb_func
 1779              		.fpu fpv4-sp-d16
 1781              	mbedtls_rsa_pkcs1_encrypt:
 1782              	.LFB23:
 684:C:/Users/lenovo/Desktop/liteos/Project2/BearPi_LiteOS/components/security/mbedtls/mbedtls-2.6.0/library\rsa.c **** #endif /* MBEDTLS_PKCS1_V21 */
 685:C:/Users/lenovo/Desktop/liteos/Project2/BearPi_LiteOS/components/security/mbedtls/mbedtls-2.6.0/library\rsa.c **** 
 686:C:/Users/lenovo/Desktop/liteos/Project2/BearPi_LiteOS/components/security/mbedtls/mbedtls-2.6.0/library\rsa.c **** #if defined(MBEDTLS_PKCS1_V15)
 687:C:/Users/lenovo/Desktop/liteos/Project2/BearPi_LiteOS/components/security/mbedtls/mbedtls-2.6.0/library\rsa.c **** /*
 688:C:/Users/lenovo/Desktop/liteos/Project2/BearPi_LiteOS/components/security/mbedtls/mbedtls-2.6.0/library\rsa.c ****  * Implementation of the PKCS#1 v2.1 RSAES-PKCS1-V1_5-ENCRYPT function
 689:C:/Users/lenovo/Desktop/liteos/Project2/BearPi_LiteOS/components/security/mbedtls/mbedtls-2.6.0/library\rsa.c ****  */
 690:C:/Users/lenovo/Desktop/liteos/Project2/BearPi_LiteOS/components/security/mbedtls/mbedtls-2.6.0/library\rsa.c **** int mbedtls_rsa_rsaes_pkcs1_v15_encrypt( mbedtls_rsa_context *ctx,
 691:C:/Users/lenovo/Desktop/liteos/Project2/BearPi_LiteOS/components/security/mbedtls/mbedtls-2.6.0/library\rsa.c ****                                  int (*f_rng)(void *, unsigned char *, size_t),
 692:C:/Users/lenovo/Desktop/liteos/Project2/BearPi_LiteOS/components/security/mbedtls/mbedtls-2.6.0/library\rsa.c ****                                  void *p_rng,
 693:C:/Users/lenovo/Desktop/liteos/Project2/BearPi_LiteOS/components/security/mbedtls/mbedtls-2.6.0/library\rsa.c ****                                  int mode, size_t ilen,
 694:C:/Users/lenovo/Desktop/liteos/Project2/BearPi_LiteOS/components/security/mbedtls/mbedtls-2.6.0/library\rsa.c ****                                  const unsigned char *input,
 695:C:/Users/lenovo/Desktop/liteos/Project2/BearPi_LiteOS/components/security/mbedtls/mbedtls-2.6.0/library\rsa.c ****                                  unsigned char *output )
 696:C:/Users/lenovo/Desktop/liteos/Project2/BearPi_LiteOS/components/security/mbedtls/mbedtls-2.6.0/library\rsa.c **** {
 697:C:/Users/lenovo/Desktop/liteos/Project2/BearPi_LiteOS/components/security/mbedtls/mbedtls-2.6.0/library\rsa.c ****     size_t nb_pad, olen;
 698:C:/Users/lenovo/Desktop/liteos/Project2/BearPi_LiteOS/components/security/mbedtls/mbedtls-2.6.0/library\rsa.c ****     int ret;
 699:C:/Users/lenovo/Desktop/liteos/Project2/BearPi_LiteOS/components/security/mbedtls/mbedtls-2.6.0/library\rsa.c ****     unsigned char *p = output;
 700:C:/Users/lenovo/Desktop/liteos/Project2/BearPi_LiteOS/components/security/mbedtls/mbedtls-2.6.0/library\rsa.c **** 
 701:C:/Users/lenovo/Desktop/liteos/Project2/BearPi_LiteOS/components/security/mbedtls/mbedtls-2.6.0/library\rsa.c ****     if( mode == MBEDTLS_RSA_PRIVATE && ctx->padding != MBEDTLS_RSA_PKCS_V15 )
 702:C:/Users/lenovo/Desktop/liteos/Project2/BearPi_LiteOS/components/security/mbedtls/mbedtls-2.6.0/library\rsa.c ****         return( MBEDTLS_ERR_RSA_BAD_INPUT_DATA );
 703:C:/Users/lenovo/Desktop/liteos/Project2/BearPi_LiteOS/components/security/mbedtls/mbedtls-2.6.0/library\rsa.c **** 
 704:C:/Users/lenovo/Desktop/liteos/Project2/BearPi_LiteOS/components/security/mbedtls/mbedtls-2.6.0/library\rsa.c ****     // We don't check p_rng because it won't be dereferenced here
 705:C:/Users/lenovo/Desktop/liteos/Project2/BearPi_LiteOS/components/security/mbedtls/mbedtls-2.6.0/library\rsa.c ****     if( f_rng == NULL || input == NULL || output == NULL )
 706:C:/Users/lenovo/Desktop/liteos/Project2/BearPi_LiteOS/components/security/mbedtls/mbedtls-2.6.0/library\rsa.c ****         return( MBEDTLS_ERR_RSA_BAD_INPUT_DATA );
 707:C:/Users/lenovo/Desktop/liteos/Project2/BearPi_LiteOS/components/security/mbedtls/mbedtls-2.6.0/library\rsa.c **** 
 708:C:/Users/lenovo/Desktop/liteos/Project2/BearPi_LiteOS/components/security/mbedtls/mbedtls-2.6.0/library\rsa.c ****     olen = ctx->len;
 709:C:/Users/lenovo/Desktop/liteos/Project2/BearPi_LiteOS/components/security/mbedtls/mbedtls-2.6.0/library\rsa.c **** 
 710:C:/Users/lenovo/Desktop/liteos/Project2/BearPi_LiteOS/components/security/mbedtls/mbedtls-2.6.0/library\rsa.c ****     /* first comparison checks for overflow */
 711:C:/Users/lenovo/Desktop/liteos/Project2/BearPi_LiteOS/components/security/mbedtls/mbedtls-2.6.0/library\rsa.c ****     if( ilen + 11 < ilen || olen < ilen + 11 )
 712:C:/Users/lenovo/Desktop/liteos/Project2/BearPi_LiteOS/components/security/mbedtls/mbedtls-2.6.0/library\rsa.c ****         return( MBEDTLS_ERR_RSA_BAD_INPUT_DATA );
 713:C:/Users/lenovo/Desktop/liteos/Project2/BearPi_LiteOS/components/security/mbedtls/mbedtls-2.6.0/library\rsa.c **** 
 714:C:/Users/lenovo/Desktop/liteos/Project2/BearPi_LiteOS/components/security/mbedtls/mbedtls-2.6.0/library\rsa.c ****     nb_pad = olen - 3 - ilen;
 715:C:/Users/lenovo/Desktop/liteos/Project2/BearPi_LiteOS/components/security/mbedtls/mbedtls-2.6.0/library\rsa.c **** 
 716:C:/Users/lenovo/Desktop/liteos/Project2/BearPi_LiteOS/components/security/mbedtls/mbedtls-2.6.0/library\rsa.c ****     *p++ = 0;
 717:C:/Users/lenovo/Desktop/liteos/Project2/BearPi_LiteOS/components/security/mbedtls/mbedtls-2.6.0/library\rsa.c ****     if( mode == MBEDTLS_RSA_PUBLIC )
 718:C:/Users/lenovo/Desktop/liteos/Project2/BearPi_LiteOS/components/security/mbedtls/mbedtls-2.6.0/library\rsa.c ****     {
 719:C:/Users/lenovo/Desktop/liteos/Project2/BearPi_LiteOS/components/security/mbedtls/mbedtls-2.6.0/library\rsa.c ****         *p++ = MBEDTLS_RSA_CRYPT;
 720:C:/Users/lenovo/Desktop/liteos/Project2/BearPi_LiteOS/components/security/mbedtls/mbedtls-2.6.0/library\rsa.c **** 
 721:C:/Users/lenovo/Desktop/liteos/Project2/BearPi_LiteOS/components/security/mbedtls/mbedtls-2.6.0/library\rsa.c ****         while( nb_pad-- > 0 )
 722:C:/Users/lenovo/Desktop/liteos/Project2/BearPi_LiteOS/components/security/mbedtls/mbedtls-2.6.0/library\rsa.c ****         {
 723:C:/Users/lenovo/Desktop/liteos/Project2/BearPi_LiteOS/components/security/mbedtls/mbedtls-2.6.0/library\rsa.c ****             int rng_dl = 100;
 724:C:/Users/lenovo/Desktop/liteos/Project2/BearPi_LiteOS/components/security/mbedtls/mbedtls-2.6.0/library\rsa.c **** 
 725:C:/Users/lenovo/Desktop/liteos/Project2/BearPi_LiteOS/components/security/mbedtls/mbedtls-2.6.0/library\rsa.c ****             do {
 726:C:/Users/lenovo/Desktop/liteos/Project2/BearPi_LiteOS/components/security/mbedtls/mbedtls-2.6.0/library\rsa.c ****                 ret = f_rng( p_rng, p, 1 );
 727:C:/Users/lenovo/Desktop/liteos/Project2/BearPi_LiteOS/components/security/mbedtls/mbedtls-2.6.0/library\rsa.c ****             } while( *p == 0 && --rng_dl && ret == 0 );
 728:C:/Users/lenovo/Desktop/liteos/Project2/BearPi_LiteOS/components/security/mbedtls/mbedtls-2.6.0/library\rsa.c **** 
 729:C:/Users/lenovo/Desktop/liteos/Project2/BearPi_LiteOS/components/security/mbedtls/mbedtls-2.6.0/library\rsa.c ****             /* Check if RNG failed to generate data */
 730:C:/Users/lenovo/Desktop/liteos/Project2/BearPi_LiteOS/components/security/mbedtls/mbedtls-2.6.0/library\rsa.c ****             if( rng_dl == 0 || ret != 0 )
 731:C:/Users/lenovo/Desktop/liteos/Project2/BearPi_LiteOS/components/security/mbedtls/mbedtls-2.6.0/library\rsa.c ****                 return( MBEDTLS_ERR_RSA_RNG_FAILED + ret );
 732:C:/Users/lenovo/Desktop/liteos/Project2/BearPi_LiteOS/components/security/mbedtls/mbedtls-2.6.0/library\rsa.c **** 
 733:C:/Users/lenovo/Desktop/liteos/Project2/BearPi_LiteOS/components/security/mbedtls/mbedtls-2.6.0/library\rsa.c ****             p++;
 734:C:/Users/lenovo/Desktop/liteos/Project2/BearPi_LiteOS/components/security/mbedtls/mbedtls-2.6.0/library\rsa.c ****         }
 735:C:/Users/lenovo/Desktop/liteos/Project2/BearPi_LiteOS/components/security/mbedtls/mbedtls-2.6.0/library\rsa.c ****     }
ARM GAS  c:\Users\lenovo\AppData\Local\Temp\ccVehGBj.s 			page 48


 736:C:/Users/lenovo/Desktop/liteos/Project2/BearPi_LiteOS/components/security/mbedtls/mbedtls-2.6.0/library\rsa.c ****     else
 737:C:/Users/lenovo/Desktop/liteos/Project2/BearPi_LiteOS/components/security/mbedtls/mbedtls-2.6.0/library\rsa.c ****     {
 738:C:/Users/lenovo/Desktop/liteos/Project2/BearPi_LiteOS/components/security/mbedtls/mbedtls-2.6.0/library\rsa.c ****         *p++ = MBEDTLS_RSA_SIGN;
 739:C:/Users/lenovo/Desktop/liteos/Project2/BearPi_LiteOS/components/security/mbedtls/mbedtls-2.6.0/library\rsa.c **** 
 740:C:/Users/lenovo/Desktop/liteos/Project2/BearPi_LiteOS/components/security/mbedtls/mbedtls-2.6.0/library\rsa.c ****         while( nb_pad-- > 0 )
 741:C:/Users/lenovo/Desktop/liteos/Project2/BearPi_LiteOS/components/security/mbedtls/mbedtls-2.6.0/library\rsa.c ****             *p++ = 0xFF;
 742:C:/Users/lenovo/Desktop/liteos/Project2/BearPi_LiteOS/components/security/mbedtls/mbedtls-2.6.0/library\rsa.c ****     }
 743:C:/Users/lenovo/Desktop/liteos/Project2/BearPi_LiteOS/components/security/mbedtls/mbedtls-2.6.0/library\rsa.c **** 
 744:C:/Users/lenovo/Desktop/liteos/Project2/BearPi_LiteOS/components/security/mbedtls/mbedtls-2.6.0/library\rsa.c ****     *p++ = 0;
 745:C:/Users/lenovo/Desktop/liteos/Project2/BearPi_LiteOS/components/security/mbedtls/mbedtls-2.6.0/library\rsa.c ****     memcpy( p, input, ilen );
 746:C:/Users/lenovo/Desktop/liteos/Project2/BearPi_LiteOS/components/security/mbedtls/mbedtls-2.6.0/library\rsa.c **** 
 747:C:/Users/lenovo/Desktop/liteos/Project2/BearPi_LiteOS/components/security/mbedtls/mbedtls-2.6.0/library\rsa.c ****     return( ( mode == MBEDTLS_RSA_PUBLIC )
 748:C:/Users/lenovo/Desktop/liteos/Project2/BearPi_LiteOS/components/security/mbedtls/mbedtls-2.6.0/library\rsa.c ****             ? mbedtls_rsa_public(  ctx, output, output )
 749:C:/Users/lenovo/Desktop/liteos/Project2/BearPi_LiteOS/components/security/mbedtls/mbedtls-2.6.0/library\rsa.c ****             : mbedtls_rsa_private( ctx, f_rng, p_rng, output, output ) );
 750:C:/Users/lenovo/Desktop/liteos/Project2/BearPi_LiteOS/components/security/mbedtls/mbedtls-2.6.0/library\rsa.c **** }
 751:C:/Users/lenovo/Desktop/liteos/Project2/BearPi_LiteOS/components/security/mbedtls/mbedtls-2.6.0/library\rsa.c **** #endif /* MBEDTLS_PKCS1_V15 */
 752:C:/Users/lenovo/Desktop/liteos/Project2/BearPi_LiteOS/components/security/mbedtls/mbedtls-2.6.0/library\rsa.c **** 
 753:C:/Users/lenovo/Desktop/liteos/Project2/BearPi_LiteOS/components/security/mbedtls/mbedtls-2.6.0/library\rsa.c **** /*
 754:C:/Users/lenovo/Desktop/liteos/Project2/BearPi_LiteOS/components/security/mbedtls/mbedtls-2.6.0/library\rsa.c ****  * Add the message padding, then do an RSA operation
 755:C:/Users/lenovo/Desktop/liteos/Project2/BearPi_LiteOS/components/security/mbedtls/mbedtls-2.6.0/library\rsa.c ****  */
 756:C:/Users/lenovo/Desktop/liteos/Project2/BearPi_LiteOS/components/security/mbedtls/mbedtls-2.6.0/library\rsa.c **** int mbedtls_rsa_pkcs1_encrypt( mbedtls_rsa_context *ctx,
 757:C:/Users/lenovo/Desktop/liteos/Project2/BearPi_LiteOS/components/security/mbedtls/mbedtls-2.6.0/library\rsa.c ****                        int (*f_rng)(void *, unsigned char *, size_t),
 758:C:/Users/lenovo/Desktop/liteos/Project2/BearPi_LiteOS/components/security/mbedtls/mbedtls-2.6.0/library\rsa.c ****                        void *p_rng,
 759:C:/Users/lenovo/Desktop/liteos/Project2/BearPi_LiteOS/components/security/mbedtls/mbedtls-2.6.0/library\rsa.c ****                        int mode, size_t ilen,
 760:C:/Users/lenovo/Desktop/liteos/Project2/BearPi_LiteOS/components/security/mbedtls/mbedtls-2.6.0/library\rsa.c ****                        const unsigned char *input,
 761:C:/Users/lenovo/Desktop/liteos/Project2/BearPi_LiteOS/components/security/mbedtls/mbedtls-2.6.0/library\rsa.c ****                        unsigned char *output )
 762:C:/Users/lenovo/Desktop/liteos/Project2/BearPi_LiteOS/components/security/mbedtls/mbedtls-2.6.0/library\rsa.c **** {
 1783              		.loc 1 762 0
 1784              		.cfi_startproc
 1785              		@ args = 12, pretend = 0, frame = 0
 1786              		@ frame_needed = 0, uses_anonymous_args = 0
 1787              	.LVL295:
 1788 0000 10B5     		push	{r4, lr}
 1789              	.LCFI26:
 1790              		.cfi_def_cfa_offset 8
 1791              		.cfi_offset 4, -8
 1792              		.cfi_offset 14, -4
 1793 0002 86B0     		sub	sp, sp, #24
 1794              	.LCFI27:
 1795              		.cfi_def_cfa_offset 32
 763:C:/Users/lenovo/Desktop/liteos/Project2/BearPi_LiteOS/components/security/mbedtls/mbedtls-2.6.0/library\rsa.c ****     switch( ctx->padding )
 1796              		.loc 1 763 0
 1797 0004 D0F8A440 		ldr	r4, [r0, #164]
 1798 0008 012C     		cmp	r4, #1
 1799 000a 0CD1     		bne	.L109
 764:C:/Users/lenovo/Desktop/liteos/Project2/BearPi_LiteOS/components/security/mbedtls/mbedtls-2.6.0/library\rsa.c ****     {
 765:C:/Users/lenovo/Desktop/liteos/Project2/BearPi_LiteOS/components/security/mbedtls/mbedtls-2.6.0/library\rsa.c **** #if defined(MBEDTLS_PKCS1_V15)
 766:C:/Users/lenovo/Desktop/liteos/Project2/BearPi_LiteOS/components/security/mbedtls/mbedtls-2.6.0/library\rsa.c ****         case MBEDTLS_RSA_PKCS_V15:
 767:C:/Users/lenovo/Desktop/liteos/Project2/BearPi_LiteOS/components/security/mbedtls/mbedtls-2.6.0/library\rsa.c ****             return mbedtls_rsa_rsaes_pkcs1_v15_encrypt( ctx, f_rng, p_rng, mode, ilen,
 768:C:/Users/lenovo/Desktop/liteos/Project2/BearPi_LiteOS/components/security/mbedtls/mbedtls-2.6.0/library\rsa.c ****                                                 input, output );
 769:C:/Users/lenovo/Desktop/liteos/Project2/BearPi_LiteOS/components/security/mbedtls/mbedtls-2.6.0/library\rsa.c **** #endif
 770:C:/Users/lenovo/Desktop/liteos/Project2/BearPi_LiteOS/components/security/mbedtls/mbedtls-2.6.0/library\rsa.c **** 
 771:C:/Users/lenovo/Desktop/liteos/Project2/BearPi_LiteOS/components/security/mbedtls/mbedtls-2.6.0/library\rsa.c **** #if defined(MBEDTLS_PKCS1_V21)
 772:C:/Users/lenovo/Desktop/liteos/Project2/BearPi_LiteOS/components/security/mbedtls/mbedtls-2.6.0/library\rsa.c ****         case MBEDTLS_RSA_PKCS_V21:
 773:C:/Users/lenovo/Desktop/liteos/Project2/BearPi_LiteOS/components/security/mbedtls/mbedtls-2.6.0/library\rsa.c ****             return mbedtls_rsa_rsaes_oaep_encrypt( ctx, f_rng, p_rng, mode, NULL, 0,
 1800              		.loc 1 773 0
 1801 000c 0A9C     		ldr	r4, [sp, #40]
ARM GAS  c:\Users\lenovo\AppData\Local\Temp\ccVehGBj.s 			page 49


 1802 000e 0494     		str	r4, [sp, #16]
 1803 0010 099C     		ldr	r4, [sp, #36]
 1804 0012 0394     		str	r4, [sp, #12]
 1805 0014 089C     		ldr	r4, [sp, #32]
 1806 0016 0294     		str	r4, [sp, #8]
 1807 0018 0024     		movs	r4, #0
 1808 001a 0194     		str	r4, [sp, #4]
 1809 001c 0094     		str	r4, [sp]
 1810 001e FFF7FEFF 		bl	mbedtls_rsa_rsaes_oaep_encrypt
 1811              	.LVL296:
 1812              	.L105:
 774:C:/Users/lenovo/Desktop/liteos/Project2/BearPi_LiteOS/components/security/mbedtls/mbedtls-2.6.0/library\rsa.c ****                                            ilen, input, output );
 775:C:/Users/lenovo/Desktop/liteos/Project2/BearPi_LiteOS/components/security/mbedtls/mbedtls-2.6.0/library\rsa.c **** #endif
 776:C:/Users/lenovo/Desktop/liteos/Project2/BearPi_LiteOS/components/security/mbedtls/mbedtls-2.6.0/library\rsa.c **** 
 777:C:/Users/lenovo/Desktop/liteos/Project2/BearPi_LiteOS/components/security/mbedtls/mbedtls-2.6.0/library\rsa.c ****         default:
 778:C:/Users/lenovo/Desktop/liteos/Project2/BearPi_LiteOS/components/security/mbedtls/mbedtls-2.6.0/library\rsa.c ****             return( MBEDTLS_ERR_RSA_INVALID_PADDING );
 779:C:/Users/lenovo/Desktop/liteos/Project2/BearPi_LiteOS/components/security/mbedtls/mbedtls-2.6.0/library\rsa.c ****     }
 780:C:/Users/lenovo/Desktop/liteos/Project2/BearPi_LiteOS/components/security/mbedtls/mbedtls-2.6.0/library\rsa.c **** }
 1813              		.loc 1 780 0
 1814 0022 06B0     		add	sp, sp, #24
 1815              	.LCFI28:
 1816              		.cfi_remember_state
 1817              		.cfi_def_cfa_offset 8
 1818              		@ sp needed
 1819 0024 10BD     		pop	{r4, pc}
 1820              	.LVL297:
 1821              	.L109:
 1822              	.LCFI29:
 1823              		.cfi_restore_state
 778:C:/Users/lenovo/Desktop/liteos/Project2/BearPi_LiteOS/components/security/mbedtls/mbedtls-2.6.0/library\rsa.c ****     }
 1824              		.loc 1 778 0
 1825 0026 0148     		ldr	r0, .L111
 1826              	.LVL298:
 1827 0028 FBE7     		b	.L105
 1828              	.L112:
 1829 002a 00BF     		.align	2
 1830              	.L111:
 1831 002c 00BFFFFF 		.word	-16640
 1832              		.cfi_endproc
 1833              	.LFE23:
 1835              		.section	.text.mbedtls_rsa_rsaes_oaep_decrypt,"ax",%progbits
 1836              		.align	1
 1837              		.global	mbedtls_rsa_rsaes_oaep_decrypt
 1838              		.syntax unified
 1839              		.thumb
 1840              		.thumb_func
 1841              		.fpu fpv4-sp-d16
 1843              	mbedtls_rsa_rsaes_oaep_decrypt:
 1844              	.LFB24:
 781:C:/Users/lenovo/Desktop/liteos/Project2/BearPi_LiteOS/components/security/mbedtls/mbedtls-2.6.0/library\rsa.c **** 
 782:C:/Users/lenovo/Desktop/liteos/Project2/BearPi_LiteOS/components/security/mbedtls/mbedtls-2.6.0/library\rsa.c **** #if defined(MBEDTLS_PKCS1_V21)
 783:C:/Users/lenovo/Desktop/liteos/Project2/BearPi_LiteOS/components/security/mbedtls/mbedtls-2.6.0/library\rsa.c **** /*
 784:C:/Users/lenovo/Desktop/liteos/Project2/BearPi_LiteOS/components/security/mbedtls/mbedtls-2.6.0/library\rsa.c ****  * Implementation of the PKCS#1 v2.1 RSAES-OAEP-DECRYPT function
 785:C:/Users/lenovo/Desktop/liteos/Project2/BearPi_LiteOS/components/security/mbedtls/mbedtls-2.6.0/library\rsa.c ****  */
 786:C:/Users/lenovo/Desktop/liteos/Project2/BearPi_LiteOS/components/security/mbedtls/mbedtls-2.6.0/library\rsa.c **** int mbedtls_rsa_rsaes_oaep_decrypt( mbedtls_rsa_context *ctx,
 787:C:/Users/lenovo/Desktop/liteos/Project2/BearPi_LiteOS/components/security/mbedtls/mbedtls-2.6.0/library\rsa.c ****                             int (*f_rng)(void *, unsigned char *, size_t),
 788:C:/Users/lenovo/Desktop/liteos/Project2/BearPi_LiteOS/components/security/mbedtls/mbedtls-2.6.0/library\rsa.c ****                             void *p_rng,
ARM GAS  c:\Users\lenovo\AppData\Local\Temp\ccVehGBj.s 			page 50


 789:C:/Users/lenovo/Desktop/liteos/Project2/BearPi_LiteOS/components/security/mbedtls/mbedtls-2.6.0/library\rsa.c ****                             int mode,
 790:C:/Users/lenovo/Desktop/liteos/Project2/BearPi_LiteOS/components/security/mbedtls/mbedtls-2.6.0/library\rsa.c ****                             const unsigned char *label, size_t label_len,
 791:C:/Users/lenovo/Desktop/liteos/Project2/BearPi_LiteOS/components/security/mbedtls/mbedtls-2.6.0/library\rsa.c ****                             size_t *olen,
 792:C:/Users/lenovo/Desktop/liteos/Project2/BearPi_LiteOS/components/security/mbedtls/mbedtls-2.6.0/library\rsa.c ****                             const unsigned char *input,
 793:C:/Users/lenovo/Desktop/liteos/Project2/BearPi_LiteOS/components/security/mbedtls/mbedtls-2.6.0/library\rsa.c ****                             unsigned char *output,
 794:C:/Users/lenovo/Desktop/liteos/Project2/BearPi_LiteOS/components/security/mbedtls/mbedtls-2.6.0/library\rsa.c ****                             size_t output_max_len )
 795:C:/Users/lenovo/Desktop/liteos/Project2/BearPi_LiteOS/components/security/mbedtls/mbedtls-2.6.0/library\rsa.c **** {
 1845              		.loc 1 795 0
 1846              		.cfi_startproc
 1847              		@ args = 24, pretend = 0, frame = 1080
 1848              		@ frame_needed = 0, uses_anonymous_args = 0
 1849              	.LVL299:
 1850 0000 2DE9F04F 		push	{r4, r5, r6, r7, r8, r9, r10, fp, lr}
 1851              	.LCFI30:
 1852              		.cfi_def_cfa_offset 36
 1853              		.cfi_offset 4, -36
 1854              		.cfi_offset 5, -32
 1855              		.cfi_offset 6, -28
 1856              		.cfi_offset 7, -24
 1857              		.cfi_offset 8, -20
 1858              		.cfi_offset 9, -16
 1859              		.cfi_offset 10, -12
 1860              		.cfi_offset 11, -8
 1861              		.cfi_offset 14, -4
 1862 0004 ADF2444D 		subw	sp, sp, #1092
 1863              	.LCFI31:
 1864              		.cfi_def_cfa_offset 1128
 796:C:/Users/lenovo/Desktop/liteos/Project2/BearPi_LiteOS/components/security/mbedtls/mbedtls-2.6.0/library\rsa.c ****     int ret;
 797:C:/Users/lenovo/Desktop/liteos/Project2/BearPi_LiteOS/components/security/mbedtls/mbedtls-2.6.0/library\rsa.c ****     size_t ilen, i, pad_len;
 798:C:/Users/lenovo/Desktop/liteos/Project2/BearPi_LiteOS/components/security/mbedtls/mbedtls-2.6.0/library\rsa.c ****     unsigned char *p, bad, pad_done;
 799:C:/Users/lenovo/Desktop/liteos/Project2/BearPi_LiteOS/components/security/mbedtls/mbedtls-2.6.0/library\rsa.c ****     unsigned char buf[MBEDTLS_MPI_MAX_SIZE];
 800:C:/Users/lenovo/Desktop/liteos/Project2/BearPi_LiteOS/components/security/mbedtls/mbedtls-2.6.0/library\rsa.c ****     unsigned char lhash[MBEDTLS_MD_MAX_SIZE];
 801:C:/Users/lenovo/Desktop/liteos/Project2/BearPi_LiteOS/components/security/mbedtls/mbedtls-2.6.0/library\rsa.c ****     unsigned int hlen;
 802:C:/Users/lenovo/Desktop/liteos/Project2/BearPi_LiteOS/components/security/mbedtls/mbedtls-2.6.0/library\rsa.c ****     const mbedtls_md_info_t *md_info;
 803:C:/Users/lenovo/Desktop/liteos/Project2/BearPi_LiteOS/components/security/mbedtls/mbedtls-2.6.0/library\rsa.c ****     mbedtls_md_context_t md_ctx;
 804:C:/Users/lenovo/Desktop/liteos/Project2/BearPi_LiteOS/components/security/mbedtls/mbedtls-2.6.0/library\rsa.c **** 
 805:C:/Users/lenovo/Desktop/liteos/Project2/BearPi_LiteOS/components/security/mbedtls/mbedtls-2.6.0/library\rsa.c ****     /*
 806:C:/Users/lenovo/Desktop/liteos/Project2/BearPi_LiteOS/components/security/mbedtls/mbedtls-2.6.0/library\rsa.c ****      * Parameters sanity checks
 807:C:/Users/lenovo/Desktop/liteos/Project2/BearPi_LiteOS/components/security/mbedtls/mbedtls-2.6.0/library\rsa.c ****      */
 808:C:/Users/lenovo/Desktop/liteos/Project2/BearPi_LiteOS/components/security/mbedtls/mbedtls-2.6.0/library\rsa.c ****     if( mode == MBEDTLS_RSA_PRIVATE && ctx->padding != MBEDTLS_RSA_PKCS_V21 )
 1865              		.loc 1 808 0
 1866 0008 012B     		cmp	r3, #1
 1867 000a 34D0     		beq	.L131
 1868              	.L114:
 809:C:/Users/lenovo/Desktop/liteos/Project2/BearPi_LiteOS/components/security/mbedtls/mbedtls-2.6.0/library\rsa.c ****         return( MBEDTLS_ERR_RSA_BAD_INPUT_DATA );
 810:C:/Users/lenovo/Desktop/liteos/Project2/BearPi_LiteOS/components/security/mbedtls/mbedtls-2.6.0/library\rsa.c **** 
 811:C:/Users/lenovo/Desktop/liteos/Project2/BearPi_LiteOS/components/security/mbedtls/mbedtls-2.6.0/library\rsa.c ****     ilen = ctx->len;
 1869              		.loc 1 811 0
 1870 000c 4668     		ldr	r6, [r0, #4]
 1871              	.LVL300:
 812:C:/Users/lenovo/Desktop/liteos/Project2/BearPi_LiteOS/components/security/mbedtls/mbedtls-2.6.0/library\rsa.c **** 
 813:C:/Users/lenovo/Desktop/liteos/Project2/BearPi_LiteOS/components/security/mbedtls/mbedtls-2.6.0/library\rsa.c ****     if( ilen < 16 || ilen > sizeof( buf ) )
 1872              		.loc 1 813 0
 1873 000e A6F11004 		sub	r4, r6, #16
 1874 0012 B4F57C7F 		cmp	r4, #1008
 1875 0016 00F2AE80 		bhi	.L125
 1876 001a 1D46     		mov	r5, r3
ARM GAS  c:\Users\lenovo\AppData\Local\Temp\ccVehGBj.s 			page 51


 1877 001c 9046     		mov	r8, r2
 1878 001e 0391     		str	r1, [sp, #12]
 1879 0020 0446     		mov	r4, r0
 814:C:/Users/lenovo/Desktop/liteos/Project2/BearPi_LiteOS/components/security/mbedtls/mbedtls-2.6.0/library\rsa.c ****         return( MBEDTLS_ERR_RSA_BAD_INPUT_DATA );
 815:C:/Users/lenovo/Desktop/liteos/Project2/BearPi_LiteOS/components/security/mbedtls/mbedtls-2.6.0/library\rsa.c **** 
 816:C:/Users/lenovo/Desktop/liteos/Project2/BearPi_LiteOS/components/security/mbedtls/mbedtls-2.6.0/library\rsa.c ****     md_info = mbedtls_md_info_from_type( (mbedtls_md_type_t) ctx->hash_id );
 1880              		.loc 1 816 0
 1881 0022 90F8A800 		ldrb	r0, [r0, #168]	@ zero_extendqisi2
 1882              	.LVL301:
 1883 0026 FFF7FEFF 		bl	mbedtls_md_info_from_type
 1884              	.LVL302:
 817:C:/Users/lenovo/Desktop/liteos/Project2/BearPi_LiteOS/components/security/mbedtls/mbedtls-2.6.0/library\rsa.c ****     if( md_info == NULL )
 1885              		.loc 1 817 0
 1886 002a 8346     		mov	fp, r0
 1887 002c 0028     		cmp	r0, #0
 1888 002e 00F0A480 		beq	.L126
 818:C:/Users/lenovo/Desktop/liteos/Project2/BearPi_LiteOS/components/security/mbedtls/mbedtls-2.6.0/library\rsa.c ****         return( MBEDTLS_ERR_RSA_BAD_INPUT_DATA );
 819:C:/Users/lenovo/Desktop/liteos/Project2/BearPi_LiteOS/components/security/mbedtls/mbedtls-2.6.0/library\rsa.c **** 
 820:C:/Users/lenovo/Desktop/liteos/Project2/BearPi_LiteOS/components/security/mbedtls/mbedtls-2.6.0/library\rsa.c ****     hlen = mbedtls_md_get_size( md_info );
 1889              		.loc 1 820 0
 1890 0032 FFF7FEFF 		bl	mbedtls_md_get_size
 1891              	.LVL303:
 1892 0036 0746     		mov	r7, r0
 1893 0038 8146     		mov	r9, r0
 1894              	.LVL304:
 821:C:/Users/lenovo/Desktop/liteos/Project2/BearPi_LiteOS/components/security/mbedtls/mbedtls-2.6.0/library\rsa.c **** 
 822:C:/Users/lenovo/Desktop/liteos/Project2/BearPi_LiteOS/components/security/mbedtls/mbedtls-2.6.0/library\rsa.c ****     // checking for integer underflow
 823:C:/Users/lenovo/Desktop/liteos/Project2/BearPi_LiteOS/components/security/mbedtls/mbedtls-2.6.0/library\rsa.c ****     if( 2 * hlen + 2 > ilen )
 1895              		.loc 1 823 0
 1896 003a 00F1010A 		add	r10, r0, #1
 1897 003e B6EB4A0F 		cmp	r6, r10, lsl #1
 1898 0042 C0F09C80 		bcc	.L127
 824:C:/Users/lenovo/Desktop/liteos/Project2/BearPi_LiteOS/components/security/mbedtls/mbedtls-2.6.0/library\rsa.c ****         return( MBEDTLS_ERR_RSA_BAD_INPUT_DATA );
 825:C:/Users/lenovo/Desktop/liteos/Project2/BearPi_LiteOS/components/security/mbedtls/mbedtls-2.6.0/library\rsa.c **** 
 826:C:/Users/lenovo/Desktop/liteos/Project2/BearPi_LiteOS/components/security/mbedtls/mbedtls-2.6.0/library\rsa.c ****     /*
 827:C:/Users/lenovo/Desktop/liteos/Project2/BearPi_LiteOS/components/security/mbedtls/mbedtls-2.6.0/library\rsa.c ****      * RSA operation
 828:C:/Users/lenovo/Desktop/liteos/Project2/BearPi_LiteOS/components/security/mbedtls/mbedtls-2.6.0/library\rsa.c ****      */
 829:C:/Users/lenovo/Desktop/liteos/Project2/BearPi_LiteOS/components/security/mbedtls/mbedtls-2.6.0/library\rsa.c ****     ret = ( mode == MBEDTLS_RSA_PUBLIC )
 830:C:/Users/lenovo/Desktop/liteos/Project2/BearPi_LiteOS/components/security/mbedtls/mbedtls-2.6.0/library\rsa.c ****           ? mbedtls_rsa_public(  ctx, input, buf )
 831:C:/Users/lenovo/Desktop/liteos/Project2/BearPi_LiteOS/components/security/mbedtls/mbedtls-2.6.0/library\rsa.c ****           : mbedtls_rsa_private( ctx, f_rng, p_rng, input, buf );
 1899              		.loc 1 831 0
 1900 0046 E5B9     		cbnz	r5, .L116
 1901              		.loc 1 831 0 is_stmt 0 discriminator 1
 1902 0048 10AA     		add	r2, sp, #64
 1903 004a DDF87414 		ldr	r1, [sp, #1140]
 1904 004e 2046     		mov	r0, r4
 1905              	.LVL305:
 1906 0050 FFF7FEFF 		bl	mbedtls_rsa_public
 1907              	.LVL306:
 1908 0054 0546     		mov	r5, r0
 1909              	.LVL307:
 1910              	.L117:
 832:C:/Users/lenovo/Desktop/liteos/Project2/BearPi_LiteOS/components/security/mbedtls/mbedtls-2.6.0/library\rsa.c **** 
 833:C:/Users/lenovo/Desktop/liteos/Project2/BearPi_LiteOS/components/security/mbedtls/mbedtls-2.6.0/library\rsa.c ****     if( ret != 0 )
 1911              		.loc 1 833 0 is_stmt 1
 1912 0056 FDB1     		cbz	r5, .L132
 1913              	.LVL308:
ARM GAS  c:\Users\lenovo\AppData\Local\Temp\ccVehGBj.s 			page 52


 1914              	.L118:
 834:C:/Users/lenovo/Desktop/liteos/Project2/BearPi_LiteOS/components/security/mbedtls/mbedtls-2.6.0/library\rsa.c ****         goto cleanup;
 835:C:/Users/lenovo/Desktop/liteos/Project2/BearPi_LiteOS/components/security/mbedtls/mbedtls-2.6.0/library\rsa.c **** 
 836:C:/Users/lenovo/Desktop/liteos/Project2/BearPi_LiteOS/components/security/mbedtls/mbedtls-2.6.0/library\rsa.c ****     /*
 837:C:/Users/lenovo/Desktop/liteos/Project2/BearPi_LiteOS/components/security/mbedtls/mbedtls-2.6.0/library\rsa.c ****      * Unmask data and generate lHash
 838:C:/Users/lenovo/Desktop/liteos/Project2/BearPi_LiteOS/components/security/mbedtls/mbedtls-2.6.0/library\rsa.c ****      */
 839:C:/Users/lenovo/Desktop/liteos/Project2/BearPi_LiteOS/components/security/mbedtls/mbedtls-2.6.0/library\rsa.c ****     mbedtls_md_init( &md_ctx );
 840:C:/Users/lenovo/Desktop/liteos/Project2/BearPi_LiteOS/components/security/mbedtls/mbedtls-2.6.0/library\rsa.c ****     if( ( ret = mbedtls_md_setup( &md_ctx, md_info, 0 ) ) != 0 )
 841:C:/Users/lenovo/Desktop/liteos/Project2/BearPi_LiteOS/components/security/mbedtls/mbedtls-2.6.0/library\rsa.c ****     {
 842:C:/Users/lenovo/Desktop/liteos/Project2/BearPi_LiteOS/components/security/mbedtls/mbedtls-2.6.0/library\rsa.c ****         mbedtls_md_free( &md_ctx );
 843:C:/Users/lenovo/Desktop/liteos/Project2/BearPi_LiteOS/components/security/mbedtls/mbedtls-2.6.0/library\rsa.c ****         goto cleanup;
 844:C:/Users/lenovo/Desktop/liteos/Project2/BearPi_LiteOS/components/security/mbedtls/mbedtls-2.6.0/library\rsa.c ****     }
 845:C:/Users/lenovo/Desktop/liteos/Project2/BearPi_LiteOS/components/security/mbedtls/mbedtls-2.6.0/library\rsa.c **** 
 846:C:/Users/lenovo/Desktop/liteos/Project2/BearPi_LiteOS/components/security/mbedtls/mbedtls-2.6.0/library\rsa.c **** 
 847:C:/Users/lenovo/Desktop/liteos/Project2/BearPi_LiteOS/components/security/mbedtls/mbedtls-2.6.0/library\rsa.c ****     /* Generate lHash */
 848:C:/Users/lenovo/Desktop/liteos/Project2/BearPi_LiteOS/components/security/mbedtls/mbedtls-2.6.0/library\rsa.c ****     mbedtls_md( md_info, label, label_len, lhash );
 849:C:/Users/lenovo/Desktop/liteos/Project2/BearPi_LiteOS/components/security/mbedtls/mbedtls-2.6.0/library\rsa.c **** 
 850:C:/Users/lenovo/Desktop/liteos/Project2/BearPi_LiteOS/components/security/mbedtls/mbedtls-2.6.0/library\rsa.c ****     /* seed: Apply seedMask to maskedSeed */
 851:C:/Users/lenovo/Desktop/liteos/Project2/BearPi_LiteOS/components/security/mbedtls/mbedtls-2.6.0/library\rsa.c ****     mgf_mask( buf + 1, hlen, buf + hlen + 1, ilen - hlen - 1,
 852:C:/Users/lenovo/Desktop/liteos/Project2/BearPi_LiteOS/components/security/mbedtls/mbedtls-2.6.0/library\rsa.c ****                &md_ctx );
 853:C:/Users/lenovo/Desktop/liteos/Project2/BearPi_LiteOS/components/security/mbedtls/mbedtls-2.6.0/library\rsa.c **** 
 854:C:/Users/lenovo/Desktop/liteos/Project2/BearPi_LiteOS/components/security/mbedtls/mbedtls-2.6.0/library\rsa.c ****     /* DB: Apply dbMask to maskedDB */
 855:C:/Users/lenovo/Desktop/liteos/Project2/BearPi_LiteOS/components/security/mbedtls/mbedtls-2.6.0/library\rsa.c ****     mgf_mask( buf + hlen + 1, ilen - hlen - 1, buf + 1, hlen,
 856:C:/Users/lenovo/Desktop/liteos/Project2/BearPi_LiteOS/components/security/mbedtls/mbedtls-2.6.0/library\rsa.c ****                &md_ctx );
 857:C:/Users/lenovo/Desktop/liteos/Project2/BearPi_LiteOS/components/security/mbedtls/mbedtls-2.6.0/library\rsa.c **** 
 858:C:/Users/lenovo/Desktop/liteos/Project2/BearPi_LiteOS/components/security/mbedtls/mbedtls-2.6.0/library\rsa.c ****     mbedtls_md_free( &md_ctx );
 859:C:/Users/lenovo/Desktop/liteos/Project2/BearPi_LiteOS/components/security/mbedtls/mbedtls-2.6.0/library\rsa.c **** 
 860:C:/Users/lenovo/Desktop/liteos/Project2/BearPi_LiteOS/components/security/mbedtls/mbedtls-2.6.0/library\rsa.c ****     /*
 861:C:/Users/lenovo/Desktop/liteos/Project2/BearPi_LiteOS/components/security/mbedtls/mbedtls-2.6.0/library\rsa.c ****      * Check contents, in "constant-time"
 862:C:/Users/lenovo/Desktop/liteos/Project2/BearPi_LiteOS/components/security/mbedtls/mbedtls-2.6.0/library\rsa.c ****      */
 863:C:/Users/lenovo/Desktop/liteos/Project2/BearPi_LiteOS/components/security/mbedtls/mbedtls-2.6.0/library\rsa.c ****     p = buf;
 864:C:/Users/lenovo/Desktop/liteos/Project2/BearPi_LiteOS/components/security/mbedtls/mbedtls-2.6.0/library\rsa.c ****     bad = 0;
 865:C:/Users/lenovo/Desktop/liteos/Project2/BearPi_LiteOS/components/security/mbedtls/mbedtls-2.6.0/library\rsa.c **** 
 866:C:/Users/lenovo/Desktop/liteos/Project2/BearPi_LiteOS/components/security/mbedtls/mbedtls-2.6.0/library\rsa.c ****     bad |= *p++; /* First byte must be 0 */
 867:C:/Users/lenovo/Desktop/liteos/Project2/BearPi_LiteOS/components/security/mbedtls/mbedtls-2.6.0/library\rsa.c **** 
 868:C:/Users/lenovo/Desktop/liteos/Project2/BearPi_LiteOS/components/security/mbedtls/mbedtls-2.6.0/library\rsa.c ****     p += hlen; /* Skip seed */
 869:C:/Users/lenovo/Desktop/liteos/Project2/BearPi_LiteOS/components/security/mbedtls/mbedtls-2.6.0/library\rsa.c **** 
 870:C:/Users/lenovo/Desktop/liteos/Project2/BearPi_LiteOS/components/security/mbedtls/mbedtls-2.6.0/library\rsa.c ****     /* Check lHash */
 871:C:/Users/lenovo/Desktop/liteos/Project2/BearPi_LiteOS/components/security/mbedtls/mbedtls-2.6.0/library\rsa.c ****     for( i = 0; i < hlen; i++ )
 872:C:/Users/lenovo/Desktop/liteos/Project2/BearPi_LiteOS/components/security/mbedtls/mbedtls-2.6.0/library\rsa.c ****         bad |= lhash[i] ^ *p++;
 873:C:/Users/lenovo/Desktop/liteos/Project2/BearPi_LiteOS/components/security/mbedtls/mbedtls-2.6.0/library\rsa.c **** 
 874:C:/Users/lenovo/Desktop/liteos/Project2/BearPi_LiteOS/components/security/mbedtls/mbedtls-2.6.0/library\rsa.c ****     /* Get zero-padding len, but always read till end of buffer
 875:C:/Users/lenovo/Desktop/liteos/Project2/BearPi_LiteOS/components/security/mbedtls/mbedtls-2.6.0/library\rsa.c ****      * (minus one, for the 01 byte) */
 876:C:/Users/lenovo/Desktop/liteos/Project2/BearPi_LiteOS/components/security/mbedtls/mbedtls-2.6.0/library\rsa.c ****     pad_len = 0;
 877:C:/Users/lenovo/Desktop/liteos/Project2/BearPi_LiteOS/components/security/mbedtls/mbedtls-2.6.0/library\rsa.c ****     pad_done = 0;
 878:C:/Users/lenovo/Desktop/liteos/Project2/BearPi_LiteOS/components/security/mbedtls/mbedtls-2.6.0/library\rsa.c ****     for( i = 0; i < ilen - 2 * hlen - 2; i++ )
 879:C:/Users/lenovo/Desktop/liteos/Project2/BearPi_LiteOS/components/security/mbedtls/mbedtls-2.6.0/library\rsa.c ****     {
 880:C:/Users/lenovo/Desktop/liteos/Project2/BearPi_LiteOS/components/security/mbedtls/mbedtls-2.6.0/library\rsa.c ****         pad_done |= p[i];
 881:C:/Users/lenovo/Desktop/liteos/Project2/BearPi_LiteOS/components/security/mbedtls/mbedtls-2.6.0/library\rsa.c ****         pad_len += ((pad_done | (unsigned char)-pad_done) >> 7) ^ 1;
 882:C:/Users/lenovo/Desktop/liteos/Project2/BearPi_LiteOS/components/security/mbedtls/mbedtls-2.6.0/library\rsa.c ****     }
 883:C:/Users/lenovo/Desktop/liteos/Project2/BearPi_LiteOS/components/security/mbedtls/mbedtls-2.6.0/library\rsa.c **** 
 884:C:/Users/lenovo/Desktop/liteos/Project2/BearPi_LiteOS/components/security/mbedtls/mbedtls-2.6.0/library\rsa.c ****     p += pad_len;
 885:C:/Users/lenovo/Desktop/liteos/Project2/BearPi_LiteOS/components/security/mbedtls/mbedtls-2.6.0/library\rsa.c ****     bad |= *p++ ^ 0x01;
 886:C:/Users/lenovo/Desktop/liteos/Project2/BearPi_LiteOS/components/security/mbedtls/mbedtls-2.6.0/library\rsa.c **** 
 887:C:/Users/lenovo/Desktop/liteos/Project2/BearPi_LiteOS/components/security/mbedtls/mbedtls-2.6.0/library\rsa.c ****     /*
 888:C:/Users/lenovo/Desktop/liteos/Project2/BearPi_LiteOS/components/security/mbedtls/mbedtls-2.6.0/library\rsa.c ****      * The only information "leaked" is whether the padding was correct or not
 889:C:/Users/lenovo/Desktop/liteos/Project2/BearPi_LiteOS/components/security/mbedtls/mbedtls-2.6.0/library\rsa.c ****      * (eg, no data is copied if it was not correct). This meets the
ARM GAS  c:\Users\lenovo\AppData\Local\Temp\ccVehGBj.s 			page 53


 890:C:/Users/lenovo/Desktop/liteos/Project2/BearPi_LiteOS/components/security/mbedtls/mbedtls-2.6.0/library\rsa.c ****      * recommendations in PKCS#1 v2.2: an opponent cannot distinguish between
 891:C:/Users/lenovo/Desktop/liteos/Project2/BearPi_LiteOS/components/security/mbedtls/mbedtls-2.6.0/library\rsa.c ****      * the different error conditions.
 892:C:/Users/lenovo/Desktop/liteos/Project2/BearPi_LiteOS/components/security/mbedtls/mbedtls-2.6.0/library\rsa.c ****      */
 893:C:/Users/lenovo/Desktop/liteos/Project2/BearPi_LiteOS/components/security/mbedtls/mbedtls-2.6.0/library\rsa.c ****     if( bad != 0 )
 894:C:/Users/lenovo/Desktop/liteos/Project2/BearPi_LiteOS/components/security/mbedtls/mbedtls-2.6.0/library\rsa.c ****     {
 895:C:/Users/lenovo/Desktop/liteos/Project2/BearPi_LiteOS/components/security/mbedtls/mbedtls-2.6.0/library\rsa.c ****         ret = MBEDTLS_ERR_RSA_INVALID_PADDING;
 896:C:/Users/lenovo/Desktop/liteos/Project2/BearPi_LiteOS/components/security/mbedtls/mbedtls-2.6.0/library\rsa.c ****         goto cleanup;
 897:C:/Users/lenovo/Desktop/liteos/Project2/BearPi_LiteOS/components/security/mbedtls/mbedtls-2.6.0/library\rsa.c ****     }
 898:C:/Users/lenovo/Desktop/liteos/Project2/BearPi_LiteOS/components/security/mbedtls/mbedtls-2.6.0/library\rsa.c **** 
 899:C:/Users/lenovo/Desktop/liteos/Project2/BearPi_LiteOS/components/security/mbedtls/mbedtls-2.6.0/library\rsa.c ****     if( ilen - ( p - buf ) > output_max_len )
 900:C:/Users/lenovo/Desktop/liteos/Project2/BearPi_LiteOS/components/security/mbedtls/mbedtls-2.6.0/library\rsa.c ****     {
 901:C:/Users/lenovo/Desktop/liteos/Project2/BearPi_LiteOS/components/security/mbedtls/mbedtls-2.6.0/library\rsa.c ****         ret = MBEDTLS_ERR_RSA_OUTPUT_TOO_LARGE;
 902:C:/Users/lenovo/Desktop/liteos/Project2/BearPi_LiteOS/components/security/mbedtls/mbedtls-2.6.0/library\rsa.c ****         goto cleanup;
 903:C:/Users/lenovo/Desktop/liteos/Project2/BearPi_LiteOS/components/security/mbedtls/mbedtls-2.6.0/library\rsa.c ****     }
 904:C:/Users/lenovo/Desktop/liteos/Project2/BearPi_LiteOS/components/security/mbedtls/mbedtls-2.6.0/library\rsa.c **** 
 905:C:/Users/lenovo/Desktop/liteos/Project2/BearPi_LiteOS/components/security/mbedtls/mbedtls-2.6.0/library\rsa.c ****     *olen = ilen - (p - buf);
 906:C:/Users/lenovo/Desktop/liteos/Project2/BearPi_LiteOS/components/security/mbedtls/mbedtls-2.6.0/library\rsa.c ****     memcpy( output, p, *olen );
 907:C:/Users/lenovo/Desktop/liteos/Project2/BearPi_LiteOS/components/security/mbedtls/mbedtls-2.6.0/library\rsa.c ****     ret = 0;
 908:C:/Users/lenovo/Desktop/liteos/Project2/BearPi_LiteOS/components/security/mbedtls/mbedtls-2.6.0/library\rsa.c **** 
 909:C:/Users/lenovo/Desktop/liteos/Project2/BearPi_LiteOS/components/security/mbedtls/mbedtls-2.6.0/library\rsa.c **** cleanup:
 910:C:/Users/lenovo/Desktop/liteos/Project2/BearPi_LiteOS/components/security/mbedtls/mbedtls-2.6.0/library\rsa.c ****     mbedtls_zeroize( buf, sizeof( buf ) );
 1915              		.loc 1 910 0
 1916 0058 4FF48061 		mov	r1, #1024
 1917 005c 10A8     		add	r0, sp, #64
 1918 005e FFF7FEFF 		bl	mbedtls_zeroize
 1919              	.LVL309:
 911:C:/Users/lenovo/Desktop/liteos/Project2/BearPi_LiteOS/components/security/mbedtls/mbedtls-2.6.0/library\rsa.c ****     mbedtls_zeroize( lhash, sizeof( lhash ) );
 1920              		.loc 1 911 0
 1921 0062 2021     		movs	r1, #32
 1922 0064 0DEB0100 		add	r0, sp, r1
 1923 0068 FFF7FEFF 		bl	mbedtls_zeroize
 1924              	.LVL310:
 1925              	.L113:
 912:C:/Users/lenovo/Desktop/liteos/Project2/BearPi_LiteOS/components/security/mbedtls/mbedtls-2.6.0/library\rsa.c **** 
 913:C:/Users/lenovo/Desktop/liteos/Project2/BearPi_LiteOS/components/security/mbedtls/mbedtls-2.6.0/library\rsa.c ****     return( ret );
 914:C:/Users/lenovo/Desktop/liteos/Project2/BearPi_LiteOS/components/security/mbedtls/mbedtls-2.6.0/library\rsa.c **** }
 1926              		.loc 1 914 0
 1927 006c 2846     		mov	r0, r5
 1928 006e 0DF2444D 		addw	sp, sp, #1092
 1929              	.LCFI32:
 1930              		.cfi_remember_state
 1931              		.cfi_def_cfa_offset 36
 1932              		@ sp needed
 1933 0072 BDE8F08F 		pop	{r4, r5, r6, r7, r8, r9, r10, fp, pc}
 1934              	.LVL311:
 1935              	.L131:
 1936              	.LCFI33:
 1937              		.cfi_restore_state
 808:C:/Users/lenovo/Desktop/liteos/Project2/BearPi_LiteOS/components/security/mbedtls/mbedtls-2.6.0/library\rsa.c ****         return( MBEDTLS_ERR_RSA_BAD_INPUT_DATA );
 1938              		.loc 1 808 0 discriminator 1
 1939 0076 D0F8A440 		ldr	r4, [r0, #164]
 1940 007a 012C     		cmp	r4, #1
 1941 007c C6D0     		beq	.L114
 809:C:/Users/lenovo/Desktop/liteos/Project2/BearPi_LiteOS/components/security/mbedtls/mbedtls-2.6.0/library\rsa.c **** 
 1942              		.loc 1 809 0
 1943 007e 414D     		ldr	r5, .L134
 1944 0080 F4E7     		b	.L113
ARM GAS  c:\Users\lenovo\AppData\Local\Temp\ccVehGBj.s 			page 54


 1945              	.LVL312:
 1946              	.L116:
 831:C:/Users/lenovo/Desktop/liteos/Project2/BearPi_LiteOS/components/security/mbedtls/mbedtls-2.6.0/library\rsa.c **** 
 1947              		.loc 1 831 0 discriminator 2
 1948 0082 10AB     		add	r3, sp, #64
 1949 0084 0093     		str	r3, [sp]
 1950 0086 DDF87434 		ldr	r3, [sp, #1140]
 1951 008a 4246     		mov	r2, r8
 1952 008c 0399     		ldr	r1, [sp, #12]
 1953 008e 2046     		mov	r0, r4
 1954              	.LVL313:
 1955 0090 FFF7FEFF 		bl	mbedtls_rsa_private
 1956              	.LVL314:
 1957 0094 0546     		mov	r5, r0
 1958              	.LVL315:
 1959 0096 DEE7     		b	.L117
 1960              	.LVL316:
 1961              	.L132:
 839:C:/Users/lenovo/Desktop/liteos/Project2/BearPi_LiteOS/components/security/mbedtls/mbedtls-2.6.0/library\rsa.c ****     if( ( ret = mbedtls_md_setup( &md_ctx, md_info, 0 ) ) != 0 )
 1962              		.loc 1 839 0
 1963 0098 05A8     		add	r0, sp, #20
 1964 009a FFF7FEFF 		bl	mbedtls_md_init
 1965              	.LVL317:
 840:C:/Users/lenovo/Desktop/liteos/Project2/BearPi_LiteOS/components/security/mbedtls/mbedtls-2.6.0/library\rsa.c ****     {
 1966              		.loc 1 840 0
 1967 009e 0022     		movs	r2, #0
 1968 00a0 5946     		mov	r1, fp
 1969 00a2 05A8     		add	r0, sp, #20
 1970 00a4 FFF7FEFF 		bl	mbedtls_md_setup
 1971              	.LVL318:
 1972 00a8 0546     		mov	r5, r0
 1973 00aa 18B1     		cbz	r0, .L119
 842:C:/Users/lenovo/Desktop/liteos/Project2/BearPi_LiteOS/components/security/mbedtls/mbedtls-2.6.0/library\rsa.c ****         goto cleanup;
 1974              		.loc 1 842 0
 1975 00ac 05A8     		add	r0, sp, #20
 1976              	.LVL319:
 1977 00ae FFF7FEFF 		bl	mbedtls_md_free
 1978              	.LVL320:
 843:C:/Users/lenovo/Desktop/liteos/Project2/BearPi_LiteOS/components/security/mbedtls/mbedtls-2.6.0/library\rsa.c ****     }
 1979              		.loc 1 843 0
 1980 00b2 D1E7     		b	.L118
 1981              	.LVL321:
 1982              	.L119:
 848:C:/Users/lenovo/Desktop/liteos/Project2/BearPi_LiteOS/components/security/mbedtls/mbedtls-2.6.0/library\rsa.c **** 
 1983              		.loc 1 848 0
 1984 00b4 08AB     		add	r3, sp, #32
 1985 00b6 DDF86C24 		ldr	r2, [sp, #1132]
 1986 00ba DDF86814 		ldr	r1, [sp, #1128]
 1987 00be 5846     		mov	r0, fp
 1988              	.LVL322:
 1989 00c0 FFF7FEFF 		bl	mbedtls_md
 1990              	.LVL323:
 851:C:/Users/lenovo/Desktop/liteos/Project2/BearPi_LiteOS/components/security/mbedtls/mbedtls-2.6.0/library\rsa.c ****                &md_ctx );
 1991              		.loc 1 851 0
 1992 00c4 10AB     		add	r3, sp, #64
 1993 00c6 9A44     		add	r10, r10, r3
 1994 00c8 A6EB0708 		sub	r8, r6, r7
ARM GAS  c:\Users\lenovo\AppData\Local\Temp\ccVehGBj.s 			page 55


 1995              	.LVL324:
 1996 00cc 08F1FF38 		add	r8, r8, #-1
 1997 00d0 05AC     		add	r4, sp, #20
 1998              	.LVL325:
 1999 00d2 0094     		str	r4, [sp]
 2000 00d4 4346     		mov	r3, r8
 2001 00d6 5246     		mov	r2, r10
 2002 00d8 3946     		mov	r1, r7
 2003 00da 0DF14100 		add	r0, sp, #65
 2004 00de FFF7FEFF 		bl	mgf_mask
 2005              	.LVL326:
 855:C:/Users/lenovo/Desktop/liteos/Project2/BearPi_LiteOS/components/security/mbedtls/mbedtls-2.6.0/library\rsa.c ****                &md_ctx );
 2006              		.loc 1 855 0
 2007 00e2 0094     		str	r4, [sp]
 2008 00e4 3B46     		mov	r3, r7
 2009 00e6 0DF14102 		add	r2, sp, #65
 2010 00ea 4146     		mov	r1, r8
 2011 00ec 5046     		mov	r0, r10
 2012 00ee FFF7FEFF 		bl	mgf_mask
 2013              	.LVL327:
 858:C:/Users/lenovo/Desktop/liteos/Project2/BearPi_LiteOS/components/security/mbedtls/mbedtls-2.6.0/library\rsa.c **** 
 2014              		.loc 1 858 0
 2015 00f2 2046     		mov	r0, r4
 2016 00f4 FFF7FEFF 		bl	mbedtls_md_free
 2017              	.LVL328:
 866:C:/Users/lenovo/Desktop/liteos/Project2/BearPi_LiteOS/components/security/mbedtls/mbedtls-2.6.0/library\rsa.c **** 
 2018              		.loc 1 866 0
 2019 00f8 9DF84000 		ldrb	r0, [sp, #64]	@ zero_extendqisi2
 2020              	.LVL329:
 868:C:/Users/lenovo/Desktop/liteos/Project2/BearPi_LiteOS/components/security/mbedtls/mbedtls-2.6.0/library\rsa.c **** 
 2021              		.loc 1 868 0
 2022 00fc 0DF14103 		add	r3, sp, #65
 2023              	.LVL330:
 2024 0100 1F44     		add	r7, r7, r3
 2025              	.LVL331:
 871:C:/Users/lenovo/Desktop/liteos/Project2/BearPi_LiteOS/components/security/mbedtls/mbedtls-2.6.0/library\rsa.c ****         bad |= lhash[i] ^ *p++;
 2026              		.loc 1 871 0
 2027 0102 0023     		movs	r3, #0
 2028 0104 06E0     		b	.L120
 2029              	.LVL332:
 2030              	.L121:
 872:C:/Users/lenovo/Desktop/liteos/Project2/BearPi_LiteOS/components/security/mbedtls/mbedtls-2.6.0/library\rsa.c **** 
 2031              		.loc 1 872 0 discriminator 3
 2032 0106 08AA     		add	r2, sp, #32
 2033 0108 D25C     		ldrb	r2, [r2, r3]	@ zero_extendqisi2
 2034              	.LVL333:
 2035 010a 3978     		ldrb	r1, [r7]	@ zero_extendqisi2
 2036 010c 4A40     		eors	r2, r2, r1
 2037 010e 1043     		orrs	r0, r0, r2
 2038              	.LVL334:
 871:C:/Users/lenovo/Desktop/liteos/Project2/BearPi_LiteOS/components/security/mbedtls/mbedtls-2.6.0/library\rsa.c ****         bad |= lhash[i] ^ *p++;
 2039              		.loc 1 871 0 discriminator 3
 2040 0110 0133     		adds	r3, r3, #1
 2041              	.LVL335:
 872:C:/Users/lenovo/Desktop/liteos/Project2/BearPi_LiteOS/components/security/mbedtls/mbedtls-2.6.0/library\rsa.c **** 
 2042              		.loc 1 872 0 discriminator 3
 2043 0112 0137     		adds	r7, r7, #1
ARM GAS  c:\Users\lenovo\AppData\Local\Temp\ccVehGBj.s 			page 56


 2044              	.LVL336:
 2045              	.L120:
 871:C:/Users/lenovo/Desktop/liteos/Project2/BearPi_LiteOS/components/security/mbedtls/mbedtls-2.6.0/library\rsa.c ****         bad |= lhash[i] ^ *p++;
 2046              		.loc 1 871 0 discriminator 1
 2047 0114 4B45     		cmp	r3, r9
 2048 0116 F6D3     		bcc	.L121
 877:C:/Users/lenovo/Desktop/liteos/Project2/BearPi_LiteOS/components/security/mbedtls/mbedtls-2.6.0/library\rsa.c ****     for( i = 0; i < ilen - 2 * hlen - 2; i++ )
 2049              		.loc 1 877 0
 2050 0118 0022     		movs	r2, #0
 876:C:/Users/lenovo/Desktop/liteos/Project2/BearPi_LiteOS/components/security/mbedtls/mbedtls-2.6.0/library\rsa.c ****     pad_done = 0;
 2051              		.loc 1 876 0
 2052 011a 1446     		mov	r4, r2
 878:C:/Users/lenovo/Desktop/liteos/Project2/BearPi_LiteOS/components/security/mbedtls/mbedtls-2.6.0/library\rsa.c ****     {
 2053              		.loc 1 878 0
 2054 011c 1146     		mov	r1, r2
 2055 011e 0AE0     		b	.L122
 2056              	.LVL337:
 2057              	.L123:
 880:C:/Users/lenovo/Desktop/liteos/Project2/BearPi_LiteOS/components/security/mbedtls/mbedtls-2.6.0/library\rsa.c ****         pad_len += ((pad_done | (unsigned char)-pad_done) >> 7) ^ 1;
 2058              		.loc 1 880 0 discriminator 3
 2059 0120 7B5C     		ldrb	r3, [r7, r1]	@ zero_extendqisi2
 2060 0122 1A43     		orrs	r2, r2, r3
 2061              	.LVL338:
 881:C:/Users/lenovo/Desktop/liteos/Project2/BearPi_LiteOS/components/security/mbedtls/mbedtls-2.6.0/library\rsa.c ****     }
 2062              		.loc 1 881 0 discriminator 3
 2063 0124 5342     		negs	r3, r2
 2064 0126 DBB2     		uxtb	r3, r3
 2065 0128 1343     		orrs	r3, r3, r2
 2066 012a C3F3C013 		ubfx	r3, r3, #7, #1
 2067 012e 83F00103 		eor	r3, r3, #1
 2068 0132 1C44     		add	r4, r4, r3
 2069              	.LVL339:
 878:C:/Users/lenovo/Desktop/liteos/Project2/BearPi_LiteOS/components/security/mbedtls/mbedtls-2.6.0/library\rsa.c ****     {
 2070              		.loc 1 878 0 discriminator 3
 2071 0134 0131     		adds	r1, r1, #1
 2072              	.LVL340:
 2073              	.L122:
 878:C:/Users/lenovo/Desktop/liteos/Project2/BearPi_LiteOS/components/security/mbedtls/mbedtls-2.6.0/library\rsa.c ****     {
 2074              		.loc 1 878 0 is_stmt 0 discriminator 1
 2075 0136 A6EB4903 		sub	r3, r6, r9, lsl #1
 2076 013a 023B     		subs	r3, r3, #2
 2077 013c 8B42     		cmp	r3, r1
 2078 013e EFD8     		bhi	.L123
 2079              	.LVL341:
 885:C:/Users/lenovo/Desktop/liteos/Project2/BearPi_LiteOS/components/security/mbedtls/mbedtls-2.6.0/library\rsa.c **** 
 2080              		.loc 1 885 0 is_stmt 1
 2081 0140 611C     		adds	r1, r4, #1
 2082              	.LVL342:
 2083 0142 3944     		add	r1, r1, r7
 2084              	.LVL343:
 2085 0144 3B5D     		ldrb	r3, [r7, r4]	@ zero_extendqisi2
 2086 0146 83F00103 		eor	r3, r3, #1
 2087 014a 1843     		orrs	r0, r0, r3
 2088              	.LVL344:
 2089 014c 40B2     		sxtb	r0, r0
 2090              	.LVL345:
 893:C:/Users/lenovo/Desktop/liteos/Project2/BearPi_LiteOS/components/security/mbedtls/mbedtls-2.6.0/library\rsa.c ****     {
ARM GAS  c:\Users\lenovo\AppData\Local\Temp\ccVehGBj.s 			page 57


 2091              		.loc 1 893 0
 2092 014e 80B9     		cbnz	r0, .L128
 899:C:/Users/lenovo/Desktop/liteos/Project2/BearPi_LiteOS/components/security/mbedtls/mbedtls-2.6.0/library\rsa.c ****     {
 2093              		.loc 1 899 0
 2094 0150 10AA     		add	r2, sp, #64
 2095              	.LVL346:
 2096 0152 8A1A     		subs	r2, r1, r2
 2097 0154 B21A     		subs	r2, r6, r2
 2098 0156 DDF87C34 		ldr	r3, [sp, #1148]
 2099 015a 9A42     		cmp	r2, r3
 2100 015c 01D9     		bls	.L133
 901:C:/Users/lenovo/Desktop/liteos/Project2/BearPi_LiteOS/components/security/mbedtls/mbedtls-2.6.0/library\rsa.c ****         goto cleanup;
 2101              		.loc 1 901 0
 2102 015e 0A4D     		ldr	r5, .L134+4
 2103              	.LVL347:
 2104 0160 7AE7     		b	.L118
 2105              	.LVL348:
 2106              	.L133:
 905:C:/Users/lenovo/Desktop/liteos/Project2/BearPi_LiteOS/components/security/mbedtls/mbedtls-2.6.0/library\rsa.c ****     memcpy( output, p, *olen );
 2107              		.loc 1 905 0
 2108 0162 DDF87034 		ldr	r3, [sp, #1136]
 2109 0166 1A60     		str	r2, [r3]
 906:C:/Users/lenovo/Desktop/liteos/Project2/BearPi_LiteOS/components/security/mbedtls/mbedtls-2.6.0/library\rsa.c ****     ret = 0;
 2110              		.loc 1 906 0
 2111 0168 DDF87804 		ldr	r0, [sp, #1144]
 2112              	.LVL349:
 2113 016c FFF7FEFF 		bl	memcpy
 2114              	.LVL350:
 2115 0170 72E7     		b	.L118
 2116              	.LVL351:
 2117              	.L128:
 895:C:/Users/lenovo/Desktop/liteos/Project2/BearPi_LiteOS/components/security/mbedtls/mbedtls-2.6.0/library\rsa.c ****         goto cleanup;
 2118              		.loc 1 895 0
 2119 0172 064D     		ldr	r5, .L134+8
 2120              	.LVL352:
 2121 0174 70E7     		b	.L118
 2122              	.LVL353:
 2123              	.L125:
 814:C:/Users/lenovo/Desktop/liteos/Project2/BearPi_LiteOS/components/security/mbedtls/mbedtls-2.6.0/library\rsa.c **** 
 2124              		.loc 1 814 0
 2125 0176 034D     		ldr	r5, .L134
 2126 0178 78E7     		b	.L113
 2127              	.LVL354:
 2128              	.L126:
 818:C:/Users/lenovo/Desktop/liteos/Project2/BearPi_LiteOS/components/security/mbedtls/mbedtls-2.6.0/library\rsa.c **** 
 2129              		.loc 1 818 0
 2130 017a 024D     		ldr	r5, .L134
 2131              	.LVL355:
 2132 017c 76E7     		b	.L113
 2133              	.LVL356:
 2134              	.L127:
 824:C:/Users/lenovo/Desktop/liteos/Project2/BearPi_LiteOS/components/security/mbedtls/mbedtls-2.6.0/library\rsa.c **** 
 2135              		.loc 1 824 0
 2136 017e 014D     		ldr	r5, .L134
 2137              	.LVL357:
 2138 0180 74E7     		b	.L113
 2139              	.L135:
ARM GAS  c:\Users\lenovo\AppData\Local\Temp\ccVehGBj.s 			page 58


 2140 0182 00BF     		.align	2
 2141              	.L134:
 2142 0184 80BFFFFF 		.word	-16512
 2143 0188 00BCFFFF 		.word	-17408
 2144 018c 00BFFFFF 		.word	-16640
 2145              		.cfi_endproc
 2146              	.LFE24:
 2148              		.section	.text.mbedtls_rsa_pkcs1_decrypt,"ax",%progbits
 2149              		.align	1
 2150              		.global	mbedtls_rsa_pkcs1_decrypt
 2151              		.syntax unified
 2152              		.thumb
 2153              		.thumb_func
 2154              		.fpu fpv4-sp-d16
 2156              	mbedtls_rsa_pkcs1_decrypt:
 2157              	.LFB25:
 915:C:/Users/lenovo/Desktop/liteos/Project2/BearPi_LiteOS/components/security/mbedtls/mbedtls-2.6.0/library\rsa.c **** #endif /* MBEDTLS_PKCS1_V21 */
 916:C:/Users/lenovo/Desktop/liteos/Project2/BearPi_LiteOS/components/security/mbedtls/mbedtls-2.6.0/library\rsa.c **** 
 917:C:/Users/lenovo/Desktop/liteos/Project2/BearPi_LiteOS/components/security/mbedtls/mbedtls-2.6.0/library\rsa.c **** #if defined(MBEDTLS_PKCS1_V15)
 918:C:/Users/lenovo/Desktop/liteos/Project2/BearPi_LiteOS/components/security/mbedtls/mbedtls-2.6.0/library\rsa.c **** /*
 919:C:/Users/lenovo/Desktop/liteos/Project2/BearPi_LiteOS/components/security/mbedtls/mbedtls-2.6.0/library\rsa.c ****  * Implementation of the PKCS#1 v2.1 RSAES-PKCS1-V1_5-DECRYPT function
 920:C:/Users/lenovo/Desktop/liteos/Project2/BearPi_LiteOS/components/security/mbedtls/mbedtls-2.6.0/library\rsa.c ****  */
 921:C:/Users/lenovo/Desktop/liteos/Project2/BearPi_LiteOS/components/security/mbedtls/mbedtls-2.6.0/library\rsa.c **** int mbedtls_rsa_rsaes_pkcs1_v15_decrypt( mbedtls_rsa_context *ctx,
 922:C:/Users/lenovo/Desktop/liteos/Project2/BearPi_LiteOS/components/security/mbedtls/mbedtls-2.6.0/library\rsa.c ****                                  int (*f_rng)(void *, unsigned char *, size_t),
 923:C:/Users/lenovo/Desktop/liteos/Project2/BearPi_LiteOS/components/security/mbedtls/mbedtls-2.6.0/library\rsa.c ****                                  void *p_rng,
 924:C:/Users/lenovo/Desktop/liteos/Project2/BearPi_LiteOS/components/security/mbedtls/mbedtls-2.6.0/library\rsa.c ****                                  int mode, size_t *olen,
 925:C:/Users/lenovo/Desktop/liteos/Project2/BearPi_LiteOS/components/security/mbedtls/mbedtls-2.6.0/library\rsa.c ****                                  const unsigned char *input,
