ARM GAS  c:\Users\lenovo\AppData\Local\Temp\ccAl7Tms.s 			page 1


   1              		.cpu cortex-m4
   2              		.eabi_attribute 27, 1
   3              		.eabi_attribute 28, 1
   4              		.eabi_attribute 20, 1
   5              		.eabi_attribute 21, 1
   6              		.eabi_attribute 23, 3
   7              		.eabi_attribute 24, 1
   8              		.eabi_attribute 25, 1
   9              		.eabi_attribute 26, 1
  10              		.eabi_attribute 30, 1
  11              		.eabi_attribute 34, 1
  12              		.eabi_attribute 18, 4
  13              		.file	"sha256.c"
  14              		.text
  15              	.Ltext0:
  16              		.cfi_sections	.debug_frame
  17              		.section	.text.mbedtls_zeroize,"ax",%progbits
  18              		.align	1
  19              		.syntax unified
  20              		.thumb
  21              		.thumb_func
  22              		.fpu fpv4-sp-d16
  24              	mbedtls_zeroize:
  25              	.LFB0:
  26              		.file 1 "C:/Users/lenovo/Desktop/liteos/Project2/BearPi_LiteOS/components/security/mbedtls/mbedtls
   1:C:/Users/lenovo/Desktop/liteos/Project2/BearPi_LiteOS/components/security/mbedtls/mbedtls-2.6.0/library\sha256.c **** /*
   2:C:/Users/lenovo/Desktop/liteos/Project2/BearPi_LiteOS/components/security/mbedtls/mbedtls-2.6.0/library\sha256.c ****  *  FIPS-180-2 compliant SHA-256 implementation
   3:C:/Users/lenovo/Desktop/liteos/Project2/BearPi_LiteOS/components/security/mbedtls/mbedtls-2.6.0/library\sha256.c ****  *
   4:C:/Users/lenovo/Desktop/liteos/Project2/BearPi_LiteOS/components/security/mbedtls/mbedtls-2.6.0/library\sha256.c ****  *  Copyright (C) 2006-2015, ARM Limited, All Rights Reserved
   5:C:/Users/lenovo/Desktop/liteos/Project2/BearPi_LiteOS/components/security/mbedtls/mbedtls-2.6.0/library\sha256.c ****  *  SPDX-License-Identifier: Apache-2.0
   6:C:/Users/lenovo/Desktop/liteos/Project2/BearPi_LiteOS/components/security/mbedtls/mbedtls-2.6.0/library\sha256.c ****  *
   7:C:/Users/lenovo/Desktop/liteos/Project2/BearPi_LiteOS/components/security/mbedtls/mbedtls-2.6.0/library\sha256.c ****  *  Licensed under the Apache License, Version 2.0 (the "License"); you may
   8:C:/Users/lenovo/Desktop/liteos/Project2/BearPi_LiteOS/components/security/mbedtls/mbedtls-2.6.0/library\sha256.c ****  *  not use this file except in compliance with the License.
   9:C:/Users/lenovo/Desktop/liteos/Project2/BearPi_LiteOS/components/security/mbedtls/mbedtls-2.6.0/library\sha256.c ****  *  You may obtain a copy of the License at
  10:C:/Users/lenovo/Desktop/liteos/Project2/BearPi_LiteOS/components/security/mbedtls/mbedtls-2.6.0/library\sha256.c ****  *
  11:C:/Users/lenovo/Desktop/liteos/Project2/BearPi_LiteOS/components/security/mbedtls/mbedtls-2.6.0/library\sha256.c ****  *  http://www.apache.org/licenses/LICENSE-2.0
  12:C:/Users/lenovo/Desktop/liteos/Project2/BearPi_LiteOS/components/security/mbedtls/mbedtls-2.6.0/library\sha256.c ****  *
  13:C:/Users/lenovo/Desktop/liteos/Project2/BearPi_LiteOS/components/security/mbedtls/mbedtls-2.6.0/library\sha256.c ****  *  Unless required by applicable law or agreed to in writing, software
  14:C:/Users/lenovo/Desktop/liteos/Project2/BearPi_LiteOS/components/security/mbedtls/mbedtls-2.6.0/library\sha256.c ****  *  distributed under the License is distributed on an "AS IS" BASIS, WITHOUT
  15:C:/Users/lenovo/Desktop/liteos/Project2/BearPi_LiteOS/components/security/mbedtls/mbedtls-2.6.0/library\sha256.c ****  *  WARRANTIES OR CONDITIONS OF ANY KIND, either express or implied.
  16:C:/Users/lenovo/Desktop/liteos/Project2/BearPi_LiteOS/components/security/mbedtls/mbedtls-2.6.0/library\sha256.c ****  *  See the License for the specific language governing permissions and
  17:C:/Users/lenovo/Desktop/liteos/Project2/BearPi_LiteOS/components/security/mbedtls/mbedtls-2.6.0/library\sha256.c ****  *  limitations under the License.
  18:C:/Users/lenovo/Desktop/liteos/Project2/BearPi_LiteOS/components/security/mbedtls/mbedtls-2.6.0/library\sha256.c ****  *
  19:C:/Users/lenovo/Desktop/liteos/Project2/BearPi_LiteOS/components/security/mbedtls/mbedtls-2.6.0/library\sha256.c ****  *  This file is part of mbed TLS (https://tls.mbed.org)
  20:C:/Users/lenovo/Desktop/liteos/Project2/BearPi_LiteOS/components/security/mbedtls/mbedtls-2.6.0/library\sha256.c ****  */
  21:C:/Users/lenovo/Desktop/liteos/Project2/BearPi_LiteOS/components/security/mbedtls/mbedtls-2.6.0/library\sha256.c **** /*
  22:C:/Users/lenovo/Desktop/liteos/Project2/BearPi_LiteOS/components/security/mbedtls/mbedtls-2.6.0/library\sha256.c ****  *  The SHA-256 Secure Hash Standard was published by NIST in 2002.
  23:C:/Users/lenovo/Desktop/liteos/Project2/BearPi_LiteOS/components/security/mbedtls/mbedtls-2.6.0/library\sha256.c ****  *
  24:C:/Users/lenovo/Desktop/liteos/Project2/BearPi_LiteOS/components/security/mbedtls/mbedtls-2.6.0/library\sha256.c ****  *  http://csrc.nist.gov/publications/fips/fips180-2/fips180-2.pdf
  25:C:/Users/lenovo/Desktop/liteos/Project2/BearPi_LiteOS/components/security/mbedtls/mbedtls-2.6.0/library\sha256.c ****  */
  26:C:/Users/lenovo/Desktop/liteos/Project2/BearPi_LiteOS/components/security/mbedtls/mbedtls-2.6.0/library\sha256.c **** 
  27:C:/Users/lenovo/Desktop/liteos/Project2/BearPi_LiteOS/components/security/mbedtls/mbedtls-2.6.0/library\sha256.c **** #if !defined(MBEDTLS_CONFIG_FILE)
  28:C:/Users/lenovo/Desktop/liteos/Project2/BearPi_LiteOS/components/security/mbedtls/mbedtls-2.6.0/library\sha256.c **** #include "mbedtls/config.h"
  29:C:/Users/lenovo/Desktop/liteos/Project2/BearPi_LiteOS/components/security/mbedtls/mbedtls-2.6.0/library\sha256.c **** #else
  30:C:/Users/lenovo/Desktop/liteos/Project2/BearPi_LiteOS/components/security/mbedtls/mbedtls-2.6.0/library\sha256.c **** #include MBEDTLS_CONFIG_FILE
  31:C:/Users/lenovo/Desktop/liteos/Project2/BearPi_LiteOS/components/security/mbedtls/mbedtls-2.6.0/library\sha256.c **** #endif
  32:C:/Users/lenovo/Desktop/liteos/Project2/BearPi_LiteOS/components/security/mbedtls/mbedtls-2.6.0/library\sha256.c **** 
ARM GAS  c:\Users\lenovo\AppData\Local\Temp\ccAl7Tms.s 			page 2


  33:C:/Users/lenovo/Desktop/liteos/Project2/BearPi_LiteOS/components/security/mbedtls/mbedtls-2.6.0/library\sha256.c **** #if defined(MBEDTLS_SHA256_C)
  34:C:/Users/lenovo/Desktop/liteos/Project2/BearPi_LiteOS/components/security/mbedtls/mbedtls-2.6.0/library\sha256.c **** 
  35:C:/Users/lenovo/Desktop/liteos/Project2/BearPi_LiteOS/components/security/mbedtls/mbedtls-2.6.0/library\sha256.c **** #include "mbedtls/sha256.h"
  36:C:/Users/lenovo/Desktop/liteos/Project2/BearPi_LiteOS/components/security/mbedtls/mbedtls-2.6.0/library\sha256.c **** 
  37:C:/Users/lenovo/Desktop/liteos/Project2/BearPi_LiteOS/components/security/mbedtls/mbedtls-2.6.0/library\sha256.c **** #include <string.h>
  38:C:/Users/lenovo/Desktop/liteos/Project2/BearPi_LiteOS/components/security/mbedtls/mbedtls-2.6.0/library\sha256.c **** 
  39:C:/Users/lenovo/Desktop/liteos/Project2/BearPi_LiteOS/components/security/mbedtls/mbedtls-2.6.0/library\sha256.c **** #if defined(MBEDTLS_SELF_TEST)
  40:C:/Users/lenovo/Desktop/liteos/Project2/BearPi_LiteOS/components/security/mbedtls/mbedtls-2.6.0/library\sha256.c **** #if defined(MBEDTLS_PLATFORM_C)
  41:C:/Users/lenovo/Desktop/liteos/Project2/BearPi_LiteOS/components/security/mbedtls/mbedtls-2.6.0/library\sha256.c **** #include "mbedtls/platform.h"
  42:C:/Users/lenovo/Desktop/liteos/Project2/BearPi_LiteOS/components/security/mbedtls/mbedtls-2.6.0/library\sha256.c **** #else
  43:C:/Users/lenovo/Desktop/liteos/Project2/BearPi_LiteOS/components/security/mbedtls/mbedtls-2.6.0/library\sha256.c **** #include <stdio.h>
  44:C:/Users/lenovo/Desktop/liteos/Project2/BearPi_LiteOS/components/security/mbedtls/mbedtls-2.6.0/library\sha256.c **** #include <stdlib.h>
  45:C:/Users/lenovo/Desktop/liteos/Project2/BearPi_LiteOS/components/security/mbedtls/mbedtls-2.6.0/library\sha256.c **** #define mbedtls_printf printf
  46:C:/Users/lenovo/Desktop/liteos/Project2/BearPi_LiteOS/components/security/mbedtls/mbedtls-2.6.0/library\sha256.c **** #define mbedtls_calloc    calloc
  47:C:/Users/lenovo/Desktop/liteos/Project2/BearPi_LiteOS/components/security/mbedtls/mbedtls-2.6.0/library\sha256.c **** #define mbedtls_free       free
  48:C:/Users/lenovo/Desktop/liteos/Project2/BearPi_LiteOS/components/security/mbedtls/mbedtls-2.6.0/library\sha256.c **** #endif /* MBEDTLS_PLATFORM_C */
  49:C:/Users/lenovo/Desktop/liteos/Project2/BearPi_LiteOS/components/security/mbedtls/mbedtls-2.6.0/library\sha256.c **** #endif /* MBEDTLS_SELF_TEST */
  50:C:/Users/lenovo/Desktop/liteos/Project2/BearPi_LiteOS/components/security/mbedtls/mbedtls-2.6.0/library\sha256.c **** 
  51:C:/Users/lenovo/Desktop/liteos/Project2/BearPi_LiteOS/components/security/mbedtls/mbedtls-2.6.0/library\sha256.c **** #if !defined(MBEDTLS_SHA256_ALT)
  52:C:/Users/lenovo/Desktop/liteos/Project2/BearPi_LiteOS/components/security/mbedtls/mbedtls-2.6.0/library\sha256.c **** 
  53:C:/Users/lenovo/Desktop/liteos/Project2/BearPi_LiteOS/components/security/mbedtls/mbedtls-2.6.0/library\sha256.c **** /* Implementation that should never be optimized out by the compiler */
  54:C:/Users/lenovo/Desktop/liteos/Project2/BearPi_LiteOS/components/security/mbedtls/mbedtls-2.6.0/library\sha256.c **** static void mbedtls_zeroize( void *v, size_t n ) {
  27              		.loc 1 54 0
  28              		.cfi_startproc
  29              		@ args = 0, pretend = 0, frame = 0
  30              		@ frame_needed = 0, uses_anonymous_args = 0
  31              		@ link register save eliminated.
  32              	.LVL0:
  55:C:/Users/lenovo/Desktop/liteos/Project2/BearPi_LiteOS/components/security/mbedtls/mbedtls-2.6.0/library\sha256.c ****     volatile unsigned char *p = v; while( n-- ) *p++ = 0;
  33              		.loc 1 55 0
  34 0000 03E0     		b	.L2
  35              	.LVL1:
  36              	.L3:
  37              		.loc 1 55 0 is_stmt 0 discriminator 3
  38 0002 0022     		movs	r2, #0
  39 0004 0270     		strb	r2, [r0]
  40 0006 0130     		adds	r0, r0, #1
  41              	.LVL2:
  42 0008 1946     		mov	r1, r3
  43              	.LVL3:
  44              	.L2:
  45              		.loc 1 55 0 discriminator 1
  46 000a 4B1E     		subs	r3, r1, #1
  47              	.LVL4:
  48 000c 0029     		cmp	r1, #0
  49 000e F8D1     		bne	.L3
  56:C:/Users/lenovo/Desktop/liteos/Project2/BearPi_LiteOS/components/security/mbedtls/mbedtls-2.6.0/library\sha256.c **** }
  50              		.loc 1 56 0 is_stmt 1
  51 0010 7047     		bx	lr
  52              		.cfi_endproc
  53              	.LFE0:
  55              		.section	.text.mbedtls_sha256_init,"ax",%progbits
  56              		.align	1
  57              		.global	mbedtls_sha256_init
  58              		.syntax unified
  59              		.thumb
  60              		.thumb_func
ARM GAS  c:\Users\lenovo\AppData\Local\Temp\ccAl7Tms.s 			page 3


  61              		.fpu fpv4-sp-d16
  63              	mbedtls_sha256_init:
  64              	.LFB1:
  57:C:/Users/lenovo/Desktop/liteos/Project2/BearPi_LiteOS/components/security/mbedtls/mbedtls-2.6.0/library\sha256.c **** 
  58:C:/Users/lenovo/Desktop/liteos/Project2/BearPi_LiteOS/components/security/mbedtls/mbedtls-2.6.0/library\sha256.c **** /*
  59:C:/Users/lenovo/Desktop/liteos/Project2/BearPi_LiteOS/components/security/mbedtls/mbedtls-2.6.0/library\sha256.c ****  * 32-bit integer manipulation macros (big endian)
  60:C:/Users/lenovo/Desktop/liteos/Project2/BearPi_LiteOS/components/security/mbedtls/mbedtls-2.6.0/library\sha256.c ****  */
  61:C:/Users/lenovo/Desktop/liteos/Project2/BearPi_LiteOS/components/security/mbedtls/mbedtls-2.6.0/library\sha256.c **** #ifndef GET_UINT32_BE
  62:C:/Users/lenovo/Desktop/liteos/Project2/BearPi_LiteOS/components/security/mbedtls/mbedtls-2.6.0/library\sha256.c **** #define GET_UINT32_BE(n,b,i)                            \
  63:C:/Users/lenovo/Desktop/liteos/Project2/BearPi_LiteOS/components/security/mbedtls/mbedtls-2.6.0/library\sha256.c **** do {                                                    \
  64:C:/Users/lenovo/Desktop/liteos/Project2/BearPi_LiteOS/components/security/mbedtls/mbedtls-2.6.0/library\sha256.c ****     (n) = ( (uint32_t) (b)[(i)    ] << 24 )             \
  65:C:/Users/lenovo/Desktop/liteos/Project2/BearPi_LiteOS/components/security/mbedtls/mbedtls-2.6.0/library\sha256.c ****         | ( (uint32_t) (b)[(i) + 1] << 16 )             \
  66:C:/Users/lenovo/Desktop/liteos/Project2/BearPi_LiteOS/components/security/mbedtls/mbedtls-2.6.0/library\sha256.c ****         | ( (uint32_t) (b)[(i) + 2] <<  8 )             \
  67:C:/Users/lenovo/Desktop/liteos/Project2/BearPi_LiteOS/components/security/mbedtls/mbedtls-2.6.0/library\sha256.c ****         | ( (uint32_t) (b)[(i) + 3]       );            \
  68:C:/Users/lenovo/Desktop/liteos/Project2/BearPi_LiteOS/components/security/mbedtls/mbedtls-2.6.0/library\sha256.c **** } while( 0 )
  69:C:/Users/lenovo/Desktop/liteos/Project2/BearPi_LiteOS/components/security/mbedtls/mbedtls-2.6.0/library\sha256.c **** #endif
  70:C:/Users/lenovo/Desktop/liteos/Project2/BearPi_LiteOS/components/security/mbedtls/mbedtls-2.6.0/library\sha256.c **** 
  71:C:/Users/lenovo/Desktop/liteos/Project2/BearPi_LiteOS/components/security/mbedtls/mbedtls-2.6.0/library\sha256.c **** #ifndef PUT_UINT32_BE
  72:C:/Users/lenovo/Desktop/liteos/Project2/BearPi_LiteOS/components/security/mbedtls/mbedtls-2.6.0/library\sha256.c **** #define PUT_UINT32_BE(n,b,i)                            \
  73:C:/Users/lenovo/Desktop/liteos/Project2/BearPi_LiteOS/components/security/mbedtls/mbedtls-2.6.0/library\sha256.c **** do {                                                    \
  74:C:/Users/lenovo/Desktop/liteos/Project2/BearPi_LiteOS/components/security/mbedtls/mbedtls-2.6.0/library\sha256.c ****     (b)[(i)    ] = (unsigned char) ( (n) >> 24 );       \
  75:C:/Users/lenovo/Desktop/liteos/Project2/BearPi_LiteOS/components/security/mbedtls/mbedtls-2.6.0/library\sha256.c ****     (b)[(i) + 1] = (unsigned char) ( (n) >> 16 );       \
  76:C:/Users/lenovo/Desktop/liteos/Project2/BearPi_LiteOS/components/security/mbedtls/mbedtls-2.6.0/library\sha256.c ****     (b)[(i) + 2] = (unsigned char) ( (n) >>  8 );       \
  77:C:/Users/lenovo/Desktop/liteos/Project2/BearPi_LiteOS/components/security/mbedtls/mbedtls-2.6.0/library\sha256.c ****     (b)[(i) + 3] = (unsigned char) ( (n)       );       \
  78:C:/Users/lenovo/Desktop/liteos/Project2/BearPi_LiteOS/components/security/mbedtls/mbedtls-2.6.0/library\sha256.c **** } while( 0 )
  79:C:/Users/lenovo/Desktop/liteos/Project2/BearPi_LiteOS/components/security/mbedtls/mbedtls-2.6.0/library\sha256.c **** #endif
  80:C:/Users/lenovo/Desktop/liteos/Project2/BearPi_LiteOS/components/security/mbedtls/mbedtls-2.6.0/library\sha256.c **** 
  81:C:/Users/lenovo/Desktop/liteos/Project2/BearPi_LiteOS/components/security/mbedtls/mbedtls-2.6.0/library\sha256.c **** void mbedtls_sha256_init( mbedtls_sha256_context *ctx )
  82:C:/Users/lenovo/Desktop/liteos/Project2/BearPi_LiteOS/components/security/mbedtls/mbedtls-2.6.0/library\sha256.c **** {
  65              		.loc 1 82 0
  66              		.cfi_startproc
  67              		@ args = 0, pretend = 0, frame = 0
  68              		@ frame_needed = 0, uses_anonymous_args = 0
  69              	.LVL5:
  70 0000 08B5     		push	{r3, lr}
  71              	.LCFI0:
  72              		.cfi_def_cfa_offset 8
  73              		.cfi_offset 3, -8
  74              		.cfi_offset 14, -4
  83:C:/Users/lenovo/Desktop/liteos/Project2/BearPi_LiteOS/components/security/mbedtls/mbedtls-2.6.0/library\sha256.c ****     memset( ctx, 0, sizeof( mbedtls_sha256_context ) );
  75              		.loc 1 83 0
  76 0002 6C22     		movs	r2, #108
  77 0004 0021     		movs	r1, #0
  78 0006 FFF7FEFF 		bl	memset
  79              	.LVL6:
  84:C:/Users/lenovo/Desktop/liteos/Project2/BearPi_LiteOS/components/security/mbedtls/mbedtls-2.6.0/library\sha256.c **** }
  80              		.loc 1 84 0
  81 000a 08BD     		pop	{r3, pc}
  82              		.cfi_endproc
  83              	.LFE1:
  85              		.section	.text.mbedtls_sha256_free,"ax",%progbits
  86              		.align	1
  87              		.global	mbedtls_sha256_free
  88              		.syntax unified
  89              		.thumb
  90              		.thumb_func
  91              		.fpu fpv4-sp-d16
ARM GAS  c:\Users\lenovo\AppData\Local\Temp\ccAl7Tms.s 			page 4


  93              	mbedtls_sha256_free:
  94              	.LFB2:
  85:C:/Users/lenovo/Desktop/liteos/Project2/BearPi_LiteOS/components/security/mbedtls/mbedtls-2.6.0/library\sha256.c **** 
  86:C:/Users/lenovo/Desktop/liteos/Project2/BearPi_LiteOS/components/security/mbedtls/mbedtls-2.6.0/library\sha256.c **** void mbedtls_sha256_free( mbedtls_sha256_context *ctx )
  87:C:/Users/lenovo/Desktop/liteos/Project2/BearPi_LiteOS/components/security/mbedtls/mbedtls-2.6.0/library\sha256.c **** {
  95              		.loc 1 87 0
  96              		.cfi_startproc
  97              		@ args = 0, pretend = 0, frame = 0
  98              		@ frame_needed = 0, uses_anonymous_args = 0
  99              	.LVL7:
  88:C:/Users/lenovo/Desktop/liteos/Project2/BearPi_LiteOS/components/security/mbedtls/mbedtls-2.6.0/library\sha256.c ****     if( ctx == NULL )
 100              		.loc 1 88 0
 101 0000 20B1     		cbz	r0, .L9
  87:C:/Users/lenovo/Desktop/liteos/Project2/BearPi_LiteOS/components/security/mbedtls/mbedtls-2.6.0/library\sha256.c ****     if( ctx == NULL )
 102              		.loc 1 87 0
 103 0002 08B5     		push	{r3, lr}
 104              	.LCFI1:
 105              		.cfi_def_cfa_offset 8
 106              		.cfi_offset 3, -8
 107              		.cfi_offset 14, -4
  89:C:/Users/lenovo/Desktop/liteos/Project2/BearPi_LiteOS/components/security/mbedtls/mbedtls-2.6.0/library\sha256.c ****         return;
  90:C:/Users/lenovo/Desktop/liteos/Project2/BearPi_LiteOS/components/security/mbedtls/mbedtls-2.6.0/library\sha256.c **** 
  91:C:/Users/lenovo/Desktop/liteos/Project2/BearPi_LiteOS/components/security/mbedtls/mbedtls-2.6.0/library\sha256.c ****     mbedtls_zeroize( ctx, sizeof( mbedtls_sha256_context ) );
 108              		.loc 1 91 0
 109 0004 6C21     		movs	r1, #108
 110 0006 FFF7FEFF 		bl	mbedtls_zeroize
 111              	.LVL8:
  92:C:/Users/lenovo/Desktop/liteos/Project2/BearPi_LiteOS/components/security/mbedtls/mbedtls-2.6.0/library\sha256.c **** }
 112              		.loc 1 92 0
 113 000a 08BD     		pop	{r3, pc}
 114              	.LVL9:
 115              	.L9:
 116              	.LCFI2:
 117              		.cfi_def_cfa_offset 0
 118              		.cfi_restore 3
 119              		.cfi_restore 14
 120 000c 7047     		bx	lr
 121              		.cfi_endproc
 122              	.LFE2:
 124              		.section	.text.mbedtls_sha256_clone,"ax",%progbits
 125              		.align	1
 126              		.global	mbedtls_sha256_clone
 127              		.syntax unified
 128              		.thumb
 129              		.thumb_func
 130              		.fpu fpv4-sp-d16
 132              	mbedtls_sha256_clone:
 133              	.LFB3:
  93:C:/Users/lenovo/Desktop/liteos/Project2/BearPi_LiteOS/components/security/mbedtls/mbedtls-2.6.0/library\sha256.c **** 
  94:C:/Users/lenovo/Desktop/liteos/Project2/BearPi_LiteOS/components/security/mbedtls/mbedtls-2.6.0/library\sha256.c **** void mbedtls_sha256_clone( mbedtls_sha256_context *dst,
  95:C:/Users/lenovo/Desktop/liteos/Project2/BearPi_LiteOS/components/security/mbedtls/mbedtls-2.6.0/library\sha256.c ****                            const mbedtls_sha256_context *src )
  96:C:/Users/lenovo/Desktop/liteos/Project2/BearPi_LiteOS/components/security/mbedtls/mbedtls-2.6.0/library\sha256.c **** {
 134              		.loc 1 96 0
 135              		.cfi_startproc
 136              		@ args = 0, pretend = 0, frame = 0
 137              		@ frame_needed = 0, uses_anonymous_args = 0
 138              	.LVL10:
ARM GAS  c:\Users\lenovo\AppData\Local\Temp\ccAl7Tms.s 			page 5


 139 0000 08B5     		push	{r3, lr}
 140              	.LCFI3:
 141              		.cfi_def_cfa_offset 8
 142              		.cfi_offset 3, -8
 143              		.cfi_offset 14, -4
  97:C:/Users/lenovo/Desktop/liteos/Project2/BearPi_LiteOS/components/security/mbedtls/mbedtls-2.6.0/library\sha256.c ****     *dst = *src;
 144              		.loc 1 97 0
 145 0002 6C22     		movs	r2, #108
 146 0004 FFF7FEFF 		bl	memcpy
 147              	.LVL11:
  98:C:/Users/lenovo/Desktop/liteos/Project2/BearPi_LiteOS/components/security/mbedtls/mbedtls-2.6.0/library\sha256.c **** }
 148              		.loc 1 98 0
 149 0008 08BD     		pop	{r3, pc}
 150              		.cfi_endproc
 151              	.LFE3:
 153              		.section	.text.mbedtls_sha256_starts,"ax",%progbits
 154              		.align	1
 155              		.global	mbedtls_sha256_starts
 156              		.syntax unified
 157              		.thumb
 158              		.thumb_func
 159              		.fpu fpv4-sp-d16
 161              	mbedtls_sha256_starts:
 162              	.LFB4:
  99:C:/Users/lenovo/Desktop/liteos/Project2/BearPi_LiteOS/components/security/mbedtls/mbedtls-2.6.0/library\sha256.c **** 
 100:C:/Users/lenovo/Desktop/liteos/Project2/BearPi_LiteOS/components/security/mbedtls/mbedtls-2.6.0/library\sha256.c **** /*
 101:C:/Users/lenovo/Desktop/liteos/Project2/BearPi_LiteOS/components/security/mbedtls/mbedtls-2.6.0/library\sha256.c ****  * SHA-256 context setup
 102:C:/Users/lenovo/Desktop/liteos/Project2/BearPi_LiteOS/components/security/mbedtls/mbedtls-2.6.0/library\sha256.c ****  */
 103:C:/Users/lenovo/Desktop/liteos/Project2/BearPi_LiteOS/components/security/mbedtls/mbedtls-2.6.0/library\sha256.c **** void mbedtls_sha256_starts( mbedtls_sha256_context *ctx, int is224 )
 104:C:/Users/lenovo/Desktop/liteos/Project2/BearPi_LiteOS/components/security/mbedtls/mbedtls-2.6.0/library\sha256.c **** {
 163              		.loc 1 104 0
 164              		.cfi_startproc
 165              		@ args = 0, pretend = 0, frame = 0
 166              		@ frame_needed = 0, uses_anonymous_args = 0
 167              		@ link register save eliminated.
 168              	.LVL12:
 105:C:/Users/lenovo/Desktop/liteos/Project2/BearPi_LiteOS/components/security/mbedtls/mbedtls-2.6.0/library\sha256.c ****     ctx->total[0] = 0;
 169              		.loc 1 105 0
 170 0000 0023     		movs	r3, #0
 171 0002 0360     		str	r3, [r0]
 106:C:/Users/lenovo/Desktop/liteos/Project2/BearPi_LiteOS/components/security/mbedtls/mbedtls-2.6.0/library\sha256.c ****     ctx->total[1] = 0;
 172              		.loc 1 106 0
 173 0004 4360     		str	r3, [r0, #4]
 107:C:/Users/lenovo/Desktop/liteos/Project2/BearPi_LiteOS/components/security/mbedtls/mbedtls-2.6.0/library\sha256.c **** 
 108:C:/Users/lenovo/Desktop/liteos/Project2/BearPi_LiteOS/components/security/mbedtls/mbedtls-2.6.0/library\sha256.c ****     if( is224 == 0 )
 174              		.loc 1 108 0
 175 0006 0B46     		mov	r3, r1
 176 0008 D9B1     		cbz	r1, .L17
 109:C:/Users/lenovo/Desktop/liteos/Project2/BearPi_LiteOS/components/security/mbedtls/mbedtls-2.6.0/library\sha256.c ****     {
 110:C:/Users/lenovo/Desktop/liteos/Project2/BearPi_LiteOS/components/security/mbedtls/mbedtls-2.6.0/library\sha256.c ****         /* SHA-256 */
 111:C:/Users/lenovo/Desktop/liteos/Project2/BearPi_LiteOS/components/security/mbedtls/mbedtls-2.6.0/library\sha256.c ****         ctx->state[0] = 0x6A09E667;
 112:C:/Users/lenovo/Desktop/liteos/Project2/BearPi_LiteOS/components/security/mbedtls/mbedtls-2.6.0/library\sha256.c ****         ctx->state[1] = 0xBB67AE85;
 113:C:/Users/lenovo/Desktop/liteos/Project2/BearPi_LiteOS/components/security/mbedtls/mbedtls-2.6.0/library\sha256.c ****         ctx->state[2] = 0x3C6EF372;
 114:C:/Users/lenovo/Desktop/liteos/Project2/BearPi_LiteOS/components/security/mbedtls/mbedtls-2.6.0/library\sha256.c ****         ctx->state[3] = 0xA54FF53A;
 115:C:/Users/lenovo/Desktop/liteos/Project2/BearPi_LiteOS/components/security/mbedtls/mbedtls-2.6.0/library\sha256.c ****         ctx->state[4] = 0x510E527F;
 116:C:/Users/lenovo/Desktop/liteos/Project2/BearPi_LiteOS/components/security/mbedtls/mbedtls-2.6.0/library\sha256.c ****         ctx->state[5] = 0x9B05688C;
 117:C:/Users/lenovo/Desktop/liteos/Project2/BearPi_LiteOS/components/security/mbedtls/mbedtls-2.6.0/library\sha256.c ****         ctx->state[6] = 0x1F83D9AB;
ARM GAS  c:\Users\lenovo\AppData\Local\Temp\ccAl7Tms.s 			page 6


 118:C:/Users/lenovo/Desktop/liteos/Project2/BearPi_LiteOS/components/security/mbedtls/mbedtls-2.6.0/library\sha256.c ****         ctx->state[7] = 0x5BE0CD19;
 119:C:/Users/lenovo/Desktop/liteos/Project2/BearPi_LiteOS/components/security/mbedtls/mbedtls-2.6.0/library\sha256.c ****     }
 120:C:/Users/lenovo/Desktop/liteos/Project2/BearPi_LiteOS/components/security/mbedtls/mbedtls-2.6.0/library\sha256.c ****     else
 121:C:/Users/lenovo/Desktop/liteos/Project2/BearPi_LiteOS/components/security/mbedtls/mbedtls-2.6.0/library\sha256.c ****     {
 122:C:/Users/lenovo/Desktop/liteos/Project2/BearPi_LiteOS/components/security/mbedtls/mbedtls-2.6.0/library\sha256.c ****         /* SHA-224 */
 123:C:/Users/lenovo/Desktop/liteos/Project2/BearPi_LiteOS/components/security/mbedtls/mbedtls-2.6.0/library\sha256.c ****         ctx->state[0] = 0xC1059ED8;
 177              		.loc 1 123 0
 178 000a 194A     		ldr	r2, .L18
 179 000c 8260     		str	r2, [r0, #8]
 124:C:/Users/lenovo/Desktop/liteos/Project2/BearPi_LiteOS/components/security/mbedtls/mbedtls-2.6.0/library\sha256.c ****         ctx->state[1] = 0x367CD507;
 180              		.loc 1 124 0
 181 000e 194A     		ldr	r2, .L18+4
 182 0010 C260     		str	r2, [r0, #12]
 125:C:/Users/lenovo/Desktop/liteos/Project2/BearPi_LiteOS/components/security/mbedtls/mbedtls-2.6.0/library\sha256.c ****         ctx->state[2] = 0x3070DD17;
 183              		.loc 1 125 0
 184 0012 02F17942 		add	r2, r2, #-117440512
 185 0016 02F57402 		add	r2, r2, #15990784
 186 001a 02F50162 		add	r2, r2, #2064
 187 001e 0261     		str	r2, [r0, #16]
 126:C:/Users/lenovo/Desktop/liteos/Project2/BearPi_LiteOS/components/security/mbedtls/mbedtls-2.6.0/library\sha256.c ****         ctx->state[3] = 0xF70E5939;
 188              		.loc 1 126 0
 189 0020 154A     		ldr	r2, .L18+8
 190 0022 4261     		str	r2, [r0, #20]
 127:C:/Users/lenovo/Desktop/liteos/Project2/BearPi_LiteOS/components/security/mbedtls/mbedtls-2.6.0/library\sha256.c ****         ctx->state[4] = 0xFFC00B31;
 191              		.loc 1 127 0
 192 0024 154A     		ldr	r2, .L18+12
 193 0026 8261     		str	r2, [r0, #24]
 128:C:/Users/lenovo/Desktop/liteos/Project2/BearPi_LiteOS/components/security/mbedtls/mbedtls-2.6.0/library\sha256.c ****         ctx->state[5] = 0x68581511;
 194              		.loc 1 128 0
 195 0028 02F1D142 		add	r2, r2, #1753219072
 196 002c 02F5C012 		add	r2, r2, #1572864
 197 0030 02F51E62 		add	r2, r2, #2528
 198 0034 C261     		str	r2, [r0, #28]
 129:C:/Users/lenovo/Desktop/liteos/Project2/BearPi_LiteOS/components/security/mbedtls/mbedtls-2.6.0/library\sha256.c ****         ctx->state[6] = 0x64F98FA7;
 199              		.loc 1 129 0
 200 0036 124A     		ldr	r2, .L18+16
 201 0038 0262     		str	r2, [r0, #32]
 130:C:/Users/lenovo/Desktop/liteos/Project2/BearPi_LiteOS/components/security/mbedtls/mbedtls-2.6.0/library\sha256.c ****         ctx->state[7] = 0xBEFA4FA4;
 202              		.loc 1 130 0
 203 003a 124A     		ldr	r2, .L18+20
 204 003c 4262     		str	r2, [r0, #36]
 205              	.L16:
 131:C:/Users/lenovo/Desktop/liteos/Project2/BearPi_LiteOS/components/security/mbedtls/mbedtls-2.6.0/library\sha256.c ****     }
 132:C:/Users/lenovo/Desktop/liteos/Project2/BearPi_LiteOS/components/security/mbedtls/mbedtls-2.6.0/library\sha256.c **** 
 133:C:/Users/lenovo/Desktop/liteos/Project2/BearPi_LiteOS/components/security/mbedtls/mbedtls-2.6.0/library\sha256.c ****     ctx->is224 = is224;
 206              		.loc 1 133 0
 207 003e 8366     		str	r3, [r0, #104]
 134:C:/Users/lenovo/Desktop/liteos/Project2/BearPi_LiteOS/components/security/mbedtls/mbedtls-2.6.0/library\sha256.c **** }
 208              		.loc 1 134 0
 209 0040 7047     		bx	lr
 210              	.L17:
 111:C:/Users/lenovo/Desktop/liteos/Project2/BearPi_LiteOS/components/security/mbedtls/mbedtls-2.6.0/library\sha256.c ****         ctx->state[1] = 0xBB67AE85;
 211              		.loc 1 111 0
 212 0042 114A     		ldr	r2, .L18+24
 213 0044 8260     		str	r2, [r0, #8]
 112:C:/Users/lenovo/Desktop/liteos/Project2/BearPi_LiteOS/components/security/mbedtls/mbedtls-2.6.0/library\sha256.c ****         ctx->state[2] = 0x3C6EF372;
 214              		.loc 1 112 0
ARM GAS  c:\Users\lenovo\AppData\Local\Temp\ccAl7Tms.s 			page 7


 215 0046 114A     		ldr	r2, .L18+28
 216 0048 C260     		str	r2, [r0, #12]
 113:C:/Users/lenovo/Desktop/liteos/Project2/BearPi_LiteOS/components/security/mbedtls/mbedtls-2.6.0/library\sha256.c ****         ctx->state[3] = 0xA54FF53A;
 217              		.loc 1 113 0
 218 004a 114A     		ldr	r2, .L18+32
 219 004c 0261     		str	r2, [r0, #16]
 114:C:/Users/lenovo/Desktop/liteos/Project2/BearPi_LiteOS/components/security/mbedtls/mbedtls-2.6.0/library\sha256.c ****         ctx->state[4] = 0x510E527F;
 220              		.loc 1 114 0
 221 004e 114A     		ldr	r2, .L18+36
 222 0050 4261     		str	r2, [r0, #20]
 115:C:/Users/lenovo/Desktop/liteos/Project2/BearPi_LiteOS/components/security/mbedtls/mbedtls-2.6.0/library\sha256.c ****         ctx->state[5] = 0x9B05688C;
 223              		.loc 1 115 0
 224 0052 114A     		ldr	r2, .L18+40
 225 0054 8261     		str	r2, [r0, #24]
 116:C:/Users/lenovo/Desktop/liteos/Project2/BearPi_LiteOS/components/security/mbedtls/mbedtls-2.6.0/library\sha256.c ****         ctx->state[6] = 0x1F83D9AB;
 226              		.loc 1 116 0
 227 0056 114A     		ldr	r2, .L18+44
 228 0058 C261     		str	r2, [r0, #28]
 117:C:/Users/lenovo/Desktop/liteos/Project2/BearPi_LiteOS/components/security/mbedtls/mbedtls-2.6.0/library\sha256.c ****         ctx->state[7] = 0x5BE0CD19;
 229              		.loc 1 117 0
 230 005a 114A     		ldr	r2, .L18+48
 231 005c 0262     		str	r2, [r0, #32]
 118:C:/Users/lenovo/Desktop/liteos/Project2/BearPi_LiteOS/components/security/mbedtls/mbedtls-2.6.0/library\sha256.c ****     }
 232              		.loc 1 118 0
 233 005e 02F17452 		add	r2, r2, #1023410176
 234 0062 A2F52302 		sub	r2, r2, #10682368
 235 0066 A2F69242 		subw	r2, r2, #3218
 236 006a 4262     		str	r2, [r0, #36]
 237 006c E7E7     		b	.L16
 238              	.L19:
 239 006e 00BF     		.align	2
 240              	.L18:
 241 0070 D89E05C1 		.word	-1056596264
 242 0074 07D57C36 		.word	914150663
 243 0078 39590EF7 		.word	-150054599
 244 007c 310BC0FF 		.word	-4191439
 245 0080 A78FF964 		.word	1694076839
 246 0084 A44FFABE 		.word	-1090891868
 247 0088 67E6096A 		.word	1779033703
 248 008c 85AE67BB 		.word	-1150833019
 249 0090 72F36E3C 		.word	1013904242
 250 0094 3AF54FA5 		.word	-1521486534
 251 0098 7F520E51 		.word	1359893119
 252 009c 8C68059B 		.word	-1694144372
 253 00a0 ABD9831F 		.word	528734635
 254              		.cfi_endproc
 255              	.LFE4:
 257              		.section	.text.mbedtls_sha256_process,"ax",%progbits
 258              		.align	1
 259              		.global	mbedtls_sha256_process
 260              		.syntax unified
 261              		.thumb
 262              		.thumb_func
 263              		.fpu fpv4-sp-d16
 265              	mbedtls_sha256_process:
 266              	.LFB5:
 135:C:/Users/lenovo/Desktop/liteos/Project2/BearPi_LiteOS/components/security/mbedtls/mbedtls-2.6.0/library\sha256.c **** 
ARM GAS  c:\Users\lenovo\AppData\Local\Temp\ccAl7Tms.s 			page 8


 136:C:/Users/lenovo/Desktop/liteos/Project2/BearPi_LiteOS/components/security/mbedtls/mbedtls-2.6.0/library\sha256.c **** #if !defined(MBEDTLS_SHA256_PROCESS_ALT)
 137:C:/Users/lenovo/Desktop/liteos/Project2/BearPi_LiteOS/components/security/mbedtls/mbedtls-2.6.0/library\sha256.c **** static const uint32_t K[] =
 138:C:/Users/lenovo/Desktop/liteos/Project2/BearPi_LiteOS/components/security/mbedtls/mbedtls-2.6.0/library\sha256.c **** {
 139:C:/Users/lenovo/Desktop/liteos/Project2/BearPi_LiteOS/components/security/mbedtls/mbedtls-2.6.0/library\sha256.c ****     0x428A2F98, 0x71374491, 0xB5C0FBCF, 0xE9B5DBA5,
 140:C:/Users/lenovo/Desktop/liteos/Project2/BearPi_LiteOS/components/security/mbedtls/mbedtls-2.6.0/library\sha256.c ****     0x3956C25B, 0x59F111F1, 0x923F82A4, 0xAB1C5ED5,
 141:C:/Users/lenovo/Desktop/liteos/Project2/BearPi_LiteOS/components/security/mbedtls/mbedtls-2.6.0/library\sha256.c ****     0xD807AA98, 0x12835B01, 0x243185BE, 0x550C7DC3,
 142:C:/Users/lenovo/Desktop/liteos/Project2/BearPi_LiteOS/components/security/mbedtls/mbedtls-2.6.0/library\sha256.c ****     0x72BE5D74, 0x80DEB1FE, 0x9BDC06A7, 0xC19BF174,
 143:C:/Users/lenovo/Desktop/liteos/Project2/BearPi_LiteOS/components/security/mbedtls/mbedtls-2.6.0/library\sha256.c ****     0xE49B69C1, 0xEFBE4786, 0x0FC19DC6, 0x240CA1CC,
 144:C:/Users/lenovo/Desktop/liteos/Project2/BearPi_LiteOS/components/security/mbedtls/mbedtls-2.6.0/library\sha256.c ****     0x2DE92C6F, 0x4A7484AA, 0x5CB0A9DC, 0x76F988DA,
 145:C:/Users/lenovo/Desktop/liteos/Project2/BearPi_LiteOS/components/security/mbedtls/mbedtls-2.6.0/library\sha256.c ****     0x983E5152, 0xA831C66D, 0xB00327C8, 0xBF597FC7,
 146:C:/Users/lenovo/Desktop/liteos/Project2/BearPi_LiteOS/components/security/mbedtls/mbedtls-2.6.0/library\sha256.c ****     0xC6E00BF3, 0xD5A79147, 0x06CA6351, 0x14292967,
 147:C:/Users/lenovo/Desktop/liteos/Project2/BearPi_LiteOS/components/security/mbedtls/mbedtls-2.6.0/library\sha256.c ****     0x27B70A85, 0x2E1B2138, 0x4D2C6DFC, 0x53380D13,
 148:C:/Users/lenovo/Desktop/liteos/Project2/BearPi_LiteOS/components/security/mbedtls/mbedtls-2.6.0/library\sha256.c ****     0x650A7354, 0x766A0ABB, 0x81C2C92E, 0x92722C85,
 149:C:/Users/lenovo/Desktop/liteos/Project2/BearPi_LiteOS/components/security/mbedtls/mbedtls-2.6.0/library\sha256.c ****     0xA2BFE8A1, 0xA81A664B, 0xC24B8B70, 0xC76C51A3,
 150:C:/Users/lenovo/Desktop/liteos/Project2/BearPi_LiteOS/components/security/mbedtls/mbedtls-2.6.0/library\sha256.c ****     0xD192E819, 0xD6990624, 0xF40E3585, 0x106AA070,
 151:C:/Users/lenovo/Desktop/liteos/Project2/BearPi_LiteOS/components/security/mbedtls/mbedtls-2.6.0/library\sha256.c ****     0x19A4C116, 0x1E376C08, 0x2748774C, 0x34B0BCB5,
 152:C:/Users/lenovo/Desktop/liteos/Project2/BearPi_LiteOS/components/security/mbedtls/mbedtls-2.6.0/library\sha256.c ****     0x391C0CB3, 0x4ED8AA4A, 0x5B9CCA4F, 0x682E6FF3,
 153:C:/Users/lenovo/Desktop/liteos/Project2/BearPi_LiteOS/components/security/mbedtls/mbedtls-2.6.0/library\sha256.c ****     0x748F82EE, 0x78A5636F, 0x84C87814, 0x8CC70208,
 154:C:/Users/lenovo/Desktop/liteos/Project2/BearPi_LiteOS/components/security/mbedtls/mbedtls-2.6.0/library\sha256.c ****     0x90BEFFFA, 0xA4506CEB, 0xBEF9A3F7, 0xC67178F2,
 155:C:/Users/lenovo/Desktop/liteos/Project2/BearPi_LiteOS/components/security/mbedtls/mbedtls-2.6.0/library\sha256.c **** };
 156:C:/Users/lenovo/Desktop/liteos/Project2/BearPi_LiteOS/components/security/mbedtls/mbedtls-2.6.0/library\sha256.c **** 
 157:C:/Users/lenovo/Desktop/liteos/Project2/BearPi_LiteOS/components/security/mbedtls/mbedtls-2.6.0/library\sha256.c **** #define  SHR(x,n) ((x & 0xFFFFFFFF) >> n)
 158:C:/Users/lenovo/Desktop/liteos/Project2/BearPi_LiteOS/components/security/mbedtls/mbedtls-2.6.0/library\sha256.c **** #define ROTR(x,n) (SHR(x,n) | (x << (32 - n)))
 159:C:/Users/lenovo/Desktop/liteos/Project2/BearPi_LiteOS/components/security/mbedtls/mbedtls-2.6.0/library\sha256.c **** 
 160:C:/Users/lenovo/Desktop/liteos/Project2/BearPi_LiteOS/components/security/mbedtls/mbedtls-2.6.0/library\sha256.c **** #define S0(x) (ROTR(x, 7) ^ ROTR(x,18) ^  SHR(x, 3))
 161:C:/Users/lenovo/Desktop/liteos/Project2/BearPi_LiteOS/components/security/mbedtls/mbedtls-2.6.0/library\sha256.c **** #define S1(x) (ROTR(x,17) ^ ROTR(x,19) ^  SHR(x,10))
 162:C:/Users/lenovo/Desktop/liteos/Project2/BearPi_LiteOS/components/security/mbedtls/mbedtls-2.6.0/library\sha256.c **** 
 163:C:/Users/lenovo/Desktop/liteos/Project2/BearPi_LiteOS/components/security/mbedtls/mbedtls-2.6.0/library\sha256.c **** #define S2(x) (ROTR(x, 2) ^ ROTR(x,13) ^ ROTR(x,22))
 164:C:/Users/lenovo/Desktop/liteos/Project2/BearPi_LiteOS/components/security/mbedtls/mbedtls-2.6.0/library\sha256.c **** #define S3(x) (ROTR(x, 6) ^ ROTR(x,11) ^ ROTR(x,25))
 165:C:/Users/lenovo/Desktop/liteos/Project2/BearPi_LiteOS/components/security/mbedtls/mbedtls-2.6.0/library\sha256.c **** 
 166:C:/Users/lenovo/Desktop/liteos/Project2/BearPi_LiteOS/components/security/mbedtls/mbedtls-2.6.0/library\sha256.c **** #define F0(x,y,z) ((x & y) | (z & (x | y)))
 167:C:/Users/lenovo/Desktop/liteos/Project2/BearPi_LiteOS/components/security/mbedtls/mbedtls-2.6.0/library\sha256.c **** #define F1(x,y,z) (z ^ (x & (y ^ z)))
 168:C:/Users/lenovo/Desktop/liteos/Project2/BearPi_LiteOS/components/security/mbedtls/mbedtls-2.6.0/library\sha256.c **** 
 169:C:/Users/lenovo/Desktop/liteos/Project2/BearPi_LiteOS/components/security/mbedtls/mbedtls-2.6.0/library\sha256.c **** #define R(t)                                    \
 170:C:/Users/lenovo/Desktop/liteos/Project2/BearPi_LiteOS/components/security/mbedtls/mbedtls-2.6.0/library\sha256.c **** (                                               \
 171:C:/Users/lenovo/Desktop/liteos/Project2/BearPi_LiteOS/components/security/mbedtls/mbedtls-2.6.0/library\sha256.c ****     W[t] = S1(W[t -  2]) + W[t -  7] +          \
 172:C:/Users/lenovo/Desktop/liteos/Project2/BearPi_LiteOS/components/security/mbedtls/mbedtls-2.6.0/library\sha256.c ****            S0(W[t - 15]) + W[t - 16]            \
 173:C:/Users/lenovo/Desktop/liteos/Project2/BearPi_LiteOS/components/security/mbedtls/mbedtls-2.6.0/library\sha256.c **** )
 174:C:/Users/lenovo/Desktop/liteos/Project2/BearPi_LiteOS/components/security/mbedtls/mbedtls-2.6.0/library\sha256.c **** 
 175:C:/Users/lenovo/Desktop/liteos/Project2/BearPi_LiteOS/components/security/mbedtls/mbedtls-2.6.0/library\sha256.c **** #define P(a,b,c,d,e,f,g,h,x,K)                  \
 176:C:/Users/lenovo/Desktop/liteos/Project2/BearPi_LiteOS/components/security/mbedtls/mbedtls-2.6.0/library\sha256.c **** {                                               \
 177:C:/Users/lenovo/Desktop/liteos/Project2/BearPi_LiteOS/components/security/mbedtls/mbedtls-2.6.0/library\sha256.c ****     temp1 = h + S3(e) + F1(e,f,g) + K + x;      \
 178:C:/Users/lenovo/Desktop/liteos/Project2/BearPi_LiteOS/components/security/mbedtls/mbedtls-2.6.0/library\sha256.c ****     temp2 = S2(a) + F0(a,b,c);                  \
 179:C:/Users/lenovo/Desktop/liteos/Project2/BearPi_LiteOS/components/security/mbedtls/mbedtls-2.6.0/library\sha256.c ****     d += temp1; h = temp1 + temp2;              \
 180:C:/Users/lenovo/Desktop/liteos/Project2/BearPi_LiteOS/components/security/mbedtls/mbedtls-2.6.0/library\sha256.c **** }
 181:C:/Users/lenovo/Desktop/liteos/Project2/BearPi_LiteOS/components/security/mbedtls/mbedtls-2.6.0/library\sha256.c **** 
 182:C:/Users/lenovo/Desktop/liteos/Project2/BearPi_LiteOS/components/security/mbedtls/mbedtls-2.6.0/library\sha256.c **** void mbedtls_sha256_process( mbedtls_sha256_context *ctx, const unsigned char data[64] )
 183:C:/Users/lenovo/Desktop/liteos/Project2/BearPi_LiteOS/components/security/mbedtls/mbedtls-2.6.0/library\sha256.c **** {
 267              		.loc 1 183 0
 268              		.cfi_startproc
 269              		@ args = 0, pretend = 0, frame = 320
 270              		@ frame_needed = 0, uses_anonymous_args = 0
 271              	.LVL13:
 272 0000 2DE9F04F 		push	{r4, r5, r6, r7, r8, r9, r10, fp, lr}
 273              	.LCFI4:
 274              		.cfi_def_cfa_offset 36
 275              		.cfi_offset 4, -36
ARM GAS  c:\Users\lenovo\AppData\Local\Temp\ccAl7Tms.s 			page 9


 276              		.cfi_offset 5, -32
 277              		.cfi_offset 6, -28
 278              		.cfi_offset 7, -24
 279              		.cfi_offset 8, -20
 280              		.cfi_offset 9, -16
 281              		.cfi_offset 10, -12
 282              		.cfi_offset 11, -8
 283              		.cfi_offset 14, -4
 284 0004 D1B0     		sub	sp, sp, #324
 285              	.LCFI5:
 286              		.cfi_def_cfa_offset 360
 287 0006 0790     		str	r0, [sp, #28]
 288              	.LVL14:
 184:C:/Users/lenovo/Desktop/liteos/Project2/BearPi_LiteOS/components/security/mbedtls/mbedtls-2.6.0/library\sha256.c ****     uint32_t temp1, temp2, W[64];
 185:C:/Users/lenovo/Desktop/liteos/Project2/BearPi_LiteOS/components/security/mbedtls/mbedtls-2.6.0/library\sha256.c ****     uint32_t A[8];
 186:C:/Users/lenovo/Desktop/liteos/Project2/BearPi_LiteOS/components/security/mbedtls/mbedtls-2.6.0/library\sha256.c ****     unsigned int i;
 187:C:/Users/lenovo/Desktop/liteos/Project2/BearPi_LiteOS/components/security/mbedtls/mbedtls-2.6.0/library\sha256.c **** 
 188:C:/Users/lenovo/Desktop/liteos/Project2/BearPi_LiteOS/components/security/mbedtls/mbedtls-2.6.0/library\sha256.c ****     for( i = 0; i < 8; i++ )
 289              		.loc 1 188 0
 290 0008 0023     		movs	r3, #0
 291 000a 06E0     		b	.L21
 292              	.LVL15:
 293              	.L22:
 189:C:/Users/lenovo/Desktop/liteos/Project2/BearPi_LiteOS/components/security/mbedtls/mbedtls-2.6.0/library\sha256.c ****         A[i] = ctx->state[i];
 294              		.loc 1 189 0 discriminator 3
 295 000c 9A1C     		adds	r2, r3, #2
 296 000e 50F82220 		ldr	r2, [r0, r2, lsl #2]
 297 0012 08AC     		add	r4, sp, #32
 298 0014 44F82320 		str	r2, [r4, r3, lsl #2]
 188:C:/Users/lenovo/Desktop/liteos/Project2/BearPi_LiteOS/components/security/mbedtls/mbedtls-2.6.0/library\sha256.c ****         A[i] = ctx->state[i];
 299              		.loc 1 188 0 discriminator 3
 300 0018 0133     		adds	r3, r3, #1
 301              	.LVL16:
 302              	.L21:
 188:C:/Users/lenovo/Desktop/liteos/Project2/BearPi_LiteOS/components/security/mbedtls/mbedtls-2.6.0/library\sha256.c ****         A[i] = ctx->state[i];
 303              		.loc 1 188 0 is_stmt 0 discriminator 1
 304 001a 072B     		cmp	r3, #7
 305 001c F6D9     		bls	.L22
 190:C:/Users/lenovo/Desktop/liteos/Project2/BearPi_LiteOS/components/security/mbedtls/mbedtls-2.6.0/library\sha256.c **** 
 191:C:/Users/lenovo/Desktop/liteos/Project2/BearPi_LiteOS/components/security/mbedtls/mbedtls-2.6.0/library\sha256.c **** #if defined(MBEDTLS_SHA256_SMALLER)
 192:C:/Users/lenovo/Desktop/liteos/Project2/BearPi_LiteOS/components/security/mbedtls/mbedtls-2.6.0/library\sha256.c ****     for( i = 0; i < 64; i++ )
 193:C:/Users/lenovo/Desktop/liteos/Project2/BearPi_LiteOS/components/security/mbedtls/mbedtls-2.6.0/library\sha256.c ****     {
 194:C:/Users/lenovo/Desktop/liteos/Project2/BearPi_LiteOS/components/security/mbedtls/mbedtls-2.6.0/library\sha256.c ****         if( i < 16 )
 195:C:/Users/lenovo/Desktop/liteos/Project2/BearPi_LiteOS/components/security/mbedtls/mbedtls-2.6.0/library\sha256.c ****             GET_UINT32_BE( W[i], data, 4 * i );
 196:C:/Users/lenovo/Desktop/liteos/Project2/BearPi_LiteOS/components/security/mbedtls/mbedtls-2.6.0/library\sha256.c ****         else
 197:C:/Users/lenovo/Desktop/liteos/Project2/BearPi_LiteOS/components/security/mbedtls/mbedtls-2.6.0/library\sha256.c ****             R( i );
 198:C:/Users/lenovo/Desktop/liteos/Project2/BearPi_LiteOS/components/security/mbedtls/mbedtls-2.6.0/library\sha256.c **** 
 199:C:/Users/lenovo/Desktop/liteos/Project2/BearPi_LiteOS/components/security/mbedtls/mbedtls-2.6.0/library\sha256.c ****         P( A[0], A[1], A[2], A[3], A[4], A[5], A[6], A[7], W[i], K[i] );
 200:C:/Users/lenovo/Desktop/liteos/Project2/BearPi_LiteOS/components/security/mbedtls/mbedtls-2.6.0/library\sha256.c **** 
 201:C:/Users/lenovo/Desktop/liteos/Project2/BearPi_LiteOS/components/security/mbedtls/mbedtls-2.6.0/library\sha256.c ****         temp1 = A[7]; A[7] = A[6]; A[6] = A[5]; A[5] = A[4]; A[4] = A[3];
 202:C:/Users/lenovo/Desktop/liteos/Project2/BearPi_LiteOS/components/security/mbedtls/mbedtls-2.6.0/library\sha256.c ****         A[3] = A[2]; A[2] = A[1]; A[1] = A[0]; A[0] = temp1;
 203:C:/Users/lenovo/Desktop/liteos/Project2/BearPi_LiteOS/components/security/mbedtls/mbedtls-2.6.0/library\sha256.c ****     }
 204:C:/Users/lenovo/Desktop/liteos/Project2/BearPi_LiteOS/components/security/mbedtls/mbedtls-2.6.0/library\sha256.c **** #else /* MBEDTLS_SHA256_SMALLER */
 205:C:/Users/lenovo/Desktop/liteos/Project2/BearPi_LiteOS/components/security/mbedtls/mbedtls-2.6.0/library\sha256.c ****     for( i = 0; i < 16; i++ )
 306              		.loc 1 205 0 is_stmt 1
 307 001e 0020     		movs	r0, #0
 308              	.LVL17:
ARM GAS  c:\Users\lenovo\AppData\Local\Temp\ccAl7Tms.s 			page 10


 309 0020 10E0     		b	.L23
 310              	.LVL18:
 311              	.L24:
 206:C:/Users/lenovo/Desktop/liteos/Project2/BearPi_LiteOS/components/security/mbedtls/mbedtls-2.6.0/library\sha256.c ****         GET_UINT32_BE( W[i], data, 4 * i );
 312              		.loc 1 206 0 discriminator 3
 313 0022 11F82040 		ldrb	r4, [r1, r0, lsl #2]	@ zero_extendqisi2
 314 0026 01EB8002 		add	r2, r1, r0, lsl #2
 315 002a 5378     		ldrb	r3, [r2, #1]	@ zero_extendqisi2
 316 002c 1B04     		lsls	r3, r3, #16
 317 002e 43EA0463 		orr	r3, r3, r4, lsl #24
 318 0032 9478     		ldrb	r4, [r2, #2]	@ zero_extendqisi2
 319 0034 43EA0423 		orr	r3, r3, r4, lsl #8
 320 0038 D278     		ldrb	r2, [r2, #3]	@ zero_extendqisi2
 321 003a 1343     		orrs	r3, r3, r2
 322 003c 10AA     		add	r2, sp, #64
 323 003e 42F82030 		str	r3, [r2, r0, lsl #2]
 205:C:/Users/lenovo/Desktop/liteos/Project2/BearPi_LiteOS/components/security/mbedtls/mbedtls-2.6.0/library\sha256.c ****         GET_UINT32_BE( W[i], data, 4 * i );
 324              		.loc 1 205 0 discriminator 3
 325 0042 0130     		adds	r0, r0, #1
 326              	.LVL19:
 327              	.L23:
 205:C:/Users/lenovo/Desktop/liteos/Project2/BearPi_LiteOS/components/security/mbedtls/mbedtls-2.6.0/library\sha256.c ****         GET_UINT32_BE( W[i], data, 4 * i );
 328              		.loc 1 205 0 is_stmt 0 discriminator 1
 329 0044 0F28     		cmp	r0, #15
 330 0046 ECD9     		bls	.L24
 207:C:/Users/lenovo/Desktop/liteos/Project2/BearPi_LiteOS/components/security/mbedtls/mbedtls-2.6.0/library\sha256.c **** 
 208:C:/Users/lenovo/Desktop/liteos/Project2/BearPi_LiteOS/components/security/mbedtls/mbedtls-2.6.0/library\sha256.c ****     for( i = 0; i < 16; i += 8 )
 331              		.loc 1 208 0 is_stmt 1
 332 0048 4FF0000E 		mov	lr, #0
 333 004c 42E1     		b	.L25
 334              	.LVL20:
 335              	.L26:
 209:C:/Users/lenovo/Desktop/liteos/Project2/BearPi_LiteOS/components/security/mbedtls/mbedtls-2.6.0/library\sha256.c ****     {
 210:C:/Users/lenovo/Desktop/liteos/Project2/BearPi_LiteOS/components/security/mbedtls/mbedtls-2.6.0/library\sha256.c ****         P( A[0], A[1], A[2], A[3], A[4], A[5], A[6], A[7], W[i+0], K[i+0] );
 336              		.loc 1 210 0 discriminator 3
 337 004e 0F9B     		ldr	r3, [sp, #60]
 338 0050 0C9E     		ldr	r6, [sp, #48]
 339 0052 4FEAF621 		ror	r1, r6, #11
 340 0056 81EAB611 		eor	r1, r1, r6, ror #6
 341 005a 81EA7661 		eor	r1, r1, r6, ror #25
 342 005e 1944     		add	r1, r1, r3
 343 0060 0E9C     		ldr	r4, [sp, #56]
 344 0062 0D98     		ldr	r0, [sp, #52]
 345 0064 84EA0003 		eor	r3, r4, r0
 346 0068 3340     		ands	r3, r3, r6
 347 006a 6340     		eors	r3, r3, r4
 348 006c 1944     		add	r1, r1, r3
 349 006e DFF83487 		ldr	r8, .L32
 350 0072 58F82E30 		ldr	r3, [r8, lr, lsl #2]
 351 0076 1944     		add	r1, r1, r3
 352 0078 0DF1400C 		add	ip, sp, #64
 353 007c 5CF82E30 		ldr	r3, [ip, lr, lsl #2]
 354 0080 1944     		add	r1, r1, r3
 355              	.LVL21:
 356 0082 089D     		ldr	r5, [sp, #32]
 357 0084 4FEA753A 		ror	r10, r5, #13
 358 0088 8AEAB50A 		eor	r10, r10, r5, ror #2
ARM GAS  c:\Users\lenovo\AppData\Local\Temp\ccAl7Tms.s 			page 11


 359 008c 8AEAB55A 		eor	r10, r10, r5, ror #22
 360 0090 099F     		ldr	r7, [sp, #36]
 361 0092 05EA0703 		and	r3, r5, r7
 362 0096 0A9A     		ldr	r2, [sp, #40]
 363 0098 45EA0709 		orr	r9, r5, r7
 364 009c 02EA0909 		and	r9, r2, r9
 365 00a0 43EA0903 		orr	r3, r3, r9
 366 00a4 9A44     		add	r10, r10, r3
 367              	.LVL22:
 368 00a6 0B9B     		ldr	r3, [sp, #44]
 369 00a8 01EB0309 		add	r9, r1, r3
 370 00ac 5144     		add	r1, r1, r10
 371              	.LVL23:
 211:C:/Users/lenovo/Desktop/liteos/Project2/BearPi_LiteOS/components/security/mbedtls/mbedtls-2.6.0/library\sha256.c ****         P( A[7], A[0], A[1], A[2], A[3], A[4], A[5], A[6], W[i+1], K[i+1] );
 372              		.loc 1 211 0 discriminator 3
 373 00ae 4FEAF923 		ror	r3, r9, #11
 374 00b2 83EAB913 		eor	r3, r3, r9, ror #6
 375 00b6 83EA7963 		eor	r3, r3, r9, ror #25
 376 00ba 1C44     		add	r4, r4, r3
 377              	.LVL24:
 378 00bc 86EA0003 		eor	r3, r6, r0
 379 00c0 09EA0303 		and	r3, r9, r3
 380 00c4 4340     		eors	r3, r3, r0
 381 00c6 1C44     		add	r4, r4, r3
 382 00c8 0EF1010A 		add	r10, lr, #1
 383              	.LVL25:
 384 00cc 58F82A30 		ldr	r3, [r8, r10, lsl #2]
 385 00d0 1C44     		add	r4, r4, r3
 386 00d2 5CF82A30 		ldr	r3, [ip, r10, lsl #2]
 387 00d6 1C44     		add	r4, r4, r3
 388              	.LVL26:
 389 00d8 4FEA7133 		ror	r3, r1, #13
 390 00dc 83EAB103 		eor	r3, r3, r1, ror #2
 391 00e0 83EAB153 		eor	r3, r3, r1, ror #22
 392 00e4 05EA010A 		and	r10, r5, r1
 393 00e8 45EA010B 		orr	fp, r5, r1
 394 00ec 07EA0B0B 		and	fp, r7, fp
 395 00f0 4AEA0B0A 		orr	r10, r10, fp
 396 00f4 5344     		add	r3, r3, r10
 397              	.LVL27:
 398 00f6 2244     		add	r2, r2, r4
 399 00f8 1C44     		add	r4, r4, r3
 400              	.LVL28:
 212:C:/Users/lenovo/Desktop/liteos/Project2/BearPi_LiteOS/components/security/mbedtls/mbedtls-2.6.0/library\sha256.c ****         P( A[6], A[7], A[0], A[1], A[2], A[3], A[4], A[5], W[i+2], K[i+2] );
 401              		.loc 1 212 0 discriminator 3
 402 00fa 4FEAF223 		ror	r3, r2, #11
 403              	.LVL29:
 404 00fe 83EAB213 		eor	r3, r3, r2, ror #6
 405 0102 83EA7263 		eor	r3, r3, r2, ror #25
 406 0106 1844     		add	r0, r0, r3
 407              	.LVL30:
 408 0108 86EA0903 		eor	r3, r6, r9
 409 010c 1340     		ands	r3, r3, r2
 410 010e 7340     		eors	r3, r3, r6
 411 0110 1844     		add	r0, r0, r3
 412 0112 0EF1020A 		add	r10, lr, #2
 413              	.LVL31:
ARM GAS  c:\Users\lenovo\AppData\Local\Temp\ccAl7Tms.s 			page 12


 414 0116 58F82A30 		ldr	r3, [r8, r10, lsl #2]
 415 011a 1844     		add	r0, r0, r3
 416 011c 5CF82A30 		ldr	r3, [ip, r10, lsl #2]
 417 0120 1844     		add	r0, r0, r3
 418              	.LVL32:
 419 0122 4FEA7433 		ror	r3, r4, #13
 420 0126 83EAB403 		eor	r3, r3, r4, ror #2
 421 012a 83EAB453 		eor	r3, r3, r4, ror #22
 422 012e 01EA040A 		and	r10, r1, r4
 423 0132 41EA040B 		orr	fp, r1, r4
 424              	.LVL33:
 425 0136 05EA0B0B 		and	fp, r5, fp
 426 013a 4AEA0B0A 		orr	r10, r10, fp
 427 013e 5344     		add	r3, r3, r10
 428              	.LVL34:
 429 0140 0744     		add	r7, r7, r0
 430 0142 1844     		add	r0, r0, r3
 431              	.LVL35:
 213:C:/Users/lenovo/Desktop/liteos/Project2/BearPi_LiteOS/components/security/mbedtls/mbedtls-2.6.0/library\sha256.c ****         P( A[5], A[6], A[7], A[0], A[1], A[2], A[3], A[4], W[i+3], K[i+3] );
 432              		.loc 1 213 0 discriminator 3
 433 0144 4FEAF723 		ror	r3, r7, #11
 434              	.LVL36:
 435 0148 83EAB713 		eor	r3, r3, r7, ror #6
 436 014c 83EA7763 		eor	r3, r3, r7, ror #25
 437 0150 1E44     		add	r6, r6, r3
 438              	.LVL37:
 439 0152 89EA0203 		eor	r3, r9, r2
 440 0156 3B40     		ands	r3, r3, r7
 441 0158 89EA0303 		eor	r3, r9, r3
 442 015c 1E44     		add	r6, r6, r3
 443 015e 0EF1030A 		add	r10, lr, #3
 444              	.LVL38:
 445 0162 58F82A30 		ldr	r3, [r8, r10, lsl #2]
 446 0166 1E44     		add	r6, r6, r3
 447 0168 5CF82A30 		ldr	r3, [ip, r10, lsl #2]
 448 016c 1E44     		add	r6, r6, r3
 449              	.LVL39:
 450 016e 4FEA7033 		ror	r3, r0, #13
 451 0172 83EAB003 		eor	r3, r3, r0, ror #2
 452 0176 83EAB053 		eor	r3, r3, r0, ror #22
 453 017a 04EA000A 		and	r10, r4, r0
 454 017e 44EA000B 		orr	fp, r4, r0
 455              	.LVL40:
 456 0182 01EA0B0B 		and	fp, r1, fp
 457 0186 4AEA0B0A 		orr	r10, r10, fp
 458 018a 5344     		add	r3, r3, r10
 459              	.LVL41:
 460 018c 3544     		add	r5, r5, r6
 461 018e 1E44     		add	r6, r6, r3
 462              	.LVL42:
 214:C:/Users/lenovo/Desktop/liteos/Project2/BearPi_LiteOS/components/security/mbedtls/mbedtls-2.6.0/library\sha256.c ****         P( A[4], A[5], A[6], A[7], A[0], A[1], A[2], A[3], W[i+4], K[i+4] );
 463              		.loc 1 214 0 discriminator 3
 464 0190 4FEAF523 		ror	r3, r5, #11
 465              	.LVL43:
 466 0194 83EAB513 		eor	r3, r3, r5, ror #6
 467 0198 83EA7563 		eor	r3, r3, r5, ror #25
 468 019c 9944     		add	r9, r9, r3
ARM GAS  c:\Users\lenovo\AppData\Local\Temp\ccAl7Tms.s 			page 13


 469              	.LVL44:
 470 019e 82EA0703 		eor	r3, r2, r7
 471 01a2 2B40     		ands	r3, r3, r5
 472 01a4 5340     		eors	r3, r3, r2
 473 01a6 9944     		add	r9, r9, r3
 474 01a8 0EF1040A 		add	r10, lr, #4
 475              	.LVL45:
 476 01ac 58F82A30 		ldr	r3, [r8, r10, lsl #2]
 477 01b0 4B44     		add	r3, r3, r9
 478 01b2 5CF82A90 		ldr	r9, [ip, r10, lsl #2]
 479 01b6 4B44     		add	r3, r3, r9
 480              	.LVL46:
 481 01b8 4FEA7639 		ror	r9, r6, #13
 482 01bc 89EAB609 		eor	r9, r9, r6, ror #2
 483 01c0 89EAB659 		eor	r9, r9, r6, ror #22
 484 01c4 00EA060A 		and	r10, r0, r6
 485 01c8 40EA060B 		orr	fp, r0, r6
 486              	.LVL47:
 487 01cc 04EA0B0B 		and	fp, r4, fp
 488 01d0 4AEA0B0A 		orr	r10, r10, fp
 489 01d4 D144     		add	r9, r9, r10
 490              	.LVL48:
 491 01d6 1944     		add	r1, r1, r3
 492 01d8 0F91     		str	r1, [sp, #60]
 493 01da 4B44     		add	r3, r3, r9
 494              	.LVL49:
 495 01dc 0B93     		str	r3, [sp, #44]
 215:C:/Users/lenovo/Desktop/liteos/Project2/BearPi_LiteOS/components/security/mbedtls/mbedtls-2.6.0/library\sha256.c ****         P( A[3], A[4], A[5], A[6], A[7], A[0], A[1], A[2], W[i+5], K[i+5] );
 496              		.loc 1 215 0 discriminator 3
 497 01de 4FEAF129 		ror	r9, r1, #11
 498              	.LVL50:
 499 01e2 89EAB119 		eor	r9, r9, r1, ror #6
 500 01e6 89EA7169 		eor	r9, r9, r1, ror #25
 501 01ea 4A44     		add	r2, r2, r9
 502 01ec 87EA0509 		eor	r9, r7, r5
 503 01f0 01EA0909 		and	r9, r1, r9
 504 01f4 87EA0909 		eor	r9, r7, r9
 505 01f8 9144     		add	r9, r9, r2
 506 01fa 0EF1050A 		add	r10, lr, #5
 507              	.LVL51:
 508 01fe 58F82A20 		ldr	r2, [r8, r10, lsl #2]
 509 0202 4A44     		add	r2, r2, r9
 510 0204 5CF82A90 		ldr	r9, [ip, r10, lsl #2]
 511 0208 4A44     		add	r2, r2, r9
 512              	.LVL52:
 513 020a 4FEA733A 		ror	r10, r3, #13
 514 020e 8AEAB30A 		eor	r10, r10, r3, ror #2
 515 0212 8AEAB35A 		eor	r10, r10, r3, ror #22
 516 0216 06EA0309 		and	r9, r6, r3
 517 021a 46EA030B 		orr	fp, r6, r3
 518              	.LVL53:
 519 021e 00EA0B0B 		and	fp, r0, fp
 520 0222 49EA0B09 		orr	r9, r9, fp
 521 0226 CA44     		add	r10, r10, r9
 522              	.LVL54:
 523 0228 04EB0209 		add	r9, r4, r2
 524 022c CDF83890 		str	r9, [sp, #56]
ARM GAS  c:\Users\lenovo\AppData\Local\Temp\ccAl7Tms.s 			page 14


 525 0230 5244     		add	r2, r2, r10
 526              	.LVL55:
 527 0232 0A92     		str	r2, [sp, #40]
 216:C:/Users/lenovo/Desktop/liteos/Project2/BearPi_LiteOS/components/security/mbedtls/mbedtls-2.6.0/library\sha256.c ****         P( A[2], A[3], A[4], A[5], A[6], A[7], A[0], A[1], W[i+6], K[i+6] );
 528              		.loc 1 216 0 discriminator 3
 529 0234 4FEAF924 		ror	r4, r9, #11
 530 0238 84EAB914 		eor	r4, r4, r9, ror #6
 531 023c 84EA7964 		eor	r4, r4, r9, ror #25
 532 0240 2744     		add	r7, r7, r4
 533 0242 85EA0104 		eor	r4, r5, r1
 534 0246 09EA0404 		and	r4, r9, r4
 535 024a 6C40     		eors	r4, r4, r5
 536 024c 3C44     		add	r4, r4, r7
 537 024e 0EF1060A 		add	r10, lr, #6
 538              	.LVL56:
 539 0252 58F82A70 		ldr	r7, [r8, r10, lsl #2]
 540 0256 3C44     		add	r4, r4, r7
 541 0258 5CF82A70 		ldr	r7, [ip, r10, lsl #2]
 542 025c 3C44     		add	r4, r4, r7
 543              	.LVL57:
 544 025e 4FEA7237 		ror	r7, r2, #13
 545 0262 87EAB207 		eor	r7, r7, r2, ror #2
 546 0266 87EAB257 		eor	r7, r7, r2, ror #22
 547 026a 03EA020A 		and	r10, r3, r2
 548 026e 43EA020B 		orr	fp, r3, r2
 549              	.LVL58:
 550 0272 06EA0B0B 		and	fp, r6, fp
 551 0276 4AEA0B0A 		orr	r10, r10, fp
 552 027a 5744     		add	r7, r7, r10
 553              	.LVL59:
 554 027c 2044     		add	r0, r0, r4
 555 027e 0D90     		str	r0, [sp, #52]
 556 0280 3C44     		add	r4, r4, r7
 557              	.LVL60:
 558 0282 0994     		str	r4, [sp, #36]
 217:C:/Users/lenovo/Desktop/liteos/Project2/BearPi_LiteOS/components/security/mbedtls/mbedtls-2.6.0/library\sha256.c ****         P( A[1], A[2], A[3], A[4], A[5], A[6], A[7], A[0], W[i+7], K[i+7] );
 559              		.loc 1 217 0 discriminator 3
 560 0284 4FEAF027 		ror	r7, r0, #11
 561              	.LVL61:
 562 0288 87EAB017 		eor	r7, r7, r0, ror #6
 563 028c 87EA7067 		eor	r7, r7, r0, ror #25
 564 0290 3D44     		add	r5, r5, r7
 565 0292 81EA0909 		eor	r9, r1, r9
 566 0296 00EA0909 		and	r9, r0, r9
 567 029a 81EA0901 		eor	r1, r1, r9
 568 029e 2944     		add	r1, r1, r5
 569 02a0 0EF10700 		add	r0, lr, #7
 570 02a4 58F82050 		ldr	r5, [r8, r0, lsl #2]
 571 02a8 2944     		add	r1, r1, r5
 572 02aa 5CF82000 		ldr	r0, [ip, r0, lsl #2]
 573 02ae 0144     		add	r1, r1, r0
 574              	.LVL62:
 575 02b0 4FEA7430 		ror	r0, r4, #13
 576 02b4 80EAB400 		eor	r0, r0, r4, ror #2
 577 02b8 80EAB450 		eor	r0, r0, r4, ror #22
 578 02bc 02EA0405 		and	r5, r2, r4
 579 02c0 2243     		orrs	r2, r2, r4
ARM GAS  c:\Users\lenovo\AppData\Local\Temp\ccAl7Tms.s 			page 15


 580              	.LVL63:
 581 02c2 1340     		ands	r3, r3, r2
 582 02c4 2B43     		orrs	r3, r3, r5
 583 02c6 0344     		add	r3, r3, r0
 584              	.LVL64:
 585 02c8 0E44     		add	r6, r6, r1
 586 02ca 0C96     		str	r6, [sp, #48]
 587 02cc 0B44     		add	r3, r3, r1
 588              	.LVL65:
 589 02ce 0893     		str	r3, [sp, #32]
 208:C:/Users/lenovo/Desktop/liteos/Project2/BearPi_LiteOS/components/security/mbedtls/mbedtls-2.6.0/library\sha256.c ****     {
 590              		.loc 1 208 0 discriminator 3
 591 02d0 0EF1080E 		add	lr, lr, #8
 592              	.LVL66:
 593              	.L25:
 208:C:/Users/lenovo/Desktop/liteos/Project2/BearPi_LiteOS/components/security/mbedtls/mbedtls-2.6.0/library\sha256.c ****     {
 594              		.loc 1 208 0 is_stmt 0 discriminator 1
 595 02d4 BEF10F0F 		cmp	lr, #15
 596 02d8 7FF6B9AE 		bls	.L26
 218:C:/Users/lenovo/Desktop/liteos/Project2/BearPi_LiteOS/components/security/mbedtls/mbedtls-2.6.0/library\sha256.c ****     }
 219:C:/Users/lenovo/Desktop/liteos/Project2/BearPi_LiteOS/components/security/mbedtls/mbedtls-2.6.0/library\sha256.c **** 
 220:C:/Users/lenovo/Desktop/liteos/Project2/BearPi_LiteOS/components/security/mbedtls/mbedtls-2.6.0/library\sha256.c ****     for( i = 16; i < 64; i += 8 )
 597              		.loc 1 220 0 is_stmt 1
 598 02dc 1026     		movs	r6, #16
 599 02de 4BE2     		b	.L27
 600              	.LVL67:
 601              	.L28:
 221:C:/Users/lenovo/Desktop/liteos/Project2/BearPi_LiteOS/components/security/mbedtls/mbedtls-2.6.0/library\sha256.c ****     {
 222:C:/Users/lenovo/Desktop/liteos/Project2/BearPi_LiteOS/components/security/mbedtls/mbedtls-2.6.0/library\sha256.c ****         P( A[0], A[1], A[2], A[3], A[4], A[5], A[6], A[7], R(i+0), K[i+0] );
 602              		.loc 1 222 0 discriminator 3
 603 02e0 0F9A     		ldr	r2, [sp, #60]
 604 02e2 0C9B     		ldr	r3, [sp, #48]
 605 02e4 4FEAF327 		ror	r7, r3, #11
 606 02e8 87EAB317 		eor	r7, r7, r3, ror #6
 607 02ec 87EA7367 		eor	r7, r7, r3, ror #25
 608 02f0 3A44     		add	r2, r2, r7
 609 02f2 0E98     		ldr	r0, [sp, #56]
 610 02f4 0D9D     		ldr	r5, [sp, #52]
 611 02f6 80EA0507 		eor	r7, r0, r5
 612 02fa 1F40     		ands	r7, r7, r3
 613 02fc 4740     		eors	r7, r7, r0
 614 02fe 3A44     		add	r2, r2, r7
 615 0300 DFF8A0B4 		ldr	fp, .L32
 616 0304 5BF82670 		ldr	r7, [fp, r6, lsl #2]
 617 0308 1744     		add	r7, r7, r2
 618 030a B31E     		subs	r3, r6, #2
 619 030c 1A46     		mov	r2, r3
 620 030e 10AB     		add	r3, sp, #64
 621 0310 0492     		str	r2, [sp, #16]
 622 0312 53F82220 		ldr	r2, [r3, r2, lsl #2]
 623 0316 4FEAF244 		ror	r4, r2, #19
 624 031a 84EA7244 		eor	r4, r4, r2, ror #17
 625 031e 84EA9224 		eor	r4, r4, r2, lsr #10
 626 0322 F21F     		subs	r2, r6, #7
 627 0324 53F82220 		ldr	r2, [r3, r2, lsl #2]
 628 0328 1444     		add	r4, r4, r2
 629 032a A6F10F0A 		sub	r10, r6, #15
ARM GAS  c:\Users\lenovo\AppData\Local\Temp\ccAl7Tms.s 			page 16


 630 032e 53F82AC0 		ldr	ip, [r3, r10, lsl #2]
 631 0332 4FEABC42 		ror	r2, ip, #18
 632 0336 82EAFC12 		eor	r2, r2, ip, ror #7
 633 033a 82EADC02 		eor	r2, r2, ip, lsr #3
 634 033e 1444     		add	r4, r4, r2
 635 0340 A6F11002 		sub	r2, r6, #16
 636 0344 53F82220 		ldr	r2, [r3, r2, lsl #2]
 637 0348 2244     		add	r2, r2, r4
 638 034a 43F82620 		str	r2, [r3, r6, lsl #2]
 639 034e 3A44     		add	r2, r2, r7
 640              	.LVL68:
 641 0350 0899     		ldr	r1, [sp, #32]
 642 0352 4FEA713C 		ror	ip, r1, #13
 643 0356 8CEAB10C 		eor	ip, ip, r1, ror #2
 644 035a 8CEAB15E 		eor	lr, ip, r1, ror #22
 645 035e 099F     		ldr	r7, [sp, #36]
 646 0360 3C46     		mov	r4, r7
 647 0362 0C40     		ands	r4, r4, r1
 648 0364 0A99     		ldr	r1, [sp, #40]
 649 0366 0091     		str	r1, [sp]
 650 0368 0899     		ldr	r1, [sp, #32]
 651 036a 41EA070C 		orr	ip, r1, r7
 652 036e 0099     		ldr	r1, [sp]
 653 0370 01EA0C0C 		and	ip, r1, ip
 654 0374 44EA0C0C 		orr	ip, r4, ip
 655 0378 F444     		add	ip, ip, lr
 656              	.LVL69:
 657 037a 0B9C     		ldr	r4, [sp, #44]
 658 037c 1444     		add	r4, r4, r2
 659 037e 6244     		add	r2, r2, ip
 660              	.LVL70:
 223:C:/Users/lenovo/Desktop/liteos/Project2/BearPi_LiteOS/components/security/mbedtls/mbedtls-2.6.0/library\sha256.c ****         P( A[7], A[0], A[1], A[2], A[3], A[4], A[5], A[6], R(i+1), K[i+1] );
 661              		.loc 1 223 0 discriminator 3
 662 0380 4FEAF428 		ror	r8, r4, #11
 663 0384 88EAB418 		eor	r8, r8, r4, ror #6
 664 0388 88EA7468 		eor	r8, r8, r4, ror #25
 665 038c 8044     		add	r8, r8, r0
 666 038e 0C99     		ldr	r1, [sp, #48]
 667 0390 81EA0509 		eor	r9, r1, r5
 668 0394 04EA0909 		and	r9, r4, r9
 669 0398 85EA0909 		eor	r9, r5, r9
 670 039c C844     		add	r8, r8, r9
 671 039e 711C     		adds	r1, r6, #1
 672 03a0 5BF82100 		ldr	r0, [fp, r1, lsl #2]
 673              	.LVL71:
 674 03a4 8044     		add	r8, r8, r0
 675 03a6 701E     		subs	r0, r6, #1
 676 03a8 0590     		str	r0, [sp, #20]
 677 03aa 53F82000 		ldr	r0, [r3, r0, lsl #2]
 678 03ae 4FEAF04C 		ror	ip, r0, #19
 679              	.LVL72:
 680 03b2 8CEA704C 		eor	ip, ip, r0, ror #17
 681 03b6 8CEA902C 		eor	ip, ip, r0, lsr #10
 682 03ba B01F     		subs	r0, r6, #6
 683 03bc 53F82000 		ldr	r0, [r3, r0, lsl #2]
 684 03c0 8444     		add	ip, ip, r0
 685 03c2 A6F10E0E 		sub	lr, r6, #14
ARM GAS  c:\Users\lenovo\AppData\Local\Temp\ccAl7Tms.s 			page 17


 686              	.LVL73:
 687 03c6 53F82E90 		ldr	r9, [r3, lr, lsl #2]
 688 03ca 4FEAB940 		ror	r0, r9, #18
 689 03ce 80EAF910 		eor	r0, r0, r9, ror #7
 690 03d2 80EAD900 		eor	r0, r0, r9, lsr #3
 691 03d6 6044     		add	r0, r0, ip
 692 03d8 53F82A90 		ldr	r9, [r3, r10, lsl #2]
 693 03dc 4844     		add	r0, r0, r9
 694 03de 0291     		str	r1, [sp, #8]
 695 03e0 43F82100 		str	r0, [r3, r1, lsl #2]
 696 03e4 08EB0009 		add	r9, r8, r0
 697              	.LVL74:
 698 03e8 4FEA7238 		ror	r8, r2, #13
 699 03ec 88EAB208 		eor	r8, r8, r2, ror #2
 700 03f0 88EAB258 		eor	r8, r8, r2, ror #22
 701 03f4 0899     		ldr	r1, [sp, #32]
 702 03f6 01EA0200 		and	r0, r1, r2
 703 03fa 41EA020C 		orr	ip, r1, r2
 704 03fe 0197     		str	r7, [sp, #4]
 705 0400 07EA0C0C 		and	ip, r7, ip
 706 0404 40EA0C0C 		orr	ip, r0, ip
 707 0408 C444     		add	ip, ip, r8
 708              	.LVL75:
 709 040a 0098     		ldr	r0, [sp]
 710 040c 00EB0908 		add	r8, r0, r9
 711 0410 E144     		add	r9, r9, ip
 712              	.LVL76:
 224:C:/Users/lenovo/Desktop/liteos/Project2/BearPi_LiteOS/components/security/mbedtls/mbedtls-2.6.0/library\sha256.c ****         P( A[6], A[7], A[0], A[1], A[2], A[3], A[4], A[5], R(i+2), K[i+2] );
 713              		.loc 1 224 0 discriminator 3
 714 0412 4FEAF820 		ror	r0, r8, #11
 715 0416 80EAB810 		eor	r0, r0, r8, ror #6
 716 041a 80EA7860 		eor	r0, r0, r8, ror #25
 717 041e 0544     		add	r5, r5, r0
 718              	.LVL77:
 719 0420 0C99     		ldr	r1, [sp, #48]
 720 0422 81EA0400 		eor	r0, r1, r4
 721 0426 08EA0000 		and	r0, r8, r0
 722 042a 4840     		eors	r0, r0, r1
 723 042c 0544     		add	r5, r5, r0
 724 042e B01C     		adds	r0, r6, #2
 725 0430 0146     		mov	r1, r0
 726 0432 5BF82000 		ldr	r0, [fp, r0, lsl #2]
 727 0436 0544     		add	r5, r5, r0
 728 0438 53F82600 		ldr	r0, [r3, r6, lsl #2]
 729 043c 4FEAF04C 		ror	ip, r0, #19
 730              	.LVL78:
 731 0440 8CEA704C 		eor	ip, ip, r0, ror #17
 732 0444 8CEA902C 		eor	ip, ip, r0, lsr #10
 733 0448 701F     		subs	r0, r6, #5
 734 044a 53F82000 		ldr	r0, [r3, r0, lsl #2]
 735 044e 8444     		add	ip, ip, r0
 736 0450 A6F10D0A 		sub	r10, r6, #13
 737 0454 53F82A00 		ldr	r0, [r3, r10, lsl #2]
 738 0458 4FEAB040 		ror	r0, r0, #18
 739 045c 53F82A70 		ldr	r7, [r3, r10, lsl #2]
 740              	.LVL79:
 741 0460 80EAF710 		eor	r0, r0, r7, ror #7
ARM GAS  c:\Users\lenovo\AppData\Local\Temp\ccAl7Tms.s 			page 18


 742 0464 80EAD700 		eor	r0, r0, r7, lsr #3
 743 0468 6044     		add	r0, r0, ip
 744 046a 53F82EC0 		ldr	ip, [r3, lr, lsl #2]
 745 046e 6044     		add	r0, r0, ip
 746 0470 0391     		str	r1, [sp, #12]
 747 0472 43F82100 		str	r0, [r3, r1, lsl #2]
 748 0476 0544     		add	r5, r5, r0
 749              	.LVL80:
 750 0478 4FEA793C 		ror	ip, r9, #13
 751 047c 8CEAB90C 		eor	ip, ip, r9, ror #2
 752 0480 8CEAB95C 		eor	ip, ip, r9, ror #22
 753 0484 02EA0900 		and	r0, r2, r9
 754 0488 42EA090E 		orr	lr, r2, r9
 755 048c 0899     		ldr	r1, [sp, #32]
 756 048e 01EA0E0E 		and	lr, r1, lr
 757 0492 40EA0E00 		orr	r0, r0, lr
 758 0496 8444     		add	ip, ip, r0
 759              	.LVL81:
 760 0498 019F     		ldr	r7, [sp, #4]
 761 049a 07EB050E 		add	lr, r7, r5
 762 049e 05EB0C07 		add	r7, r5, ip
 763 04a2 0097     		str	r7, [sp]
 225:C:/Users/lenovo/Desktop/liteos/Project2/BearPi_LiteOS/components/security/mbedtls/mbedtls-2.6.0/library\sha256.c ****         P( A[5], A[6], A[7], A[0], A[1], A[2], A[3], A[4], R(i+3), K[i+3] );
 764              		.loc 1 225 0 discriminator 3
 765 04a4 4FEAFE20 		ror	r0, lr, #11
 766 04a8 80EABE10 		eor	r0, r0, lr, ror #6
 767 04ac 80EA7E60 		eor	r0, r0, lr, ror #25
 768 04b0 0C99     		ldr	r1, [sp, #48]
 769 04b2 0D18     		adds	r5, r1, r0
 770              	.LVL82:
 771 04b4 84EA0801 		eor	r1, r4, r8
 772 04b8 0EEA0101 		and	r1, lr, r1
 773 04bc 6140     		eors	r1, r1, r4
 774 04be 6818     		adds	r0, r5, r1
 775 04c0 F71C     		adds	r7, r6, #3
 776 04c2 5BF82710 		ldr	r1, [fp, r7, lsl #2]
 777 04c6 0144     		add	r1, r1, r0
 778 04c8 029D     		ldr	r5, [sp, #8]
 779 04ca 53F82500 		ldr	r0, [r3, r5, lsl #2]
 780 04ce 4FEAF045 		ror	r5, r0, #19
 781 04d2 85EA7045 		eor	r5, r5, r0, ror #17
 782 04d6 85EA9025 		eor	r5, r5, r0, lsr #10
 783 04da 301F     		subs	r0, r6, #4
 784 04dc 53F82000 		ldr	r0, [r3, r0, lsl #2]
 785 04e0 0544     		add	r5, r5, r0
 786 04e2 0195     		str	r5, [sp, #4]
 787 04e4 A6F10C0C 		sub	ip, r6, #12
 788              	.LVL83:
 789 04e8 53F82C00 		ldr	r0, [r3, ip, lsl #2]
 790 04ec 4FEAB040 		ror	r0, r0, #18
 791 04f0 53F82C50 		ldr	r5, [r3, ip, lsl #2]
 792 04f4 80EAF510 		eor	r0, r0, r5, ror #7
 793 04f8 80EAD500 		eor	r0, r0, r5, lsr #3
 794 04fc 019D     		ldr	r5, [sp, #4]
 795 04fe 2844     		add	r0, r0, r5
 796 0500 53F82A50 		ldr	r5, [r3, r10, lsl #2]
 797 0504 2844     		add	r0, r0, r5
ARM GAS  c:\Users\lenovo\AppData\Local\Temp\ccAl7Tms.s 			page 19


 798 0506 0697     		str	r7, [sp, #24]
 799 0508 43F82700 		str	r0, [r3, r7, lsl #2]
 800 050c 0144     		add	r1, r1, r0
 801              	.LVL84:
 802 050e 0098     		ldr	r0, [sp]
 803 0510 4FEA7035 		ror	r5, r0, #13
 804 0514 0746     		mov	r7, r0
 805 0516 85EAB005 		eor	r5, r5, r0, ror #2
 806 051a 85EAB055 		eor	r5, r5, r0, ror #22
 807 051e 09EA0000 		and	r0, r9, r0
 808 0522 49EA070A 		orr	r10, r9, r7
 809 0526 02EA0A0A 		and	r10, r2, r10
 810 052a 40EA0A00 		orr	r0, r0, r10
 811 052e 0544     		add	r5, r5, r0
 812              	.LVL85:
 813 0530 0898     		ldr	r0, [sp, #32]
 814 0532 00EB010A 		add	r10, r0, r1
 815 0536 2944     		add	r1, r1, r5
 816              	.LVL86:
 817 0538 0191     		str	r1, [sp, #4]
 226:C:/Users/lenovo/Desktop/liteos/Project2/BearPi_LiteOS/components/security/mbedtls/mbedtls-2.6.0/library\sha256.c ****         P( A[4], A[5], A[6], A[7], A[0], A[1], A[2], A[3], R(i+4), K[i+4] );
 818              		.loc 1 226 0 discriminator 3
 819 053a 4FEAFA25 		ror	r5, r10, #11
 820              	.LVL87:
 821 053e 85EABA15 		eor	r5, r5, r10, ror #6
 822 0542 85EA7A65 		eor	r5, r5, r10, ror #25
 823 0546 2C44     		add	r4, r4, r5
 824              	.LVL88:
 825 0548 88EA0E05 		eor	r5, r8, lr
 826 054c 0AEA0505 		and	r5, r10, r5
 827 0550 88EA0505 		eor	r5, r8, r5
 828 0554 2544     		add	r5, r5, r4
 829 0556 341D     		adds	r4, r6, #4
 830 0558 0294     		str	r4, [sp, #8]
 831 055a 5BF82400 		ldr	r0, [fp, r4, lsl #2]
 832 055e 0544     		add	r5, r5, r0
 833 0560 0399     		ldr	r1, [sp, #12]
 834 0562 53F82140 		ldr	r4, [r3, r1, lsl #2]
 835 0566 4FEAF440 		ror	r0, r4, #19
 836 056a 80EA7440 		eor	r0, r0, r4, ror #17
 837 056e 80EA9420 		eor	r0, r0, r4, lsr #10
 838 0572 F41E     		subs	r4, r6, #3
 839 0574 53F82440 		ldr	r4, [r3, r4, lsl #2]
 840 0578 2044     		add	r0, r0, r4
 841 057a A6F10B07 		sub	r7, r6, #11
 842              	.LVL89:
 843 057e 53F82710 		ldr	r1, [r3, r7, lsl #2]
 844 0582 4FEAB144 		ror	r4, r1, #18
 845 0586 84EAF114 		eor	r4, r4, r1, ror #7
 846 058a 84EAD104 		eor	r4, r4, r1, lsr #3
 847 058e 0444     		add	r4, r4, r0
 848 0590 53F82C00 		ldr	r0, [r3, ip, lsl #2]
 849 0594 2044     		add	r0, r0, r4
 850 0596 0299     		ldr	r1, [sp, #8]
 851 0598 43F82100 		str	r0, [r3, r1, lsl #2]
 852 059c 0544     		add	r5, r5, r0
 853              	.LVL90:
ARM GAS  c:\Users\lenovo\AppData\Local\Temp\ccAl7Tms.s 			page 20


 854 059e 0199     		ldr	r1, [sp, #4]
 855 05a0 4FEA713C 		ror	ip, r1, #13
 856 05a4 8CEAB10C 		eor	ip, ip, r1, ror #2
 857 05a8 8CEAB15C 		eor	ip, ip, r1, ror #22
 858 05ac 0098     		ldr	r0, [sp]
 859 05ae 0446     		mov	r4, r0
 860 05b0 0C40     		ands	r4, r4, r1
 861 05b2 0146     		mov	r1, r0
 862 05b4 0198     		ldr	r0, [sp, #4]
 863 05b6 0843     		orrs	r0, r0, r1
 864 05b8 09EA0000 		and	r0, r9, r0
 865 05bc 2043     		orrs	r0, r0, r4
 866 05be 6044     		add	r0, r0, ip
 867              	.LVL91:
 868 05c0 2A44     		add	r2, r2, r5
 869 05c2 0F92     		str	r2, [sp, #60]
 870 05c4 2844     		add	r0, r0, r5
 871              	.LVL92:
 872 05c6 0B90     		str	r0, [sp, #44]
 227:C:/Users/lenovo/Desktop/liteos/Project2/BearPi_LiteOS/components/security/mbedtls/mbedtls-2.6.0/library\sha256.c ****         P( A[3], A[4], A[5], A[6], A[7], A[0], A[1], A[2], R(i+5), K[i+5] );
 873              		.loc 1 227 0 discriminator 3
 874 05c8 4FEAF22C 		ror	ip, r2, #11
 875              	.LVL93:
 876 05cc 8CEAB21C 		eor	ip, ip, r2, ror #6
 877 05d0 8CEA726C 		eor	ip, ip, r2, ror #25
 878 05d4 C444     		add	ip, ip, r8
 879 05d6 8EEA0A08 		eor	r8, lr, r10
 880 05da 0392     		str	r2, [sp, #12]
 881 05dc 02EA0808 		and	r8, r2, r8
 882 05e0 8EEA0808 		eor	r8, lr, r8
 883 05e4 C444     		add	ip, ip, r8
 884 05e6 741D     		adds	r4, r6, #5
 885              	.LVL94:
 886 05e8 2146     		mov	r1, r4
 887 05ea 5BF82440 		ldr	r4, [fp, r4, lsl #2]
 888 05ee A444     		add	ip, ip, r4
 889 05f0 069D     		ldr	r5, [sp, #24]
 890              	.LVL95:
 891 05f2 53F82550 		ldr	r5, [r3, r5, lsl #2]
 892 05f6 4FEAF544 		ror	r4, r5, #19
 893 05fa 84EA7544 		eor	r4, r4, r5, ror #17
 894 05fe 84EA9524 		eor	r4, r4, r5, lsr #10
 895 0602 049A     		ldr	r2, [sp, #16]
 896 0604 53F82250 		ldr	r5, [r3, r2, lsl #2]
 897 0608 2C44     		add	r4, r4, r5
 898 060a A6F10A08 		sub	r8, r6, #10
 899 060e 53F82820 		ldr	r2, [r3, r8, lsl #2]
 900 0612 4FEAB245 		ror	r5, r2, #18
 901 0616 85EAF215 		eor	r5, r5, r2, ror #7
 902 061a 85EAD205 		eor	r5, r5, r2, lsr #3
 903 061e 2544     		add	r5, r5, r4
 904 0620 53F82740 		ldr	r4, [r3, r7, lsl #2]
 905 0624 2C44     		add	r4, r4, r5
 906 0626 0491     		str	r1, [sp, #16]
 907 0628 43F82140 		str	r4, [r3, r1, lsl #2]
 908 062c 6444     		add	r4, r4, ip
 909              	.LVL96:
ARM GAS  c:\Users\lenovo\AppData\Local\Temp\ccAl7Tms.s 			page 21


 910 062e 4FEA7037 		ror	r7, r0, #13
 911 0632 87EAB007 		eor	r7, r7, r0, ror #2
 912 0636 87EAB057 		eor	r7, r7, r0, ror #22
 913 063a 0199     		ldr	r1, [sp, #4]
 914 063c 01EA0005 		and	r5, r1, r0
 915 0640 41EA000C 		orr	ip, r1, r0
 916 0644 0099     		ldr	r1, [sp]
 917 0646 01EA0C0C 		and	ip, r1, ip
 918 064a 45EA0C05 		orr	r5, r5, ip
 919 064e 2F44     		add	r7, r7, r5
 920              	.LVL97:
 921 0650 09EB040C 		add	ip, r9, r4
 922 0654 CDF838C0 		str	ip, [sp, #56]
 923 0658 3C44     		add	r4, r4, r7
 924              	.LVL98:
 925 065a 0A94     		str	r4, [sp, #40]
 228:C:/Users/lenovo/Desktop/liteos/Project2/BearPi_LiteOS/components/security/mbedtls/mbedtls-2.6.0/library\sha256.c ****         P( A[2], A[3], A[4], A[5], A[6], A[7], A[0], A[1], R(i+6), K[i+6] );
 926              		.loc 1 228 0 discriminator 3
 927 065c 4FEAFC27 		ror	r7, ip, #11
 928              	.LVL99:
 929 0660 87EABC17 		eor	r7, r7, ip, ror #6
 930 0664 87EA7C67 		eor	r7, r7, ip, ror #25
 931 0668 7744     		add	r7, r7, lr
 932 066a 039D     		ldr	r5, [sp, #12]
 933              	.LVL100:
 934 066c 8AEA050E 		eor	lr, r10, r5
 935 0670 0CEA0E0E 		and	lr, ip, lr
 936 0674 8AEA0E0E 		eor	lr, r10, lr
 937 0678 7744     		add	r7, r7, lr
 938 067a 06F10609 		add	r9, r6, #6
 939 067e 5BF82950 		ldr	r5, [fp, r9, lsl #2]
 940 0682 2F44     		add	r7, r7, r5
 941 0684 029D     		ldr	r5, [sp, #8]
 942 0686 53F82550 		ldr	r5, [r3, r5, lsl #2]
 943 068a 4FEAF54E 		ror	lr, r5, #19
 944 068e 8EEA754E 		eor	lr, lr, r5, ror #17
 945 0692 8EEA952E 		eor	lr, lr, r5, lsr #10
 946 0696 059A     		ldr	r2, [sp, #20]
 947 0698 53F82250 		ldr	r5, [r3, r2, lsl #2]
 948 069c AE44     		add	lr, lr, r5
 949 069e A6F10902 		sub	r2, r6, #9
 950 06a2 0292     		str	r2, [sp, #8]
 951 06a4 53F82250 		ldr	r5, [r3, r2, lsl #2]
 952 06a8 2946     		mov	r1, r5
 953 06aa 4FEAB545 		ror	r5, r5, #18
 954 06ae 85EAF115 		eor	r5, r5, r1, ror #7
 955 06b2 85EAD105 		eor	r5, r5, r1, lsr #3
 956 06b6 7544     		add	r5, r5, lr
 957 06b8 53F828E0 		ldr	lr, [r3, r8, lsl #2]
 958 06bc 7544     		add	r5, r5, lr
 959 06be 43F82950 		str	r5, [r3, r9, lsl #2]
 960 06c2 2F44     		add	r7, r7, r5
 961              	.LVL101:
 962 06c4 4FEA7435 		ror	r5, r4, #13
 963 06c8 85EAB405 		eor	r5, r5, r4, ror #2
 964 06cc 85EAB455 		eor	r5, r5, r4, ror #22
 965 06d0 00EA0409 		and	r9, r0, r4
ARM GAS  c:\Users\lenovo\AppData\Local\Temp\ccAl7Tms.s 			page 22


 966 06d4 40EA040E 		orr	lr, r0, r4
 967 06d8 019A     		ldr	r2, [sp, #4]
 968 06da 02EA0E0E 		and	lr, r2, lr
 969 06de 49EA0E09 		orr	r9, r9, lr
 970 06e2 A944     		add	r9, r9, r5
 971              	.LVL102:
 972 06e4 0099     		ldr	r1, [sp]
 973 06e6 CD19     		adds	r5, r1, r7
 974 06e8 0D95     		str	r5, [sp, #52]
 975 06ea 4F44     		add	r7, r7, r9
 976              	.LVL103:
 977 06ec 0997     		str	r7, [sp, #36]
 229:C:/Users/lenovo/Desktop/liteos/Project2/BearPi_LiteOS/components/security/mbedtls/mbedtls-2.6.0/library\sha256.c ****         P( A[1], A[2], A[3], A[4], A[5], A[6], A[7], A[0], R(i+7), K[i+7] );
 978              		.loc 1 229 0 discriminator 3
 979 06ee 4FEAF52E 		ror	lr, r5, #11
 980 06f2 8EEAB51E 		eor	lr, lr, r5, ror #6
 981 06f6 8EEA756E 		eor	lr, lr, r5, ror #25
 982 06fa D644     		add	lr, lr, r10
 983 06fc 039A     		ldr	r2, [sp, #12]
 984 06fe 82EA0C0C 		eor	ip, r2, ip
 985 0702 05EA0C0C 		and	ip, r5, ip
 986 0706 82EA0C02 		eor	r2, r2, ip
 987 070a 7244     		add	r2, r2, lr
 988 070c 06F10708 		add	r8, r6, #7
 989 0710 5BF82850 		ldr	r5, [fp, r8, lsl #2]
 990 0714 02EB050E 		add	lr, r2, r5
 991 0718 0499     		ldr	r1, [sp, #16]
 992 071a 53F82150 		ldr	r5, [r3, r1, lsl #2]
 993 071e 4FEAF542 		ror	r2, r5, #19
 994 0722 82EA7542 		eor	r2, r2, r5, ror #17
 995 0726 82EA9522 		eor	r2, r2, r5, lsr #10
 996 072a 53F82610 		ldr	r1, [r3, r6, lsl #2]
 997 072e 0A44     		add	r2, r2, r1
 998 0730 A6F10805 		sub	r5, r6, #8
 999 0734 53F825C0 		ldr	ip, [r3, r5, lsl #2]
 1000 0738 4FEABC45 		ror	r5, ip, #18
 1001 073c 85EAFC15 		eor	r5, r5, ip, ror #7
 1002 0740 85EADC05 		eor	r5, r5, ip, lsr #3
 1003 0744 2A44     		add	r2, r2, r5
 1004 0746 029D     		ldr	r5, [sp, #8]
 1005 0748 53F82550 		ldr	r5, [r3, r5, lsl #2]
 1006 074c 2A44     		add	r2, r2, r5
 1007 074e 43F82820 		str	r2, [r3, r8, lsl #2]
 1008 0752 7244     		add	r2, r2, lr
 1009              	.LVL104:
 1010 0754 4FEA7733 		ror	r3, r7, #13
 1011 0758 83EAB703 		eor	r3, r3, r7, ror #2
 1012 075c 83EAB753 		eor	r3, r3, r7, ror #22
 1013 0760 04EA0705 		and	r5, r4, r7
 1014 0764 2743     		orrs	r7, r7, r4
 1015 0766 3840     		ands	r0, r0, r7
 1016 0768 2843     		orrs	r0, r0, r5
 1017 076a 1844     		add	r0, r0, r3
 1018              	.LVL105:
 1019 076c 0199     		ldr	r1, [sp, #4]
 1020 076e 1144     		add	r1, r1, r2
 1021 0770 0C91     		str	r1, [sp, #48]
ARM GAS  c:\Users\lenovo\AppData\Local\Temp\ccAl7Tms.s 			page 23


 1022 0772 1044     		add	r0, r0, r2
 1023              	.LVL106:
 1024 0774 0890     		str	r0, [sp, #32]
 220:C:/Users/lenovo/Desktop/liteos/Project2/BearPi_LiteOS/components/security/mbedtls/mbedtls-2.6.0/library\sha256.c ****     {
 1025              		.loc 1 220 0 discriminator 3
 1026 0776 0836     		adds	r6, r6, #8
 1027              	.LVL107:
 1028              	.L27:
 220:C:/Users/lenovo/Desktop/liteos/Project2/BearPi_LiteOS/components/security/mbedtls/mbedtls-2.6.0/library\sha256.c ****     {
 1029              		.loc 1 220 0 is_stmt 0 discriminator 1
 1030 0778 3F2E     		cmp	r6, #63
 1031 077a 7FF6B1AD 		bls	.L28
 230:C:/Users/lenovo/Desktop/liteos/Project2/BearPi_LiteOS/components/security/mbedtls/mbedtls-2.6.0/library\sha256.c ****     }
 231:C:/Users/lenovo/Desktop/liteos/Project2/BearPi_LiteOS/components/security/mbedtls/mbedtls-2.6.0/library\sha256.c **** #endif /* MBEDTLS_SHA256_SMALLER */
 232:C:/Users/lenovo/Desktop/liteos/Project2/BearPi_LiteOS/components/security/mbedtls/mbedtls-2.6.0/library\sha256.c **** 
 233:C:/Users/lenovo/Desktop/liteos/Project2/BearPi_LiteOS/components/security/mbedtls/mbedtls-2.6.0/library\sha256.c ****     for( i = 0; i < 8; i++ )
 1032              		.loc 1 233 0 is_stmt 1
 1033 077e 0021     		movs	r1, #0
 1034 0780 0798     		ldr	r0, [sp, #28]
 1035 0782 09E0     		b	.L29
 1036              	.LVL108:
 1037              	.L30:
 234:C:/Users/lenovo/Desktop/liteos/Project2/BearPi_LiteOS/components/security/mbedtls/mbedtls-2.6.0/library\sha256.c ****         ctx->state[i] += A[i];
 1038              		.loc 1 234 0 discriminator 3
 1039 0784 08AB     		add	r3, sp, #32
 1040 0786 53F82140 		ldr	r4, [r3, r1, lsl #2]
 1041 078a 8A1C     		adds	r2, r1, #2
 1042 078c 50F82230 		ldr	r3, [r0, r2, lsl #2]
 1043 0790 2344     		add	r3, r3, r4
 1044 0792 40F82230 		str	r3, [r0, r2, lsl #2]
 233:C:/Users/lenovo/Desktop/liteos/Project2/BearPi_LiteOS/components/security/mbedtls/mbedtls-2.6.0/library\sha256.c ****         ctx->state[i] += A[i];
 1045              		.loc 1 233 0 discriminator 3
 1046 0796 0131     		adds	r1, r1, #1
 1047              	.LVL109:
 1048              	.L29:
 233:C:/Users/lenovo/Desktop/liteos/Project2/BearPi_LiteOS/components/security/mbedtls/mbedtls-2.6.0/library\sha256.c ****         ctx->state[i] += A[i];
 1049              		.loc 1 233 0 is_stmt 0 discriminator 1
 1050 0798 0729     		cmp	r1, #7
 1051 079a F3D9     		bls	.L30
 235:C:/Users/lenovo/Desktop/liteos/Project2/BearPi_LiteOS/components/security/mbedtls/mbedtls-2.6.0/library\sha256.c **** }
 1052              		.loc 1 235 0 is_stmt 1
 1053 079c 51B0     		add	sp, sp, #324
 1054              	.LCFI6:
 1055              		.cfi_def_cfa_offset 36
 1056              		@ sp needed
 1057 079e BDE8F08F 		pop	{r4, r5, r6, r7, r8, r9, r10, fp, pc}
 1058              	.LVL110:
 1059              	.L33:
 1060 07a2 00BF     		.align	2
 1061              	.L32:
 1062 07a4 00000000 		.word	.LANCHOR0
 1063              		.cfi_endproc
 1064              	.LFE5:
 1066              		.section	.text.mbedtls_sha256_update,"ax",%progbits
 1067              		.align	1
 1068              		.global	mbedtls_sha256_update
 1069              		.syntax unified
ARM GAS  c:\Users\lenovo\AppData\Local\Temp\ccAl7Tms.s 			page 24


 1070              		.thumb
 1071              		.thumb_func
 1072              		.fpu fpv4-sp-d16
 1074              	mbedtls_sha256_update:
 1075              	.LFB6:
 236:C:/Users/lenovo/Desktop/liteos/Project2/BearPi_LiteOS/components/security/mbedtls/mbedtls-2.6.0/library\sha256.c **** #endif /* !MBEDTLS_SHA256_PROCESS_ALT */
 237:C:/Users/lenovo/Desktop/liteos/Project2/BearPi_LiteOS/components/security/mbedtls/mbedtls-2.6.0/library\sha256.c **** 
 238:C:/Users/lenovo/Desktop/liteos/Project2/BearPi_LiteOS/components/security/mbedtls/mbedtls-2.6.0/library\sha256.c **** /*
 239:C:/Users/lenovo/Desktop/liteos/Project2/BearPi_LiteOS/components/security/mbedtls/mbedtls-2.6.0/library\sha256.c ****  * SHA-256 process buffer
 240:C:/Users/lenovo/Desktop/liteos/Project2/BearPi_LiteOS/components/security/mbedtls/mbedtls-2.6.0/library\sha256.c ****  */
 241:C:/Users/lenovo/Desktop/liteos/Project2/BearPi_LiteOS/components/security/mbedtls/mbedtls-2.6.0/library\sha256.c **** void mbedtls_sha256_update( mbedtls_sha256_context *ctx, const unsigned char *input,
 242:C:/Users/lenovo/Desktop/liteos/Project2/BearPi_LiteOS/components/security/mbedtls/mbedtls-2.6.0/library\sha256.c ****                     size_t ilen )
 243:C:/Users/lenovo/Desktop/liteos/Project2/BearPi_LiteOS/components/security/mbedtls/mbedtls-2.6.0/library\sha256.c **** {
 1076              		.loc 1 243 0
 1077              		.cfi_startproc
 1078              		@ args = 0, pretend = 0, frame = 0
 1079              		@ frame_needed = 0, uses_anonymous_args = 0
 1080              	.LVL111:
 244:C:/Users/lenovo/Desktop/liteos/Project2/BearPi_LiteOS/components/security/mbedtls/mbedtls-2.6.0/library\sha256.c ****     size_t fill;
 245:C:/Users/lenovo/Desktop/liteos/Project2/BearPi_LiteOS/components/security/mbedtls/mbedtls-2.6.0/library\sha256.c ****     uint32_t left;
 246:C:/Users/lenovo/Desktop/liteos/Project2/BearPi_LiteOS/components/security/mbedtls/mbedtls-2.6.0/library\sha256.c **** 
 247:C:/Users/lenovo/Desktop/liteos/Project2/BearPi_LiteOS/components/security/mbedtls/mbedtls-2.6.0/library\sha256.c ****     if( ilen == 0 )
 1081              		.loc 1 247 0
 1082 0000 BAB3     		cbz	r2, .L41
 243:C:/Users/lenovo/Desktop/liteos/Project2/BearPi_LiteOS/components/security/mbedtls/mbedtls-2.6.0/library\sha256.c ****     size_t fill;
 1083              		.loc 1 243 0
 1084 0002 2DE9F843 		push	{r3, r4, r5, r6, r7, r8, r9, lr}
 1085              	.LCFI7:
 1086              		.cfi_def_cfa_offset 32
 1087              		.cfi_offset 3, -32
 1088              		.cfi_offset 4, -28
 1089              		.cfi_offset 5, -24
 1090              		.cfi_offset 6, -20
 1091              		.cfi_offset 7, -16
 1092              		.cfi_offset 8, -12
 1093              		.cfi_offset 9, -8
 1094              		.cfi_offset 14, -4
 1095 0006 0646     		mov	r6, r0
 1096 0008 0D46     		mov	r5, r1
 1097 000a 1446     		mov	r4, r2
 248:C:/Users/lenovo/Desktop/liteos/Project2/BearPi_LiteOS/components/security/mbedtls/mbedtls-2.6.0/library\sha256.c ****         return;
 249:C:/Users/lenovo/Desktop/liteos/Project2/BearPi_LiteOS/components/security/mbedtls/mbedtls-2.6.0/library\sha256.c **** 
 250:C:/Users/lenovo/Desktop/liteos/Project2/BearPi_LiteOS/components/security/mbedtls/mbedtls-2.6.0/library\sha256.c ****     left = ctx->total[0] & 0x3F;
 1098              		.loc 1 250 0
 1099 000c 0368     		ldr	r3, [r0]
 1100 000e 03F03F07 		and	r7, r3, #63
 1101              	.LVL112:
 251:C:/Users/lenovo/Desktop/liteos/Project2/BearPi_LiteOS/components/security/mbedtls/mbedtls-2.6.0/library\sha256.c ****     fill = 64 - left;
 1102              		.loc 1 251 0
 1103 0012 C7F14008 		rsb	r8, r7, #64
 1104              	.LVL113:
 252:C:/Users/lenovo/Desktop/liteos/Project2/BearPi_LiteOS/components/security/mbedtls/mbedtls-2.6.0/library\sha256.c **** 
 253:C:/Users/lenovo/Desktop/liteos/Project2/BearPi_LiteOS/components/security/mbedtls/mbedtls-2.6.0/library\sha256.c ****     ctx->total[0] += (uint32_t) ilen;
 1105              		.loc 1 253 0
 1106 0016 1344     		add	r3, r3, r2
 1107 0018 0360     		str	r3, [r0]
 254:C:/Users/lenovo/Desktop/liteos/Project2/BearPi_LiteOS/components/security/mbedtls/mbedtls-2.6.0/library\sha256.c ****     ctx->total[0] &= 0xFFFFFFFF;
ARM GAS  c:\Users\lenovo\AppData\Local\Temp\ccAl7Tms.s 			page 25


 255:C:/Users/lenovo/Desktop/liteos/Project2/BearPi_LiteOS/components/security/mbedtls/mbedtls-2.6.0/library\sha256.c **** 
 256:C:/Users/lenovo/Desktop/liteos/Project2/BearPi_LiteOS/components/security/mbedtls/mbedtls-2.6.0/library\sha256.c ****     if( ctx->total[0] < (uint32_t) ilen )
 1108              		.loc 1 256 0
 1109 001a 9342     		cmp	r3, r2
 1110 001c 02D2     		bcs	.L36
 257:C:/Users/lenovo/Desktop/liteos/Project2/BearPi_LiteOS/components/security/mbedtls/mbedtls-2.6.0/library\sha256.c ****         ctx->total[1]++;
 1111              		.loc 1 257 0
 1112 001e 4368     		ldr	r3, [r0, #4]
 1113 0020 0133     		adds	r3, r3, #1
 1114 0022 4360     		str	r3, [r0, #4]
 1115              	.L36:
 258:C:/Users/lenovo/Desktop/liteos/Project2/BearPi_LiteOS/components/security/mbedtls/mbedtls-2.6.0/library\sha256.c **** 
 259:C:/Users/lenovo/Desktop/liteos/Project2/BearPi_LiteOS/components/security/mbedtls/mbedtls-2.6.0/library\sha256.c ****     if( left && ilen >= fill )
 1116              		.loc 1 259 0
 1117 0024 C7B1     		cbz	r7, .L38
 1118              		.loc 1 259 0 is_stmt 0 discriminator 1
 1119 0026 4445     		cmp	r4, r8
 1120 0028 16D3     		bcc	.L38
 260:C:/Users/lenovo/Desktop/liteos/Project2/BearPi_LiteOS/components/security/mbedtls/mbedtls-2.6.0/library\sha256.c ****     {
 261:C:/Users/lenovo/Desktop/liteos/Project2/BearPi_LiteOS/components/security/mbedtls/mbedtls-2.6.0/library\sha256.c ****         memcpy( (void *) (ctx->buffer + left), input, fill );
 1121              		.loc 1 261 0 is_stmt 1
 1122 002a 06F12809 		add	r9, r6, #40
 1123 002e 4246     		mov	r2, r8
 1124              	.LVL114:
 1125 0030 2946     		mov	r1, r5
 1126              	.LVL115:
 1127 0032 09EB0700 		add	r0, r9, r7
 1128              	.LVL116:
 1129 0036 FFF7FEFF 		bl	memcpy
 1130              	.LVL117:
 262:C:/Users/lenovo/Desktop/liteos/Project2/BearPi_LiteOS/components/security/mbedtls/mbedtls-2.6.0/library\sha256.c ****         mbedtls_sha256_process( ctx, ctx->buffer );
 1131              		.loc 1 262 0
 1132 003a 4946     		mov	r1, r9
 1133 003c 3046     		mov	r0, r6
 1134 003e FFF7FEFF 		bl	mbedtls_sha256_process
 1135              	.LVL118:
 263:C:/Users/lenovo/Desktop/liteos/Project2/BearPi_LiteOS/components/security/mbedtls/mbedtls-2.6.0/library\sha256.c ****         input += fill;
 1136              		.loc 1 263 0
 1137 0042 4544     		add	r5, r5, r8
 1138              	.LVL119:
 264:C:/Users/lenovo/Desktop/liteos/Project2/BearPi_LiteOS/components/security/mbedtls/mbedtls-2.6.0/library\sha256.c ****         ilen  -= fill;
 1139              		.loc 1 264 0
 1140 0044 A4EB0804 		sub	r4, r4, r8
 1141              	.LVL120:
 265:C:/Users/lenovo/Desktop/liteos/Project2/BearPi_LiteOS/components/security/mbedtls/mbedtls-2.6.0/library\sha256.c ****         left = 0;
 1142              		.loc 1 265 0
 1143 0048 0027     		movs	r7, #0
 1144 004a 05E0     		b	.L38
 1145              	.LVL121:
 1146              	.L39:
 266:C:/Users/lenovo/Desktop/liteos/Project2/BearPi_LiteOS/components/security/mbedtls/mbedtls-2.6.0/library\sha256.c ****     }
 267:C:/Users/lenovo/Desktop/liteos/Project2/BearPi_LiteOS/components/security/mbedtls/mbedtls-2.6.0/library\sha256.c **** 
 268:C:/Users/lenovo/Desktop/liteos/Project2/BearPi_LiteOS/components/security/mbedtls/mbedtls-2.6.0/library\sha256.c ****     while( ilen >= 64 )
 269:C:/Users/lenovo/Desktop/liteos/Project2/BearPi_LiteOS/components/security/mbedtls/mbedtls-2.6.0/library\sha256.c ****     {
 270:C:/Users/lenovo/Desktop/liteos/Project2/BearPi_LiteOS/components/security/mbedtls/mbedtls-2.6.0/library\sha256.c ****         mbedtls_sha256_process( ctx, input );
 1147              		.loc 1 270 0
 1148 004c 2946     		mov	r1, r5
ARM GAS  c:\Users\lenovo\AppData\Local\Temp\ccAl7Tms.s 			page 26


 1149 004e 3046     		mov	r0, r6
 1150 0050 FFF7FEFF 		bl	mbedtls_sha256_process
 1151              	.LVL122:
 271:C:/Users/lenovo/Desktop/liteos/Project2/BearPi_LiteOS/components/security/mbedtls/mbedtls-2.6.0/library\sha256.c ****         input += 64;
 1152              		.loc 1 271 0
 1153 0054 4035     		adds	r5, r5, #64
 1154              	.LVL123:
 272:C:/Users/lenovo/Desktop/liteos/Project2/BearPi_LiteOS/components/security/mbedtls/mbedtls-2.6.0/library\sha256.c ****         ilen  -= 64;
 1155              		.loc 1 272 0
 1156 0056 403C     		subs	r4, r4, #64
 1157              	.LVL124:
 1158              	.L38:
 268:C:/Users/lenovo/Desktop/liteos/Project2/BearPi_LiteOS/components/security/mbedtls/mbedtls-2.6.0/library\sha256.c ****     {
 1159              		.loc 1 268 0
 1160 0058 3F2C     		cmp	r4, #63
 1161 005a F7D8     		bhi	.L39
 273:C:/Users/lenovo/Desktop/liteos/Project2/BearPi_LiteOS/components/security/mbedtls/mbedtls-2.6.0/library\sha256.c ****     }
 274:C:/Users/lenovo/Desktop/liteos/Project2/BearPi_LiteOS/components/security/mbedtls/mbedtls-2.6.0/library\sha256.c **** 
 275:C:/Users/lenovo/Desktop/liteos/Project2/BearPi_LiteOS/components/security/mbedtls/mbedtls-2.6.0/library\sha256.c ****     if( ilen > 0 )
 1162              		.loc 1 275 0
 1163 005c 0CB9     		cbnz	r4, .L44
 1164              	.L34:
 276:C:/Users/lenovo/Desktop/liteos/Project2/BearPi_LiteOS/components/security/mbedtls/mbedtls-2.6.0/library\sha256.c ****         memcpy( (void *) (ctx->buffer + left), input, ilen );
 277:C:/Users/lenovo/Desktop/liteos/Project2/BearPi_LiteOS/components/security/mbedtls/mbedtls-2.6.0/library\sha256.c **** }
 1165              		.loc 1 277 0
 1166 005e BDE8F883 		pop	{r3, r4, r5, r6, r7, r8, r9, pc}
 1167              	.LVL125:
 1168              	.L44:
 276:C:/Users/lenovo/Desktop/liteos/Project2/BearPi_LiteOS/components/security/mbedtls/mbedtls-2.6.0/library\sha256.c ****         memcpy( (void *) (ctx->buffer + left), input, ilen );
 1169              		.loc 1 276 0
 1170 0062 06F12800 		add	r0, r6, #40
 1171 0066 2246     		mov	r2, r4
 1172 0068 2946     		mov	r1, r5
 1173 006a 3844     		add	r0, r0, r7
 1174 006c FFF7FEFF 		bl	memcpy
 1175              	.LVL126:
 1176 0070 F5E7     		b	.L34
 1177              	.LVL127:
 1178              	.L41:
 1179              	.LCFI8:
 1180              		.cfi_def_cfa_offset 0
 1181              		.cfi_restore 3
 1182              		.cfi_restore 4
 1183              		.cfi_restore 5
 1184              		.cfi_restore 6
 1185              		.cfi_restore 7
 1186              		.cfi_restore 8
 1187              		.cfi_restore 9
 1188              		.cfi_restore 14
 1189 0072 7047     		bx	lr
 1190              		.cfi_endproc
 1191              	.LFE6:
 1193              		.section	.text.mbedtls_sha256_finish,"ax",%progbits
 1194              		.align	1
 1195              		.global	mbedtls_sha256_finish
 1196              		.syntax unified
 1197              		.thumb
ARM GAS  c:\Users\lenovo\AppData\Local\Temp\ccAl7Tms.s 			page 27


 1198              		.thumb_func
 1199              		.fpu fpv4-sp-d16
 1201              	mbedtls_sha256_finish:
 1202              	.LFB7:
 278:C:/Users/lenovo/Desktop/liteos/Project2/BearPi_LiteOS/components/security/mbedtls/mbedtls-2.6.0/library\sha256.c **** 
 279:C:/Users/lenovo/Desktop/liteos/Project2/BearPi_LiteOS/components/security/mbedtls/mbedtls-2.6.0/library\sha256.c **** static const unsigned char sha256_padding[64] =
 280:C:/Users/lenovo/Desktop/liteos/Project2/BearPi_LiteOS/components/security/mbedtls/mbedtls-2.6.0/library\sha256.c **** {
 281:C:/Users/lenovo/Desktop/liteos/Project2/BearPi_LiteOS/components/security/mbedtls/mbedtls-2.6.0/library\sha256.c ****  0x80, 0, 0, 0, 0, 0, 0, 0, 0, 0, 0, 0, 0, 0, 0, 0,
 282:C:/Users/lenovo/Desktop/liteos/Project2/BearPi_LiteOS/components/security/mbedtls/mbedtls-2.6.0/library\sha256.c ****     0, 0, 0, 0, 0, 0, 0, 0, 0, 0, 0, 0, 0, 0, 0, 0,
 283:C:/Users/lenovo/Desktop/liteos/Project2/BearPi_LiteOS/components/security/mbedtls/mbedtls-2.6.0/library\sha256.c ****     0, 0, 0, 0, 0, 0, 0, 0, 0, 0, 0, 0, 0, 0, 0, 0,
 284:C:/Users/lenovo/Desktop/liteos/Project2/BearPi_LiteOS/components/security/mbedtls/mbedtls-2.6.0/library\sha256.c ****     0, 0, 0, 0, 0, 0, 0, 0, 0, 0, 0, 0, 0, 0, 0, 0
 285:C:/Users/lenovo/Desktop/liteos/Project2/BearPi_LiteOS/components/security/mbedtls/mbedtls-2.6.0/library\sha256.c **** };
 286:C:/Users/lenovo/Desktop/liteos/Project2/BearPi_LiteOS/components/security/mbedtls/mbedtls-2.6.0/library\sha256.c **** 
 287:C:/Users/lenovo/Desktop/liteos/Project2/BearPi_LiteOS/components/security/mbedtls/mbedtls-2.6.0/library\sha256.c **** /*
 288:C:/Users/lenovo/Desktop/liteos/Project2/BearPi_LiteOS/components/security/mbedtls/mbedtls-2.6.0/library\sha256.c ****  * SHA-256 final digest
 289:C:/Users/lenovo/Desktop/liteos/Project2/BearPi_LiteOS/components/security/mbedtls/mbedtls-2.6.0/library\sha256.c ****  */
 290:C:/Users/lenovo/Desktop/liteos/Project2/BearPi_LiteOS/components/security/mbedtls/mbedtls-2.6.0/library\sha256.c **** void mbedtls_sha256_finish( mbedtls_sha256_context *ctx, unsigned char output[32] )
 291:C:/Users/lenovo/Desktop/liteos/Project2/BearPi_LiteOS/components/security/mbedtls/mbedtls-2.6.0/library\sha256.c **** {
 1203              		.loc 1 291 0
 1204              		.cfi_startproc
 1205              		@ args = 0, pretend = 0, frame = 8
 1206              		@ frame_needed = 0, uses_anonymous_args = 0
 1207              	.LVL128:
 1208 0000 30B5     		push	{r4, r5, lr}
 1209              	.LCFI9:
 1210              		.cfi_def_cfa_offset 12
 1211              		.cfi_offset 4, -12
 1212              		.cfi_offset 5, -8
 1213              		.cfi_offset 14, -4
 1214 0002 83B0     		sub	sp, sp, #12
 1215              	.LCFI10:
 1216              		.cfi_def_cfa_offset 24
 1217 0004 0446     		mov	r4, r0
 1218 0006 0D46     		mov	r5, r1
 292:C:/Users/lenovo/Desktop/liteos/Project2/BearPi_LiteOS/components/security/mbedtls/mbedtls-2.6.0/library\sha256.c ****     uint32_t last, padn;
 293:C:/Users/lenovo/Desktop/liteos/Project2/BearPi_LiteOS/components/security/mbedtls/mbedtls-2.6.0/library\sha256.c ****     uint32_t high, low;
 294:C:/Users/lenovo/Desktop/liteos/Project2/BearPi_LiteOS/components/security/mbedtls/mbedtls-2.6.0/library\sha256.c ****     unsigned char msglen[8];
 295:C:/Users/lenovo/Desktop/liteos/Project2/BearPi_LiteOS/components/security/mbedtls/mbedtls-2.6.0/library\sha256.c **** 
 296:C:/Users/lenovo/Desktop/liteos/Project2/BearPi_LiteOS/components/security/mbedtls/mbedtls-2.6.0/library\sha256.c ****     high = ( ctx->total[0] >> 29 )
 1219              		.loc 1 296 0
 1220 0008 0268     		ldr	r2, [r0]
 297:C:/Users/lenovo/Desktop/liteos/Project2/BearPi_LiteOS/components/security/mbedtls/mbedtls-2.6.0/library\sha256.c ****          | ( ctx->total[1] <<  3 );
 1221              		.loc 1 297 0
 1222 000a 4368     		ldr	r3, [r0, #4]
 1223 000c DB00     		lsls	r3, r3, #3
 296:C:/Users/lenovo/Desktop/liteos/Project2/BearPi_LiteOS/components/security/mbedtls/mbedtls-2.6.0/library\sha256.c ****          | ( ctx->total[1] <<  3 );
 1224              		.loc 1 296 0
 1225 000e 43EA5273 		orr	r3, r3, r2, lsr #29
 1226              	.LVL129:
 298:C:/Users/lenovo/Desktop/liteos/Project2/BearPi_LiteOS/components/security/mbedtls/mbedtls-2.6.0/library\sha256.c ****     low  = ( ctx->total[0] <<  3 );
 1227              		.loc 1 298 0
 1228 0012 D100     		lsls	r1, r2, #3
 1229              	.LVL130:
 299:C:/Users/lenovo/Desktop/liteos/Project2/BearPi_LiteOS/components/security/mbedtls/mbedtls-2.6.0/library\sha256.c **** 
 300:C:/Users/lenovo/Desktop/liteos/Project2/BearPi_LiteOS/components/security/mbedtls/mbedtls-2.6.0/library\sha256.c ****     PUT_UINT32_BE( high, msglen, 0 );
 1230              		.loc 1 300 0
 1231 0014 180E     		lsrs	r0, r3, #24
ARM GAS  c:\Users\lenovo\AppData\Local\Temp\ccAl7Tms.s 			page 28


 1232              	.LVL131:
 1233 0016 8DF80000 		strb	r0, [sp]
 1234 001a C3F30740 		ubfx	r0, r3, #16, #8
 1235 001e 8DF80100 		strb	r0, [sp, #1]
 1236 0022 C3F30720 		ubfx	r0, r3, #8, #8
 1237 0026 8DF80200 		strb	r0, [sp, #2]
 1238 002a 8DF80330 		strb	r3, [sp, #3]
 301:C:/Users/lenovo/Desktop/liteos/Project2/BearPi_LiteOS/components/security/mbedtls/mbedtls-2.6.0/library\sha256.c ****     PUT_UINT32_BE( low,  msglen, 4 );
 1239              		.loc 1 301 0
 1240 002e 0B0E     		lsrs	r3, r1, #24
 1241              	.LVL132:
 1242 0030 8DF80430 		strb	r3, [sp, #4]
 1243 0034 C1F30743 		ubfx	r3, r1, #16, #8
 1244 0038 8DF80530 		strb	r3, [sp, #5]
 1245 003c C1F30723 		ubfx	r3, r1, #8, #8
 1246 0040 8DF80630 		strb	r3, [sp, #6]
 1247 0044 8DF80710 		strb	r1, [sp, #7]
 302:C:/Users/lenovo/Desktop/liteos/Project2/BearPi_LiteOS/components/security/mbedtls/mbedtls-2.6.0/library\sha256.c **** 
 303:C:/Users/lenovo/Desktop/liteos/Project2/BearPi_LiteOS/components/security/mbedtls/mbedtls-2.6.0/library\sha256.c ****     last = ctx->total[0] & 0x3F;
 1248              		.loc 1 303 0
 1249 0048 02F03F02 		and	r2, r2, #63
 1250              	.LVL133:
 304:C:/Users/lenovo/Desktop/liteos/Project2/BearPi_LiteOS/components/security/mbedtls/mbedtls-2.6.0/library\sha256.c ****     padn = ( last < 56 ) ? ( 56 - last ) : ( 120 - last );
 1251              		.loc 1 304 0
 1252 004c 372A     		cmp	r2, #55
 1253 004e 56D8     		bhi	.L46
 1254              		.loc 1 304 0 is_stmt 0 discriminator 1
 1255 0050 C2F13802 		rsb	r2, r2, #56
 1256              	.LVL134:
 1257              	.L47:
 305:C:/Users/lenovo/Desktop/liteos/Project2/BearPi_LiteOS/components/security/mbedtls/mbedtls-2.6.0/library\sha256.c **** 
 306:C:/Users/lenovo/Desktop/liteos/Project2/BearPi_LiteOS/components/security/mbedtls/mbedtls-2.6.0/library\sha256.c ****     mbedtls_sha256_update( ctx, sha256_padding, padn );
 1258              		.loc 1 306 0 is_stmt 1 discriminator 4
 1259 0054 2B49     		ldr	r1, .L50
 1260              	.LVL135:
 1261 0056 2046     		mov	r0, r4
 1262 0058 FFF7FEFF 		bl	mbedtls_sha256_update
 1263              	.LVL136:
 307:C:/Users/lenovo/Desktop/liteos/Project2/BearPi_LiteOS/components/security/mbedtls/mbedtls-2.6.0/library\sha256.c ****     mbedtls_sha256_update( ctx, msglen, 8 );
 1264              		.loc 1 307 0 discriminator 4
 1265 005c 0822     		movs	r2, #8
 1266 005e 6946     		mov	r1, sp
 1267 0060 2046     		mov	r0, r4
 1268 0062 FFF7FEFF 		bl	mbedtls_sha256_update
 1269              	.LVL137:
 308:C:/Users/lenovo/Desktop/liteos/Project2/BearPi_LiteOS/components/security/mbedtls/mbedtls-2.6.0/library\sha256.c **** 
 309:C:/Users/lenovo/Desktop/liteos/Project2/BearPi_LiteOS/components/security/mbedtls/mbedtls-2.6.0/library\sha256.c ****     PUT_UINT32_BE( ctx->state[0], output,  0 );
 1270              		.loc 1 309 0 discriminator 4
 1271 0066 E37A     		ldrb	r3, [r4, #11]	@ zero_extendqisi2
 1272 0068 2B70     		strb	r3, [r5]
 1273 006a A37A     		ldrb	r3, [r4, #10]	@ zero_extendqisi2
 1274 006c 6B70     		strb	r3, [r5, #1]
 1275 006e 637A     		ldrb	r3, [r4, #9]	@ zero_extendqisi2
 1276 0070 AB70     		strb	r3, [r5, #2]
 1277 0072 237A     		ldrb	r3, [r4, #8]	@ zero_extendqisi2
 1278 0074 EB70     		strb	r3, [r5, #3]
 310:C:/Users/lenovo/Desktop/liteos/Project2/BearPi_LiteOS/components/security/mbedtls/mbedtls-2.6.0/library\sha256.c ****     PUT_UINT32_BE( ctx->state[1], output,  4 );
ARM GAS  c:\Users\lenovo\AppData\Local\Temp\ccAl7Tms.s 			page 29


 1279              		.loc 1 310 0 discriminator 4
 1280 0076 E37B     		ldrb	r3, [r4, #15]	@ zero_extendqisi2
 1281 0078 2B71     		strb	r3, [r5, #4]
 1282 007a A37B     		ldrb	r3, [r4, #14]	@ zero_extendqisi2
 1283 007c 6B71     		strb	r3, [r5, #5]
 1284 007e 637B     		ldrb	r3, [r4, #13]	@ zero_extendqisi2
 1285 0080 AB71     		strb	r3, [r5, #6]
 1286 0082 237B     		ldrb	r3, [r4, #12]	@ zero_extendqisi2
 1287 0084 EB71     		strb	r3, [r5, #7]
 311:C:/Users/lenovo/Desktop/liteos/Project2/BearPi_LiteOS/components/security/mbedtls/mbedtls-2.6.0/library\sha256.c ****     PUT_UINT32_BE( ctx->state[2], output,  8 );
 1288              		.loc 1 311 0 discriminator 4
 1289 0086 E37C     		ldrb	r3, [r4, #19]	@ zero_extendqisi2
 1290 0088 2B72     		strb	r3, [r5, #8]
 1291 008a A37C     		ldrb	r3, [r4, #18]	@ zero_extendqisi2
 1292 008c 6B72     		strb	r3, [r5, #9]
 1293 008e 637C     		ldrb	r3, [r4, #17]	@ zero_extendqisi2
 1294 0090 AB72     		strb	r3, [r5, #10]
 1295 0092 237C     		ldrb	r3, [r4, #16]	@ zero_extendqisi2
 1296 0094 EB72     		strb	r3, [r5, #11]
 312:C:/Users/lenovo/Desktop/liteos/Project2/BearPi_LiteOS/components/security/mbedtls/mbedtls-2.6.0/library\sha256.c ****     PUT_UINT32_BE( ctx->state[3], output, 12 );
 1297              		.loc 1 312 0 discriminator 4
 1298 0096 E37D     		ldrb	r3, [r4, #23]	@ zero_extendqisi2
 1299 0098 2B73     		strb	r3, [r5, #12]
 1300 009a A37D     		ldrb	r3, [r4, #22]	@ zero_extendqisi2
 1301 009c 6B73     		strb	r3, [r5, #13]
 1302 009e 637D     		ldrb	r3, [r4, #21]	@ zero_extendqisi2
 1303 00a0 AB73     		strb	r3, [r5, #14]
 1304 00a2 237D     		ldrb	r3, [r4, #20]	@ zero_extendqisi2
 1305 00a4 EB73     		strb	r3, [r5, #15]
 313:C:/Users/lenovo/Desktop/liteos/Project2/BearPi_LiteOS/components/security/mbedtls/mbedtls-2.6.0/library\sha256.c ****     PUT_UINT32_BE( ctx->state[4], output, 16 );
 1306              		.loc 1 313 0 discriminator 4
 1307 00a6 E37E     		ldrb	r3, [r4, #27]	@ zero_extendqisi2
 1308 00a8 2B74     		strb	r3, [r5, #16]
 1309 00aa A37E     		ldrb	r3, [r4, #26]	@ zero_extendqisi2
 1310 00ac 6B74     		strb	r3, [r5, #17]
 1311 00ae 637E     		ldrb	r3, [r4, #25]	@ zero_extendqisi2
 1312 00b0 AB74     		strb	r3, [r5, #18]
 1313 00b2 237E     		ldrb	r3, [r4, #24]	@ zero_extendqisi2
 1314 00b4 EB74     		strb	r3, [r5, #19]
 314:C:/Users/lenovo/Desktop/liteos/Project2/BearPi_LiteOS/components/security/mbedtls/mbedtls-2.6.0/library\sha256.c ****     PUT_UINT32_BE( ctx->state[5], output, 20 );
 1315              		.loc 1 314 0 discriminator 4
 1316 00b6 E37F     		ldrb	r3, [r4, #31]	@ zero_extendqisi2
 1317 00b8 2B75     		strb	r3, [r5, #20]
 1318 00ba A37F     		ldrb	r3, [r4, #30]	@ zero_extendqisi2
 1319 00bc 6B75     		strb	r3, [r5, #21]
 1320 00be 637F     		ldrb	r3, [r4, #29]	@ zero_extendqisi2
 1321 00c0 AB75     		strb	r3, [r5, #22]
 1322 00c2 237F     		ldrb	r3, [r4, #28]	@ zero_extendqisi2
 1323 00c4 EB75     		strb	r3, [r5, #23]
 315:C:/Users/lenovo/Desktop/liteos/Project2/BearPi_LiteOS/components/security/mbedtls/mbedtls-2.6.0/library\sha256.c ****     PUT_UINT32_BE( ctx->state[6], output, 24 );
 1324              		.loc 1 315 0 discriminator 4
 1325 00c6 94F82330 		ldrb	r3, [r4, #35]	@ zero_extendqisi2
 1326 00ca 2B76     		strb	r3, [r5, #24]
 1327 00cc 94F82230 		ldrb	r3, [r4, #34]	@ zero_extendqisi2
 1328 00d0 6B76     		strb	r3, [r5, #25]
 1329 00d2 94F82130 		ldrb	r3, [r4, #33]	@ zero_extendqisi2
 1330 00d6 AB76     		strb	r3, [r5, #26]
ARM GAS  c:\Users\lenovo\AppData\Local\Temp\ccAl7Tms.s 			page 30


 1331 00d8 94F82030 		ldrb	r3, [r4, #32]	@ zero_extendqisi2
 1332 00dc EB76     		strb	r3, [r5, #27]
 316:C:/Users/lenovo/Desktop/liteos/Project2/BearPi_LiteOS/components/security/mbedtls/mbedtls-2.6.0/library\sha256.c **** 
 317:C:/Users/lenovo/Desktop/liteos/Project2/BearPi_LiteOS/components/security/mbedtls/mbedtls-2.6.0/library\sha256.c ****     if( ctx->is224 == 0 )
 1333              		.loc 1 317 0 discriminator 4
 1334 00de A36E     		ldr	r3, [r4, #104]
 1335 00e0 5BB9     		cbnz	r3, .L45
 318:C:/Users/lenovo/Desktop/liteos/Project2/BearPi_LiteOS/components/security/mbedtls/mbedtls-2.6.0/library\sha256.c ****         PUT_UINT32_BE( ctx->state[7], output, 28 );
 1336              		.loc 1 318 0
 1337 00e2 94F82730 		ldrb	r3, [r4, #39]	@ zero_extendqisi2
 1338 00e6 2B77     		strb	r3, [r5, #28]
 1339 00e8 94F82630 		ldrb	r3, [r4, #38]	@ zero_extendqisi2
 1340 00ec 6B77     		strb	r3, [r5, #29]
 1341 00ee 94F82530 		ldrb	r3, [r4, #37]	@ zero_extendqisi2
 1342 00f2 AB77     		strb	r3, [r5, #30]
 1343 00f4 94F82430 		ldrb	r3, [r4, #36]	@ zero_extendqisi2
 1344 00f8 EB77     		strb	r3, [r5, #31]
 1345              	.L45:
 319:C:/Users/lenovo/Desktop/liteos/Project2/BearPi_LiteOS/components/security/mbedtls/mbedtls-2.6.0/library\sha256.c **** }
 1346              		.loc 1 319 0
 1347 00fa 03B0     		add	sp, sp, #12
 1348              	.LCFI11:
 1349              		.cfi_remember_state
 1350              		.cfi_def_cfa_offset 12
 1351              		@ sp needed
 1352 00fc 30BD     		pop	{r4, r5, pc}
 1353              	.LVL138:
 1354              	.L46:
 1355              	.LCFI12:
 1356              		.cfi_restore_state
 304:C:/Users/lenovo/Desktop/liteos/Project2/BearPi_LiteOS/components/security/mbedtls/mbedtls-2.6.0/library\sha256.c **** 
 1357              		.loc 1 304 0 discriminator 2
 1358 00fe C2F17802 		rsb	r2, r2, #120
 1359              	.LVL139:
 1360 0102 A7E7     		b	.L47
 1361              	.L51:
 1362              		.align	2
 1363              	.L50:
 1364 0104 00000000 		.word	.LANCHOR1
 1365              		.cfi_endproc
 1366              	.LFE7:
 1368              		.section	.text.mbedtls_sha256,"ax",%progbits
 1369              		.align	1
 1370              		.global	mbedtls_sha256
 1371              		.syntax unified
 1372              		.thumb
 1373              		.thumb_func
 1374              		.fpu fpv4-sp-d16
 1376              	mbedtls_sha256:
 1377              	.LFB8:
 320:C:/Users/lenovo/Desktop/liteos/Project2/BearPi_LiteOS/components/security/mbedtls/mbedtls-2.6.0/library\sha256.c **** 
 321:C:/Users/lenovo/Desktop/liteos/Project2/BearPi_LiteOS/components/security/mbedtls/mbedtls-2.6.0/library\sha256.c **** #endif /* !MBEDTLS_SHA256_ALT */
 322:C:/Users/lenovo/Desktop/liteos/Project2/BearPi_LiteOS/components/security/mbedtls/mbedtls-2.6.0/library\sha256.c **** 
 323:C:/Users/lenovo/Desktop/liteos/Project2/BearPi_LiteOS/components/security/mbedtls/mbedtls-2.6.0/library\sha256.c **** /*
 324:C:/Users/lenovo/Desktop/liteos/Project2/BearPi_LiteOS/components/security/mbedtls/mbedtls-2.6.0/library\sha256.c ****  * output = SHA-256( input buffer )
 325:C:/Users/lenovo/Desktop/liteos/Project2/BearPi_LiteOS/components/security/mbedtls/mbedtls-2.6.0/library\sha256.c ****  */
 326:C:/Users/lenovo/Desktop/liteos/Project2/BearPi_LiteOS/components/security/mbedtls/mbedtls-2.6.0/library\sha256.c **** void mbedtls_sha256( const unsigned char *input, size_t ilen,
ARM GAS  c:\Users\lenovo\AppData\Local\Temp\ccAl7Tms.s 			page 31


 327:C:/Users/lenovo/Desktop/liteos/Project2/BearPi_LiteOS/components/security/mbedtls/mbedtls-2.6.0/library\sha256.c ****              unsigned char output[32], int is224 )
 328:C:/Users/lenovo/Desktop/liteos/Project2/BearPi_LiteOS/components/security/mbedtls/mbedtls-2.6.0/library\sha256.c **** {
 1378              		.loc 1 328 0
 1379              		.cfi_startproc
 1380              		@ args = 0, pretend = 0, frame = 112
 1381              		@ frame_needed = 0, uses_anonymous_args = 0
 1382              	.LVL140:
 1383 0000 F0B5     		push	{r4, r5, r6, r7, lr}
 1384              	.LCFI13:
 1385              		.cfi_def_cfa_offset 20
 1386              		.cfi_offset 4, -20
 1387              		.cfi_offset 5, -16
 1388              		.cfi_offset 6, -12
 1389              		.cfi_offset 7, -8
 1390              		.cfi_offset 14, -4
 1391 0002 9DB0     		sub	sp, sp, #116
 1392              	.LCFI14:
 1393              		.cfi_def_cfa_offset 136
 1394 0004 0546     		mov	r5, r0
 1395 0006 0E46     		mov	r6, r1
 1396 0008 1446     		mov	r4, r2
 1397 000a 1F46     		mov	r7, r3
 329:C:/Users/lenovo/Desktop/liteos/Project2/BearPi_LiteOS/components/security/mbedtls/mbedtls-2.6.0/library\sha256.c ****     mbedtls_sha256_context ctx;
 330:C:/Users/lenovo/Desktop/liteos/Project2/BearPi_LiteOS/components/security/mbedtls/mbedtls-2.6.0/library\sha256.c **** 
 331:C:/Users/lenovo/Desktop/liteos/Project2/BearPi_LiteOS/components/security/mbedtls/mbedtls-2.6.0/library\sha256.c ****     mbedtls_sha256_init( &ctx );
 1398              		.loc 1 331 0
 1399 000c 01A8     		add	r0, sp, #4
 1400              	.LVL141:
 1401 000e FFF7FEFF 		bl	mbedtls_sha256_init
 1402              	.LVL142:
 332:C:/Users/lenovo/Desktop/liteos/Project2/BearPi_LiteOS/components/security/mbedtls/mbedtls-2.6.0/library\sha256.c ****     mbedtls_sha256_starts( &ctx, is224 );
 1403              		.loc 1 332 0
 1404 0012 3946     		mov	r1, r7
 1405 0014 01A8     		add	r0, sp, #4
 1406 0016 FFF7FEFF 		bl	mbedtls_sha256_starts
 1407              	.LVL143:
 333:C:/Users/lenovo/Desktop/liteos/Project2/BearPi_LiteOS/components/security/mbedtls/mbedtls-2.6.0/library\sha256.c ****     mbedtls_sha256_update( &ctx, input, ilen );
 1408              		.loc 1 333 0
 1409 001a 3246     		mov	r2, r6
 1410 001c 2946     		mov	r1, r5
 1411 001e 01A8     		add	r0, sp, #4
 1412 0020 FFF7FEFF 		bl	mbedtls_sha256_update
 1413              	.LVL144:
 334:C:/Users/lenovo/Desktop/liteos/Project2/BearPi_LiteOS/components/security/mbedtls/mbedtls-2.6.0/library\sha256.c ****     mbedtls_sha256_finish( &ctx, output );
 1414              		.loc 1 334 0
 1415 0024 2146     		mov	r1, r4
 1416 0026 01A8     		add	r0, sp, #4
 1417 0028 FFF7FEFF 		bl	mbedtls_sha256_finish
 1418              	.LVL145:
 335:C:/Users/lenovo/Desktop/liteos/Project2/BearPi_LiteOS/components/security/mbedtls/mbedtls-2.6.0/library\sha256.c ****     mbedtls_sha256_free( &ctx );
 1419              		.loc 1 335 0
 1420 002c 01A8     		add	r0, sp, #4
 1421 002e FFF7FEFF 		bl	mbedtls_sha256_free
 1422              	.LVL146:
 336:C:/Users/lenovo/Desktop/liteos/Project2/BearPi_LiteOS/components/security/mbedtls/mbedtls-2.6.0/library\sha256.c **** }
 1423              		.loc 1 336 0
 1424 0032 1DB0     		add	sp, sp, #116
ARM GAS  c:\Users\lenovo\AppData\Local\Temp\ccAl7Tms.s 			page 32


 1425              	.LCFI15:
 1426              		.cfi_def_cfa_offset 20
 1427              		@ sp needed
 1428 0034 F0BD     		pop	{r4, r5, r6, r7, pc}
 1429              		.cfi_endproc
 1430              	.LFE8:
 1432              		.section	.rodata.K,"a",%progbits
 1433              		.align	2
 1434              		.set	.LANCHOR0,. + 0
 1437              	K:
 1438 0000 982F8A42 		.word	1116352408
 1439 0004 91443771 		.word	1899447441
 1440 0008 CFFBC0B5 		.word	-1245643825
 1441 000c A5DBB5E9 		.word	-373957723
 1442 0010 5BC25639 		.word	961987163
 1443 0014 F111F159 		.word	1508970993
 1444 0018 A4823F92 		.word	-1841331548
 1445 001c D55E1CAB 		.word	-1424204075
 1446 0020 98AA07D8 		.word	-670586216
 1447 0024 015B8312 		.word	310598401
 1448 0028 BE853124 		.word	607225278
 1449 002c C37D0C55 		.word	1426881987
 1450 0030 745DBE72 		.word	1925078388
 1451 0034 FEB1DE80 		.word	-2132889090
 1452 0038 A706DC9B 		.word	-1680079193
 1453 003c 74F19BC1 		.word	-1046744716
 1454 0040 C1699BE4 		.word	-459576895
 1455 0044 8647BEEF 		.word	-272742522
 1456 0048 C69DC10F 		.word	264347078
 1457 004c CCA10C24 		.word	604807628
 1458 0050 6F2CE92D 		.word	770255983
 1459 0054 AA84744A 		.word	1249150122
 1460 0058 DCA9B05C 		.word	1555081692
 1461 005c DA88F976 		.word	1996064986
 1462 0060 52513E98 		.word	-1740746414
 1463 0064 6DC631A8 		.word	-1473132947
 1464 0068 C82703B0 		.word	-1341970488
 1465 006c C77F59BF 		.word	-1084653625
 1466 0070 F30BE0C6 		.word	-958395405
 1467 0074 4791A7D5 		.word	-710438585
 1468 0078 5163CA06 		.word	113926993
 1469 007c 67292914 		.word	338241895
 1470 0080 850AB727 		.word	666307205
 1471 0084 38211B2E 		.word	773529912
 1472 0088 FC6D2C4D 		.word	1294757372
 1473 008c 130D3853 		.word	1396182291
 1474 0090 54730A65 		.word	1695183700
 1475 0094 BB0A6A76 		.word	1986661051
 1476 0098 2EC9C281 		.word	-2117940946
 1477 009c 852C7292 		.word	-1838011259
 1478 00a0 A1E8BFA2 		.word	-1564481375
 1479 00a4 4B661AA8 		.word	-1474664885
 1480 00a8 708B4BC2 		.word	-1035236496
 1481 00ac A3516CC7 		.word	-949202525
 1482 00b0 19E892D1 		.word	-778901479
 1483 00b4 240699D6 		.word	-694614492
 1484 00b8 85350EF4 		.word	-200395387
ARM GAS  c:\Users\lenovo\AppData\Local\Temp\ccAl7Tms.s 			page 33


 1485 00bc 70A06A10 		.word	275423344
 1486 00c0 16C1A419 		.word	430227734
 1487 00c4 086C371E 		.word	506948616
 1488 00c8 4C774827 		.word	659060556
 1489 00cc B5BCB034 		.word	883997877
 1490 00d0 B30C1C39 		.word	958139571
 1491 00d4 4AAAD84E 		.word	1322822218
 1492 00d8 4FCA9C5B 		.word	1537002063
 1493 00dc F36F2E68 		.word	1747873779
 1494 00e0 EE828F74 		.word	1955562222
 1495 00e4 6F63A578 		.word	2024104815
 1496 00e8 1478C884 		.word	-2067236844
 1497 00ec 0802C78C 		.word	-1933114872
 1498 00f0 FAFFBE90 		.word	-1866530822
 1499 00f4 EB6C50A4 		.word	-1538233109
 1500 00f8 F7A3F9BE 		.word	-1090935817
 1501 00fc F27871C6 		.word	-965641998
 1502              		.section	.rodata.sha256_padding,"a",%progbits
 1503              		.align	2
 1504              		.set	.LANCHOR1,. + 0
 1507              	sha256_padding:
 1508 0000 80       		.byte	-128
 1509 0001 00       		.byte	0
 1510 0002 00       		.byte	0
 1511 0003 00       		.byte	0
 1512 0004 00       		.byte	0
 1513 0005 00       		.byte	0
 1514 0006 00       		.byte	0
 1515 0007 00       		.byte	0
 1516 0008 00       		.byte	0
 1517 0009 00       		.byte	0
 1518 000a 00       		.byte	0
 1519 000b 00       		.byte	0
 1520 000c 00       		.byte	0
 1521 000d 00       		.byte	0
 1522 000e 00       		.byte	0
 1523 000f 00       		.byte	0
 1524 0010 00       		.byte	0
 1525 0011 00       		.byte	0
 1526 0012 00       		.byte	0
 1527 0013 00       		.byte	0
 1528 0014 00       		.byte	0
 1529 0015 00       		.byte	0
 1530 0016 00       		.byte	0
 1531 0017 00       		.byte	0
 1532 0018 00       		.byte	0
 1533 0019 00       		.byte	0
 1534 001a 00       		.byte	0
 1535 001b 00       		.byte	0
 1536 001c 00       		.byte	0
 1537 001d 00       		.byte	0
 1538 001e 00       		.byte	0
 1539 001f 00       		.byte	0
 1540 0020 00       		.byte	0
 1541 0021 00       		.byte	0
 1542 0022 00       		.byte	0
 1543 0023 00       		.byte	0
ARM GAS  c:\Users\lenovo\AppData\Local\Temp\ccAl7Tms.s 			page 34


 1544 0024 00       		.byte	0
 1545 0025 00       		.byte	0
 1546 0026 00       		.byte	0
 1547 0027 00       		.byte	0
 1548 0028 00       		.byte	0
 1549 0029 00       		.byte	0
 1550 002a 00       		.byte	0
 1551 002b 00       		.byte	0
 1552 002c 00       		.byte	0
 1553 002d 00       		.byte	0
 1554 002e 00       		.byte	0
 1555 002f 00       		.byte	0
 1556 0030 00       		.byte	0
 1557 0031 00       		.byte	0
 1558 0032 00       		.byte	0
 1559 0033 00       		.byte	0
 1560 0034 00       		.byte	0
 1561 0035 00       		.byte	0
 1562 0036 00       		.byte	0
 1563 0037 00       		.byte	0
 1564 0038 00       		.byte	0
 1565 0039 00       		.byte	0
 1566 003a 00       		.byte	0
 1567 003b 00       		.byte	0
 1568 003c 00       		.byte	0
 1569 003d 00       		.byte	0
 1570 003e 00       		.byte	0
 1571 003f 00       		.byte	0
 1572              		.text
 1573              	.Letext0:
 1574              		.file 2 "c:\\program files (x86)\\liteos studio\\resources\\arm-none-eabi\\arm-none-eabi\\include\
 1575              		.file 3 "c:\\program files (x86)\\liteos studio\\resources\\arm-none-eabi\\lib\\gcc\\arm-none-eabi
 1576              		.file 4 "c:\\program files (x86)\\liteos studio\\resources\\arm-none-eabi\\arm-none-eabi\\include\
 1577              		.file 5 "C:/Users/lenovo/Desktop/liteos/Project2/BearPi_LiteOS/components/security/mbedtls/mbedtls
 1578              		.file 6 "c:\\program files (x86)\\liteos studio\\resources\\arm-none-eabi\\arm-none-eabi\\include\
 1579              		.file 7 "c:\\program files (x86)\\liteos studio\\resources\\arm-none-eabi\\arm-none-eabi\\include\
 1580              		.file 8 "c:\\program files (x86)\\liteos studio\\resources\\arm-none-eabi\\arm-none-eabi\\include\
 1581              		.file 9 "<built-in>"
ARM GAS  c:\Users\lenovo\AppData\Local\Temp\ccAl7Tms.s 			page 35

