ARM GAS  c:\Users\lenovo\AppData\Local\Temp\ccXjwvs0.s 			page 1


   1              		.cpu cortex-m4
   2              		.eabi_attribute 27, 1
   3              		.eabi_attribute 28, 1
   4              		.eabi_attribute 20, 1
   5              		.eabi_attribute 21, 1
   6              		.eabi_attribute 23, 3
   7              		.eabi_attribute 24, 1
   8              		.eabi_attribute 25, 1
   9              		.eabi_attribute 26, 1
  10              		.eabi_attribute 30, 1
  11              		.eabi_attribute 34, 1
  12              		.eabi_attribute 18, 4
  13              		.file	"ssl_cache.c"
  14              		.text
  15              	.Ltext0:
  16              		.cfi_sections	.debug_frame
  17              		.section	.text.mbedtls_ssl_cache_init,"ax",%progbits
  18              		.align	1
  19              		.global	mbedtls_ssl_cache_init
  20              		.syntax unified
  21              		.thumb
  22              		.thumb_func
  23              		.fpu fpv4-sp-d16
  25              	mbedtls_ssl_cache_init:
  26              	.LFB14:
  27              		.file 1 "C:/Users/lenovo/Desktop/liteos/Project2/BearPi_LiteOS/components/security/mbedtls/mbedtls
   1:C:/Users/lenovo/Desktop/liteos/Project2/BearPi_LiteOS/components/security/mbedtls/mbedtls-2.6.0/library\ssl_cache.c **** /*
   2:C:/Users/lenovo/Desktop/liteos/Project2/BearPi_LiteOS/components/security/mbedtls/mbedtls-2.6.0/library\ssl_cache.c ****  *  SSL session cache implementation
   3:C:/Users/lenovo/Desktop/liteos/Project2/BearPi_LiteOS/components/security/mbedtls/mbedtls-2.6.0/library\ssl_cache.c ****  *
   4:C:/Users/lenovo/Desktop/liteos/Project2/BearPi_LiteOS/components/security/mbedtls/mbedtls-2.6.0/library\ssl_cache.c ****  *  Copyright (C) 2006-2015, ARM Limited, All Rights Reserved
   5:C:/Users/lenovo/Desktop/liteos/Project2/BearPi_LiteOS/components/security/mbedtls/mbedtls-2.6.0/library\ssl_cache.c ****  *  SPDX-License-Identifier: Apache-2.0
   6:C:/Users/lenovo/Desktop/liteos/Project2/BearPi_LiteOS/components/security/mbedtls/mbedtls-2.6.0/library\ssl_cache.c ****  *
   7:C:/Users/lenovo/Desktop/liteos/Project2/BearPi_LiteOS/components/security/mbedtls/mbedtls-2.6.0/library\ssl_cache.c ****  *  Licensed under the Apache License, Version 2.0 (the "License"); you may
   8:C:/Users/lenovo/Desktop/liteos/Project2/BearPi_LiteOS/components/security/mbedtls/mbedtls-2.6.0/library\ssl_cache.c ****  *  not use this file except in compliance with the License.
   9:C:/Users/lenovo/Desktop/liteos/Project2/BearPi_LiteOS/components/security/mbedtls/mbedtls-2.6.0/library\ssl_cache.c ****  *  You may obtain a copy of the License at
  10:C:/Users/lenovo/Desktop/liteos/Project2/BearPi_LiteOS/components/security/mbedtls/mbedtls-2.6.0/library\ssl_cache.c ****  *
  11:C:/Users/lenovo/Desktop/liteos/Project2/BearPi_LiteOS/components/security/mbedtls/mbedtls-2.6.0/library\ssl_cache.c ****  *  http://www.apache.org/licenses/LICENSE-2.0
  12:C:/Users/lenovo/Desktop/liteos/Project2/BearPi_LiteOS/components/security/mbedtls/mbedtls-2.6.0/library\ssl_cache.c ****  *
  13:C:/Users/lenovo/Desktop/liteos/Project2/BearPi_LiteOS/components/security/mbedtls/mbedtls-2.6.0/library\ssl_cache.c ****  *  Unless required by applicable law or agreed to in writing, software
  14:C:/Users/lenovo/Desktop/liteos/Project2/BearPi_LiteOS/components/security/mbedtls/mbedtls-2.6.0/library\ssl_cache.c ****  *  distributed under the License is distributed on an "AS IS" BASIS, WITHOUT
  15:C:/Users/lenovo/Desktop/liteos/Project2/BearPi_LiteOS/components/security/mbedtls/mbedtls-2.6.0/library\ssl_cache.c ****  *  WARRANTIES OR CONDITIONS OF ANY KIND, either express or implied.
  16:C:/Users/lenovo/Desktop/liteos/Project2/BearPi_LiteOS/components/security/mbedtls/mbedtls-2.6.0/library\ssl_cache.c ****  *  See the License for the specific language governing permissions and
  17:C:/Users/lenovo/Desktop/liteos/Project2/BearPi_LiteOS/components/security/mbedtls/mbedtls-2.6.0/library\ssl_cache.c ****  *  limitations under the License.
  18:C:/Users/lenovo/Desktop/liteos/Project2/BearPi_LiteOS/components/security/mbedtls/mbedtls-2.6.0/library\ssl_cache.c ****  *
  19:C:/Users/lenovo/Desktop/liteos/Project2/BearPi_LiteOS/components/security/mbedtls/mbedtls-2.6.0/library\ssl_cache.c ****  *  This file is part of mbed TLS (https://tls.mbed.org)
  20:C:/Users/lenovo/Desktop/liteos/Project2/BearPi_LiteOS/components/security/mbedtls/mbedtls-2.6.0/library\ssl_cache.c ****  */
  21:C:/Users/lenovo/Desktop/liteos/Project2/BearPi_LiteOS/components/security/mbedtls/mbedtls-2.6.0/library\ssl_cache.c **** /*
  22:C:/Users/lenovo/Desktop/liteos/Project2/BearPi_LiteOS/components/security/mbedtls/mbedtls-2.6.0/library\ssl_cache.c ****  * These session callbacks use a simple chained list
  23:C:/Users/lenovo/Desktop/liteos/Project2/BearPi_LiteOS/components/security/mbedtls/mbedtls-2.6.0/library\ssl_cache.c ****  * to store and retrieve the session information.
  24:C:/Users/lenovo/Desktop/liteos/Project2/BearPi_LiteOS/components/security/mbedtls/mbedtls-2.6.0/library\ssl_cache.c ****  */
  25:C:/Users/lenovo/Desktop/liteos/Project2/BearPi_LiteOS/components/security/mbedtls/mbedtls-2.6.0/library\ssl_cache.c **** 
  26:C:/Users/lenovo/Desktop/liteos/Project2/BearPi_LiteOS/components/security/mbedtls/mbedtls-2.6.0/library\ssl_cache.c **** #if !defined(MBEDTLS_CONFIG_FILE)
  27:C:/Users/lenovo/Desktop/liteos/Project2/BearPi_LiteOS/components/security/mbedtls/mbedtls-2.6.0/library\ssl_cache.c **** #include "mbedtls/config.h"
  28:C:/Users/lenovo/Desktop/liteos/Project2/BearPi_LiteOS/components/security/mbedtls/mbedtls-2.6.0/library\ssl_cache.c **** #else
  29:C:/Users/lenovo/Desktop/liteos/Project2/BearPi_LiteOS/components/security/mbedtls/mbedtls-2.6.0/library\ssl_cache.c **** #include MBEDTLS_CONFIG_FILE
  30:C:/Users/lenovo/Desktop/liteos/Project2/BearPi_LiteOS/components/security/mbedtls/mbedtls-2.6.0/library\ssl_cache.c **** #endif
  31:C:/Users/lenovo/Desktop/liteos/Project2/BearPi_LiteOS/components/security/mbedtls/mbedtls-2.6.0/library\ssl_cache.c **** 
ARM GAS  c:\Users\lenovo\AppData\Local\Temp\ccXjwvs0.s 			page 2


  32:C:/Users/lenovo/Desktop/liteos/Project2/BearPi_LiteOS/components/security/mbedtls/mbedtls-2.6.0/library\ssl_cache.c **** #if defined(MBEDTLS_SSL_CACHE_C)
  33:C:/Users/lenovo/Desktop/liteos/Project2/BearPi_LiteOS/components/security/mbedtls/mbedtls-2.6.0/library\ssl_cache.c **** 
  34:C:/Users/lenovo/Desktop/liteos/Project2/BearPi_LiteOS/components/security/mbedtls/mbedtls-2.6.0/library\ssl_cache.c **** #if defined(MBEDTLS_PLATFORM_C)
  35:C:/Users/lenovo/Desktop/liteos/Project2/BearPi_LiteOS/components/security/mbedtls/mbedtls-2.6.0/library\ssl_cache.c **** #include "mbedtls/platform.h"
  36:C:/Users/lenovo/Desktop/liteos/Project2/BearPi_LiteOS/components/security/mbedtls/mbedtls-2.6.0/library\ssl_cache.c **** #else
  37:C:/Users/lenovo/Desktop/liteos/Project2/BearPi_LiteOS/components/security/mbedtls/mbedtls-2.6.0/library\ssl_cache.c **** #include <stdlib.h>
  38:C:/Users/lenovo/Desktop/liteos/Project2/BearPi_LiteOS/components/security/mbedtls/mbedtls-2.6.0/library\ssl_cache.c **** #define mbedtls_calloc    calloc
  39:C:/Users/lenovo/Desktop/liteos/Project2/BearPi_LiteOS/components/security/mbedtls/mbedtls-2.6.0/library\ssl_cache.c **** #define mbedtls_free      free
  40:C:/Users/lenovo/Desktop/liteos/Project2/BearPi_LiteOS/components/security/mbedtls/mbedtls-2.6.0/library\ssl_cache.c **** #endif
  41:C:/Users/lenovo/Desktop/liteos/Project2/BearPi_LiteOS/components/security/mbedtls/mbedtls-2.6.0/library\ssl_cache.c **** 
  42:C:/Users/lenovo/Desktop/liteos/Project2/BearPi_LiteOS/components/security/mbedtls/mbedtls-2.6.0/library\ssl_cache.c **** #include "mbedtls/ssl_cache.h"
  43:C:/Users/lenovo/Desktop/liteos/Project2/BearPi_LiteOS/components/security/mbedtls/mbedtls-2.6.0/library\ssl_cache.c **** 
  44:C:/Users/lenovo/Desktop/liteos/Project2/BearPi_LiteOS/components/security/mbedtls/mbedtls-2.6.0/library\ssl_cache.c **** #include <string.h>
  45:C:/Users/lenovo/Desktop/liteos/Project2/BearPi_LiteOS/components/security/mbedtls/mbedtls-2.6.0/library\ssl_cache.c **** 
  46:C:/Users/lenovo/Desktop/liteos/Project2/BearPi_LiteOS/components/security/mbedtls/mbedtls-2.6.0/library\ssl_cache.c **** void mbedtls_ssl_cache_init( mbedtls_ssl_cache_context *cache )
  47:C:/Users/lenovo/Desktop/liteos/Project2/BearPi_LiteOS/components/security/mbedtls/mbedtls-2.6.0/library\ssl_cache.c **** {
  28              		.loc 1 47 0
  29              		.cfi_startproc
  30              		@ args = 0, pretend = 0, frame = 0
  31              		@ frame_needed = 0, uses_anonymous_args = 0
  32              		@ link register save eliminated.
  33              	.LVL0:
  48:C:/Users/lenovo/Desktop/liteos/Project2/BearPi_LiteOS/components/security/mbedtls/mbedtls-2.6.0/library\ssl_cache.c ****     memset( cache, 0, sizeof( mbedtls_ssl_cache_context ) );
  34              		.loc 1 48 0
  35 0000 0023     		movs	r3, #0
  36 0002 0360     		str	r3, [r0]	@ unaligned
  49:C:/Users/lenovo/Desktop/liteos/Project2/BearPi_LiteOS/components/security/mbedtls/mbedtls-2.6.0/library\ssl_cache.c **** 
  50:C:/Users/lenovo/Desktop/liteos/Project2/BearPi_LiteOS/components/security/mbedtls/mbedtls-2.6.0/library\ssl_cache.c ****     cache->timeout = MBEDTLS_SSL_CACHE_DEFAULT_TIMEOUT;
  37              		.loc 1 50 0
  38 0004 024B     		ldr	r3, .L2
  39 0006 4360     		str	r3, [r0, #4]
  51:C:/Users/lenovo/Desktop/liteos/Project2/BearPi_LiteOS/components/security/mbedtls/mbedtls-2.6.0/library\ssl_cache.c ****     cache->max_entries = MBEDTLS_SSL_CACHE_DEFAULT_MAX_ENTRIES;
  40              		.loc 1 51 0
  41 0008 3223     		movs	r3, #50
  42 000a 8360     		str	r3, [r0, #8]
  52:C:/Users/lenovo/Desktop/liteos/Project2/BearPi_LiteOS/components/security/mbedtls/mbedtls-2.6.0/library\ssl_cache.c **** 
  53:C:/Users/lenovo/Desktop/liteos/Project2/BearPi_LiteOS/components/security/mbedtls/mbedtls-2.6.0/library\ssl_cache.c **** #if defined(MBEDTLS_THREADING_C)
  54:C:/Users/lenovo/Desktop/liteos/Project2/BearPi_LiteOS/components/security/mbedtls/mbedtls-2.6.0/library\ssl_cache.c ****     mbedtls_mutex_init( &cache->mutex );
  55:C:/Users/lenovo/Desktop/liteos/Project2/BearPi_LiteOS/components/security/mbedtls/mbedtls-2.6.0/library\ssl_cache.c **** #endif
  56:C:/Users/lenovo/Desktop/liteos/Project2/BearPi_LiteOS/components/security/mbedtls/mbedtls-2.6.0/library\ssl_cache.c **** }
  43              		.loc 1 56 0
  44 000c 7047     		bx	lr
  45              	.L3:
  46 000e 00BF     		.align	2
  47              	.L2:
  48 0010 80510100 		.word	86400
  49              		.cfi_endproc
  50              	.LFE14:
  52              		.section	.text.mbedtls_ssl_cache_get,"ax",%progbits
  53              		.align	1
  54              		.global	mbedtls_ssl_cache_get
  55              		.syntax unified
  56              		.thumb
  57              		.thumb_func
  58              		.fpu fpv4-sp-d16
  60              	mbedtls_ssl_cache_get:
  61              	.LFB15:
ARM GAS  c:\Users\lenovo\AppData\Local\Temp\ccXjwvs0.s 			page 3


  57:C:/Users/lenovo/Desktop/liteos/Project2/BearPi_LiteOS/components/security/mbedtls/mbedtls-2.6.0/library\ssl_cache.c **** 
  58:C:/Users/lenovo/Desktop/liteos/Project2/BearPi_LiteOS/components/security/mbedtls/mbedtls-2.6.0/library\ssl_cache.c **** int mbedtls_ssl_cache_get( void *data, mbedtls_ssl_session *session )
  59:C:/Users/lenovo/Desktop/liteos/Project2/BearPi_LiteOS/components/security/mbedtls/mbedtls-2.6.0/library\ssl_cache.c **** {
  62              		.loc 1 59 0
  63              		.cfi_startproc
  64              		@ args = 0, pretend = 0, frame = 0
  65              		@ frame_needed = 0, uses_anonymous_args = 0
  66              	.LVL1:
  67 0000 F8B5     		push	{r3, r4, r5, r6, r7, lr}
  68              	.LCFI0:
  69              		.cfi_def_cfa_offset 24
  70              		.cfi_offset 3, -24
  71              		.cfi_offset 4, -20
  72              		.cfi_offset 5, -16
  73              		.cfi_offset 6, -12
  74              		.cfi_offset 7, -8
  75              		.cfi_offset 14, -4
  76 0002 0D46     		mov	r5, r1
  77              	.LVL2:
  60:C:/Users/lenovo/Desktop/liteos/Project2/BearPi_LiteOS/components/security/mbedtls/mbedtls-2.6.0/library\ssl_cache.c ****     int ret = 1;
  61:C:/Users/lenovo/Desktop/liteos/Project2/BearPi_LiteOS/components/security/mbedtls/mbedtls-2.6.0/library\ssl_cache.c **** #if defined(MBEDTLS_HAVE_TIME)
  62:C:/Users/lenovo/Desktop/liteos/Project2/BearPi_LiteOS/components/security/mbedtls/mbedtls-2.6.0/library\ssl_cache.c ****     mbedtls_time_t t = mbedtls_time( NULL );
  63:C:/Users/lenovo/Desktop/liteos/Project2/BearPi_LiteOS/components/security/mbedtls/mbedtls-2.6.0/library\ssl_cache.c **** #endif
  64:C:/Users/lenovo/Desktop/liteos/Project2/BearPi_LiteOS/components/security/mbedtls/mbedtls-2.6.0/library\ssl_cache.c ****     mbedtls_ssl_cache_context *cache = (mbedtls_ssl_cache_context *) data;
  65:C:/Users/lenovo/Desktop/liteos/Project2/BearPi_LiteOS/components/security/mbedtls/mbedtls-2.6.0/library\ssl_cache.c ****     mbedtls_ssl_cache_entry *cur, *entry;
  66:C:/Users/lenovo/Desktop/liteos/Project2/BearPi_LiteOS/components/security/mbedtls/mbedtls-2.6.0/library\ssl_cache.c **** 
  67:C:/Users/lenovo/Desktop/liteos/Project2/BearPi_LiteOS/components/security/mbedtls/mbedtls-2.6.0/library\ssl_cache.c **** #if defined(MBEDTLS_THREADING_C)
  68:C:/Users/lenovo/Desktop/liteos/Project2/BearPi_LiteOS/components/security/mbedtls/mbedtls-2.6.0/library\ssl_cache.c ****     if( mbedtls_mutex_lock( &cache->mutex ) != 0 )
  69:C:/Users/lenovo/Desktop/liteos/Project2/BearPi_LiteOS/components/security/mbedtls/mbedtls-2.6.0/library\ssl_cache.c ****         return( 1 );
  70:C:/Users/lenovo/Desktop/liteos/Project2/BearPi_LiteOS/components/security/mbedtls/mbedtls-2.6.0/library\ssl_cache.c **** #endif
  71:C:/Users/lenovo/Desktop/liteos/Project2/BearPi_LiteOS/components/security/mbedtls/mbedtls-2.6.0/library\ssl_cache.c **** 
  72:C:/Users/lenovo/Desktop/liteos/Project2/BearPi_LiteOS/components/security/mbedtls/mbedtls-2.6.0/library\ssl_cache.c ****     cur = cache->chain;
  78              		.loc 1 72 0
  79 0004 0468     		ldr	r4, [r0]
  80              	.LVL3:
  73:C:/Users/lenovo/Desktop/liteos/Project2/BearPi_LiteOS/components/security/mbedtls/mbedtls-2.6.0/library\ssl_cache.c ****     entry = NULL;
  74:C:/Users/lenovo/Desktop/liteos/Project2/BearPi_LiteOS/components/security/mbedtls/mbedtls-2.6.0/library\ssl_cache.c **** 
  75:C:/Users/lenovo/Desktop/liteos/Project2/BearPi_LiteOS/components/security/mbedtls/mbedtls-2.6.0/library\ssl_cache.c ****     while( cur != NULL )
  81              		.loc 1 75 0
  82 0006 19E0     		b	.L5
  83              	.LVL4:
  84              	.L15:
  76:C:/Users/lenovo/Desktop/liteos/Project2/BearPi_LiteOS/components/security/mbedtls/mbedtls-2.6.0/library\ssl_cache.c ****     {
  77:C:/Users/lenovo/Desktop/liteos/Project2/BearPi_LiteOS/components/security/mbedtls/mbedtls-2.6.0/library\ssl_cache.c ****         entry = cur;
  78:C:/Users/lenovo/Desktop/liteos/Project2/BearPi_LiteOS/components/security/mbedtls/mbedtls-2.6.0/library\ssl_cache.c ****         cur = cur->next;
  79:C:/Users/lenovo/Desktop/liteos/Project2/BearPi_LiteOS/components/security/mbedtls/mbedtls-2.6.0/library\ssl_cache.c **** 
  80:C:/Users/lenovo/Desktop/liteos/Project2/BearPi_LiteOS/components/security/mbedtls/mbedtls-2.6.0/library\ssl_cache.c **** #if defined(MBEDTLS_HAVE_TIME)
  81:C:/Users/lenovo/Desktop/liteos/Project2/BearPi_LiteOS/components/security/mbedtls/mbedtls-2.6.0/library\ssl_cache.c ****         if( cache->timeout != 0 &&
  82:C:/Users/lenovo/Desktop/liteos/Project2/BearPi_LiteOS/components/security/mbedtls/mbedtls-2.6.0/library\ssl_cache.c ****             (int) ( t - entry->timestamp ) > cache->timeout )
  83:C:/Users/lenovo/Desktop/liteos/Project2/BearPi_LiteOS/components/security/mbedtls/mbedtls-2.6.0/library\ssl_cache.c ****             continue;
  84:C:/Users/lenovo/Desktop/liteos/Project2/BearPi_LiteOS/components/security/mbedtls/mbedtls-2.6.0/library\ssl_cache.c **** #endif
  85:C:/Users/lenovo/Desktop/liteos/Project2/BearPi_LiteOS/components/security/mbedtls/mbedtls-2.6.0/library\ssl_cache.c **** 
  86:C:/Users/lenovo/Desktop/liteos/Project2/BearPi_LiteOS/components/security/mbedtls/mbedtls-2.6.0/library\ssl_cache.c ****         if( session->ciphersuite != entry->session.ciphersuite ||
  87:C:/Users/lenovo/Desktop/liteos/Project2/BearPi_LiteOS/components/security/mbedtls/mbedtls-2.6.0/library\ssl_cache.c ****             session->compression != entry->session.compression ||
  88:C:/Users/lenovo/Desktop/liteos/Project2/BearPi_LiteOS/components/security/mbedtls/mbedtls-2.6.0/library\ssl_cache.c ****             session->id_len != entry->session.id_len )
  89:C:/Users/lenovo/Desktop/liteos/Project2/BearPi_LiteOS/components/security/mbedtls/mbedtls-2.6.0/library\ssl_cache.c ****             continue;
  90:C:/Users/lenovo/Desktop/liteos/Project2/BearPi_LiteOS/components/security/mbedtls/mbedtls-2.6.0/library\ssl_cache.c **** 
ARM GAS  c:\Users\lenovo\AppData\Local\Temp\ccXjwvs0.s 			page 4


  91:C:/Users/lenovo/Desktop/liteos/Project2/BearPi_LiteOS/components/security/mbedtls/mbedtls-2.6.0/library\ssl_cache.c ****         if( memcmp( session->id, entry->session.id,
  92:C:/Users/lenovo/Desktop/liteos/Project2/BearPi_LiteOS/components/security/mbedtls/mbedtls-2.6.0/library\ssl_cache.c ****                     entry->session.id_len ) != 0 )
  93:C:/Users/lenovo/Desktop/liteos/Project2/BearPi_LiteOS/components/security/mbedtls/mbedtls-2.6.0/library\ssl_cache.c ****             continue;
  94:C:/Users/lenovo/Desktop/liteos/Project2/BearPi_LiteOS/components/security/mbedtls/mbedtls-2.6.0/library\ssl_cache.c **** 
  95:C:/Users/lenovo/Desktop/liteos/Project2/BearPi_LiteOS/components/security/mbedtls/mbedtls-2.6.0/library\ssl_cache.c ****         memcpy( session->master, entry->session.master, 48 );
  85              		.loc 1 95 0
  86 0008 04F12C03 		add	r3, r4, #44
  87 000c 05F12C02 		add	r2, r5, #44
  88 0010 04F15C00 		add	r0, r4, #92
  89              	.LVL5:
  90              	.L6:
  91 0014 D3F800E0 		ldr	lr, [r3]	@ unaligned
  92 0018 D3F804C0 		ldr	ip, [r3, #4]	@ unaligned
  93 001c 9F68     		ldr	r7, [r3, #8]	@ unaligned
  94 001e DE68     		ldr	r6, [r3, #12]	@ unaligned
  95 0020 C2F800E0 		str	lr, [r2]	@ unaligned
  96 0024 C2F804C0 		str	ip, [r2, #4]	@ unaligned
  97 0028 9760     		str	r7, [r2, #8]	@ unaligned
  98 002a D660     		str	r6, [r2, #12]	@ unaligned
  99 002c 1033     		adds	r3, r3, #16
 100 002e 1032     		adds	r2, r2, #16
 101 0030 8342     		cmp	r3, r0
 102 0032 EFD1     		bne	.L6
  96:C:/Users/lenovo/Desktop/liteos/Project2/BearPi_LiteOS/components/security/mbedtls/mbedtls-2.6.0/library\ssl_cache.c **** 
  97:C:/Users/lenovo/Desktop/liteos/Project2/BearPi_LiteOS/components/security/mbedtls/mbedtls-2.6.0/library\ssl_cache.c ****         session->verify_result = entry->session.verify_result;
 103              		.loc 1 97 0
 104 0034 E36D     		ldr	r3, [r4, #92]
 105 0036 EB65     		str	r3, [r5, #92]
 106              	.LVL6:
  98:C:/Users/lenovo/Desktop/liteos/Project2/BearPi_LiteOS/components/security/mbedtls/mbedtls-2.6.0/library\ssl_cache.c **** 
  99:C:/Users/lenovo/Desktop/liteos/Project2/BearPi_LiteOS/components/security/mbedtls/mbedtls-2.6.0/library\ssl_cache.c **** #if defined(MBEDTLS_X509_CRT_PARSE_C)
 100:C:/Users/lenovo/Desktop/liteos/Project2/BearPi_LiteOS/components/security/mbedtls/mbedtls-2.6.0/library\ssl_cache.c ****         /*
 101:C:/Users/lenovo/Desktop/liteos/Project2/BearPi_LiteOS/components/security/mbedtls/mbedtls-2.6.0/library\ssl_cache.c ****          * Restore peer certificate (without rest of the original chain)
 102:C:/Users/lenovo/Desktop/liteos/Project2/BearPi_LiteOS/components/security/mbedtls/mbedtls-2.6.0/library\ssl_cache.c ****          */
 103:C:/Users/lenovo/Desktop/liteos/Project2/BearPi_LiteOS/components/security/mbedtls/mbedtls-2.6.0/library\ssl_cache.c ****         if( entry->peer_cert.p != NULL )
 104:C:/Users/lenovo/Desktop/liteos/Project2/BearPi_LiteOS/components/security/mbedtls/mbedtls-2.6.0/library\ssl_cache.c ****         {
 105:C:/Users/lenovo/Desktop/liteos/Project2/BearPi_LiteOS/components/security/mbedtls/mbedtls-2.6.0/library\ssl_cache.c ****             if( ( session->peer_cert = mbedtls_calloc( 1,
 106:C:/Users/lenovo/Desktop/liteos/Project2/BearPi_LiteOS/components/security/mbedtls/mbedtls-2.6.0/library\ssl_cache.c ****                                  sizeof(mbedtls_x509_crt) ) ) == NULL )
 107:C:/Users/lenovo/Desktop/liteos/Project2/BearPi_LiteOS/components/security/mbedtls/mbedtls-2.6.0/library\ssl_cache.c ****             {
 108:C:/Users/lenovo/Desktop/liteos/Project2/BearPi_LiteOS/components/security/mbedtls/mbedtls-2.6.0/library\ssl_cache.c ****                 ret = 1;
 109:C:/Users/lenovo/Desktop/liteos/Project2/BearPi_LiteOS/components/security/mbedtls/mbedtls-2.6.0/library\ssl_cache.c ****                 goto exit;
 110:C:/Users/lenovo/Desktop/liteos/Project2/BearPi_LiteOS/components/security/mbedtls/mbedtls-2.6.0/library\ssl_cache.c ****             }
 111:C:/Users/lenovo/Desktop/liteos/Project2/BearPi_LiteOS/components/security/mbedtls/mbedtls-2.6.0/library\ssl_cache.c **** 
 112:C:/Users/lenovo/Desktop/liteos/Project2/BearPi_LiteOS/components/security/mbedtls/mbedtls-2.6.0/library\ssl_cache.c ****             mbedtls_x509_crt_init( session->peer_cert );
 113:C:/Users/lenovo/Desktop/liteos/Project2/BearPi_LiteOS/components/security/mbedtls/mbedtls-2.6.0/library\ssl_cache.c ****             if( mbedtls_x509_crt_parse( session->peer_cert, entry->peer_cert.p,
 114:C:/Users/lenovo/Desktop/liteos/Project2/BearPi_LiteOS/components/security/mbedtls/mbedtls-2.6.0/library\ssl_cache.c ****                                 entry->peer_cert.len ) != 0 )
 115:C:/Users/lenovo/Desktop/liteos/Project2/BearPi_LiteOS/components/security/mbedtls/mbedtls-2.6.0/library\ssl_cache.c ****             {
 116:C:/Users/lenovo/Desktop/liteos/Project2/BearPi_LiteOS/components/security/mbedtls/mbedtls-2.6.0/library\ssl_cache.c ****                 mbedtls_free( session->peer_cert );
 117:C:/Users/lenovo/Desktop/liteos/Project2/BearPi_LiteOS/components/security/mbedtls/mbedtls-2.6.0/library\ssl_cache.c ****                 session->peer_cert = NULL;
 118:C:/Users/lenovo/Desktop/liteos/Project2/BearPi_LiteOS/components/security/mbedtls/mbedtls-2.6.0/library\ssl_cache.c ****                 ret = 1;
 119:C:/Users/lenovo/Desktop/liteos/Project2/BearPi_LiteOS/components/security/mbedtls/mbedtls-2.6.0/library\ssl_cache.c ****                 goto exit;
 120:C:/Users/lenovo/Desktop/liteos/Project2/BearPi_LiteOS/components/security/mbedtls/mbedtls-2.6.0/library\ssl_cache.c ****             }
 121:C:/Users/lenovo/Desktop/liteos/Project2/BearPi_LiteOS/components/security/mbedtls/mbedtls-2.6.0/library\ssl_cache.c ****         }
 122:C:/Users/lenovo/Desktop/liteos/Project2/BearPi_LiteOS/components/security/mbedtls/mbedtls-2.6.0/library\ssl_cache.c **** #endif /* MBEDTLS_X509_CRT_PARSE_C */
 123:C:/Users/lenovo/Desktop/liteos/Project2/BearPi_LiteOS/components/security/mbedtls/mbedtls-2.6.0/library\ssl_cache.c **** 
 124:C:/Users/lenovo/Desktop/liteos/Project2/BearPi_LiteOS/components/security/mbedtls/mbedtls-2.6.0/library\ssl_cache.c ****         ret = 0;
 125:C:/Users/lenovo/Desktop/liteos/Project2/BearPi_LiteOS/components/security/mbedtls/mbedtls-2.6.0/library\ssl_cache.c ****         goto exit;
ARM GAS  c:\Users\lenovo\AppData\Local\Temp\ccXjwvs0.s 			page 5


 107              		.loc 1 125 0
 108 0038 1EE0     		b	.L4
 109              	.LVL7:
 110              	.L9:
 111 003a 3446     		mov	r4, r6
 112              	.LVL8:
 113              	.L5:
  75:C:/Users/lenovo/Desktop/liteos/Project2/BearPi_LiteOS/components/security/mbedtls/mbedtls-2.6.0/library\ssl_cache.c ****     {
 114              		.loc 1 75 0
 115 003c DCB1     		cbz	r4, .L14
 116              	.LVL9:
  78:C:/Users/lenovo/Desktop/liteos/Project2/BearPi_LiteOS/components/security/mbedtls/mbedtls-2.6.0/library\ssl_cache.c **** 
 117              		.loc 1 78 0
 118 003e 666E     		ldr	r6, [r4, #100]
 119              	.LVL10:
  86:C:/Users/lenovo/Desktop/liteos/Project2/BearPi_LiteOS/components/security/mbedtls/mbedtls-2.6.0/library\ssl_cache.c ****             session->compression != entry->session.compression ||
 120              		.loc 1 86 0
 121 0040 2A68     		ldr	r2, [r5]
 122 0042 2368     		ldr	r3, [r4]
 123 0044 9A42     		cmp	r2, r3
 124 0046 F8D1     		bne	.L9
  87:C:/Users/lenovo/Desktop/liteos/Project2/BearPi_LiteOS/components/security/mbedtls/mbedtls-2.6.0/library\ssl_cache.c ****             session->id_len != entry->session.id_len )
 125              		.loc 1 87 0 discriminator 1
 126 0048 6A68     		ldr	r2, [r5, #4]
 127 004a 6368     		ldr	r3, [r4, #4]
  86:C:/Users/lenovo/Desktop/liteos/Project2/BearPi_LiteOS/components/security/mbedtls/mbedtls-2.6.0/library\ssl_cache.c ****             session->compression != entry->session.compression ||
 128              		.loc 1 86 0 discriminator 1
 129 004c 9A42     		cmp	r2, r3
 130 004e 0ED1     		bne	.L10
  88:C:/Users/lenovo/Desktop/liteos/Project2/BearPi_LiteOS/components/security/mbedtls/mbedtls-2.6.0/library\ssl_cache.c ****             continue;
 131              		.loc 1 88 0
 132 0050 AB68     		ldr	r3, [r5, #8]
 133 0052 A268     		ldr	r2, [r4, #8]
  87:C:/Users/lenovo/Desktop/liteos/Project2/BearPi_LiteOS/components/security/mbedtls/mbedtls-2.6.0/library\ssl_cache.c ****             session->id_len != entry->session.id_len )
 134              		.loc 1 87 0
 135 0054 9342     		cmp	r3, r2
 136 0056 0CD1     		bne	.L11
  91:C:/Users/lenovo/Desktop/liteos/Project2/BearPi_LiteOS/components/security/mbedtls/mbedtls-2.6.0/library\ssl_cache.c ****                     entry->session.id_len ) != 0 )
 137              		.loc 1 91 0
 138 0058 04F10C01 		add	r1, r4, #12
 139 005c 05F10C00 		add	r0, r5, #12
 140 0060 FFF7FEFF 		bl	memcmp
 141              	.LVL11:
 142 0064 0146     		mov	r1, r0
 143 0066 0028     		cmp	r0, #0
 144 0068 CED0     		beq	.L15
 145 006a 3446     		mov	r4, r6
 146              	.LVL12:
 147 006c E6E7     		b	.L5
 148              	.LVL13:
 149              	.L10:
 150 006e 3446     		mov	r4, r6
 151              	.LVL14:
 152 0070 E4E7     		b	.L5
 153              	.LVL15:
 154              	.L11:
 155 0072 3446     		mov	r4, r6
ARM GAS  c:\Users\lenovo\AppData\Local\Temp\ccXjwvs0.s 			page 6


 156              	.LVL16:
 157 0074 E2E7     		b	.L5
 158              	.LVL17:
 159              	.L14:
  60:C:/Users/lenovo/Desktop/liteos/Project2/BearPi_LiteOS/components/security/mbedtls/mbedtls-2.6.0/library\ssl_cache.c **** #if defined(MBEDTLS_HAVE_TIME)
 160              		.loc 1 60 0
 161 0076 0121     		movs	r1, #1
 162              	.L7:
 163              	.LVL18:
 164              	.L4:
 126:C:/Users/lenovo/Desktop/liteos/Project2/BearPi_LiteOS/components/security/mbedtls/mbedtls-2.6.0/library\ssl_cache.c ****     }
 127:C:/Users/lenovo/Desktop/liteos/Project2/BearPi_LiteOS/components/security/mbedtls/mbedtls-2.6.0/library\ssl_cache.c **** 
 128:C:/Users/lenovo/Desktop/liteos/Project2/BearPi_LiteOS/components/security/mbedtls/mbedtls-2.6.0/library\ssl_cache.c **** exit:
 129:C:/Users/lenovo/Desktop/liteos/Project2/BearPi_LiteOS/components/security/mbedtls/mbedtls-2.6.0/library\ssl_cache.c **** #if defined(MBEDTLS_THREADING_C)
 130:C:/Users/lenovo/Desktop/liteos/Project2/BearPi_LiteOS/components/security/mbedtls/mbedtls-2.6.0/library\ssl_cache.c ****     if( mbedtls_mutex_unlock( &cache->mutex ) != 0 )
 131:C:/Users/lenovo/Desktop/liteos/Project2/BearPi_LiteOS/components/security/mbedtls/mbedtls-2.6.0/library\ssl_cache.c ****         ret = 1;
 132:C:/Users/lenovo/Desktop/liteos/Project2/BearPi_LiteOS/components/security/mbedtls/mbedtls-2.6.0/library\ssl_cache.c **** #endif
 133:C:/Users/lenovo/Desktop/liteos/Project2/BearPi_LiteOS/components/security/mbedtls/mbedtls-2.6.0/library\ssl_cache.c **** 
 134:C:/Users/lenovo/Desktop/liteos/Project2/BearPi_LiteOS/components/security/mbedtls/mbedtls-2.6.0/library\ssl_cache.c ****     return( ret );
 135:C:/Users/lenovo/Desktop/liteos/Project2/BearPi_LiteOS/components/security/mbedtls/mbedtls-2.6.0/library\ssl_cache.c **** }
 165              		.loc 1 135 0
 166 0078 0846     		mov	r0, r1
 167 007a F8BD     		pop	{r3, r4, r5, r6, r7, pc}
 168              		.cfi_endproc
 169              	.LFE15:
 171              		.section	.text.mbedtls_ssl_cache_set,"ax",%progbits
 172              		.align	1
 173              		.global	mbedtls_ssl_cache_set
 174              		.syntax unified
 175              		.thumb
 176              		.thumb_func
 177              		.fpu fpv4-sp-d16
 179              	mbedtls_ssl_cache_set:
 180              	.LFB16:
 136:C:/Users/lenovo/Desktop/liteos/Project2/BearPi_LiteOS/components/security/mbedtls/mbedtls-2.6.0/library\ssl_cache.c **** 
 137:C:/Users/lenovo/Desktop/liteos/Project2/BearPi_LiteOS/components/security/mbedtls/mbedtls-2.6.0/library\ssl_cache.c **** int mbedtls_ssl_cache_set( void *data, const mbedtls_ssl_session *session )
 138:C:/Users/lenovo/Desktop/liteos/Project2/BearPi_LiteOS/components/security/mbedtls/mbedtls-2.6.0/library\ssl_cache.c **** {
 181              		.loc 1 138 0
 182              		.cfi_startproc
 183              		@ args = 0, pretend = 0, frame = 0
 184              		@ frame_needed = 0, uses_anonymous_args = 0
 185              	.LVL19:
 186 0000 2DE9F843 		push	{r3, r4, r5, r6, r7, r8, r9, lr}
 187              	.LCFI1:
 188              		.cfi_def_cfa_offset 32
 189              		.cfi_offset 3, -32
 190              		.cfi_offset 4, -28
 191              		.cfi_offset 5, -24
 192              		.cfi_offset 6, -20
 193              		.cfi_offset 7, -16
 194              		.cfi_offset 8, -12
 195              		.cfi_offset 9, -8
 196              		.cfi_offset 14, -4
 197 0004 8046     		mov	r8, r0
 198 0006 0E46     		mov	r6, r1
 199              	.LVL20:
 139:C:/Users/lenovo/Desktop/liteos/Project2/BearPi_LiteOS/components/security/mbedtls/mbedtls-2.6.0/library\ssl_cache.c ****     int ret = 1;
ARM GAS  c:\Users\lenovo\AppData\Local\Temp\ccXjwvs0.s 			page 7


 140:C:/Users/lenovo/Desktop/liteos/Project2/BearPi_LiteOS/components/security/mbedtls/mbedtls-2.6.0/library\ssl_cache.c **** #if defined(MBEDTLS_HAVE_TIME)
 141:C:/Users/lenovo/Desktop/liteos/Project2/BearPi_LiteOS/components/security/mbedtls/mbedtls-2.6.0/library\ssl_cache.c ****     mbedtls_time_t t = mbedtls_time( NULL ), oldest = 0;
 142:C:/Users/lenovo/Desktop/liteos/Project2/BearPi_LiteOS/components/security/mbedtls/mbedtls-2.6.0/library\ssl_cache.c ****     mbedtls_ssl_cache_entry *old = NULL;
 143:C:/Users/lenovo/Desktop/liteos/Project2/BearPi_LiteOS/components/security/mbedtls/mbedtls-2.6.0/library\ssl_cache.c **** #endif
 144:C:/Users/lenovo/Desktop/liteos/Project2/BearPi_LiteOS/components/security/mbedtls/mbedtls-2.6.0/library\ssl_cache.c ****     mbedtls_ssl_cache_context *cache = (mbedtls_ssl_cache_context *) data;
 145:C:/Users/lenovo/Desktop/liteos/Project2/BearPi_LiteOS/components/security/mbedtls/mbedtls-2.6.0/library\ssl_cache.c ****     mbedtls_ssl_cache_entry *cur, *prv;
 146:C:/Users/lenovo/Desktop/liteos/Project2/BearPi_LiteOS/components/security/mbedtls/mbedtls-2.6.0/library\ssl_cache.c ****     int count = 0;
 147:C:/Users/lenovo/Desktop/liteos/Project2/BearPi_LiteOS/components/security/mbedtls/mbedtls-2.6.0/library\ssl_cache.c **** 
 148:C:/Users/lenovo/Desktop/liteos/Project2/BearPi_LiteOS/components/security/mbedtls/mbedtls-2.6.0/library\ssl_cache.c **** #if defined(MBEDTLS_THREADING_C)
 149:C:/Users/lenovo/Desktop/liteos/Project2/BearPi_LiteOS/components/security/mbedtls/mbedtls-2.6.0/library\ssl_cache.c ****     if( ( ret = mbedtls_mutex_lock( &cache->mutex ) ) != 0 )
 150:C:/Users/lenovo/Desktop/liteos/Project2/BearPi_LiteOS/components/security/mbedtls/mbedtls-2.6.0/library\ssl_cache.c ****         return( ret );
 151:C:/Users/lenovo/Desktop/liteos/Project2/BearPi_LiteOS/components/security/mbedtls/mbedtls-2.6.0/library\ssl_cache.c **** #endif
 152:C:/Users/lenovo/Desktop/liteos/Project2/BearPi_LiteOS/components/security/mbedtls/mbedtls-2.6.0/library\ssl_cache.c **** 
 153:C:/Users/lenovo/Desktop/liteos/Project2/BearPi_LiteOS/components/security/mbedtls/mbedtls-2.6.0/library\ssl_cache.c ****     cur = cache->chain;
 200              		.loc 1 153 0
 201 0008 D0F80090 		ldr	r9, [r0]
 202              	.LVL21:
 203 000c 4C46     		mov	r4, r9
 146:C:/Users/lenovo/Desktop/liteos/Project2/BearPi_LiteOS/components/security/mbedtls/mbedtls-2.6.0/library\ssl_cache.c **** 
 204              		.loc 1 146 0
 205 000e 0025     		movs	r5, #0
 154:C:/Users/lenovo/Desktop/liteos/Project2/BearPi_LiteOS/components/security/mbedtls/mbedtls-2.6.0/library\ssl_cache.c ****     prv = NULL;
 206              		.loc 1 154 0
 207 0010 2F46     		mov	r7, r5
 208              	.LVL22:
 209              	.L17:
 155:C:/Users/lenovo/Desktop/liteos/Project2/BearPi_LiteOS/components/security/mbedtls/mbedtls-2.6.0/library\ssl_cache.c **** 
 156:C:/Users/lenovo/Desktop/liteos/Project2/BearPi_LiteOS/components/security/mbedtls/mbedtls-2.6.0/library\ssl_cache.c ****     while( cur != NULL )
 210              		.loc 1 156 0
 211 0012 5CB1     		cbz	r4, .L18
 157:C:/Users/lenovo/Desktop/liteos/Project2/BearPi_LiteOS/components/security/mbedtls/mbedtls-2.6.0/library\ssl_cache.c ****     {
 158:C:/Users/lenovo/Desktop/liteos/Project2/BearPi_LiteOS/components/security/mbedtls/mbedtls-2.6.0/library\ssl_cache.c ****         count++;
 212              		.loc 1 158 0
 213 0014 0135     		adds	r5, r5, #1
 214              	.LVL23:
 159:C:/Users/lenovo/Desktop/liteos/Project2/BearPi_LiteOS/components/security/mbedtls/mbedtls-2.6.0/library\ssl_cache.c **** 
 160:C:/Users/lenovo/Desktop/liteos/Project2/BearPi_LiteOS/components/security/mbedtls/mbedtls-2.6.0/library\ssl_cache.c **** #if defined(MBEDTLS_HAVE_TIME)
 161:C:/Users/lenovo/Desktop/liteos/Project2/BearPi_LiteOS/components/security/mbedtls/mbedtls-2.6.0/library\ssl_cache.c ****         if( cache->timeout != 0 &&
 162:C:/Users/lenovo/Desktop/liteos/Project2/BearPi_LiteOS/components/security/mbedtls/mbedtls-2.6.0/library\ssl_cache.c ****             (int) ( t - cur->timestamp ) > cache->timeout )
 163:C:/Users/lenovo/Desktop/liteos/Project2/BearPi_LiteOS/components/security/mbedtls/mbedtls-2.6.0/library\ssl_cache.c ****         {
 164:C:/Users/lenovo/Desktop/liteos/Project2/BearPi_LiteOS/components/security/mbedtls/mbedtls-2.6.0/library\ssl_cache.c ****             cur->timestamp = t;
 165:C:/Users/lenovo/Desktop/liteos/Project2/BearPi_LiteOS/components/security/mbedtls/mbedtls-2.6.0/library\ssl_cache.c ****             break; /* expired, reuse this slot, update timestamp */
 166:C:/Users/lenovo/Desktop/liteos/Project2/BearPi_LiteOS/components/security/mbedtls/mbedtls-2.6.0/library\ssl_cache.c ****         }
 167:C:/Users/lenovo/Desktop/liteos/Project2/BearPi_LiteOS/components/security/mbedtls/mbedtls-2.6.0/library\ssl_cache.c **** #endif
 168:C:/Users/lenovo/Desktop/liteos/Project2/BearPi_LiteOS/components/security/mbedtls/mbedtls-2.6.0/library\ssl_cache.c **** 
 169:C:/Users/lenovo/Desktop/liteos/Project2/BearPi_LiteOS/components/security/mbedtls/mbedtls-2.6.0/library\ssl_cache.c ****         if( memcmp( session->id, cur->session.id, cur->session.id_len ) == 0 )
 215              		.loc 1 169 0
 216 0016 A268     		ldr	r2, [r4, #8]
 217 0018 04F10C01 		add	r1, r4, #12
 218 001c 06F10C00 		add	r0, r6, #12
 219 0020 FFF7FEFF 		bl	memcmp
 220              	.LVL24:
 221 0024 10B1     		cbz	r0, .L18
 222              	.LVL25:
 170:C:/Users/lenovo/Desktop/liteos/Project2/BearPi_LiteOS/components/security/mbedtls/mbedtls-2.6.0/library\ssl_cache.c ****             break; /* client reconnected, keep timestamp for session id */
 171:C:/Users/lenovo/Desktop/liteos/Project2/BearPi_LiteOS/components/security/mbedtls/mbedtls-2.6.0/library\ssl_cache.c **** 
 172:C:/Users/lenovo/Desktop/liteos/Project2/BearPi_LiteOS/components/security/mbedtls/mbedtls-2.6.0/library\ssl_cache.c **** #if defined(MBEDTLS_HAVE_TIME)
ARM GAS  c:\Users\lenovo\AppData\Local\Temp\ccXjwvs0.s 			page 8


 173:C:/Users/lenovo/Desktop/liteos/Project2/BearPi_LiteOS/components/security/mbedtls/mbedtls-2.6.0/library\ssl_cache.c ****         if( oldest == 0 || cur->timestamp < oldest )
 174:C:/Users/lenovo/Desktop/liteos/Project2/BearPi_LiteOS/components/security/mbedtls/mbedtls-2.6.0/library\ssl_cache.c ****         {
 175:C:/Users/lenovo/Desktop/liteos/Project2/BearPi_LiteOS/components/security/mbedtls/mbedtls-2.6.0/library\ssl_cache.c ****             oldest = cur->timestamp;
 176:C:/Users/lenovo/Desktop/liteos/Project2/BearPi_LiteOS/components/security/mbedtls/mbedtls-2.6.0/library\ssl_cache.c ****             old = cur;
 177:C:/Users/lenovo/Desktop/liteos/Project2/BearPi_LiteOS/components/security/mbedtls/mbedtls-2.6.0/library\ssl_cache.c ****         }
 178:C:/Users/lenovo/Desktop/liteos/Project2/BearPi_LiteOS/components/security/mbedtls/mbedtls-2.6.0/library\ssl_cache.c **** #endif
 179:C:/Users/lenovo/Desktop/liteos/Project2/BearPi_LiteOS/components/security/mbedtls/mbedtls-2.6.0/library\ssl_cache.c **** 
 180:C:/Users/lenovo/Desktop/liteos/Project2/BearPi_LiteOS/components/security/mbedtls/mbedtls-2.6.0/library\ssl_cache.c ****         prv = cur;
 223              		.loc 1 180 0
 224 0026 2746     		mov	r7, r4
 181:C:/Users/lenovo/Desktop/liteos/Project2/BearPi_LiteOS/components/security/mbedtls/mbedtls-2.6.0/library\ssl_cache.c ****         cur = cur->next;
 225              		.loc 1 181 0
 226 0028 646E     		ldr	r4, [r4, #100]
 227              	.LVL26:
 228 002a F2E7     		b	.L17
 229              	.L18:
 182:C:/Users/lenovo/Desktop/liteos/Project2/BearPi_LiteOS/components/security/mbedtls/mbedtls-2.6.0/library\ssl_cache.c ****     }
 183:C:/Users/lenovo/Desktop/liteos/Project2/BearPi_LiteOS/components/security/mbedtls/mbedtls-2.6.0/library\ssl_cache.c **** 
 184:C:/Users/lenovo/Desktop/liteos/Project2/BearPi_LiteOS/components/security/mbedtls/mbedtls-2.6.0/library\ssl_cache.c ****     if( cur == NULL )
 230              		.loc 1 184 0
 231 002c 3CB1     		cbz	r4, .L27
 232              	.L20:
 185:C:/Users/lenovo/Desktop/liteos/Project2/BearPi_LiteOS/components/security/mbedtls/mbedtls-2.6.0/library\ssl_cache.c ****     {
 186:C:/Users/lenovo/Desktop/liteos/Project2/BearPi_LiteOS/components/security/mbedtls/mbedtls-2.6.0/library\ssl_cache.c **** #if defined(MBEDTLS_HAVE_TIME)
 187:C:/Users/lenovo/Desktop/liteos/Project2/BearPi_LiteOS/components/security/mbedtls/mbedtls-2.6.0/library\ssl_cache.c ****         /*
 188:C:/Users/lenovo/Desktop/liteos/Project2/BearPi_LiteOS/components/security/mbedtls/mbedtls-2.6.0/library\ssl_cache.c ****          * Reuse oldest entry if max_entries reached
 189:C:/Users/lenovo/Desktop/liteos/Project2/BearPi_LiteOS/components/security/mbedtls/mbedtls-2.6.0/library\ssl_cache.c ****          */
 190:C:/Users/lenovo/Desktop/liteos/Project2/BearPi_LiteOS/components/security/mbedtls/mbedtls-2.6.0/library\ssl_cache.c ****         if( count >= cache->max_entries )
 191:C:/Users/lenovo/Desktop/liteos/Project2/BearPi_LiteOS/components/security/mbedtls/mbedtls-2.6.0/library\ssl_cache.c ****         {
 192:C:/Users/lenovo/Desktop/liteos/Project2/BearPi_LiteOS/components/security/mbedtls/mbedtls-2.6.0/library\ssl_cache.c ****             if( old == NULL )
 193:C:/Users/lenovo/Desktop/liteos/Project2/BearPi_LiteOS/components/security/mbedtls/mbedtls-2.6.0/library\ssl_cache.c ****             {
 194:C:/Users/lenovo/Desktop/liteos/Project2/BearPi_LiteOS/components/security/mbedtls/mbedtls-2.6.0/library\ssl_cache.c ****                 ret = 1;
 195:C:/Users/lenovo/Desktop/liteos/Project2/BearPi_LiteOS/components/security/mbedtls/mbedtls-2.6.0/library\ssl_cache.c ****                 goto exit;
 196:C:/Users/lenovo/Desktop/liteos/Project2/BearPi_LiteOS/components/security/mbedtls/mbedtls-2.6.0/library\ssl_cache.c ****             }
 197:C:/Users/lenovo/Desktop/liteos/Project2/BearPi_LiteOS/components/security/mbedtls/mbedtls-2.6.0/library\ssl_cache.c **** 
 198:C:/Users/lenovo/Desktop/liteos/Project2/BearPi_LiteOS/components/security/mbedtls/mbedtls-2.6.0/library\ssl_cache.c ****             cur = old;
 199:C:/Users/lenovo/Desktop/liteos/Project2/BearPi_LiteOS/components/security/mbedtls/mbedtls-2.6.0/library\ssl_cache.c ****         }
 200:C:/Users/lenovo/Desktop/liteos/Project2/BearPi_LiteOS/components/security/mbedtls/mbedtls-2.6.0/library\ssl_cache.c **** #else /* MBEDTLS_HAVE_TIME */
 201:C:/Users/lenovo/Desktop/liteos/Project2/BearPi_LiteOS/components/security/mbedtls/mbedtls-2.6.0/library\ssl_cache.c ****         /*
 202:C:/Users/lenovo/Desktop/liteos/Project2/BearPi_LiteOS/components/security/mbedtls/mbedtls-2.6.0/library\ssl_cache.c ****          * Reuse first entry in chain if max_entries reached,
 203:C:/Users/lenovo/Desktop/liteos/Project2/BearPi_LiteOS/components/security/mbedtls/mbedtls-2.6.0/library\ssl_cache.c ****          * but move to last place
 204:C:/Users/lenovo/Desktop/liteos/Project2/BearPi_LiteOS/components/security/mbedtls/mbedtls-2.6.0/library\ssl_cache.c ****          */
 205:C:/Users/lenovo/Desktop/liteos/Project2/BearPi_LiteOS/components/security/mbedtls/mbedtls-2.6.0/library\ssl_cache.c ****         if( count >= cache->max_entries )
 206:C:/Users/lenovo/Desktop/liteos/Project2/BearPi_LiteOS/components/security/mbedtls/mbedtls-2.6.0/library\ssl_cache.c ****         {
 207:C:/Users/lenovo/Desktop/liteos/Project2/BearPi_LiteOS/components/security/mbedtls/mbedtls-2.6.0/library\ssl_cache.c ****             if( cache->chain == NULL )
 208:C:/Users/lenovo/Desktop/liteos/Project2/BearPi_LiteOS/components/security/mbedtls/mbedtls-2.6.0/library\ssl_cache.c ****             {
 209:C:/Users/lenovo/Desktop/liteos/Project2/BearPi_LiteOS/components/security/mbedtls/mbedtls-2.6.0/library\ssl_cache.c ****                 ret = 1;
 210:C:/Users/lenovo/Desktop/liteos/Project2/BearPi_LiteOS/components/security/mbedtls/mbedtls-2.6.0/library\ssl_cache.c ****                 goto exit;
 211:C:/Users/lenovo/Desktop/liteos/Project2/BearPi_LiteOS/components/security/mbedtls/mbedtls-2.6.0/library\ssl_cache.c ****             }
 212:C:/Users/lenovo/Desktop/liteos/Project2/BearPi_LiteOS/components/security/mbedtls/mbedtls-2.6.0/library\ssl_cache.c **** 
 213:C:/Users/lenovo/Desktop/liteos/Project2/BearPi_LiteOS/components/security/mbedtls/mbedtls-2.6.0/library\ssl_cache.c ****             cur = cache->chain;
 214:C:/Users/lenovo/Desktop/liteos/Project2/BearPi_LiteOS/components/security/mbedtls/mbedtls-2.6.0/library\ssl_cache.c ****             cache->chain = cur->next;
 215:C:/Users/lenovo/Desktop/liteos/Project2/BearPi_LiteOS/components/security/mbedtls/mbedtls-2.6.0/library\ssl_cache.c ****             cur->next = NULL;
 216:C:/Users/lenovo/Desktop/liteos/Project2/BearPi_LiteOS/components/security/mbedtls/mbedtls-2.6.0/library\ssl_cache.c ****             prv->next = cur;
 217:C:/Users/lenovo/Desktop/liteos/Project2/BearPi_LiteOS/components/security/mbedtls/mbedtls-2.6.0/library\ssl_cache.c ****         }
 218:C:/Users/lenovo/Desktop/liteos/Project2/BearPi_LiteOS/components/security/mbedtls/mbedtls-2.6.0/library\ssl_cache.c **** #endif /* MBEDTLS_HAVE_TIME */
 219:C:/Users/lenovo/Desktop/liteos/Project2/BearPi_LiteOS/components/security/mbedtls/mbedtls-2.6.0/library\ssl_cache.c ****         else
ARM GAS  c:\Users\lenovo\AppData\Local\Temp\ccXjwvs0.s 			page 9


 220:C:/Users/lenovo/Desktop/liteos/Project2/BearPi_LiteOS/components/security/mbedtls/mbedtls-2.6.0/library\ssl_cache.c ****         {
 221:C:/Users/lenovo/Desktop/liteos/Project2/BearPi_LiteOS/components/security/mbedtls/mbedtls-2.6.0/library\ssl_cache.c ****             /*
 222:C:/Users/lenovo/Desktop/liteos/Project2/BearPi_LiteOS/components/security/mbedtls/mbedtls-2.6.0/library\ssl_cache.c ****              * max_entries not reached, create new entry
 223:C:/Users/lenovo/Desktop/liteos/Project2/BearPi_LiteOS/components/security/mbedtls/mbedtls-2.6.0/library\ssl_cache.c ****              */
 224:C:/Users/lenovo/Desktop/liteos/Project2/BearPi_LiteOS/components/security/mbedtls/mbedtls-2.6.0/library\ssl_cache.c ****             cur = mbedtls_calloc( 1, sizeof(mbedtls_ssl_cache_entry) );
 225:C:/Users/lenovo/Desktop/liteos/Project2/BearPi_LiteOS/components/security/mbedtls/mbedtls-2.6.0/library\ssl_cache.c ****             if( cur == NULL )
 226:C:/Users/lenovo/Desktop/liteos/Project2/BearPi_LiteOS/components/security/mbedtls/mbedtls-2.6.0/library\ssl_cache.c ****             {
 227:C:/Users/lenovo/Desktop/liteos/Project2/BearPi_LiteOS/components/security/mbedtls/mbedtls-2.6.0/library\ssl_cache.c ****                 ret = 1;
 228:C:/Users/lenovo/Desktop/liteos/Project2/BearPi_LiteOS/components/security/mbedtls/mbedtls-2.6.0/library\ssl_cache.c ****                 goto exit;
 229:C:/Users/lenovo/Desktop/liteos/Project2/BearPi_LiteOS/components/security/mbedtls/mbedtls-2.6.0/library\ssl_cache.c ****             }
 230:C:/Users/lenovo/Desktop/liteos/Project2/BearPi_LiteOS/components/security/mbedtls/mbedtls-2.6.0/library\ssl_cache.c **** 
 231:C:/Users/lenovo/Desktop/liteos/Project2/BearPi_LiteOS/components/security/mbedtls/mbedtls-2.6.0/library\ssl_cache.c ****             if( prv == NULL )
 232:C:/Users/lenovo/Desktop/liteos/Project2/BearPi_LiteOS/components/security/mbedtls/mbedtls-2.6.0/library\ssl_cache.c ****                 cache->chain = cur;
 233:C:/Users/lenovo/Desktop/liteos/Project2/BearPi_LiteOS/components/security/mbedtls/mbedtls-2.6.0/library\ssl_cache.c ****             else
 234:C:/Users/lenovo/Desktop/liteos/Project2/BearPi_LiteOS/components/security/mbedtls/mbedtls-2.6.0/library\ssl_cache.c ****                 prv->next = cur;
 235:C:/Users/lenovo/Desktop/liteos/Project2/BearPi_LiteOS/components/security/mbedtls/mbedtls-2.6.0/library\ssl_cache.c ****         }
 236:C:/Users/lenovo/Desktop/liteos/Project2/BearPi_LiteOS/components/security/mbedtls/mbedtls-2.6.0/library\ssl_cache.c **** 
 237:C:/Users/lenovo/Desktop/liteos/Project2/BearPi_LiteOS/components/security/mbedtls/mbedtls-2.6.0/library\ssl_cache.c **** #if defined(MBEDTLS_HAVE_TIME)
 238:C:/Users/lenovo/Desktop/liteos/Project2/BearPi_LiteOS/components/security/mbedtls/mbedtls-2.6.0/library\ssl_cache.c ****         cur->timestamp = t;
 239:C:/Users/lenovo/Desktop/liteos/Project2/BearPi_LiteOS/components/security/mbedtls/mbedtls-2.6.0/library\ssl_cache.c **** #endif
 240:C:/Users/lenovo/Desktop/liteos/Project2/BearPi_LiteOS/components/security/mbedtls/mbedtls-2.6.0/library\ssl_cache.c ****     }
 241:C:/Users/lenovo/Desktop/liteos/Project2/BearPi_LiteOS/components/security/mbedtls/mbedtls-2.6.0/library\ssl_cache.c **** 
 242:C:/Users/lenovo/Desktop/liteos/Project2/BearPi_LiteOS/components/security/mbedtls/mbedtls-2.6.0/library\ssl_cache.c ****     memcpy( &cur->session, session, sizeof( mbedtls_ssl_session ) );
 233              		.loc 1 242 0
 234 002e 6422     		movs	r2, #100
 235 0030 3146     		mov	r1, r6
 236 0032 2046     		mov	r0, r4
 237 0034 FFF7FEFF 		bl	memcpy
 238              	.LVL27:
 243:C:/Users/lenovo/Desktop/liteos/Project2/BearPi_LiteOS/components/security/mbedtls/mbedtls-2.6.0/library\ssl_cache.c **** 
 244:C:/Users/lenovo/Desktop/liteos/Project2/BearPi_LiteOS/components/security/mbedtls/mbedtls-2.6.0/library\ssl_cache.c **** #if defined(MBEDTLS_X509_CRT_PARSE_C)
 245:C:/Users/lenovo/Desktop/liteos/Project2/BearPi_LiteOS/components/security/mbedtls/mbedtls-2.6.0/library\ssl_cache.c ****     /*
 246:C:/Users/lenovo/Desktop/liteos/Project2/BearPi_LiteOS/components/security/mbedtls/mbedtls-2.6.0/library\ssl_cache.c ****      * If we're reusing an entry, free its certificate first
 247:C:/Users/lenovo/Desktop/liteos/Project2/BearPi_LiteOS/components/security/mbedtls/mbedtls-2.6.0/library\ssl_cache.c ****      */
 248:C:/Users/lenovo/Desktop/liteos/Project2/BearPi_LiteOS/components/security/mbedtls/mbedtls-2.6.0/library\ssl_cache.c ****     if( cur->peer_cert.p != NULL )
 249:C:/Users/lenovo/Desktop/liteos/Project2/BearPi_LiteOS/components/security/mbedtls/mbedtls-2.6.0/library\ssl_cache.c ****     {
 250:C:/Users/lenovo/Desktop/liteos/Project2/BearPi_LiteOS/components/security/mbedtls/mbedtls-2.6.0/library\ssl_cache.c ****         mbedtls_free( cur->peer_cert.p );
 251:C:/Users/lenovo/Desktop/liteos/Project2/BearPi_LiteOS/components/security/mbedtls/mbedtls-2.6.0/library\ssl_cache.c ****         memset( &cur->peer_cert, 0, sizeof(mbedtls_x509_buf) );
 252:C:/Users/lenovo/Desktop/liteos/Project2/BearPi_LiteOS/components/security/mbedtls/mbedtls-2.6.0/library\ssl_cache.c ****     }
 253:C:/Users/lenovo/Desktop/liteos/Project2/BearPi_LiteOS/components/security/mbedtls/mbedtls-2.6.0/library\ssl_cache.c **** 
 254:C:/Users/lenovo/Desktop/liteos/Project2/BearPi_LiteOS/components/security/mbedtls/mbedtls-2.6.0/library\ssl_cache.c ****     /*
 255:C:/Users/lenovo/Desktop/liteos/Project2/BearPi_LiteOS/components/security/mbedtls/mbedtls-2.6.0/library\ssl_cache.c ****      * Store peer certificate
 256:C:/Users/lenovo/Desktop/liteos/Project2/BearPi_LiteOS/components/security/mbedtls/mbedtls-2.6.0/library\ssl_cache.c ****      */
 257:C:/Users/lenovo/Desktop/liteos/Project2/BearPi_LiteOS/components/security/mbedtls/mbedtls-2.6.0/library\ssl_cache.c ****     if( session->peer_cert != NULL )
 258:C:/Users/lenovo/Desktop/liteos/Project2/BearPi_LiteOS/components/security/mbedtls/mbedtls-2.6.0/library\ssl_cache.c ****     {
 259:C:/Users/lenovo/Desktop/liteos/Project2/BearPi_LiteOS/components/security/mbedtls/mbedtls-2.6.0/library\ssl_cache.c ****         cur->peer_cert.p = mbedtls_calloc( 1, session->peer_cert->raw.len );
 260:C:/Users/lenovo/Desktop/liteos/Project2/BearPi_LiteOS/components/security/mbedtls/mbedtls-2.6.0/library\ssl_cache.c ****         if( cur->peer_cert.p == NULL )
 261:C:/Users/lenovo/Desktop/liteos/Project2/BearPi_LiteOS/components/security/mbedtls/mbedtls-2.6.0/library\ssl_cache.c ****         {
 262:C:/Users/lenovo/Desktop/liteos/Project2/BearPi_LiteOS/components/security/mbedtls/mbedtls-2.6.0/library\ssl_cache.c ****             ret = 1;
 263:C:/Users/lenovo/Desktop/liteos/Project2/BearPi_LiteOS/components/security/mbedtls/mbedtls-2.6.0/library\ssl_cache.c ****             goto exit;
 264:C:/Users/lenovo/Desktop/liteos/Project2/BearPi_LiteOS/components/security/mbedtls/mbedtls-2.6.0/library\ssl_cache.c ****         }
 265:C:/Users/lenovo/Desktop/liteos/Project2/BearPi_LiteOS/components/security/mbedtls/mbedtls-2.6.0/library\ssl_cache.c **** 
 266:C:/Users/lenovo/Desktop/liteos/Project2/BearPi_LiteOS/components/security/mbedtls/mbedtls-2.6.0/library\ssl_cache.c ****         memcpy( cur->peer_cert.p, session->peer_cert->raw.p,
 267:C:/Users/lenovo/Desktop/liteos/Project2/BearPi_LiteOS/components/security/mbedtls/mbedtls-2.6.0/library\ssl_cache.c ****                 session->peer_cert->raw.len );
 268:C:/Users/lenovo/Desktop/liteos/Project2/BearPi_LiteOS/components/security/mbedtls/mbedtls-2.6.0/library\ssl_cache.c ****         cur->peer_cert.len = session->peer_cert->raw.len;
 269:C:/Users/lenovo/Desktop/liteos/Project2/BearPi_LiteOS/components/security/mbedtls/mbedtls-2.6.0/library\ssl_cache.c **** 
 270:C:/Users/lenovo/Desktop/liteos/Project2/BearPi_LiteOS/components/security/mbedtls/mbedtls-2.6.0/library\ssl_cache.c ****         cur->session.peer_cert = NULL;
ARM GAS  c:\Users\lenovo\AppData\Local\Temp\ccXjwvs0.s 			page 10


 271:C:/Users/lenovo/Desktop/liteos/Project2/BearPi_LiteOS/components/security/mbedtls/mbedtls-2.6.0/library\ssl_cache.c ****     }
 272:C:/Users/lenovo/Desktop/liteos/Project2/BearPi_LiteOS/components/security/mbedtls/mbedtls-2.6.0/library\ssl_cache.c **** #endif /* MBEDTLS_X509_CRT_PARSE_C */
 273:C:/Users/lenovo/Desktop/liteos/Project2/BearPi_LiteOS/components/security/mbedtls/mbedtls-2.6.0/library\ssl_cache.c **** 
 274:C:/Users/lenovo/Desktop/liteos/Project2/BearPi_LiteOS/components/security/mbedtls/mbedtls-2.6.0/library\ssl_cache.c ****     ret = 0;
 239              		.loc 1 274 0
 240 0038 0020     		movs	r0, #0
 241              	.LVL28:
 242              	.L16:
 275:C:/Users/lenovo/Desktop/liteos/Project2/BearPi_LiteOS/components/security/mbedtls/mbedtls-2.6.0/library\ssl_cache.c **** 
 276:C:/Users/lenovo/Desktop/liteos/Project2/BearPi_LiteOS/components/security/mbedtls/mbedtls-2.6.0/library\ssl_cache.c **** exit:
 277:C:/Users/lenovo/Desktop/liteos/Project2/BearPi_LiteOS/components/security/mbedtls/mbedtls-2.6.0/library\ssl_cache.c **** #if defined(MBEDTLS_THREADING_C)
 278:C:/Users/lenovo/Desktop/liteos/Project2/BearPi_LiteOS/components/security/mbedtls/mbedtls-2.6.0/library\ssl_cache.c ****     if( mbedtls_mutex_unlock( &cache->mutex ) != 0 )
 279:C:/Users/lenovo/Desktop/liteos/Project2/BearPi_LiteOS/components/security/mbedtls/mbedtls-2.6.0/library\ssl_cache.c ****         ret = 1;
 280:C:/Users/lenovo/Desktop/liteos/Project2/BearPi_LiteOS/components/security/mbedtls/mbedtls-2.6.0/library\ssl_cache.c **** #endif
 281:C:/Users/lenovo/Desktop/liteos/Project2/BearPi_LiteOS/components/security/mbedtls/mbedtls-2.6.0/library\ssl_cache.c **** 
 282:C:/Users/lenovo/Desktop/liteos/Project2/BearPi_LiteOS/components/security/mbedtls/mbedtls-2.6.0/library\ssl_cache.c ****     return( ret );
 283:C:/Users/lenovo/Desktop/liteos/Project2/BearPi_LiteOS/components/security/mbedtls/mbedtls-2.6.0/library\ssl_cache.c **** }
 243              		.loc 1 283 0
 244 003a BDE8F883 		pop	{r3, r4, r5, r6, r7, r8, r9, pc}
 245              	.LVL29:
 246              	.L27:
 205:C:/Users/lenovo/Desktop/liteos/Project2/BearPi_LiteOS/components/security/mbedtls/mbedtls-2.6.0/library\ssl_cache.c ****         {
 247              		.loc 1 205 0
 248 003e D8F80830 		ldr	r3, [r8, #8]
 249 0042 AB42     		cmp	r3, r5
 250 0044 09DD     		ble	.L28
 224:C:/Users/lenovo/Desktop/liteos/Project2/BearPi_LiteOS/components/security/mbedtls/mbedtls-2.6.0/library\ssl_cache.c ****             if( cur == NULL )
 251              		.loc 1 224 0
 252 0046 0F4B     		ldr	r3, .L30
 253 0048 1B68     		ldr	r3, [r3]
 254 004a 6821     		movs	r1, #104
 255 004c 0120     		movs	r0, #1
 256 004e 9847     		blx	r3
 257              	.LVL30:
 225:C:/Users/lenovo/Desktop/liteos/Project2/BearPi_LiteOS/components/security/mbedtls/mbedtls-2.6.0/library\ssl_cache.c ****             {
 258              		.loc 1 225 0
 259 0050 0446     		mov	r4, r0
 260 0052 A8B1     		cbz	r0, .L25
 231:C:/Users/lenovo/Desktop/liteos/Project2/BearPi_LiteOS/components/security/mbedtls/mbedtls-2.6.0/library\ssl_cache.c ****                 cache->chain = cur;
 261              		.loc 1 231 0
 262 0054 7FB1     		cbz	r7, .L29
 234:C:/Users/lenovo/Desktop/liteos/Project2/BearPi_LiteOS/components/security/mbedtls/mbedtls-2.6.0/library\ssl_cache.c ****         }
 263              		.loc 1 234 0
 264 0056 7866     		str	r0, [r7, #100]
 265 0058 E9E7     		b	.L20
 266              	.LVL31:
 267              	.L28:
 207:C:/Users/lenovo/Desktop/liteos/Project2/BearPi_LiteOS/components/security/mbedtls/mbedtls-2.6.0/library\ssl_cache.c ****             {
 268              		.loc 1 207 0
 269 005a B9F1000F 		cmp	r9, #0
 270 005e 0DD0     		beq	.L24
 271              	.LVL32:
 214:C:/Users/lenovo/Desktop/liteos/Project2/BearPi_LiteOS/components/security/mbedtls/mbedtls-2.6.0/library\ssl_cache.c ****             cur->next = NULL;
 272              		.loc 1 214 0
 273 0060 D9F86430 		ldr	r3, [r9, #100]
 274 0064 C8F80030 		str	r3, [r8]
 215:C:/Users/lenovo/Desktop/liteos/Project2/BearPi_LiteOS/components/security/mbedtls/mbedtls-2.6.0/library\ssl_cache.c ****             prv->next = cur;
ARM GAS  c:\Users\lenovo\AppData\Local\Temp\ccXjwvs0.s 			page 11


 275              		.loc 1 215 0
 276 0068 0023     		movs	r3, #0
 277 006a C9F86430 		str	r3, [r9, #100]
 216:C:/Users/lenovo/Desktop/liteos/Project2/BearPi_LiteOS/components/security/mbedtls/mbedtls-2.6.0/library\ssl_cache.c ****         }
 278              		.loc 1 216 0
 279 006e C7F86490 		str	r9, [r7, #100]
 213:C:/Users/lenovo/Desktop/liteos/Project2/BearPi_LiteOS/components/security/mbedtls/mbedtls-2.6.0/library\ssl_cache.c ****             cache->chain = cur->next;
 280              		.loc 1 213 0
 281 0072 4C46     		mov	r4, r9
 282 0074 DBE7     		b	.L20
 283              	.LVL33:
 284              	.L29:
 232:C:/Users/lenovo/Desktop/liteos/Project2/BearPi_LiteOS/components/security/mbedtls/mbedtls-2.6.0/library\ssl_cache.c ****             else
 285              		.loc 1 232 0
 286 0076 C8F80000 		str	r0, [r8]
 287 007a D8E7     		b	.L20
 288              	.LVL34:
 289              	.L24:
 209:C:/Users/lenovo/Desktop/liteos/Project2/BearPi_LiteOS/components/security/mbedtls/mbedtls-2.6.0/library\ssl_cache.c ****                 goto exit;
 290              		.loc 1 209 0
 291 007c 0120     		movs	r0, #1
 292 007e DCE7     		b	.L16
 293              	.LVL35:
 294              	.L25:
 227:C:/Users/lenovo/Desktop/liteos/Project2/BearPi_LiteOS/components/security/mbedtls/mbedtls-2.6.0/library\ssl_cache.c ****                 goto exit;
 295              		.loc 1 227 0
 296 0080 0120     		movs	r0, #1
 297              	.LVL36:
 298              	.L22:
 282:C:/Users/lenovo/Desktop/liteos/Project2/BearPi_LiteOS/components/security/mbedtls/mbedtls-2.6.0/library\ssl_cache.c **** }
 299              		.loc 1 282 0
 300 0082 DAE7     		b	.L16
 301              	.L31:
 302              		.align	2
 303              	.L30:
 304 0084 00000000 		.word	mbedtls_calloc
 305              		.cfi_endproc
 306              	.LFE16:
 308              		.section	.text.mbedtls_ssl_cache_set_max_entries,"ax",%progbits
 309              		.align	1
 310              		.global	mbedtls_ssl_cache_set_max_entries
 311              		.syntax unified
 312              		.thumb
 313              		.thumb_func
 314              		.fpu fpv4-sp-d16
 316              	mbedtls_ssl_cache_set_max_entries:
 317              	.LFB17:
 284:C:/Users/lenovo/Desktop/liteos/Project2/BearPi_LiteOS/components/security/mbedtls/mbedtls-2.6.0/library\ssl_cache.c **** 
 285:C:/Users/lenovo/Desktop/liteos/Project2/BearPi_LiteOS/components/security/mbedtls/mbedtls-2.6.0/library\ssl_cache.c **** #if defined(MBEDTLS_HAVE_TIME)
 286:C:/Users/lenovo/Desktop/liteos/Project2/BearPi_LiteOS/components/security/mbedtls/mbedtls-2.6.0/library\ssl_cache.c **** void mbedtls_ssl_cache_set_timeout( mbedtls_ssl_cache_context *cache, int timeout )
 287:C:/Users/lenovo/Desktop/liteos/Project2/BearPi_LiteOS/components/security/mbedtls/mbedtls-2.6.0/library\ssl_cache.c **** {
 288:C:/Users/lenovo/Desktop/liteos/Project2/BearPi_LiteOS/components/security/mbedtls/mbedtls-2.6.0/library\ssl_cache.c ****     if( timeout < 0 ) timeout = 0;
 289:C:/Users/lenovo/Desktop/liteos/Project2/BearPi_LiteOS/components/security/mbedtls/mbedtls-2.6.0/library\ssl_cache.c **** 
 290:C:/Users/lenovo/Desktop/liteos/Project2/BearPi_LiteOS/components/security/mbedtls/mbedtls-2.6.0/library\ssl_cache.c ****     cache->timeout = timeout;
 291:C:/Users/lenovo/Desktop/liteos/Project2/BearPi_LiteOS/components/security/mbedtls/mbedtls-2.6.0/library\ssl_cache.c **** }
 292:C:/Users/lenovo/Desktop/liteos/Project2/BearPi_LiteOS/components/security/mbedtls/mbedtls-2.6.0/library\ssl_cache.c **** #endif /* MBEDTLS_HAVE_TIME */
 293:C:/Users/lenovo/Desktop/liteos/Project2/BearPi_LiteOS/components/security/mbedtls/mbedtls-2.6.0/library\ssl_cache.c **** 
ARM GAS  c:\Users\lenovo\AppData\Local\Temp\ccXjwvs0.s 			page 12


 294:C:/Users/lenovo/Desktop/liteos/Project2/BearPi_LiteOS/components/security/mbedtls/mbedtls-2.6.0/library\ssl_cache.c **** void mbedtls_ssl_cache_set_max_entries( mbedtls_ssl_cache_context *cache, int max )
 295:C:/Users/lenovo/Desktop/liteos/Project2/BearPi_LiteOS/components/security/mbedtls/mbedtls-2.6.0/library\ssl_cache.c **** {
 318              		.loc 1 295 0
 319              		.cfi_startproc
 320              		@ args = 0, pretend = 0, frame = 0
 321              		@ frame_needed = 0, uses_anonymous_args = 0
 322              		@ link register save eliminated.
 323              	.LVL37:
 296:C:/Users/lenovo/Desktop/liteos/Project2/BearPi_LiteOS/components/security/mbedtls/mbedtls-2.6.0/library\ssl_cache.c ****     if( max < 0 ) max = 0;
 324              		.loc 1 296 0
 325 0000 0029     		cmp	r1, #0
 326 0002 01DB     		blt	.L35
 327              	.LVL38:
 328              	.L33:
 297:C:/Users/lenovo/Desktop/liteos/Project2/BearPi_LiteOS/components/security/mbedtls/mbedtls-2.6.0/library\ssl_cache.c **** 
 298:C:/Users/lenovo/Desktop/liteos/Project2/BearPi_LiteOS/components/security/mbedtls/mbedtls-2.6.0/library\ssl_cache.c ****     cache->max_entries = max;
 329              		.loc 1 298 0
 330 0004 8160     		str	r1, [r0, #8]
 299:C:/Users/lenovo/Desktop/liteos/Project2/BearPi_LiteOS/components/security/mbedtls/mbedtls-2.6.0/library\ssl_cache.c **** }
 331              		.loc 1 299 0
 332 0006 7047     		bx	lr
 333              	.L35:
 296:C:/Users/lenovo/Desktop/liteos/Project2/BearPi_LiteOS/components/security/mbedtls/mbedtls-2.6.0/library\ssl_cache.c ****     if( max < 0 ) max = 0;
 334              		.loc 1 296 0
 335 0008 0021     		movs	r1, #0
 336              	.LVL39:
 337 000a FBE7     		b	.L33
 338              		.cfi_endproc
 339              	.LFE17:
 341              		.section	.text.mbedtls_ssl_cache_free,"ax",%progbits
 342              		.align	1
 343              		.global	mbedtls_ssl_cache_free
 344              		.syntax unified
 345              		.thumb
 346              		.thumb_func
 347              		.fpu fpv4-sp-d16
 349              	mbedtls_ssl_cache_free:
 350              	.LFB18:
 300:C:/Users/lenovo/Desktop/liteos/Project2/BearPi_LiteOS/components/security/mbedtls/mbedtls-2.6.0/library\ssl_cache.c **** 
 301:C:/Users/lenovo/Desktop/liteos/Project2/BearPi_LiteOS/components/security/mbedtls/mbedtls-2.6.0/library\ssl_cache.c **** void mbedtls_ssl_cache_free( mbedtls_ssl_cache_context *cache )
 302:C:/Users/lenovo/Desktop/liteos/Project2/BearPi_LiteOS/components/security/mbedtls/mbedtls-2.6.0/library\ssl_cache.c **** {
 351              		.loc 1 302 0
 352              		.cfi_startproc
 353              		@ args = 0, pretend = 0, frame = 0
 354              		@ frame_needed = 0, uses_anonymous_args = 0
 355              	.LVL40:
 356 0000 38B5     		push	{r3, r4, r5, lr}
 357              	.LCFI2:
 358              		.cfi_def_cfa_offset 16
 359              		.cfi_offset 3, -16
 360              		.cfi_offset 4, -12
 361              		.cfi_offset 5, -8
 362              		.cfi_offset 14, -4
 303:C:/Users/lenovo/Desktop/liteos/Project2/BearPi_LiteOS/components/security/mbedtls/mbedtls-2.6.0/library\ssl_cache.c ****     mbedtls_ssl_cache_entry *cur, *prv;
 304:C:/Users/lenovo/Desktop/liteos/Project2/BearPi_LiteOS/components/security/mbedtls/mbedtls-2.6.0/library\ssl_cache.c **** 
 305:C:/Users/lenovo/Desktop/liteos/Project2/BearPi_LiteOS/components/security/mbedtls/mbedtls-2.6.0/library\ssl_cache.c ****     cur = cache->chain;
 363              		.loc 1 305 0
ARM GAS  c:\Users\lenovo\AppData\Local\Temp\ccXjwvs0.s 			page 13


 364 0002 0468     		ldr	r4, [r0]
 365              	.LVL41:
 306:C:/Users/lenovo/Desktop/liteos/Project2/BearPi_LiteOS/components/security/mbedtls/mbedtls-2.6.0/library\ssl_cache.c **** 
 307:C:/Users/lenovo/Desktop/liteos/Project2/BearPi_LiteOS/components/security/mbedtls/mbedtls-2.6.0/library\ssl_cache.c ****     while( cur != NULL )
 366              		.loc 1 307 0
 367 0004 08E0     		b	.L37
 368              	.LVL42:
 369              	.L38:
 308:C:/Users/lenovo/Desktop/liteos/Project2/BearPi_LiteOS/components/security/mbedtls/mbedtls-2.6.0/library\ssl_cache.c ****     {
 309:C:/Users/lenovo/Desktop/liteos/Project2/BearPi_LiteOS/components/security/mbedtls/mbedtls-2.6.0/library\ssl_cache.c ****         prv = cur;
 310:C:/Users/lenovo/Desktop/liteos/Project2/BearPi_LiteOS/components/security/mbedtls/mbedtls-2.6.0/library\ssl_cache.c ****         cur = cur->next;
 370              		.loc 1 310 0
 371 0006 656E     		ldr	r5, [r4, #100]
 372              	.LVL43:
 311:C:/Users/lenovo/Desktop/liteos/Project2/BearPi_LiteOS/components/security/mbedtls/mbedtls-2.6.0/library\ssl_cache.c **** 
 312:C:/Users/lenovo/Desktop/liteos/Project2/BearPi_LiteOS/components/security/mbedtls/mbedtls-2.6.0/library\ssl_cache.c ****         mbedtls_ssl_session_free( &prv->session );
 373              		.loc 1 312 0
 374 0008 2046     		mov	r0, r4
 375 000a FFF7FEFF 		bl	mbedtls_ssl_session_free
 376              	.LVL44:
 313:C:/Users/lenovo/Desktop/liteos/Project2/BearPi_LiteOS/components/security/mbedtls/mbedtls-2.6.0/library\ssl_cache.c **** 
 314:C:/Users/lenovo/Desktop/liteos/Project2/BearPi_LiteOS/components/security/mbedtls/mbedtls-2.6.0/library\ssl_cache.c **** #if defined(MBEDTLS_X509_CRT_PARSE_C)
 315:C:/Users/lenovo/Desktop/liteos/Project2/BearPi_LiteOS/components/security/mbedtls/mbedtls-2.6.0/library\ssl_cache.c ****         mbedtls_free( prv->peer_cert.p );
 316:C:/Users/lenovo/Desktop/liteos/Project2/BearPi_LiteOS/components/security/mbedtls/mbedtls-2.6.0/library\ssl_cache.c **** #endif /* MBEDTLS_X509_CRT_PARSE_C */
 317:C:/Users/lenovo/Desktop/liteos/Project2/BearPi_LiteOS/components/security/mbedtls/mbedtls-2.6.0/library\ssl_cache.c **** 
 318:C:/Users/lenovo/Desktop/liteos/Project2/BearPi_LiteOS/components/security/mbedtls/mbedtls-2.6.0/library\ssl_cache.c ****         mbedtls_free( prv );
 377              		.loc 1 318 0
 378 000e 044B     		ldr	r3, .L40
 379 0010 1B68     		ldr	r3, [r3]
 380 0012 2046     		mov	r0, r4
 381 0014 9847     		blx	r3
 382              	.LVL45:
 310:C:/Users/lenovo/Desktop/liteos/Project2/BearPi_LiteOS/components/security/mbedtls/mbedtls-2.6.0/library\ssl_cache.c **** 
 383              		.loc 1 310 0
 384 0016 2C46     		mov	r4, r5
 385              	.LVL46:
 386              	.L37:
 307:C:/Users/lenovo/Desktop/liteos/Project2/BearPi_LiteOS/components/security/mbedtls/mbedtls-2.6.0/library\ssl_cache.c ****     {
 387              		.loc 1 307 0
 388 0018 002C     		cmp	r4, #0
 389 001a F4D1     		bne	.L38
 319:C:/Users/lenovo/Desktop/liteos/Project2/BearPi_LiteOS/components/security/mbedtls/mbedtls-2.6.0/library\ssl_cache.c ****     }
 320:C:/Users/lenovo/Desktop/liteos/Project2/BearPi_LiteOS/components/security/mbedtls/mbedtls-2.6.0/library\ssl_cache.c **** 
 321:C:/Users/lenovo/Desktop/liteos/Project2/BearPi_LiteOS/components/security/mbedtls/mbedtls-2.6.0/library\ssl_cache.c **** #if defined(MBEDTLS_THREADING_C)
 322:C:/Users/lenovo/Desktop/liteos/Project2/BearPi_LiteOS/components/security/mbedtls/mbedtls-2.6.0/library\ssl_cache.c ****     mbedtls_mutex_free( &cache->mutex );
 323:C:/Users/lenovo/Desktop/liteos/Project2/BearPi_LiteOS/components/security/mbedtls/mbedtls-2.6.0/library\ssl_cache.c **** #endif
 324:C:/Users/lenovo/Desktop/liteos/Project2/BearPi_LiteOS/components/security/mbedtls/mbedtls-2.6.0/library\ssl_cache.c **** }
 390              		.loc 1 324 0
 391 001c 38BD     		pop	{r3, r4, r5, pc}
 392              	.LVL47:
 393              	.L41:
 394 001e 00BF     		.align	2
 395              	.L40:
 396 0020 00000000 		.word	mbedtls_free
 397              		.cfi_endproc
 398              	.LFE18:
 400              		.text
ARM GAS  c:\Users\lenovo\AppData\Local\Temp\ccXjwvs0.s 			page 14


 401              	.Letext0:
 402              		.file 2 "c:\\program files (x86)\\liteos studio\\resources\\arm-none-eabi\\arm-none-eabi\\include\
 403              		.file 3 "c:\\program files (x86)\\liteos studio\\resources\\arm-none-eabi\\lib\\gcc\\arm-none-eabi
 404              		.file 4 "c:\\program files (x86)\\liteos studio\\resources\\arm-none-eabi\\arm-none-eabi\\include\
 405              		.file 5 "c:\\program files (x86)\\liteos studio\\resources\\arm-none-eabi\\arm-none-eabi\\include\
 406              		.file 6 "c:\\program files (x86)\\liteos studio\\resources\\arm-none-eabi\\arm-none-eabi\\include\
 407              		.file 7 "c:\\program files (x86)\\liteos studio\\resources\\arm-none-eabi\\arm-none-eabi\\include\
 408              		.file 8 "c:\\program files (x86)\\liteos studio\\resources\\arm-none-eabi\\arm-none-eabi\\include\
 409              		.file 9 "c:\\program files (x86)\\liteos studio\\resources\\arm-none-eabi\\arm-none-eabi\\include\
 410              		.file 10 "C:/Users/lenovo/Desktop/liteos/Project2/BearPi_LiteOS/components/security/mbedtls/mbedtl
 411              		.file 11 "C:/Users/lenovo/Desktop/liteos/Project2/BearPi_LiteOS/components/security/mbedtls/mbedtl
 412              		.file 12 "C:/Users/lenovo/Desktop/liteos/Project2/BearPi_LiteOS/components/security/mbedtls/mbedtl
 413              		.file 13 "c:\\program files (x86)\\liteos studio\\resources\\arm-none-eabi\\arm-none-eabi\\include
 414              		.file 14 "<built-in>"
ARM GAS  c:\Users\lenovo\AppData\Local\Temp\ccXjwvs0.s 			page 15

