ARM GAS  c:\Users\lenovo\AppData\Local\Temp\ccy7mvmD.s 			page 1


   1              		.cpu cortex-m4
   2              		.eabi_attribute 27, 1
   3              		.eabi_attribute 28, 1
   4              		.eabi_attribute 20, 1
   5              		.eabi_attribute 21, 1
   6              		.eabi_attribute 23, 3
   7              		.eabi_attribute 24, 1
   8              		.eabi_attribute 25, 1
   9              		.eabi_attribute 26, 1
  10              		.eabi_attribute 30, 1
  11              		.eabi_attribute 34, 1
  12              		.eabi_attribute 18, 4
  13              		.file	"stm32l4xx_hal_pwr_ex.c"
  14              		.text
  15              	.Ltext0:
  16              		.cfi_sections	.debug_frame
  17              		.section	.text.HAL_PWREx_GetVoltageRange,"ax",%progbits
  18              		.align	1
  19              		.global	HAL_PWREx_GetVoltageRange
  20              		.syntax unified
  21              		.thumb
  22              		.thumb_func
  23              		.fpu fpv4-sp-d16
  25              	HAL_PWREx_GetVoltageRange:
  26              	.LFB133:
  27              		.file 1 "C:/Users/lenovo/Desktop/liteos/Project2/BearPi_LiteOS/targets/STM32L431_BearPi/Drivers/ST
   1:C:/Users/lenovo/Desktop/liteos/Project2/BearPi_LiteOS/targets/STM32L431_BearPi/Drivers/STM32L4xx_HAL_Driver/Src\stm32l4xx_hal_pwr_ex.c **** /**
   2:C:/Users/lenovo/Desktop/liteos/Project2/BearPi_LiteOS/targets/STM32L431_BearPi/Drivers/STM32L4xx_HAL_Driver/Src\stm32l4xx_hal_pwr_ex.c ****   ******************************************************************************
   3:C:/Users/lenovo/Desktop/liteos/Project2/BearPi_LiteOS/targets/STM32L431_BearPi/Drivers/STM32L4xx_HAL_Driver/Src\stm32l4xx_hal_pwr_ex.c ****   * @file    stm32l4xx_hal_pwr_ex.c
   4:C:/Users/lenovo/Desktop/liteos/Project2/BearPi_LiteOS/targets/STM32L431_BearPi/Drivers/STM32L4xx_HAL_Driver/Src\stm32l4xx_hal_pwr_ex.c ****   * @author  MCD Application Team
   5:C:/Users/lenovo/Desktop/liteos/Project2/BearPi_LiteOS/targets/STM32L431_BearPi/Drivers/STM32L4xx_HAL_Driver/Src\stm32l4xx_hal_pwr_ex.c ****   * @brief   Extended PWR HAL module driver.
   6:C:/Users/lenovo/Desktop/liteos/Project2/BearPi_LiteOS/targets/STM32L431_BearPi/Drivers/STM32L4xx_HAL_Driver/Src\stm32l4xx_hal_pwr_ex.c ****   *          This file provides firmware functions to manage the following
   7:C:/Users/lenovo/Desktop/liteos/Project2/BearPi_LiteOS/targets/STM32L431_BearPi/Drivers/STM32L4xx_HAL_Driver/Src\stm32l4xx_hal_pwr_ex.c ****   *          functionalities of the Power Controller (PWR) peripheral:
   8:C:/Users/lenovo/Desktop/liteos/Project2/BearPi_LiteOS/targets/STM32L431_BearPi/Drivers/STM32L4xx_HAL_Driver/Src\stm32l4xx_hal_pwr_ex.c ****   *           + Extended Initialization and de-initialization functions
   9:C:/Users/lenovo/Desktop/liteos/Project2/BearPi_LiteOS/targets/STM32L431_BearPi/Drivers/STM32L4xx_HAL_Driver/Src\stm32l4xx_hal_pwr_ex.c ****   *           + Extended Peripheral Control functions
  10:C:/Users/lenovo/Desktop/liteos/Project2/BearPi_LiteOS/targets/STM32L431_BearPi/Drivers/STM32L4xx_HAL_Driver/Src\stm32l4xx_hal_pwr_ex.c ****   *         
  11:C:/Users/lenovo/Desktop/liteos/Project2/BearPi_LiteOS/targets/STM32L431_BearPi/Drivers/STM32L4xx_HAL_Driver/Src\stm32l4xx_hal_pwr_ex.c ****   ******************************************************************************
  12:C:/Users/lenovo/Desktop/liteos/Project2/BearPi_LiteOS/targets/STM32L431_BearPi/Drivers/STM32L4xx_HAL_Driver/Src\stm32l4xx_hal_pwr_ex.c ****   * @attention
  13:C:/Users/lenovo/Desktop/liteos/Project2/BearPi_LiteOS/targets/STM32L431_BearPi/Drivers/STM32L4xx_HAL_Driver/Src\stm32l4xx_hal_pwr_ex.c ****   *
  14:C:/Users/lenovo/Desktop/liteos/Project2/BearPi_LiteOS/targets/STM32L431_BearPi/Drivers/STM32L4xx_HAL_Driver/Src\stm32l4xx_hal_pwr_ex.c ****   * <h2><center>&copy; COPYRIGHT(c) 2017 STMicroelectronics</center></h2>
  15:C:/Users/lenovo/Desktop/liteos/Project2/BearPi_LiteOS/targets/STM32L431_BearPi/Drivers/STM32L4xx_HAL_Driver/Src\stm32l4xx_hal_pwr_ex.c ****   *
  16:C:/Users/lenovo/Desktop/liteos/Project2/BearPi_LiteOS/targets/STM32L431_BearPi/Drivers/STM32L4xx_HAL_Driver/Src\stm32l4xx_hal_pwr_ex.c ****   * Redistribution and use in source and binary forms, with or without modification,
  17:C:/Users/lenovo/Desktop/liteos/Project2/BearPi_LiteOS/targets/STM32L431_BearPi/Drivers/STM32L4xx_HAL_Driver/Src\stm32l4xx_hal_pwr_ex.c ****   * are permitted provided that the following conditions are met:
  18:C:/Users/lenovo/Desktop/liteos/Project2/BearPi_LiteOS/targets/STM32L431_BearPi/Drivers/STM32L4xx_HAL_Driver/Src\stm32l4xx_hal_pwr_ex.c ****   *   1. Redistributions of source code must retain the above copyright notice,
  19:C:/Users/lenovo/Desktop/liteos/Project2/BearPi_LiteOS/targets/STM32L431_BearPi/Drivers/STM32L4xx_HAL_Driver/Src\stm32l4xx_hal_pwr_ex.c ****   *      this list of conditions and the following disclaimer.
  20:C:/Users/lenovo/Desktop/liteos/Project2/BearPi_LiteOS/targets/STM32L431_BearPi/Drivers/STM32L4xx_HAL_Driver/Src\stm32l4xx_hal_pwr_ex.c ****   *   2. Redistributions in binary form must reproduce the above copyright notice,
  21:C:/Users/lenovo/Desktop/liteos/Project2/BearPi_LiteOS/targets/STM32L431_BearPi/Drivers/STM32L4xx_HAL_Driver/Src\stm32l4xx_hal_pwr_ex.c ****   *      this list of conditions and the following disclaimer in the documentation
  22:C:/Users/lenovo/Desktop/liteos/Project2/BearPi_LiteOS/targets/STM32L431_BearPi/Drivers/STM32L4xx_HAL_Driver/Src\stm32l4xx_hal_pwr_ex.c ****   *      and/or other materials provided with the distribution.
  23:C:/Users/lenovo/Desktop/liteos/Project2/BearPi_LiteOS/targets/STM32L431_BearPi/Drivers/STM32L4xx_HAL_Driver/Src\stm32l4xx_hal_pwr_ex.c ****   *   3. Neither the name of STMicroelectronics nor the names of its contributors
  24:C:/Users/lenovo/Desktop/liteos/Project2/BearPi_LiteOS/targets/STM32L431_BearPi/Drivers/STM32L4xx_HAL_Driver/Src\stm32l4xx_hal_pwr_ex.c ****   *      may be used to endorse or promote products derived from this software
  25:C:/Users/lenovo/Desktop/liteos/Project2/BearPi_LiteOS/targets/STM32L431_BearPi/Drivers/STM32L4xx_HAL_Driver/Src\stm32l4xx_hal_pwr_ex.c ****   *      without specific prior written permission.
  26:C:/Users/lenovo/Desktop/liteos/Project2/BearPi_LiteOS/targets/STM32L431_BearPi/Drivers/STM32L4xx_HAL_Driver/Src\stm32l4xx_hal_pwr_ex.c ****   *
  27:C:/Users/lenovo/Desktop/liteos/Project2/BearPi_LiteOS/targets/STM32L431_BearPi/Drivers/STM32L4xx_HAL_Driver/Src\stm32l4xx_hal_pwr_ex.c ****   * THIS SOFTWARE IS PROVIDED BY THE COPYRIGHT HOLDERS AND CONTRIBUTORS "AS IS"
  28:C:/Users/lenovo/Desktop/liteos/Project2/BearPi_LiteOS/targets/STM32L431_BearPi/Drivers/STM32L4xx_HAL_Driver/Src\stm32l4xx_hal_pwr_ex.c ****   * AND ANY EXPRESS OR IMPLIED WARRANTIES, INCLUDING, BUT NOT LIMITED TO, THE
  29:C:/Users/lenovo/Desktop/liteos/Project2/BearPi_LiteOS/targets/STM32L431_BearPi/Drivers/STM32L4xx_HAL_Driver/Src\stm32l4xx_hal_pwr_ex.c ****   * IMPLIED WARRANTIES OF MERCHANTABILITY AND FITNESS FOR A PARTICULAR PURPOSE ARE
  30:C:/Users/lenovo/Desktop/liteos/Project2/BearPi_LiteOS/targets/STM32L431_BearPi/Drivers/STM32L4xx_HAL_Driver/Src\stm32l4xx_hal_pwr_ex.c ****   * DISCLAIMED. IN NO EVENT SHALL THE COPYRIGHT HOLDER OR CONTRIBUTORS BE LIABLE
  31:C:/Users/lenovo/Desktop/liteos/Project2/BearPi_LiteOS/targets/STM32L431_BearPi/Drivers/STM32L4xx_HAL_Driver/Src\stm32l4xx_hal_pwr_ex.c ****   * FOR ANY DIRECT, INDIRECT, INCIDENTAL, SPECIAL, EXEMPLARY, OR CONSEQUENTIAL
ARM GAS  c:\Users\lenovo\AppData\Local\Temp\ccy7mvmD.s 			page 2


  32:C:/Users/lenovo/Desktop/liteos/Project2/BearPi_LiteOS/targets/STM32L431_BearPi/Drivers/STM32L4xx_HAL_Driver/Src\stm32l4xx_hal_pwr_ex.c ****   * DAMAGES (INCLUDING, BUT NOT LIMITED TO, PROCUREMENT OF SUBSTITUTE GOODS OR
  33:C:/Users/lenovo/Desktop/liteos/Project2/BearPi_LiteOS/targets/STM32L431_BearPi/Drivers/STM32L4xx_HAL_Driver/Src\stm32l4xx_hal_pwr_ex.c ****   * SERVICES; LOSS OF USE, DATA, OR PROFITS; OR BUSINESS INTERRUPTION) HOWEVER
  34:C:/Users/lenovo/Desktop/liteos/Project2/BearPi_LiteOS/targets/STM32L431_BearPi/Drivers/STM32L4xx_HAL_Driver/Src\stm32l4xx_hal_pwr_ex.c ****   * CAUSED AND ON ANY THEORY OF LIABILITY, WHETHER IN CONTRACT, STRICT LIABILITY,
  35:C:/Users/lenovo/Desktop/liteos/Project2/BearPi_LiteOS/targets/STM32L431_BearPi/Drivers/STM32L4xx_HAL_Driver/Src\stm32l4xx_hal_pwr_ex.c ****   * OR TORT (INCLUDING NEGLIGENCE OR OTHERWISE) ARISING IN ANY WAY OUT OF THE USE
  36:C:/Users/lenovo/Desktop/liteos/Project2/BearPi_LiteOS/targets/STM32L431_BearPi/Drivers/STM32L4xx_HAL_Driver/Src\stm32l4xx_hal_pwr_ex.c ****   * OF THIS SOFTWARE, EVEN IF ADVISED OF THE POSSIBILITY OF SUCH DAMAGE.
  37:C:/Users/lenovo/Desktop/liteos/Project2/BearPi_LiteOS/targets/STM32L431_BearPi/Drivers/STM32L4xx_HAL_Driver/Src\stm32l4xx_hal_pwr_ex.c ****   *
  38:C:/Users/lenovo/Desktop/liteos/Project2/BearPi_LiteOS/targets/STM32L431_BearPi/Drivers/STM32L4xx_HAL_Driver/Src\stm32l4xx_hal_pwr_ex.c ****   ******************************************************************************
  39:C:/Users/lenovo/Desktop/liteos/Project2/BearPi_LiteOS/targets/STM32L431_BearPi/Drivers/STM32L4xx_HAL_Driver/Src\stm32l4xx_hal_pwr_ex.c ****   */
  40:C:/Users/lenovo/Desktop/liteos/Project2/BearPi_LiteOS/targets/STM32L431_BearPi/Drivers/STM32L4xx_HAL_Driver/Src\stm32l4xx_hal_pwr_ex.c **** 
  41:C:/Users/lenovo/Desktop/liteos/Project2/BearPi_LiteOS/targets/STM32L431_BearPi/Drivers/STM32L4xx_HAL_Driver/Src\stm32l4xx_hal_pwr_ex.c **** /* Includes ------------------------------------------------------------------*/
  42:C:/Users/lenovo/Desktop/liteos/Project2/BearPi_LiteOS/targets/STM32L431_BearPi/Drivers/STM32L4xx_HAL_Driver/Src\stm32l4xx_hal_pwr_ex.c **** #include "stm32l4xx_hal.h"
  43:C:/Users/lenovo/Desktop/liteos/Project2/BearPi_LiteOS/targets/STM32L431_BearPi/Drivers/STM32L4xx_HAL_Driver/Src\stm32l4xx_hal_pwr_ex.c **** 
  44:C:/Users/lenovo/Desktop/liteos/Project2/BearPi_LiteOS/targets/STM32L431_BearPi/Drivers/STM32L4xx_HAL_Driver/Src\stm32l4xx_hal_pwr_ex.c **** /** @addtogroup STM32L4xx_HAL_Driver
  45:C:/Users/lenovo/Desktop/liteos/Project2/BearPi_LiteOS/targets/STM32L431_BearPi/Drivers/STM32L4xx_HAL_Driver/Src\stm32l4xx_hal_pwr_ex.c ****   * @{
  46:C:/Users/lenovo/Desktop/liteos/Project2/BearPi_LiteOS/targets/STM32L431_BearPi/Drivers/STM32L4xx_HAL_Driver/Src\stm32l4xx_hal_pwr_ex.c ****   */
  47:C:/Users/lenovo/Desktop/liteos/Project2/BearPi_LiteOS/targets/STM32L431_BearPi/Drivers/STM32L4xx_HAL_Driver/Src\stm32l4xx_hal_pwr_ex.c **** 
  48:C:/Users/lenovo/Desktop/liteos/Project2/BearPi_LiteOS/targets/STM32L431_BearPi/Drivers/STM32L4xx_HAL_Driver/Src\stm32l4xx_hal_pwr_ex.c **** /** @defgroup PWREx PWREx
  49:C:/Users/lenovo/Desktop/liteos/Project2/BearPi_LiteOS/targets/STM32L431_BearPi/Drivers/STM32L4xx_HAL_Driver/Src\stm32l4xx_hal_pwr_ex.c ****   * @brief PWR Extended HAL module driver
  50:C:/Users/lenovo/Desktop/liteos/Project2/BearPi_LiteOS/targets/STM32L431_BearPi/Drivers/STM32L4xx_HAL_Driver/Src\stm32l4xx_hal_pwr_ex.c ****   * @{
  51:C:/Users/lenovo/Desktop/liteos/Project2/BearPi_LiteOS/targets/STM32L431_BearPi/Drivers/STM32L4xx_HAL_Driver/Src\stm32l4xx_hal_pwr_ex.c ****   */
  52:C:/Users/lenovo/Desktop/liteos/Project2/BearPi_LiteOS/targets/STM32L431_BearPi/Drivers/STM32L4xx_HAL_Driver/Src\stm32l4xx_hal_pwr_ex.c **** 
  53:C:/Users/lenovo/Desktop/liteos/Project2/BearPi_LiteOS/targets/STM32L431_BearPi/Drivers/STM32L4xx_HAL_Driver/Src\stm32l4xx_hal_pwr_ex.c **** #ifdef HAL_PWR_MODULE_ENABLED
  54:C:/Users/lenovo/Desktop/liteos/Project2/BearPi_LiteOS/targets/STM32L431_BearPi/Drivers/STM32L4xx_HAL_Driver/Src\stm32l4xx_hal_pwr_ex.c **** 
  55:C:/Users/lenovo/Desktop/liteos/Project2/BearPi_LiteOS/targets/STM32L431_BearPi/Drivers/STM32L4xx_HAL_Driver/Src\stm32l4xx_hal_pwr_ex.c **** /* Private typedef -----------------------------------------------------------*/
  56:C:/Users/lenovo/Desktop/liteos/Project2/BearPi_LiteOS/targets/STM32L431_BearPi/Drivers/STM32L4xx_HAL_Driver/Src\stm32l4xx_hal_pwr_ex.c **** /* Private define ------------------------------------------------------------*/
  57:C:/Users/lenovo/Desktop/liteos/Project2/BearPi_LiteOS/targets/STM32L431_BearPi/Drivers/STM32L4xx_HAL_Driver/Src\stm32l4xx_hal_pwr_ex.c **** 
  58:C:/Users/lenovo/Desktop/liteos/Project2/BearPi_LiteOS/targets/STM32L431_BearPi/Drivers/STM32L4xx_HAL_Driver/Src\stm32l4xx_hal_pwr_ex.c **** #if defined (STM32L431xx) || defined (STM32L432xx) || defined (STM32L433xx) || defined (STM32L442xx
  59:C:/Users/lenovo/Desktop/liteos/Project2/BearPi_LiteOS/targets/STM32L431_BearPi/Drivers/STM32L4xx_HAL_Driver/Src\stm32l4xx_hal_pwr_ex.c **** #define PWR_PORTH_AVAILABLE_PINS   ((uint32_t)0x0000000B) /* PH0/PH1/PH3 */
  60:C:/Users/lenovo/Desktop/liteos/Project2/BearPi_LiteOS/targets/STM32L431_BearPi/Drivers/STM32L4xx_HAL_Driver/Src\stm32l4xx_hal_pwr_ex.c **** #elif defined (STM32L451xx) || defined (STM32L452xx) || defined (STM32L462xx)
  61:C:/Users/lenovo/Desktop/liteos/Project2/BearPi_LiteOS/targets/STM32L431_BearPi/Drivers/STM32L4xx_HAL_Driver/Src\stm32l4xx_hal_pwr_ex.c **** #define PWR_PORTH_AVAILABLE_PINS   ((uint32_t)0x0000000B) /* PH0/PH1/PH3 */
  62:C:/Users/lenovo/Desktop/liteos/Project2/BearPi_LiteOS/targets/STM32L431_BearPi/Drivers/STM32L4xx_HAL_Driver/Src\stm32l4xx_hal_pwr_ex.c **** #elif defined (STM32L471xx) || defined (STM32L475xx) || defined (STM32L476xx) || defined (STM32L485
  63:C:/Users/lenovo/Desktop/liteos/Project2/BearPi_LiteOS/targets/STM32L431_BearPi/Drivers/STM32L4xx_HAL_Driver/Src\stm32l4xx_hal_pwr_ex.c **** #define PWR_PORTH_AVAILABLE_PINS   ((uint32_t)0x00000003) /* PH0/PH1 */
  64:C:/Users/lenovo/Desktop/liteos/Project2/BearPi_LiteOS/targets/STM32L431_BearPi/Drivers/STM32L4xx_HAL_Driver/Src\stm32l4xx_hal_pwr_ex.c **** #elif defined (STM32L496xx) || defined (STM32L4A6xx) || defined (STM32L4R5xx) || defined (STM32L4R7
  65:C:/Users/lenovo/Desktop/liteos/Project2/BearPi_LiteOS/targets/STM32L431_BearPi/Drivers/STM32L4xx_HAL_Driver/Src\stm32l4xx_hal_pwr_ex.c **** #define PWR_PORTH_AVAILABLE_PINS   ((uint32_t)0x0000FFFF) /* PH0..PH15 */
  66:C:/Users/lenovo/Desktop/liteos/Project2/BearPi_LiteOS/targets/STM32L431_BearPi/Drivers/STM32L4xx_HAL_Driver/Src\stm32l4xx_hal_pwr_ex.c **** #endif
  67:C:/Users/lenovo/Desktop/liteos/Project2/BearPi_LiteOS/targets/STM32L431_BearPi/Drivers/STM32L4xx_HAL_Driver/Src\stm32l4xx_hal_pwr_ex.c **** 
  68:C:/Users/lenovo/Desktop/liteos/Project2/BearPi_LiteOS/targets/STM32L431_BearPi/Drivers/STM32L4xx_HAL_Driver/Src\stm32l4xx_hal_pwr_ex.c **** #if defined (STM32L496xx) || defined (STM32L4A6xx) || defined (STM32L4R5xx) || defined (STM32L4R7xx
  69:C:/Users/lenovo/Desktop/liteos/Project2/BearPi_LiteOS/targets/STM32L431_BearPi/Drivers/STM32L4xx_HAL_Driver/Src\stm32l4xx_hal_pwr_ex.c **** #define PWR_PORTI_AVAILABLE_PINS   ((uint32_t)0x00000FFF) /* PI0..PI11 */
  70:C:/Users/lenovo/Desktop/liteos/Project2/BearPi_LiteOS/targets/STM32L431_BearPi/Drivers/STM32L4xx_HAL_Driver/Src\stm32l4xx_hal_pwr_ex.c **** #endif
  71:C:/Users/lenovo/Desktop/liteos/Project2/BearPi_LiteOS/targets/STM32L431_BearPi/Drivers/STM32L4xx_HAL_Driver/Src\stm32l4xx_hal_pwr_ex.c **** 
  72:C:/Users/lenovo/Desktop/liteos/Project2/BearPi_LiteOS/targets/STM32L431_BearPi/Drivers/STM32L4xx_HAL_Driver/Src\stm32l4xx_hal_pwr_ex.c **** /** @defgroup PWR_Extended_Private_Defines PWR Extended Private Defines
  73:C:/Users/lenovo/Desktop/liteos/Project2/BearPi_LiteOS/targets/STM32L431_BearPi/Drivers/STM32L4xx_HAL_Driver/Src\stm32l4xx_hal_pwr_ex.c ****   * @{
  74:C:/Users/lenovo/Desktop/liteos/Project2/BearPi_LiteOS/targets/STM32L431_BearPi/Drivers/STM32L4xx_HAL_Driver/Src\stm32l4xx_hal_pwr_ex.c ****   */
  75:C:/Users/lenovo/Desktop/liteos/Project2/BearPi_LiteOS/targets/STM32L431_BearPi/Drivers/STM32L4xx_HAL_Driver/Src\stm32l4xx_hal_pwr_ex.c ****   
  76:C:/Users/lenovo/Desktop/liteos/Project2/BearPi_LiteOS/targets/STM32L431_BearPi/Drivers/STM32L4xx_HAL_Driver/Src\stm32l4xx_hal_pwr_ex.c **** /** @defgroup PWREx_PVM_Mode_Mask PWR PVM Mode Mask
  77:C:/Users/lenovo/Desktop/liteos/Project2/BearPi_LiteOS/targets/STM32L431_BearPi/Drivers/STM32L4xx_HAL_Driver/Src\stm32l4xx_hal_pwr_ex.c ****   * @{
  78:C:/Users/lenovo/Desktop/liteos/Project2/BearPi_LiteOS/targets/STM32L431_BearPi/Drivers/STM32L4xx_HAL_Driver/Src\stm32l4xx_hal_pwr_ex.c ****   */ 
  79:C:/Users/lenovo/Desktop/liteos/Project2/BearPi_LiteOS/targets/STM32L431_BearPi/Drivers/STM32L4xx_HAL_Driver/Src\stm32l4xx_hal_pwr_ex.c **** #define PVM_MODE_IT               ((uint32_t)0x00010000)  /*!< Mask for interruption yielded by PVM
  80:C:/Users/lenovo/Desktop/liteos/Project2/BearPi_LiteOS/targets/STM32L431_BearPi/Drivers/STM32L4xx_HAL_Driver/Src\stm32l4xx_hal_pwr_ex.c **** #define PVM_MODE_EVT              ((uint32_t)0x00020000)  /*!< Mask for event yielded by PVM thresh
  81:C:/Users/lenovo/Desktop/liteos/Project2/BearPi_LiteOS/targets/STM32L431_BearPi/Drivers/STM32L4xx_HAL_Driver/Src\stm32l4xx_hal_pwr_ex.c **** #define PVM_RISING_EDGE           ((uint32_t)0x00000001)  /*!< Mask for rising edge set as PVM trig
  82:C:/Users/lenovo/Desktop/liteos/Project2/BearPi_LiteOS/targets/STM32L431_BearPi/Drivers/STM32L4xx_HAL_Driver/Src\stm32l4xx_hal_pwr_ex.c **** #define PVM_FALLING_EDGE          ((uint32_t)0x00000002)  /*!< Mask for falling edge set as PVM tri
  83:C:/Users/lenovo/Desktop/liteos/Project2/BearPi_LiteOS/targets/STM32L431_BearPi/Drivers/STM32L4xx_HAL_Driver/Src\stm32l4xx_hal_pwr_ex.c **** /**
  84:C:/Users/lenovo/Desktop/liteos/Project2/BearPi_LiteOS/targets/STM32L431_BearPi/Drivers/STM32L4xx_HAL_Driver/Src\stm32l4xx_hal_pwr_ex.c ****   * @}
  85:C:/Users/lenovo/Desktop/liteos/Project2/BearPi_LiteOS/targets/STM32L431_BearPi/Drivers/STM32L4xx_HAL_Driver/Src\stm32l4xx_hal_pwr_ex.c ****   */
  86:C:/Users/lenovo/Desktop/liteos/Project2/BearPi_LiteOS/targets/STM32L431_BearPi/Drivers/STM32L4xx_HAL_Driver/Src\stm32l4xx_hal_pwr_ex.c ****   
  87:C:/Users/lenovo/Desktop/liteos/Project2/BearPi_LiteOS/targets/STM32L431_BearPi/Drivers/STM32L4xx_HAL_Driver/Src\stm32l4xx_hal_pwr_ex.c **** /** @defgroup PWREx_TimeOut_Value PWR Extended Flag Setting Time Out Value
  88:C:/Users/lenovo/Desktop/liteos/Project2/BearPi_LiteOS/targets/STM32L431_BearPi/Drivers/STM32L4xx_HAL_Driver/Src\stm32l4xx_hal_pwr_ex.c ****   * @{
ARM GAS  c:\Users\lenovo\AppData\Local\Temp\ccy7mvmD.s 			page 3


  89:C:/Users/lenovo/Desktop/liteos/Project2/BearPi_LiteOS/targets/STM32L431_BearPi/Drivers/STM32L4xx_HAL_Driver/Src\stm32l4xx_hal_pwr_ex.c ****   */ 
  90:C:/Users/lenovo/Desktop/liteos/Project2/BearPi_LiteOS/targets/STM32L431_BearPi/Drivers/STM32L4xx_HAL_Driver/Src\stm32l4xx_hal_pwr_ex.c **** #define PWR_FLAG_SETTING_DELAY_US                      50   /*!< Time out value for REGLPF and VOSF
  91:C:/Users/lenovo/Desktop/liteos/Project2/BearPi_LiteOS/targets/STM32L431_BearPi/Drivers/STM32L4xx_HAL_Driver/Src\stm32l4xx_hal_pwr_ex.c **** /**
  92:C:/Users/lenovo/Desktop/liteos/Project2/BearPi_LiteOS/targets/STM32L431_BearPi/Drivers/STM32L4xx_HAL_Driver/Src\stm32l4xx_hal_pwr_ex.c ****   * @}
  93:C:/Users/lenovo/Desktop/liteos/Project2/BearPi_LiteOS/targets/STM32L431_BearPi/Drivers/STM32L4xx_HAL_Driver/Src\stm32l4xx_hal_pwr_ex.c ****   */
  94:C:/Users/lenovo/Desktop/liteos/Project2/BearPi_LiteOS/targets/STM32L431_BearPi/Drivers/STM32L4xx_HAL_Driver/Src\stm32l4xx_hal_pwr_ex.c ****     
  95:C:/Users/lenovo/Desktop/liteos/Project2/BearPi_LiteOS/targets/STM32L431_BearPi/Drivers/STM32L4xx_HAL_Driver/Src\stm32l4xx_hal_pwr_ex.c ****   
  96:C:/Users/lenovo/Desktop/liteos/Project2/BearPi_LiteOS/targets/STM32L431_BearPi/Drivers/STM32L4xx_HAL_Driver/Src\stm32l4xx_hal_pwr_ex.c **** 
  97:C:/Users/lenovo/Desktop/liteos/Project2/BearPi_LiteOS/targets/STM32L431_BearPi/Drivers/STM32L4xx_HAL_Driver/Src\stm32l4xx_hal_pwr_ex.c **** /**
  98:C:/Users/lenovo/Desktop/liteos/Project2/BearPi_LiteOS/targets/STM32L431_BearPi/Drivers/STM32L4xx_HAL_Driver/Src\stm32l4xx_hal_pwr_ex.c ****   * @}
  99:C:/Users/lenovo/Desktop/liteos/Project2/BearPi_LiteOS/targets/STM32L431_BearPi/Drivers/STM32L4xx_HAL_Driver/Src\stm32l4xx_hal_pwr_ex.c ****   */
 100:C:/Users/lenovo/Desktop/liteos/Project2/BearPi_LiteOS/targets/STM32L431_BearPi/Drivers/STM32L4xx_HAL_Driver/Src\stm32l4xx_hal_pwr_ex.c **** 
 101:C:/Users/lenovo/Desktop/liteos/Project2/BearPi_LiteOS/targets/STM32L431_BearPi/Drivers/STM32L4xx_HAL_Driver/Src\stm32l4xx_hal_pwr_ex.c **** 
 102:C:/Users/lenovo/Desktop/liteos/Project2/BearPi_LiteOS/targets/STM32L431_BearPi/Drivers/STM32L4xx_HAL_Driver/Src\stm32l4xx_hal_pwr_ex.c **** 
 103:C:/Users/lenovo/Desktop/liteos/Project2/BearPi_LiteOS/targets/STM32L431_BearPi/Drivers/STM32L4xx_HAL_Driver/Src\stm32l4xx_hal_pwr_ex.c **** /* Private macro -------------------------------------------------------------*/
 104:C:/Users/lenovo/Desktop/liteos/Project2/BearPi_LiteOS/targets/STM32L431_BearPi/Drivers/STM32L4xx_HAL_Driver/Src\stm32l4xx_hal_pwr_ex.c **** /* Private variables ---------------------------------------------------------*/
 105:C:/Users/lenovo/Desktop/liteos/Project2/BearPi_LiteOS/targets/STM32L431_BearPi/Drivers/STM32L4xx_HAL_Driver/Src\stm32l4xx_hal_pwr_ex.c **** /* Private function prototypes -----------------------------------------------*/
 106:C:/Users/lenovo/Desktop/liteos/Project2/BearPi_LiteOS/targets/STM32L431_BearPi/Drivers/STM32L4xx_HAL_Driver/Src\stm32l4xx_hal_pwr_ex.c **** /* Exported functions --------------------------------------------------------*/
 107:C:/Users/lenovo/Desktop/liteos/Project2/BearPi_LiteOS/targets/STM32L431_BearPi/Drivers/STM32L4xx_HAL_Driver/Src\stm32l4xx_hal_pwr_ex.c ****   
 108:C:/Users/lenovo/Desktop/liteos/Project2/BearPi_LiteOS/targets/STM32L431_BearPi/Drivers/STM32L4xx_HAL_Driver/Src\stm32l4xx_hal_pwr_ex.c **** /** @defgroup PWREx_Exported_Functions PWR Extended Exported Functions
 109:C:/Users/lenovo/Desktop/liteos/Project2/BearPi_LiteOS/targets/STM32L431_BearPi/Drivers/STM32L4xx_HAL_Driver/Src\stm32l4xx_hal_pwr_ex.c ****   * @{
 110:C:/Users/lenovo/Desktop/liteos/Project2/BearPi_LiteOS/targets/STM32L431_BearPi/Drivers/STM32L4xx_HAL_Driver/Src\stm32l4xx_hal_pwr_ex.c ****   */
 111:C:/Users/lenovo/Desktop/liteos/Project2/BearPi_LiteOS/targets/STM32L431_BearPi/Drivers/STM32L4xx_HAL_Driver/Src\stm32l4xx_hal_pwr_ex.c **** 
 112:C:/Users/lenovo/Desktop/liteos/Project2/BearPi_LiteOS/targets/STM32L431_BearPi/Drivers/STM32L4xx_HAL_Driver/Src\stm32l4xx_hal_pwr_ex.c **** /** @defgroup PWREx_Exported_Functions_Group1 Extended Peripheral Control functions
 113:C:/Users/lenovo/Desktop/liteos/Project2/BearPi_LiteOS/targets/STM32L431_BearPi/Drivers/STM32L4xx_HAL_Driver/Src\stm32l4xx_hal_pwr_ex.c ****   *  @brief   Extended Peripheral Control functions
 114:C:/Users/lenovo/Desktop/liteos/Project2/BearPi_LiteOS/targets/STM32L431_BearPi/Drivers/STM32L4xx_HAL_Driver/Src\stm32l4xx_hal_pwr_ex.c ****   *
 115:C:/Users/lenovo/Desktop/liteos/Project2/BearPi_LiteOS/targets/STM32L431_BearPi/Drivers/STM32L4xx_HAL_Driver/Src\stm32l4xx_hal_pwr_ex.c **** @verbatim
 116:C:/Users/lenovo/Desktop/liteos/Project2/BearPi_LiteOS/targets/STM32L431_BearPi/Drivers/STM32L4xx_HAL_Driver/Src\stm32l4xx_hal_pwr_ex.c ****  ===============================================================================
 117:C:/Users/lenovo/Desktop/liteos/Project2/BearPi_LiteOS/targets/STM32L431_BearPi/Drivers/STM32L4xx_HAL_Driver/Src\stm32l4xx_hal_pwr_ex.c ****               ##### Extended Peripheral Initialization and de-initialization functions #####
 118:C:/Users/lenovo/Desktop/liteos/Project2/BearPi_LiteOS/targets/STM32L431_BearPi/Drivers/STM32L4xx_HAL_Driver/Src\stm32l4xx_hal_pwr_ex.c ****  ===============================================================================
 119:C:/Users/lenovo/Desktop/liteos/Project2/BearPi_LiteOS/targets/STM32L431_BearPi/Drivers/STM32L4xx_HAL_Driver/Src\stm32l4xx_hal_pwr_ex.c ****     [..]
 120:C:/Users/lenovo/Desktop/liteos/Project2/BearPi_LiteOS/targets/STM32L431_BearPi/Drivers/STM32L4xx_HAL_Driver/Src\stm32l4xx_hal_pwr_ex.c **** 
 121:C:/Users/lenovo/Desktop/liteos/Project2/BearPi_LiteOS/targets/STM32L431_BearPi/Drivers/STM32L4xx_HAL_Driver/Src\stm32l4xx_hal_pwr_ex.c **** @endverbatim
 122:C:/Users/lenovo/Desktop/liteos/Project2/BearPi_LiteOS/targets/STM32L431_BearPi/Drivers/STM32L4xx_HAL_Driver/Src\stm32l4xx_hal_pwr_ex.c ****   * @{
 123:C:/Users/lenovo/Desktop/liteos/Project2/BearPi_LiteOS/targets/STM32L431_BearPi/Drivers/STM32L4xx_HAL_Driver/Src\stm32l4xx_hal_pwr_ex.c ****   */
 124:C:/Users/lenovo/Desktop/liteos/Project2/BearPi_LiteOS/targets/STM32L431_BearPi/Drivers/STM32L4xx_HAL_Driver/Src\stm32l4xx_hal_pwr_ex.c ****   
 125:C:/Users/lenovo/Desktop/liteos/Project2/BearPi_LiteOS/targets/STM32L431_BearPi/Drivers/STM32L4xx_HAL_Driver/Src\stm32l4xx_hal_pwr_ex.c **** 
 126:C:/Users/lenovo/Desktop/liteos/Project2/BearPi_LiteOS/targets/STM32L431_BearPi/Drivers/STM32L4xx_HAL_Driver/Src\stm32l4xx_hal_pwr_ex.c **** /**
 127:C:/Users/lenovo/Desktop/liteos/Project2/BearPi_LiteOS/targets/STM32L431_BearPi/Drivers/STM32L4xx_HAL_Driver/Src\stm32l4xx_hal_pwr_ex.c ****   * @brief Return Voltage Scaling Range.
 128:C:/Users/lenovo/Desktop/liteos/Project2/BearPi_LiteOS/targets/STM32L431_BearPi/Drivers/STM32L4xx_HAL_Driver/Src\stm32l4xx_hal_pwr_ex.c ****   * @retval VOS bit field (PWR_REGULATOR_VOLTAGE_RANGE1 or PWR_REGULATOR_VOLTAGE_RANGE2 
 129:C:/Users/lenovo/Desktop/liteos/Project2/BearPi_LiteOS/targets/STM32L431_BearPi/Drivers/STM32L4xx_HAL_Driver/Src\stm32l4xx_hal_pwr_ex.c ****   *         or PWR_REGULATOR_VOLTAGE_SCALE1_BOOST when applicable)
 130:C:/Users/lenovo/Desktop/liteos/Project2/BearPi_LiteOS/targets/STM32L431_BearPi/Drivers/STM32L4xx_HAL_Driver/Src\stm32l4xx_hal_pwr_ex.c ****   */  
 131:C:/Users/lenovo/Desktop/liteos/Project2/BearPi_LiteOS/targets/STM32L431_BearPi/Drivers/STM32L4xx_HAL_Driver/Src\stm32l4xx_hal_pwr_ex.c **** uint32_t HAL_PWREx_GetVoltageRange(void)
 132:C:/Users/lenovo/Desktop/liteos/Project2/BearPi_LiteOS/targets/STM32L431_BearPi/Drivers/STM32L4xx_HAL_Driver/Src\stm32l4xx_hal_pwr_ex.c **** {
  28              		.loc 1 132 0
  29              		.cfi_startproc
  30              		@ args = 0, pretend = 0, frame = 0
  31              		@ frame_needed = 0, uses_anonymous_args = 0
  32              		@ link register save eliminated.
 133:C:/Users/lenovo/Desktop/liteos/Project2/BearPi_LiteOS/targets/STM32L431_BearPi/Drivers/STM32L4xx_HAL_Driver/Src\stm32l4xx_hal_pwr_ex.c **** #if defined(PWR_CR5_R1MODE)
 134:C:/Users/lenovo/Desktop/liteos/Project2/BearPi_LiteOS/targets/STM32L431_BearPi/Drivers/STM32L4xx_HAL_Driver/Src\stm32l4xx_hal_pwr_ex.c ****     if (READ_BIT(PWR->CR1, PWR_CR1_VOS) == PWR_REGULATOR_VOLTAGE_SCALE2)
 135:C:/Users/lenovo/Desktop/liteos/Project2/BearPi_LiteOS/targets/STM32L431_BearPi/Drivers/STM32L4xx_HAL_Driver/Src\stm32l4xx_hal_pwr_ex.c ****     {
 136:C:/Users/lenovo/Desktop/liteos/Project2/BearPi_LiteOS/targets/STM32L431_BearPi/Drivers/STM32L4xx_HAL_Driver/Src\stm32l4xx_hal_pwr_ex.c ****       return PWR_REGULATOR_VOLTAGE_SCALE2;
 137:C:/Users/lenovo/Desktop/liteos/Project2/BearPi_LiteOS/targets/STM32L431_BearPi/Drivers/STM32L4xx_HAL_Driver/Src\stm32l4xx_hal_pwr_ex.c ****     }
 138:C:/Users/lenovo/Desktop/liteos/Project2/BearPi_LiteOS/targets/STM32L431_BearPi/Drivers/STM32L4xx_HAL_Driver/Src\stm32l4xx_hal_pwr_ex.c ****     else if (READ_BIT(PWR->CR5, PWR_CR5_R1MODE) == PWR_CR5_R1MODE)
 139:C:/Users/lenovo/Desktop/liteos/Project2/BearPi_LiteOS/targets/STM32L431_BearPi/Drivers/STM32L4xx_HAL_Driver/Src\stm32l4xx_hal_pwr_ex.c ****     {
 140:C:/Users/lenovo/Desktop/liteos/Project2/BearPi_LiteOS/targets/STM32L431_BearPi/Drivers/STM32L4xx_HAL_Driver/Src\stm32l4xx_hal_pwr_ex.c ****       /* PWR_CR5_R1MODE bit set means that Range 1 Boost is disabled */
ARM GAS  c:\Users\lenovo\AppData\Local\Temp\ccy7mvmD.s 			page 4


 141:C:/Users/lenovo/Desktop/liteos/Project2/BearPi_LiteOS/targets/STM32L431_BearPi/Drivers/STM32L4xx_HAL_Driver/Src\stm32l4xx_hal_pwr_ex.c ****       return PWR_REGULATOR_VOLTAGE_SCALE1;
 142:C:/Users/lenovo/Desktop/liteos/Project2/BearPi_LiteOS/targets/STM32L431_BearPi/Drivers/STM32L4xx_HAL_Driver/Src\stm32l4xx_hal_pwr_ex.c ****     }
 143:C:/Users/lenovo/Desktop/liteos/Project2/BearPi_LiteOS/targets/STM32L431_BearPi/Drivers/STM32L4xx_HAL_Driver/Src\stm32l4xx_hal_pwr_ex.c ****     else
 144:C:/Users/lenovo/Desktop/liteos/Project2/BearPi_LiteOS/targets/STM32L431_BearPi/Drivers/STM32L4xx_HAL_Driver/Src\stm32l4xx_hal_pwr_ex.c ****     {
 145:C:/Users/lenovo/Desktop/liteos/Project2/BearPi_LiteOS/targets/STM32L431_BearPi/Drivers/STM32L4xx_HAL_Driver/Src\stm32l4xx_hal_pwr_ex.c ****       return PWR_REGULATOR_VOLTAGE_SCALE1_BOOST;
 146:C:/Users/lenovo/Desktop/liteos/Project2/BearPi_LiteOS/targets/STM32L431_BearPi/Drivers/STM32L4xx_HAL_Driver/Src\stm32l4xx_hal_pwr_ex.c ****     }
 147:C:/Users/lenovo/Desktop/liteos/Project2/BearPi_LiteOS/targets/STM32L431_BearPi/Drivers/STM32L4xx_HAL_Driver/Src\stm32l4xx_hal_pwr_ex.c **** #else
 148:C:/Users/lenovo/Desktop/liteos/Project2/BearPi_LiteOS/targets/STM32L431_BearPi/Drivers/STM32L4xx_HAL_Driver/Src\stm32l4xx_hal_pwr_ex.c ****   return  (PWR->CR1 & PWR_CR1_VOS);
  33              		.loc 1 148 0
  34 0000 024B     		ldr	r3, .L2
  35 0002 1868     		ldr	r0, [r3]
 149:C:/Users/lenovo/Desktop/liteos/Project2/BearPi_LiteOS/targets/STM32L431_BearPi/Drivers/STM32L4xx_HAL_Driver/Src\stm32l4xx_hal_pwr_ex.c **** #endif  
 150:C:/Users/lenovo/Desktop/liteos/Project2/BearPi_LiteOS/targets/STM32L431_BearPi/Drivers/STM32L4xx_HAL_Driver/Src\stm32l4xx_hal_pwr_ex.c **** }
  36              		.loc 1 150 0
  37 0004 00F4C060 		and	r0, r0, #1536
  38 0008 7047     		bx	lr
  39              	.L3:
  40 000a 00BF     		.align	2
  41              	.L2:
  42 000c 00700040 		.word	1073770496
  43              		.cfi_endproc
  44              	.LFE133:
  46              		.section	.text.HAL_PWREx_ControlVoltageScaling,"ax",%progbits
  47              		.align	1
  48              		.global	HAL_PWREx_ControlVoltageScaling
  49              		.syntax unified
  50              		.thumb
  51              		.thumb_func
  52              		.fpu fpv4-sp-d16
  54              	HAL_PWREx_ControlVoltageScaling:
  55              	.LFB134:
 151:C:/Users/lenovo/Desktop/liteos/Project2/BearPi_LiteOS/targets/STM32L431_BearPi/Drivers/STM32L4xx_HAL_Driver/Src\stm32l4xx_hal_pwr_ex.c **** 
 152:C:/Users/lenovo/Desktop/liteos/Project2/BearPi_LiteOS/targets/STM32L431_BearPi/Drivers/STM32L4xx_HAL_Driver/Src\stm32l4xx_hal_pwr_ex.c ****   
 153:C:/Users/lenovo/Desktop/liteos/Project2/BearPi_LiteOS/targets/STM32L431_BearPi/Drivers/STM32L4xx_HAL_Driver/Src\stm32l4xx_hal_pwr_ex.c **** 
 154:C:/Users/lenovo/Desktop/liteos/Project2/BearPi_LiteOS/targets/STM32L431_BearPi/Drivers/STM32L4xx_HAL_Driver/Src\stm32l4xx_hal_pwr_ex.c **** /**
 155:C:/Users/lenovo/Desktop/liteos/Project2/BearPi_LiteOS/targets/STM32L431_BearPi/Drivers/STM32L4xx_HAL_Driver/Src\stm32l4xx_hal_pwr_ex.c ****   * @brief Configure the main internal regulator output voltage.
 156:C:/Users/lenovo/Desktop/liteos/Project2/BearPi_LiteOS/targets/STM32L431_BearPi/Drivers/STM32L4xx_HAL_Driver/Src\stm32l4xx_hal_pwr_ex.c ****   * @param  VoltageScaling: specifies the regulator output voltage to achieve
 157:C:/Users/lenovo/Desktop/liteos/Project2/BearPi_LiteOS/targets/STM32L431_BearPi/Drivers/STM32L4xx_HAL_Driver/Src\stm32l4xx_hal_pwr_ex.c ****   *         a tradeoff between performance and power consumption.
 158:C:/Users/lenovo/Desktop/liteos/Project2/BearPi_LiteOS/targets/STM32L431_BearPi/Drivers/STM32L4xx_HAL_Driver/Src\stm32l4xx_hal_pwr_ex.c ****   *          This parameter can be one of the following values:
 159:C:/Users/lenovo/Desktop/liteos/Project2/BearPi_LiteOS/targets/STM32L431_BearPi/Drivers/STM32L4xx_HAL_Driver/Src\stm32l4xx_hal_pwr_ex.c ****   @if STM32L4S9xx
 160:C:/Users/lenovo/Desktop/liteos/Project2/BearPi_LiteOS/targets/STM32L431_BearPi/Drivers/STM32L4xx_HAL_Driver/Src\stm32l4xx_hal_pwr_ex.c ****   *            @arg @ref PWR_REGULATOR_VOLTAGE_SCALE1_BOOST when available, Regulator voltage outpu
 161:C:/Users/lenovo/Desktop/liteos/Project2/BearPi_LiteOS/targets/STM32L431_BearPi/Drivers/STM32L4xx_HAL_Driver/Src\stm32l4xx_hal_pwr_ex.c ****   *                                                typical output voltage at 1.2 V,                
 162:C:/Users/lenovo/Desktop/liteos/Project2/BearPi_LiteOS/targets/STM32L431_BearPi/Drivers/STM32L4xx_HAL_Driver/Src\stm32l4xx_hal_pwr_ex.c ****   *                                                system frequency up to 120 MHz.  
 163:C:/Users/lenovo/Desktop/liteos/Project2/BearPi_LiteOS/targets/STM32L431_BearPi/Drivers/STM32L4xx_HAL_Driver/Src\stm32l4xx_hal_pwr_ex.c ****   @endif
 164:C:/Users/lenovo/Desktop/liteos/Project2/BearPi_LiteOS/targets/STM32L431_BearPi/Drivers/STM32L4xx_HAL_Driver/Src\stm32l4xx_hal_pwr_ex.c ****   *            @arg @ref PWR_REGULATOR_VOLTAGE_SCALE1 Regulator voltage output range 1 mode,
 165:C:/Users/lenovo/Desktop/liteos/Project2/BearPi_LiteOS/targets/STM32L431_BearPi/Drivers/STM32L4xx_HAL_Driver/Src\stm32l4xx_hal_pwr_ex.c ****   *                                                typical output voltage at 1.2 V,  
 166:C:/Users/lenovo/Desktop/liteos/Project2/BearPi_LiteOS/targets/STM32L431_BearPi/Drivers/STM32L4xx_HAL_Driver/Src\stm32l4xx_hal_pwr_ex.c ****   *                                                system frequency up to 80 MHz.
 167:C:/Users/lenovo/Desktop/liteos/Project2/BearPi_LiteOS/targets/STM32L431_BearPi/Drivers/STM32L4xx_HAL_Driver/Src\stm32l4xx_hal_pwr_ex.c ****   *            @arg @ref PWR_REGULATOR_VOLTAGE_SCALE2 Regulator voltage output range 2 mode,
 168:C:/Users/lenovo/Desktop/liteos/Project2/BearPi_LiteOS/targets/STM32L431_BearPi/Drivers/STM32L4xx_HAL_Driver/Src\stm32l4xx_hal_pwr_ex.c ****   *                                                typical output voltage at 1.0 V,                
 169:C:/Users/lenovo/Desktop/liteos/Project2/BearPi_LiteOS/targets/STM32L431_BearPi/Drivers/STM32L4xx_HAL_Driver/Src\stm32l4xx_hal_pwr_ex.c ****   *                                                system frequency up to 26 MHz.
 170:C:/Users/lenovo/Desktop/liteos/Project2/BearPi_LiteOS/targets/STM32L431_BearPi/Drivers/STM32L4xx_HAL_Driver/Src\stm32l4xx_hal_pwr_ex.c ****   * @note  When moving from Range 1 to Range 2, the system frequency must be decreased to
 171:C:/Users/lenovo/Desktop/liteos/Project2/BearPi_LiteOS/targets/STM32L431_BearPi/Drivers/STM32L4xx_HAL_Driver/Src\stm32l4xx_hal_pwr_ex.c ****   *        a value below 26 MHz before calling HAL_PWREx_ControlVoltageScaling() API.
 172:C:/Users/lenovo/Desktop/liteos/Project2/BearPi_LiteOS/targets/STM32L431_BearPi/Drivers/STM32L4xx_HAL_Driver/Src\stm32l4xx_hal_pwr_ex.c ****   *        When moving from Range 2 to Range 1, the system frequency can be increased to
 173:C:/Users/lenovo/Desktop/liteos/Project2/BearPi_LiteOS/targets/STM32L431_BearPi/Drivers/STM32L4xx_HAL_Driver/Src\stm32l4xx_hal_pwr_ex.c ****   *        a value up to 80 MHz after calling HAL_PWREx_ControlVoltageScaling() API. For
 174:C:/Users/lenovo/Desktop/liteos/Project2/BearPi_LiteOS/targets/STM32L431_BearPi/Drivers/STM32L4xx_HAL_Driver/Src\stm32l4xx_hal_pwr_ex.c ****   *        some devices, the system frequency can be increased up to 120 MHz.  
 175:C:/Users/lenovo/Desktop/liteos/Project2/BearPi_LiteOS/targets/STM32L431_BearPi/Drivers/STM32L4xx_HAL_Driver/Src\stm32l4xx_hal_pwr_ex.c ****   * @note  When moving from Range 2 to Range 1, the API waits for VOSF flag to be
 176:C:/Users/lenovo/Desktop/liteos/Project2/BearPi_LiteOS/targets/STM32L431_BearPi/Drivers/STM32L4xx_HAL_Driver/Src\stm32l4xx_hal_pwr_ex.c ****   *        cleared before returning the status. If the flag is not cleared within
ARM GAS  c:\Users\lenovo\AppData\Local\Temp\ccy7mvmD.s 			page 5


 177:C:/Users/lenovo/Desktop/liteos/Project2/BearPi_LiteOS/targets/STM32L431_BearPi/Drivers/STM32L4xx_HAL_Driver/Src\stm32l4xx_hal_pwr_ex.c ****   *        50 microseconds, HAL_TIMEOUT status is reported.                    
 178:C:/Users/lenovo/Desktop/liteos/Project2/BearPi_LiteOS/targets/STM32L431_BearPi/Drivers/STM32L4xx_HAL_Driver/Src\stm32l4xx_hal_pwr_ex.c ****   * @retval HAL Status
 179:C:/Users/lenovo/Desktop/liteos/Project2/BearPi_LiteOS/targets/STM32L431_BearPi/Drivers/STM32L4xx_HAL_Driver/Src\stm32l4xx_hal_pwr_ex.c ****   */
 180:C:/Users/lenovo/Desktop/liteos/Project2/BearPi_LiteOS/targets/STM32L431_BearPi/Drivers/STM32L4xx_HAL_Driver/Src\stm32l4xx_hal_pwr_ex.c **** HAL_StatusTypeDef HAL_PWREx_ControlVoltageScaling(uint32_t VoltageScaling)
 181:C:/Users/lenovo/Desktop/liteos/Project2/BearPi_LiteOS/targets/STM32L431_BearPi/Drivers/STM32L4xx_HAL_Driver/Src\stm32l4xx_hal_pwr_ex.c **** {
  56              		.loc 1 181 0
  57              		.cfi_startproc
  58              		@ args = 0, pretend = 0, frame = 0
  59              		@ frame_needed = 0, uses_anonymous_args = 0
  60              		@ link register save eliminated.
  61              	.LVL0:
 182:C:/Users/lenovo/Desktop/liteos/Project2/BearPi_LiteOS/targets/STM32L431_BearPi/Drivers/STM32L4xx_HAL_Driver/Src\stm32l4xx_hal_pwr_ex.c ****   uint32_t wait_loop_index = 0;  
 183:C:/Users/lenovo/Desktop/liteos/Project2/BearPi_LiteOS/targets/STM32L431_BearPi/Drivers/STM32L4xx_HAL_Driver/Src\stm32l4xx_hal_pwr_ex.c **** 
 184:C:/Users/lenovo/Desktop/liteos/Project2/BearPi_LiteOS/targets/STM32L431_BearPi/Drivers/STM32L4xx_HAL_Driver/Src\stm32l4xx_hal_pwr_ex.c ****   assert_param(IS_PWR_VOLTAGE_SCALING_RANGE(VoltageScaling));
 185:C:/Users/lenovo/Desktop/liteos/Project2/BearPi_LiteOS/targets/STM32L431_BearPi/Drivers/STM32L4xx_HAL_Driver/Src\stm32l4xx_hal_pwr_ex.c **** 
 186:C:/Users/lenovo/Desktop/liteos/Project2/BearPi_LiteOS/targets/STM32L431_BearPi/Drivers/STM32L4xx_HAL_Driver/Src\stm32l4xx_hal_pwr_ex.c **** #if defined(PWR_CR5_R1MODE)
 187:C:/Users/lenovo/Desktop/liteos/Project2/BearPi_LiteOS/targets/STM32L431_BearPi/Drivers/STM32L4xx_HAL_Driver/Src\stm32l4xx_hal_pwr_ex.c ****   if (VoltageScaling == PWR_REGULATOR_VOLTAGE_SCALE1_BOOST)
 188:C:/Users/lenovo/Desktop/liteos/Project2/BearPi_LiteOS/targets/STM32L431_BearPi/Drivers/STM32L4xx_HAL_Driver/Src\stm32l4xx_hal_pwr_ex.c ****   {
 189:C:/Users/lenovo/Desktop/liteos/Project2/BearPi_LiteOS/targets/STM32L431_BearPi/Drivers/STM32L4xx_HAL_Driver/Src\stm32l4xx_hal_pwr_ex.c ****     /* If current range is range 2 */
 190:C:/Users/lenovo/Desktop/liteos/Project2/BearPi_LiteOS/targets/STM32L431_BearPi/Drivers/STM32L4xx_HAL_Driver/Src\stm32l4xx_hal_pwr_ex.c ****     if (READ_BIT(PWR->CR1, PWR_CR1_VOS) == PWR_REGULATOR_VOLTAGE_SCALE2)
 191:C:/Users/lenovo/Desktop/liteos/Project2/BearPi_LiteOS/targets/STM32L431_BearPi/Drivers/STM32L4xx_HAL_Driver/Src\stm32l4xx_hal_pwr_ex.c ****     {
 192:C:/Users/lenovo/Desktop/liteos/Project2/BearPi_LiteOS/targets/STM32L431_BearPi/Drivers/STM32L4xx_HAL_Driver/Src\stm32l4xx_hal_pwr_ex.c ****       /* Make sure Range 1 Boost is enabled */
 193:C:/Users/lenovo/Desktop/liteos/Project2/BearPi_LiteOS/targets/STM32L431_BearPi/Drivers/STM32L4xx_HAL_Driver/Src\stm32l4xx_hal_pwr_ex.c ****       CLEAR_BIT(PWR->CR5, PWR_CR5_R1MODE);
 194:C:/Users/lenovo/Desktop/liteos/Project2/BearPi_LiteOS/targets/STM32L431_BearPi/Drivers/STM32L4xx_HAL_Driver/Src\stm32l4xx_hal_pwr_ex.c ****       
 195:C:/Users/lenovo/Desktop/liteos/Project2/BearPi_LiteOS/targets/STM32L431_BearPi/Drivers/STM32L4xx_HAL_Driver/Src\stm32l4xx_hal_pwr_ex.c ****       /* Set Range 1 */
 196:C:/Users/lenovo/Desktop/liteos/Project2/BearPi_LiteOS/targets/STM32L431_BearPi/Drivers/STM32L4xx_HAL_Driver/Src\stm32l4xx_hal_pwr_ex.c ****       MODIFY_REG(PWR->CR1, PWR_CR1_VOS, PWR_REGULATOR_VOLTAGE_SCALE1);
 197:C:/Users/lenovo/Desktop/liteos/Project2/BearPi_LiteOS/targets/STM32L431_BearPi/Drivers/STM32L4xx_HAL_Driver/Src\stm32l4xx_hal_pwr_ex.c ****       
 198:C:/Users/lenovo/Desktop/liteos/Project2/BearPi_LiteOS/targets/STM32L431_BearPi/Drivers/STM32L4xx_HAL_Driver/Src\stm32l4xx_hal_pwr_ex.c ****       /* Wait until VOSF is cleared */      
 199:C:/Users/lenovo/Desktop/liteos/Project2/BearPi_LiteOS/targets/STM32L431_BearPi/Drivers/STM32L4xx_HAL_Driver/Src\stm32l4xx_hal_pwr_ex.c ****       wait_loop_index = (PWR_FLAG_SETTING_DELAY_US * (SystemCoreClock / 1000000));
 200:C:/Users/lenovo/Desktop/liteos/Project2/BearPi_LiteOS/targets/STM32L431_BearPi/Drivers/STM32L4xx_HAL_Driver/Src\stm32l4xx_hal_pwr_ex.c ****       while ((wait_loop_index != 0) && (HAL_IS_BIT_SET(PWR->SR2, PWR_SR2_VOSF)))
 201:C:/Users/lenovo/Desktop/liteos/Project2/BearPi_LiteOS/targets/STM32L431_BearPi/Drivers/STM32L4xx_HAL_Driver/Src\stm32l4xx_hal_pwr_ex.c ****       {
 202:C:/Users/lenovo/Desktop/liteos/Project2/BearPi_LiteOS/targets/STM32L431_BearPi/Drivers/STM32L4xx_HAL_Driver/Src\stm32l4xx_hal_pwr_ex.c ****         wait_loop_index--;
 203:C:/Users/lenovo/Desktop/liteos/Project2/BearPi_LiteOS/targets/STM32L431_BearPi/Drivers/STM32L4xx_HAL_Driver/Src\stm32l4xx_hal_pwr_ex.c ****       }
 204:C:/Users/lenovo/Desktop/liteos/Project2/BearPi_LiteOS/targets/STM32L431_BearPi/Drivers/STM32L4xx_HAL_Driver/Src\stm32l4xx_hal_pwr_ex.c ****       if (HAL_IS_BIT_SET(PWR->SR2, PWR_SR2_VOSF))
 205:C:/Users/lenovo/Desktop/liteos/Project2/BearPi_LiteOS/targets/STM32L431_BearPi/Drivers/STM32L4xx_HAL_Driver/Src\stm32l4xx_hal_pwr_ex.c ****       {
 206:C:/Users/lenovo/Desktop/liteos/Project2/BearPi_LiteOS/targets/STM32L431_BearPi/Drivers/STM32L4xx_HAL_Driver/Src\stm32l4xx_hal_pwr_ex.c ****         return HAL_TIMEOUT;
 207:C:/Users/lenovo/Desktop/liteos/Project2/BearPi_LiteOS/targets/STM32L431_BearPi/Drivers/STM32L4xx_HAL_Driver/Src\stm32l4xx_hal_pwr_ex.c ****       }    
 208:C:/Users/lenovo/Desktop/liteos/Project2/BearPi_LiteOS/targets/STM32L431_BearPi/Drivers/STM32L4xx_HAL_Driver/Src\stm32l4xx_hal_pwr_ex.c ****     } 
 209:C:/Users/lenovo/Desktop/liteos/Project2/BearPi_LiteOS/targets/STM32L431_BearPi/Drivers/STM32L4xx_HAL_Driver/Src\stm32l4xx_hal_pwr_ex.c ****     /* If current range is range 1 normal or boost mode */
 210:C:/Users/lenovo/Desktop/liteos/Project2/BearPi_LiteOS/targets/STM32L431_BearPi/Drivers/STM32L4xx_HAL_Driver/Src\stm32l4xx_hal_pwr_ex.c ****     else
 211:C:/Users/lenovo/Desktop/liteos/Project2/BearPi_LiteOS/targets/STM32L431_BearPi/Drivers/STM32L4xx_HAL_Driver/Src\stm32l4xx_hal_pwr_ex.c ****     {
 212:C:/Users/lenovo/Desktop/liteos/Project2/BearPi_LiteOS/targets/STM32L431_BearPi/Drivers/STM32L4xx_HAL_Driver/Src\stm32l4xx_hal_pwr_ex.c ****       /* Enable Range 1 Boost (no issue if bit already reset) */
 213:C:/Users/lenovo/Desktop/liteos/Project2/BearPi_LiteOS/targets/STM32L431_BearPi/Drivers/STM32L4xx_HAL_Driver/Src\stm32l4xx_hal_pwr_ex.c ****       CLEAR_BIT(PWR->CR5, PWR_CR5_R1MODE);
 214:C:/Users/lenovo/Desktop/liteos/Project2/BearPi_LiteOS/targets/STM32L431_BearPi/Drivers/STM32L4xx_HAL_Driver/Src\stm32l4xx_hal_pwr_ex.c ****     }
 215:C:/Users/lenovo/Desktop/liteos/Project2/BearPi_LiteOS/targets/STM32L431_BearPi/Drivers/STM32L4xx_HAL_Driver/Src\stm32l4xx_hal_pwr_ex.c ****   }
 216:C:/Users/lenovo/Desktop/liteos/Project2/BearPi_LiteOS/targets/STM32L431_BearPi/Drivers/STM32L4xx_HAL_Driver/Src\stm32l4xx_hal_pwr_ex.c ****   else if (VoltageScaling == PWR_REGULATOR_VOLTAGE_SCALE1)
 217:C:/Users/lenovo/Desktop/liteos/Project2/BearPi_LiteOS/targets/STM32L431_BearPi/Drivers/STM32L4xx_HAL_Driver/Src\stm32l4xx_hal_pwr_ex.c ****   {
 218:C:/Users/lenovo/Desktop/liteos/Project2/BearPi_LiteOS/targets/STM32L431_BearPi/Drivers/STM32L4xx_HAL_Driver/Src\stm32l4xx_hal_pwr_ex.c ****     /* If current range is range 2 */
 219:C:/Users/lenovo/Desktop/liteos/Project2/BearPi_LiteOS/targets/STM32L431_BearPi/Drivers/STM32L4xx_HAL_Driver/Src\stm32l4xx_hal_pwr_ex.c ****     if (READ_BIT(PWR->CR1, PWR_CR1_VOS) == PWR_REGULATOR_VOLTAGE_SCALE2)
 220:C:/Users/lenovo/Desktop/liteos/Project2/BearPi_LiteOS/targets/STM32L431_BearPi/Drivers/STM32L4xx_HAL_Driver/Src\stm32l4xx_hal_pwr_ex.c ****     {
 221:C:/Users/lenovo/Desktop/liteos/Project2/BearPi_LiteOS/targets/STM32L431_BearPi/Drivers/STM32L4xx_HAL_Driver/Src\stm32l4xx_hal_pwr_ex.c ****       /* Make sure Range 1 Boost is disabled */
 222:C:/Users/lenovo/Desktop/liteos/Project2/BearPi_LiteOS/targets/STM32L431_BearPi/Drivers/STM32L4xx_HAL_Driver/Src\stm32l4xx_hal_pwr_ex.c ****       SET_BIT(PWR->CR5, PWR_CR5_R1MODE);
 223:C:/Users/lenovo/Desktop/liteos/Project2/BearPi_LiteOS/targets/STM32L431_BearPi/Drivers/STM32L4xx_HAL_Driver/Src\stm32l4xx_hal_pwr_ex.c ****       
 224:C:/Users/lenovo/Desktop/liteos/Project2/BearPi_LiteOS/targets/STM32L431_BearPi/Drivers/STM32L4xx_HAL_Driver/Src\stm32l4xx_hal_pwr_ex.c ****       /* Set Range 1 */
 225:C:/Users/lenovo/Desktop/liteos/Project2/BearPi_LiteOS/targets/STM32L431_BearPi/Drivers/STM32L4xx_HAL_Driver/Src\stm32l4xx_hal_pwr_ex.c ****       MODIFY_REG(PWR->CR1, PWR_CR1_VOS, PWR_REGULATOR_VOLTAGE_SCALE1);
 226:C:/Users/lenovo/Desktop/liteos/Project2/BearPi_LiteOS/targets/STM32L431_BearPi/Drivers/STM32L4xx_HAL_Driver/Src\stm32l4xx_hal_pwr_ex.c ****       
 227:C:/Users/lenovo/Desktop/liteos/Project2/BearPi_LiteOS/targets/STM32L431_BearPi/Drivers/STM32L4xx_HAL_Driver/Src\stm32l4xx_hal_pwr_ex.c ****       /* Wait until VOSF is cleared */      
ARM GAS  c:\Users\lenovo\AppData\Local\Temp\ccy7mvmD.s 			page 6


 228:C:/Users/lenovo/Desktop/liteos/Project2/BearPi_LiteOS/targets/STM32L431_BearPi/Drivers/STM32L4xx_HAL_Driver/Src\stm32l4xx_hal_pwr_ex.c ****       wait_loop_index = (PWR_FLAG_SETTING_DELAY_US * (SystemCoreClock / 1000000));
 229:C:/Users/lenovo/Desktop/liteos/Project2/BearPi_LiteOS/targets/STM32L431_BearPi/Drivers/STM32L4xx_HAL_Driver/Src\stm32l4xx_hal_pwr_ex.c ****       while ((wait_loop_index != 0) && (HAL_IS_BIT_SET(PWR->SR2, PWR_SR2_VOSF)))
 230:C:/Users/lenovo/Desktop/liteos/Project2/BearPi_LiteOS/targets/STM32L431_BearPi/Drivers/STM32L4xx_HAL_Driver/Src\stm32l4xx_hal_pwr_ex.c ****       {
 231:C:/Users/lenovo/Desktop/liteos/Project2/BearPi_LiteOS/targets/STM32L431_BearPi/Drivers/STM32L4xx_HAL_Driver/Src\stm32l4xx_hal_pwr_ex.c ****         wait_loop_index--;
 232:C:/Users/lenovo/Desktop/liteos/Project2/BearPi_LiteOS/targets/STM32L431_BearPi/Drivers/STM32L4xx_HAL_Driver/Src\stm32l4xx_hal_pwr_ex.c ****       }
 233:C:/Users/lenovo/Desktop/liteos/Project2/BearPi_LiteOS/targets/STM32L431_BearPi/Drivers/STM32L4xx_HAL_Driver/Src\stm32l4xx_hal_pwr_ex.c ****       if (HAL_IS_BIT_SET(PWR->SR2, PWR_SR2_VOSF))
 234:C:/Users/lenovo/Desktop/liteos/Project2/BearPi_LiteOS/targets/STM32L431_BearPi/Drivers/STM32L4xx_HAL_Driver/Src\stm32l4xx_hal_pwr_ex.c ****       {
 235:C:/Users/lenovo/Desktop/liteos/Project2/BearPi_LiteOS/targets/STM32L431_BearPi/Drivers/STM32L4xx_HAL_Driver/Src\stm32l4xx_hal_pwr_ex.c ****         return HAL_TIMEOUT;
 236:C:/Users/lenovo/Desktop/liteos/Project2/BearPi_LiteOS/targets/STM32L431_BearPi/Drivers/STM32L4xx_HAL_Driver/Src\stm32l4xx_hal_pwr_ex.c ****       }    
 237:C:/Users/lenovo/Desktop/liteos/Project2/BearPi_LiteOS/targets/STM32L431_BearPi/Drivers/STM32L4xx_HAL_Driver/Src\stm32l4xx_hal_pwr_ex.c ****     } 
 238:C:/Users/lenovo/Desktop/liteos/Project2/BearPi_LiteOS/targets/STM32L431_BearPi/Drivers/STM32L4xx_HAL_Driver/Src\stm32l4xx_hal_pwr_ex.c ****      /* If current range is range 1 normal or boost mode */
 239:C:/Users/lenovo/Desktop/liteos/Project2/BearPi_LiteOS/targets/STM32L431_BearPi/Drivers/STM32L4xx_HAL_Driver/Src\stm32l4xx_hal_pwr_ex.c ****     else
 240:C:/Users/lenovo/Desktop/liteos/Project2/BearPi_LiteOS/targets/STM32L431_BearPi/Drivers/STM32L4xx_HAL_Driver/Src\stm32l4xx_hal_pwr_ex.c ****     {
 241:C:/Users/lenovo/Desktop/liteos/Project2/BearPi_LiteOS/targets/STM32L431_BearPi/Drivers/STM32L4xx_HAL_Driver/Src\stm32l4xx_hal_pwr_ex.c ****       /* Disable Range 1 Boost (no issue if bit already set) */
 242:C:/Users/lenovo/Desktop/liteos/Project2/BearPi_LiteOS/targets/STM32L431_BearPi/Drivers/STM32L4xx_HAL_Driver/Src\stm32l4xx_hal_pwr_ex.c ****       SET_BIT(PWR->CR5, PWR_CR5_R1MODE);
 243:C:/Users/lenovo/Desktop/liteos/Project2/BearPi_LiteOS/targets/STM32L431_BearPi/Drivers/STM32L4xx_HAL_Driver/Src\stm32l4xx_hal_pwr_ex.c ****     } 
 244:C:/Users/lenovo/Desktop/liteos/Project2/BearPi_LiteOS/targets/STM32L431_BearPi/Drivers/STM32L4xx_HAL_Driver/Src\stm32l4xx_hal_pwr_ex.c ****   }
 245:C:/Users/lenovo/Desktop/liteos/Project2/BearPi_LiteOS/targets/STM32L431_BearPi/Drivers/STM32L4xx_HAL_Driver/Src\stm32l4xx_hal_pwr_ex.c ****   else
 246:C:/Users/lenovo/Desktop/liteos/Project2/BearPi_LiteOS/targets/STM32L431_BearPi/Drivers/STM32L4xx_HAL_Driver/Src\stm32l4xx_hal_pwr_ex.c ****   {
 247:C:/Users/lenovo/Desktop/liteos/Project2/BearPi_LiteOS/targets/STM32L431_BearPi/Drivers/STM32L4xx_HAL_Driver/Src\stm32l4xx_hal_pwr_ex.c ****     /* Set Range 2 */
 248:C:/Users/lenovo/Desktop/liteos/Project2/BearPi_LiteOS/targets/STM32L431_BearPi/Drivers/STM32L4xx_HAL_Driver/Src\stm32l4xx_hal_pwr_ex.c ****     MODIFY_REG(PWR->CR1, PWR_CR1_VOS, PWR_REGULATOR_VOLTAGE_SCALE2);
 249:C:/Users/lenovo/Desktop/liteos/Project2/BearPi_LiteOS/targets/STM32L431_BearPi/Drivers/STM32L4xx_HAL_Driver/Src\stm32l4xx_hal_pwr_ex.c ****     /* No need to wait for VOSF to be cleared for this transition */
 250:C:/Users/lenovo/Desktop/liteos/Project2/BearPi_LiteOS/targets/STM32L431_BearPi/Drivers/STM32L4xx_HAL_Driver/Src\stm32l4xx_hal_pwr_ex.c ****     /* PWR_CR5_R1MODE bit setting has no effect in Range 2        */    
 251:C:/Users/lenovo/Desktop/liteos/Project2/BearPi_LiteOS/targets/STM32L431_BearPi/Drivers/STM32L4xx_HAL_Driver/Src\stm32l4xx_hal_pwr_ex.c ****   }
 252:C:/Users/lenovo/Desktop/liteos/Project2/BearPi_LiteOS/targets/STM32L431_BearPi/Drivers/STM32L4xx_HAL_Driver/Src\stm32l4xx_hal_pwr_ex.c ****   
 253:C:/Users/lenovo/Desktop/liteos/Project2/BearPi_LiteOS/targets/STM32L431_BearPi/Drivers/STM32L4xx_HAL_Driver/Src\stm32l4xx_hal_pwr_ex.c **** #else
 254:C:/Users/lenovo/Desktop/liteos/Project2/BearPi_LiteOS/targets/STM32L431_BearPi/Drivers/STM32L4xx_HAL_Driver/Src\stm32l4xx_hal_pwr_ex.c **** 
 255:C:/Users/lenovo/Desktop/liteos/Project2/BearPi_LiteOS/targets/STM32L431_BearPi/Drivers/STM32L4xx_HAL_Driver/Src\stm32l4xx_hal_pwr_ex.c ****   /* If Set Range 1 */
 256:C:/Users/lenovo/Desktop/liteos/Project2/BearPi_LiteOS/targets/STM32L431_BearPi/Drivers/STM32L4xx_HAL_Driver/Src\stm32l4xx_hal_pwr_ex.c ****   if (VoltageScaling == PWR_REGULATOR_VOLTAGE_SCALE1)
  62              		.loc 1 256 0
  63 0000 B0F5007F 		cmp	r0, #512
  64 0004 0FD0     		beq	.L13
 257:C:/Users/lenovo/Desktop/liteos/Project2/BearPi_LiteOS/targets/STM32L431_BearPi/Drivers/STM32L4xx_HAL_Driver/Src\stm32l4xx_hal_pwr_ex.c ****   {
 258:C:/Users/lenovo/Desktop/liteos/Project2/BearPi_LiteOS/targets/STM32L431_BearPi/Drivers/STM32L4xx_HAL_Driver/Src\stm32l4xx_hal_pwr_ex.c ****     if (READ_BIT(PWR->CR1, PWR_CR1_VOS) != PWR_REGULATOR_VOLTAGE_SCALE1)
 259:C:/Users/lenovo/Desktop/liteos/Project2/BearPi_LiteOS/targets/STM32L431_BearPi/Drivers/STM32L4xx_HAL_Driver/Src\stm32l4xx_hal_pwr_ex.c ****     {
 260:C:/Users/lenovo/Desktop/liteos/Project2/BearPi_LiteOS/targets/STM32L431_BearPi/Drivers/STM32L4xx_HAL_Driver/Src\stm32l4xx_hal_pwr_ex.c ****       /* Set Range 1 */
 261:C:/Users/lenovo/Desktop/liteos/Project2/BearPi_LiteOS/targets/STM32L431_BearPi/Drivers/STM32L4xx_HAL_Driver/Src\stm32l4xx_hal_pwr_ex.c ****       MODIFY_REG(PWR->CR1, PWR_CR1_VOS, PWR_REGULATOR_VOLTAGE_SCALE1);
 262:C:/Users/lenovo/Desktop/liteos/Project2/BearPi_LiteOS/targets/STM32L431_BearPi/Drivers/STM32L4xx_HAL_Driver/Src\stm32l4xx_hal_pwr_ex.c ****       
 263:C:/Users/lenovo/Desktop/liteos/Project2/BearPi_LiteOS/targets/STM32L431_BearPi/Drivers/STM32L4xx_HAL_Driver/Src\stm32l4xx_hal_pwr_ex.c ****       /* Wait until VOSF is cleared */      
 264:C:/Users/lenovo/Desktop/liteos/Project2/BearPi_LiteOS/targets/STM32L431_BearPi/Drivers/STM32L4xx_HAL_Driver/Src\stm32l4xx_hal_pwr_ex.c ****       wait_loop_index = (PWR_FLAG_SETTING_DELAY_US * (SystemCoreClock / 1000000));
 265:C:/Users/lenovo/Desktop/liteos/Project2/BearPi_LiteOS/targets/STM32L431_BearPi/Drivers/STM32L4xx_HAL_Driver/Src\stm32l4xx_hal_pwr_ex.c ****       while ((wait_loop_index != 0) && (HAL_IS_BIT_SET(PWR->SR2, PWR_SR2_VOSF)))
 266:C:/Users/lenovo/Desktop/liteos/Project2/BearPi_LiteOS/targets/STM32L431_BearPi/Drivers/STM32L4xx_HAL_Driver/Src\stm32l4xx_hal_pwr_ex.c ****       {
 267:C:/Users/lenovo/Desktop/liteos/Project2/BearPi_LiteOS/targets/STM32L431_BearPi/Drivers/STM32L4xx_HAL_Driver/Src\stm32l4xx_hal_pwr_ex.c ****         wait_loop_index--;
 268:C:/Users/lenovo/Desktop/liteos/Project2/BearPi_LiteOS/targets/STM32L431_BearPi/Drivers/STM32L4xx_HAL_Driver/Src\stm32l4xx_hal_pwr_ex.c ****       }
 269:C:/Users/lenovo/Desktop/liteos/Project2/BearPi_LiteOS/targets/STM32L431_BearPi/Drivers/STM32L4xx_HAL_Driver/Src\stm32l4xx_hal_pwr_ex.c ****       if (HAL_IS_BIT_SET(PWR->SR2, PWR_SR2_VOSF))
 270:C:/Users/lenovo/Desktop/liteos/Project2/BearPi_LiteOS/targets/STM32L431_BearPi/Drivers/STM32L4xx_HAL_Driver/Src\stm32l4xx_hal_pwr_ex.c ****       {
 271:C:/Users/lenovo/Desktop/liteos/Project2/BearPi_LiteOS/targets/STM32L431_BearPi/Drivers/STM32L4xx_HAL_Driver/Src\stm32l4xx_hal_pwr_ex.c ****         return HAL_TIMEOUT;
 272:C:/Users/lenovo/Desktop/liteos/Project2/BearPi_LiteOS/targets/STM32L431_BearPi/Drivers/STM32L4xx_HAL_Driver/Src\stm32l4xx_hal_pwr_ex.c ****       }
 273:C:/Users/lenovo/Desktop/liteos/Project2/BearPi_LiteOS/targets/STM32L431_BearPi/Drivers/STM32L4xx_HAL_Driver/Src\stm32l4xx_hal_pwr_ex.c ****     }
 274:C:/Users/lenovo/Desktop/liteos/Project2/BearPi_LiteOS/targets/STM32L431_BearPi/Drivers/STM32L4xx_HAL_Driver/Src\stm32l4xx_hal_pwr_ex.c ****   }
 275:C:/Users/lenovo/Desktop/liteos/Project2/BearPi_LiteOS/targets/STM32L431_BearPi/Drivers/STM32L4xx_HAL_Driver/Src\stm32l4xx_hal_pwr_ex.c ****   else
 276:C:/Users/lenovo/Desktop/liteos/Project2/BearPi_LiteOS/targets/STM32L431_BearPi/Drivers/STM32L4xx_HAL_Driver/Src\stm32l4xx_hal_pwr_ex.c ****   {
 277:C:/Users/lenovo/Desktop/liteos/Project2/BearPi_LiteOS/targets/STM32L431_BearPi/Drivers/STM32L4xx_HAL_Driver/Src\stm32l4xx_hal_pwr_ex.c ****     if (READ_BIT(PWR->CR1, PWR_CR1_VOS) != PWR_REGULATOR_VOLTAGE_SCALE2)
  65              		.loc 1 277 0
  66 0006 204B     		ldr	r3, .L15
  67 0008 1B68     		ldr	r3, [r3]
  68 000a 03F4C063 		and	r3, r3, #1536
ARM GAS  c:\Users\lenovo\AppData\Local\Temp\ccy7mvmD.s 			page 7


  69 000e B3F5806F 		cmp	r3, #1024
  70 0012 37D0     		beq	.L12
 278:C:/Users/lenovo/Desktop/liteos/Project2/BearPi_LiteOS/targets/STM32L431_BearPi/Drivers/STM32L4xx_HAL_Driver/Src\stm32l4xx_hal_pwr_ex.c ****     {
 279:C:/Users/lenovo/Desktop/liteos/Project2/BearPi_LiteOS/targets/STM32L431_BearPi/Drivers/STM32L4xx_HAL_Driver/Src\stm32l4xx_hal_pwr_ex.c ****       /* Set Range 2 */
 280:C:/Users/lenovo/Desktop/liteos/Project2/BearPi_LiteOS/targets/STM32L431_BearPi/Drivers/STM32L4xx_HAL_Driver/Src\stm32l4xx_hal_pwr_ex.c ****       MODIFY_REG(PWR->CR1, PWR_CR1_VOS, PWR_REGULATOR_VOLTAGE_SCALE2);
  71              		.loc 1 280 0
  72 0014 1C4A     		ldr	r2, .L15
  73 0016 1368     		ldr	r3, [r2]
  74 0018 23F4C063 		bic	r3, r3, #1536
  75 001c 43F48063 		orr	r3, r3, #1024
  76 0020 1360     		str	r3, [r2]
 281:C:/Users/lenovo/Desktop/liteos/Project2/BearPi_LiteOS/targets/STM32L431_BearPi/Drivers/STM32L4xx_HAL_Driver/Src\stm32l4xx_hal_pwr_ex.c ****       /* No need to wait for VOSF to be cleared for this transition */
 282:C:/Users/lenovo/Desktop/liteos/Project2/BearPi_LiteOS/targets/STM32L431_BearPi/Drivers/STM32L4xx_HAL_Driver/Src\stm32l4xx_hal_pwr_ex.c ****     }
 283:C:/Users/lenovo/Desktop/liteos/Project2/BearPi_LiteOS/targets/STM32L431_BearPi/Drivers/STM32L4xx_HAL_Driver/Src\stm32l4xx_hal_pwr_ex.c ****   }
 284:C:/Users/lenovo/Desktop/liteos/Project2/BearPi_LiteOS/targets/STM32L431_BearPi/Drivers/STM32L4xx_HAL_Driver/Src\stm32l4xx_hal_pwr_ex.c **** #endif  
 285:C:/Users/lenovo/Desktop/liteos/Project2/BearPi_LiteOS/targets/STM32L431_BearPi/Drivers/STM32L4xx_HAL_Driver/Src\stm32l4xx_hal_pwr_ex.c ****   
 286:C:/Users/lenovo/Desktop/liteos/Project2/BearPi_LiteOS/targets/STM32L431_BearPi/Drivers/STM32L4xx_HAL_Driver/Src\stm32l4xx_hal_pwr_ex.c ****   return HAL_OK;
  77              		.loc 1 286 0
  78 0022 0020     		movs	r0, #0
  79              	.LVL1:
  80 0024 7047     		bx	lr
  81              	.LVL2:
  82              	.L13:
 258:C:/Users/lenovo/Desktop/liteos/Project2/BearPi_LiteOS/targets/STM32L431_BearPi/Drivers/STM32L4xx_HAL_Driver/Src\stm32l4xx_hal_pwr_ex.c ****     {
  83              		.loc 1 258 0
  84 0026 184B     		ldr	r3, .L15
  85 0028 1B68     		ldr	r3, [r3]
  86 002a 03F4C063 		and	r3, r3, #1536
  87 002e B3F5007F 		cmp	r3, #512
  88 0032 25D0     		beq	.L10
 261:C:/Users/lenovo/Desktop/liteos/Project2/BearPi_LiteOS/targets/STM32L431_BearPi/Drivers/STM32L4xx_HAL_Driver/Src\stm32l4xx_hal_pwr_ex.c ****       
  89              		.loc 1 261 0
  90 0034 144A     		ldr	r2, .L15
  91 0036 1368     		ldr	r3, [r2]
  92 0038 23F4C063 		bic	r3, r3, #1536
  93 003c 43F40073 		orr	r3, r3, #512
  94 0040 1360     		str	r3, [r2]
 264:C:/Users/lenovo/Desktop/liteos/Project2/BearPi_LiteOS/targets/STM32L431_BearPi/Drivers/STM32L4xx_HAL_Driver/Src\stm32l4xx_hal_pwr_ex.c ****       while ((wait_loop_index != 0) && (HAL_IS_BIT_SET(PWR->SR2, PWR_SR2_VOSF)))
  95              		.loc 1 264 0
  96 0042 124B     		ldr	r3, .L15+4
  97 0044 1B68     		ldr	r3, [r3]
  98 0046 02F14672 		add	r2, r2, #51904512
  99 004a 02F55B32 		add	r2, r2, #224256
 100 004e 02F28322 		addw	r2, r2, #643
 101 0052 A2FB0323 		umull	r2, r3, r2, r3
 102 0056 9A0C     		lsrs	r2, r3, #18
 103 0058 3223     		movs	r3, #50
 104 005a 03FB02F3 		mul	r3, r3, r2
 105              	.LVL3:
 265:C:/Users/lenovo/Desktop/liteos/Project2/BearPi_LiteOS/targets/STM32L431_BearPi/Drivers/STM32L4xx_HAL_Driver/Src\stm32l4xx_hal_pwr_ex.c ****       {
 106              		.loc 1 265 0
 107 005e 00E0     		b	.L7
 108              	.L9:
 267:C:/Users/lenovo/Desktop/liteos/Project2/BearPi_LiteOS/targets/STM32L431_BearPi/Drivers/STM32L4xx_HAL_Driver/Src\stm32l4xx_hal_pwr_ex.c ****       }
 109              		.loc 1 267 0
 110 0060 013B     		subs	r3, r3, #1
 111              	.LVL4:
ARM GAS  c:\Users\lenovo\AppData\Local\Temp\ccy7mvmD.s 			page 8


 112              	.L7:
 265:C:/Users/lenovo/Desktop/liteos/Project2/BearPi_LiteOS/targets/STM32L431_BearPi/Drivers/STM32L4xx_HAL_Driver/Src\stm32l4xx_hal_pwr_ex.c ****       {
 113              		.loc 1 265 0
 114 0062 23B1     		cbz	r3, .L8
 265:C:/Users/lenovo/Desktop/liteos/Project2/BearPi_LiteOS/targets/STM32L431_BearPi/Drivers/STM32L4xx_HAL_Driver/Src\stm32l4xx_hal_pwr_ex.c ****       {
 115              		.loc 1 265 0 is_stmt 0 discriminator 1
 116 0064 084A     		ldr	r2, .L15
 117 0066 5269     		ldr	r2, [r2, #20]
 118 0068 12F4806F 		tst	r2, #1024
 119 006c F8D1     		bne	.L9
 120              	.L8:
 269:C:/Users/lenovo/Desktop/liteos/Project2/BearPi_LiteOS/targets/STM32L431_BearPi/Drivers/STM32L4xx_HAL_Driver/Src\stm32l4xx_hal_pwr_ex.c ****       {
 121              		.loc 1 269 0 is_stmt 1
 122 006e 064B     		ldr	r3, .L15
 123              	.LVL5:
 124 0070 5B69     		ldr	r3, [r3, #20]
 125 0072 13F4806F 		tst	r3, #1024
 126 0076 01D1     		bne	.L14
 127              		.loc 1 286 0
 128 0078 0020     		movs	r0, #0
 129              	.LVL6:
 130 007a 7047     		bx	lr
 131              	.LVL7:
 132              	.L14:
 271:C:/Users/lenovo/Desktop/liteos/Project2/BearPi_LiteOS/targets/STM32L431_BearPi/Drivers/STM32L4xx_HAL_Driver/Src\stm32l4xx_hal_pwr_ex.c ****       }
 133              		.loc 1 271 0
 134 007c 0320     		movs	r0, #3
 135              	.LVL8:
 136 007e 7047     		bx	lr
 137              	.LVL9:
 138              	.L10:
 139              		.loc 1 286 0
 140 0080 0020     		movs	r0, #0
 141              	.LVL10:
 142 0082 7047     		bx	lr
 143              	.LVL11:
 144              	.L12:
 145 0084 0020     		movs	r0, #0
 146              	.LVL12:
 287:C:/Users/lenovo/Desktop/liteos/Project2/BearPi_LiteOS/targets/STM32L431_BearPi/Drivers/STM32L4xx_HAL_Driver/Src\stm32l4xx_hal_pwr_ex.c **** }  
 147              		.loc 1 287 0
 148 0086 7047     		bx	lr
 149              	.L16:
 150              		.align	2
 151              	.L15:
 152 0088 00700040 		.word	1073770496
 153 008c 00000000 		.word	SystemCoreClock
 154              		.cfi_endproc
 155              	.LFE134:
 157              		.section	.text.HAL_PWREx_EnableBatteryCharging,"ax",%progbits
 158              		.align	1
 159              		.global	HAL_PWREx_EnableBatteryCharging
 160              		.syntax unified
 161              		.thumb
 162              		.thumb_func
 163              		.fpu fpv4-sp-d16
 165              	HAL_PWREx_EnableBatteryCharging:
ARM GAS  c:\Users\lenovo\AppData\Local\Temp\ccy7mvmD.s 			page 9


 166              	.LFB135:
 288:C:/Users/lenovo/Desktop/liteos/Project2/BearPi_LiteOS/targets/STM32L431_BearPi/Drivers/STM32L4xx_HAL_Driver/Src\stm32l4xx_hal_pwr_ex.c **** 
 289:C:/Users/lenovo/Desktop/liteos/Project2/BearPi_LiteOS/targets/STM32L431_BearPi/Drivers/STM32L4xx_HAL_Driver/Src\stm32l4xx_hal_pwr_ex.c **** 
 290:C:/Users/lenovo/Desktop/liteos/Project2/BearPi_LiteOS/targets/STM32L431_BearPi/Drivers/STM32L4xx_HAL_Driver/Src\stm32l4xx_hal_pwr_ex.c **** /**
 291:C:/Users/lenovo/Desktop/liteos/Project2/BearPi_LiteOS/targets/STM32L431_BearPi/Drivers/STM32L4xx_HAL_Driver/Src\stm32l4xx_hal_pwr_ex.c ****   * @brief Enable battery charging.
 292:C:/Users/lenovo/Desktop/liteos/Project2/BearPi_LiteOS/targets/STM32L431_BearPi/Drivers/STM32L4xx_HAL_Driver/Src\stm32l4xx_hal_pwr_ex.c ****   *        When VDD is present, charge the external battery on VBAT thru an internal resistor.  
 293:C:/Users/lenovo/Desktop/liteos/Project2/BearPi_LiteOS/targets/STM32L431_BearPi/Drivers/STM32L4xx_HAL_Driver/Src\stm32l4xx_hal_pwr_ex.c ****   * @param  ResistorSelection: specifies the resistor impedance.
 294:C:/Users/lenovo/Desktop/liteos/Project2/BearPi_LiteOS/targets/STM32L431_BearPi/Drivers/STM32L4xx_HAL_Driver/Src\stm32l4xx_hal_pwr_ex.c ****   *          This parameter can be one of the following values:
 295:C:/Users/lenovo/Desktop/liteos/Project2/BearPi_LiteOS/targets/STM32L431_BearPi/Drivers/STM32L4xx_HAL_Driver/Src\stm32l4xx_hal_pwr_ex.c ****   *            @arg @ref PWR_BATTERY_CHARGING_RESISTOR_5     5 kOhms resistor
 296:C:/Users/lenovo/Desktop/liteos/Project2/BearPi_LiteOS/targets/STM32L431_BearPi/Drivers/STM32L4xx_HAL_Driver/Src\stm32l4xx_hal_pwr_ex.c ****   *            @arg @ref PWR_BATTERY_CHARGING_RESISTOR_1_5 1.5 kOhms resistor 
 297:C:/Users/lenovo/Desktop/liteos/Project2/BearPi_LiteOS/targets/STM32L431_BearPi/Drivers/STM32L4xx_HAL_Driver/Src\stm32l4xx_hal_pwr_ex.c ****   * @retval None
 298:C:/Users/lenovo/Desktop/liteos/Project2/BearPi_LiteOS/targets/STM32L431_BearPi/Drivers/STM32L4xx_HAL_Driver/Src\stm32l4xx_hal_pwr_ex.c ****   */
 299:C:/Users/lenovo/Desktop/liteos/Project2/BearPi_LiteOS/targets/STM32L431_BearPi/Drivers/STM32L4xx_HAL_Driver/Src\stm32l4xx_hal_pwr_ex.c **** void HAL_PWREx_EnableBatteryCharging(uint32_t ResistorSelection)
 300:C:/Users/lenovo/Desktop/liteos/Project2/BearPi_LiteOS/targets/STM32L431_BearPi/Drivers/STM32L4xx_HAL_Driver/Src\stm32l4xx_hal_pwr_ex.c **** {
 167              		.loc 1 300 0
 168              		.cfi_startproc
 169              		@ args = 0, pretend = 0, frame = 0
 170              		@ frame_needed = 0, uses_anonymous_args = 0
 171              		@ link register save eliminated.
 172              	.LVL13:
 301:C:/Users/lenovo/Desktop/liteos/Project2/BearPi_LiteOS/targets/STM32L431_BearPi/Drivers/STM32L4xx_HAL_Driver/Src\stm32l4xx_hal_pwr_ex.c ****   assert_param(IS_PWR_BATTERY_RESISTOR_SELECT(ResistorSelection));
 302:C:/Users/lenovo/Desktop/liteos/Project2/BearPi_LiteOS/targets/STM32L431_BearPi/Drivers/STM32L4xx_HAL_Driver/Src\stm32l4xx_hal_pwr_ex.c ****   
 303:C:/Users/lenovo/Desktop/liteos/Project2/BearPi_LiteOS/targets/STM32L431_BearPi/Drivers/STM32L4xx_HAL_Driver/Src\stm32l4xx_hal_pwr_ex.c ****   /* Specify resistor selection */
 304:C:/Users/lenovo/Desktop/liteos/Project2/BearPi_LiteOS/targets/STM32L431_BearPi/Drivers/STM32L4xx_HAL_Driver/Src\stm32l4xx_hal_pwr_ex.c ****   MODIFY_REG(PWR->CR4, PWR_CR4_VBRS, ResistorSelection);
 173              		.loc 1 304 0
 174 0000 054A     		ldr	r2, .L18
 175 0002 D368     		ldr	r3, [r2, #12]
 176 0004 23F40073 		bic	r3, r3, #512
 177 0008 1843     		orrs	r0, r0, r3
 178              	.LVL14:
 179 000a D060     		str	r0, [r2, #12]
 305:C:/Users/lenovo/Desktop/liteos/Project2/BearPi_LiteOS/targets/STM32L431_BearPi/Drivers/STM32L4xx_HAL_Driver/Src\stm32l4xx_hal_pwr_ex.c ****   
 306:C:/Users/lenovo/Desktop/liteos/Project2/BearPi_LiteOS/targets/STM32L431_BearPi/Drivers/STM32L4xx_HAL_Driver/Src\stm32l4xx_hal_pwr_ex.c ****   /* Enable battery charging */
 307:C:/Users/lenovo/Desktop/liteos/Project2/BearPi_LiteOS/targets/STM32L431_BearPi/Drivers/STM32L4xx_HAL_Driver/Src\stm32l4xx_hal_pwr_ex.c ****   SET_BIT(PWR->CR4, PWR_CR4_VBE);
 180              		.loc 1 307 0
 181 000c D368     		ldr	r3, [r2, #12]
 182 000e 43F48073 		orr	r3, r3, #256
 183 0012 D360     		str	r3, [r2, #12]
 308:C:/Users/lenovo/Desktop/liteos/Project2/BearPi_LiteOS/targets/STM32L431_BearPi/Drivers/STM32L4xx_HAL_Driver/Src\stm32l4xx_hal_pwr_ex.c **** }
 184              		.loc 1 308 0
 185 0014 7047     		bx	lr
 186              	.L19:
 187 0016 00BF     		.align	2
 188              	.L18:
 189 0018 00700040 		.word	1073770496
 190              		.cfi_endproc
 191              	.LFE135:
 193              		.section	.text.HAL_PWREx_DisableBatteryCharging,"ax",%progbits
 194              		.align	1
 195              		.global	HAL_PWREx_DisableBatteryCharging
 196              		.syntax unified
 197              		.thumb
 198              		.thumb_func
 199              		.fpu fpv4-sp-d16
 201              	HAL_PWREx_DisableBatteryCharging:
 202              	.LFB136:
 309:C:/Users/lenovo/Desktop/liteos/Project2/BearPi_LiteOS/targets/STM32L431_BearPi/Drivers/STM32L4xx_HAL_Driver/Src\stm32l4xx_hal_pwr_ex.c **** 
ARM GAS  c:\Users\lenovo\AppData\Local\Temp\ccy7mvmD.s 			page 10


 310:C:/Users/lenovo/Desktop/liteos/Project2/BearPi_LiteOS/targets/STM32L431_BearPi/Drivers/STM32L4xx_HAL_Driver/Src\stm32l4xx_hal_pwr_ex.c **** 
 311:C:/Users/lenovo/Desktop/liteos/Project2/BearPi_LiteOS/targets/STM32L431_BearPi/Drivers/STM32L4xx_HAL_Driver/Src\stm32l4xx_hal_pwr_ex.c **** /**
 312:C:/Users/lenovo/Desktop/liteos/Project2/BearPi_LiteOS/targets/STM32L431_BearPi/Drivers/STM32L4xx_HAL_Driver/Src\stm32l4xx_hal_pwr_ex.c ****   * @brief Disable battery charging.  
 313:C:/Users/lenovo/Desktop/liteos/Project2/BearPi_LiteOS/targets/STM32L431_BearPi/Drivers/STM32L4xx_HAL_Driver/Src\stm32l4xx_hal_pwr_ex.c ****   * @retval None
 314:C:/Users/lenovo/Desktop/liteos/Project2/BearPi_LiteOS/targets/STM32L431_BearPi/Drivers/STM32L4xx_HAL_Driver/Src\stm32l4xx_hal_pwr_ex.c ****   */
 315:C:/Users/lenovo/Desktop/liteos/Project2/BearPi_LiteOS/targets/STM32L431_BearPi/Drivers/STM32L4xx_HAL_Driver/Src\stm32l4xx_hal_pwr_ex.c **** void HAL_PWREx_DisableBatteryCharging(void)
 316:C:/Users/lenovo/Desktop/liteos/Project2/BearPi_LiteOS/targets/STM32L431_BearPi/Drivers/STM32L4xx_HAL_Driver/Src\stm32l4xx_hal_pwr_ex.c **** {
 203              		.loc 1 316 0
 204              		.cfi_startproc
 205              		@ args = 0, pretend = 0, frame = 0
 206              		@ frame_needed = 0, uses_anonymous_args = 0
 207              		@ link register save eliminated.
 317:C:/Users/lenovo/Desktop/liteos/Project2/BearPi_LiteOS/targets/STM32L431_BearPi/Drivers/STM32L4xx_HAL_Driver/Src\stm32l4xx_hal_pwr_ex.c ****   CLEAR_BIT(PWR->CR4, PWR_CR4_VBE); 
 208              		.loc 1 317 0
 209 0000 024A     		ldr	r2, .L21
 210 0002 D368     		ldr	r3, [r2, #12]
 211 0004 23F48073 		bic	r3, r3, #256
 212 0008 D360     		str	r3, [r2, #12]
 318:C:/Users/lenovo/Desktop/liteos/Project2/BearPi_LiteOS/targets/STM32L431_BearPi/Drivers/STM32L4xx_HAL_Driver/Src\stm32l4xx_hal_pwr_ex.c **** }  
 213              		.loc 1 318 0
 214 000a 7047     		bx	lr
 215              	.L22:
 216              		.align	2
 217              	.L21:
 218 000c 00700040 		.word	1073770496
 219              		.cfi_endproc
 220              	.LFE136:
 222              		.section	.text.HAL_PWREx_EnableInternalWakeUpLine,"ax",%progbits
 223              		.align	1
 224              		.global	HAL_PWREx_EnableInternalWakeUpLine
 225              		.syntax unified
 226              		.thumb
 227              		.thumb_func
 228              		.fpu fpv4-sp-d16
 230              	HAL_PWREx_EnableInternalWakeUpLine:
 231              	.LFB137:
 319:C:/Users/lenovo/Desktop/liteos/Project2/BearPi_LiteOS/targets/STM32L431_BearPi/Drivers/STM32L4xx_HAL_Driver/Src\stm32l4xx_hal_pwr_ex.c **** 
 320:C:/Users/lenovo/Desktop/liteos/Project2/BearPi_LiteOS/targets/STM32L431_BearPi/Drivers/STM32L4xx_HAL_Driver/Src\stm32l4xx_hal_pwr_ex.c **** 
 321:C:/Users/lenovo/Desktop/liteos/Project2/BearPi_LiteOS/targets/STM32L431_BearPi/Drivers/STM32L4xx_HAL_Driver/Src\stm32l4xx_hal_pwr_ex.c **** #if defined(PWR_CR2_USV)
 322:C:/Users/lenovo/Desktop/liteos/Project2/BearPi_LiteOS/targets/STM32L431_BearPi/Drivers/STM32L4xx_HAL_Driver/Src\stm32l4xx_hal_pwr_ex.c **** /**
 323:C:/Users/lenovo/Desktop/liteos/Project2/BearPi_LiteOS/targets/STM32L431_BearPi/Drivers/STM32L4xx_HAL_Driver/Src\stm32l4xx_hal_pwr_ex.c ****   * @brief Enable VDDUSB supply. 
 324:C:/Users/lenovo/Desktop/liteos/Project2/BearPi_LiteOS/targets/STM32L431_BearPi/Drivers/STM32L4xx_HAL_Driver/Src\stm32l4xx_hal_pwr_ex.c ****   * @note  Remove VDDUSB electrical and logical isolation, once VDDUSB supply is present.  
 325:C:/Users/lenovo/Desktop/liteos/Project2/BearPi_LiteOS/targets/STM32L431_BearPi/Drivers/STM32L4xx_HAL_Driver/Src\stm32l4xx_hal_pwr_ex.c ****   * @retval None
 326:C:/Users/lenovo/Desktop/liteos/Project2/BearPi_LiteOS/targets/STM32L431_BearPi/Drivers/STM32L4xx_HAL_Driver/Src\stm32l4xx_hal_pwr_ex.c ****   */
 327:C:/Users/lenovo/Desktop/liteos/Project2/BearPi_LiteOS/targets/STM32L431_BearPi/Drivers/STM32L4xx_HAL_Driver/Src\stm32l4xx_hal_pwr_ex.c **** void HAL_PWREx_EnableVddUSB(void)
 328:C:/Users/lenovo/Desktop/liteos/Project2/BearPi_LiteOS/targets/STM32L431_BearPi/Drivers/STM32L4xx_HAL_Driver/Src\stm32l4xx_hal_pwr_ex.c **** {
 329:C:/Users/lenovo/Desktop/liteos/Project2/BearPi_LiteOS/targets/STM32L431_BearPi/Drivers/STM32L4xx_HAL_Driver/Src\stm32l4xx_hal_pwr_ex.c ****   SET_BIT(PWR->CR2, PWR_CR2_USV);
 330:C:/Users/lenovo/Desktop/liteos/Project2/BearPi_LiteOS/targets/STM32L431_BearPi/Drivers/STM32L4xx_HAL_Driver/Src\stm32l4xx_hal_pwr_ex.c **** }
 331:C:/Users/lenovo/Desktop/liteos/Project2/BearPi_LiteOS/targets/STM32L431_BearPi/Drivers/STM32L4xx_HAL_Driver/Src\stm32l4xx_hal_pwr_ex.c **** 
 332:C:/Users/lenovo/Desktop/liteos/Project2/BearPi_LiteOS/targets/STM32L431_BearPi/Drivers/STM32L4xx_HAL_Driver/Src\stm32l4xx_hal_pwr_ex.c **** 
 333:C:/Users/lenovo/Desktop/liteos/Project2/BearPi_LiteOS/targets/STM32L431_BearPi/Drivers/STM32L4xx_HAL_Driver/Src\stm32l4xx_hal_pwr_ex.c **** /**
 334:C:/Users/lenovo/Desktop/liteos/Project2/BearPi_LiteOS/targets/STM32L431_BearPi/Drivers/STM32L4xx_HAL_Driver/Src\stm32l4xx_hal_pwr_ex.c ****   * @brief Disable VDDUSB supply. 
 335:C:/Users/lenovo/Desktop/liteos/Project2/BearPi_LiteOS/targets/STM32L431_BearPi/Drivers/STM32L4xx_HAL_Driver/Src\stm32l4xx_hal_pwr_ex.c ****   * @retval None
 336:C:/Users/lenovo/Desktop/liteos/Project2/BearPi_LiteOS/targets/STM32L431_BearPi/Drivers/STM32L4xx_HAL_Driver/Src\stm32l4xx_hal_pwr_ex.c ****   */
 337:C:/Users/lenovo/Desktop/liteos/Project2/BearPi_LiteOS/targets/STM32L431_BearPi/Drivers/STM32L4xx_HAL_Driver/Src\stm32l4xx_hal_pwr_ex.c **** void HAL_PWREx_DisableVddUSB(void)
 338:C:/Users/lenovo/Desktop/liteos/Project2/BearPi_LiteOS/targets/STM32L431_BearPi/Drivers/STM32L4xx_HAL_Driver/Src\stm32l4xx_hal_pwr_ex.c **** {
 339:C:/Users/lenovo/Desktop/liteos/Project2/BearPi_LiteOS/targets/STM32L431_BearPi/Drivers/STM32L4xx_HAL_Driver/Src\stm32l4xx_hal_pwr_ex.c ****   CLEAR_BIT(PWR->CR2, PWR_CR2_USV);
ARM GAS  c:\Users\lenovo\AppData\Local\Temp\ccy7mvmD.s 			page 11


 340:C:/Users/lenovo/Desktop/liteos/Project2/BearPi_LiteOS/targets/STM32L431_BearPi/Drivers/STM32L4xx_HAL_Driver/Src\stm32l4xx_hal_pwr_ex.c **** }
 341:C:/Users/lenovo/Desktop/liteos/Project2/BearPi_LiteOS/targets/STM32L431_BearPi/Drivers/STM32L4xx_HAL_Driver/Src\stm32l4xx_hal_pwr_ex.c **** #endif /* PWR_CR2_USV */
 342:C:/Users/lenovo/Desktop/liteos/Project2/BearPi_LiteOS/targets/STM32L431_BearPi/Drivers/STM32L4xx_HAL_Driver/Src\stm32l4xx_hal_pwr_ex.c **** 
 343:C:/Users/lenovo/Desktop/liteos/Project2/BearPi_LiteOS/targets/STM32L431_BearPi/Drivers/STM32L4xx_HAL_Driver/Src\stm32l4xx_hal_pwr_ex.c **** #if defined(PWR_CR2_IOSV)
 344:C:/Users/lenovo/Desktop/liteos/Project2/BearPi_LiteOS/targets/STM32L431_BearPi/Drivers/STM32L4xx_HAL_Driver/Src\stm32l4xx_hal_pwr_ex.c **** /**
 345:C:/Users/lenovo/Desktop/liteos/Project2/BearPi_LiteOS/targets/STM32L431_BearPi/Drivers/STM32L4xx_HAL_Driver/Src\stm32l4xx_hal_pwr_ex.c ****   * @brief Enable VDDIO2 supply. 
 346:C:/Users/lenovo/Desktop/liteos/Project2/BearPi_LiteOS/targets/STM32L431_BearPi/Drivers/STM32L4xx_HAL_Driver/Src\stm32l4xx_hal_pwr_ex.c ****   * @note  Remove VDDIO2 electrical and logical isolation, once VDDIO2 supply is present. 
 347:C:/Users/lenovo/Desktop/liteos/Project2/BearPi_LiteOS/targets/STM32L431_BearPi/Drivers/STM32L4xx_HAL_Driver/Src\stm32l4xx_hal_pwr_ex.c ****   * @retval None
 348:C:/Users/lenovo/Desktop/liteos/Project2/BearPi_LiteOS/targets/STM32L431_BearPi/Drivers/STM32L4xx_HAL_Driver/Src\stm32l4xx_hal_pwr_ex.c ****   */
 349:C:/Users/lenovo/Desktop/liteos/Project2/BearPi_LiteOS/targets/STM32L431_BearPi/Drivers/STM32L4xx_HAL_Driver/Src\stm32l4xx_hal_pwr_ex.c **** void HAL_PWREx_EnableVddIO2(void)
 350:C:/Users/lenovo/Desktop/liteos/Project2/BearPi_LiteOS/targets/STM32L431_BearPi/Drivers/STM32L4xx_HAL_Driver/Src\stm32l4xx_hal_pwr_ex.c **** {
 351:C:/Users/lenovo/Desktop/liteos/Project2/BearPi_LiteOS/targets/STM32L431_BearPi/Drivers/STM32L4xx_HAL_Driver/Src\stm32l4xx_hal_pwr_ex.c ****   SET_BIT(PWR->CR2, PWR_CR2_IOSV);
 352:C:/Users/lenovo/Desktop/liteos/Project2/BearPi_LiteOS/targets/STM32L431_BearPi/Drivers/STM32L4xx_HAL_Driver/Src\stm32l4xx_hal_pwr_ex.c **** }
 353:C:/Users/lenovo/Desktop/liteos/Project2/BearPi_LiteOS/targets/STM32L431_BearPi/Drivers/STM32L4xx_HAL_Driver/Src\stm32l4xx_hal_pwr_ex.c **** 
 354:C:/Users/lenovo/Desktop/liteos/Project2/BearPi_LiteOS/targets/STM32L431_BearPi/Drivers/STM32L4xx_HAL_Driver/Src\stm32l4xx_hal_pwr_ex.c **** 
 355:C:/Users/lenovo/Desktop/liteos/Project2/BearPi_LiteOS/targets/STM32L431_BearPi/Drivers/STM32L4xx_HAL_Driver/Src\stm32l4xx_hal_pwr_ex.c **** /**
 356:C:/Users/lenovo/Desktop/liteos/Project2/BearPi_LiteOS/targets/STM32L431_BearPi/Drivers/STM32L4xx_HAL_Driver/Src\stm32l4xx_hal_pwr_ex.c ****   * @brief Disable VDDIO2 supply. 
 357:C:/Users/lenovo/Desktop/liteos/Project2/BearPi_LiteOS/targets/STM32L431_BearPi/Drivers/STM32L4xx_HAL_Driver/Src\stm32l4xx_hal_pwr_ex.c ****   * @retval None
 358:C:/Users/lenovo/Desktop/liteos/Project2/BearPi_LiteOS/targets/STM32L431_BearPi/Drivers/STM32L4xx_HAL_Driver/Src\stm32l4xx_hal_pwr_ex.c ****   */
 359:C:/Users/lenovo/Desktop/liteos/Project2/BearPi_LiteOS/targets/STM32L431_BearPi/Drivers/STM32L4xx_HAL_Driver/Src\stm32l4xx_hal_pwr_ex.c **** void HAL_PWREx_DisableVddIO2(void)
 360:C:/Users/lenovo/Desktop/liteos/Project2/BearPi_LiteOS/targets/STM32L431_BearPi/Drivers/STM32L4xx_HAL_Driver/Src\stm32l4xx_hal_pwr_ex.c **** {
 361:C:/Users/lenovo/Desktop/liteos/Project2/BearPi_LiteOS/targets/STM32L431_BearPi/Drivers/STM32L4xx_HAL_Driver/Src\stm32l4xx_hal_pwr_ex.c ****   CLEAR_BIT(PWR->CR2, PWR_CR2_IOSV);
 362:C:/Users/lenovo/Desktop/liteos/Project2/BearPi_LiteOS/targets/STM32L431_BearPi/Drivers/STM32L4xx_HAL_Driver/Src\stm32l4xx_hal_pwr_ex.c **** }
 363:C:/Users/lenovo/Desktop/liteos/Project2/BearPi_LiteOS/targets/STM32L431_BearPi/Drivers/STM32L4xx_HAL_Driver/Src\stm32l4xx_hal_pwr_ex.c **** #endif /* PWR_CR2_IOSV */
 364:C:/Users/lenovo/Desktop/liteos/Project2/BearPi_LiteOS/targets/STM32L431_BearPi/Drivers/STM32L4xx_HAL_Driver/Src\stm32l4xx_hal_pwr_ex.c **** 
 365:C:/Users/lenovo/Desktop/liteos/Project2/BearPi_LiteOS/targets/STM32L431_BearPi/Drivers/STM32L4xx_HAL_Driver/Src\stm32l4xx_hal_pwr_ex.c **** 
 366:C:/Users/lenovo/Desktop/liteos/Project2/BearPi_LiteOS/targets/STM32L431_BearPi/Drivers/STM32L4xx_HAL_Driver/Src\stm32l4xx_hal_pwr_ex.c **** /**
 367:C:/Users/lenovo/Desktop/liteos/Project2/BearPi_LiteOS/targets/STM32L431_BearPi/Drivers/STM32L4xx_HAL_Driver/Src\stm32l4xx_hal_pwr_ex.c ****   * @brief Enable Internal Wake-up Line. 
 368:C:/Users/lenovo/Desktop/liteos/Project2/BearPi_LiteOS/targets/STM32L431_BearPi/Drivers/STM32L4xx_HAL_Driver/Src\stm32l4xx_hal_pwr_ex.c ****   * @retval None
 369:C:/Users/lenovo/Desktop/liteos/Project2/BearPi_LiteOS/targets/STM32L431_BearPi/Drivers/STM32L4xx_HAL_Driver/Src\stm32l4xx_hal_pwr_ex.c ****   */
 370:C:/Users/lenovo/Desktop/liteos/Project2/BearPi_LiteOS/targets/STM32L431_BearPi/Drivers/STM32L4xx_HAL_Driver/Src\stm32l4xx_hal_pwr_ex.c **** void HAL_PWREx_EnableInternalWakeUpLine(void)
 371:C:/Users/lenovo/Desktop/liteos/Project2/BearPi_LiteOS/targets/STM32L431_BearPi/Drivers/STM32L4xx_HAL_Driver/Src\stm32l4xx_hal_pwr_ex.c **** {
 232              		.loc 1 371 0
 233              		.cfi_startproc
 234              		@ args = 0, pretend = 0, frame = 0
 235              		@ frame_needed = 0, uses_anonymous_args = 0
 236              		@ link register save eliminated.
 372:C:/Users/lenovo/Desktop/liteos/Project2/BearPi_LiteOS/targets/STM32L431_BearPi/Drivers/STM32L4xx_HAL_Driver/Src\stm32l4xx_hal_pwr_ex.c ****   SET_BIT(PWR->CR3, PWR_CR3_EIWF);
 237              		.loc 1 372 0
 238 0000 024A     		ldr	r2, .L24
 239 0002 9368     		ldr	r3, [r2, #8]
 240 0004 43F40043 		orr	r3, r3, #32768
 241 0008 9360     		str	r3, [r2, #8]
 373:C:/Users/lenovo/Desktop/liteos/Project2/BearPi_LiteOS/targets/STM32L431_BearPi/Drivers/STM32L4xx_HAL_Driver/Src\stm32l4xx_hal_pwr_ex.c **** }
 242              		.loc 1 373 0
 243 000a 7047     		bx	lr
 244              	.L25:
 245              		.align	2
 246              	.L24:
 247 000c 00700040 		.word	1073770496
 248              		.cfi_endproc
 249              	.LFE137:
 251              		.section	.text.HAL_PWREx_DisableInternalWakeUpLine,"ax",%progbits
 252              		.align	1
 253              		.global	HAL_PWREx_DisableInternalWakeUpLine
 254              		.syntax unified
 255              		.thumb
ARM GAS  c:\Users\lenovo\AppData\Local\Temp\ccy7mvmD.s 			page 12


 256              		.thumb_func
 257              		.fpu fpv4-sp-d16
 259              	HAL_PWREx_DisableInternalWakeUpLine:
 260              	.LFB138:
 374:C:/Users/lenovo/Desktop/liteos/Project2/BearPi_LiteOS/targets/STM32L431_BearPi/Drivers/STM32L4xx_HAL_Driver/Src\stm32l4xx_hal_pwr_ex.c **** 
 375:C:/Users/lenovo/Desktop/liteos/Project2/BearPi_LiteOS/targets/STM32L431_BearPi/Drivers/STM32L4xx_HAL_Driver/Src\stm32l4xx_hal_pwr_ex.c **** 
 376:C:/Users/lenovo/Desktop/liteos/Project2/BearPi_LiteOS/targets/STM32L431_BearPi/Drivers/STM32L4xx_HAL_Driver/Src\stm32l4xx_hal_pwr_ex.c **** /**
 377:C:/Users/lenovo/Desktop/liteos/Project2/BearPi_LiteOS/targets/STM32L431_BearPi/Drivers/STM32L4xx_HAL_Driver/Src\stm32l4xx_hal_pwr_ex.c ****   * @brief Disable Internal Wake-up Line. 
 378:C:/Users/lenovo/Desktop/liteos/Project2/BearPi_LiteOS/targets/STM32L431_BearPi/Drivers/STM32L4xx_HAL_Driver/Src\stm32l4xx_hal_pwr_ex.c ****   * @retval None
 379:C:/Users/lenovo/Desktop/liteos/Project2/BearPi_LiteOS/targets/STM32L431_BearPi/Drivers/STM32L4xx_HAL_Driver/Src\stm32l4xx_hal_pwr_ex.c ****   */
 380:C:/Users/lenovo/Desktop/liteos/Project2/BearPi_LiteOS/targets/STM32L431_BearPi/Drivers/STM32L4xx_HAL_Driver/Src\stm32l4xx_hal_pwr_ex.c **** void HAL_PWREx_DisableInternalWakeUpLine(void)
 381:C:/Users/lenovo/Desktop/liteos/Project2/BearPi_LiteOS/targets/STM32L431_BearPi/Drivers/STM32L4xx_HAL_Driver/Src\stm32l4xx_hal_pwr_ex.c **** {
 261              		.loc 1 381 0
 262              		.cfi_startproc
 263              		@ args = 0, pretend = 0, frame = 0
 264              		@ frame_needed = 0, uses_anonymous_args = 0
 265              		@ link register save eliminated.
 382:C:/Users/lenovo/Desktop/liteos/Project2/BearPi_LiteOS/targets/STM32L431_BearPi/Drivers/STM32L4xx_HAL_Driver/Src\stm32l4xx_hal_pwr_ex.c ****   CLEAR_BIT(PWR->CR3, PWR_CR3_EIWF);
 266              		.loc 1 382 0
 267 0000 024A     		ldr	r2, .L27
 268 0002 9368     		ldr	r3, [r2, #8]
 269 0004 23F40043 		bic	r3, r3, #32768
 270 0008 9360     		str	r3, [r2, #8]
 383:C:/Users/lenovo/Desktop/liteos/Project2/BearPi_LiteOS/targets/STM32L431_BearPi/Drivers/STM32L4xx_HAL_Driver/Src\stm32l4xx_hal_pwr_ex.c **** }
 271              		.loc 1 383 0
 272 000a 7047     		bx	lr
 273              	.L28:
 274              		.align	2
 275              	.L27:
 276 000c 00700040 		.word	1073770496
 277              		.cfi_endproc
 278              	.LFE138:
 280              		.section	.text.HAL_PWREx_EnableGPIOPullUp,"ax",%progbits
 281              		.align	1
 282              		.global	HAL_PWREx_EnableGPIOPullUp
 283              		.syntax unified
 284              		.thumb
 285              		.thumb_func
 286              		.fpu fpv4-sp-d16
 288              	HAL_PWREx_EnableGPIOPullUp:
 289              	.LFB139:
 384:C:/Users/lenovo/Desktop/liteos/Project2/BearPi_LiteOS/targets/STM32L431_BearPi/Drivers/STM32L4xx_HAL_Driver/Src\stm32l4xx_hal_pwr_ex.c **** 
 385:C:/Users/lenovo/Desktop/liteos/Project2/BearPi_LiteOS/targets/STM32L431_BearPi/Drivers/STM32L4xx_HAL_Driver/Src\stm32l4xx_hal_pwr_ex.c **** 
 386:C:/Users/lenovo/Desktop/liteos/Project2/BearPi_LiteOS/targets/STM32L431_BearPi/Drivers/STM32L4xx_HAL_Driver/Src\stm32l4xx_hal_pwr_ex.c **** 
 387:C:/Users/lenovo/Desktop/liteos/Project2/BearPi_LiteOS/targets/STM32L431_BearPi/Drivers/STM32L4xx_HAL_Driver/Src\stm32l4xx_hal_pwr_ex.c **** /**
 388:C:/Users/lenovo/Desktop/liteos/Project2/BearPi_LiteOS/targets/STM32L431_BearPi/Drivers/STM32L4xx_HAL_Driver/Src\stm32l4xx_hal_pwr_ex.c ****   * @brief Enable GPIO pull-up state in Standby and Shutdown modes.
 389:C:/Users/lenovo/Desktop/liteos/Project2/BearPi_LiteOS/targets/STM32L431_BearPi/Drivers/STM32L4xx_HAL_Driver/Src\stm32l4xx_hal_pwr_ex.c ****   * @note  Set the relevant PUy bits of PWR_PUCRx register to configure the I/O in 
 390:C:/Users/lenovo/Desktop/liteos/Project2/BearPi_LiteOS/targets/STM32L431_BearPi/Drivers/STM32L4xx_HAL_Driver/Src\stm32l4xx_hal_pwr_ex.c ****   *        pull-up state in Standby and Shutdown modes. 
 391:C:/Users/lenovo/Desktop/liteos/Project2/BearPi_LiteOS/targets/STM32L431_BearPi/Drivers/STM32L4xx_HAL_Driver/Src\stm32l4xx_hal_pwr_ex.c ****   * @note  This state is effective in Standby and Shutdown modes only if APC bit 
 392:C:/Users/lenovo/Desktop/liteos/Project2/BearPi_LiteOS/targets/STM32L431_BearPi/Drivers/STM32L4xx_HAL_Driver/Src\stm32l4xx_hal_pwr_ex.c ****   *        is set through HAL_PWREx_EnablePullUpPullDownConfig() API.
 393:C:/Users/lenovo/Desktop/liteos/Project2/BearPi_LiteOS/targets/STM32L431_BearPi/Drivers/STM32L4xx_HAL_Driver/Src\stm32l4xx_hal_pwr_ex.c ****   * @note  The configuration is lost when exiting the Shutdown mode due to the 
 394:C:/Users/lenovo/Desktop/liteos/Project2/BearPi_LiteOS/targets/STM32L431_BearPi/Drivers/STM32L4xx_HAL_Driver/Src\stm32l4xx_hal_pwr_ex.c ****   *        power-on reset, maintained when exiting the Standby mode. 
 395:C:/Users/lenovo/Desktop/liteos/Project2/BearPi_LiteOS/targets/STM32L431_BearPi/Drivers/STM32L4xx_HAL_Driver/Src\stm32l4xx_hal_pwr_ex.c ****   * @note  To avoid any conflict at Standby and Shutdown modes exits, the corresponding
 396:C:/Users/lenovo/Desktop/liteos/Project2/BearPi_LiteOS/targets/STM32L431_BearPi/Drivers/STM32L4xx_HAL_Driver/Src\stm32l4xx_hal_pwr_ex.c ****   *        PDy bit of PWR_PDCRx register is cleared unless it is reserved. 
 397:C:/Users/lenovo/Desktop/liteos/Project2/BearPi_LiteOS/targets/STM32L431_BearPi/Drivers/STM32L4xx_HAL_Driver/Src\stm32l4xx_hal_pwr_ex.c ****   * @note  Even if a PUy bit to set is reserved, the other PUy bits entered as input 
 398:C:/Users/lenovo/Desktop/liteos/Project2/BearPi_LiteOS/targets/STM32L431_BearPi/Drivers/STM32L4xx_HAL_Driver/Src\stm32l4xx_hal_pwr_ex.c ****   *        parameter at the same time are set.     
 399:C:/Users/lenovo/Desktop/liteos/Project2/BearPi_LiteOS/targets/STM32L431_BearPi/Drivers/STM32L4xx_HAL_Driver/Src\stm32l4xx_hal_pwr_ex.c ****   * @param  GPIO: Specify the IO port. This parameter can be PWR_GPIO_A, ..., PWR_GPIO_H 
ARM GAS  c:\Users\lenovo\AppData\Local\Temp\ccy7mvmD.s 			page 13


 400:C:/Users/lenovo/Desktop/liteos/Project2/BearPi_LiteOS/targets/STM32L431_BearPi/Drivers/STM32L4xx_HAL_Driver/Src\stm32l4xx_hal_pwr_ex.c ****   *         (or PWR_GPIO_I depending on the devices) to select the GPIO peripheral.
 401:C:/Users/lenovo/Desktop/liteos/Project2/BearPi_LiteOS/targets/STM32L431_BearPi/Drivers/STM32L4xx_HAL_Driver/Src\stm32l4xx_hal_pwr_ex.c ****   * @param  GPIONumber: Specify the I/O pins numbers.
 402:C:/Users/lenovo/Desktop/liteos/Project2/BearPi_LiteOS/targets/STM32L431_BearPi/Drivers/STM32L4xx_HAL_Driver/Src\stm32l4xx_hal_pwr_ex.c ****   *         This parameter can be one of the following values:
 403:C:/Users/lenovo/Desktop/liteos/Project2/BearPi_LiteOS/targets/STM32L431_BearPi/Drivers/STM32L4xx_HAL_Driver/Src\stm32l4xx_hal_pwr_ex.c ****   *         PWR_GPIO_BIT_0, ..., PWR_GPIO_BIT_15 (except for the port where less  
 404:C:/Users/lenovo/Desktop/liteos/Project2/BearPi_LiteOS/targets/STM32L431_BearPi/Drivers/STM32L4xx_HAL_Driver/Src\stm32l4xx_hal_pwr_ex.c ****   *         I/O pins are available) or the logical OR of several of them to set 
 405:C:/Users/lenovo/Desktop/liteos/Project2/BearPi_LiteOS/targets/STM32L431_BearPi/Drivers/STM32L4xx_HAL_Driver/Src\stm32l4xx_hal_pwr_ex.c ****   *         several bits for a given port in a single API call.    
 406:C:/Users/lenovo/Desktop/liteos/Project2/BearPi_LiteOS/targets/STM32L431_BearPi/Drivers/STM32L4xx_HAL_Driver/Src\stm32l4xx_hal_pwr_ex.c ****   * @retval HAL Status
 407:C:/Users/lenovo/Desktop/liteos/Project2/BearPi_LiteOS/targets/STM32L431_BearPi/Drivers/STM32L4xx_HAL_Driver/Src\stm32l4xx_hal_pwr_ex.c ****   */   
 408:C:/Users/lenovo/Desktop/liteos/Project2/BearPi_LiteOS/targets/STM32L431_BearPi/Drivers/STM32L4xx_HAL_Driver/Src\stm32l4xx_hal_pwr_ex.c **** HAL_StatusTypeDef HAL_PWREx_EnableGPIOPullUp(uint32_t GPIO, uint32_t GPIONumber)
 409:C:/Users/lenovo/Desktop/liteos/Project2/BearPi_LiteOS/targets/STM32L431_BearPi/Drivers/STM32L4xx_HAL_Driver/Src\stm32l4xx_hal_pwr_ex.c **** {  
 290              		.loc 1 409 0
 291              		.cfi_startproc
 292              		@ args = 0, pretend = 0, frame = 0
 293              		@ frame_needed = 0, uses_anonymous_args = 0
 294              		@ link register save eliminated.
 295              	.LVL15:
 410:C:/Users/lenovo/Desktop/liteos/Project2/BearPi_LiteOS/targets/STM32L431_BearPi/Drivers/STM32L4xx_HAL_Driver/Src\stm32l4xx_hal_pwr_ex.c ****   assert_param(IS_PWR_GPIO(GPIO));
 411:C:/Users/lenovo/Desktop/liteos/Project2/BearPi_LiteOS/targets/STM32L431_BearPi/Drivers/STM32L4xx_HAL_Driver/Src\stm32l4xx_hal_pwr_ex.c ****   assert_param(IS_PWR_GPIO_BIT_NUMBER(GPIONumber));
 412:C:/Users/lenovo/Desktop/liteos/Project2/BearPi_LiteOS/targets/STM32L431_BearPi/Drivers/STM32L4xx_HAL_Driver/Src\stm32l4xx_hal_pwr_ex.c **** 
 413:C:/Users/lenovo/Desktop/liteos/Project2/BearPi_LiteOS/targets/STM32L431_BearPi/Drivers/STM32L4xx_HAL_Driver/Src\stm32l4xx_hal_pwr_ex.c ****   switch (GPIO)
 296              		.loc 1 413 0
 297 0000 0728     		cmp	r0, #7
 298 0002 49D8     		bhi	.L38
 299 0004 DFE800F0 		tbb	[pc, r0]
 300              	.L32:
 301 0008 04       		.byte	(.L31-.L32)/2
 302 0009 12       		.byte	(.L33-.L32)/2
 303 000a 1E       		.byte	(.L34-.L32)/2
 304 000b 28       		.byte	(.L35-.L32)/2
 305 000c 32       		.byte	(.L36-.L32)/2
 306 000d 48       		.byte	(.L38-.L32)/2
 307 000e 48       		.byte	(.L38-.L32)/2
 308 000f 3C       		.byte	(.L37-.L32)/2
 309              		.p2align 1
 310              	.L31:
 414:C:/Users/lenovo/Desktop/liteos/Project2/BearPi_LiteOS/targets/STM32L431_BearPi/Drivers/STM32L4xx_HAL_Driver/Src\stm32l4xx_hal_pwr_ex.c ****   {
 415:C:/Users/lenovo/Desktop/liteos/Project2/BearPi_LiteOS/targets/STM32L431_BearPi/Drivers/STM32L4xx_HAL_Driver/Src\stm32l4xx_hal_pwr_ex.c ****     case PWR_GPIO_A:
 416:C:/Users/lenovo/Desktop/liteos/Project2/BearPi_LiteOS/targets/STM32L431_BearPi/Drivers/STM32L4xx_HAL_Driver/Src\stm32l4xx_hal_pwr_ex.c ****        SET_BIT(PWR->PUCRA, (GPIONumber & (~(PWR_GPIO_BIT_14))));
 311              		.loc 1 416 0
 312 0010 224B     		ldr	r3, .L39
 313 0012 1A6A     		ldr	r2, [r3, #32]
 314 0014 21F48040 		bic	r0, r1, #16384
 315              	.LVL16:
 316 0018 0243     		orrs	r2, r2, r0
 317 001a 1A62     		str	r2, [r3, #32]
 417:C:/Users/lenovo/Desktop/liteos/Project2/BearPi_LiteOS/targets/STM32L431_BearPi/Drivers/STM32L4xx_HAL_Driver/Src\stm32l4xx_hal_pwr_ex.c ****        CLEAR_BIT(PWR->PDCRA, (GPIONumber & (~(PWR_GPIO_BIT_13|PWR_GPIO_BIT_15))));
 318              		.loc 1 417 0
 319 001c 5A6A     		ldr	r2, [r3, #36]
 320 001e 21F42041 		bic	r1, r1, #40960
 321              	.LVL17:
 322 0022 22EA0101 		bic	r1, r2, r1
 323 0026 5962     		str	r1, [r3, #36]
 418:C:/Users/lenovo/Desktop/liteos/Project2/BearPi_LiteOS/targets/STM32L431_BearPi/Drivers/STM32L4xx_HAL_Driver/Src\stm32l4xx_hal_pwr_ex.c ****        break;
 419:C:/Users/lenovo/Desktop/liteos/Project2/BearPi_LiteOS/targets/STM32L431_BearPi/Drivers/STM32L4xx_HAL_Driver/Src\stm32l4xx_hal_pwr_ex.c ****     case PWR_GPIO_B:
 420:C:/Users/lenovo/Desktop/liteos/Project2/BearPi_LiteOS/targets/STM32L431_BearPi/Drivers/STM32L4xx_HAL_Driver/Src\stm32l4xx_hal_pwr_ex.c ****        SET_BIT(PWR->PUCRB, GPIONumber);
 421:C:/Users/lenovo/Desktop/liteos/Project2/BearPi_LiteOS/targets/STM32L431_BearPi/Drivers/STM32L4xx_HAL_Driver/Src\stm32l4xx_hal_pwr_ex.c ****        CLEAR_BIT(PWR->PDCRB, (GPIONumber & (~(PWR_GPIO_BIT_4))));
 422:C:/Users/lenovo/Desktop/liteos/Project2/BearPi_LiteOS/targets/STM32L431_BearPi/Drivers/STM32L4xx_HAL_Driver/Src\stm32l4xx_hal_pwr_ex.c ****        break;
ARM GAS  c:\Users\lenovo\AppData\Local\Temp\ccy7mvmD.s 			page 14


 423:C:/Users/lenovo/Desktop/liteos/Project2/BearPi_LiteOS/targets/STM32L431_BearPi/Drivers/STM32L4xx_HAL_Driver/Src\stm32l4xx_hal_pwr_ex.c ****     case PWR_GPIO_C:
 424:C:/Users/lenovo/Desktop/liteos/Project2/BearPi_LiteOS/targets/STM32L431_BearPi/Drivers/STM32L4xx_HAL_Driver/Src\stm32l4xx_hal_pwr_ex.c ****        SET_BIT(PWR->PUCRC, GPIONumber);
 425:C:/Users/lenovo/Desktop/liteos/Project2/BearPi_LiteOS/targets/STM32L431_BearPi/Drivers/STM32L4xx_HAL_Driver/Src\stm32l4xx_hal_pwr_ex.c ****        CLEAR_BIT(PWR->PDCRC, GPIONumber);
 426:C:/Users/lenovo/Desktop/liteos/Project2/BearPi_LiteOS/targets/STM32L431_BearPi/Drivers/STM32L4xx_HAL_Driver/Src\stm32l4xx_hal_pwr_ex.c ****        break;
 427:C:/Users/lenovo/Desktop/liteos/Project2/BearPi_LiteOS/targets/STM32L431_BearPi/Drivers/STM32L4xx_HAL_Driver/Src\stm32l4xx_hal_pwr_ex.c **** #if defined(GPIOD)
 428:C:/Users/lenovo/Desktop/liteos/Project2/BearPi_LiteOS/targets/STM32L431_BearPi/Drivers/STM32L4xx_HAL_Driver/Src\stm32l4xx_hal_pwr_ex.c ****     case PWR_GPIO_D:
 429:C:/Users/lenovo/Desktop/liteos/Project2/BearPi_LiteOS/targets/STM32L431_BearPi/Drivers/STM32L4xx_HAL_Driver/Src\stm32l4xx_hal_pwr_ex.c ****        SET_BIT(PWR->PUCRD, GPIONumber);
 430:C:/Users/lenovo/Desktop/liteos/Project2/BearPi_LiteOS/targets/STM32L431_BearPi/Drivers/STM32L4xx_HAL_Driver/Src\stm32l4xx_hal_pwr_ex.c ****        CLEAR_BIT(PWR->PDCRD, GPIONumber);
 431:C:/Users/lenovo/Desktop/liteos/Project2/BearPi_LiteOS/targets/STM32L431_BearPi/Drivers/STM32L4xx_HAL_Driver/Src\stm32l4xx_hal_pwr_ex.c ****        break;
 432:C:/Users/lenovo/Desktop/liteos/Project2/BearPi_LiteOS/targets/STM32L431_BearPi/Drivers/STM32L4xx_HAL_Driver/Src\stm32l4xx_hal_pwr_ex.c **** #endif
 433:C:/Users/lenovo/Desktop/liteos/Project2/BearPi_LiteOS/targets/STM32L431_BearPi/Drivers/STM32L4xx_HAL_Driver/Src\stm32l4xx_hal_pwr_ex.c **** #if defined(GPIOE)
 434:C:/Users/lenovo/Desktop/liteos/Project2/BearPi_LiteOS/targets/STM32L431_BearPi/Drivers/STM32L4xx_HAL_Driver/Src\stm32l4xx_hal_pwr_ex.c ****     case PWR_GPIO_E:
 435:C:/Users/lenovo/Desktop/liteos/Project2/BearPi_LiteOS/targets/STM32L431_BearPi/Drivers/STM32L4xx_HAL_Driver/Src\stm32l4xx_hal_pwr_ex.c ****        SET_BIT(PWR->PUCRE, GPIONumber);
 436:C:/Users/lenovo/Desktop/liteos/Project2/BearPi_LiteOS/targets/STM32L431_BearPi/Drivers/STM32L4xx_HAL_Driver/Src\stm32l4xx_hal_pwr_ex.c ****        CLEAR_BIT(PWR->PDCRE, GPIONumber);
 437:C:/Users/lenovo/Desktop/liteos/Project2/BearPi_LiteOS/targets/STM32L431_BearPi/Drivers/STM32L4xx_HAL_Driver/Src\stm32l4xx_hal_pwr_ex.c ****        break;
 438:C:/Users/lenovo/Desktop/liteos/Project2/BearPi_LiteOS/targets/STM32L431_BearPi/Drivers/STM32L4xx_HAL_Driver/Src\stm32l4xx_hal_pwr_ex.c **** #endif
 439:C:/Users/lenovo/Desktop/liteos/Project2/BearPi_LiteOS/targets/STM32L431_BearPi/Drivers/STM32L4xx_HAL_Driver/Src\stm32l4xx_hal_pwr_ex.c **** #if defined(GPIOF)
 440:C:/Users/lenovo/Desktop/liteos/Project2/BearPi_LiteOS/targets/STM32L431_BearPi/Drivers/STM32L4xx_HAL_Driver/Src\stm32l4xx_hal_pwr_ex.c ****     case PWR_GPIO_F:
 441:C:/Users/lenovo/Desktop/liteos/Project2/BearPi_LiteOS/targets/STM32L431_BearPi/Drivers/STM32L4xx_HAL_Driver/Src\stm32l4xx_hal_pwr_ex.c ****        SET_BIT(PWR->PUCRF, GPIONumber);
 442:C:/Users/lenovo/Desktop/liteos/Project2/BearPi_LiteOS/targets/STM32L431_BearPi/Drivers/STM32L4xx_HAL_Driver/Src\stm32l4xx_hal_pwr_ex.c ****        CLEAR_BIT(PWR->PDCRF, GPIONumber);
 443:C:/Users/lenovo/Desktop/liteos/Project2/BearPi_LiteOS/targets/STM32L431_BearPi/Drivers/STM32L4xx_HAL_Driver/Src\stm32l4xx_hal_pwr_ex.c ****        break;
 444:C:/Users/lenovo/Desktop/liteos/Project2/BearPi_LiteOS/targets/STM32L431_BearPi/Drivers/STM32L4xx_HAL_Driver/Src\stm32l4xx_hal_pwr_ex.c **** #endif
 445:C:/Users/lenovo/Desktop/liteos/Project2/BearPi_LiteOS/targets/STM32L431_BearPi/Drivers/STM32L4xx_HAL_Driver/Src\stm32l4xx_hal_pwr_ex.c **** #if defined(GPIOG)
 446:C:/Users/lenovo/Desktop/liteos/Project2/BearPi_LiteOS/targets/STM32L431_BearPi/Drivers/STM32L4xx_HAL_Driver/Src\stm32l4xx_hal_pwr_ex.c ****     case PWR_GPIO_G:
 447:C:/Users/lenovo/Desktop/liteos/Project2/BearPi_LiteOS/targets/STM32L431_BearPi/Drivers/STM32L4xx_HAL_Driver/Src\stm32l4xx_hal_pwr_ex.c ****        SET_BIT(PWR->PUCRG, GPIONumber);
 448:C:/Users/lenovo/Desktop/liteos/Project2/BearPi_LiteOS/targets/STM32L431_BearPi/Drivers/STM32L4xx_HAL_Driver/Src\stm32l4xx_hal_pwr_ex.c ****        CLEAR_BIT(PWR->PDCRG, GPIONumber);
 449:C:/Users/lenovo/Desktop/liteos/Project2/BearPi_LiteOS/targets/STM32L431_BearPi/Drivers/STM32L4xx_HAL_Driver/Src\stm32l4xx_hal_pwr_ex.c ****        break;
 450:C:/Users/lenovo/Desktop/liteos/Project2/BearPi_LiteOS/targets/STM32L431_BearPi/Drivers/STM32L4xx_HAL_Driver/Src\stm32l4xx_hal_pwr_ex.c **** #endif
 451:C:/Users/lenovo/Desktop/liteos/Project2/BearPi_LiteOS/targets/STM32L431_BearPi/Drivers/STM32L4xx_HAL_Driver/Src\stm32l4xx_hal_pwr_ex.c ****     case PWR_GPIO_H:
 452:C:/Users/lenovo/Desktop/liteos/Project2/BearPi_LiteOS/targets/STM32L431_BearPi/Drivers/STM32L4xx_HAL_Driver/Src\stm32l4xx_hal_pwr_ex.c ****        SET_BIT(PWR->PUCRH, (GPIONumber & PWR_PORTH_AVAILABLE_PINS));
 453:C:/Users/lenovo/Desktop/liteos/Project2/BearPi_LiteOS/targets/STM32L431_BearPi/Drivers/STM32L4xx_HAL_Driver/Src\stm32l4xx_hal_pwr_ex.c **** #if defined (STM32L496xx) || defined (STM32L4A6xx)
 454:C:/Users/lenovo/Desktop/liteos/Project2/BearPi_LiteOS/targets/STM32L431_BearPi/Drivers/STM32L4xx_HAL_Driver/Src\stm32l4xx_hal_pwr_ex.c ****        CLEAR_BIT(PWR->PDCRH, ((GPIONumber & PWR_PORTH_AVAILABLE_PINS) & (~(PWR_GPIO_BIT_3))));
 455:C:/Users/lenovo/Desktop/liteos/Project2/BearPi_LiteOS/targets/STM32L431_BearPi/Drivers/STM32L4xx_HAL_Driver/Src\stm32l4xx_hal_pwr_ex.c **** #else       
 456:C:/Users/lenovo/Desktop/liteos/Project2/BearPi_LiteOS/targets/STM32L431_BearPi/Drivers/STM32L4xx_HAL_Driver/Src\stm32l4xx_hal_pwr_ex.c ****        CLEAR_BIT(PWR->PDCRH, (GPIONumber & PWR_PORTH_AVAILABLE_PINS));
 457:C:/Users/lenovo/Desktop/liteos/Project2/BearPi_LiteOS/targets/STM32L431_BearPi/Drivers/STM32L4xx_HAL_Driver/Src\stm32l4xx_hal_pwr_ex.c **** #endif       
 458:C:/Users/lenovo/Desktop/liteos/Project2/BearPi_LiteOS/targets/STM32L431_BearPi/Drivers/STM32L4xx_HAL_Driver/Src\stm32l4xx_hal_pwr_ex.c ****        break;
 459:C:/Users/lenovo/Desktop/liteos/Project2/BearPi_LiteOS/targets/STM32L431_BearPi/Drivers/STM32L4xx_HAL_Driver/Src\stm32l4xx_hal_pwr_ex.c **** #if defined(GPIOI)
 460:C:/Users/lenovo/Desktop/liteos/Project2/BearPi_LiteOS/targets/STM32L431_BearPi/Drivers/STM32L4xx_HAL_Driver/Src\stm32l4xx_hal_pwr_ex.c ****     case PWR_GPIO_I:
 461:C:/Users/lenovo/Desktop/liteos/Project2/BearPi_LiteOS/targets/STM32L431_BearPi/Drivers/STM32L4xx_HAL_Driver/Src\stm32l4xx_hal_pwr_ex.c ****        SET_BIT(PWR->PUCRI, (GPIONumber & PWR_PORTI_AVAILABLE_PINS));
 462:C:/Users/lenovo/Desktop/liteos/Project2/BearPi_LiteOS/targets/STM32L431_BearPi/Drivers/STM32L4xx_HAL_Driver/Src\stm32l4xx_hal_pwr_ex.c ****        CLEAR_BIT(PWR->PDCRI, (GPIONumber & PWR_PORTI_AVAILABLE_PINS));
 463:C:/Users/lenovo/Desktop/liteos/Project2/BearPi_LiteOS/targets/STM32L431_BearPi/Drivers/STM32L4xx_HAL_Driver/Src\stm32l4xx_hal_pwr_ex.c ****        break;
 464:C:/Users/lenovo/Desktop/liteos/Project2/BearPi_LiteOS/targets/STM32L431_BearPi/Drivers/STM32L4xx_HAL_Driver/Src\stm32l4xx_hal_pwr_ex.c **** #endif
 465:C:/Users/lenovo/Desktop/liteos/Project2/BearPi_LiteOS/targets/STM32L431_BearPi/Drivers/STM32L4xx_HAL_Driver/Src\stm32l4xx_hal_pwr_ex.c ****     default:
 466:C:/Users/lenovo/Desktop/liteos/Project2/BearPi_LiteOS/targets/STM32L431_BearPi/Drivers/STM32L4xx_HAL_Driver/Src\stm32l4xx_hal_pwr_ex.c ****        return HAL_ERROR;
 467:C:/Users/lenovo/Desktop/liteos/Project2/BearPi_LiteOS/targets/STM32L431_BearPi/Drivers/STM32L4xx_HAL_Driver/Src\stm32l4xx_hal_pwr_ex.c ****   }
 468:C:/Users/lenovo/Desktop/liteos/Project2/BearPi_LiteOS/targets/STM32L431_BearPi/Drivers/STM32L4xx_HAL_Driver/Src\stm32l4xx_hal_pwr_ex.c ****   
 469:C:/Users/lenovo/Desktop/liteos/Project2/BearPi_LiteOS/targets/STM32L431_BearPi/Drivers/STM32L4xx_HAL_Driver/Src\stm32l4xx_hal_pwr_ex.c ****   return HAL_OK;
 324              		.loc 1 469 0
 325 0028 0020     		movs	r0, #0
 418:C:/Users/lenovo/Desktop/liteos/Project2/BearPi_LiteOS/targets/STM32L431_BearPi/Drivers/STM32L4xx_HAL_Driver/Src\stm32l4xx_hal_pwr_ex.c ****        break;
 326              		.loc 1 418 0
 327 002a 7047     		bx	lr
 328              	.LVL18:
 329              	.L33:
 420:C:/Users/lenovo/Desktop/liteos/Project2/BearPi_LiteOS/targets/STM32L431_BearPi/Drivers/STM32L4xx_HAL_Driver/Src\stm32l4xx_hal_pwr_ex.c ****        CLEAR_BIT(PWR->PDCRB, (GPIONumber & (~(PWR_GPIO_BIT_4))));
 330              		.loc 1 420 0
 331 002c 1B4B     		ldr	r3, .L39
ARM GAS  c:\Users\lenovo\AppData\Local\Temp\ccy7mvmD.s 			page 15


 332 002e 9A6A     		ldr	r2, [r3, #40]
 333 0030 0A43     		orrs	r2, r2, r1
 334 0032 9A62     		str	r2, [r3, #40]
 421:C:/Users/lenovo/Desktop/liteos/Project2/BearPi_LiteOS/targets/STM32L431_BearPi/Drivers/STM32L4xx_HAL_Driver/Src\stm32l4xx_hal_pwr_ex.c ****        break;
 335              		.loc 1 421 0
 336 0034 DA6A     		ldr	r2, [r3, #44]
 337 0036 21F01001 		bic	r1, r1, #16
 338              	.LVL19:
 339 003a 22EA0101 		bic	r1, r2, r1
 340 003e D962     		str	r1, [r3, #44]
 341              		.loc 1 469 0
 342 0040 0020     		movs	r0, #0
 343              	.LVL20:
 422:C:/Users/lenovo/Desktop/liteos/Project2/BearPi_LiteOS/targets/STM32L431_BearPi/Drivers/STM32L4xx_HAL_Driver/Src\stm32l4xx_hal_pwr_ex.c ****     case PWR_GPIO_C:
 344              		.loc 1 422 0
 345 0042 7047     		bx	lr
 346              	.LVL21:
 347              	.L34:
 424:C:/Users/lenovo/Desktop/liteos/Project2/BearPi_LiteOS/targets/STM32L431_BearPi/Drivers/STM32L4xx_HAL_Driver/Src\stm32l4xx_hal_pwr_ex.c ****        CLEAR_BIT(PWR->PDCRC, GPIONumber);
 348              		.loc 1 424 0
 349 0044 154B     		ldr	r3, .L39
 350 0046 1A6B     		ldr	r2, [r3, #48]
 351 0048 0A43     		orrs	r2, r2, r1
 352 004a 1A63     		str	r2, [r3, #48]
 425:C:/Users/lenovo/Desktop/liteos/Project2/BearPi_LiteOS/targets/STM32L431_BearPi/Drivers/STM32L4xx_HAL_Driver/Src\stm32l4xx_hal_pwr_ex.c ****        break;
 353              		.loc 1 425 0
 354 004c 5A6B     		ldr	r2, [r3, #52]
 355 004e 22EA0101 		bic	r1, r2, r1
 356              	.LVL22:
 357 0052 5963     		str	r1, [r3, #52]
 358              		.loc 1 469 0
 359 0054 0020     		movs	r0, #0
 360              	.LVL23:
 426:C:/Users/lenovo/Desktop/liteos/Project2/BearPi_LiteOS/targets/STM32L431_BearPi/Drivers/STM32L4xx_HAL_Driver/Src\stm32l4xx_hal_pwr_ex.c **** #if defined(GPIOD)
 361              		.loc 1 426 0
 362 0056 7047     		bx	lr
 363              	.LVL24:
 364              	.L35:
 429:C:/Users/lenovo/Desktop/liteos/Project2/BearPi_LiteOS/targets/STM32L431_BearPi/Drivers/STM32L4xx_HAL_Driver/Src\stm32l4xx_hal_pwr_ex.c ****        CLEAR_BIT(PWR->PDCRD, GPIONumber);
 365              		.loc 1 429 0
 366 0058 104B     		ldr	r3, .L39
 367 005a 9A6B     		ldr	r2, [r3, #56]
 368 005c 0A43     		orrs	r2, r2, r1
 369 005e 9A63     		str	r2, [r3, #56]
 430:C:/Users/lenovo/Desktop/liteos/Project2/BearPi_LiteOS/targets/STM32L431_BearPi/Drivers/STM32L4xx_HAL_Driver/Src\stm32l4xx_hal_pwr_ex.c ****        break;
 370              		.loc 1 430 0
 371 0060 DA6B     		ldr	r2, [r3, #60]
 372 0062 22EA0101 		bic	r1, r2, r1
 373              	.LVL25:
 374 0066 D963     		str	r1, [r3, #60]
 375              		.loc 1 469 0
 376 0068 0020     		movs	r0, #0
 377              	.LVL26:
 431:C:/Users/lenovo/Desktop/liteos/Project2/BearPi_LiteOS/targets/STM32L431_BearPi/Drivers/STM32L4xx_HAL_Driver/Src\stm32l4xx_hal_pwr_ex.c **** #endif
 378              		.loc 1 431 0
 379 006a 7047     		bx	lr
 380              	.LVL27:
ARM GAS  c:\Users\lenovo\AppData\Local\Temp\ccy7mvmD.s 			page 16


 381              	.L36:
 435:C:/Users/lenovo/Desktop/liteos/Project2/BearPi_LiteOS/targets/STM32L431_BearPi/Drivers/STM32L4xx_HAL_Driver/Src\stm32l4xx_hal_pwr_ex.c ****        CLEAR_BIT(PWR->PDCRE, GPIONumber);
 382              		.loc 1 435 0
 383 006c 0B4B     		ldr	r3, .L39
 384 006e 1A6C     		ldr	r2, [r3, #64]
 385 0070 0A43     		orrs	r2, r2, r1
 386 0072 1A64     		str	r2, [r3, #64]
 436:C:/Users/lenovo/Desktop/liteos/Project2/BearPi_LiteOS/targets/STM32L431_BearPi/Drivers/STM32L4xx_HAL_Driver/Src\stm32l4xx_hal_pwr_ex.c ****        break;
 387              		.loc 1 436 0
 388 0074 5A6C     		ldr	r2, [r3, #68]
 389 0076 22EA0101 		bic	r1, r2, r1
 390              	.LVL28:
 391 007a 5964     		str	r1, [r3, #68]
 392              		.loc 1 469 0
 393 007c 0020     		movs	r0, #0
 394              	.LVL29:
 437:C:/Users/lenovo/Desktop/liteos/Project2/BearPi_LiteOS/targets/STM32L431_BearPi/Drivers/STM32L4xx_HAL_Driver/Src\stm32l4xx_hal_pwr_ex.c **** #endif
 395              		.loc 1 437 0
 396 007e 7047     		bx	lr
 397              	.LVL30:
 398              	.L37:
 452:C:/Users/lenovo/Desktop/liteos/Project2/BearPi_LiteOS/targets/STM32L431_BearPi/Drivers/STM32L4xx_HAL_Driver/Src\stm32l4xx_hal_pwr_ex.c **** #if defined (STM32L496xx) || defined (STM32L4A6xx)
 399              		.loc 1 452 0
 400 0080 064B     		ldr	r3, .L39
 401 0082 9A6D     		ldr	r2, [r3, #88]
 402 0084 01F00B01 		and	r1, r1, #11
 403              	.LVL31:
 404 0088 0A43     		orrs	r2, r2, r1
 405 008a 9A65     		str	r2, [r3, #88]
 456:C:/Users/lenovo/Desktop/liteos/Project2/BearPi_LiteOS/targets/STM32L431_BearPi/Drivers/STM32L4xx_HAL_Driver/Src\stm32l4xx_hal_pwr_ex.c **** #endif       
 406              		.loc 1 456 0
 407 008c DA6D     		ldr	r2, [r3, #92]
 408 008e 22EA0101 		bic	r1, r2, r1
 409 0092 D965     		str	r1, [r3, #92]
 410              		.loc 1 469 0
 411 0094 0020     		movs	r0, #0
 412              	.LVL32:
 458:C:/Users/lenovo/Desktop/liteos/Project2/BearPi_LiteOS/targets/STM32L431_BearPi/Drivers/STM32L4xx_HAL_Driver/Src\stm32l4xx_hal_pwr_ex.c **** #if defined(GPIOI)
 413              		.loc 1 458 0
 414 0096 7047     		bx	lr
 415              	.LVL33:
 416              	.L38:
 466:C:/Users/lenovo/Desktop/liteos/Project2/BearPi_LiteOS/targets/STM32L431_BearPi/Drivers/STM32L4xx_HAL_Driver/Src\stm32l4xx_hal_pwr_ex.c ****   }
 417              		.loc 1 466 0
 418 0098 0120     		movs	r0, #1
 419              	.LVL34:
 470:C:/Users/lenovo/Desktop/liteos/Project2/BearPi_LiteOS/targets/STM32L431_BearPi/Drivers/STM32L4xx_HAL_Driver/Src\stm32l4xx_hal_pwr_ex.c **** }
 420              		.loc 1 470 0
 421 009a 7047     		bx	lr
 422              	.L40:
 423              		.align	2
 424              	.L39:
 425 009c 00700040 		.word	1073770496
 426              		.cfi_endproc
 427              	.LFE139:
 429              		.section	.text.HAL_PWREx_DisableGPIOPullUp,"ax",%progbits
 430              		.align	1
ARM GAS  c:\Users\lenovo\AppData\Local\Temp\ccy7mvmD.s 			page 17


 431              		.global	HAL_PWREx_DisableGPIOPullUp
 432              		.syntax unified
 433              		.thumb
 434              		.thumb_func
 435              		.fpu fpv4-sp-d16
 437              	HAL_PWREx_DisableGPIOPullUp:
 438              	.LFB140:
 471:C:/Users/lenovo/Desktop/liteos/Project2/BearPi_LiteOS/targets/STM32L431_BearPi/Drivers/STM32L4xx_HAL_Driver/Src\stm32l4xx_hal_pwr_ex.c **** 
 472:C:/Users/lenovo/Desktop/liteos/Project2/BearPi_LiteOS/targets/STM32L431_BearPi/Drivers/STM32L4xx_HAL_Driver/Src\stm32l4xx_hal_pwr_ex.c **** 
 473:C:/Users/lenovo/Desktop/liteos/Project2/BearPi_LiteOS/targets/STM32L431_BearPi/Drivers/STM32L4xx_HAL_Driver/Src\stm32l4xx_hal_pwr_ex.c **** /**
 474:C:/Users/lenovo/Desktop/liteos/Project2/BearPi_LiteOS/targets/STM32L431_BearPi/Drivers/STM32L4xx_HAL_Driver/Src\stm32l4xx_hal_pwr_ex.c ****   * @brief Disable GPIO pull-up state in Standby mode and Shutdown modes.
 475:C:/Users/lenovo/Desktop/liteos/Project2/BearPi_LiteOS/targets/STM32L431_BearPi/Drivers/STM32L4xx_HAL_Driver/Src\stm32l4xx_hal_pwr_ex.c ****   * @note  Reset the relevant PUy bits of PWR_PUCRx register used to configure the I/O
 476:C:/Users/lenovo/Desktop/liteos/Project2/BearPi_LiteOS/targets/STM32L431_BearPi/Drivers/STM32L4xx_HAL_Driver/Src\stm32l4xx_hal_pwr_ex.c ****   *        in pull-up state in Standby and Shutdown modes.
 477:C:/Users/lenovo/Desktop/liteos/Project2/BearPi_LiteOS/targets/STM32L431_BearPi/Drivers/STM32L4xx_HAL_Driver/Src\stm32l4xx_hal_pwr_ex.c ****   * @note  Even if a PUy bit to reset is reserved, the other PUy bits entered as input 
 478:C:/Users/lenovo/Desktop/liteos/Project2/BearPi_LiteOS/targets/STM32L431_BearPi/Drivers/STM32L4xx_HAL_Driver/Src\stm32l4xx_hal_pwr_ex.c ****   *        parameter at the same time are reset.      
 479:C:/Users/lenovo/Desktop/liteos/Project2/BearPi_LiteOS/targets/STM32L431_BearPi/Drivers/STM32L4xx_HAL_Driver/Src\stm32l4xx_hal_pwr_ex.c ****   * @param  GPIO: Specifies the IO port. This parameter can be PWR_GPIO_A, ..., PWR_GPIO_H 
 480:C:/Users/lenovo/Desktop/liteos/Project2/BearPi_LiteOS/targets/STM32L431_BearPi/Drivers/STM32L4xx_HAL_Driver/Src\stm32l4xx_hal_pwr_ex.c ****   *          (or PWR_GPIO_I depending on the devices) to select the GPIO peripheral.
 481:C:/Users/lenovo/Desktop/liteos/Project2/BearPi_LiteOS/targets/STM32L431_BearPi/Drivers/STM32L4xx_HAL_Driver/Src\stm32l4xx_hal_pwr_ex.c ****   * @param  GPIONumber: Specify the I/O pins numbers.
 482:C:/Users/lenovo/Desktop/liteos/Project2/BearPi_LiteOS/targets/STM32L431_BearPi/Drivers/STM32L4xx_HAL_Driver/Src\stm32l4xx_hal_pwr_ex.c ****   *         This parameter can be one of the following values:
 483:C:/Users/lenovo/Desktop/liteos/Project2/BearPi_LiteOS/targets/STM32L431_BearPi/Drivers/STM32L4xx_HAL_Driver/Src\stm32l4xx_hal_pwr_ex.c ****   *         PWR_GPIO_BIT_0, ..., PWR_GPIO_BIT_15 (except for the port where less  
 484:C:/Users/lenovo/Desktop/liteos/Project2/BearPi_LiteOS/targets/STM32L431_BearPi/Drivers/STM32L4xx_HAL_Driver/Src\stm32l4xx_hal_pwr_ex.c ****   *         I/O pins are available) or the logical OR of several of them to reset 
 485:C:/Users/lenovo/Desktop/liteos/Project2/BearPi_LiteOS/targets/STM32L431_BearPi/Drivers/STM32L4xx_HAL_Driver/Src\stm32l4xx_hal_pwr_ex.c ****   *         several bits for a given port in a single API call. 
 486:C:/Users/lenovo/Desktop/liteos/Project2/BearPi_LiteOS/targets/STM32L431_BearPi/Drivers/STM32L4xx_HAL_Driver/Src\stm32l4xx_hal_pwr_ex.c ****   * @retval HAL Status
 487:C:/Users/lenovo/Desktop/liteos/Project2/BearPi_LiteOS/targets/STM32L431_BearPi/Drivers/STM32L4xx_HAL_Driver/Src\stm32l4xx_hal_pwr_ex.c ****   */   
 488:C:/Users/lenovo/Desktop/liteos/Project2/BearPi_LiteOS/targets/STM32L431_BearPi/Drivers/STM32L4xx_HAL_Driver/Src\stm32l4xx_hal_pwr_ex.c **** HAL_StatusTypeDef HAL_PWREx_DisableGPIOPullUp(uint32_t GPIO, uint32_t GPIONumber)
 489:C:/Users/lenovo/Desktop/liteos/Project2/BearPi_LiteOS/targets/STM32L431_BearPi/Drivers/STM32L4xx_HAL_Driver/Src\stm32l4xx_hal_pwr_ex.c **** {  
 439              		.loc 1 489 0
 440              		.cfi_startproc
 441              		@ args = 0, pretend = 0, frame = 0
 442              		@ frame_needed = 0, uses_anonymous_args = 0
 443              		@ link register save eliminated.
 444              	.LVL35:
 490:C:/Users/lenovo/Desktop/liteos/Project2/BearPi_LiteOS/targets/STM32L431_BearPi/Drivers/STM32L4xx_HAL_Driver/Src\stm32l4xx_hal_pwr_ex.c ****   assert_param(IS_PWR_GPIO(GPIO));
 491:C:/Users/lenovo/Desktop/liteos/Project2/BearPi_LiteOS/targets/STM32L431_BearPi/Drivers/STM32L4xx_HAL_Driver/Src\stm32l4xx_hal_pwr_ex.c ****   assert_param(IS_PWR_GPIO_BIT_NUMBER(GPIONumber));
 492:C:/Users/lenovo/Desktop/liteos/Project2/BearPi_LiteOS/targets/STM32L431_BearPi/Drivers/STM32L4xx_HAL_Driver/Src\stm32l4xx_hal_pwr_ex.c ****   
 493:C:/Users/lenovo/Desktop/liteos/Project2/BearPi_LiteOS/targets/STM32L431_BearPi/Drivers/STM32L4xx_HAL_Driver/Src\stm32l4xx_hal_pwr_ex.c ****   switch (GPIO)
 445              		.loc 1 493 0
 446 0000 0728     		cmp	r0, #7
 447 0002 33D8     		bhi	.L50
 448 0004 DFE800F0 		tbb	[pc, r0]
 449              	.L44:
 450 0008 04       		.byte	(.L43-.L44)/2
 451 0009 0D       		.byte	(.L45-.L44)/2
 452 000a 14       		.byte	(.L46-.L44)/2
 453 000b 1B       		.byte	(.L47-.L44)/2
 454 000c 22       		.byte	(.L48-.L44)/2
 455 000d 32       		.byte	(.L50-.L44)/2
 456 000e 32       		.byte	(.L50-.L44)/2
 457 000f 29       		.byte	(.L49-.L44)/2
 458              		.p2align 1
 459              	.L43:
 494:C:/Users/lenovo/Desktop/liteos/Project2/BearPi_LiteOS/targets/STM32L431_BearPi/Drivers/STM32L4xx_HAL_Driver/Src\stm32l4xx_hal_pwr_ex.c ****   {
 495:C:/Users/lenovo/Desktop/liteos/Project2/BearPi_LiteOS/targets/STM32L431_BearPi/Drivers/STM32L4xx_HAL_Driver/Src\stm32l4xx_hal_pwr_ex.c ****     case PWR_GPIO_A:
 496:C:/Users/lenovo/Desktop/liteos/Project2/BearPi_LiteOS/targets/STM32L431_BearPi/Drivers/STM32L4xx_HAL_Driver/Src\stm32l4xx_hal_pwr_ex.c ****        CLEAR_BIT(PWR->PUCRA, (GPIONumber & (~(PWR_GPIO_BIT_14))));
 460              		.loc 1 496 0
 461 0010 174A     		ldr	r2, .L51
 462 0012 136A     		ldr	r3, [r2, #32]
ARM GAS  c:\Users\lenovo\AppData\Local\Temp\ccy7mvmD.s 			page 18


 463 0014 21F48041 		bic	r1, r1, #16384
 464              	.LVL36:
 465 0018 23EA0101 		bic	r1, r3, r1
 466 001c 1162     		str	r1, [r2, #32]
 497:C:/Users/lenovo/Desktop/liteos/Project2/BearPi_LiteOS/targets/STM32L431_BearPi/Drivers/STM32L4xx_HAL_Driver/Src\stm32l4xx_hal_pwr_ex.c ****        break;
 498:C:/Users/lenovo/Desktop/liteos/Project2/BearPi_LiteOS/targets/STM32L431_BearPi/Drivers/STM32L4xx_HAL_Driver/Src\stm32l4xx_hal_pwr_ex.c ****     case PWR_GPIO_B:
 499:C:/Users/lenovo/Desktop/liteos/Project2/BearPi_LiteOS/targets/STM32L431_BearPi/Drivers/STM32L4xx_HAL_Driver/Src\stm32l4xx_hal_pwr_ex.c ****        CLEAR_BIT(PWR->PUCRB, GPIONumber);
 500:C:/Users/lenovo/Desktop/liteos/Project2/BearPi_LiteOS/targets/STM32L431_BearPi/Drivers/STM32L4xx_HAL_Driver/Src\stm32l4xx_hal_pwr_ex.c ****        break;
 501:C:/Users/lenovo/Desktop/liteos/Project2/BearPi_LiteOS/targets/STM32L431_BearPi/Drivers/STM32L4xx_HAL_Driver/Src\stm32l4xx_hal_pwr_ex.c ****     case PWR_GPIO_C:
 502:C:/Users/lenovo/Desktop/liteos/Project2/BearPi_LiteOS/targets/STM32L431_BearPi/Drivers/STM32L4xx_HAL_Driver/Src\stm32l4xx_hal_pwr_ex.c ****        CLEAR_BIT(PWR->PUCRC, GPIONumber);
 503:C:/Users/lenovo/Desktop/liteos/Project2/BearPi_LiteOS/targets/STM32L431_BearPi/Drivers/STM32L4xx_HAL_Driver/Src\stm32l4xx_hal_pwr_ex.c ****        break;
 504:C:/Users/lenovo/Desktop/liteos/Project2/BearPi_LiteOS/targets/STM32L431_BearPi/Drivers/STM32L4xx_HAL_Driver/Src\stm32l4xx_hal_pwr_ex.c **** #if defined(GPIOD)
 505:C:/Users/lenovo/Desktop/liteos/Project2/BearPi_LiteOS/targets/STM32L431_BearPi/Drivers/STM32L4xx_HAL_Driver/Src\stm32l4xx_hal_pwr_ex.c ****     case PWR_GPIO_D:
 506:C:/Users/lenovo/Desktop/liteos/Project2/BearPi_LiteOS/targets/STM32L431_BearPi/Drivers/STM32L4xx_HAL_Driver/Src\stm32l4xx_hal_pwr_ex.c ****        CLEAR_BIT(PWR->PUCRD, GPIONumber);
 507:C:/Users/lenovo/Desktop/liteos/Project2/BearPi_LiteOS/targets/STM32L431_BearPi/Drivers/STM32L4xx_HAL_Driver/Src\stm32l4xx_hal_pwr_ex.c ****        break;
 508:C:/Users/lenovo/Desktop/liteos/Project2/BearPi_LiteOS/targets/STM32L431_BearPi/Drivers/STM32L4xx_HAL_Driver/Src\stm32l4xx_hal_pwr_ex.c **** #endif
 509:C:/Users/lenovo/Desktop/liteos/Project2/BearPi_LiteOS/targets/STM32L431_BearPi/Drivers/STM32L4xx_HAL_Driver/Src\stm32l4xx_hal_pwr_ex.c **** #if defined(GPIOE)
 510:C:/Users/lenovo/Desktop/liteos/Project2/BearPi_LiteOS/targets/STM32L431_BearPi/Drivers/STM32L4xx_HAL_Driver/Src\stm32l4xx_hal_pwr_ex.c ****     case PWR_GPIO_E:
 511:C:/Users/lenovo/Desktop/liteos/Project2/BearPi_LiteOS/targets/STM32L431_BearPi/Drivers/STM32L4xx_HAL_Driver/Src\stm32l4xx_hal_pwr_ex.c ****        CLEAR_BIT(PWR->PUCRE, GPIONumber);
 512:C:/Users/lenovo/Desktop/liteos/Project2/BearPi_LiteOS/targets/STM32L431_BearPi/Drivers/STM32L4xx_HAL_Driver/Src\stm32l4xx_hal_pwr_ex.c ****        break;
 513:C:/Users/lenovo/Desktop/liteos/Project2/BearPi_LiteOS/targets/STM32L431_BearPi/Drivers/STM32L4xx_HAL_Driver/Src\stm32l4xx_hal_pwr_ex.c **** #endif
 514:C:/Users/lenovo/Desktop/liteos/Project2/BearPi_LiteOS/targets/STM32L431_BearPi/Drivers/STM32L4xx_HAL_Driver/Src\stm32l4xx_hal_pwr_ex.c **** #if defined(GPIOF)
 515:C:/Users/lenovo/Desktop/liteos/Project2/BearPi_LiteOS/targets/STM32L431_BearPi/Drivers/STM32L4xx_HAL_Driver/Src\stm32l4xx_hal_pwr_ex.c ****     case PWR_GPIO_F:
 516:C:/Users/lenovo/Desktop/liteos/Project2/BearPi_LiteOS/targets/STM32L431_BearPi/Drivers/STM32L4xx_HAL_Driver/Src\stm32l4xx_hal_pwr_ex.c ****        CLEAR_BIT(PWR->PUCRF, GPIONumber);
 517:C:/Users/lenovo/Desktop/liteos/Project2/BearPi_LiteOS/targets/STM32L431_BearPi/Drivers/STM32L4xx_HAL_Driver/Src\stm32l4xx_hal_pwr_ex.c ****        break;
 518:C:/Users/lenovo/Desktop/liteos/Project2/BearPi_LiteOS/targets/STM32L431_BearPi/Drivers/STM32L4xx_HAL_Driver/Src\stm32l4xx_hal_pwr_ex.c **** #endif
 519:C:/Users/lenovo/Desktop/liteos/Project2/BearPi_LiteOS/targets/STM32L431_BearPi/Drivers/STM32L4xx_HAL_Driver/Src\stm32l4xx_hal_pwr_ex.c **** #if defined(GPIOG)
 520:C:/Users/lenovo/Desktop/liteos/Project2/BearPi_LiteOS/targets/STM32L431_BearPi/Drivers/STM32L4xx_HAL_Driver/Src\stm32l4xx_hal_pwr_ex.c ****     case PWR_GPIO_G:
 521:C:/Users/lenovo/Desktop/liteos/Project2/BearPi_LiteOS/targets/STM32L431_BearPi/Drivers/STM32L4xx_HAL_Driver/Src\stm32l4xx_hal_pwr_ex.c ****        CLEAR_BIT(PWR->PUCRG, GPIONumber);
 522:C:/Users/lenovo/Desktop/liteos/Project2/BearPi_LiteOS/targets/STM32L431_BearPi/Drivers/STM32L4xx_HAL_Driver/Src\stm32l4xx_hal_pwr_ex.c ****        break;
 523:C:/Users/lenovo/Desktop/liteos/Project2/BearPi_LiteOS/targets/STM32L431_BearPi/Drivers/STM32L4xx_HAL_Driver/Src\stm32l4xx_hal_pwr_ex.c **** #endif
 524:C:/Users/lenovo/Desktop/liteos/Project2/BearPi_LiteOS/targets/STM32L431_BearPi/Drivers/STM32L4xx_HAL_Driver/Src\stm32l4xx_hal_pwr_ex.c ****     case PWR_GPIO_H:    
 525:C:/Users/lenovo/Desktop/liteos/Project2/BearPi_LiteOS/targets/STM32L431_BearPi/Drivers/STM32L4xx_HAL_Driver/Src\stm32l4xx_hal_pwr_ex.c ****        CLEAR_BIT(PWR->PUCRH, (GPIONumber & PWR_PORTH_AVAILABLE_PINS));
 526:C:/Users/lenovo/Desktop/liteos/Project2/BearPi_LiteOS/targets/STM32L431_BearPi/Drivers/STM32L4xx_HAL_Driver/Src\stm32l4xx_hal_pwr_ex.c ****        break;
 527:C:/Users/lenovo/Desktop/liteos/Project2/BearPi_LiteOS/targets/STM32L431_BearPi/Drivers/STM32L4xx_HAL_Driver/Src\stm32l4xx_hal_pwr_ex.c **** #if defined(GPIOI)
 528:C:/Users/lenovo/Desktop/liteos/Project2/BearPi_LiteOS/targets/STM32L431_BearPi/Drivers/STM32L4xx_HAL_Driver/Src\stm32l4xx_hal_pwr_ex.c ****     case PWR_GPIO_I:
 529:C:/Users/lenovo/Desktop/liteos/Project2/BearPi_LiteOS/targets/STM32L431_BearPi/Drivers/STM32L4xx_HAL_Driver/Src\stm32l4xx_hal_pwr_ex.c ****        CLEAR_BIT(PWR->PUCRI, (GPIONumber & PWR_PORTI_AVAILABLE_PINS));
 530:C:/Users/lenovo/Desktop/liteos/Project2/BearPi_LiteOS/targets/STM32L431_BearPi/Drivers/STM32L4xx_HAL_Driver/Src\stm32l4xx_hal_pwr_ex.c ****        break;
 531:C:/Users/lenovo/Desktop/liteos/Project2/BearPi_LiteOS/targets/STM32L431_BearPi/Drivers/STM32L4xx_HAL_Driver/Src\stm32l4xx_hal_pwr_ex.c **** #endif
 532:C:/Users/lenovo/Desktop/liteos/Project2/BearPi_LiteOS/targets/STM32L431_BearPi/Drivers/STM32L4xx_HAL_Driver/Src\stm32l4xx_hal_pwr_ex.c ****     default:
 533:C:/Users/lenovo/Desktop/liteos/Project2/BearPi_LiteOS/targets/STM32L431_BearPi/Drivers/STM32L4xx_HAL_Driver/Src\stm32l4xx_hal_pwr_ex.c ****        return HAL_ERROR;
 534:C:/Users/lenovo/Desktop/liteos/Project2/BearPi_LiteOS/targets/STM32L431_BearPi/Drivers/STM32L4xx_HAL_Driver/Src\stm32l4xx_hal_pwr_ex.c ****   }
 535:C:/Users/lenovo/Desktop/liteos/Project2/BearPi_LiteOS/targets/STM32L431_BearPi/Drivers/STM32L4xx_HAL_Driver/Src\stm32l4xx_hal_pwr_ex.c ****   
 536:C:/Users/lenovo/Desktop/liteos/Project2/BearPi_LiteOS/targets/STM32L431_BearPi/Drivers/STM32L4xx_HAL_Driver/Src\stm32l4xx_hal_pwr_ex.c ****   return HAL_OK;
 467              		.loc 1 536 0
 468 001e 0020     		movs	r0, #0
 469              	.LVL37:
 497:C:/Users/lenovo/Desktop/liteos/Project2/BearPi_LiteOS/targets/STM32L431_BearPi/Drivers/STM32L4xx_HAL_Driver/Src\stm32l4xx_hal_pwr_ex.c ****        break;
 470              		.loc 1 497 0
 471 0020 7047     		bx	lr
 472              	.LVL38:
 473              	.L45:
 499:C:/Users/lenovo/Desktop/liteos/Project2/BearPi_LiteOS/targets/STM32L431_BearPi/Drivers/STM32L4xx_HAL_Driver/Src\stm32l4xx_hal_pwr_ex.c ****        break;
 474              		.loc 1 499 0
 475 0022 134A     		ldr	r2, .L51
 476 0024 936A     		ldr	r3, [r2, #40]
 477 0026 23EA0101 		bic	r1, r3, r1
ARM GAS  c:\Users\lenovo\AppData\Local\Temp\ccy7mvmD.s 			page 19


 478              	.LVL39:
 479 002a 9162     		str	r1, [r2, #40]
 480              		.loc 1 536 0
 481 002c 0020     		movs	r0, #0
 482              	.LVL40:
 500:C:/Users/lenovo/Desktop/liteos/Project2/BearPi_LiteOS/targets/STM32L431_BearPi/Drivers/STM32L4xx_HAL_Driver/Src\stm32l4xx_hal_pwr_ex.c ****     case PWR_GPIO_C:
 483              		.loc 1 500 0
 484 002e 7047     		bx	lr
 485              	.LVL41:
 486              	.L46:
 502:C:/Users/lenovo/Desktop/liteos/Project2/BearPi_LiteOS/targets/STM32L431_BearPi/Drivers/STM32L4xx_HAL_Driver/Src\stm32l4xx_hal_pwr_ex.c ****        break;
 487              		.loc 1 502 0
 488 0030 0F4A     		ldr	r2, .L51
 489 0032 136B     		ldr	r3, [r2, #48]
 490 0034 23EA0101 		bic	r1, r3, r1
 491              	.LVL42:
 492 0038 1163     		str	r1, [r2, #48]
 493              		.loc 1 536 0
 494 003a 0020     		movs	r0, #0
 495              	.LVL43:
 503:C:/Users/lenovo/Desktop/liteos/Project2/BearPi_LiteOS/targets/STM32L431_BearPi/Drivers/STM32L4xx_HAL_Driver/Src\stm32l4xx_hal_pwr_ex.c **** #if defined(GPIOD)
 496              		.loc 1 503 0
 497 003c 7047     		bx	lr
 498              	.LVL44:
 499              	.L47:
 506:C:/Users/lenovo/Desktop/liteos/Project2/BearPi_LiteOS/targets/STM32L431_BearPi/Drivers/STM32L4xx_HAL_Driver/Src\stm32l4xx_hal_pwr_ex.c ****        break;
 500              		.loc 1 506 0
 501 003e 0C4A     		ldr	r2, .L51
 502 0040 936B     		ldr	r3, [r2, #56]
 503 0042 23EA0101 		bic	r1, r3, r1
 504              	.LVL45:
 505 0046 9163     		str	r1, [r2, #56]
 506              		.loc 1 536 0
 507 0048 0020     		movs	r0, #0
 508              	.LVL46:
 507:C:/Users/lenovo/Desktop/liteos/Project2/BearPi_LiteOS/targets/STM32L431_BearPi/Drivers/STM32L4xx_HAL_Driver/Src\stm32l4xx_hal_pwr_ex.c **** #endif
 509              		.loc 1 507 0
 510 004a 7047     		bx	lr
 511              	.LVL47:
 512              	.L48:
 511:C:/Users/lenovo/Desktop/liteos/Project2/BearPi_LiteOS/targets/STM32L431_BearPi/Drivers/STM32L4xx_HAL_Driver/Src\stm32l4xx_hal_pwr_ex.c ****        break;
 513              		.loc 1 511 0
 514 004c 084A     		ldr	r2, .L51
 515 004e 136C     		ldr	r3, [r2, #64]
 516 0050 23EA0101 		bic	r1, r3, r1
 517              	.LVL48:
 518 0054 1164     		str	r1, [r2, #64]
 519              		.loc 1 536 0
 520 0056 0020     		movs	r0, #0
 521              	.LVL49:
 512:C:/Users/lenovo/Desktop/liteos/Project2/BearPi_LiteOS/targets/STM32L431_BearPi/Drivers/STM32L4xx_HAL_Driver/Src\stm32l4xx_hal_pwr_ex.c **** #endif
 522              		.loc 1 512 0
 523 0058 7047     		bx	lr
 524              	.LVL50:
 525              	.L49:
 525:C:/Users/lenovo/Desktop/liteos/Project2/BearPi_LiteOS/targets/STM32L431_BearPi/Drivers/STM32L4xx_HAL_Driver/Src\stm32l4xx_hal_pwr_ex.c ****        break;
 526              		.loc 1 525 0
ARM GAS  c:\Users\lenovo\AppData\Local\Temp\ccy7mvmD.s 			page 20


 527 005a 054A     		ldr	r2, .L51
 528 005c 936D     		ldr	r3, [r2, #88]
 529 005e 01F00B01 		and	r1, r1, #11
 530              	.LVL51:
 531 0062 23EA0101 		bic	r1, r3, r1
 532 0066 9165     		str	r1, [r2, #88]
 533              		.loc 1 536 0
 534 0068 0020     		movs	r0, #0
 535              	.LVL52:
 526:C:/Users/lenovo/Desktop/liteos/Project2/BearPi_LiteOS/targets/STM32L431_BearPi/Drivers/STM32L4xx_HAL_Driver/Src\stm32l4xx_hal_pwr_ex.c **** #if defined(GPIOI)
 536              		.loc 1 526 0
 537 006a 7047     		bx	lr
 538              	.LVL53:
 539              	.L50:
 533:C:/Users/lenovo/Desktop/liteos/Project2/BearPi_LiteOS/targets/STM32L431_BearPi/Drivers/STM32L4xx_HAL_Driver/Src\stm32l4xx_hal_pwr_ex.c ****   }
 540              		.loc 1 533 0
 541 006c 0120     		movs	r0, #1
 542              	.LVL54:
 537:C:/Users/lenovo/Desktop/liteos/Project2/BearPi_LiteOS/targets/STM32L431_BearPi/Drivers/STM32L4xx_HAL_Driver/Src\stm32l4xx_hal_pwr_ex.c **** }
 543              		.loc 1 537 0
 544 006e 7047     		bx	lr
 545              	.L52:
 546              		.align	2
 547              	.L51:
 548 0070 00700040 		.word	1073770496
 549              		.cfi_endproc
 550              	.LFE140:
 552              		.section	.text.HAL_PWREx_EnableGPIOPullDown,"ax",%progbits
 553              		.align	1
 554              		.global	HAL_PWREx_EnableGPIOPullDown
 555              		.syntax unified
 556              		.thumb
 557              		.thumb_func
 558              		.fpu fpv4-sp-d16
 560              	HAL_PWREx_EnableGPIOPullDown:
 561              	.LFB141:
 538:C:/Users/lenovo/Desktop/liteos/Project2/BearPi_LiteOS/targets/STM32L431_BearPi/Drivers/STM32L4xx_HAL_Driver/Src\stm32l4xx_hal_pwr_ex.c **** 
 539:C:/Users/lenovo/Desktop/liteos/Project2/BearPi_LiteOS/targets/STM32L431_BearPi/Drivers/STM32L4xx_HAL_Driver/Src\stm32l4xx_hal_pwr_ex.c **** 
 540:C:/Users/lenovo/Desktop/liteos/Project2/BearPi_LiteOS/targets/STM32L431_BearPi/Drivers/STM32L4xx_HAL_Driver/Src\stm32l4xx_hal_pwr_ex.c **** 
 541:C:/Users/lenovo/Desktop/liteos/Project2/BearPi_LiteOS/targets/STM32L431_BearPi/Drivers/STM32L4xx_HAL_Driver/Src\stm32l4xx_hal_pwr_ex.c **** /**
 542:C:/Users/lenovo/Desktop/liteos/Project2/BearPi_LiteOS/targets/STM32L431_BearPi/Drivers/STM32L4xx_HAL_Driver/Src\stm32l4xx_hal_pwr_ex.c ****   * @brief Enable GPIO pull-down state in Standby and Shutdown modes.
 543:C:/Users/lenovo/Desktop/liteos/Project2/BearPi_LiteOS/targets/STM32L431_BearPi/Drivers/STM32L4xx_HAL_Driver/Src\stm32l4xx_hal_pwr_ex.c ****   * @note  Set the relevant PDy bits of PWR_PDCRx register to configure the I/O in 
 544:C:/Users/lenovo/Desktop/liteos/Project2/BearPi_LiteOS/targets/STM32L431_BearPi/Drivers/STM32L4xx_HAL_Driver/Src\stm32l4xx_hal_pwr_ex.c ****   *        pull-down state in Standby and Shutdown modes. 
 545:C:/Users/lenovo/Desktop/liteos/Project2/BearPi_LiteOS/targets/STM32L431_BearPi/Drivers/STM32L4xx_HAL_Driver/Src\stm32l4xx_hal_pwr_ex.c ****   * @note  This state is effective in Standby and Shutdown modes only if APC bit
 546:C:/Users/lenovo/Desktop/liteos/Project2/BearPi_LiteOS/targets/STM32L431_BearPi/Drivers/STM32L4xx_HAL_Driver/Src\stm32l4xx_hal_pwr_ex.c ****   *        is set through HAL_PWREx_EnablePullUpPullDownConfig() API. 
 547:C:/Users/lenovo/Desktop/liteos/Project2/BearPi_LiteOS/targets/STM32L431_BearPi/Drivers/STM32L4xx_HAL_Driver/Src\stm32l4xx_hal_pwr_ex.c ****   * @note  The configuration is lost when exiting the Shutdown mode due to the 
 548:C:/Users/lenovo/Desktop/liteos/Project2/BearPi_LiteOS/targets/STM32L431_BearPi/Drivers/STM32L4xx_HAL_Driver/Src\stm32l4xx_hal_pwr_ex.c ****   *        power-on reset, maintained when exiting the Standby mode. 
 549:C:/Users/lenovo/Desktop/liteos/Project2/BearPi_LiteOS/targets/STM32L431_BearPi/Drivers/STM32L4xx_HAL_Driver/Src\stm32l4xx_hal_pwr_ex.c ****   * @note  To avoid any conflict at Standby and Shutdown modes exits, the corresponding
 550:C:/Users/lenovo/Desktop/liteos/Project2/BearPi_LiteOS/targets/STM32L431_BearPi/Drivers/STM32L4xx_HAL_Driver/Src\stm32l4xx_hal_pwr_ex.c ****   *        PUy bit of PWR_PUCRx register is cleared unless it is reserved. 
 551:C:/Users/lenovo/Desktop/liteos/Project2/BearPi_LiteOS/targets/STM32L431_BearPi/Drivers/STM32L4xx_HAL_Driver/Src\stm32l4xx_hal_pwr_ex.c ****   * @note  Even if a PDy bit to set is reserved, the other PDy bits entered as input 
 552:C:/Users/lenovo/Desktop/liteos/Project2/BearPi_LiteOS/targets/STM32L431_BearPi/Drivers/STM32L4xx_HAL_Driver/Src\stm32l4xx_hal_pwr_ex.c ****   *        parameter at the same time are set.         
 553:C:/Users/lenovo/Desktop/liteos/Project2/BearPi_LiteOS/targets/STM32L431_BearPi/Drivers/STM32L4xx_HAL_Driver/Src\stm32l4xx_hal_pwr_ex.c ****   * @param  GPIO: Specify the IO port. This parameter can be PWR_GPIO_A..PWR_GPIO_H 
 554:C:/Users/lenovo/Desktop/liteos/Project2/BearPi_LiteOS/targets/STM32L431_BearPi/Drivers/STM32L4xx_HAL_Driver/Src\stm32l4xx_hal_pwr_ex.c ****   *         (or PWR_GPIO_I depending on the devices) to select the GPIO peripheral.
 555:C:/Users/lenovo/Desktop/liteos/Project2/BearPi_LiteOS/targets/STM32L431_BearPi/Drivers/STM32L4xx_HAL_Driver/Src\stm32l4xx_hal_pwr_ex.c ****   * @param  GPIONumber: Specify the I/O pins numbers.
 556:C:/Users/lenovo/Desktop/liteos/Project2/BearPi_LiteOS/targets/STM32L431_BearPi/Drivers/STM32L4xx_HAL_Driver/Src\stm32l4xx_hal_pwr_ex.c ****   *         This parameter can be one of the following values:
 557:C:/Users/lenovo/Desktop/liteos/Project2/BearPi_LiteOS/targets/STM32L431_BearPi/Drivers/STM32L4xx_HAL_Driver/Src\stm32l4xx_hal_pwr_ex.c ****   *         PWR_GPIO_BIT_0, ..., PWR_GPIO_BIT_15 (except for the port where less  
 558:C:/Users/lenovo/Desktop/liteos/Project2/BearPi_LiteOS/targets/STM32L431_BearPi/Drivers/STM32L4xx_HAL_Driver/Src\stm32l4xx_hal_pwr_ex.c ****   *         I/O pins are available) or the logical OR of several of them to set 
ARM GAS  c:\Users\lenovo\AppData\Local\Temp\ccy7mvmD.s 			page 21


 559:C:/Users/lenovo/Desktop/liteos/Project2/BearPi_LiteOS/targets/STM32L431_BearPi/Drivers/STM32L4xx_HAL_Driver/Src\stm32l4xx_hal_pwr_ex.c ****   *         several bits for a given port in a single API call. 
 560:C:/Users/lenovo/Desktop/liteos/Project2/BearPi_LiteOS/targets/STM32L431_BearPi/Drivers/STM32L4xx_HAL_Driver/Src\stm32l4xx_hal_pwr_ex.c ****   * @retval HAL Status
 561:C:/Users/lenovo/Desktop/liteos/Project2/BearPi_LiteOS/targets/STM32L431_BearPi/Drivers/STM32L4xx_HAL_Driver/Src\stm32l4xx_hal_pwr_ex.c ****   */   
 562:C:/Users/lenovo/Desktop/liteos/Project2/BearPi_LiteOS/targets/STM32L431_BearPi/Drivers/STM32L4xx_HAL_Driver/Src\stm32l4xx_hal_pwr_ex.c **** HAL_StatusTypeDef HAL_PWREx_EnableGPIOPullDown(uint32_t GPIO, uint32_t GPIONumber)
 563:C:/Users/lenovo/Desktop/liteos/Project2/BearPi_LiteOS/targets/STM32L431_BearPi/Drivers/STM32L4xx_HAL_Driver/Src\stm32l4xx_hal_pwr_ex.c **** {
 562              		.loc 1 563 0
 563              		.cfi_startproc
 564              		@ args = 0, pretend = 0, frame = 0
 565              		@ frame_needed = 0, uses_anonymous_args = 0
 566              		@ link register save eliminated.
 567              	.LVL55:
 564:C:/Users/lenovo/Desktop/liteos/Project2/BearPi_LiteOS/targets/STM32L431_BearPi/Drivers/STM32L4xx_HAL_Driver/Src\stm32l4xx_hal_pwr_ex.c ****   assert_param(IS_PWR_GPIO(GPIO));
 565:C:/Users/lenovo/Desktop/liteos/Project2/BearPi_LiteOS/targets/STM32L431_BearPi/Drivers/STM32L4xx_HAL_Driver/Src\stm32l4xx_hal_pwr_ex.c ****   assert_param(IS_PWR_GPIO_BIT_NUMBER(GPIONumber));
 566:C:/Users/lenovo/Desktop/liteos/Project2/BearPi_LiteOS/targets/STM32L431_BearPi/Drivers/STM32L4xx_HAL_Driver/Src\stm32l4xx_hal_pwr_ex.c ****   
 567:C:/Users/lenovo/Desktop/liteos/Project2/BearPi_LiteOS/targets/STM32L431_BearPi/Drivers/STM32L4xx_HAL_Driver/Src\stm32l4xx_hal_pwr_ex.c ****   switch (GPIO)
 568              		.loc 1 567 0
 569 0000 0728     		cmp	r0, #7
 570 0002 49D8     		bhi	.L62
 571 0004 DFE800F0 		tbb	[pc, r0]
 572              	.L56:
 573 0008 04       		.byte	(.L55-.L56)/2
 574 0009 12       		.byte	(.L57-.L56)/2
 575 000a 1E       		.byte	(.L58-.L56)/2
 576 000b 28       		.byte	(.L59-.L56)/2
 577 000c 32       		.byte	(.L60-.L56)/2
 578 000d 48       		.byte	(.L62-.L56)/2
 579 000e 48       		.byte	(.L62-.L56)/2
 580 000f 3C       		.byte	(.L61-.L56)/2
 581              		.p2align 1
 582              	.L55:
 568:C:/Users/lenovo/Desktop/liteos/Project2/BearPi_LiteOS/targets/STM32L431_BearPi/Drivers/STM32L4xx_HAL_Driver/Src\stm32l4xx_hal_pwr_ex.c ****   {
 569:C:/Users/lenovo/Desktop/liteos/Project2/BearPi_LiteOS/targets/STM32L431_BearPi/Drivers/STM32L4xx_HAL_Driver/Src\stm32l4xx_hal_pwr_ex.c ****     case PWR_GPIO_A:
 570:C:/Users/lenovo/Desktop/liteos/Project2/BearPi_LiteOS/targets/STM32L431_BearPi/Drivers/STM32L4xx_HAL_Driver/Src\stm32l4xx_hal_pwr_ex.c ****        SET_BIT(PWR->PDCRA, (GPIONumber & (~(PWR_GPIO_BIT_13|PWR_GPIO_BIT_15))));
 583              		.loc 1 570 0
 584 0010 224B     		ldr	r3, .L63
 585 0012 5A6A     		ldr	r2, [r3, #36]
 586 0014 21F42040 		bic	r0, r1, #40960
 587              	.LVL56:
 588 0018 0243     		orrs	r2, r2, r0
 589 001a 5A62     		str	r2, [r3, #36]
 571:C:/Users/lenovo/Desktop/liteos/Project2/BearPi_LiteOS/targets/STM32L431_BearPi/Drivers/STM32L4xx_HAL_Driver/Src\stm32l4xx_hal_pwr_ex.c ****        CLEAR_BIT(PWR->PUCRA, (GPIONumber & (~(PWR_GPIO_BIT_14))));
 590              		.loc 1 571 0
 591 001c 1A6A     		ldr	r2, [r3, #32]
 592 001e 21F48041 		bic	r1, r1, #16384
 593              	.LVL57:
 594 0022 22EA0101 		bic	r1, r2, r1
 595 0026 1962     		str	r1, [r3, #32]
 572:C:/Users/lenovo/Desktop/liteos/Project2/BearPi_LiteOS/targets/STM32L431_BearPi/Drivers/STM32L4xx_HAL_Driver/Src\stm32l4xx_hal_pwr_ex.c ****        break;
 573:C:/Users/lenovo/Desktop/liteos/Project2/BearPi_LiteOS/targets/STM32L431_BearPi/Drivers/STM32L4xx_HAL_Driver/Src\stm32l4xx_hal_pwr_ex.c ****     case PWR_GPIO_B:
 574:C:/Users/lenovo/Desktop/liteos/Project2/BearPi_LiteOS/targets/STM32L431_BearPi/Drivers/STM32L4xx_HAL_Driver/Src\stm32l4xx_hal_pwr_ex.c ****        SET_BIT(PWR->PDCRB, (GPIONumber & (~(PWR_GPIO_BIT_4))));
 575:C:/Users/lenovo/Desktop/liteos/Project2/BearPi_LiteOS/targets/STM32L431_BearPi/Drivers/STM32L4xx_HAL_Driver/Src\stm32l4xx_hal_pwr_ex.c ****        CLEAR_BIT(PWR->PUCRB, GPIONumber);
 576:C:/Users/lenovo/Desktop/liteos/Project2/BearPi_LiteOS/targets/STM32L431_BearPi/Drivers/STM32L4xx_HAL_Driver/Src\stm32l4xx_hal_pwr_ex.c ****        break;
 577:C:/Users/lenovo/Desktop/liteos/Project2/BearPi_LiteOS/targets/STM32L431_BearPi/Drivers/STM32L4xx_HAL_Driver/Src\stm32l4xx_hal_pwr_ex.c ****     case PWR_GPIO_C:
 578:C:/Users/lenovo/Desktop/liteos/Project2/BearPi_LiteOS/targets/STM32L431_BearPi/Drivers/STM32L4xx_HAL_Driver/Src\stm32l4xx_hal_pwr_ex.c ****        SET_BIT(PWR->PDCRC, GPIONumber);
 579:C:/Users/lenovo/Desktop/liteos/Project2/BearPi_LiteOS/targets/STM32L431_BearPi/Drivers/STM32L4xx_HAL_Driver/Src\stm32l4xx_hal_pwr_ex.c ****        CLEAR_BIT(PWR->PUCRC, GPIONumber);
 580:C:/Users/lenovo/Desktop/liteos/Project2/BearPi_LiteOS/targets/STM32L431_BearPi/Drivers/STM32L4xx_HAL_Driver/Src\stm32l4xx_hal_pwr_ex.c ****        break;
 581:C:/Users/lenovo/Desktop/liteos/Project2/BearPi_LiteOS/targets/STM32L431_BearPi/Drivers/STM32L4xx_HAL_Driver/Src\stm32l4xx_hal_pwr_ex.c **** #if defined(GPIOD)
ARM GAS  c:\Users\lenovo\AppData\Local\Temp\ccy7mvmD.s 			page 22


 582:C:/Users/lenovo/Desktop/liteos/Project2/BearPi_LiteOS/targets/STM32L431_BearPi/Drivers/STM32L4xx_HAL_Driver/Src\stm32l4xx_hal_pwr_ex.c ****     case PWR_GPIO_D:
 583:C:/Users/lenovo/Desktop/liteos/Project2/BearPi_LiteOS/targets/STM32L431_BearPi/Drivers/STM32L4xx_HAL_Driver/Src\stm32l4xx_hal_pwr_ex.c ****        SET_BIT(PWR->PDCRD, GPIONumber);
 584:C:/Users/lenovo/Desktop/liteos/Project2/BearPi_LiteOS/targets/STM32L431_BearPi/Drivers/STM32L4xx_HAL_Driver/Src\stm32l4xx_hal_pwr_ex.c ****        CLEAR_BIT(PWR->PUCRD, GPIONumber);
 585:C:/Users/lenovo/Desktop/liteos/Project2/BearPi_LiteOS/targets/STM32L431_BearPi/Drivers/STM32L4xx_HAL_Driver/Src\stm32l4xx_hal_pwr_ex.c ****        break;
 586:C:/Users/lenovo/Desktop/liteos/Project2/BearPi_LiteOS/targets/STM32L431_BearPi/Drivers/STM32L4xx_HAL_Driver/Src\stm32l4xx_hal_pwr_ex.c **** #endif
 587:C:/Users/lenovo/Desktop/liteos/Project2/BearPi_LiteOS/targets/STM32L431_BearPi/Drivers/STM32L4xx_HAL_Driver/Src\stm32l4xx_hal_pwr_ex.c **** #if defined(GPIOE)
 588:C:/Users/lenovo/Desktop/liteos/Project2/BearPi_LiteOS/targets/STM32L431_BearPi/Drivers/STM32L4xx_HAL_Driver/Src\stm32l4xx_hal_pwr_ex.c ****     case PWR_GPIO_E:
 589:C:/Users/lenovo/Desktop/liteos/Project2/BearPi_LiteOS/targets/STM32L431_BearPi/Drivers/STM32L4xx_HAL_Driver/Src\stm32l4xx_hal_pwr_ex.c ****        SET_BIT(PWR->PDCRE, GPIONumber);
 590:C:/Users/lenovo/Desktop/liteos/Project2/BearPi_LiteOS/targets/STM32L431_BearPi/Drivers/STM32L4xx_HAL_Driver/Src\stm32l4xx_hal_pwr_ex.c ****        CLEAR_BIT(PWR->PUCRE, GPIONumber);
 591:C:/Users/lenovo/Desktop/liteos/Project2/BearPi_LiteOS/targets/STM32L431_BearPi/Drivers/STM32L4xx_HAL_Driver/Src\stm32l4xx_hal_pwr_ex.c ****        break;
 592:C:/Users/lenovo/Desktop/liteos/Project2/BearPi_LiteOS/targets/STM32L431_BearPi/Drivers/STM32L4xx_HAL_Driver/Src\stm32l4xx_hal_pwr_ex.c **** #endif
 593:C:/Users/lenovo/Desktop/liteos/Project2/BearPi_LiteOS/targets/STM32L431_BearPi/Drivers/STM32L4xx_HAL_Driver/Src\stm32l4xx_hal_pwr_ex.c **** #if defined(GPIOF)
 594:C:/Users/lenovo/Desktop/liteos/Project2/BearPi_LiteOS/targets/STM32L431_BearPi/Drivers/STM32L4xx_HAL_Driver/Src\stm32l4xx_hal_pwr_ex.c ****     case PWR_GPIO_F:
 595:C:/Users/lenovo/Desktop/liteos/Project2/BearPi_LiteOS/targets/STM32L431_BearPi/Drivers/STM32L4xx_HAL_Driver/Src\stm32l4xx_hal_pwr_ex.c ****        SET_BIT(PWR->PDCRF, GPIONumber);
 596:C:/Users/lenovo/Desktop/liteos/Project2/BearPi_LiteOS/targets/STM32L431_BearPi/Drivers/STM32L4xx_HAL_Driver/Src\stm32l4xx_hal_pwr_ex.c ****        CLEAR_BIT(PWR->PUCRF, GPIONumber);
 597:C:/Users/lenovo/Desktop/liteos/Project2/BearPi_LiteOS/targets/STM32L431_BearPi/Drivers/STM32L4xx_HAL_Driver/Src\stm32l4xx_hal_pwr_ex.c ****        break;
 598:C:/Users/lenovo/Desktop/liteos/Project2/BearPi_LiteOS/targets/STM32L431_BearPi/Drivers/STM32L4xx_HAL_Driver/Src\stm32l4xx_hal_pwr_ex.c **** #endif
 599:C:/Users/lenovo/Desktop/liteos/Project2/BearPi_LiteOS/targets/STM32L431_BearPi/Drivers/STM32L4xx_HAL_Driver/Src\stm32l4xx_hal_pwr_ex.c **** #if defined(GPIOG)
 600:C:/Users/lenovo/Desktop/liteos/Project2/BearPi_LiteOS/targets/STM32L431_BearPi/Drivers/STM32L4xx_HAL_Driver/Src\stm32l4xx_hal_pwr_ex.c ****     case PWR_GPIO_G:
 601:C:/Users/lenovo/Desktop/liteos/Project2/BearPi_LiteOS/targets/STM32L431_BearPi/Drivers/STM32L4xx_HAL_Driver/Src\stm32l4xx_hal_pwr_ex.c ****        SET_BIT(PWR->PDCRG, GPIONumber);
 602:C:/Users/lenovo/Desktop/liteos/Project2/BearPi_LiteOS/targets/STM32L431_BearPi/Drivers/STM32L4xx_HAL_Driver/Src\stm32l4xx_hal_pwr_ex.c ****        CLEAR_BIT(PWR->PUCRG, GPIONumber);
 603:C:/Users/lenovo/Desktop/liteos/Project2/BearPi_LiteOS/targets/STM32L431_BearPi/Drivers/STM32L4xx_HAL_Driver/Src\stm32l4xx_hal_pwr_ex.c ****        break;
 604:C:/Users/lenovo/Desktop/liteos/Project2/BearPi_LiteOS/targets/STM32L431_BearPi/Drivers/STM32L4xx_HAL_Driver/Src\stm32l4xx_hal_pwr_ex.c **** #endif
 605:C:/Users/lenovo/Desktop/liteos/Project2/BearPi_LiteOS/targets/STM32L431_BearPi/Drivers/STM32L4xx_HAL_Driver/Src\stm32l4xx_hal_pwr_ex.c ****     case PWR_GPIO_H:
 606:C:/Users/lenovo/Desktop/liteos/Project2/BearPi_LiteOS/targets/STM32L431_BearPi/Drivers/STM32L4xx_HAL_Driver/Src\stm32l4xx_hal_pwr_ex.c **** #if defined (STM32L496xx) || defined (STM32L4A6xx)
 607:C:/Users/lenovo/Desktop/liteos/Project2/BearPi_LiteOS/targets/STM32L431_BearPi/Drivers/STM32L4xx_HAL_Driver/Src\stm32l4xx_hal_pwr_ex.c ****        SET_BIT(PWR->PDCRH, ((GPIONumber & PWR_PORTH_AVAILABLE_PINS) & (~(PWR_GPIO_BIT_3))));
 608:C:/Users/lenovo/Desktop/liteos/Project2/BearPi_LiteOS/targets/STM32L431_BearPi/Drivers/STM32L4xx_HAL_Driver/Src\stm32l4xx_hal_pwr_ex.c **** #else       
 609:C:/Users/lenovo/Desktop/liteos/Project2/BearPi_LiteOS/targets/STM32L431_BearPi/Drivers/STM32L4xx_HAL_Driver/Src\stm32l4xx_hal_pwr_ex.c ****        SET_BIT(PWR->PDCRH, (GPIONumber & PWR_PORTH_AVAILABLE_PINS));
 610:C:/Users/lenovo/Desktop/liteos/Project2/BearPi_LiteOS/targets/STM32L431_BearPi/Drivers/STM32L4xx_HAL_Driver/Src\stm32l4xx_hal_pwr_ex.c **** #endif  
 611:C:/Users/lenovo/Desktop/liteos/Project2/BearPi_LiteOS/targets/STM32L431_BearPi/Drivers/STM32L4xx_HAL_Driver/Src\stm32l4xx_hal_pwr_ex.c ****        CLEAR_BIT(PWR->PUCRH, (GPIONumber & PWR_PORTH_AVAILABLE_PINS));
 612:C:/Users/lenovo/Desktop/liteos/Project2/BearPi_LiteOS/targets/STM32L431_BearPi/Drivers/STM32L4xx_HAL_Driver/Src\stm32l4xx_hal_pwr_ex.c ****        break;
 613:C:/Users/lenovo/Desktop/liteos/Project2/BearPi_LiteOS/targets/STM32L431_BearPi/Drivers/STM32L4xx_HAL_Driver/Src\stm32l4xx_hal_pwr_ex.c **** #if defined(GPIOI)
 614:C:/Users/lenovo/Desktop/liteos/Project2/BearPi_LiteOS/targets/STM32L431_BearPi/Drivers/STM32L4xx_HAL_Driver/Src\stm32l4xx_hal_pwr_ex.c ****     case PWR_GPIO_I:
 615:C:/Users/lenovo/Desktop/liteos/Project2/BearPi_LiteOS/targets/STM32L431_BearPi/Drivers/STM32L4xx_HAL_Driver/Src\stm32l4xx_hal_pwr_ex.c ****        SET_BIT(PWR->PDCRI, (GPIONumber & PWR_PORTI_AVAILABLE_PINS));
 616:C:/Users/lenovo/Desktop/liteos/Project2/BearPi_LiteOS/targets/STM32L431_BearPi/Drivers/STM32L4xx_HAL_Driver/Src\stm32l4xx_hal_pwr_ex.c ****        CLEAR_BIT(PWR->PUCRI, (GPIONumber & PWR_PORTI_AVAILABLE_PINS));
 617:C:/Users/lenovo/Desktop/liteos/Project2/BearPi_LiteOS/targets/STM32L431_BearPi/Drivers/STM32L4xx_HAL_Driver/Src\stm32l4xx_hal_pwr_ex.c ****        break;
 618:C:/Users/lenovo/Desktop/liteos/Project2/BearPi_LiteOS/targets/STM32L431_BearPi/Drivers/STM32L4xx_HAL_Driver/Src\stm32l4xx_hal_pwr_ex.c **** #endif
 619:C:/Users/lenovo/Desktop/liteos/Project2/BearPi_LiteOS/targets/STM32L431_BearPi/Drivers/STM32L4xx_HAL_Driver/Src\stm32l4xx_hal_pwr_ex.c ****     default:
 620:C:/Users/lenovo/Desktop/liteos/Project2/BearPi_LiteOS/targets/STM32L431_BearPi/Drivers/STM32L4xx_HAL_Driver/Src\stm32l4xx_hal_pwr_ex.c ****        return HAL_ERROR;
 621:C:/Users/lenovo/Desktop/liteos/Project2/BearPi_LiteOS/targets/STM32L431_BearPi/Drivers/STM32L4xx_HAL_Driver/Src\stm32l4xx_hal_pwr_ex.c ****   }
 622:C:/Users/lenovo/Desktop/liteos/Project2/BearPi_LiteOS/targets/STM32L431_BearPi/Drivers/STM32L4xx_HAL_Driver/Src\stm32l4xx_hal_pwr_ex.c ****   
 623:C:/Users/lenovo/Desktop/liteos/Project2/BearPi_LiteOS/targets/STM32L431_BearPi/Drivers/STM32L4xx_HAL_Driver/Src\stm32l4xx_hal_pwr_ex.c ****   return HAL_OK;
 596              		.loc 1 623 0
 597 0028 0020     		movs	r0, #0
 572:C:/Users/lenovo/Desktop/liteos/Project2/BearPi_LiteOS/targets/STM32L431_BearPi/Drivers/STM32L4xx_HAL_Driver/Src\stm32l4xx_hal_pwr_ex.c ****        break;
 598              		.loc 1 572 0
 599 002a 7047     		bx	lr
 600              	.LVL58:
 601              	.L57:
 574:C:/Users/lenovo/Desktop/liteos/Project2/BearPi_LiteOS/targets/STM32L431_BearPi/Drivers/STM32L4xx_HAL_Driver/Src\stm32l4xx_hal_pwr_ex.c ****        CLEAR_BIT(PWR->PUCRB, GPIONumber);
 602              		.loc 1 574 0
 603 002c 1B4B     		ldr	r3, .L63
 604 002e DA6A     		ldr	r2, [r3, #44]
 605 0030 21F01000 		bic	r0, r1, #16
 606              	.LVL59:
 607 0034 0243     		orrs	r2, r2, r0
 608 0036 DA62     		str	r2, [r3, #44]
ARM GAS  c:\Users\lenovo\AppData\Local\Temp\ccy7mvmD.s 			page 23


 575:C:/Users/lenovo/Desktop/liteos/Project2/BearPi_LiteOS/targets/STM32L431_BearPi/Drivers/STM32L4xx_HAL_Driver/Src\stm32l4xx_hal_pwr_ex.c ****        break;
 609              		.loc 1 575 0
 610 0038 9A6A     		ldr	r2, [r3, #40]
 611 003a 22EA0101 		bic	r1, r2, r1
 612              	.LVL60:
 613 003e 9962     		str	r1, [r3, #40]
 614              		.loc 1 623 0
 615 0040 0020     		movs	r0, #0
 576:C:/Users/lenovo/Desktop/liteos/Project2/BearPi_LiteOS/targets/STM32L431_BearPi/Drivers/STM32L4xx_HAL_Driver/Src\stm32l4xx_hal_pwr_ex.c ****     case PWR_GPIO_C:
 616              		.loc 1 576 0
 617 0042 7047     		bx	lr
 618              	.LVL61:
 619              	.L58:
 578:C:/Users/lenovo/Desktop/liteos/Project2/BearPi_LiteOS/targets/STM32L431_BearPi/Drivers/STM32L4xx_HAL_Driver/Src\stm32l4xx_hal_pwr_ex.c ****        CLEAR_BIT(PWR->PUCRC, GPIONumber);
 620              		.loc 1 578 0
 621 0044 154B     		ldr	r3, .L63
 622 0046 5A6B     		ldr	r2, [r3, #52]
 623 0048 0A43     		orrs	r2, r2, r1
 624 004a 5A63     		str	r2, [r3, #52]
 579:C:/Users/lenovo/Desktop/liteos/Project2/BearPi_LiteOS/targets/STM32L431_BearPi/Drivers/STM32L4xx_HAL_Driver/Src\stm32l4xx_hal_pwr_ex.c ****        break;
 625              		.loc 1 579 0
 626 004c 1A6B     		ldr	r2, [r3, #48]
 627 004e 22EA0101 		bic	r1, r2, r1
 628              	.LVL62:
 629 0052 1963     		str	r1, [r3, #48]
 630              		.loc 1 623 0
 631 0054 0020     		movs	r0, #0
 632              	.LVL63:
 580:C:/Users/lenovo/Desktop/liteos/Project2/BearPi_LiteOS/targets/STM32L431_BearPi/Drivers/STM32L4xx_HAL_Driver/Src\stm32l4xx_hal_pwr_ex.c **** #if defined(GPIOD)
 633              		.loc 1 580 0
 634 0056 7047     		bx	lr
 635              	.LVL64:
 636              	.L59:
 583:C:/Users/lenovo/Desktop/liteos/Project2/BearPi_LiteOS/targets/STM32L431_BearPi/Drivers/STM32L4xx_HAL_Driver/Src\stm32l4xx_hal_pwr_ex.c ****        CLEAR_BIT(PWR->PUCRD, GPIONumber);
 637              		.loc 1 583 0
 638 0058 104B     		ldr	r3, .L63
 639 005a DA6B     		ldr	r2, [r3, #60]
 640 005c 0A43     		orrs	r2, r2, r1
 641 005e DA63     		str	r2, [r3, #60]
 584:C:/Users/lenovo/Desktop/liteos/Project2/BearPi_LiteOS/targets/STM32L431_BearPi/Drivers/STM32L4xx_HAL_Driver/Src\stm32l4xx_hal_pwr_ex.c ****        break;
 642              		.loc 1 584 0
 643 0060 9A6B     		ldr	r2, [r3, #56]
 644 0062 22EA0101 		bic	r1, r2, r1
 645              	.LVL65:
 646 0066 9963     		str	r1, [r3, #56]
 647              		.loc 1 623 0
 648 0068 0020     		movs	r0, #0
 649              	.LVL66:
 585:C:/Users/lenovo/Desktop/liteos/Project2/BearPi_LiteOS/targets/STM32L431_BearPi/Drivers/STM32L4xx_HAL_Driver/Src\stm32l4xx_hal_pwr_ex.c **** #endif
 650              		.loc 1 585 0
 651 006a 7047     		bx	lr
 652              	.LVL67:
 653              	.L60:
 589:C:/Users/lenovo/Desktop/liteos/Project2/BearPi_LiteOS/targets/STM32L431_BearPi/Drivers/STM32L4xx_HAL_Driver/Src\stm32l4xx_hal_pwr_ex.c ****        CLEAR_BIT(PWR->PUCRE, GPIONumber);
 654              		.loc 1 589 0
 655 006c 0B4B     		ldr	r3, .L63
 656 006e 5A6C     		ldr	r2, [r3, #68]
ARM GAS  c:\Users\lenovo\AppData\Local\Temp\ccy7mvmD.s 			page 24


 657 0070 0A43     		orrs	r2, r2, r1
 658 0072 5A64     		str	r2, [r3, #68]
 590:C:/Users/lenovo/Desktop/liteos/Project2/BearPi_LiteOS/targets/STM32L431_BearPi/Drivers/STM32L4xx_HAL_Driver/Src\stm32l4xx_hal_pwr_ex.c ****        break;
 659              		.loc 1 590 0
 660 0074 1A6C     		ldr	r2, [r3, #64]
 661 0076 22EA0101 		bic	r1, r2, r1
 662              	.LVL68:
 663 007a 1964     		str	r1, [r3, #64]
 664              		.loc 1 623 0
 665 007c 0020     		movs	r0, #0
 666              	.LVL69:
 591:C:/Users/lenovo/Desktop/liteos/Project2/BearPi_LiteOS/targets/STM32L431_BearPi/Drivers/STM32L4xx_HAL_Driver/Src\stm32l4xx_hal_pwr_ex.c **** #endif
 667              		.loc 1 591 0
 668 007e 7047     		bx	lr
 669              	.LVL70:
 670              	.L61:
 609:C:/Users/lenovo/Desktop/liteos/Project2/BearPi_LiteOS/targets/STM32L431_BearPi/Drivers/STM32L4xx_HAL_Driver/Src\stm32l4xx_hal_pwr_ex.c **** #endif  
 671              		.loc 1 609 0
 672 0080 064B     		ldr	r3, .L63
 673 0082 DA6D     		ldr	r2, [r3, #92]
 674 0084 01F00B01 		and	r1, r1, #11
 675              	.LVL71:
 676 0088 0A43     		orrs	r2, r2, r1
 677 008a DA65     		str	r2, [r3, #92]
 611:C:/Users/lenovo/Desktop/liteos/Project2/BearPi_LiteOS/targets/STM32L431_BearPi/Drivers/STM32L4xx_HAL_Driver/Src\stm32l4xx_hal_pwr_ex.c ****        break;
 678              		.loc 1 611 0
 679 008c 9A6D     		ldr	r2, [r3, #88]
 680 008e 22EA0101 		bic	r1, r2, r1
 681 0092 9965     		str	r1, [r3, #88]
 682              		.loc 1 623 0
 683 0094 0020     		movs	r0, #0
 684              	.LVL72:
 612:C:/Users/lenovo/Desktop/liteos/Project2/BearPi_LiteOS/targets/STM32L431_BearPi/Drivers/STM32L4xx_HAL_Driver/Src\stm32l4xx_hal_pwr_ex.c **** #if defined(GPIOI)
 685              		.loc 1 612 0
 686 0096 7047     		bx	lr
 687              	.LVL73:
 688              	.L62:
 620:C:/Users/lenovo/Desktop/liteos/Project2/BearPi_LiteOS/targets/STM32L431_BearPi/Drivers/STM32L4xx_HAL_Driver/Src\stm32l4xx_hal_pwr_ex.c ****   }
 689              		.loc 1 620 0
 690 0098 0120     		movs	r0, #1
 691              	.LVL74:
 624:C:/Users/lenovo/Desktop/liteos/Project2/BearPi_LiteOS/targets/STM32L431_BearPi/Drivers/STM32L4xx_HAL_Driver/Src\stm32l4xx_hal_pwr_ex.c **** }
 692              		.loc 1 624 0
 693 009a 7047     		bx	lr
 694              	.L64:
 695              		.align	2
 696              	.L63:
 697 009c 00700040 		.word	1073770496
 698              		.cfi_endproc
 699              	.LFE141:
 701              		.section	.text.HAL_PWREx_DisableGPIOPullDown,"ax",%progbits
 702              		.align	1
 703              		.global	HAL_PWREx_DisableGPIOPullDown
 704              		.syntax unified
 705              		.thumb
 706              		.thumb_func
 707              		.fpu fpv4-sp-d16
ARM GAS  c:\Users\lenovo\AppData\Local\Temp\ccy7mvmD.s 			page 25


 709              	HAL_PWREx_DisableGPIOPullDown:
 710              	.LFB142:
 625:C:/Users/lenovo/Desktop/liteos/Project2/BearPi_LiteOS/targets/STM32L431_BearPi/Drivers/STM32L4xx_HAL_Driver/Src\stm32l4xx_hal_pwr_ex.c **** 
 626:C:/Users/lenovo/Desktop/liteos/Project2/BearPi_LiteOS/targets/STM32L431_BearPi/Drivers/STM32L4xx_HAL_Driver/Src\stm32l4xx_hal_pwr_ex.c **** 
 627:C:/Users/lenovo/Desktop/liteos/Project2/BearPi_LiteOS/targets/STM32L431_BearPi/Drivers/STM32L4xx_HAL_Driver/Src\stm32l4xx_hal_pwr_ex.c **** /**
 628:C:/Users/lenovo/Desktop/liteos/Project2/BearPi_LiteOS/targets/STM32L431_BearPi/Drivers/STM32L4xx_HAL_Driver/Src\stm32l4xx_hal_pwr_ex.c ****   * @brief Disable GPIO pull-down state in Standby and Shutdown modes.
 629:C:/Users/lenovo/Desktop/liteos/Project2/BearPi_LiteOS/targets/STM32L431_BearPi/Drivers/STM32L4xx_HAL_Driver/Src\stm32l4xx_hal_pwr_ex.c ****   * @note  Reset the relevant PDy bits of PWR_PDCRx register used to configure the I/O
 630:C:/Users/lenovo/Desktop/liteos/Project2/BearPi_LiteOS/targets/STM32L431_BearPi/Drivers/STM32L4xx_HAL_Driver/Src\stm32l4xx_hal_pwr_ex.c ****   *        in pull-down state in Standby and Shutdown modes. 
 631:C:/Users/lenovo/Desktop/liteos/Project2/BearPi_LiteOS/targets/STM32L431_BearPi/Drivers/STM32L4xx_HAL_Driver/Src\stm32l4xx_hal_pwr_ex.c ****   * @note  Even if a PDy bit to reset is reserved, the other PDy bits entered as input 
 632:C:/Users/lenovo/Desktop/liteos/Project2/BearPi_LiteOS/targets/STM32L431_BearPi/Drivers/STM32L4xx_HAL_Driver/Src\stm32l4xx_hal_pwr_ex.c ****   *        parameter at the same time are reset.   
 633:C:/Users/lenovo/Desktop/liteos/Project2/BearPi_LiteOS/targets/STM32L431_BearPi/Drivers/STM32L4xx_HAL_Driver/Src\stm32l4xx_hal_pwr_ex.c ****   * @param  GPIO: Specifies the IO port. This parameter can be PWR_GPIO_A..PWR_GPIO_H 
 634:C:/Users/lenovo/Desktop/liteos/Project2/BearPi_LiteOS/targets/STM32L431_BearPi/Drivers/STM32L4xx_HAL_Driver/Src\stm32l4xx_hal_pwr_ex.c ****   *         (or PWR_GPIO_I depending on the devices) to select the GPIO peripheral.
 635:C:/Users/lenovo/Desktop/liteos/Project2/BearPi_LiteOS/targets/STM32L431_BearPi/Drivers/STM32L4xx_HAL_Driver/Src\stm32l4xx_hal_pwr_ex.c ****   * @param  GPIONumber: Specify the I/O pins numbers.
 636:C:/Users/lenovo/Desktop/liteos/Project2/BearPi_LiteOS/targets/STM32L431_BearPi/Drivers/STM32L4xx_HAL_Driver/Src\stm32l4xx_hal_pwr_ex.c ****   *         This parameter can be one of the following values:
 637:C:/Users/lenovo/Desktop/liteos/Project2/BearPi_LiteOS/targets/STM32L431_BearPi/Drivers/STM32L4xx_HAL_Driver/Src\stm32l4xx_hal_pwr_ex.c ****   *         PWR_GPIO_BIT_0, ..., PWR_GPIO_BIT_15 (except for the port where less  
 638:C:/Users/lenovo/Desktop/liteos/Project2/BearPi_LiteOS/targets/STM32L431_BearPi/Drivers/STM32L4xx_HAL_Driver/Src\stm32l4xx_hal_pwr_ex.c ****   *         I/O pins are available) or the logical OR of several of them to reset 
 639:C:/Users/lenovo/Desktop/liteos/Project2/BearPi_LiteOS/targets/STM32L431_BearPi/Drivers/STM32L4xx_HAL_Driver/Src\stm32l4xx_hal_pwr_ex.c ****   *         several bits for a given port in a single API call. 
 640:C:/Users/lenovo/Desktop/liteos/Project2/BearPi_LiteOS/targets/STM32L431_BearPi/Drivers/STM32L4xx_HAL_Driver/Src\stm32l4xx_hal_pwr_ex.c ****   * @retval HAL Status
 641:C:/Users/lenovo/Desktop/liteos/Project2/BearPi_LiteOS/targets/STM32L431_BearPi/Drivers/STM32L4xx_HAL_Driver/Src\stm32l4xx_hal_pwr_ex.c ****   */   
 642:C:/Users/lenovo/Desktop/liteos/Project2/BearPi_LiteOS/targets/STM32L431_BearPi/Drivers/STM32L4xx_HAL_Driver/Src\stm32l4xx_hal_pwr_ex.c **** HAL_StatusTypeDef HAL_PWREx_DisableGPIOPullDown(uint32_t GPIO, uint32_t GPIONumber)
 643:C:/Users/lenovo/Desktop/liteos/Project2/BearPi_LiteOS/targets/STM32L431_BearPi/Drivers/STM32L4xx_HAL_Driver/Src\stm32l4xx_hal_pwr_ex.c **** {
 711              		.loc 1 643 0
 712              		.cfi_startproc
 713              		@ args = 0, pretend = 0, frame = 0
 714              		@ frame_needed = 0, uses_anonymous_args = 0
 715              		@ link register save eliminated.
 716              	.LVL75:
 644:C:/Users/lenovo/Desktop/liteos/Project2/BearPi_LiteOS/targets/STM32L431_BearPi/Drivers/STM32L4xx_HAL_Driver/Src\stm32l4xx_hal_pwr_ex.c ****   assert_param(IS_PWR_GPIO(GPIO));
 645:C:/Users/lenovo/Desktop/liteos/Project2/BearPi_LiteOS/targets/STM32L431_BearPi/Drivers/STM32L4xx_HAL_Driver/Src\stm32l4xx_hal_pwr_ex.c ****   assert_param(IS_PWR_GPIO_BIT_NUMBER(GPIONumber));
 646:C:/Users/lenovo/Desktop/liteos/Project2/BearPi_LiteOS/targets/STM32L431_BearPi/Drivers/STM32L4xx_HAL_Driver/Src\stm32l4xx_hal_pwr_ex.c ****    
 647:C:/Users/lenovo/Desktop/liteos/Project2/BearPi_LiteOS/targets/STM32L431_BearPi/Drivers/STM32L4xx_HAL_Driver/Src\stm32l4xx_hal_pwr_ex.c ****   switch (GPIO)
 717              		.loc 1 647 0
 718 0000 0728     		cmp	r0, #7
 719 0002 35D8     		bhi	.L74
 720 0004 DFE800F0 		tbb	[pc, r0]
 721              	.L68:
 722 0008 04       		.byte	(.L67-.L68)/2
 723 0009 0D       		.byte	(.L69-.L68)/2
 724 000a 16       		.byte	(.L70-.L68)/2
 725 000b 1D       		.byte	(.L71-.L68)/2
 726 000c 24       		.byte	(.L72-.L68)/2
 727 000d 34       		.byte	(.L74-.L68)/2
 728 000e 34       		.byte	(.L74-.L68)/2
 729 000f 2B       		.byte	(.L73-.L68)/2
 730              		.p2align 1
 731              	.L67:
 648:C:/Users/lenovo/Desktop/liteos/Project2/BearPi_LiteOS/targets/STM32L431_BearPi/Drivers/STM32L4xx_HAL_Driver/Src\stm32l4xx_hal_pwr_ex.c ****   {
 649:C:/Users/lenovo/Desktop/liteos/Project2/BearPi_LiteOS/targets/STM32L431_BearPi/Drivers/STM32L4xx_HAL_Driver/Src\stm32l4xx_hal_pwr_ex.c ****     case PWR_GPIO_A:
 650:C:/Users/lenovo/Desktop/liteos/Project2/BearPi_LiteOS/targets/STM32L431_BearPi/Drivers/STM32L4xx_HAL_Driver/Src\stm32l4xx_hal_pwr_ex.c ****        CLEAR_BIT(PWR->PDCRA, (GPIONumber & (~(PWR_GPIO_BIT_13|PWR_GPIO_BIT_15))));
 732              		.loc 1 650 0
 733 0010 184A     		ldr	r2, .L75
 734 0012 536A     		ldr	r3, [r2, #36]
 735 0014 21F42041 		bic	r1, r1, #40960
 736              	.LVL76:
 737 0018 23EA0101 		bic	r1, r3, r1
 738 001c 5162     		str	r1, [r2, #36]
 651:C:/Users/lenovo/Desktop/liteos/Project2/BearPi_LiteOS/targets/STM32L431_BearPi/Drivers/STM32L4xx_HAL_Driver/Src\stm32l4xx_hal_pwr_ex.c ****        break;
ARM GAS  c:\Users\lenovo\AppData\Local\Temp\ccy7mvmD.s 			page 26


 652:C:/Users/lenovo/Desktop/liteos/Project2/BearPi_LiteOS/targets/STM32L431_BearPi/Drivers/STM32L4xx_HAL_Driver/Src\stm32l4xx_hal_pwr_ex.c ****     case PWR_GPIO_B:
 653:C:/Users/lenovo/Desktop/liteos/Project2/BearPi_LiteOS/targets/STM32L431_BearPi/Drivers/STM32L4xx_HAL_Driver/Src\stm32l4xx_hal_pwr_ex.c ****        CLEAR_BIT(PWR->PDCRB, (GPIONumber & (~(PWR_GPIO_BIT_4))));
 654:C:/Users/lenovo/Desktop/liteos/Project2/BearPi_LiteOS/targets/STM32L431_BearPi/Drivers/STM32L4xx_HAL_Driver/Src\stm32l4xx_hal_pwr_ex.c ****        break; 
 655:C:/Users/lenovo/Desktop/liteos/Project2/BearPi_LiteOS/targets/STM32L431_BearPi/Drivers/STM32L4xx_HAL_Driver/Src\stm32l4xx_hal_pwr_ex.c ****     case PWR_GPIO_C:
 656:C:/Users/lenovo/Desktop/liteos/Project2/BearPi_LiteOS/targets/STM32L431_BearPi/Drivers/STM32L4xx_HAL_Driver/Src\stm32l4xx_hal_pwr_ex.c ****        CLEAR_BIT(PWR->PDCRC, GPIONumber);
 657:C:/Users/lenovo/Desktop/liteos/Project2/BearPi_LiteOS/targets/STM32L431_BearPi/Drivers/STM32L4xx_HAL_Driver/Src\stm32l4xx_hal_pwr_ex.c ****        break;
 658:C:/Users/lenovo/Desktop/liteos/Project2/BearPi_LiteOS/targets/STM32L431_BearPi/Drivers/STM32L4xx_HAL_Driver/Src\stm32l4xx_hal_pwr_ex.c **** #if defined(GPIOD)
 659:C:/Users/lenovo/Desktop/liteos/Project2/BearPi_LiteOS/targets/STM32L431_BearPi/Drivers/STM32L4xx_HAL_Driver/Src\stm32l4xx_hal_pwr_ex.c ****     case PWR_GPIO_D:
 660:C:/Users/lenovo/Desktop/liteos/Project2/BearPi_LiteOS/targets/STM32L431_BearPi/Drivers/STM32L4xx_HAL_Driver/Src\stm32l4xx_hal_pwr_ex.c ****        CLEAR_BIT(PWR->PDCRD, GPIONumber);
 661:C:/Users/lenovo/Desktop/liteos/Project2/BearPi_LiteOS/targets/STM32L431_BearPi/Drivers/STM32L4xx_HAL_Driver/Src\stm32l4xx_hal_pwr_ex.c ****        break;
 662:C:/Users/lenovo/Desktop/liteos/Project2/BearPi_LiteOS/targets/STM32L431_BearPi/Drivers/STM32L4xx_HAL_Driver/Src\stm32l4xx_hal_pwr_ex.c **** #endif
 663:C:/Users/lenovo/Desktop/liteos/Project2/BearPi_LiteOS/targets/STM32L431_BearPi/Drivers/STM32L4xx_HAL_Driver/Src\stm32l4xx_hal_pwr_ex.c **** #if defined(GPIOE)
 664:C:/Users/lenovo/Desktop/liteos/Project2/BearPi_LiteOS/targets/STM32L431_BearPi/Drivers/STM32L4xx_HAL_Driver/Src\stm32l4xx_hal_pwr_ex.c ****     case PWR_GPIO_E:
 665:C:/Users/lenovo/Desktop/liteos/Project2/BearPi_LiteOS/targets/STM32L431_BearPi/Drivers/STM32L4xx_HAL_Driver/Src\stm32l4xx_hal_pwr_ex.c ****        CLEAR_BIT(PWR->PDCRE, GPIONumber);
 666:C:/Users/lenovo/Desktop/liteos/Project2/BearPi_LiteOS/targets/STM32L431_BearPi/Drivers/STM32L4xx_HAL_Driver/Src\stm32l4xx_hal_pwr_ex.c ****        break;
 667:C:/Users/lenovo/Desktop/liteos/Project2/BearPi_LiteOS/targets/STM32L431_BearPi/Drivers/STM32L4xx_HAL_Driver/Src\stm32l4xx_hal_pwr_ex.c **** #endif
 668:C:/Users/lenovo/Desktop/liteos/Project2/BearPi_LiteOS/targets/STM32L431_BearPi/Drivers/STM32L4xx_HAL_Driver/Src\stm32l4xx_hal_pwr_ex.c **** #if defined(GPIOF) 
 669:C:/Users/lenovo/Desktop/liteos/Project2/BearPi_LiteOS/targets/STM32L431_BearPi/Drivers/STM32L4xx_HAL_Driver/Src\stm32l4xx_hal_pwr_ex.c ****     case PWR_GPIO_F:
 670:C:/Users/lenovo/Desktop/liteos/Project2/BearPi_LiteOS/targets/STM32L431_BearPi/Drivers/STM32L4xx_HAL_Driver/Src\stm32l4xx_hal_pwr_ex.c ****        CLEAR_BIT(PWR->PDCRF, GPIONumber);
 671:C:/Users/lenovo/Desktop/liteos/Project2/BearPi_LiteOS/targets/STM32L431_BearPi/Drivers/STM32L4xx_HAL_Driver/Src\stm32l4xx_hal_pwr_ex.c ****        break;
 672:C:/Users/lenovo/Desktop/liteos/Project2/BearPi_LiteOS/targets/STM32L431_BearPi/Drivers/STM32L4xx_HAL_Driver/Src\stm32l4xx_hal_pwr_ex.c **** #endif
 673:C:/Users/lenovo/Desktop/liteos/Project2/BearPi_LiteOS/targets/STM32L431_BearPi/Drivers/STM32L4xx_HAL_Driver/Src\stm32l4xx_hal_pwr_ex.c **** #if defined(GPIOG)
 674:C:/Users/lenovo/Desktop/liteos/Project2/BearPi_LiteOS/targets/STM32L431_BearPi/Drivers/STM32L4xx_HAL_Driver/Src\stm32l4xx_hal_pwr_ex.c ****     case PWR_GPIO_G:
 675:C:/Users/lenovo/Desktop/liteos/Project2/BearPi_LiteOS/targets/STM32L431_BearPi/Drivers/STM32L4xx_HAL_Driver/Src\stm32l4xx_hal_pwr_ex.c ****        CLEAR_BIT(PWR->PDCRG, GPIONumber);
 676:C:/Users/lenovo/Desktop/liteos/Project2/BearPi_LiteOS/targets/STM32L431_BearPi/Drivers/STM32L4xx_HAL_Driver/Src\stm32l4xx_hal_pwr_ex.c ****        break;
 677:C:/Users/lenovo/Desktop/liteos/Project2/BearPi_LiteOS/targets/STM32L431_BearPi/Drivers/STM32L4xx_HAL_Driver/Src\stm32l4xx_hal_pwr_ex.c **** #endif
 678:C:/Users/lenovo/Desktop/liteos/Project2/BearPi_LiteOS/targets/STM32L431_BearPi/Drivers/STM32L4xx_HAL_Driver/Src\stm32l4xx_hal_pwr_ex.c ****     case PWR_GPIO_H:
 679:C:/Users/lenovo/Desktop/liteos/Project2/BearPi_LiteOS/targets/STM32L431_BearPi/Drivers/STM32L4xx_HAL_Driver/Src\stm32l4xx_hal_pwr_ex.c **** #if defined (STM32L496xx) || defined (STM32L4A6xx)
 680:C:/Users/lenovo/Desktop/liteos/Project2/BearPi_LiteOS/targets/STM32L431_BearPi/Drivers/STM32L4xx_HAL_Driver/Src\stm32l4xx_hal_pwr_ex.c ****        CLEAR_BIT(PWR->PDCRH, ((GPIONumber & PWR_PORTH_AVAILABLE_PINS) & (~(PWR_GPIO_BIT_3))));
 681:C:/Users/lenovo/Desktop/liteos/Project2/BearPi_LiteOS/targets/STM32L431_BearPi/Drivers/STM32L4xx_HAL_Driver/Src\stm32l4xx_hal_pwr_ex.c **** #else       
 682:C:/Users/lenovo/Desktop/liteos/Project2/BearPi_LiteOS/targets/STM32L431_BearPi/Drivers/STM32L4xx_HAL_Driver/Src\stm32l4xx_hal_pwr_ex.c ****        CLEAR_BIT(PWR->PDCRH, (GPIONumber & PWR_PORTH_AVAILABLE_PINS));
 683:C:/Users/lenovo/Desktop/liteos/Project2/BearPi_LiteOS/targets/STM32L431_BearPi/Drivers/STM32L4xx_HAL_Driver/Src\stm32l4xx_hal_pwr_ex.c **** #endif     
 684:C:/Users/lenovo/Desktop/liteos/Project2/BearPi_LiteOS/targets/STM32L431_BearPi/Drivers/STM32L4xx_HAL_Driver/Src\stm32l4xx_hal_pwr_ex.c ****        break; 
 685:C:/Users/lenovo/Desktop/liteos/Project2/BearPi_LiteOS/targets/STM32L431_BearPi/Drivers/STM32L4xx_HAL_Driver/Src\stm32l4xx_hal_pwr_ex.c **** #if defined(GPIOI)
 686:C:/Users/lenovo/Desktop/liteos/Project2/BearPi_LiteOS/targets/STM32L431_BearPi/Drivers/STM32L4xx_HAL_Driver/Src\stm32l4xx_hal_pwr_ex.c ****     case PWR_GPIO_I:
 687:C:/Users/lenovo/Desktop/liteos/Project2/BearPi_LiteOS/targets/STM32L431_BearPi/Drivers/STM32L4xx_HAL_Driver/Src\stm32l4xx_hal_pwr_ex.c ****        CLEAR_BIT(PWR->PDCRI, (GPIONumber & PWR_PORTI_AVAILABLE_PINS));
 688:C:/Users/lenovo/Desktop/liteos/Project2/BearPi_LiteOS/targets/STM32L431_BearPi/Drivers/STM32L4xx_HAL_Driver/Src\stm32l4xx_hal_pwr_ex.c ****        break;
 689:C:/Users/lenovo/Desktop/liteos/Project2/BearPi_LiteOS/targets/STM32L431_BearPi/Drivers/STM32L4xx_HAL_Driver/Src\stm32l4xx_hal_pwr_ex.c **** #endif
 690:C:/Users/lenovo/Desktop/liteos/Project2/BearPi_LiteOS/targets/STM32L431_BearPi/Drivers/STM32L4xx_HAL_Driver/Src\stm32l4xx_hal_pwr_ex.c ****     default:
 691:C:/Users/lenovo/Desktop/liteos/Project2/BearPi_LiteOS/targets/STM32L431_BearPi/Drivers/STM32L4xx_HAL_Driver/Src\stm32l4xx_hal_pwr_ex.c ****        return HAL_ERROR;
 692:C:/Users/lenovo/Desktop/liteos/Project2/BearPi_LiteOS/targets/STM32L431_BearPi/Drivers/STM32L4xx_HAL_Driver/Src\stm32l4xx_hal_pwr_ex.c ****   }
 693:C:/Users/lenovo/Desktop/liteos/Project2/BearPi_LiteOS/targets/STM32L431_BearPi/Drivers/STM32L4xx_HAL_Driver/Src\stm32l4xx_hal_pwr_ex.c ****   
 694:C:/Users/lenovo/Desktop/liteos/Project2/BearPi_LiteOS/targets/STM32L431_BearPi/Drivers/STM32L4xx_HAL_Driver/Src\stm32l4xx_hal_pwr_ex.c ****   return HAL_OK;
 739              		.loc 1 694 0
 740 001e 0020     		movs	r0, #0
 741              	.LVL77:
 651:C:/Users/lenovo/Desktop/liteos/Project2/BearPi_LiteOS/targets/STM32L431_BearPi/Drivers/STM32L4xx_HAL_Driver/Src\stm32l4xx_hal_pwr_ex.c ****        break;
 742              		.loc 1 651 0
 743 0020 7047     		bx	lr
 744              	.LVL78:
 745              	.L69:
 653:C:/Users/lenovo/Desktop/liteos/Project2/BearPi_LiteOS/targets/STM32L431_BearPi/Drivers/STM32L4xx_HAL_Driver/Src\stm32l4xx_hal_pwr_ex.c ****        break; 
 746              		.loc 1 653 0
 747 0022 144A     		ldr	r2, .L75
 748 0024 D36A     		ldr	r3, [r2, #44]
 749 0026 21F01001 		bic	r1, r1, #16
 750              	.LVL79:
ARM GAS  c:\Users\lenovo\AppData\Local\Temp\ccy7mvmD.s 			page 27


 751 002a 23EA0101 		bic	r1, r3, r1
 752 002e D162     		str	r1, [r2, #44]
 753              		.loc 1 694 0
 754 0030 0020     		movs	r0, #0
 755              	.LVL80:
 654:C:/Users/lenovo/Desktop/liteos/Project2/BearPi_LiteOS/targets/STM32L431_BearPi/Drivers/STM32L4xx_HAL_Driver/Src\stm32l4xx_hal_pwr_ex.c ****     case PWR_GPIO_C:
 756              		.loc 1 654 0
 757 0032 7047     		bx	lr
 758              	.LVL81:
 759              	.L70:
 656:C:/Users/lenovo/Desktop/liteos/Project2/BearPi_LiteOS/targets/STM32L431_BearPi/Drivers/STM32L4xx_HAL_Driver/Src\stm32l4xx_hal_pwr_ex.c ****        break;
 760              		.loc 1 656 0
 761 0034 0F4A     		ldr	r2, .L75
 762 0036 536B     		ldr	r3, [r2, #52]
 763 0038 23EA0101 		bic	r1, r3, r1
 764              	.LVL82:
 765 003c 5163     		str	r1, [r2, #52]
 766              		.loc 1 694 0
 767 003e 0020     		movs	r0, #0
 768              	.LVL83:
 657:C:/Users/lenovo/Desktop/liteos/Project2/BearPi_LiteOS/targets/STM32L431_BearPi/Drivers/STM32L4xx_HAL_Driver/Src\stm32l4xx_hal_pwr_ex.c **** #if defined(GPIOD)
 769              		.loc 1 657 0
 770 0040 7047     		bx	lr
 771              	.LVL84:
 772              	.L71:
 660:C:/Users/lenovo/Desktop/liteos/Project2/BearPi_LiteOS/targets/STM32L431_BearPi/Drivers/STM32L4xx_HAL_Driver/Src\stm32l4xx_hal_pwr_ex.c ****        break;
 773              		.loc 1 660 0
 774 0042 0C4A     		ldr	r2, .L75
 775 0044 D36B     		ldr	r3, [r2, #60]
 776 0046 23EA0101 		bic	r1, r3, r1
 777              	.LVL85:
 778 004a D163     		str	r1, [r2, #60]
 779              		.loc 1 694 0
 780 004c 0020     		movs	r0, #0
 781              	.LVL86:
 661:C:/Users/lenovo/Desktop/liteos/Project2/BearPi_LiteOS/targets/STM32L431_BearPi/Drivers/STM32L4xx_HAL_Driver/Src\stm32l4xx_hal_pwr_ex.c **** #endif
 782              		.loc 1 661 0
 783 004e 7047     		bx	lr
 784              	.LVL87:
 785              	.L72:
 665:C:/Users/lenovo/Desktop/liteos/Project2/BearPi_LiteOS/targets/STM32L431_BearPi/Drivers/STM32L4xx_HAL_Driver/Src\stm32l4xx_hal_pwr_ex.c ****        break;
 786              		.loc 1 665 0
 787 0050 084A     		ldr	r2, .L75
 788 0052 536C     		ldr	r3, [r2, #68]
 789 0054 23EA0101 		bic	r1, r3, r1
 790              	.LVL88:
 791 0058 5164     		str	r1, [r2, #68]
 792              		.loc 1 694 0
 793 005a 0020     		movs	r0, #0
 794              	.LVL89:
 666:C:/Users/lenovo/Desktop/liteos/Project2/BearPi_LiteOS/targets/STM32L431_BearPi/Drivers/STM32L4xx_HAL_Driver/Src\stm32l4xx_hal_pwr_ex.c **** #endif
 795              		.loc 1 666 0
 796 005c 7047     		bx	lr
 797              	.LVL90:
 798              	.L73:
 682:C:/Users/lenovo/Desktop/liteos/Project2/BearPi_LiteOS/targets/STM32L431_BearPi/Drivers/STM32L4xx_HAL_Driver/Src\stm32l4xx_hal_pwr_ex.c **** #endif     
 799              		.loc 1 682 0
ARM GAS  c:\Users\lenovo\AppData\Local\Temp\ccy7mvmD.s 			page 28


 800 005e 054A     		ldr	r2, .L75
 801 0060 D36D     		ldr	r3, [r2, #92]
 802 0062 01F00B01 		and	r1, r1, #11
 803              	.LVL91:
 804 0066 23EA0101 		bic	r1, r3, r1
 805 006a D165     		str	r1, [r2, #92]
 806              		.loc 1 694 0
 807 006c 0020     		movs	r0, #0
 808              	.LVL92:
 684:C:/Users/lenovo/Desktop/liteos/Project2/BearPi_LiteOS/targets/STM32L431_BearPi/Drivers/STM32L4xx_HAL_Driver/Src\stm32l4xx_hal_pwr_ex.c **** #if defined(GPIOI)
 809              		.loc 1 684 0
 810 006e 7047     		bx	lr
 811              	.LVL93:
 812              	.L74:
 691:C:/Users/lenovo/Desktop/liteos/Project2/BearPi_LiteOS/targets/STM32L431_BearPi/Drivers/STM32L4xx_HAL_Driver/Src\stm32l4xx_hal_pwr_ex.c ****   }
 813              		.loc 1 691 0
 814 0070 0120     		movs	r0, #1
 815              	.LVL94:
 695:C:/Users/lenovo/Desktop/liteos/Project2/BearPi_LiteOS/targets/STM32L431_BearPi/Drivers/STM32L4xx_HAL_Driver/Src\stm32l4xx_hal_pwr_ex.c **** }
 816              		.loc 1 695 0
 817 0072 7047     		bx	lr
 818              	.L76:
 819              		.align	2
 820              	.L75:
 821 0074 00700040 		.word	1073770496
 822              		.cfi_endproc
 823              	.LFE142:
 825              		.section	.text.HAL_PWREx_EnablePullUpPullDownConfig,"ax",%progbits
 826              		.align	1
 827              		.global	HAL_PWREx_EnablePullUpPullDownConfig
 828              		.syntax unified
 829              		.thumb
 830              		.thumb_func
 831              		.fpu fpv4-sp-d16
 833              	HAL_PWREx_EnablePullUpPullDownConfig:
 834              	.LFB143:
 696:C:/Users/lenovo/Desktop/liteos/Project2/BearPi_LiteOS/targets/STM32L431_BearPi/Drivers/STM32L4xx_HAL_Driver/Src\stm32l4xx_hal_pwr_ex.c **** 
 697:C:/Users/lenovo/Desktop/liteos/Project2/BearPi_LiteOS/targets/STM32L431_BearPi/Drivers/STM32L4xx_HAL_Driver/Src\stm32l4xx_hal_pwr_ex.c **** 
 698:C:/Users/lenovo/Desktop/liteos/Project2/BearPi_LiteOS/targets/STM32L431_BearPi/Drivers/STM32L4xx_HAL_Driver/Src\stm32l4xx_hal_pwr_ex.c **** 
 699:C:/Users/lenovo/Desktop/liteos/Project2/BearPi_LiteOS/targets/STM32L431_BearPi/Drivers/STM32L4xx_HAL_Driver/Src\stm32l4xx_hal_pwr_ex.c **** /**
 700:C:/Users/lenovo/Desktop/liteos/Project2/BearPi_LiteOS/targets/STM32L431_BearPi/Drivers/STM32L4xx_HAL_Driver/Src\stm32l4xx_hal_pwr_ex.c ****   * @brief Enable pull-up and pull-down configuration.
 701:C:/Users/lenovo/Desktop/liteos/Project2/BearPi_LiteOS/targets/STM32L431_BearPi/Drivers/STM32L4xx_HAL_Driver/Src\stm32l4xx_hal_pwr_ex.c ****   * @note  When APC bit is set, the I/O pull-up and pull-down configurations defined in 
 702:C:/Users/lenovo/Desktop/liteos/Project2/BearPi_LiteOS/targets/STM32L431_BearPi/Drivers/STM32L4xx_HAL_Driver/Src\stm32l4xx_hal_pwr_ex.c ****   *        PWR_PUCRx and PWR_PDCRx registers are applied in Standby and Shutdown modes.    
 703:C:/Users/lenovo/Desktop/liteos/Project2/BearPi_LiteOS/targets/STM32L431_BearPi/Drivers/STM32L4xx_HAL_Driver/Src\stm32l4xx_hal_pwr_ex.c ****   * @note  Pull-up set by PUy bit of PWR_PUCRx register is not activated if the corresponding
 704:C:/Users/lenovo/Desktop/liteos/Project2/BearPi_LiteOS/targets/STM32L431_BearPi/Drivers/STM32L4xx_HAL_Driver/Src\stm32l4xx_hal_pwr_ex.c ****   *        PDy bit of PWR_PDCRx register is also set (pull-down configuration priority is higher). 
 705:C:/Users/lenovo/Desktop/liteos/Project2/BearPi_LiteOS/targets/STM32L431_BearPi/Drivers/STM32L4xx_HAL_Driver/Src\stm32l4xx_hal_pwr_ex.c ****   *        HAL_PWREx_EnableGPIOPullUp() and HAL_PWREx_EnableGPIOPullDown() API's ensure there 
 706:C:/Users/lenovo/Desktop/liteos/Project2/BearPi_LiteOS/targets/STM32L431_BearPi/Drivers/STM32L4xx_HAL_Driver/Src\stm32l4xx_hal_pwr_ex.c ****   *        is no conflict when setting PUy or PDy bit.         
 707:C:/Users/lenovo/Desktop/liteos/Project2/BearPi_LiteOS/targets/STM32L431_BearPi/Drivers/STM32L4xx_HAL_Driver/Src\stm32l4xx_hal_pwr_ex.c ****   * @retval None
 708:C:/Users/lenovo/Desktop/liteos/Project2/BearPi_LiteOS/targets/STM32L431_BearPi/Drivers/STM32L4xx_HAL_Driver/Src\stm32l4xx_hal_pwr_ex.c ****   */
 709:C:/Users/lenovo/Desktop/liteos/Project2/BearPi_LiteOS/targets/STM32L431_BearPi/Drivers/STM32L4xx_HAL_Driver/Src\stm32l4xx_hal_pwr_ex.c **** void HAL_PWREx_EnablePullUpPullDownConfig(void)
 710:C:/Users/lenovo/Desktop/liteos/Project2/BearPi_LiteOS/targets/STM32L431_BearPi/Drivers/STM32L4xx_HAL_Driver/Src\stm32l4xx_hal_pwr_ex.c **** {
 835              		.loc 1 710 0
 836              		.cfi_startproc
 837              		@ args = 0, pretend = 0, frame = 0
 838              		@ frame_needed = 0, uses_anonymous_args = 0
 839              		@ link register save eliminated.
 711:C:/Users/lenovo/Desktop/liteos/Project2/BearPi_LiteOS/targets/STM32L431_BearPi/Drivers/STM32L4xx_HAL_Driver/Src\stm32l4xx_hal_pwr_ex.c ****   SET_BIT(PWR->CR3, PWR_CR3_APC);
ARM GAS  c:\Users\lenovo\AppData\Local\Temp\ccy7mvmD.s 			page 29


 840              		.loc 1 711 0
 841 0000 024A     		ldr	r2, .L78
 842 0002 9368     		ldr	r3, [r2, #8]
 843 0004 43F48063 		orr	r3, r3, #1024
 844 0008 9360     		str	r3, [r2, #8]
 712:C:/Users/lenovo/Desktop/liteos/Project2/BearPi_LiteOS/targets/STM32L431_BearPi/Drivers/STM32L4xx_HAL_Driver/Src\stm32l4xx_hal_pwr_ex.c **** }
 845              		.loc 1 712 0
 846 000a 7047     		bx	lr
 847              	.L79:
 848              		.align	2
 849              	.L78:
 850 000c 00700040 		.word	1073770496
 851              		.cfi_endproc
 852              	.LFE143:
 854              		.section	.text.HAL_PWREx_DisablePullUpPullDownConfig,"ax",%progbits
 855              		.align	1
 856              		.global	HAL_PWREx_DisablePullUpPullDownConfig
 857              		.syntax unified
 858              		.thumb
 859              		.thumb_func
 860              		.fpu fpv4-sp-d16
 862              	HAL_PWREx_DisablePullUpPullDownConfig:
 863              	.LFB144:
 713:C:/Users/lenovo/Desktop/liteos/Project2/BearPi_LiteOS/targets/STM32L431_BearPi/Drivers/STM32L4xx_HAL_Driver/Src\stm32l4xx_hal_pwr_ex.c **** 
 714:C:/Users/lenovo/Desktop/liteos/Project2/BearPi_LiteOS/targets/STM32L431_BearPi/Drivers/STM32L4xx_HAL_Driver/Src\stm32l4xx_hal_pwr_ex.c **** 
 715:C:/Users/lenovo/Desktop/liteos/Project2/BearPi_LiteOS/targets/STM32L431_BearPi/Drivers/STM32L4xx_HAL_Driver/Src\stm32l4xx_hal_pwr_ex.c **** /**
 716:C:/Users/lenovo/Desktop/liteos/Project2/BearPi_LiteOS/targets/STM32L431_BearPi/Drivers/STM32L4xx_HAL_Driver/Src\stm32l4xx_hal_pwr_ex.c ****   * @brief Disable pull-up and pull-down configuration.
 717:C:/Users/lenovo/Desktop/liteos/Project2/BearPi_LiteOS/targets/STM32L431_BearPi/Drivers/STM32L4xx_HAL_Driver/Src\stm32l4xx_hal_pwr_ex.c ****   * @note  When APC bit is cleared, the I/O pull-up and pull-down configurations defined in 
 718:C:/Users/lenovo/Desktop/liteos/Project2/BearPi_LiteOS/targets/STM32L431_BearPi/Drivers/STM32L4xx_HAL_Driver/Src\stm32l4xx_hal_pwr_ex.c ****   *        PWR_PUCRx and PWR_PDCRx registers are not applied in Standby and Shutdown modes.     
 719:C:/Users/lenovo/Desktop/liteos/Project2/BearPi_LiteOS/targets/STM32L431_BearPi/Drivers/STM32L4xx_HAL_Driver/Src\stm32l4xx_hal_pwr_ex.c ****   * @retval None
 720:C:/Users/lenovo/Desktop/liteos/Project2/BearPi_LiteOS/targets/STM32L431_BearPi/Drivers/STM32L4xx_HAL_Driver/Src\stm32l4xx_hal_pwr_ex.c ****   */
 721:C:/Users/lenovo/Desktop/liteos/Project2/BearPi_LiteOS/targets/STM32L431_BearPi/Drivers/STM32L4xx_HAL_Driver/Src\stm32l4xx_hal_pwr_ex.c **** void HAL_PWREx_DisablePullUpPullDownConfig(void)
 722:C:/Users/lenovo/Desktop/liteos/Project2/BearPi_LiteOS/targets/STM32L431_BearPi/Drivers/STM32L4xx_HAL_Driver/Src\stm32l4xx_hal_pwr_ex.c **** {
 864              		.loc 1 722 0
 865              		.cfi_startproc
 866              		@ args = 0, pretend = 0, frame = 0
 867              		@ frame_needed = 0, uses_anonymous_args = 0
 868              		@ link register save eliminated.
 723:C:/Users/lenovo/Desktop/liteos/Project2/BearPi_LiteOS/targets/STM32L431_BearPi/Drivers/STM32L4xx_HAL_Driver/Src\stm32l4xx_hal_pwr_ex.c ****   CLEAR_BIT(PWR->CR3, PWR_CR3_APC);
 869              		.loc 1 723 0
 870 0000 024A     		ldr	r2, .L81
 871 0002 9368     		ldr	r3, [r2, #8]
 872 0004 23F48063 		bic	r3, r3, #1024
 873 0008 9360     		str	r3, [r2, #8]
 724:C:/Users/lenovo/Desktop/liteos/Project2/BearPi_LiteOS/targets/STM32L431_BearPi/Drivers/STM32L4xx_HAL_Driver/Src\stm32l4xx_hal_pwr_ex.c **** }
 874              		.loc 1 724 0
 875 000a 7047     		bx	lr
 876              	.L82:
 877              		.align	2
 878              	.L81:
 879 000c 00700040 		.word	1073770496
 880              		.cfi_endproc
 881              	.LFE144:
 883              		.section	.text.HAL_PWREx_EnableSRAM2ContentRetention,"ax",%progbits
 884              		.align	1
 885              		.global	HAL_PWREx_EnableSRAM2ContentRetention
 886              		.syntax unified
ARM GAS  c:\Users\lenovo\AppData\Local\Temp\ccy7mvmD.s 			page 30


 887              		.thumb
 888              		.thumb_func
 889              		.fpu fpv4-sp-d16
 891              	HAL_PWREx_EnableSRAM2ContentRetention:
 892              	.LFB145:
 725:C:/Users/lenovo/Desktop/liteos/Project2/BearPi_LiteOS/targets/STM32L431_BearPi/Drivers/STM32L4xx_HAL_Driver/Src\stm32l4xx_hal_pwr_ex.c **** 
 726:C:/Users/lenovo/Desktop/liteos/Project2/BearPi_LiteOS/targets/STM32L431_BearPi/Drivers/STM32L4xx_HAL_Driver/Src\stm32l4xx_hal_pwr_ex.c **** 
 727:C:/Users/lenovo/Desktop/liteos/Project2/BearPi_LiteOS/targets/STM32L431_BearPi/Drivers/STM32L4xx_HAL_Driver/Src\stm32l4xx_hal_pwr_ex.c **** 
 728:C:/Users/lenovo/Desktop/liteos/Project2/BearPi_LiteOS/targets/STM32L431_BearPi/Drivers/STM32L4xx_HAL_Driver/Src\stm32l4xx_hal_pwr_ex.c **** /**
 729:C:/Users/lenovo/Desktop/liteos/Project2/BearPi_LiteOS/targets/STM32L431_BearPi/Drivers/STM32L4xx_HAL_Driver/Src\stm32l4xx_hal_pwr_ex.c ****   * @brief Enable SRAM2 content retention in Standby mode.
 730:C:/Users/lenovo/Desktop/liteos/Project2/BearPi_LiteOS/targets/STM32L431_BearPi/Drivers/STM32L4xx_HAL_Driver/Src\stm32l4xx_hal_pwr_ex.c ****   * @note  When RRS bit is set, SRAM2 is powered by the low-power regulator in 
 731:C:/Users/lenovo/Desktop/liteos/Project2/BearPi_LiteOS/targets/STM32L431_BearPi/Drivers/STM32L4xx_HAL_Driver/Src\stm32l4xx_hal_pwr_ex.c ****   *         Standby mode and its content is kept.    
 732:C:/Users/lenovo/Desktop/liteos/Project2/BearPi_LiteOS/targets/STM32L431_BearPi/Drivers/STM32L4xx_HAL_Driver/Src\stm32l4xx_hal_pwr_ex.c ****   * @retval None
 733:C:/Users/lenovo/Desktop/liteos/Project2/BearPi_LiteOS/targets/STM32L431_BearPi/Drivers/STM32L4xx_HAL_Driver/Src\stm32l4xx_hal_pwr_ex.c ****   */
 734:C:/Users/lenovo/Desktop/liteos/Project2/BearPi_LiteOS/targets/STM32L431_BearPi/Drivers/STM32L4xx_HAL_Driver/Src\stm32l4xx_hal_pwr_ex.c **** void HAL_PWREx_EnableSRAM2ContentRetention(void)
 735:C:/Users/lenovo/Desktop/liteos/Project2/BearPi_LiteOS/targets/STM32L431_BearPi/Drivers/STM32L4xx_HAL_Driver/Src\stm32l4xx_hal_pwr_ex.c **** {
 893              		.loc 1 735 0
 894              		.cfi_startproc
 895              		@ args = 0, pretend = 0, frame = 0
 896              		@ frame_needed = 0, uses_anonymous_args = 0
 897              		@ link register save eliminated.
 736:C:/Users/lenovo/Desktop/liteos/Project2/BearPi_LiteOS/targets/STM32L431_BearPi/Drivers/STM32L4xx_HAL_Driver/Src\stm32l4xx_hal_pwr_ex.c ****   SET_BIT(PWR->CR3, PWR_CR3_RRS);
 898              		.loc 1 736 0
 899 0000 024A     		ldr	r2, .L84
 900 0002 9368     		ldr	r3, [r2, #8]
 901 0004 43F48073 		orr	r3, r3, #256
 902 0008 9360     		str	r3, [r2, #8]
 737:C:/Users/lenovo/Desktop/liteos/Project2/BearPi_LiteOS/targets/STM32L431_BearPi/Drivers/STM32L4xx_HAL_Driver/Src\stm32l4xx_hal_pwr_ex.c **** }
 903              		.loc 1 737 0
 904 000a 7047     		bx	lr
 905              	.L85:
 906              		.align	2
 907              	.L84:
 908 000c 00700040 		.word	1073770496
 909              		.cfi_endproc
 910              	.LFE145:
 912              		.section	.text.HAL_PWREx_DisableSRAM2ContentRetention,"ax",%progbits
 913              		.align	1
 914              		.global	HAL_PWREx_DisableSRAM2ContentRetention
 915              		.syntax unified
 916              		.thumb
 917              		.thumb_func
 918              		.fpu fpv4-sp-d16
 920              	HAL_PWREx_DisableSRAM2ContentRetention:
 921              	.LFB146:
 738:C:/Users/lenovo/Desktop/liteos/Project2/BearPi_LiteOS/targets/STM32L431_BearPi/Drivers/STM32L4xx_HAL_Driver/Src\stm32l4xx_hal_pwr_ex.c **** 
 739:C:/Users/lenovo/Desktop/liteos/Project2/BearPi_LiteOS/targets/STM32L431_BearPi/Drivers/STM32L4xx_HAL_Driver/Src\stm32l4xx_hal_pwr_ex.c **** 
 740:C:/Users/lenovo/Desktop/liteos/Project2/BearPi_LiteOS/targets/STM32L431_BearPi/Drivers/STM32L4xx_HAL_Driver/Src\stm32l4xx_hal_pwr_ex.c **** /**
 741:C:/Users/lenovo/Desktop/liteos/Project2/BearPi_LiteOS/targets/STM32L431_BearPi/Drivers/STM32L4xx_HAL_Driver/Src\stm32l4xx_hal_pwr_ex.c ****   * @brief Disable SRAM2 content retention in Standby mode.
 742:C:/Users/lenovo/Desktop/liteos/Project2/BearPi_LiteOS/targets/STM32L431_BearPi/Drivers/STM32L4xx_HAL_Driver/Src\stm32l4xx_hal_pwr_ex.c ****   * @note  When RRS bit is reset, SRAM2 is powered off in Standby mode 
 743:C:/Users/lenovo/Desktop/liteos/Project2/BearPi_LiteOS/targets/STM32L431_BearPi/Drivers/STM32L4xx_HAL_Driver/Src\stm32l4xx_hal_pwr_ex.c ****   *        and its content is lost.      
 744:C:/Users/lenovo/Desktop/liteos/Project2/BearPi_LiteOS/targets/STM32L431_BearPi/Drivers/STM32L4xx_HAL_Driver/Src\stm32l4xx_hal_pwr_ex.c ****   * @retval None
 745:C:/Users/lenovo/Desktop/liteos/Project2/BearPi_LiteOS/targets/STM32L431_BearPi/Drivers/STM32L4xx_HAL_Driver/Src\stm32l4xx_hal_pwr_ex.c ****   */
 746:C:/Users/lenovo/Desktop/liteos/Project2/BearPi_LiteOS/targets/STM32L431_BearPi/Drivers/STM32L4xx_HAL_Driver/Src\stm32l4xx_hal_pwr_ex.c **** void HAL_PWREx_DisableSRAM2ContentRetention(void)
 747:C:/Users/lenovo/Desktop/liteos/Project2/BearPi_LiteOS/targets/STM32L431_BearPi/Drivers/STM32L4xx_HAL_Driver/Src\stm32l4xx_hal_pwr_ex.c **** {
 922              		.loc 1 747 0
 923              		.cfi_startproc
ARM GAS  c:\Users\lenovo\AppData\Local\Temp\ccy7mvmD.s 			page 31


 924              		@ args = 0, pretend = 0, frame = 0
 925              		@ frame_needed = 0, uses_anonymous_args = 0
 926              		@ link register save eliminated.
 748:C:/Users/lenovo/Desktop/liteos/Project2/BearPi_LiteOS/targets/STM32L431_BearPi/Drivers/STM32L4xx_HAL_Driver/Src\stm32l4xx_hal_pwr_ex.c ****   CLEAR_BIT(PWR->CR3, PWR_CR3_RRS);
 927              		.loc 1 748 0
 928 0000 024A     		ldr	r2, .L87
 929 0002 9368     		ldr	r3, [r2, #8]
 930 0004 23F48073 		bic	r3, r3, #256
 931 0008 9360     		str	r3, [r2, #8]
 749:C:/Users/lenovo/Desktop/liteos/Project2/BearPi_LiteOS/targets/STM32L431_BearPi/Drivers/STM32L4xx_HAL_Driver/Src\stm32l4xx_hal_pwr_ex.c **** }
 932              		.loc 1 749 0
 933 000a 7047     		bx	lr
 934              	.L88:
 935              		.align	2
 936              	.L87:
 937 000c 00700040 		.word	1073770496
 938              		.cfi_endproc
 939              	.LFE146:
 941              		.section	.text.HAL_PWREx_EnablePVM3,"ax",%progbits
 942              		.align	1
 943              		.global	HAL_PWREx_EnablePVM3
 944              		.syntax unified
 945              		.thumb
 946              		.thumb_func
 947              		.fpu fpv4-sp-d16
 949              	HAL_PWREx_EnablePVM3:
 950              	.LFB147:
 750:C:/Users/lenovo/Desktop/liteos/Project2/BearPi_LiteOS/targets/STM32L431_BearPi/Drivers/STM32L4xx_HAL_Driver/Src\stm32l4xx_hal_pwr_ex.c **** 
 751:C:/Users/lenovo/Desktop/liteos/Project2/BearPi_LiteOS/targets/STM32L431_BearPi/Drivers/STM32L4xx_HAL_Driver/Src\stm32l4xx_hal_pwr_ex.c **** 
 752:C:/Users/lenovo/Desktop/liteos/Project2/BearPi_LiteOS/targets/STM32L431_BearPi/Drivers/STM32L4xx_HAL_Driver/Src\stm32l4xx_hal_pwr_ex.c **** #if defined(PWR_CR1_RRSTP)
 753:C:/Users/lenovo/Desktop/liteos/Project2/BearPi_LiteOS/targets/STM32L431_BearPi/Drivers/STM32L4xx_HAL_Driver/Src\stm32l4xx_hal_pwr_ex.c **** /**
 754:C:/Users/lenovo/Desktop/liteos/Project2/BearPi_LiteOS/targets/STM32L431_BearPi/Drivers/STM32L4xx_HAL_Driver/Src\stm32l4xx_hal_pwr_ex.c ****   * @brief Enable SRAM3 content retention in Stop 2 mode.
 755:C:/Users/lenovo/Desktop/liteos/Project2/BearPi_LiteOS/targets/STM32L431_BearPi/Drivers/STM32L4xx_HAL_Driver/Src\stm32l4xx_hal_pwr_ex.c ****   * @note  When RRSTP bit is set, SRAM3 is powered by the low-power regulator in 
 756:C:/Users/lenovo/Desktop/liteos/Project2/BearPi_LiteOS/targets/STM32L431_BearPi/Drivers/STM32L4xx_HAL_Driver/Src\stm32l4xx_hal_pwr_ex.c ****   *        Stop 2 mode and its content is kept.    
 757:C:/Users/lenovo/Desktop/liteos/Project2/BearPi_LiteOS/targets/STM32L431_BearPi/Drivers/STM32L4xx_HAL_Driver/Src\stm32l4xx_hal_pwr_ex.c ****   * @retval None
 758:C:/Users/lenovo/Desktop/liteos/Project2/BearPi_LiteOS/targets/STM32L431_BearPi/Drivers/STM32L4xx_HAL_Driver/Src\stm32l4xx_hal_pwr_ex.c ****   */
 759:C:/Users/lenovo/Desktop/liteos/Project2/BearPi_LiteOS/targets/STM32L431_BearPi/Drivers/STM32L4xx_HAL_Driver/Src\stm32l4xx_hal_pwr_ex.c **** void HAL_PWREx_EnableSRAM3ContentRetention(void)
 760:C:/Users/lenovo/Desktop/liteos/Project2/BearPi_LiteOS/targets/STM32L431_BearPi/Drivers/STM32L4xx_HAL_Driver/Src\stm32l4xx_hal_pwr_ex.c **** {
 761:C:/Users/lenovo/Desktop/liteos/Project2/BearPi_LiteOS/targets/STM32L431_BearPi/Drivers/STM32L4xx_HAL_Driver/Src\stm32l4xx_hal_pwr_ex.c ****   SET_BIT(PWR->CR1, PWR_CR1_RRSTP);
 762:C:/Users/lenovo/Desktop/liteos/Project2/BearPi_LiteOS/targets/STM32L431_BearPi/Drivers/STM32L4xx_HAL_Driver/Src\stm32l4xx_hal_pwr_ex.c **** }
 763:C:/Users/lenovo/Desktop/liteos/Project2/BearPi_LiteOS/targets/STM32L431_BearPi/Drivers/STM32L4xx_HAL_Driver/Src\stm32l4xx_hal_pwr_ex.c **** 
 764:C:/Users/lenovo/Desktop/liteos/Project2/BearPi_LiteOS/targets/STM32L431_BearPi/Drivers/STM32L4xx_HAL_Driver/Src\stm32l4xx_hal_pwr_ex.c **** 
 765:C:/Users/lenovo/Desktop/liteos/Project2/BearPi_LiteOS/targets/STM32L431_BearPi/Drivers/STM32L4xx_HAL_Driver/Src\stm32l4xx_hal_pwr_ex.c **** /**
 766:C:/Users/lenovo/Desktop/liteos/Project2/BearPi_LiteOS/targets/STM32L431_BearPi/Drivers/STM32L4xx_HAL_Driver/Src\stm32l4xx_hal_pwr_ex.c ****   * @brief Disable SRAM3 content retention in Stop 2 mode.
 767:C:/Users/lenovo/Desktop/liteos/Project2/BearPi_LiteOS/targets/STM32L431_BearPi/Drivers/STM32L4xx_HAL_Driver/Src\stm32l4xx_hal_pwr_ex.c ****   * @note  When RRSTP bit is reset, SRAM3 is powered off in Stop 2 mode 
 768:C:/Users/lenovo/Desktop/liteos/Project2/BearPi_LiteOS/targets/STM32L431_BearPi/Drivers/STM32L4xx_HAL_Driver/Src\stm32l4xx_hal_pwr_ex.c ****   *        and its content is lost.      
 769:C:/Users/lenovo/Desktop/liteos/Project2/BearPi_LiteOS/targets/STM32L431_BearPi/Drivers/STM32L4xx_HAL_Driver/Src\stm32l4xx_hal_pwr_ex.c ****   * @retval None
 770:C:/Users/lenovo/Desktop/liteos/Project2/BearPi_LiteOS/targets/STM32L431_BearPi/Drivers/STM32L4xx_HAL_Driver/Src\stm32l4xx_hal_pwr_ex.c ****   */
 771:C:/Users/lenovo/Desktop/liteos/Project2/BearPi_LiteOS/targets/STM32L431_BearPi/Drivers/STM32L4xx_HAL_Driver/Src\stm32l4xx_hal_pwr_ex.c **** void HAL_PWREx_DisableSRAM3ContentRetention(void)
 772:C:/Users/lenovo/Desktop/liteos/Project2/BearPi_LiteOS/targets/STM32L431_BearPi/Drivers/STM32L4xx_HAL_Driver/Src\stm32l4xx_hal_pwr_ex.c **** {
 773:C:/Users/lenovo/Desktop/liteos/Project2/BearPi_LiteOS/targets/STM32L431_BearPi/Drivers/STM32L4xx_HAL_Driver/Src\stm32l4xx_hal_pwr_ex.c ****   CLEAR_BIT(PWR->CR1, PWR_CR1_RRSTP);
 774:C:/Users/lenovo/Desktop/liteos/Project2/BearPi_LiteOS/targets/STM32L431_BearPi/Drivers/STM32L4xx_HAL_Driver/Src\stm32l4xx_hal_pwr_ex.c **** }
 775:C:/Users/lenovo/Desktop/liteos/Project2/BearPi_LiteOS/targets/STM32L431_BearPi/Drivers/STM32L4xx_HAL_Driver/Src\stm32l4xx_hal_pwr_ex.c **** #endif /* PWR_CR1_RRSTP */
 776:C:/Users/lenovo/Desktop/liteos/Project2/BearPi_LiteOS/targets/STM32L431_BearPi/Drivers/STM32L4xx_HAL_Driver/Src\stm32l4xx_hal_pwr_ex.c **** 
 777:C:/Users/lenovo/Desktop/liteos/Project2/BearPi_LiteOS/targets/STM32L431_BearPi/Drivers/STM32L4xx_HAL_Driver/Src\stm32l4xx_hal_pwr_ex.c **** #if defined(PWR_CR3_DSIPDEN)
 778:C:/Users/lenovo/Desktop/liteos/Project2/BearPi_LiteOS/targets/STM32L431_BearPi/Drivers/STM32L4xx_HAL_Driver/Src\stm32l4xx_hal_pwr_ex.c **** /**
 779:C:/Users/lenovo/Desktop/liteos/Project2/BearPi_LiteOS/targets/STM32L431_BearPi/Drivers/STM32L4xx_HAL_Driver/Src\stm32l4xx_hal_pwr_ex.c ****   * @brief Enable pull-down activation on DSI pins.   
ARM GAS  c:\Users\lenovo\AppData\Local\Temp\ccy7mvmD.s 			page 32


 780:C:/Users/lenovo/Desktop/liteos/Project2/BearPi_LiteOS/targets/STM32L431_BearPi/Drivers/STM32L4xx_HAL_Driver/Src\stm32l4xx_hal_pwr_ex.c ****   * @retval None
 781:C:/Users/lenovo/Desktop/liteos/Project2/BearPi_LiteOS/targets/STM32L431_BearPi/Drivers/STM32L4xx_HAL_Driver/Src\stm32l4xx_hal_pwr_ex.c ****   */
 782:C:/Users/lenovo/Desktop/liteos/Project2/BearPi_LiteOS/targets/STM32L431_BearPi/Drivers/STM32L4xx_HAL_Driver/Src\stm32l4xx_hal_pwr_ex.c **** void HAL_PWREx_EnableDSIPinsPDActivation(void)
 783:C:/Users/lenovo/Desktop/liteos/Project2/BearPi_LiteOS/targets/STM32L431_BearPi/Drivers/STM32L4xx_HAL_Driver/Src\stm32l4xx_hal_pwr_ex.c **** {
 784:C:/Users/lenovo/Desktop/liteos/Project2/BearPi_LiteOS/targets/STM32L431_BearPi/Drivers/STM32L4xx_HAL_Driver/Src\stm32l4xx_hal_pwr_ex.c ****   SET_BIT(PWR->CR3, PWR_CR3_DSIPDEN);
 785:C:/Users/lenovo/Desktop/liteos/Project2/BearPi_LiteOS/targets/STM32L431_BearPi/Drivers/STM32L4xx_HAL_Driver/Src\stm32l4xx_hal_pwr_ex.c **** }
 786:C:/Users/lenovo/Desktop/liteos/Project2/BearPi_LiteOS/targets/STM32L431_BearPi/Drivers/STM32L4xx_HAL_Driver/Src\stm32l4xx_hal_pwr_ex.c **** 
 787:C:/Users/lenovo/Desktop/liteos/Project2/BearPi_LiteOS/targets/STM32L431_BearPi/Drivers/STM32L4xx_HAL_Driver/Src\stm32l4xx_hal_pwr_ex.c **** 
 788:C:/Users/lenovo/Desktop/liteos/Project2/BearPi_LiteOS/targets/STM32L431_BearPi/Drivers/STM32L4xx_HAL_Driver/Src\stm32l4xx_hal_pwr_ex.c **** /**
 789:C:/Users/lenovo/Desktop/liteos/Project2/BearPi_LiteOS/targets/STM32L431_BearPi/Drivers/STM32L4xx_HAL_Driver/Src\stm32l4xx_hal_pwr_ex.c ****   * @brief Disable pull-down activation on DSI pins.    
 790:C:/Users/lenovo/Desktop/liteos/Project2/BearPi_LiteOS/targets/STM32L431_BearPi/Drivers/STM32L4xx_HAL_Driver/Src\stm32l4xx_hal_pwr_ex.c ****   * @retval None
 791:C:/Users/lenovo/Desktop/liteos/Project2/BearPi_LiteOS/targets/STM32L431_BearPi/Drivers/STM32L4xx_HAL_Driver/Src\stm32l4xx_hal_pwr_ex.c ****   */
 792:C:/Users/lenovo/Desktop/liteos/Project2/BearPi_LiteOS/targets/STM32L431_BearPi/Drivers/STM32L4xx_HAL_Driver/Src\stm32l4xx_hal_pwr_ex.c **** void HAL_PWREx_DisableDSIPinsPDActivation(void)
 793:C:/Users/lenovo/Desktop/liteos/Project2/BearPi_LiteOS/targets/STM32L431_BearPi/Drivers/STM32L4xx_HAL_Driver/Src\stm32l4xx_hal_pwr_ex.c **** {
 794:C:/Users/lenovo/Desktop/liteos/Project2/BearPi_LiteOS/targets/STM32L431_BearPi/Drivers/STM32L4xx_HAL_Driver/Src\stm32l4xx_hal_pwr_ex.c ****   CLEAR_BIT(PWR->CR3, PWR_CR3_DSIPDEN);
 795:C:/Users/lenovo/Desktop/liteos/Project2/BearPi_LiteOS/targets/STM32L431_BearPi/Drivers/STM32L4xx_HAL_Driver/Src\stm32l4xx_hal_pwr_ex.c **** }
 796:C:/Users/lenovo/Desktop/liteos/Project2/BearPi_LiteOS/targets/STM32L431_BearPi/Drivers/STM32L4xx_HAL_Driver/Src\stm32l4xx_hal_pwr_ex.c **** #endif /* PWR_CR3_DSIPDEN */
 797:C:/Users/lenovo/Desktop/liteos/Project2/BearPi_LiteOS/targets/STM32L431_BearPi/Drivers/STM32L4xx_HAL_Driver/Src\stm32l4xx_hal_pwr_ex.c **** 
 798:C:/Users/lenovo/Desktop/liteos/Project2/BearPi_LiteOS/targets/STM32L431_BearPi/Drivers/STM32L4xx_HAL_Driver/Src\stm32l4xx_hal_pwr_ex.c **** #if defined(PWR_CR2_PVME1)
 799:C:/Users/lenovo/Desktop/liteos/Project2/BearPi_LiteOS/targets/STM32L431_BearPi/Drivers/STM32L4xx_HAL_Driver/Src\stm32l4xx_hal_pwr_ex.c **** /**
 800:C:/Users/lenovo/Desktop/liteos/Project2/BearPi_LiteOS/targets/STM32L431_BearPi/Drivers/STM32L4xx_HAL_Driver/Src\stm32l4xx_hal_pwr_ex.c ****   * @brief Enable the Power Voltage Monitoring 1: VDDUSB versus 1.2V.
 801:C:/Users/lenovo/Desktop/liteos/Project2/BearPi_LiteOS/targets/STM32L431_BearPi/Drivers/STM32L4xx_HAL_Driver/Src\stm32l4xx_hal_pwr_ex.c ****   * @retval None
 802:C:/Users/lenovo/Desktop/liteos/Project2/BearPi_LiteOS/targets/STM32L431_BearPi/Drivers/STM32L4xx_HAL_Driver/Src\stm32l4xx_hal_pwr_ex.c ****   */
 803:C:/Users/lenovo/Desktop/liteos/Project2/BearPi_LiteOS/targets/STM32L431_BearPi/Drivers/STM32L4xx_HAL_Driver/Src\stm32l4xx_hal_pwr_ex.c **** void HAL_PWREx_EnablePVM1(void)
 804:C:/Users/lenovo/Desktop/liteos/Project2/BearPi_LiteOS/targets/STM32L431_BearPi/Drivers/STM32L4xx_HAL_Driver/Src\stm32l4xx_hal_pwr_ex.c **** {
 805:C:/Users/lenovo/Desktop/liteos/Project2/BearPi_LiteOS/targets/STM32L431_BearPi/Drivers/STM32L4xx_HAL_Driver/Src\stm32l4xx_hal_pwr_ex.c ****   SET_BIT(PWR->CR2, PWR_PVM_1);    
 806:C:/Users/lenovo/Desktop/liteos/Project2/BearPi_LiteOS/targets/STM32L431_BearPi/Drivers/STM32L4xx_HAL_Driver/Src\stm32l4xx_hal_pwr_ex.c **** }
 807:C:/Users/lenovo/Desktop/liteos/Project2/BearPi_LiteOS/targets/STM32L431_BearPi/Drivers/STM32L4xx_HAL_Driver/Src\stm32l4xx_hal_pwr_ex.c **** 
 808:C:/Users/lenovo/Desktop/liteos/Project2/BearPi_LiteOS/targets/STM32L431_BearPi/Drivers/STM32L4xx_HAL_Driver/Src\stm32l4xx_hal_pwr_ex.c **** /**
 809:C:/Users/lenovo/Desktop/liteos/Project2/BearPi_LiteOS/targets/STM32L431_BearPi/Drivers/STM32L4xx_HAL_Driver/Src\stm32l4xx_hal_pwr_ex.c ****   * @brief Disable the Power Voltage Monitoring 1: VDDUSB versus 1.2V.
 810:C:/Users/lenovo/Desktop/liteos/Project2/BearPi_LiteOS/targets/STM32L431_BearPi/Drivers/STM32L4xx_HAL_Driver/Src\stm32l4xx_hal_pwr_ex.c ****   * @retval None
 811:C:/Users/lenovo/Desktop/liteos/Project2/BearPi_LiteOS/targets/STM32L431_BearPi/Drivers/STM32L4xx_HAL_Driver/Src\stm32l4xx_hal_pwr_ex.c ****   */
 812:C:/Users/lenovo/Desktop/liteos/Project2/BearPi_LiteOS/targets/STM32L431_BearPi/Drivers/STM32L4xx_HAL_Driver/Src\stm32l4xx_hal_pwr_ex.c **** void HAL_PWREx_DisablePVM1(void)
 813:C:/Users/lenovo/Desktop/liteos/Project2/BearPi_LiteOS/targets/STM32L431_BearPi/Drivers/STM32L4xx_HAL_Driver/Src\stm32l4xx_hal_pwr_ex.c **** {
 814:C:/Users/lenovo/Desktop/liteos/Project2/BearPi_LiteOS/targets/STM32L431_BearPi/Drivers/STM32L4xx_HAL_Driver/Src\stm32l4xx_hal_pwr_ex.c ****   CLEAR_BIT(PWR->CR2, PWR_PVM_1);    
 815:C:/Users/lenovo/Desktop/liteos/Project2/BearPi_LiteOS/targets/STM32L431_BearPi/Drivers/STM32L4xx_HAL_Driver/Src\stm32l4xx_hal_pwr_ex.c **** }
 816:C:/Users/lenovo/Desktop/liteos/Project2/BearPi_LiteOS/targets/STM32L431_BearPi/Drivers/STM32L4xx_HAL_Driver/Src\stm32l4xx_hal_pwr_ex.c **** #endif /* PWR_CR2_PVME1 */
 817:C:/Users/lenovo/Desktop/liteos/Project2/BearPi_LiteOS/targets/STM32L431_BearPi/Drivers/STM32L4xx_HAL_Driver/Src\stm32l4xx_hal_pwr_ex.c **** 
 818:C:/Users/lenovo/Desktop/liteos/Project2/BearPi_LiteOS/targets/STM32L431_BearPi/Drivers/STM32L4xx_HAL_Driver/Src\stm32l4xx_hal_pwr_ex.c **** 
 819:C:/Users/lenovo/Desktop/liteos/Project2/BearPi_LiteOS/targets/STM32L431_BearPi/Drivers/STM32L4xx_HAL_Driver/Src\stm32l4xx_hal_pwr_ex.c **** #if defined(PWR_CR2_PVME2)
 820:C:/Users/lenovo/Desktop/liteos/Project2/BearPi_LiteOS/targets/STM32L431_BearPi/Drivers/STM32L4xx_HAL_Driver/Src\stm32l4xx_hal_pwr_ex.c **** /**
 821:C:/Users/lenovo/Desktop/liteos/Project2/BearPi_LiteOS/targets/STM32L431_BearPi/Drivers/STM32L4xx_HAL_Driver/Src\stm32l4xx_hal_pwr_ex.c ****   * @brief Enable the Power Voltage Monitoring 2: VDDIO2 versus 0.9V.
 822:C:/Users/lenovo/Desktop/liteos/Project2/BearPi_LiteOS/targets/STM32L431_BearPi/Drivers/STM32L4xx_HAL_Driver/Src\stm32l4xx_hal_pwr_ex.c ****   * @retval None
 823:C:/Users/lenovo/Desktop/liteos/Project2/BearPi_LiteOS/targets/STM32L431_BearPi/Drivers/STM32L4xx_HAL_Driver/Src\stm32l4xx_hal_pwr_ex.c ****   */
 824:C:/Users/lenovo/Desktop/liteos/Project2/BearPi_LiteOS/targets/STM32L431_BearPi/Drivers/STM32L4xx_HAL_Driver/Src\stm32l4xx_hal_pwr_ex.c **** void HAL_PWREx_EnablePVM2(void)
 825:C:/Users/lenovo/Desktop/liteos/Project2/BearPi_LiteOS/targets/STM32L431_BearPi/Drivers/STM32L4xx_HAL_Driver/Src\stm32l4xx_hal_pwr_ex.c **** {
 826:C:/Users/lenovo/Desktop/liteos/Project2/BearPi_LiteOS/targets/STM32L431_BearPi/Drivers/STM32L4xx_HAL_Driver/Src\stm32l4xx_hal_pwr_ex.c ****   SET_BIT(PWR->CR2, PWR_PVM_2);    
 827:C:/Users/lenovo/Desktop/liteos/Project2/BearPi_LiteOS/targets/STM32L431_BearPi/Drivers/STM32L4xx_HAL_Driver/Src\stm32l4xx_hal_pwr_ex.c **** }
 828:C:/Users/lenovo/Desktop/liteos/Project2/BearPi_LiteOS/targets/STM32L431_BearPi/Drivers/STM32L4xx_HAL_Driver/Src\stm32l4xx_hal_pwr_ex.c **** 
 829:C:/Users/lenovo/Desktop/liteos/Project2/BearPi_LiteOS/targets/STM32L431_BearPi/Drivers/STM32L4xx_HAL_Driver/Src\stm32l4xx_hal_pwr_ex.c **** /**
 830:C:/Users/lenovo/Desktop/liteos/Project2/BearPi_LiteOS/targets/STM32L431_BearPi/Drivers/STM32L4xx_HAL_Driver/Src\stm32l4xx_hal_pwr_ex.c ****   * @brief Disable the Power Voltage Monitoring 2: VDDIO2 versus 0.9V.
 831:C:/Users/lenovo/Desktop/liteos/Project2/BearPi_LiteOS/targets/STM32L431_BearPi/Drivers/STM32L4xx_HAL_Driver/Src\stm32l4xx_hal_pwr_ex.c ****   * @retval None
 832:C:/Users/lenovo/Desktop/liteos/Project2/BearPi_LiteOS/targets/STM32L431_BearPi/Drivers/STM32L4xx_HAL_Driver/Src\stm32l4xx_hal_pwr_ex.c ****   */
 833:C:/Users/lenovo/Desktop/liteos/Project2/BearPi_LiteOS/targets/STM32L431_BearPi/Drivers/STM32L4xx_HAL_Driver/Src\stm32l4xx_hal_pwr_ex.c **** void HAL_PWREx_DisablePVM2(void)
 834:C:/Users/lenovo/Desktop/liteos/Project2/BearPi_LiteOS/targets/STM32L431_BearPi/Drivers/STM32L4xx_HAL_Driver/Src\stm32l4xx_hal_pwr_ex.c **** {
 835:C:/Users/lenovo/Desktop/liteos/Project2/BearPi_LiteOS/targets/STM32L431_BearPi/Drivers/STM32L4xx_HAL_Driver/Src\stm32l4xx_hal_pwr_ex.c ****   CLEAR_BIT(PWR->CR2, PWR_PVM_2);    
 836:C:/Users/lenovo/Desktop/liteos/Project2/BearPi_LiteOS/targets/STM32L431_BearPi/Drivers/STM32L4xx_HAL_Driver/Src\stm32l4xx_hal_pwr_ex.c **** }
ARM GAS  c:\Users\lenovo\AppData\Local\Temp\ccy7mvmD.s 			page 33


 837:C:/Users/lenovo/Desktop/liteos/Project2/BearPi_LiteOS/targets/STM32L431_BearPi/Drivers/STM32L4xx_HAL_Driver/Src\stm32l4xx_hal_pwr_ex.c **** #endif /* PWR_CR2_PVME2 */
 838:C:/Users/lenovo/Desktop/liteos/Project2/BearPi_LiteOS/targets/STM32L431_BearPi/Drivers/STM32L4xx_HAL_Driver/Src\stm32l4xx_hal_pwr_ex.c **** 
 839:C:/Users/lenovo/Desktop/liteos/Project2/BearPi_LiteOS/targets/STM32L431_BearPi/Drivers/STM32L4xx_HAL_Driver/Src\stm32l4xx_hal_pwr_ex.c **** 
 840:C:/Users/lenovo/Desktop/liteos/Project2/BearPi_LiteOS/targets/STM32L431_BearPi/Drivers/STM32L4xx_HAL_Driver/Src\stm32l4xx_hal_pwr_ex.c **** /**
 841:C:/Users/lenovo/Desktop/liteos/Project2/BearPi_LiteOS/targets/STM32L431_BearPi/Drivers/STM32L4xx_HAL_Driver/Src\stm32l4xx_hal_pwr_ex.c ****   * @brief Enable the Power Voltage Monitoring 3: VDDA versus 1.62V.
 842:C:/Users/lenovo/Desktop/liteos/Project2/BearPi_LiteOS/targets/STM32L431_BearPi/Drivers/STM32L4xx_HAL_Driver/Src\stm32l4xx_hal_pwr_ex.c ****   * @retval None
 843:C:/Users/lenovo/Desktop/liteos/Project2/BearPi_LiteOS/targets/STM32L431_BearPi/Drivers/STM32L4xx_HAL_Driver/Src\stm32l4xx_hal_pwr_ex.c ****   */
 844:C:/Users/lenovo/Desktop/liteos/Project2/BearPi_LiteOS/targets/STM32L431_BearPi/Drivers/STM32L4xx_HAL_Driver/Src\stm32l4xx_hal_pwr_ex.c **** void HAL_PWREx_EnablePVM3(void)
 845:C:/Users/lenovo/Desktop/liteos/Project2/BearPi_LiteOS/targets/STM32L431_BearPi/Drivers/STM32L4xx_HAL_Driver/Src\stm32l4xx_hal_pwr_ex.c **** {
 951              		.loc 1 845 0
 952              		.cfi_startproc
 953              		@ args = 0, pretend = 0, frame = 0
 954              		@ frame_needed = 0, uses_anonymous_args = 0
 955              		@ link register save eliminated.
 846:C:/Users/lenovo/Desktop/liteos/Project2/BearPi_LiteOS/targets/STM32L431_BearPi/Drivers/STM32L4xx_HAL_Driver/Src\stm32l4xx_hal_pwr_ex.c ****   SET_BIT(PWR->CR2, PWR_PVM_3);    
 956              		.loc 1 846 0
 957 0000 024A     		ldr	r2, .L90
 958 0002 5368     		ldr	r3, [r2, #4]
 959 0004 43F04003 		orr	r3, r3, #64
 960 0008 5360     		str	r3, [r2, #4]
 847:C:/Users/lenovo/Desktop/liteos/Project2/BearPi_LiteOS/targets/STM32L431_BearPi/Drivers/STM32L4xx_HAL_Driver/Src\stm32l4xx_hal_pwr_ex.c **** }
 961              		.loc 1 847 0
 962 000a 7047     		bx	lr
 963              	.L91:
 964              		.align	2
 965              	.L90:
 966 000c 00700040 		.word	1073770496
 967              		.cfi_endproc
 968              	.LFE147:
 970              		.section	.text.HAL_PWREx_DisablePVM3,"ax",%progbits
 971              		.align	1
 972              		.global	HAL_PWREx_DisablePVM3
 973              		.syntax unified
 974              		.thumb
 975              		.thumb_func
 976              		.fpu fpv4-sp-d16
 978              	HAL_PWREx_DisablePVM3:
 979              	.LFB148:
 848:C:/Users/lenovo/Desktop/liteos/Project2/BearPi_LiteOS/targets/STM32L431_BearPi/Drivers/STM32L4xx_HAL_Driver/Src\stm32l4xx_hal_pwr_ex.c **** 
 849:C:/Users/lenovo/Desktop/liteos/Project2/BearPi_LiteOS/targets/STM32L431_BearPi/Drivers/STM32L4xx_HAL_Driver/Src\stm32l4xx_hal_pwr_ex.c **** /**
 850:C:/Users/lenovo/Desktop/liteos/Project2/BearPi_LiteOS/targets/STM32L431_BearPi/Drivers/STM32L4xx_HAL_Driver/Src\stm32l4xx_hal_pwr_ex.c ****   * @brief Disable the Power Voltage Monitoring 3: VDDA versus 1.62V.
 851:C:/Users/lenovo/Desktop/liteos/Project2/BearPi_LiteOS/targets/STM32L431_BearPi/Drivers/STM32L4xx_HAL_Driver/Src\stm32l4xx_hal_pwr_ex.c ****   * @retval None
 852:C:/Users/lenovo/Desktop/liteos/Project2/BearPi_LiteOS/targets/STM32L431_BearPi/Drivers/STM32L4xx_HAL_Driver/Src\stm32l4xx_hal_pwr_ex.c ****   */
 853:C:/Users/lenovo/Desktop/liteos/Project2/BearPi_LiteOS/targets/STM32L431_BearPi/Drivers/STM32L4xx_HAL_Driver/Src\stm32l4xx_hal_pwr_ex.c **** void HAL_PWREx_DisablePVM3(void)
 854:C:/Users/lenovo/Desktop/liteos/Project2/BearPi_LiteOS/targets/STM32L431_BearPi/Drivers/STM32L4xx_HAL_Driver/Src\stm32l4xx_hal_pwr_ex.c **** {
 980              		.loc 1 854 0
 981              		.cfi_startproc
 982              		@ args = 0, pretend = 0, frame = 0
 983              		@ frame_needed = 0, uses_anonymous_args = 0
 984              		@ link register save eliminated.
 855:C:/Users/lenovo/Desktop/liteos/Project2/BearPi_LiteOS/targets/STM32L431_BearPi/Drivers/STM32L4xx_HAL_Driver/Src\stm32l4xx_hal_pwr_ex.c ****   CLEAR_BIT(PWR->CR2, PWR_PVM_3);    
 985              		.loc 1 855 0
 986 0000 024A     		ldr	r2, .L93
 987 0002 5368     		ldr	r3, [r2, #4]
 988 0004 23F04003 		bic	r3, r3, #64
 989 0008 5360     		str	r3, [r2, #4]
 856:C:/Users/lenovo/Desktop/liteos/Project2/BearPi_LiteOS/targets/STM32L431_BearPi/Drivers/STM32L4xx_HAL_Driver/Src\stm32l4xx_hal_pwr_ex.c **** }
ARM GAS  c:\Users\lenovo\AppData\Local\Temp\ccy7mvmD.s 			page 34


 990              		.loc 1 856 0
 991 000a 7047     		bx	lr
 992              	.L94:
 993              		.align	2
 994              	.L93:
 995 000c 00700040 		.word	1073770496
 996              		.cfi_endproc
 997              	.LFE148:
 999              		.section	.text.HAL_PWREx_EnablePVM4,"ax",%progbits
 1000              		.align	1
 1001              		.global	HAL_PWREx_EnablePVM4
 1002              		.syntax unified
 1003              		.thumb
 1004              		.thumb_func
 1005              		.fpu fpv4-sp-d16
 1007              	HAL_PWREx_EnablePVM4:
 1008              	.LFB149:
 857:C:/Users/lenovo/Desktop/liteos/Project2/BearPi_LiteOS/targets/STM32L431_BearPi/Drivers/STM32L4xx_HAL_Driver/Src\stm32l4xx_hal_pwr_ex.c **** 
 858:C:/Users/lenovo/Desktop/liteos/Project2/BearPi_LiteOS/targets/STM32L431_BearPi/Drivers/STM32L4xx_HAL_Driver/Src\stm32l4xx_hal_pwr_ex.c **** 
 859:C:/Users/lenovo/Desktop/liteos/Project2/BearPi_LiteOS/targets/STM32L431_BearPi/Drivers/STM32L4xx_HAL_Driver/Src\stm32l4xx_hal_pwr_ex.c **** /**
 860:C:/Users/lenovo/Desktop/liteos/Project2/BearPi_LiteOS/targets/STM32L431_BearPi/Drivers/STM32L4xx_HAL_Driver/Src\stm32l4xx_hal_pwr_ex.c ****   * @brief Enable the Power Voltage Monitoring 4:  VDDA versus 2.2V.
 861:C:/Users/lenovo/Desktop/liteos/Project2/BearPi_LiteOS/targets/STM32L431_BearPi/Drivers/STM32L4xx_HAL_Driver/Src\stm32l4xx_hal_pwr_ex.c ****   * @retval None
 862:C:/Users/lenovo/Desktop/liteos/Project2/BearPi_LiteOS/targets/STM32L431_BearPi/Drivers/STM32L4xx_HAL_Driver/Src\stm32l4xx_hal_pwr_ex.c ****   */
 863:C:/Users/lenovo/Desktop/liteos/Project2/BearPi_LiteOS/targets/STM32L431_BearPi/Drivers/STM32L4xx_HAL_Driver/Src\stm32l4xx_hal_pwr_ex.c **** void HAL_PWREx_EnablePVM4(void)
 864:C:/Users/lenovo/Desktop/liteos/Project2/BearPi_LiteOS/targets/STM32L431_BearPi/Drivers/STM32L4xx_HAL_Driver/Src\stm32l4xx_hal_pwr_ex.c **** {
 1009              		.loc 1 864 0
 1010              		.cfi_startproc
 1011              		@ args = 0, pretend = 0, frame = 0
 1012              		@ frame_needed = 0, uses_anonymous_args = 0
 1013              		@ link register save eliminated.
 865:C:/Users/lenovo/Desktop/liteos/Project2/BearPi_LiteOS/targets/STM32L431_BearPi/Drivers/STM32L4xx_HAL_Driver/Src\stm32l4xx_hal_pwr_ex.c ****   SET_BIT(PWR->CR2, PWR_PVM_4);    
 1014              		.loc 1 865 0
 1015 0000 024A     		ldr	r2, .L96
 1016 0002 5368     		ldr	r3, [r2, #4]
 1017 0004 43F08003 		orr	r3, r3, #128
 1018 0008 5360     		str	r3, [r2, #4]
 866:C:/Users/lenovo/Desktop/liteos/Project2/BearPi_LiteOS/targets/STM32L431_BearPi/Drivers/STM32L4xx_HAL_Driver/Src\stm32l4xx_hal_pwr_ex.c **** }
 1019              		.loc 1 866 0
 1020 000a 7047     		bx	lr
 1021              	.L97:
 1022              		.align	2
 1023              	.L96:
 1024 000c 00700040 		.word	1073770496
 1025              		.cfi_endproc
 1026              	.LFE149:
 1028              		.section	.text.HAL_PWREx_DisablePVM4,"ax",%progbits
 1029              		.align	1
 1030              		.global	HAL_PWREx_DisablePVM4
 1031              		.syntax unified
 1032              		.thumb
 1033              		.thumb_func
 1034              		.fpu fpv4-sp-d16
 1036              	HAL_PWREx_DisablePVM4:
 1037              	.LFB150:
 867:C:/Users/lenovo/Desktop/liteos/Project2/BearPi_LiteOS/targets/STM32L431_BearPi/Drivers/STM32L4xx_HAL_Driver/Src\stm32l4xx_hal_pwr_ex.c **** 
 868:C:/Users/lenovo/Desktop/liteos/Project2/BearPi_LiteOS/targets/STM32L431_BearPi/Drivers/STM32L4xx_HAL_Driver/Src\stm32l4xx_hal_pwr_ex.c **** /**
 869:C:/Users/lenovo/Desktop/liteos/Project2/BearPi_LiteOS/targets/STM32L431_BearPi/Drivers/STM32L4xx_HAL_Driver/Src\stm32l4xx_hal_pwr_ex.c ****   * @brief Disable the Power Voltage Monitoring 4:  VDDA versus 2.2V.
ARM GAS  c:\Users\lenovo\AppData\Local\Temp\ccy7mvmD.s 			page 35


 870:C:/Users/lenovo/Desktop/liteos/Project2/BearPi_LiteOS/targets/STM32L431_BearPi/Drivers/STM32L4xx_HAL_Driver/Src\stm32l4xx_hal_pwr_ex.c ****   * @retval None
 871:C:/Users/lenovo/Desktop/liteos/Project2/BearPi_LiteOS/targets/STM32L431_BearPi/Drivers/STM32L4xx_HAL_Driver/Src\stm32l4xx_hal_pwr_ex.c ****   */
 872:C:/Users/lenovo/Desktop/liteos/Project2/BearPi_LiteOS/targets/STM32L431_BearPi/Drivers/STM32L4xx_HAL_Driver/Src\stm32l4xx_hal_pwr_ex.c **** void HAL_PWREx_DisablePVM4(void)
 873:C:/Users/lenovo/Desktop/liteos/Project2/BearPi_LiteOS/targets/STM32L431_BearPi/Drivers/STM32L4xx_HAL_Driver/Src\stm32l4xx_hal_pwr_ex.c **** {
 1038              		.loc 1 873 0
 1039              		.cfi_startproc
 1040              		@ args = 0, pretend = 0, frame = 0
 1041              		@ frame_needed = 0, uses_anonymous_args = 0
 1042              		@ link register save eliminated.
 874:C:/Users/lenovo/Desktop/liteos/Project2/BearPi_LiteOS/targets/STM32L431_BearPi/Drivers/STM32L4xx_HAL_Driver/Src\stm32l4xx_hal_pwr_ex.c ****   CLEAR_BIT(PWR->CR2, PWR_PVM_4);    
 1043              		.loc 1 874 0
 1044 0000 024A     		ldr	r2, .L99
 1045 0002 5368     		ldr	r3, [r2, #4]
 1046 0004 23F08003 		bic	r3, r3, #128
 1047 0008 5360     		str	r3, [r2, #4]
 875:C:/Users/lenovo/Desktop/liteos/Project2/BearPi_LiteOS/targets/STM32L431_BearPi/Drivers/STM32L4xx_HAL_Driver/Src\stm32l4xx_hal_pwr_ex.c **** }
 1048              		.loc 1 875 0
 1049 000a 7047     		bx	lr
 1050              	.L100:
 1051              		.align	2
 1052              	.L99:
 1053 000c 00700040 		.word	1073770496
 1054              		.cfi_endproc
 1055              	.LFE150:
 1057              		.section	.text.HAL_PWREx_ConfigPVM,"ax",%progbits
 1058              		.align	1
 1059              		.global	HAL_PWREx_ConfigPVM
 1060              		.syntax unified
 1061              		.thumb
 1062              		.thumb_func
 1063              		.fpu fpv4-sp-d16
 1065              	HAL_PWREx_ConfigPVM:
 1066              	.LFB151:
 876:C:/Users/lenovo/Desktop/liteos/Project2/BearPi_LiteOS/targets/STM32L431_BearPi/Drivers/STM32L4xx_HAL_Driver/Src\stm32l4xx_hal_pwr_ex.c **** 
 877:C:/Users/lenovo/Desktop/liteos/Project2/BearPi_LiteOS/targets/STM32L431_BearPi/Drivers/STM32L4xx_HAL_Driver/Src\stm32l4xx_hal_pwr_ex.c **** 
 878:C:/Users/lenovo/Desktop/liteos/Project2/BearPi_LiteOS/targets/STM32L431_BearPi/Drivers/STM32L4xx_HAL_Driver/Src\stm32l4xx_hal_pwr_ex.c **** 
 879:C:/Users/lenovo/Desktop/liteos/Project2/BearPi_LiteOS/targets/STM32L431_BearPi/Drivers/STM32L4xx_HAL_Driver/Src\stm32l4xx_hal_pwr_ex.c **** 
 880:C:/Users/lenovo/Desktop/liteos/Project2/BearPi_LiteOS/targets/STM32L431_BearPi/Drivers/STM32L4xx_HAL_Driver/Src\stm32l4xx_hal_pwr_ex.c **** /**
 881:C:/Users/lenovo/Desktop/liteos/Project2/BearPi_LiteOS/targets/STM32L431_BearPi/Drivers/STM32L4xx_HAL_Driver/Src\stm32l4xx_hal_pwr_ex.c ****   * @brief Configure the Peripheral Voltage Monitoring (PVM).
 882:C:/Users/lenovo/Desktop/liteos/Project2/BearPi_LiteOS/targets/STM32L431_BearPi/Drivers/STM32L4xx_HAL_Driver/Src\stm32l4xx_hal_pwr_ex.c ****   * @param sConfigPVM: pointer to a PWR_PVMTypeDef structure that contains the
 883:C:/Users/lenovo/Desktop/liteos/Project2/BearPi_LiteOS/targets/STM32L431_BearPi/Drivers/STM32L4xx_HAL_Driver/Src\stm32l4xx_hal_pwr_ex.c ****   *        PVM configuration information.
 884:C:/Users/lenovo/Desktop/liteos/Project2/BearPi_LiteOS/targets/STM32L431_BearPi/Drivers/STM32L4xx_HAL_Driver/Src\stm32l4xx_hal_pwr_ex.c ****   * @note The API configures a single PVM according to the information contained 
 885:C:/Users/lenovo/Desktop/liteos/Project2/BearPi_LiteOS/targets/STM32L431_BearPi/Drivers/STM32L4xx_HAL_Driver/Src\stm32l4xx_hal_pwr_ex.c ****   *       in the input structure. To configure several PVMs, the API must be singly 
 886:C:/Users/lenovo/Desktop/liteos/Project2/BearPi_LiteOS/targets/STM32L431_BearPi/Drivers/STM32L4xx_HAL_Driver/Src\stm32l4xx_hal_pwr_ex.c ****   *       called for each PVM used.
 887:C:/Users/lenovo/Desktop/liteos/Project2/BearPi_LiteOS/targets/STM32L431_BearPi/Drivers/STM32L4xx_HAL_Driver/Src\stm32l4xx_hal_pwr_ex.c ****   * @note Refer to the electrical characteristics of your device datasheet for
 888:C:/Users/lenovo/Desktop/liteos/Project2/BearPi_LiteOS/targets/STM32L431_BearPi/Drivers/STM32L4xx_HAL_Driver/Src\stm32l4xx_hal_pwr_ex.c ****   *         more details about the voltage thresholds corresponding to each
 889:C:/Users/lenovo/Desktop/liteos/Project2/BearPi_LiteOS/targets/STM32L431_BearPi/Drivers/STM32L4xx_HAL_Driver/Src\stm32l4xx_hal_pwr_ex.c ****   *         detection level and to each monitored supply.
 890:C:/Users/lenovo/Desktop/liteos/Project2/BearPi_LiteOS/targets/STM32L431_BearPi/Drivers/STM32L4xx_HAL_Driver/Src\stm32l4xx_hal_pwr_ex.c ****   * @retval HAL status
 891:C:/Users/lenovo/Desktop/liteos/Project2/BearPi_LiteOS/targets/STM32L431_BearPi/Drivers/STM32L4xx_HAL_Driver/Src\stm32l4xx_hal_pwr_ex.c ****   */
 892:C:/Users/lenovo/Desktop/liteos/Project2/BearPi_LiteOS/targets/STM32L431_BearPi/Drivers/STM32L4xx_HAL_Driver/Src\stm32l4xx_hal_pwr_ex.c **** HAL_StatusTypeDef HAL_PWREx_ConfigPVM(PWR_PVMTypeDef *sConfigPVM)
 893:C:/Users/lenovo/Desktop/liteos/Project2/BearPi_LiteOS/targets/STM32L431_BearPi/Drivers/STM32L4xx_HAL_Driver/Src\stm32l4xx_hal_pwr_ex.c **** {  
 1067              		.loc 1 893 0
 1068              		.cfi_startproc
 1069              		@ args = 0, pretend = 0, frame = 0
 1070              		@ frame_needed = 0, uses_anonymous_args = 0
 1071              		@ link register save eliminated.
 1072              	.LVL95:
ARM GAS  c:\Users\lenovo\AppData\Local\Temp\ccy7mvmD.s 			page 36


 894:C:/Users/lenovo/Desktop/liteos/Project2/BearPi_LiteOS/targets/STM32L431_BearPi/Drivers/STM32L4xx_HAL_Driver/Src\stm32l4xx_hal_pwr_ex.c ****   /* Check the parameters */
 895:C:/Users/lenovo/Desktop/liteos/Project2/BearPi_LiteOS/targets/STM32L431_BearPi/Drivers/STM32L4xx_HAL_Driver/Src\stm32l4xx_hal_pwr_ex.c ****   assert_param(IS_PWR_PVM_TYPE(sConfigPVM->PVMType));
 896:C:/Users/lenovo/Desktop/liteos/Project2/BearPi_LiteOS/targets/STM32L431_BearPi/Drivers/STM32L4xx_HAL_Driver/Src\stm32l4xx_hal_pwr_ex.c ****   assert_param(IS_PWR_PVM_MODE(sConfigPVM->Mode));
 897:C:/Users/lenovo/Desktop/liteos/Project2/BearPi_LiteOS/targets/STM32L431_BearPi/Drivers/STM32L4xx_HAL_Driver/Src\stm32l4xx_hal_pwr_ex.c **** 
 898:C:/Users/lenovo/Desktop/liteos/Project2/BearPi_LiteOS/targets/STM32L431_BearPi/Drivers/STM32L4xx_HAL_Driver/Src\stm32l4xx_hal_pwr_ex.c **** 
 899:C:/Users/lenovo/Desktop/liteos/Project2/BearPi_LiteOS/targets/STM32L431_BearPi/Drivers/STM32L4xx_HAL_Driver/Src\stm32l4xx_hal_pwr_ex.c ****   /* Configure EXTI 35 to 38 interrupts if so required:
 900:C:/Users/lenovo/Desktop/liteos/Project2/BearPi_LiteOS/targets/STM32L431_BearPi/Drivers/STM32L4xx_HAL_Driver/Src\stm32l4xx_hal_pwr_ex.c ****      scan thru PVMType to detect which PVMx is set and
 901:C:/Users/lenovo/Desktop/liteos/Project2/BearPi_LiteOS/targets/STM32L431_BearPi/Drivers/STM32L4xx_HAL_Driver/Src\stm32l4xx_hal_pwr_ex.c ****      configure the corresponding EXTI line accordingly. */
 902:C:/Users/lenovo/Desktop/liteos/Project2/BearPi_LiteOS/targets/STM32L431_BearPi/Drivers/STM32L4xx_HAL_Driver/Src\stm32l4xx_hal_pwr_ex.c ****   switch (sConfigPVM->PVMType)
 1073              		.loc 1 902 0
 1074 0000 0368     		ldr	r3, [r0]
 1075 0002 402B     		cmp	r3, #64
 1076 0004 03D0     		beq	.L103
 1077 0006 802B     		cmp	r3, #128
 1078 0008 38D0     		beq	.L104
 903:C:/Users/lenovo/Desktop/liteos/Project2/BearPi_LiteOS/targets/STM32L431_BearPi/Drivers/STM32L4xx_HAL_Driver/Src\stm32l4xx_hal_pwr_ex.c ****   {
 904:C:/Users/lenovo/Desktop/liteos/Project2/BearPi_LiteOS/targets/STM32L431_BearPi/Drivers/STM32L4xx_HAL_Driver/Src\stm32l4xx_hal_pwr_ex.c **** #if defined(PWR_CR2_PVME1)  
 905:C:/Users/lenovo/Desktop/liteos/Project2/BearPi_LiteOS/targets/STM32L431_BearPi/Drivers/STM32L4xx_HAL_Driver/Src\stm32l4xx_hal_pwr_ex.c ****     case PWR_PVM_1:
 906:C:/Users/lenovo/Desktop/liteos/Project2/BearPi_LiteOS/targets/STM32L431_BearPi/Drivers/STM32L4xx_HAL_Driver/Src\stm32l4xx_hal_pwr_ex.c ****       /* Clear any previous config. Keep it clear if no event or IT mode is selected */
 907:C:/Users/lenovo/Desktop/liteos/Project2/BearPi_LiteOS/targets/STM32L431_BearPi/Drivers/STM32L4xx_HAL_Driver/Src\stm32l4xx_hal_pwr_ex.c ****       __HAL_PWR_PVM1_EXTI_DISABLE_EVENT();
 908:C:/Users/lenovo/Desktop/liteos/Project2/BearPi_LiteOS/targets/STM32L431_BearPi/Drivers/STM32L4xx_HAL_Driver/Src\stm32l4xx_hal_pwr_ex.c ****       __HAL_PWR_PVM1_EXTI_DISABLE_IT();
 909:C:/Users/lenovo/Desktop/liteos/Project2/BearPi_LiteOS/targets/STM32L431_BearPi/Drivers/STM32L4xx_HAL_Driver/Src\stm32l4xx_hal_pwr_ex.c ****       __HAL_PWR_PVM1_EXTI_DISABLE_FALLING_EDGE(); 
 910:C:/Users/lenovo/Desktop/liteos/Project2/BearPi_LiteOS/targets/STM32L431_BearPi/Drivers/STM32L4xx_HAL_Driver/Src\stm32l4xx_hal_pwr_ex.c ****       __HAL_PWR_PVM1_EXTI_DISABLE_RISING_EDGE();
 911:C:/Users/lenovo/Desktop/liteos/Project2/BearPi_LiteOS/targets/STM32L431_BearPi/Drivers/STM32L4xx_HAL_Driver/Src\stm32l4xx_hal_pwr_ex.c **** 
 912:C:/Users/lenovo/Desktop/liteos/Project2/BearPi_LiteOS/targets/STM32L431_BearPi/Drivers/STM32L4xx_HAL_Driver/Src\stm32l4xx_hal_pwr_ex.c ****       /* Configure interrupt mode */
 913:C:/Users/lenovo/Desktop/liteos/Project2/BearPi_LiteOS/targets/STM32L431_BearPi/Drivers/STM32L4xx_HAL_Driver/Src\stm32l4xx_hal_pwr_ex.c ****       if((sConfigPVM->Mode & PVM_MODE_IT) == PVM_MODE_IT)
 914:C:/Users/lenovo/Desktop/liteos/Project2/BearPi_LiteOS/targets/STM32L431_BearPi/Drivers/STM32L4xx_HAL_Driver/Src\stm32l4xx_hal_pwr_ex.c ****       {
 915:C:/Users/lenovo/Desktop/liteos/Project2/BearPi_LiteOS/targets/STM32L431_BearPi/Drivers/STM32L4xx_HAL_Driver/Src\stm32l4xx_hal_pwr_ex.c ****         __HAL_PWR_PVM1_EXTI_ENABLE_IT();
 916:C:/Users/lenovo/Desktop/liteos/Project2/BearPi_LiteOS/targets/STM32L431_BearPi/Drivers/STM32L4xx_HAL_Driver/Src\stm32l4xx_hal_pwr_ex.c ****       }
 917:C:/Users/lenovo/Desktop/liteos/Project2/BearPi_LiteOS/targets/STM32L431_BearPi/Drivers/STM32L4xx_HAL_Driver/Src\stm32l4xx_hal_pwr_ex.c ****   
 918:C:/Users/lenovo/Desktop/liteos/Project2/BearPi_LiteOS/targets/STM32L431_BearPi/Drivers/STM32L4xx_HAL_Driver/Src\stm32l4xx_hal_pwr_ex.c ****       /* Configure event mode */
 919:C:/Users/lenovo/Desktop/liteos/Project2/BearPi_LiteOS/targets/STM32L431_BearPi/Drivers/STM32L4xx_HAL_Driver/Src\stm32l4xx_hal_pwr_ex.c ****       if((sConfigPVM->Mode & PVM_MODE_EVT) == PVM_MODE_EVT)
 920:C:/Users/lenovo/Desktop/liteos/Project2/BearPi_LiteOS/targets/STM32L431_BearPi/Drivers/STM32L4xx_HAL_Driver/Src\stm32l4xx_hal_pwr_ex.c ****       {
 921:C:/Users/lenovo/Desktop/liteos/Project2/BearPi_LiteOS/targets/STM32L431_BearPi/Drivers/STM32L4xx_HAL_Driver/Src\stm32l4xx_hal_pwr_ex.c ****         __HAL_PWR_PVM1_EXTI_ENABLE_EVENT();
 922:C:/Users/lenovo/Desktop/liteos/Project2/BearPi_LiteOS/targets/STM32L431_BearPi/Drivers/STM32L4xx_HAL_Driver/Src\stm32l4xx_hal_pwr_ex.c ****       }
 923:C:/Users/lenovo/Desktop/liteos/Project2/BearPi_LiteOS/targets/STM32L431_BearPi/Drivers/STM32L4xx_HAL_Driver/Src\stm32l4xx_hal_pwr_ex.c ****   
 924:C:/Users/lenovo/Desktop/liteos/Project2/BearPi_LiteOS/targets/STM32L431_BearPi/Drivers/STM32L4xx_HAL_Driver/Src\stm32l4xx_hal_pwr_ex.c ****       /* Configure the edge */
 925:C:/Users/lenovo/Desktop/liteos/Project2/BearPi_LiteOS/targets/STM32L431_BearPi/Drivers/STM32L4xx_HAL_Driver/Src\stm32l4xx_hal_pwr_ex.c ****       if((sConfigPVM->Mode & PVM_RISING_EDGE) == PVM_RISING_EDGE)
 926:C:/Users/lenovo/Desktop/liteos/Project2/BearPi_LiteOS/targets/STM32L431_BearPi/Drivers/STM32L4xx_HAL_Driver/Src\stm32l4xx_hal_pwr_ex.c ****       {
 927:C:/Users/lenovo/Desktop/liteos/Project2/BearPi_LiteOS/targets/STM32L431_BearPi/Drivers/STM32L4xx_HAL_Driver/Src\stm32l4xx_hal_pwr_ex.c ****         __HAL_PWR_PVM1_EXTI_ENABLE_RISING_EDGE();
 928:C:/Users/lenovo/Desktop/liteos/Project2/BearPi_LiteOS/targets/STM32L431_BearPi/Drivers/STM32L4xx_HAL_Driver/Src\stm32l4xx_hal_pwr_ex.c ****       }
 929:C:/Users/lenovo/Desktop/liteos/Project2/BearPi_LiteOS/targets/STM32L431_BearPi/Drivers/STM32L4xx_HAL_Driver/Src\stm32l4xx_hal_pwr_ex.c ****   
 930:C:/Users/lenovo/Desktop/liteos/Project2/BearPi_LiteOS/targets/STM32L431_BearPi/Drivers/STM32L4xx_HAL_Driver/Src\stm32l4xx_hal_pwr_ex.c ****       if((sConfigPVM->Mode & PVM_FALLING_EDGE) == PVM_FALLING_EDGE)
 931:C:/Users/lenovo/Desktop/liteos/Project2/BearPi_LiteOS/targets/STM32L431_BearPi/Drivers/STM32L4xx_HAL_Driver/Src\stm32l4xx_hal_pwr_ex.c ****       {
 932:C:/Users/lenovo/Desktop/liteos/Project2/BearPi_LiteOS/targets/STM32L431_BearPi/Drivers/STM32L4xx_HAL_Driver/Src\stm32l4xx_hal_pwr_ex.c ****         __HAL_PWR_PVM1_EXTI_ENABLE_FALLING_EDGE();
 933:C:/Users/lenovo/Desktop/liteos/Project2/BearPi_LiteOS/targets/STM32L431_BearPi/Drivers/STM32L4xx_HAL_Driver/Src\stm32l4xx_hal_pwr_ex.c ****       }
 934:C:/Users/lenovo/Desktop/liteos/Project2/BearPi_LiteOS/targets/STM32L431_BearPi/Drivers/STM32L4xx_HAL_Driver/Src\stm32l4xx_hal_pwr_ex.c ****       break; 
 935:C:/Users/lenovo/Desktop/liteos/Project2/BearPi_LiteOS/targets/STM32L431_BearPi/Drivers/STM32L4xx_HAL_Driver/Src\stm32l4xx_hal_pwr_ex.c **** #endif /* PWR_CR2_PVME1 */        
 936:C:/Users/lenovo/Desktop/liteos/Project2/BearPi_LiteOS/targets/STM32L431_BearPi/Drivers/STM32L4xx_HAL_Driver/Src\stm32l4xx_hal_pwr_ex.c ****     
 937:C:/Users/lenovo/Desktop/liteos/Project2/BearPi_LiteOS/targets/STM32L431_BearPi/Drivers/STM32L4xx_HAL_Driver/Src\stm32l4xx_hal_pwr_ex.c **** #if defined(PWR_CR2_PVME2)    
 938:C:/Users/lenovo/Desktop/liteos/Project2/BearPi_LiteOS/targets/STM32L431_BearPi/Drivers/STM32L4xx_HAL_Driver/Src\stm32l4xx_hal_pwr_ex.c ****     case PWR_PVM_2:
 939:C:/Users/lenovo/Desktop/liteos/Project2/BearPi_LiteOS/targets/STM32L431_BearPi/Drivers/STM32L4xx_HAL_Driver/Src\stm32l4xx_hal_pwr_ex.c ****       /* Clear any previous config. Keep it clear if no event or IT mode is selected */
 940:C:/Users/lenovo/Desktop/liteos/Project2/BearPi_LiteOS/targets/STM32L431_BearPi/Drivers/STM32L4xx_HAL_Driver/Src\stm32l4xx_hal_pwr_ex.c ****       __HAL_PWR_PVM2_EXTI_DISABLE_EVENT();
 941:C:/Users/lenovo/Desktop/liteos/Project2/BearPi_LiteOS/targets/STM32L431_BearPi/Drivers/STM32L4xx_HAL_Driver/Src\stm32l4xx_hal_pwr_ex.c ****       __HAL_PWR_PVM2_EXTI_DISABLE_IT();
 942:C:/Users/lenovo/Desktop/liteos/Project2/BearPi_LiteOS/targets/STM32L431_BearPi/Drivers/STM32L4xx_HAL_Driver/Src\stm32l4xx_hal_pwr_ex.c ****       __HAL_PWR_PVM2_EXTI_DISABLE_FALLING_EDGE(); 
 943:C:/Users/lenovo/Desktop/liteos/Project2/BearPi_LiteOS/targets/STM32L431_BearPi/Drivers/STM32L4xx_HAL_Driver/Src\stm32l4xx_hal_pwr_ex.c ****       __HAL_PWR_PVM2_EXTI_DISABLE_RISING_EDGE();
 944:C:/Users/lenovo/Desktop/liteos/Project2/BearPi_LiteOS/targets/STM32L431_BearPi/Drivers/STM32L4xx_HAL_Driver/Src\stm32l4xx_hal_pwr_ex.c **** 
ARM GAS  c:\Users\lenovo\AppData\Local\Temp\ccy7mvmD.s 			page 37


 945:C:/Users/lenovo/Desktop/liteos/Project2/BearPi_LiteOS/targets/STM32L431_BearPi/Drivers/STM32L4xx_HAL_Driver/Src\stm32l4xx_hal_pwr_ex.c ****       /* Configure interrupt mode */
 946:C:/Users/lenovo/Desktop/liteos/Project2/BearPi_LiteOS/targets/STM32L431_BearPi/Drivers/STM32L4xx_HAL_Driver/Src\stm32l4xx_hal_pwr_ex.c ****       if((sConfigPVM->Mode & PVM_MODE_IT) == PVM_MODE_IT)
 947:C:/Users/lenovo/Desktop/liteos/Project2/BearPi_LiteOS/targets/STM32L431_BearPi/Drivers/STM32L4xx_HAL_Driver/Src\stm32l4xx_hal_pwr_ex.c ****       {
 948:C:/Users/lenovo/Desktop/liteos/Project2/BearPi_LiteOS/targets/STM32L431_BearPi/Drivers/STM32L4xx_HAL_Driver/Src\stm32l4xx_hal_pwr_ex.c ****         __HAL_PWR_PVM2_EXTI_ENABLE_IT();
 949:C:/Users/lenovo/Desktop/liteos/Project2/BearPi_LiteOS/targets/STM32L431_BearPi/Drivers/STM32L4xx_HAL_Driver/Src\stm32l4xx_hal_pwr_ex.c ****       }
 950:C:/Users/lenovo/Desktop/liteos/Project2/BearPi_LiteOS/targets/STM32L431_BearPi/Drivers/STM32L4xx_HAL_Driver/Src\stm32l4xx_hal_pwr_ex.c ****   
 951:C:/Users/lenovo/Desktop/liteos/Project2/BearPi_LiteOS/targets/STM32L431_BearPi/Drivers/STM32L4xx_HAL_Driver/Src\stm32l4xx_hal_pwr_ex.c ****       /* Configure event mode */
 952:C:/Users/lenovo/Desktop/liteos/Project2/BearPi_LiteOS/targets/STM32L431_BearPi/Drivers/STM32L4xx_HAL_Driver/Src\stm32l4xx_hal_pwr_ex.c ****       if((sConfigPVM->Mode & PVM_MODE_EVT) == PVM_MODE_EVT)
 953:C:/Users/lenovo/Desktop/liteos/Project2/BearPi_LiteOS/targets/STM32L431_BearPi/Drivers/STM32L4xx_HAL_Driver/Src\stm32l4xx_hal_pwr_ex.c ****       {
 954:C:/Users/lenovo/Desktop/liteos/Project2/BearPi_LiteOS/targets/STM32L431_BearPi/Drivers/STM32L4xx_HAL_Driver/Src\stm32l4xx_hal_pwr_ex.c ****         __HAL_PWR_PVM2_EXTI_ENABLE_EVENT();
 955:C:/Users/lenovo/Desktop/liteos/Project2/BearPi_LiteOS/targets/STM32L431_BearPi/Drivers/STM32L4xx_HAL_Driver/Src\stm32l4xx_hal_pwr_ex.c ****       }
 956:C:/Users/lenovo/Desktop/liteos/Project2/BearPi_LiteOS/targets/STM32L431_BearPi/Drivers/STM32L4xx_HAL_Driver/Src\stm32l4xx_hal_pwr_ex.c ****   
 957:C:/Users/lenovo/Desktop/liteos/Project2/BearPi_LiteOS/targets/STM32L431_BearPi/Drivers/STM32L4xx_HAL_Driver/Src\stm32l4xx_hal_pwr_ex.c ****       /* Configure the edge */
 958:C:/Users/lenovo/Desktop/liteos/Project2/BearPi_LiteOS/targets/STM32L431_BearPi/Drivers/STM32L4xx_HAL_Driver/Src\stm32l4xx_hal_pwr_ex.c ****       if((sConfigPVM->Mode & PVM_RISING_EDGE) == PVM_RISING_EDGE)
 959:C:/Users/lenovo/Desktop/liteos/Project2/BearPi_LiteOS/targets/STM32L431_BearPi/Drivers/STM32L4xx_HAL_Driver/Src\stm32l4xx_hal_pwr_ex.c ****       {
 960:C:/Users/lenovo/Desktop/liteos/Project2/BearPi_LiteOS/targets/STM32L431_BearPi/Drivers/STM32L4xx_HAL_Driver/Src\stm32l4xx_hal_pwr_ex.c ****         __HAL_PWR_PVM2_EXTI_ENABLE_RISING_EDGE();
 961:C:/Users/lenovo/Desktop/liteos/Project2/BearPi_LiteOS/targets/STM32L431_BearPi/Drivers/STM32L4xx_HAL_Driver/Src\stm32l4xx_hal_pwr_ex.c ****       }
 962:C:/Users/lenovo/Desktop/liteos/Project2/BearPi_LiteOS/targets/STM32L431_BearPi/Drivers/STM32L4xx_HAL_Driver/Src\stm32l4xx_hal_pwr_ex.c ****   
 963:C:/Users/lenovo/Desktop/liteos/Project2/BearPi_LiteOS/targets/STM32L431_BearPi/Drivers/STM32L4xx_HAL_Driver/Src\stm32l4xx_hal_pwr_ex.c ****       if((sConfigPVM->Mode & PVM_FALLING_EDGE) == PVM_FALLING_EDGE)
 964:C:/Users/lenovo/Desktop/liteos/Project2/BearPi_LiteOS/targets/STM32L431_BearPi/Drivers/STM32L4xx_HAL_Driver/Src\stm32l4xx_hal_pwr_ex.c ****       {
 965:C:/Users/lenovo/Desktop/liteos/Project2/BearPi_LiteOS/targets/STM32L431_BearPi/Drivers/STM32L4xx_HAL_Driver/Src\stm32l4xx_hal_pwr_ex.c ****         __HAL_PWR_PVM2_EXTI_ENABLE_FALLING_EDGE();
 966:C:/Users/lenovo/Desktop/liteos/Project2/BearPi_LiteOS/targets/STM32L431_BearPi/Drivers/STM32L4xx_HAL_Driver/Src\stm32l4xx_hal_pwr_ex.c ****       }
 967:C:/Users/lenovo/Desktop/liteos/Project2/BearPi_LiteOS/targets/STM32L431_BearPi/Drivers/STM32L4xx_HAL_Driver/Src\stm32l4xx_hal_pwr_ex.c ****       break;
 968:C:/Users/lenovo/Desktop/liteos/Project2/BearPi_LiteOS/targets/STM32L431_BearPi/Drivers/STM32L4xx_HAL_Driver/Src\stm32l4xx_hal_pwr_ex.c **** #endif /* PWR_CR2_PVME2 */      
 969:C:/Users/lenovo/Desktop/liteos/Project2/BearPi_LiteOS/targets/STM32L431_BearPi/Drivers/STM32L4xx_HAL_Driver/Src\stm32l4xx_hal_pwr_ex.c ****       
 970:C:/Users/lenovo/Desktop/liteos/Project2/BearPi_LiteOS/targets/STM32L431_BearPi/Drivers/STM32L4xx_HAL_Driver/Src\stm32l4xx_hal_pwr_ex.c ****     case PWR_PVM_3:
 971:C:/Users/lenovo/Desktop/liteos/Project2/BearPi_LiteOS/targets/STM32L431_BearPi/Drivers/STM32L4xx_HAL_Driver/Src\stm32l4xx_hal_pwr_ex.c ****       /* Clear any previous config. Keep it clear if no event or IT mode is selected */
 972:C:/Users/lenovo/Desktop/liteos/Project2/BearPi_LiteOS/targets/STM32L431_BearPi/Drivers/STM32L4xx_HAL_Driver/Src\stm32l4xx_hal_pwr_ex.c ****       __HAL_PWR_PVM3_EXTI_DISABLE_EVENT();
 973:C:/Users/lenovo/Desktop/liteos/Project2/BearPi_LiteOS/targets/STM32L431_BearPi/Drivers/STM32L4xx_HAL_Driver/Src\stm32l4xx_hal_pwr_ex.c ****       __HAL_PWR_PVM3_EXTI_DISABLE_IT();
 974:C:/Users/lenovo/Desktop/liteos/Project2/BearPi_LiteOS/targets/STM32L431_BearPi/Drivers/STM32L4xx_HAL_Driver/Src\stm32l4xx_hal_pwr_ex.c ****       __HAL_PWR_PVM3_EXTI_DISABLE_FALLING_EDGE(); 
 975:C:/Users/lenovo/Desktop/liteos/Project2/BearPi_LiteOS/targets/STM32L431_BearPi/Drivers/STM32L4xx_HAL_Driver/Src\stm32l4xx_hal_pwr_ex.c ****       __HAL_PWR_PVM3_EXTI_DISABLE_RISING_EDGE();
 976:C:/Users/lenovo/Desktop/liteos/Project2/BearPi_LiteOS/targets/STM32L431_BearPi/Drivers/STM32L4xx_HAL_Driver/Src\stm32l4xx_hal_pwr_ex.c **** 
 977:C:/Users/lenovo/Desktop/liteos/Project2/BearPi_LiteOS/targets/STM32L431_BearPi/Drivers/STM32L4xx_HAL_Driver/Src\stm32l4xx_hal_pwr_ex.c ****       /* Configure interrupt mode */
 978:C:/Users/lenovo/Desktop/liteos/Project2/BearPi_LiteOS/targets/STM32L431_BearPi/Drivers/STM32L4xx_HAL_Driver/Src\stm32l4xx_hal_pwr_ex.c ****       if((sConfigPVM->Mode & PVM_MODE_IT) == PVM_MODE_IT)
 979:C:/Users/lenovo/Desktop/liteos/Project2/BearPi_LiteOS/targets/STM32L431_BearPi/Drivers/STM32L4xx_HAL_Driver/Src\stm32l4xx_hal_pwr_ex.c ****       {
 980:C:/Users/lenovo/Desktop/liteos/Project2/BearPi_LiteOS/targets/STM32L431_BearPi/Drivers/STM32L4xx_HAL_Driver/Src\stm32l4xx_hal_pwr_ex.c ****         __HAL_PWR_PVM3_EXTI_ENABLE_IT();
 981:C:/Users/lenovo/Desktop/liteos/Project2/BearPi_LiteOS/targets/STM32L431_BearPi/Drivers/STM32L4xx_HAL_Driver/Src\stm32l4xx_hal_pwr_ex.c ****       }
 982:C:/Users/lenovo/Desktop/liteos/Project2/BearPi_LiteOS/targets/STM32L431_BearPi/Drivers/STM32L4xx_HAL_Driver/Src\stm32l4xx_hal_pwr_ex.c ****   
 983:C:/Users/lenovo/Desktop/liteos/Project2/BearPi_LiteOS/targets/STM32L431_BearPi/Drivers/STM32L4xx_HAL_Driver/Src\stm32l4xx_hal_pwr_ex.c ****       /* Configure event mode */
 984:C:/Users/lenovo/Desktop/liteos/Project2/BearPi_LiteOS/targets/STM32L431_BearPi/Drivers/STM32L4xx_HAL_Driver/Src\stm32l4xx_hal_pwr_ex.c ****       if((sConfigPVM->Mode & PVM_MODE_EVT) == PVM_MODE_EVT)
 985:C:/Users/lenovo/Desktop/liteos/Project2/BearPi_LiteOS/targets/STM32L431_BearPi/Drivers/STM32L4xx_HAL_Driver/Src\stm32l4xx_hal_pwr_ex.c ****       {
 986:C:/Users/lenovo/Desktop/liteos/Project2/BearPi_LiteOS/targets/STM32L431_BearPi/Drivers/STM32L4xx_HAL_Driver/Src\stm32l4xx_hal_pwr_ex.c ****         __HAL_PWR_PVM3_EXTI_ENABLE_EVENT();
 987:C:/Users/lenovo/Desktop/liteos/Project2/BearPi_LiteOS/targets/STM32L431_BearPi/Drivers/STM32L4xx_HAL_Driver/Src\stm32l4xx_hal_pwr_ex.c ****       }
 988:C:/Users/lenovo/Desktop/liteos/Project2/BearPi_LiteOS/targets/STM32L431_BearPi/Drivers/STM32L4xx_HAL_Driver/Src\stm32l4xx_hal_pwr_ex.c ****   
 989:C:/Users/lenovo/Desktop/liteos/Project2/BearPi_LiteOS/targets/STM32L431_BearPi/Drivers/STM32L4xx_HAL_Driver/Src\stm32l4xx_hal_pwr_ex.c ****       /* Configure the edge */
 990:C:/Users/lenovo/Desktop/liteos/Project2/BearPi_LiteOS/targets/STM32L431_BearPi/Drivers/STM32L4xx_HAL_Driver/Src\stm32l4xx_hal_pwr_ex.c ****       if((sConfigPVM->Mode & PVM_RISING_EDGE) == PVM_RISING_EDGE)
 991:C:/Users/lenovo/Desktop/liteos/Project2/BearPi_LiteOS/targets/STM32L431_BearPi/Drivers/STM32L4xx_HAL_Driver/Src\stm32l4xx_hal_pwr_ex.c ****       {
 992:C:/Users/lenovo/Desktop/liteos/Project2/BearPi_LiteOS/targets/STM32L431_BearPi/Drivers/STM32L4xx_HAL_Driver/Src\stm32l4xx_hal_pwr_ex.c ****         __HAL_PWR_PVM3_EXTI_ENABLE_RISING_EDGE();
 993:C:/Users/lenovo/Desktop/liteos/Project2/BearPi_LiteOS/targets/STM32L431_BearPi/Drivers/STM32L4xx_HAL_Driver/Src\stm32l4xx_hal_pwr_ex.c ****       }
 994:C:/Users/lenovo/Desktop/liteos/Project2/BearPi_LiteOS/targets/STM32L431_BearPi/Drivers/STM32L4xx_HAL_Driver/Src\stm32l4xx_hal_pwr_ex.c ****   
 995:C:/Users/lenovo/Desktop/liteos/Project2/BearPi_LiteOS/targets/STM32L431_BearPi/Drivers/STM32L4xx_HAL_Driver/Src\stm32l4xx_hal_pwr_ex.c ****       if((sConfigPVM->Mode & PVM_FALLING_EDGE) == PVM_FALLING_EDGE)
 996:C:/Users/lenovo/Desktop/liteos/Project2/BearPi_LiteOS/targets/STM32L431_BearPi/Drivers/STM32L4xx_HAL_Driver/Src\stm32l4xx_hal_pwr_ex.c ****       {
 997:C:/Users/lenovo/Desktop/liteos/Project2/BearPi_LiteOS/targets/STM32L431_BearPi/Drivers/STM32L4xx_HAL_Driver/Src\stm32l4xx_hal_pwr_ex.c ****         __HAL_PWR_PVM3_EXTI_ENABLE_FALLING_EDGE();
 998:C:/Users/lenovo/Desktop/liteos/Project2/BearPi_LiteOS/targets/STM32L431_BearPi/Drivers/STM32L4xx_HAL_Driver/Src\stm32l4xx_hal_pwr_ex.c ****       }
 999:C:/Users/lenovo/Desktop/liteos/Project2/BearPi_LiteOS/targets/STM32L431_BearPi/Drivers/STM32L4xx_HAL_Driver/Src\stm32l4xx_hal_pwr_ex.c ****       break;
1000:C:/Users/lenovo/Desktop/liteos/Project2/BearPi_LiteOS/targets/STM32L431_BearPi/Drivers/STM32L4xx_HAL_Driver/Src\stm32l4xx_hal_pwr_ex.c ****       
1001:C:/Users/lenovo/Desktop/liteos/Project2/BearPi_LiteOS/targets/STM32L431_BearPi/Drivers/STM32L4xx_HAL_Driver/Src\stm32l4xx_hal_pwr_ex.c ****     case PWR_PVM_4:
ARM GAS  c:\Users\lenovo\AppData\Local\Temp\ccy7mvmD.s 			page 38


1002:C:/Users/lenovo/Desktop/liteos/Project2/BearPi_LiteOS/targets/STM32L431_BearPi/Drivers/STM32L4xx_HAL_Driver/Src\stm32l4xx_hal_pwr_ex.c ****       /* Clear any previous config. Keep it clear if no event or IT mode is selected */
1003:C:/Users/lenovo/Desktop/liteos/Project2/BearPi_LiteOS/targets/STM32L431_BearPi/Drivers/STM32L4xx_HAL_Driver/Src\stm32l4xx_hal_pwr_ex.c ****       __HAL_PWR_PVM4_EXTI_DISABLE_EVENT();
1004:C:/Users/lenovo/Desktop/liteos/Project2/BearPi_LiteOS/targets/STM32L431_BearPi/Drivers/STM32L4xx_HAL_Driver/Src\stm32l4xx_hal_pwr_ex.c ****       __HAL_PWR_PVM4_EXTI_DISABLE_IT();
1005:C:/Users/lenovo/Desktop/liteos/Project2/BearPi_LiteOS/targets/STM32L431_BearPi/Drivers/STM32L4xx_HAL_Driver/Src\stm32l4xx_hal_pwr_ex.c ****       __HAL_PWR_PVM4_EXTI_DISABLE_FALLING_EDGE(); 
1006:C:/Users/lenovo/Desktop/liteos/Project2/BearPi_LiteOS/targets/STM32L431_BearPi/Drivers/STM32L4xx_HAL_Driver/Src\stm32l4xx_hal_pwr_ex.c ****       __HAL_PWR_PVM4_EXTI_DISABLE_RISING_EDGE();
1007:C:/Users/lenovo/Desktop/liteos/Project2/BearPi_LiteOS/targets/STM32L431_BearPi/Drivers/STM32L4xx_HAL_Driver/Src\stm32l4xx_hal_pwr_ex.c **** 
1008:C:/Users/lenovo/Desktop/liteos/Project2/BearPi_LiteOS/targets/STM32L431_BearPi/Drivers/STM32L4xx_HAL_Driver/Src\stm32l4xx_hal_pwr_ex.c ****       /* Configure interrupt mode */
1009:C:/Users/lenovo/Desktop/liteos/Project2/BearPi_LiteOS/targets/STM32L431_BearPi/Drivers/STM32L4xx_HAL_Driver/Src\stm32l4xx_hal_pwr_ex.c ****       if((sConfigPVM->Mode & PVM_MODE_IT) == PVM_MODE_IT)
1010:C:/Users/lenovo/Desktop/liteos/Project2/BearPi_LiteOS/targets/STM32L431_BearPi/Drivers/STM32L4xx_HAL_Driver/Src\stm32l4xx_hal_pwr_ex.c ****       {
1011:C:/Users/lenovo/Desktop/liteos/Project2/BearPi_LiteOS/targets/STM32L431_BearPi/Drivers/STM32L4xx_HAL_Driver/Src\stm32l4xx_hal_pwr_ex.c ****         __HAL_PWR_PVM4_EXTI_ENABLE_IT();
1012:C:/Users/lenovo/Desktop/liteos/Project2/BearPi_LiteOS/targets/STM32L431_BearPi/Drivers/STM32L4xx_HAL_Driver/Src\stm32l4xx_hal_pwr_ex.c ****       }
1013:C:/Users/lenovo/Desktop/liteos/Project2/BearPi_LiteOS/targets/STM32L431_BearPi/Drivers/STM32L4xx_HAL_Driver/Src\stm32l4xx_hal_pwr_ex.c ****   
1014:C:/Users/lenovo/Desktop/liteos/Project2/BearPi_LiteOS/targets/STM32L431_BearPi/Drivers/STM32L4xx_HAL_Driver/Src\stm32l4xx_hal_pwr_ex.c ****       /* Configure event mode */
1015:C:/Users/lenovo/Desktop/liteos/Project2/BearPi_LiteOS/targets/STM32L431_BearPi/Drivers/STM32L4xx_HAL_Driver/Src\stm32l4xx_hal_pwr_ex.c ****       if((sConfigPVM->Mode & PVM_MODE_EVT) == PVM_MODE_EVT)
1016:C:/Users/lenovo/Desktop/liteos/Project2/BearPi_LiteOS/targets/STM32L431_BearPi/Drivers/STM32L4xx_HAL_Driver/Src\stm32l4xx_hal_pwr_ex.c ****       {
1017:C:/Users/lenovo/Desktop/liteos/Project2/BearPi_LiteOS/targets/STM32L431_BearPi/Drivers/STM32L4xx_HAL_Driver/Src\stm32l4xx_hal_pwr_ex.c ****         __HAL_PWR_PVM4_EXTI_ENABLE_EVENT();
1018:C:/Users/lenovo/Desktop/liteos/Project2/BearPi_LiteOS/targets/STM32L431_BearPi/Drivers/STM32L4xx_HAL_Driver/Src\stm32l4xx_hal_pwr_ex.c ****       }
1019:C:/Users/lenovo/Desktop/liteos/Project2/BearPi_LiteOS/targets/STM32L431_BearPi/Drivers/STM32L4xx_HAL_Driver/Src\stm32l4xx_hal_pwr_ex.c ****   
1020:C:/Users/lenovo/Desktop/liteos/Project2/BearPi_LiteOS/targets/STM32L431_BearPi/Drivers/STM32L4xx_HAL_Driver/Src\stm32l4xx_hal_pwr_ex.c ****       /* Configure the edge */
1021:C:/Users/lenovo/Desktop/liteos/Project2/BearPi_LiteOS/targets/STM32L431_BearPi/Drivers/STM32L4xx_HAL_Driver/Src\stm32l4xx_hal_pwr_ex.c ****       if((sConfigPVM->Mode & PVM_RISING_EDGE) == PVM_RISING_EDGE)
1022:C:/Users/lenovo/Desktop/liteos/Project2/BearPi_LiteOS/targets/STM32L431_BearPi/Drivers/STM32L4xx_HAL_Driver/Src\stm32l4xx_hal_pwr_ex.c ****       {
1023:C:/Users/lenovo/Desktop/liteos/Project2/BearPi_LiteOS/targets/STM32L431_BearPi/Drivers/STM32L4xx_HAL_Driver/Src\stm32l4xx_hal_pwr_ex.c ****         __HAL_PWR_PVM4_EXTI_ENABLE_RISING_EDGE();
1024:C:/Users/lenovo/Desktop/liteos/Project2/BearPi_LiteOS/targets/STM32L431_BearPi/Drivers/STM32L4xx_HAL_Driver/Src\stm32l4xx_hal_pwr_ex.c ****       }
1025:C:/Users/lenovo/Desktop/liteos/Project2/BearPi_LiteOS/targets/STM32L431_BearPi/Drivers/STM32L4xx_HAL_Driver/Src\stm32l4xx_hal_pwr_ex.c ****   
1026:C:/Users/lenovo/Desktop/liteos/Project2/BearPi_LiteOS/targets/STM32L431_BearPi/Drivers/STM32L4xx_HAL_Driver/Src\stm32l4xx_hal_pwr_ex.c ****       if((sConfigPVM->Mode & PVM_FALLING_EDGE) == PVM_FALLING_EDGE)
1027:C:/Users/lenovo/Desktop/liteos/Project2/BearPi_LiteOS/targets/STM32L431_BearPi/Drivers/STM32L4xx_HAL_Driver/Src\stm32l4xx_hal_pwr_ex.c ****       {
1028:C:/Users/lenovo/Desktop/liteos/Project2/BearPi_LiteOS/targets/STM32L431_BearPi/Drivers/STM32L4xx_HAL_Driver/Src\stm32l4xx_hal_pwr_ex.c ****         __HAL_PWR_PVM4_EXTI_ENABLE_FALLING_EDGE();
1029:C:/Users/lenovo/Desktop/liteos/Project2/BearPi_LiteOS/targets/STM32L431_BearPi/Drivers/STM32L4xx_HAL_Driver/Src\stm32l4xx_hal_pwr_ex.c ****       }
1030:C:/Users/lenovo/Desktop/liteos/Project2/BearPi_LiteOS/targets/STM32L431_BearPi/Drivers/STM32L4xx_HAL_Driver/Src\stm32l4xx_hal_pwr_ex.c ****       break;  
1031:C:/Users/lenovo/Desktop/liteos/Project2/BearPi_LiteOS/targets/STM32L431_BearPi/Drivers/STM32L4xx_HAL_Driver/Src\stm32l4xx_hal_pwr_ex.c ****       
1032:C:/Users/lenovo/Desktop/liteos/Project2/BearPi_LiteOS/targets/STM32L431_BearPi/Drivers/STM32L4xx_HAL_Driver/Src\stm32l4xx_hal_pwr_ex.c ****     default:
1033:C:/Users/lenovo/Desktop/liteos/Project2/BearPi_LiteOS/targets/STM32L431_BearPi/Drivers/STM32L4xx_HAL_Driver/Src\stm32l4xx_hal_pwr_ex.c ****       return HAL_ERROR;                      
 1079              		.loc 1 1033 0
 1080 000a 0120     		movs	r0, #1
 1081              	.LVL96:
 1082 000c 7047     		bx	lr
 1083              	.LVL97:
 1084              	.L103:
 972:C:/Users/lenovo/Desktop/liteos/Project2/BearPi_LiteOS/targets/STM32L431_BearPi/Drivers/STM32L4xx_HAL_Driver/Src\stm32l4xx_hal_pwr_ex.c ****       __HAL_PWR_PVM3_EXTI_DISABLE_IT();
 1085              		.loc 1 972 0
 1086 000e 394B     		ldr	r3, .L115
 1087 0010 5A6A     		ldr	r2, [r3, #36]
 1088 0012 22F02002 		bic	r2, r2, #32
 1089 0016 5A62     		str	r2, [r3, #36]
 973:C:/Users/lenovo/Desktop/liteos/Project2/BearPi_LiteOS/targets/STM32L431_BearPi/Drivers/STM32L4xx_HAL_Driver/Src\stm32l4xx_hal_pwr_ex.c ****       __HAL_PWR_PVM3_EXTI_DISABLE_FALLING_EDGE(); 
 1090              		.loc 1 973 0
 1091 0018 1A6A     		ldr	r2, [r3, #32]
 1092 001a 22F02002 		bic	r2, r2, #32
 1093 001e 1A62     		str	r2, [r3, #32]
 974:C:/Users/lenovo/Desktop/liteos/Project2/BearPi_LiteOS/targets/STM32L431_BearPi/Drivers/STM32L4xx_HAL_Driver/Src\stm32l4xx_hal_pwr_ex.c ****       __HAL_PWR_PVM3_EXTI_DISABLE_RISING_EDGE();
 1094              		.loc 1 974 0
 1095 0020 DA6A     		ldr	r2, [r3, #44]
 1096 0022 22F02002 		bic	r2, r2, #32
 1097 0026 DA62     		str	r2, [r3, #44]
 975:C:/Users/lenovo/Desktop/liteos/Project2/BearPi_LiteOS/targets/STM32L431_BearPi/Drivers/STM32L4xx_HAL_Driver/Src\stm32l4xx_hal_pwr_ex.c **** 
 1098              		.loc 1 975 0
 1099 0028 9A6A     		ldr	r2, [r3, #40]
ARM GAS  c:\Users\lenovo\AppData\Local\Temp\ccy7mvmD.s 			page 39


 1100 002a 22F02002 		bic	r2, r2, #32
 1101 002e 9A62     		str	r2, [r3, #40]
 978:C:/Users/lenovo/Desktop/liteos/Project2/BearPi_LiteOS/targets/STM32L431_BearPi/Drivers/STM32L4xx_HAL_Driver/Src\stm32l4xx_hal_pwr_ex.c ****       {
 1102              		.loc 1 978 0
 1103 0030 4368     		ldr	r3, [r0, #4]
 1104 0032 13F4803F 		tst	r3, #65536
 1105 0036 04D0     		beq	.L105
 980:C:/Users/lenovo/Desktop/liteos/Project2/BearPi_LiteOS/targets/STM32L431_BearPi/Drivers/STM32L4xx_HAL_Driver/Src\stm32l4xx_hal_pwr_ex.c ****       }
 1106              		.loc 1 980 0
 1107 0038 2E4A     		ldr	r2, .L115
 1108 003a 136A     		ldr	r3, [r2, #32]
 1109 003c 43F02003 		orr	r3, r3, #32
 1110 0040 1362     		str	r3, [r2, #32]
 1111              	.L105:
 984:C:/Users/lenovo/Desktop/liteos/Project2/BearPi_LiteOS/targets/STM32L431_BearPi/Drivers/STM32L4xx_HAL_Driver/Src\stm32l4xx_hal_pwr_ex.c ****       {
 1112              		.loc 1 984 0
 1113 0042 4368     		ldr	r3, [r0, #4]
 1114 0044 13F4003F 		tst	r3, #131072
 1115 0048 04D0     		beq	.L106
 986:C:/Users/lenovo/Desktop/liteos/Project2/BearPi_LiteOS/targets/STM32L431_BearPi/Drivers/STM32L4xx_HAL_Driver/Src\stm32l4xx_hal_pwr_ex.c ****       }
 1116              		.loc 1 986 0
 1117 004a 2A4A     		ldr	r2, .L115
 1118 004c 536A     		ldr	r3, [r2, #36]
 1119 004e 43F02003 		orr	r3, r3, #32
 1120 0052 5362     		str	r3, [r2, #36]
 1121              	.L106:
 990:C:/Users/lenovo/Desktop/liteos/Project2/BearPi_LiteOS/targets/STM32L431_BearPi/Drivers/STM32L4xx_HAL_Driver/Src\stm32l4xx_hal_pwr_ex.c ****       {
 1122              		.loc 1 990 0
 1123 0054 4368     		ldr	r3, [r0, #4]
 1124 0056 13F0010F 		tst	r3, #1
 1125 005a 04D0     		beq	.L107
 992:C:/Users/lenovo/Desktop/liteos/Project2/BearPi_LiteOS/targets/STM32L431_BearPi/Drivers/STM32L4xx_HAL_Driver/Src\stm32l4xx_hal_pwr_ex.c ****       }
 1126              		.loc 1 992 0
 1127 005c 254A     		ldr	r2, .L115
 1128 005e 936A     		ldr	r3, [r2, #40]
 1129 0060 43F02003 		orr	r3, r3, #32
 1130 0064 9362     		str	r3, [r2, #40]
 1131              	.L107:
 995:C:/Users/lenovo/Desktop/liteos/Project2/BearPi_LiteOS/targets/STM32L431_BearPi/Drivers/STM32L4xx_HAL_Driver/Src\stm32l4xx_hal_pwr_ex.c ****       {
 1132              		.loc 1 995 0
 1133 0066 4368     		ldr	r3, [r0, #4]
 1134 0068 13F0020F 		tst	r3, #2
 1135 006c 3DD0     		beq	.L112
 997:C:/Users/lenovo/Desktop/liteos/Project2/BearPi_LiteOS/targets/STM32L431_BearPi/Drivers/STM32L4xx_HAL_Driver/Src\stm32l4xx_hal_pwr_ex.c ****       }
 1136              		.loc 1 997 0
 1137 006e 214A     		ldr	r2, .L115
 1138 0070 D36A     		ldr	r3, [r2, #44]
 1139 0072 43F02003 		orr	r3, r3, #32
 1140 0076 D362     		str	r3, [r2, #44]
1034:C:/Users/lenovo/Desktop/liteos/Project2/BearPi_LiteOS/targets/STM32L431_BearPi/Drivers/STM32L4xx_HAL_Driver/Src\stm32l4xx_hal_pwr_ex.c ****     
1035:C:/Users/lenovo/Desktop/liteos/Project2/BearPi_LiteOS/targets/STM32L431_BearPi/Drivers/STM32L4xx_HAL_Driver/Src\stm32l4xx_hal_pwr_ex.c ****   }   
1036:C:/Users/lenovo/Desktop/liteos/Project2/BearPi_LiteOS/targets/STM32L431_BearPi/Drivers/STM32L4xx_HAL_Driver/Src\stm32l4xx_hal_pwr_ex.c **** 
1037:C:/Users/lenovo/Desktop/liteos/Project2/BearPi_LiteOS/targets/STM32L431_BearPi/Drivers/STM32L4xx_HAL_Driver/Src\stm32l4xx_hal_pwr_ex.c ****   
1038:C:/Users/lenovo/Desktop/liteos/Project2/BearPi_LiteOS/targets/STM32L431_BearPi/Drivers/STM32L4xx_HAL_Driver/Src\stm32l4xx_hal_pwr_ex.c ****   return HAL_OK;
 1141              		.loc 1 1038 0
 1142 0078 0020     		movs	r0, #0
 1143              	.LVL98:
ARM GAS  c:\Users\lenovo\AppData\Local\Temp\ccy7mvmD.s 			page 40


 1144 007a 7047     		bx	lr
 1145              	.LVL99:
 1146              	.L104:
1003:C:/Users/lenovo/Desktop/liteos/Project2/BearPi_LiteOS/targets/STM32L431_BearPi/Drivers/STM32L4xx_HAL_Driver/Src\stm32l4xx_hal_pwr_ex.c ****       __HAL_PWR_PVM4_EXTI_DISABLE_IT();
 1147              		.loc 1 1003 0
 1148 007c 1D4B     		ldr	r3, .L115
 1149 007e 5A6A     		ldr	r2, [r3, #36]
 1150 0080 22F04002 		bic	r2, r2, #64
 1151 0084 5A62     		str	r2, [r3, #36]
1004:C:/Users/lenovo/Desktop/liteos/Project2/BearPi_LiteOS/targets/STM32L431_BearPi/Drivers/STM32L4xx_HAL_Driver/Src\stm32l4xx_hal_pwr_ex.c ****       __HAL_PWR_PVM4_EXTI_DISABLE_FALLING_EDGE(); 
 1152              		.loc 1 1004 0
 1153 0086 1A6A     		ldr	r2, [r3, #32]
 1154 0088 22F04002 		bic	r2, r2, #64
 1155 008c 1A62     		str	r2, [r3, #32]
1005:C:/Users/lenovo/Desktop/liteos/Project2/BearPi_LiteOS/targets/STM32L431_BearPi/Drivers/STM32L4xx_HAL_Driver/Src\stm32l4xx_hal_pwr_ex.c ****       __HAL_PWR_PVM4_EXTI_DISABLE_RISING_EDGE();
 1156              		.loc 1 1005 0
 1157 008e DA6A     		ldr	r2, [r3, #44]
 1158 0090 22F04002 		bic	r2, r2, #64
 1159 0094 DA62     		str	r2, [r3, #44]
1006:C:/Users/lenovo/Desktop/liteos/Project2/BearPi_LiteOS/targets/STM32L431_BearPi/Drivers/STM32L4xx_HAL_Driver/Src\stm32l4xx_hal_pwr_ex.c **** 
 1160              		.loc 1 1006 0
 1161 0096 9A6A     		ldr	r2, [r3, #40]
 1162 0098 22F04002 		bic	r2, r2, #64
 1163 009c 9A62     		str	r2, [r3, #40]
1009:C:/Users/lenovo/Desktop/liteos/Project2/BearPi_LiteOS/targets/STM32L431_BearPi/Drivers/STM32L4xx_HAL_Driver/Src\stm32l4xx_hal_pwr_ex.c ****       {
 1164              		.loc 1 1009 0
 1165 009e 4368     		ldr	r3, [r0, #4]
 1166 00a0 13F4803F 		tst	r3, #65536
 1167 00a4 04D0     		beq	.L108
1011:C:/Users/lenovo/Desktop/liteos/Project2/BearPi_LiteOS/targets/STM32L431_BearPi/Drivers/STM32L4xx_HAL_Driver/Src\stm32l4xx_hal_pwr_ex.c ****       }
 1168              		.loc 1 1011 0
 1169 00a6 134A     		ldr	r2, .L115
 1170 00a8 136A     		ldr	r3, [r2, #32]
 1171 00aa 43F04003 		orr	r3, r3, #64
 1172 00ae 1362     		str	r3, [r2, #32]
 1173              	.L108:
1015:C:/Users/lenovo/Desktop/liteos/Project2/BearPi_LiteOS/targets/STM32L431_BearPi/Drivers/STM32L4xx_HAL_Driver/Src\stm32l4xx_hal_pwr_ex.c ****       {
 1174              		.loc 1 1015 0
 1175 00b0 4368     		ldr	r3, [r0, #4]
 1176 00b2 13F4003F 		tst	r3, #131072
 1177 00b6 04D0     		beq	.L109
1017:C:/Users/lenovo/Desktop/liteos/Project2/BearPi_LiteOS/targets/STM32L431_BearPi/Drivers/STM32L4xx_HAL_Driver/Src\stm32l4xx_hal_pwr_ex.c ****       }
 1178              		.loc 1 1017 0
 1179 00b8 0E4A     		ldr	r2, .L115
 1180 00ba 536A     		ldr	r3, [r2, #36]
 1181 00bc 43F04003 		orr	r3, r3, #64
 1182 00c0 5362     		str	r3, [r2, #36]
 1183              	.L109:
1021:C:/Users/lenovo/Desktop/liteos/Project2/BearPi_LiteOS/targets/STM32L431_BearPi/Drivers/STM32L4xx_HAL_Driver/Src\stm32l4xx_hal_pwr_ex.c ****       {
 1184              		.loc 1 1021 0
 1185 00c2 4368     		ldr	r3, [r0, #4]
 1186 00c4 13F0010F 		tst	r3, #1
 1187 00c8 04D0     		beq	.L110
1023:C:/Users/lenovo/Desktop/liteos/Project2/BearPi_LiteOS/targets/STM32L431_BearPi/Drivers/STM32L4xx_HAL_Driver/Src\stm32l4xx_hal_pwr_ex.c ****       }
 1188              		.loc 1 1023 0
 1189 00ca 0A4A     		ldr	r2, .L115
 1190 00cc 936A     		ldr	r3, [r2, #40]
ARM GAS  c:\Users\lenovo\AppData\Local\Temp\ccy7mvmD.s 			page 41


 1191 00ce 43F04003 		orr	r3, r3, #64
 1192 00d2 9362     		str	r3, [r2, #40]
 1193              	.L110:
1026:C:/Users/lenovo/Desktop/liteos/Project2/BearPi_LiteOS/targets/STM32L431_BearPi/Drivers/STM32L4xx_HAL_Driver/Src\stm32l4xx_hal_pwr_ex.c ****       {
 1194              		.loc 1 1026 0
 1195 00d4 4368     		ldr	r3, [r0, #4]
 1196 00d6 13F0020F 		tst	r3, #2
 1197 00da 08D0     		beq	.L113
1028:C:/Users/lenovo/Desktop/liteos/Project2/BearPi_LiteOS/targets/STM32L431_BearPi/Drivers/STM32L4xx_HAL_Driver/Src\stm32l4xx_hal_pwr_ex.c ****       }
 1198              		.loc 1 1028 0
 1199 00dc 054A     		ldr	r2, .L115
 1200 00de D36A     		ldr	r3, [r2, #44]
 1201 00e0 43F04003 		orr	r3, r3, #64
 1202 00e4 D362     		str	r3, [r2, #44]
 1203              		.loc 1 1038 0
 1204 00e6 0020     		movs	r0, #0
 1205              	.LVL100:
 1206 00e8 7047     		bx	lr
 1207              	.LVL101:
 1208              	.L112:
 1209 00ea 0020     		movs	r0, #0
 1210              	.LVL102:
 1211 00ec 7047     		bx	lr
 1212              	.LVL103:
 1213              	.L113:
 1214 00ee 0020     		movs	r0, #0
 1215              	.LVL104:
1039:C:/Users/lenovo/Desktop/liteos/Project2/BearPi_LiteOS/targets/STM32L431_BearPi/Drivers/STM32L4xx_HAL_Driver/Src\stm32l4xx_hal_pwr_ex.c **** }
 1216              		.loc 1 1039 0
 1217 00f0 7047     		bx	lr
 1218              	.L116:
 1219 00f2 00BF     		.align	2
 1220              	.L115:
 1221 00f4 00040140 		.word	1073808384
 1222              		.cfi_endproc
 1223              	.LFE151:
 1225              		.section	.text.HAL_PWREx_EnableLowPowerRunMode,"ax",%progbits
 1226              		.align	1
 1227              		.global	HAL_PWREx_EnableLowPowerRunMode
 1228              		.syntax unified
 1229              		.thumb
 1230              		.thumb_func
 1231              		.fpu fpv4-sp-d16
 1233              	HAL_PWREx_EnableLowPowerRunMode:
 1234              	.LFB152:
1040:C:/Users/lenovo/Desktop/liteos/Project2/BearPi_LiteOS/targets/STM32L431_BearPi/Drivers/STM32L4xx_HAL_Driver/Src\stm32l4xx_hal_pwr_ex.c **** 
1041:C:/Users/lenovo/Desktop/liteos/Project2/BearPi_LiteOS/targets/STM32L431_BearPi/Drivers/STM32L4xx_HAL_Driver/Src\stm32l4xx_hal_pwr_ex.c **** 
1042:C:/Users/lenovo/Desktop/liteos/Project2/BearPi_LiteOS/targets/STM32L431_BearPi/Drivers/STM32L4xx_HAL_Driver/Src\stm32l4xx_hal_pwr_ex.c **** 
1043:C:/Users/lenovo/Desktop/liteos/Project2/BearPi_LiteOS/targets/STM32L431_BearPi/Drivers/STM32L4xx_HAL_Driver/Src\stm32l4xx_hal_pwr_ex.c **** /**
1044:C:/Users/lenovo/Desktop/liteos/Project2/BearPi_LiteOS/targets/STM32L431_BearPi/Drivers/STM32L4xx_HAL_Driver/Src\stm32l4xx_hal_pwr_ex.c ****   * @brief Enter Low-power Run mode
1045:C:/Users/lenovo/Desktop/liteos/Project2/BearPi_LiteOS/targets/STM32L431_BearPi/Drivers/STM32L4xx_HAL_Driver/Src\stm32l4xx_hal_pwr_ex.c ****   * @note  In Low-power Run mode, all I/O pins keep the same state as in Run mode.  
1046:C:/Users/lenovo/Desktop/liteos/Project2/BearPi_LiteOS/targets/STM32L431_BearPi/Drivers/STM32L4xx_HAL_Driver/Src\stm32l4xx_hal_pwr_ex.c ****   * @note  When Regulator is set to PWR_LOWPOWERREGULATOR_ON, the user can optionally configure the
1047:C:/Users/lenovo/Desktop/liteos/Project2/BearPi_LiteOS/targets/STM32L431_BearPi/Drivers/STM32L4xx_HAL_Driver/Src\stm32l4xx_hal_pwr_ex.c ****   *        Flash in power-down monde in setting the RUN_PD bit in FLASH_ACR register.
1048:C:/Users/lenovo/Desktop/liteos/Project2/BearPi_LiteOS/targets/STM32L431_BearPi/Drivers/STM32L4xx_HAL_Driver/Src\stm32l4xx_hal_pwr_ex.c ****   *        Additionally, the clock frequency must be reduced below 2 MHz.
1049:C:/Users/lenovo/Desktop/liteos/Project2/BearPi_LiteOS/targets/STM32L431_BearPi/Drivers/STM32L4xx_HAL_Driver/Src\stm32l4xx_hal_pwr_ex.c ****   *        Setting RUN_PD in FLASH_ACR then appropriately reducing the clock frequency must 
1050:C:/Users/lenovo/Desktop/liteos/Project2/BearPi_LiteOS/targets/STM32L431_BearPi/Drivers/STM32L4xx_HAL_Driver/Src\stm32l4xx_hal_pwr_ex.c ****   *        be done before calling HAL_PWREx_EnableLowPowerRunMode() API.     
1051:C:/Users/lenovo/Desktop/liteos/Project2/BearPi_LiteOS/targets/STM32L431_BearPi/Drivers/STM32L4xx_HAL_Driver/Src\stm32l4xx_hal_pwr_ex.c ****   * @retval None
ARM GAS  c:\Users\lenovo\AppData\Local\Temp\ccy7mvmD.s 			page 42


1052:C:/Users/lenovo/Desktop/liteos/Project2/BearPi_LiteOS/targets/STM32L431_BearPi/Drivers/STM32L4xx_HAL_Driver/Src\stm32l4xx_hal_pwr_ex.c ****   */
1053:C:/Users/lenovo/Desktop/liteos/Project2/BearPi_LiteOS/targets/STM32L431_BearPi/Drivers/STM32L4xx_HAL_Driver/Src\stm32l4xx_hal_pwr_ex.c **** void HAL_PWREx_EnableLowPowerRunMode(void)
1054:C:/Users/lenovo/Desktop/liteos/Project2/BearPi_LiteOS/targets/STM32L431_BearPi/Drivers/STM32L4xx_HAL_Driver/Src\stm32l4xx_hal_pwr_ex.c **** {
 1235              		.loc 1 1054 0
 1236              		.cfi_startproc
 1237              		@ args = 0, pretend = 0, frame = 0
 1238              		@ frame_needed = 0, uses_anonymous_args = 0
 1239              		@ link register save eliminated.
1055:C:/Users/lenovo/Desktop/liteos/Project2/BearPi_LiteOS/targets/STM32L431_BearPi/Drivers/STM32L4xx_HAL_Driver/Src\stm32l4xx_hal_pwr_ex.c ****   /* Set Regulator parameter */
1056:C:/Users/lenovo/Desktop/liteos/Project2/BearPi_LiteOS/targets/STM32L431_BearPi/Drivers/STM32L4xx_HAL_Driver/Src\stm32l4xx_hal_pwr_ex.c ****   SET_BIT(PWR->CR1, PWR_CR1_LPR); 
 1240              		.loc 1 1056 0
 1241 0000 024A     		ldr	r2, .L118
 1242 0002 1368     		ldr	r3, [r2]
 1243 0004 43F48043 		orr	r3, r3, #16384
 1244 0008 1360     		str	r3, [r2]
1057:C:/Users/lenovo/Desktop/liteos/Project2/BearPi_LiteOS/targets/STM32L431_BearPi/Drivers/STM32L4xx_HAL_Driver/Src\stm32l4xx_hal_pwr_ex.c **** }
 1245              		.loc 1 1057 0
 1246 000a 7047     		bx	lr
 1247              	.L119:
 1248              		.align	2
 1249              	.L118:
 1250 000c 00700040 		.word	1073770496
 1251              		.cfi_endproc
 1252              	.LFE152:
 1254              		.section	.text.HAL_PWREx_DisableLowPowerRunMode,"ax",%progbits
 1255              		.align	1
 1256              		.global	HAL_PWREx_DisableLowPowerRunMode
 1257              		.syntax unified
 1258              		.thumb
 1259              		.thumb_func
 1260              		.fpu fpv4-sp-d16
 1262              	HAL_PWREx_DisableLowPowerRunMode:
 1263              	.LFB153:
1058:C:/Users/lenovo/Desktop/liteos/Project2/BearPi_LiteOS/targets/STM32L431_BearPi/Drivers/STM32L4xx_HAL_Driver/Src\stm32l4xx_hal_pwr_ex.c **** 
1059:C:/Users/lenovo/Desktop/liteos/Project2/BearPi_LiteOS/targets/STM32L431_BearPi/Drivers/STM32L4xx_HAL_Driver/Src\stm32l4xx_hal_pwr_ex.c **** 
1060:C:/Users/lenovo/Desktop/liteos/Project2/BearPi_LiteOS/targets/STM32L431_BearPi/Drivers/STM32L4xx_HAL_Driver/Src\stm32l4xx_hal_pwr_ex.c **** /**
1061:C:/Users/lenovo/Desktop/liteos/Project2/BearPi_LiteOS/targets/STM32L431_BearPi/Drivers/STM32L4xx_HAL_Driver/Src\stm32l4xx_hal_pwr_ex.c ****   * @brief Exit Low-power Run mode.
1062:C:/Users/lenovo/Desktop/liteos/Project2/BearPi_LiteOS/targets/STM32L431_BearPi/Drivers/STM32L4xx_HAL_Driver/Src\stm32l4xx_hal_pwr_ex.c ****   * @note  Before HAL_PWREx_DisableLowPowerRunMode() completion, the function checks that 
1063:C:/Users/lenovo/Desktop/liteos/Project2/BearPi_LiteOS/targets/STM32L431_BearPi/Drivers/STM32L4xx_HAL_Driver/Src\stm32l4xx_hal_pwr_ex.c ****   *        REGLPF has been properly reset (otherwise, HAL_PWREx_DisableLowPowerRunMode 
1064:C:/Users/lenovo/Desktop/liteos/Project2/BearPi_LiteOS/targets/STM32L431_BearPi/Drivers/STM32L4xx_HAL_Driver/Src\stm32l4xx_hal_pwr_ex.c ****   *        returns HAL_TIMEOUT status). The system clock frequency can then be
